	.text
	.syntax unified
	.eabi_attribute	67, "2.09"	@ Tag_conformance
	.cpu	cortex-m4
	.eabi_attribute	6, 13	@ Tag_CPU_arch
	.eabi_attribute	7, 77	@ Tag_CPU_arch_profile
	.eabi_attribute	8, 0	@ Tag_ARM_ISA_use
	.eabi_attribute	9, 2	@ Tag_THUMB_ISA_use
	.fpu	fpv4-sp-d16
	.eabi_attribute	27, 1	@ Tag_ABI_HardFP_use
	.eabi_attribute	36, 1	@ Tag_FP_HP_extension
	.eabi_attribute	34, 1	@ Tag_CPU_unaligned_access
	.eabi_attribute	17, 1	@ Tag_ABI_PCS_GOT_use
	.eabi_attribute	20, 2	@ Tag_ABI_FP_denormal
	.eabi_attribute	21, 0	@ Tag_ABI_FP_exceptions
	.eabi_attribute	23, 3	@ Tag_ABI_FP_number_model
	.eabi_attribute	24, 1	@ Tag_ABI_align_needed
	.eabi_attribute	25, 1	@ Tag_ABI_align_preserved
	.eabi_attribute	28, 1	@ Tag_ABI_VFP_args
	.eabi_attribute	38, 1	@ Tag_ABI_FP_16bit_format
	.eabi_attribute	18, 2	@ Tag_ABI_PCS_wchar_t
	.eabi_attribute	26, 1	@ Tag_ABI_enum_size
	.eabi_attribute	14, 0	@ Tag_ABI_PCS_R9_use
	.file	"adc.c"
	.file	1 "D:\\" "kevil\\ARM\\ARMCLANG\\Bin\\..\\include\\stdint.h"
	.file	2 "D:\\horizon\\Horizon_Infantry (2)\\MDK-ARM" "../Drivers/CMSIS/Device/ST/STM32F4xx/Include/stm32f407xx.h"
	.file	3 "D:\\horizon\\Horizon_Infantry (2)\\MDK-ARM" "../Drivers/STM32F4xx_HAL_Driver/Inc\\stm32f4xx_hal_adc.h"
	.file	4 "D:\\horizon\\Horizon_Infantry (2)\\MDK-ARM" "../Drivers/CMSIS/Device/ST/STM32F4xx/Include\\stm32f4xx.h"
	.file	5 "D:\\horizon\\Horizon_Infantry (2)\\MDK-ARM" "../Drivers/STM32F4xx_HAL_Driver/Inc\\stm32f4xx_hal_dma.h"
	.file	6 "D:\\horizon\\Horizon_Infantry (2)\\MDK-ARM" "../Drivers/STM32F4xx_HAL_Driver/Inc/stm32f4xx_hal_def.h"
	.file	7 "D:\\horizon\\Horizon_Infantry (2)\\MDK-ARM" "../Core/Src/adc.c"
	.section	.text.MX_ADC1_Init,"ax",%progbits
	.hidden	MX_ADC1_Init                    @ -- Begin function MX_ADC1_Init
	.globl	MX_ADC1_Init
	.p2align	2
	.type	MX_ADC1_Init,%function
	.code	16                              @ @MX_ADC1_Init
	.thumb_func
MX_ADC1_Init:
.Lfunc_begin0:
	.loc	7 32 0                          @ ../Core/Src/adc.c:32:0
	.fnstart
	.cfi_sections .debug_frame
	.cfi_startproc
@ %bb.0:
	.save	{r7, lr}
	push	{r7, lr}
	.cfi_def_cfa_offset 8
	.cfi_offset lr, -4
	.cfi_offset r7, -8
	.pad	#24
	sub	sp, #24
	.cfi_def_cfa_offset 32
	movs	r2, #0
.Ltmp0:
	.loc	7 38 26 prologue_end            @ ../Core/Src/adc.c:38:26
	str	r2, [sp]                        @ 4-byte Spill
	str	r2, [sp, #20]
	str	r2, [sp, #16]
	str	r2, [sp, #12]
	str	r2, [sp, #8]
	.loc	7 46 18                         @ ../Core/Src/adc.c:46:18
	movw	r0, :lower16:hadc1
	movt	r0, :upper16:hadc1
	str	r0, [sp, #4]                    @ 4-byte Spill
	movw	r1, #8192
	movt	r1, #16385
	str	r1, [r0]
	mov.w	r1, #65536
	.loc	7 47 29                         @ ../Core/Src/adc.c:47:29
	str	r1, [r0, #4]
	.loc	7 48 25                         @ ../Core/Src/adc.c:48:25
	str	r2, [r0, #8]
	.loc	7 49 27                         @ ../Core/Src/adc.c:49:27
	str	r2, [r0, #16]
	.loc	7 50 33                         @ ../Core/Src/adc.c:50:33
	strb	r2, [r0, #24]
	.loc	7 51 36                         @ ../Core/Src/adc.c:51:36
	strb.w	r2, [r0, #32]
	.loc	7 52 35                         @ ../Core/Src/adc.c:52:35
	str	r2, [r0, #44]
	movs	r1, #1
	movt	r1, #3840
	.loc	7 53 31                         @ ../Core/Src/adc.c:53:31
	str	r1, [r0, #40]
	.loc	7 54 24                         @ ../Core/Src/adc.c:54:24
	str	r2, [r0, #12]
	movs	r1, #1
	.loc	7 55 30                         @ ../Core/Src/adc.c:55:30
	str	r1, [r0, #28]
	.loc	7 56 36                         @ ../Core/Src/adc.c:56:36
	strb.w	r2, [r0, #48]
	.loc	7 57 27                         @ ../Core/Src/adc.c:57:27
	str	r1, [r0, #20]
.Ltmp1:
	.loc	7 58 7                          @ ../Core/Src/adc.c:58:7
	bl	HAL_ADC_Init
.Ltmp2:
	.loc	7 58 7 is_stmt 0                @ ../Core/Src/adc.c:58:7
	cbz	r0, .LBB0_2
	b	.LBB0_1
.LBB0_1:
.Ltmp3:
	.loc	7 60 5 is_stmt 1                @ ../Core/Src/adc.c:60:5
	bl	Error_Handler
	.loc	7 61 3                          @ ../Core/Src/adc.c:61:3
	b	.LBB0_2
.Ltmp4:
.LBB0_2:
	.loc	7 0 3 is_stmt 0                 @ ../Core/Src/adc.c:0:3
	movs	r0, #16
	.loc	7 65 19 is_stmt 1               @ ../Core/Src/adc.c:65:19
	str	r0, [sp, #8]
	movs	r0, #1
	.loc	7 66 16                         @ ../Core/Src/adc.c:66:16
	str	r0, [sp, #12]
	movs	r0, #0
	.loc	7 67 24                         @ ../Core/Src/adc.c:67:24
	str	r0, [sp, #16]
.Ltmp5:
	.loc	7 68 7                          @ ../Core/Src/adc.c:68:7
	movw	r0, :lower16:hadc1
	movt	r0, :upper16:hadc1
	add	r1, sp, #8
	bl	HAL_ADC_ConfigChannel
.Ltmp6:
	.loc	7 68 7 is_stmt 0                @ ../Core/Src/adc.c:68:7
	cbz	r0, .LBB0_4
	b	.LBB0_3
.LBB0_3:
.Ltmp7:
	.loc	7 70 5 is_stmt 1                @ ../Core/Src/adc.c:70:5
	bl	Error_Handler
	.loc	7 71 3                          @ ../Core/Src/adc.c:71:3
	b	.LBB0_4
.Ltmp8:
.LBB0_4:
	.loc	7 76 1                          @ ../Core/Src/adc.c:76:1
	add	sp, #24
	pop	{r7, pc}
.Ltmp9:
.Lfunc_end0:
	.size	MX_ADC1_Init, .Lfunc_end0-MX_ADC1_Init
	.cfi_endproc
	.cantunwind
	.fnend
                                        @ -- End function
	.section	.text.MX_ADC3_Init,"ax",%progbits
	.hidden	MX_ADC3_Init                    @ -- Begin function MX_ADC3_Init
	.globl	MX_ADC3_Init
	.p2align	2
	.type	MX_ADC3_Init,%function
	.code	16                              @ @MX_ADC3_Init
	.thumb_func
MX_ADC3_Init:
.Lfunc_begin1:
	.loc	7 79 0                          @ ../Core/Src/adc.c:79:0
	.fnstart
	.cfi_startproc
@ %bb.0:
	.save	{r7, lr}
	push	{r7, lr}
	.cfi_def_cfa_offset 8
	.cfi_offset lr, -4
	.cfi_offset r7, -8
	.pad	#24
	sub	sp, #24
	.cfi_def_cfa_offset 32
	movs	r2, #0
.Ltmp10:
	.loc	7 85 26 prologue_end            @ ../Core/Src/adc.c:85:26
	str	r2, [sp]                        @ 4-byte Spill
	str	r2, [sp, #20]
	str	r2, [sp, #16]
	str	r2, [sp, #12]
	str	r2, [sp, #8]
	.loc	7 93 18                         @ ../Core/Src/adc.c:93:18
	movw	r0, :lower16:hadc3
	movt	r0, :upper16:hadc3
	str	r0, [sp, #4]                    @ 4-byte Spill
	movw	r1, #8704
	movt	r1, #16385
	str	r1, [r0]
	mov.w	r1, #65536
	.loc	7 94 29                         @ ../Core/Src/adc.c:94:29
	str	r1, [r0, #4]
	.loc	7 95 25                         @ ../Core/Src/adc.c:95:25
	str	r2, [r0, #8]
	.loc	7 96 27                         @ ../Core/Src/adc.c:96:27
	str	r2, [r0, #16]
	.loc	7 97 33                         @ ../Core/Src/adc.c:97:33
	strb	r2, [r0, #24]
	.loc	7 98 36                         @ ../Core/Src/adc.c:98:36
	strb.w	r2, [r0, #32]
	.loc	7 99 35                         @ ../Core/Src/adc.c:99:35
	str	r2, [r0, #44]
	movs	r1, #1
	movt	r1, #3840
	.loc	7 100 31                        @ ../Core/Src/adc.c:100:31
	str	r1, [r0, #40]
	.loc	7 101 24                        @ ../Core/Src/adc.c:101:24
	str	r2, [r0, #12]
	movs	r1, #1
	.loc	7 102 30                        @ ../Core/Src/adc.c:102:30
	str	r1, [r0, #28]
	.loc	7 103 36                        @ ../Core/Src/adc.c:103:36
	strb.w	r2, [r0, #48]
	.loc	7 104 27                        @ ../Core/Src/adc.c:104:27
	str	r1, [r0, #20]
.Ltmp11:
	.loc	7 105 7                         @ ../Core/Src/adc.c:105:7
	bl	HAL_ADC_Init
.Ltmp12:
	.loc	7 105 7 is_stmt 0               @ ../Core/Src/adc.c:105:7
	cbz	r0, .LBB1_2
	b	.LBB1_1
.LBB1_1:
.Ltmp13:
	.loc	7 107 5 is_stmt 1               @ ../Core/Src/adc.c:107:5
	bl	Error_Handler
	.loc	7 108 3                         @ ../Core/Src/adc.c:108:3
	b	.LBB1_2
.Ltmp14:
.LBB1_2:
	.loc	7 0 3 is_stmt 0                 @ ../Core/Src/adc.c:0:3
	movs	r0, #8
	.loc	7 112 19 is_stmt 1              @ ../Core/Src/adc.c:112:19
	str	r0, [sp, #8]
	movs	r0, #1
	.loc	7 113 16                        @ ../Core/Src/adc.c:113:16
	str	r0, [sp, #12]
	movs	r0, #0
	.loc	7 114 24                        @ ../Core/Src/adc.c:114:24
	str	r0, [sp, #16]
.Ltmp15:
	.loc	7 115 7                         @ ../Core/Src/adc.c:115:7
	movw	r0, :lower16:hadc3
	movt	r0, :upper16:hadc3
	add	r1, sp, #8
	bl	HAL_ADC_ConfigChannel
.Ltmp16:
	.loc	7 115 7 is_stmt 0               @ ../Core/Src/adc.c:115:7
	cbz	r0, .LBB1_4
	b	.LBB1_3
.LBB1_3:
.Ltmp17:
	.loc	7 117 5 is_stmt 1               @ ../Core/Src/adc.c:117:5
	bl	Error_Handler
	.loc	7 118 3                         @ ../Core/Src/adc.c:118:3
	b	.LBB1_4
.Ltmp18:
.LBB1_4:
	.loc	7 123 1                         @ ../Core/Src/adc.c:123:1
	add	sp, #24
	pop	{r7, pc}
.Ltmp19:
.Lfunc_end1:
	.size	MX_ADC3_Init, .Lfunc_end1-MX_ADC3_Init
	.cfi_endproc
	.cantunwind
	.fnend
                                        @ -- End function
	.section	.text.HAL_ADC_MspInit,"ax",%progbits
	.hidden	HAL_ADC_MspInit                 @ -- Begin function HAL_ADC_MspInit
	.globl	HAL_ADC_MspInit
	.p2align	2
	.type	HAL_ADC_MspInit,%function
	.code	16                              @ @HAL_ADC_MspInit
	.thumb_func
HAL_ADC_MspInit:
.Lfunc_begin2:
	.loc	7 126 0                         @ ../Core/Src/adc.c:126:0
	.fnstart
	.cfi_startproc
@ %bb.0:
	.save	{r7, lr}
	push	{r7, lr}
	.cfi_def_cfa_offset 8
	.cfi_offset lr, -4
	.cfi_offset r7, -8
	.pad	#40
	sub	sp, #40
	.cfi_def_cfa_offset 48
	str	r0, [sp, #36]
	movs	r0, #0
.Ltmp20:
	.loc	7 128 20 prologue_end           @ ../Core/Src/adc.c:128:20
	str	r0, [sp, #32]
	str	r0, [sp, #28]
	str	r0, [sp, #24]
	str	r0, [sp, #20]
	str	r0, [sp, #16]
.Ltmp21:
	.loc	7 129 6                         @ ../Core/Src/adc.c:129:6
	ldr	r0, [sp, #36]
	.loc	7 129 17 is_stmt 0              @ ../Core/Src/adc.c:129:17
	ldr	r0, [r0]
	movw	r1, #8192
	movt	r1, #16385
.Ltmp22:
	.loc	7 129 6                         @ ../Core/Src/adc.c:129:6
	cmp	r0, r1
	bne	.LBB2_4
	b	.LBB2_1
.LBB2_1:
.Ltmp23:
	.loc	7 135 5 is_stmt 1               @ ../Core/Src/adc.c:135:5
	b	.LBB2_2
.LBB2_2:
	.loc	7 0 5 is_stmt 0                 @ ../Core/Src/adc.c:0:5
	movs	r0, #0
.Ltmp24:
	.loc	7 135 28                        @ ../Core/Src/adc.c:135:28
	str	r0, [sp, #12]
	movw	r0, #14404
	movt	r0, #16386
	.loc	7 135 117                       @ ../Core/Src/adc.c:135:117
	ldr	r1, [r0]
	orr	r1, r1, #256
	str	r1, [r0]
	.loc	7 135 213                       @ ../Core/Src/adc.c:135:213
	ldr	r0, [r0]
	.loc	7 135 222                       @ ../Core/Src/adc.c:135:222
	and	r0, r0, #256
	.loc	7 135 147                       @ ../Core/Src/adc.c:135:147
	str	r0, [sp, #12]
	.loc	7 135 250                       @ ../Core/Src/adc.c:135:250
	ldr	r0, [sp, #12]
	.loc	7 135 258                       @ ../Core/Src/adc.c:135:258
	b	.LBB2_3
.Ltmp25:
.LBB2_3:
	.loc	7 139 3 is_stmt 1               @ ../Core/Src/adc.c:139:3
	b	.LBB2_11
.Ltmp26:
.LBB2_4:
	.loc	7 140 11                        @ ../Core/Src/adc.c:140:11
	ldr	r0, [sp, #36]
	.loc	7 140 22 is_stmt 0              @ ../Core/Src/adc.c:140:22
	ldr	r0, [r0]
	movw	r1, #8704
	movt	r1, #16385
.Ltmp27:
	.loc	7 140 11                        @ ../Core/Src/adc.c:140:11
	cmp	r0, r1
	bne	.LBB2_10
	b	.LBB2_5
.LBB2_5:
.Ltmp28:
	.loc	7 146 5 is_stmt 1               @ ../Core/Src/adc.c:146:5
	b	.LBB2_6
.LBB2_6:
	.loc	7 0 5 is_stmt 0                 @ ../Core/Src/adc.c:0:5
	movs	r0, #0
.Ltmp29:
	.loc	7 146 28                        @ ../Core/Src/adc.c:146:28
	str	r0, [sp, #8]
	movw	r0, #14404
	movt	r0, #16386
	.loc	7 146 117                       @ ../Core/Src/adc.c:146:117
	ldr	r1, [r0]
	orr	r1, r1, #1024
	str	r1, [r0]
	.loc	7 146 214                       @ ../Core/Src/adc.c:146:214
	ldr	r0, [r0]
	.loc	7 146 223                       @ ../Core/Src/adc.c:146:223
	and	r0, r0, #1024
	.loc	7 146 148                       @ ../Core/Src/adc.c:146:148
	str	r0, [sp, #8]
	.loc	7 146 252                       @ ../Core/Src/adc.c:146:252
	ldr	r0, [sp, #8]
	.loc	7 146 260                       @ ../Core/Src/adc.c:146:260
	b	.LBB2_7
.Ltmp30:
.LBB2_7:
	.loc	7 148 5 is_stmt 1               @ ../Core/Src/adc.c:148:5
	b	.LBB2_8
.LBB2_8:
	.loc	7 0 5 is_stmt 0                 @ ../Core/Src/adc.c:0:5
	movs	r0, #0
.Ltmp31:
	.loc	7 148 28                        @ ../Core/Src/adc.c:148:28
	str	r0, [sp, #4]
	movw	r0, #14384
	movt	r0, #16386
	.loc	7 148 117                       @ ../Core/Src/adc.c:148:117
	ldr	r1, [r0]
	orr	r1, r1, #32
	str	r1, [r0]
	.loc	7 148 213                       @ ../Core/Src/adc.c:148:213
	ldr	r0, [r0]
	.loc	7 148 222                       @ ../Core/Src/adc.c:148:222
	and	r0, r0, #32
	.loc	7 148 147                       @ ../Core/Src/adc.c:148:147
	str	r0, [sp, #4]
	.loc	7 148 250                       @ ../Core/Src/adc.c:148:250
	ldr	r0, [sp, #4]
	.loc	7 148 258                       @ ../Core/Src/adc.c:148:258
	b	.LBB2_9
.Ltmp32:
.LBB2_9:
	.loc	7 0 258                         @ ../Core/Src/adc.c:0:258
	mov.w	r0, #1024
	.loc	7 152 25 is_stmt 1              @ ../Core/Src/adc.c:152:25
	str	r0, [sp, #16]
	movs	r0, #3
	.loc	7 153 26                        @ ../Core/Src/adc.c:153:26
	str	r0, [sp, #20]
	movs	r0, #0
	.loc	7 154 26                        @ ../Core/Src/adc.c:154:26
	str	r0, [sp, #24]
	movw	r0, #5120
	movt	r0, #16386
	add	r1, sp, #16
	.loc	7 155 5                         @ ../Core/Src/adc.c:155:5
	bl	HAL_GPIO_Init
	.loc	7 160 3                         @ ../Core/Src/adc.c:160:3
	b	.LBB2_10
.Ltmp33:
.LBB2_10:
	.loc	7 0 3 is_stmt 0                 @ ../Core/Src/adc.c:0:3
	b	.LBB2_11
.LBB2_11:
	.loc	7 161 1 is_stmt 1               @ ../Core/Src/adc.c:161:1
	add	sp, #40
	pop	{r7, pc}
.Ltmp34:
.Lfunc_end2:
	.size	HAL_ADC_MspInit, .Lfunc_end2-HAL_ADC_MspInit
	.cfi_endproc
	.cantunwind
	.fnend
                                        @ -- End function
	.section	.text.HAL_ADC_MspDeInit,"ax",%progbits
	.hidden	HAL_ADC_MspDeInit               @ -- Begin function HAL_ADC_MspDeInit
	.globl	HAL_ADC_MspDeInit
	.p2align	2
	.type	HAL_ADC_MspDeInit,%function
	.code	16                              @ @HAL_ADC_MspDeInit
	.thumb_func
HAL_ADC_MspDeInit:
.Lfunc_begin3:
	.loc	7 164 0                         @ ../Core/Src/adc.c:164:0
	.fnstart
	.cfi_startproc
@ %bb.0:
	.save	{r7, lr}
	push	{r7, lr}
	.cfi_def_cfa_offset 8
	.cfi_offset lr, -4
	.cfi_offset r7, -8
	.pad	#8
	sub	sp, #8
	.cfi_def_cfa_offset 16
	str	r0, [sp, #4]
.Ltmp35:
	.loc	7 166 6 prologue_end            @ ../Core/Src/adc.c:166:6
	ldr	r0, [sp, #4]
	.loc	7 166 17 is_stmt 0              @ ../Core/Src/adc.c:166:17
	ldr	r0, [r0]
	movw	r1, #8192
	movt	r1, #16385
.Ltmp36:
	.loc	7 166 6                         @ ../Core/Src/adc.c:166:6
	cmp	r0, r1
	bne	.LBB3_2
	b	.LBB3_1
.LBB3_1:
	.loc	7 0 6                           @ ../Core/Src/adc.c:0:6
	movw	r1, #14404
	movt	r1, #16386
.Ltmp37:
	.loc	7 172 76 is_stmt 1              @ ../Core/Src/adc.c:172:76
	ldr	r0, [r1]
	bic	r0, r0, #256
	str	r0, [r1]
	.loc	7 176 3                         @ ../Core/Src/adc.c:176:3
	b	.LBB3_5
.Ltmp38:
.LBB3_2:
	.loc	7 177 11                        @ ../Core/Src/adc.c:177:11
	ldr	r0, [sp, #4]
	.loc	7 177 22 is_stmt 0              @ ../Core/Src/adc.c:177:22
	ldr	r0, [r0]
	movw	r1, #8704
	movt	r1, #16385
.Ltmp39:
	.loc	7 177 11                        @ ../Core/Src/adc.c:177:11
	cmp	r0, r1
	bne	.LBB3_4
	b	.LBB3_3
.LBB3_3:
	.loc	7 0 11                          @ ../Core/Src/adc.c:0:11
	movw	r1, #14404
	movt	r1, #16386
.Ltmp40:
	.loc	7 183 76 is_stmt 1              @ ../Core/Src/adc.c:183:76
	ldr	r0, [r1]
	bic	r0, r0, #1024
	str	r0, [r1]
	movw	r0, #5120
	movt	r0, #16386
	mov.w	r1, #1024
	.loc	7 188 5                         @ ../Core/Src/adc.c:188:5
	bl	HAL_GPIO_DeInit
	.loc	7 193 3                         @ ../Core/Src/adc.c:193:3
	b	.LBB3_4
.Ltmp41:
.LBB3_4:
	.loc	7 0 3 is_stmt 0                 @ ../Core/Src/adc.c:0:3
	b	.LBB3_5
.LBB3_5:
	.loc	7 194 1 is_stmt 1               @ ../Core/Src/adc.c:194:1
	add	sp, #8
	pop	{r7, pc}
.Ltmp42:
.Lfunc_end3:
	.size	HAL_ADC_MspDeInit, .Lfunc_end3-HAL_ADC_MspDeInit
	.cfi_endproc
	.cantunwind
	.fnend
                                        @ -- End function
	.hidden	hadc1                           @ @hadc1
	.type	hadc1,%object
	.section	.bss.hadc1,"aw",%nobits
	.globl	hadc1
	.p2align	2
hadc1:
	.zero	72
	.size	hadc1, 72

	.hidden	hadc3                           @ @hadc3
	.type	hadc3,%object
	.section	.bss.hadc3,"aw",%nobits
	.globl	hadc3
	.p2align	2
hadc3:
	.zero	72
	.size	hadc3, 72

	.file	8 "D:\\horizon\\Horizon_Infantry (2)\\MDK-ARM" "../Drivers/STM32F4xx_HAL_Driver/Inc\\stm32f4xx_hal_gpio.h"
	.section	".note.GNU-stack","",%progbits
	.eabi_attribute	30, 6	@ Tag_ABI_optimization_goals
	.ARM_attribute	16, 1	@ Tag_AV_eba