	.text
	.syntax unified
	.eabi_attribute	67, "2.09"	@ Tag_conformance
	.cpu	cortex-m4
	.eabi_attribute	6, 13	@ Tag_CPU_arch
	.eabi_attribute	7, 77	@ Tag_CPU_arch_profile
	.eabi_attribute	8, 0	@ Tag_ARM_ISA_use
	.eabi_attribute	9, 2	@ Tag_THUMB_ISA_use
	.fpu	fpv4-sp-d16
	.eabi_attribute	27, 1	@ Tag_ABI_HardFP_use
	.eabi_attribute	36, 1	@ Tag_FP_HP_extension
	.eabi_attribute	34, 1	@ Tag_CPU_unaligned_access
	.eabi_attribute	17, 1	@ Tag_ABI_PCS_GOT_use
	.eabi_attribute	20, 2	@ Tag_ABI_FP_denormal
	.eabi_attribute	21, 0	@ Tag_ABI_FP_exceptions
	.eabi_attribute	23, 3	@ Tag_ABI_FP_number_model
	.eabi_attribute	24, 1	@ Tag_ABI_align_needed
	.eabi_attribute	25, 1	@ Tag_ABI_align_preserved
	.eabi_attribute	28, 1	@ Tag_ABI_VFP_args
	.eabi_attribute	38, 1	@ Tag_ABI_FP_16bit_format
	.eabi_attribute	18, 2	@ Tag_ABI_PCS_wchar_t
	.eabi_attribute	26, 1	@ Tag_ABI_enum_size
	.eabi_attribute	14, 0	@ Tag_ABI_PCS_R9_use
	.file	"All_Init.c"
	.file	1 "D:\\horizon\\Horizon_Infantry (2)\\MDK-ARM" "../User/Start/Inc\\Motors.h"
	.file	2 "D:\\" "kevil\\ARM\\ARMCLANG\\Bin\\..\\include\\stdint.h"
	.file	3 "D:\\horizon\\Horizon_Infantry (2)\\MDK-ARM" "../User/Start/All_Init.c"
	.file	4 "D:\\horizon\\Horizon_Infantry (2)\\MDK-ARM" "../User/Bsp/inc\\RUI_DBUS.h"
	.file	5 "D:\\horizon\\Horizon_Infantry (2)\\MDK-ARM" "../User/Bsp/inc\\VT13.h"
	.file	6 "D:\\horizon\\Horizon_Infantry (2)\\MDK-ARM" "../User/Bsp/inc\\Referee.h"
	.file	7 "D:\\horizon\\Horizon_Infantry (2)\\MDK-ARM" "../User/Bsp/inc\\DJI_Motor.h"
	.file	8 "D:\\horizon\\Horizon_Infantry (2)\\MDK-ARM" "../User/Algorithm/inc\\controller.h"
	.file	9 "D:\\horizon\\Horizon_Infantry (2)\\MDK-ARM" "../User/Algorithm/inc/user_lib.h"
	.file	10 "D:\\horizon\\Horizon_Infantry (2)\\MDK-ARM" "../User/Bsp/inc\\DM_Motor.h"
	.file	11 "D:\\horizon\\Horizon_Infantry (2)\\MDK-ARM" "../User/Algorithm/inc\\pid_temp.h"
	.file	12 "D:\\horizon\\Horizon_Infantry (2)\\MDK-ARM" "../User/App/inc/IMU_Task.h"
	.file	13 "D:\\horizon\\Horizon_Infantry (2)\\MDK-ARM" "../User/Bsp/inc\\Vision.h"
	.file	14 "D:\\horizon\\Horizon_Infantry (2)\\MDK-ARM" "../User/Bsp/inc\\Power_CAP.h"
	.file	15 "D:\\horizon\\Horizon_Infantry (2)\\MDK-ARM" "../User/Algorithm/inc\\Power_Ctrl.h"
	.file	16 "D:\\horizon\\Horizon_Infantry (2)\\MDK-ARM" "../Drivers/CMSIS/Device/ST/STM32F4xx/Include/stm32f407xx.h"
	.section	.text.Everying_Init,"ax",%progbits
	.hidden	Everying_Init                   @ -- Begin function Everying_Init
	.globl	Everying_Init
	.p2align	2
	.type	Everying_Init,%function
	.code	16                              @ @Everying_Init
	.thumb_func
Everying_Init:
.Lfunc_begin0:
	.loc	3 78 0                          @ ../User/Start/All_Init.c:78:0
	.fnstart
	.cfi_sections .debug_frame
	.cfi_startproc
@ %bb.0:
	.save	{r7, lr}
	push	{r7, lr}
	.cfi_def_cfa_offset 8
	.cfi_offset lr, -4
	.cfi_offset r7, -8
	.pad	#40
	sub	sp, #40
	.cfi_def_cfa_offset 48
	movs	r0, #168
.Ltmp0:
	.loc	3 80 5 prologue_end             @ ../User/Start/All_Init.c:80:5
	bl	DWT_Init
	.loc	3 83 2                          @ ../User/Start/All_Init.c:83:2
	bl	CAN_Filter_Init
	.loc	3 86 10                         @ ../User/Start/All_Init.c:86:10
	movw	r0, :lower16:hspi2
	movt	r0, :upper16:hspi2
	bl	CANSPI_Initialize
	.loc	3 86 8 is_stmt 0                @ ../User/Start/All_Init.c:86:8
	movw	r1, :lower16:flag2
	movt	r1, :upper16:flag2
	strb	r0, [r1]
	.loc	3 89 4 is_stmt 1                @ ../User/Start/All_Init.c:89:4
	movw	r0, :lower16:htim7
	movt	r0, :upper16:htim7
	bl	HAL_TIM_Base_Start_IT
	.loc	3 90 3                          @ ../User/Start/All_Init.c:90:3
	movw	r0, :lower16:htim1
	movt	r0, :upper16:htim1
	bl	HAL_TIM_Base_Start_IT
	.loc	3 91 4                          @ ../User/Start/All_Init.c:91:4
	movw	r0, :lower16:htim3
	movt	r0, :upper16:htim3
	bl	HAL_TIM_Base_Start_IT
	.loc	3 92 5                          @ ../User/Start/All_Init.c:92:5
	movw	r0, :lower16:htim8
	movt	r0, :upper16:htim8
	movs	r1, #0
	str	r1, [sp, #36]                   @ 4-byte Spill
	bl	HAL_TIM_PWM_Start
	.loc	3 96 5                          @ ../User/Start/All_Init.c:96:5
	movw	r0, :lower16:hdma_usart1_rx
	movt	r0, :upper16:hdma_usart1_rx
	str	r0, [sp]                        @ 4-byte Spill
	bl	HAL_DMA_DeInit
	.loc	3 97 5                          @ ../User/Start/All_Init.c:97:5
	movw	r0, :lower16:hdma_usart1_tx
	movt	r0, :upper16:hdma_usart1_tx
	str	r0, [sp, #4]                    @ 4-byte Spill
	bl	HAL_DMA_DeInit
                                        @ kill: def $r1 killed $r0
	.loc	3 98 5                          @ ../User/Start/All_Init.c:98:5
	ldr	r0, [sp]                        @ 4-byte Reload
	bl	HAL_DMA_Init
                                        @ kill: def $r1 killed $r0
	.loc	3 99 5                          @ ../User/Start/All_Init.c:99:5
	ldr	r0, [sp, #4]                    @ 4-byte Reload
	bl	HAL_DMA_Init
	.loc	3 100 5                         @ ../User/Start/All_Init.c:100:5
	movw	r0, :lower16:huart1
	movt	r0, :upper16:huart1
	str	r0, [sp, #8]                    @ 4-byte Spill
	bl	HAL_UART_DMAStop
                                        @ kill: def $r1 killed $r0
	.loc	3 101 5                         @ ../User/Start/All_Init.c:101:5
	ldr	r0, [sp, #8]                    @ 4-byte Reload
	movw	r1, :lower16:VT13_RX_DATA
	movt	r1, :upper16:VT13_RX_DATA
	movs	r2, #21
	bl	HAL_UARTEx_ReceiveToIdle_DMA
                                        @ kill: def $r1 killed $r0
	.loc	3 102 61                        @ ../User/Start/All_Init.c:102:61
	ldr	r0, [sp, #8]                    @ 4-byte Reload
	ldr	r0, [r0, #60]
	.loc	3 102 70 is_stmt 0              @ ../User/Start/All_Init.c:102:70
	ldr	r1, [r0]
	.loc	3 102 83                        @ ../User/Start/All_Init.c:102:83
	ldr	r0, [r1]
	bic	r0, r0, #8
	str	r0, [r1]
	.loc	3 104 5 is_stmt 1               @ ../User/Start/All_Init.c:104:5
	movw	r0, :lower16:hdma_usart3_rx
	movt	r0, :upper16:hdma_usart3_rx
	str	r0, [sp, #12]                   @ 4-byte Spill
	bl	HAL_DMA_DeInit
                                        @ kill: def $r1 killed $r0
	.loc	3 105 5                         @ ../User/Start/All_Init.c:105:5
	ldr	r0, [sp, #12]                   @ 4-byte Reload
	bl	HAL_DMA_Init
	.loc	3 106 5                         @ ../User/Start/All_Init.c:106:5
	movw	r0, :lower16:huart3
	movt	r0, :upper16:huart3
	str	r0, [sp, #16]                   @ 4-byte Spill
	bl	HAL_UART_DMAStop
                                        @ kill: def $r1 killed $r0
	.loc	3 107 77                        @ ../User/Start/All_Init.c:107:77
	ldr	r0, [sp, #16]                   @ 4-byte Reload
	ldr	r2, [r0]
	.loc	3 107 91 is_stmt 0              @ ../User/Start/All_Init.c:107:91
	ldr	r1, [r2, #12]
	orr	r1, r1, #16
	str	r1, [r2, #12]
	.loc	3 108 5 is_stmt 1               @ ../User/Start/All_Init.c:108:5
	movw	r1, :lower16:DBUS_RX_DATA
	movt	r1, :upper16:DBUS_RX_DATA
	movs	r2, #37
	bl	HAL_UART_Receive_DMA
	.loc	3 110 5                         @ ../User/Start/All_Init.c:110:5
	movw	r0, :lower16:hdma_usart6_rx
	movt	r0, :upper16:hdma_usart6_rx
	str	r0, [sp, #20]                   @ 4-byte Spill
	bl	HAL_DMA_DeInit
	.loc	3 111 5                         @ ../User/Start/All_Init.c:111:5
	movw	r0, :lower16:hdma_usart6_tx
	movt	r0, :upper16:hdma_usart6_tx
	str	r0, [sp, #24]                   @ 4-byte Spill
	bl	HAL_DMA_DeInit
                                        @ kill: def $r1 killed $r0
	.loc	3 112 5                         @ ../User/Start/All_Init.c:112:5
	ldr	r0, [sp, #20]                   @ 4-byte Reload
	bl	HAL_DMA_Init
                                        @ kill: def $r1 killed $r0
	.loc	3 113 5                         @ ../User/Start/All_Init.c:113:5
	ldr	r0, [sp, #24]                   @ 4-byte Reload
	bl	HAL_DMA_Init
	.loc	3 114 5                         @ ../User/Start/All_Init.c:114:5
	movw	r0, :lower16:huart6
	movt	r0, :upper16:huart6
	str	r0, [sp, #28]                   @ 4-byte Spill
	bl	HAL_UART_DMAStop
                                        @ kill: def $r1 killed $r0
	.loc	3 116 5                         @ ../User/Start/All_Init.c:116:5
	ldr	r0, [sp, #28]                   @ 4-byte Reload
	movw	r1, :lower16:Referee_Rx_Buf
	movt	r1, :upper16:Referee_Rx_Buf
	mov.w	r2, #256
	bl	HAL_UARTEx_ReceiveToIdle_DMA
                                        @ kill: def $r1 killed $r0
	.loc	3 117 61                        @ ../User/Start/All_Init.c:117:61
	ldr	r0, [sp, #28]                   @ 4-byte Reload
	ldr	r0, [r0, #60]
	.loc	3 117 70 is_stmt 0              @ ../User/Start/All_Init.c:117:70
	ldr	r1, [r0]
	.loc	3 117 83                        @ ../User/Start/All_Init.c:117:83
	ldr	r0, [r1]
	bic	r0, r0, #8
	str	r0, [r1]
	.loc	3 120 4 is_stmt 1               @ ../User/Start/All_Init.c:120:4
	bl	MX_USB_DEVICE_Init
	movw	r1, #2108
	movt	r1, #16384
	str	r1, [sp, #32]                   @ 4-byte Spill
	movs	r0, #50
	.loc	3 124 55                        @ ../User/Start/All_Init.c:124:55
	str	r0, [r1]
	mov.w	r0, #500
	.loc	3 125 5                         @ ../User/Start/All_Init.c:125:5
	bl	HAL_Delay
	ldr	r1, [sp, #32]                   @ 4-byte Reload
	ldr	r0, [sp, #36]                   @ 4-byte Reload
	.loc	3 126 55                        @ ../User/Start/All_Init.c:126:55
	str	r0, [r1]
	.loc	3 129 1                         @ ../User/Start/All_Init.c:129:1
	add	sp, #40
	pop	{r7, pc}
.Ltmp1:
.Lfunc_end0:
	.size	Everying_Init, .Lfunc_end0-Everying_Init
	.cfi_endproc
	.cantunwind
	.fnend
                                        @ -- End function
	.section	.text.StartDefaultTask,"ax",%progbits
	.hidden	StartDefaultTask                @ -- Begin function StartDefaultTask
	.globl	StartDefaultTask
	.p2align	2
	.type	StartDefaultTask,%function
	.code	16                              @ @StartDefaultTask
	.thumb_func
StartDefaultTask:
.Lfunc_begin1:
	.loc	3 132 0                         @ ../User/Start/All_Init.c:132:0
	.fnstart
	.cfi_startproc
@ %bb.0:
	.save	{r7, lr}
	push	{r7, lr}
	.cfi_def_cfa_offset 8
	.cfi_offset lr, -4
	.cfi_offset r7, -8
	.pad	#24
	sub	sp, #24
	.cfi_def_cfa_offset 32
	str	r0, [sp, #20]
.Ltmp2:
	.loc	3 133 2 prologue_end            @ ../User/Start/All_Init.c:133:2
	bl	Everying_Init
	movs	r0, #0
	.loc	3 134 9                         @ ../User/Start/All_Init.c:134:9
	str	r0, [sp, #16]
	.loc	3 135 2                         @ ../User/Start/All_Init.c:135:2
	b	.LBB1_1
.LBB1_1:                                @ =>This Inner Loop Header: Depth=1
.Ltmp3:
	.loc	3 137 3                         @ ../User/Start/All_Init.c:137:3
	bl	playSong_jiaofu
	.loc	3 138 12                        @ ../User/Start/All_Init.c:138:12
	ldr	r0, [sp, #16]
	adds	r0, #1
	str	r0, [sp, #16]
	.loc	3 139 85                        @ ../User/Start/All_Init.c:139:85
	ldr	r0, [sp, #16]
	.loc	3 139 9 is_stmt 0               @ ../User/Start/All_Init.c:139:9
	movw	r2, :lower16:.L.str.3
	movt	r2, :upper16:.L.str.3
	str	r2, [sp, #8]                    @ 4-byte Spill
	mov	r1, sp
	str	r2, [r1, #4]
	str	r0, [r1]
	movw	r1, :lower16:.L.str
	movt	r1, :upper16:.L.str
	movw	r2, :lower16:.L.str.1
	movt	r2, :upper16:.L.str.1
	movw	r3, :lower16:.L.str.2
	movt	r3, :upper16:.L.str.2
	movs	r0, #0
	str	r0, [sp, #12]                   @ 4-byte Spill
	bl	SEGGER_RTT_printf
	ldr	r1, [sp, #8]                    @ 4-byte Reload
                                        @ kill: def $r2 killed $r0
	.loc	3 140 9 is_stmt 1               @ ../User/Start/All_Init.c:140:9
	ldr	r0, [sp, #12]                   @ 4-byte Reload
	mov	r2, sp
	str	r1, [r2]
	movw	r1, :lower16:.L.str.4
	movt	r1, :upper16:.L.str.4
	movw	r2, :lower16:.L.str.5
	movt	r2, :upper16:.L.str.5
	movw	r3, :lower16:.L.str.6
	movt	r3, :upper16:.L.str.6
	bl	SEGGER_RTT_printf
	ldr	r1, [sp, #8]                    @ 4-byte Reload
                                        @ kill: def $r2 killed $r0
	.loc	3 141 9                         @ ../User/Start/All_Init.c:141:9
	ldr	r0, [sp, #12]                   @ 4-byte Reload
	mov	r2, sp
	str	r1, [r2]
	movw	r1, :lower16:.L.str.7
	movt	r1, :upper16:.L.str.7
	movw	r2, :lower16:.L.str.8
	movt	r2, :upper16:.L.str.8
	movw	r3, :lower16:.L.str.9
	movt	r3, :upper16:.L.str.9
	bl	SEGGER_RTT_printf
	movs	r0, #1
	.loc	3 142 3                         @ ../User/Start/All_Init.c:142:3
	bl	osDelay
.Ltmp4:
	.loc	3 135 2                         @ ../User/Start/All_Init.c:135:2
	b	.LBB1_1
.Ltmp5:
.Lfunc_end1:
	.size	StartDefaultTask, .Lfunc_end1-StartDefaultTask
	.cfi_endproc
	.cantunwind
	.fnend
                                        @ -- End function
	.hidden	RUI_V_CONTAL                    @ @RUI_V_CONTAL
	.type	RUI_V_CONTAL,%object
	.section	.bss.RUI_V_CONTAL,"aw",%nobits
	.globl	RUI_V_CONTAL
	.p2align	3
RUI_V_CONTAL:
	.zero	120
	.size	RUI_V_CONTAL, 120

	.hidden	DBUS_RX_DATA                    @ @DBUS_RX_DATA
	.type	DBUS_RX_DATA,%object
	.section	.bss.DBUS_RX_DATA,"aw",%nobits
	.globl	DBUS_RX_DATA
DBUS_RX_DATA:
	.zero	19
	.size	DBUS_RX_DATA, 19

	.hidden	WHW_V_DBUS                      @ @WHW_V_DBUS
	.type	WHW_V_DBUS,%object
	.section	.bss.WHW_V_DBUS,"aw",%nobits
	.globl	WHW_V_DBUS
	.p2align	2
WHW_V_DBUS:
	.zero	72
	.size	WHW_V_DBUS, 72

	.hidden	VT13_RX_DATA                    @ @VT13_RX_DATA
	.type	VT13_RX_DATA,%object
	.section	.bss.VT13_RX_DATA,"aw",%nobits
	.globl	VT13_RX_DATA
VT13_RX_DATA:
	.zero	21
	.size	VT13_RX_DATA, 21

	.hidden	VT13_DBUS                       @ @VT13_DBUS
	.type	VT13_DBUS,%object
	.section	.bss.VT13_DBUS,"aw",%nobits
	.globl	VT13_DBUS
	.p2align	2
VT13_DBUS:
	.zero	84
	.size	VT13_DBUS, 84

	.hidden	flag2                           @ @flag2
	.type	flag2,%object
	.section	.bss.flag2,"aw",%nobits
	.globl	flag2
flag2:
	.byte	0                               @ 0x0
	.size	flag2, 1

	.hidden	Referee_Rx_Buf                  @ @Referee_Rx_Buf
	.type	Referee_Rx_Buf,%object
	.section	.bss.Referee_Rx_Buf,"aw",%nobits
	.globl	Referee_Rx_Buf
Referee_Rx_Buf:
	.zero	512
	.size	Referee_Rx_Buf, 512

	.type	.L.str,%object                  @ @.str
	.section	.rodata.str1.1,"aMS",%progbits,1
.L.str:
	.asciz	"  %s%sHello world: %d\r\n%s"
	.size	.L.str, 26

	.type	.L.str.1,%object                @ @.str.1
.L.str.1:
	.asciz	"\033[1;32m"
	.size	.L.str.1, 8

	.type	.L.str.2,%object                @ @.str.2
.L.str.2:
	.asciz	"I: "
	.size	.L.str.2, 4

	.type	.L.str.3,%object                @ @.str.3
.L.str.3:
	.asciz	"\033[0m"
	.size	.L.str.3, 5

	.type	.L.str.4,%object                @ @.str.4
.L.str.4:
	.asciz	"  %s%sThis is an error message!\r\n%s"
	.size	.L.str.4, 36

	.type	.L.str.5,%object                @ @.str.5
.L.str.5:
	.asciz	"\033[1;31m"
	.size	.L.str.5, 8

	.type	.L.str.6,%object                @ @.str.6
.L.str.6:
	.asciz	"E: "
	.size	.L.str.6, 4

	.type	.L.str.7,%object                @ @.str.7
.L.str.7:
	.asciz	"  %s%sThis is a warning message!\r\n%s"
	.size	.L.str.7, 37

	.type	.L.str.8,%object                @ @.str.8
.L.str.8:
	.asciz	"\033[1;33m"
	.size	.L.str.8, 8

	.type	.L.str.9,%object                @ @.str.9
.L.str.9:
	.asciz	"W: "
	.size	.L.str.9, 4

	.hidden	ALL_RX                          @ @ALL_RX
	.type	ALL_RX,%object
	.section	.bss.ALL_RX,"aw",%nobits
	.globl	ALL_RX
ALL_RX:
	.zero	255
	.size	ALL_RX, 255

	.hidden	User_data                       @ @User_data
	.type	User_data,%object
	.section	.bss.User_data,"aw",%nobits
	.globl	User_data
User_data:
	.zero	207
	.size	User_data, 207

	.hidden	RX                              @ @RX
	.type	RX,%object
	.section	.bss.RX,"aw",%nobits
	.globl	RX
RX:
	.zero	20
	.size	RX, 20

	.hidden	ALL_MOTOR                       @ @ALL_MOTOR
	.type	ALL_MOTOR,%object
	.section	.bss.ALL_MOTOR,"aw",%nobits
	.globl	ALL_MOTOR
	.p2align	3
ALL_MOTOR:
	.zero	5792
	.size	ALL_MOTOR, 5792

	.hidden	imu_temp                        @ @imu_temp
	.type	imu_temp,%object
	.section	.bss.imu_temp,"aw",%nobits
	.globl	imu_temp
	.p2align	2
imu_temp:
	.zero	72
	.size	imu_temp, 72

	.hidden	IMU_Data                        @ @IMU_Data
	.type	IMU_Data,%object
	.section	.bss.IMU_Data,"aw",%nobits
	.globl	IMU_Data
	.p2align	2
IMU_Data:
	.zero	80
	.size	IMU_Data, 80

	.hidden	RUI_ROOT_STATUS                 @ @RUI_ROOT_STATUS
	.type	RUI_ROOT_STATUS,%object
	.section	.bss.RUI_ROOT_STATUS,"aw",%nobits
	.globl	RUI_ROOT_STATUS
RUI_ROOT_STATUS:
	.zero	13
	.size	RUI_ROOT_STATUS, 13

	.hidden	VisionRxData                    @ @VisionRxData
	.type	VisionRxData,%object
	.section	.bss.VisionRxData,"aw",%nobits
	.globl	VisionRxData
	.p2align	2
VisionRxData:
	.zero	68
	.size	VisionRxData, 68

	.hidden	VisionRx                        @ @VisionRx
	.type	VisionRx,%object
	.section	.bss.VisionRx,"aw",%nobits
	.globl	VisionRx
VisionRx:
	.zero	15
	.size	VisionRx, 15

	.hidden	CAPDATE                         @ @CAPDATE
	.type	CAPDATE,%object
	.section	.bss.CAPDATE,"aw",%nobits
	.globl	CAPDATE
	.p2align	2
CAPDATE:
	.zero	24
	.size	CAPDATE, 24

	.hidden	voltage                         @ @voltage
	.type	voltage,%object
	.section	.bss.voltage,"aw",%nobits
	.globl	voltage
	.p2align	2
voltage:
	.long	0x00000000                      @ float 0
	.size	voltage, 4

	.hidden	model                           @ @model
	.type	model,%object
	.section	.bss.model,"aw",%nobits
	.globl	model
	.p2align	2
model:
	.zero	76
	.size	model, 76

	.section	".note.GNU-stack","",%progbits
	.eabi_attribute	30, 6	@ Tag_ABI_optimization_goals
	.ARM_attribute	16, 1	@ Tag_AV_eba