	.text
	.syntax unified
	.eabi_attribute	67, "2.09"	@ Tag_conformance
	.cpu	cortex-m4
	.eabi_attribute	6, 13	@ Tag_CPU_arch
	.eabi_attribute	7, 77	@ Tag_CPU_arch_profile
	.eabi_attribute	8, 0	@ Tag_ARM_ISA_use
	.eabi_attribute	9, 2	@ Tag_THUMB_ISA_use
	.fpu	fpv4-sp-d16
	.eabi_attribute	27, 1	@ Tag_ABI_HardFP_use
	.eabi_attribute	36, 1	@ Tag_FP_HP_extension
	.eabi_attribute	34, 1	@ Tag_CPU_unaligned_access
	.eabi_attribute	17, 1	@ Tag_ABI_PCS_GOT_use
	.eabi_attribute	20, 2	@ Tag_ABI_FP_denormal
	.eabi_attribute	21, 0	@ Tag_ABI_FP_exceptions
	.eabi_attribute	23, 3	@ Tag_ABI_FP_number_model
	.eabi_attribute	24, 1	@ Tag_ABI_align_needed
	.eabi_attribute	25, 1	@ Tag_ABI_align_preserved
	.eabi_attribute	28, 1	@ Tag_ABI_VFP_args
	.eabi_attribute	38, 1	@ Tag_ABI_FP_16bit_format
	.eabi_attribute	18, 2	@ Tag_ABI_PCS_wchar_t
	.eabi_attribute	26, 1	@ Tag_ABI_enum_size
	.eabi_attribute	14, 0	@ Tag_ABI_PCS_R9_use
	.file	"BMI088Middleware.c"
	.file	1 "D:\\horizon\\Horizon_Infantry (2)\\MDK-ARM" "../Drivers/STM32F4xx_HAL_Driver/Inc\\stm32f4xx_hal_gpio.h"
	.file	2 "D:\\" "kevil\\ARM\\ARMCLANG\\Bin\\..\\include\\stdint.h"
	.file	3 "D:\\horizon\\Horizon_Infantry (2)\\MDK-ARM" "../Drivers/CMSIS/Include\\core_cm4.h"
	.file	4 "D:\\horizon\\Horizon_Infantry (2)\\MDK-ARM" "../Drivers/CMSIS/Device/ST/STM32F4xx/Include/stm32f407xx.h"
	.section	.text.BMI088_GPIO_init,"ax",%progbits
	.hidden	BMI088_GPIO_init                @ -- Begin function BMI088_GPIO_init
	.globl	BMI088_GPIO_init
	.p2align	2
	.type	BMI088_GPIO_init,%function
	.code	16                              @ @BMI088_GPIO_init
	.thumb_func
BMI088_GPIO_init:
.Lfunc_begin0:
	.file	5 "D:\\horizon\\Horizon_Infantry (2)\\MDK-ARM" "../User/Bsp/BMI088Middleware.c"
	.loc	5 17 0                          @ ../User/Bsp/BMI088Middleware.c:17:0
	.fnstart
	.cfi_sections .debug_frame
	.cfi_startproc
@ %bb.0:
	.loc	5 19 1 prologue_end             @ ../User/Bsp/BMI088Middleware.c:19:1
	bx	lr
.Ltmp0:
.Lfunc_end0:
	.size	BMI088_GPIO_init, .Lfunc_end0-BMI088_GPIO_init
	.cfi_endproc
	.cantunwind
	.fnend
                                        @ -- End function
	.section	.text.BMI088_com_init,"ax",%progbits
	.hidden	BMI088_com_init                 @ -- Begin function BMI088_com_init
	.globl	BMI088_com_init
	.p2align	2
	.type	BMI088_com_init,%function
	.code	16                              @ @BMI088_com_init
	.thumb_func
BMI088_com_init:
.Lfunc_begin1:
	.loc	5 29 0                          @ ../User/Bsp/BMI088Middleware.c:29:0
	.fnstart
	.cfi_startproc
@ %bb.0:
	.loc	5 32 1 prologue_end             @ ../User/Bsp/BMI088Middleware.c:32:1
	bx	lr
.Ltmp1:
.Lfunc_end1:
	.size	BMI088_com_init, .Lfunc_end1-BMI088_com_init
	.cfi_endproc
	.cantunwind
	.fnend
                                        @ -- End function
	.section	.text.BMI088_delay_ms,"ax",%progbits
	.hidden	BMI088_delay_ms                 @ -- Begin function BMI088_delay_ms
	.globl	BMI088_delay_ms
	.p2align	2
	.type	BMI088_delay_ms,%function
	.code	16                              @ @BMI088_delay_ms
	.thumb_func
BMI088_delay_ms:
.Lfunc_begin2:
	.loc	5 42 0                          @ ../User/Bsp/BMI088Middleware.c:42:0
	.fnstart
	.cfi_startproc
@ %bb.0:
	.save	{r7, lr}
	push	{r7, lr}
	.cfi_def_cfa_offset 8
	.cfi_offset lr, -4
	.cfi_offset r7, -8
	.pad	#8
	sub	sp, #8
	.cfi_def_cfa_offset 16
                                        @ kill: def $r1 killed $r0
	strh.w	r0, [sp, #6]
.Ltmp2:
	.loc	5 43 5 prologue_end             @ ../User/Bsp/BMI088Middleware.c:43:5
	b	.LBB2_1
.LBB2_1:                                @ =>This Inner Loop Header: Depth=1
	.loc	5 43 13 is_stmt 0               @ ../User/Bsp/BMI088Middleware.c:43:13
	ldrh.w	r0, [sp, #6]
	subs	r1, r0, #1
	strh.w	r1, [sp, #6]
	.loc	5 43 5                          @ ../User/Bsp/BMI088Middleware.c:43:5
	cbz	r0, .LBB2_3
	b	.LBB2_2
.LBB2_2:                                @   in Loop: Header=BB2_1 Depth=1
	.loc	5 0 5                           @ ../User/Bsp/BMI088Middleware.c:0:5
	mov.w	r0, #1000
.Ltmp3:
	.loc	5 45 9 is_stmt 1                @ ../User/Bsp/BMI088Middleware.c:45:9
	bl	BMI088_delay_us
.Ltmp4:
	.loc	5 43 5                          @ ../User/Bsp/BMI088Middleware.c:43:5
	b	.LBB2_1
.LBB2_3:
	.loc	5 47 1                          @ ../User/Bsp/BMI088Middleware.c:47:1
	add	sp, #8
	pop	{r7, pc}
.Ltmp5:
.Lfunc_end2:
	.size	BMI088_delay_ms, .Lfunc_end2-BMI088_delay_ms
	.cfi_endproc
	.cantunwind
	.fnend
                                        @ -- End function
	.section	.text.BMI088_delay_us,"ax",%progbits
	.hidden	BMI088_delay_us                 @ -- Begin function BMI088_delay_us
	.globl	BMI088_delay_us
	.p2align	2
	.type	BMI088_delay_us,%function
	.code	16                              @ @BMI088_delay_us
	.thumb_func
BMI088_delay_us:
.Lfunc_begin3:
	.loc	5 57 0                          @ ../User/Bsp/BMI088Middleware.c:57:0
	.fnstart
	.cfi_startproc
@ %bb.0:
	.pad	#24
	sub	sp, #24
	.cfi_def_cfa_offset 24
                                        @ kill: def $r1 killed $r0
	strh.w	r0, [sp, #22]
	movs	r0, #0
.Ltmp6:
	.loc	5 59 14 prologue_end            @ ../User/Bsp/BMI088Middleware.c:59:14
	str	r0, [sp, #16]
	.loc	5 60 14                         @ ../User/Bsp/BMI088Middleware.c:60:14
	str	r0, [sp, #12]
	.loc	5 61 14                         @ ../User/Bsp/BMI088Middleware.c:61:14
	str	r0, [sp, #8]
	.loc	5 62 14                         @ ../User/Bsp/BMI088Middleware.c:62:14
	str	r0, [sp, #4]
	.loc	5 63 14                         @ ../User/Bsp/BMI088Middleware.c:63:14
	str	r0, [sp]
	movw	r0, #57364
	movt	r0, #57344
	.loc	5 64 63                         @ ../User/Bsp/BMI088Middleware.c:64:63
	ldr	r0, [r0]
	.loc	5 64 12 is_stmt 0               @ ../User/Bsp/BMI088Middleware.c:64:12
	str	r0, [sp]
	.loc	5 65 13 is_stmt 1               @ ../User/Bsp/BMI088Middleware.c:65:13
	ldrh.w	r0, [sp, #22]
	.loc	5 65 16 is_stmt 0               @ ../User/Bsp/BMI088Middleware.c:65:16
	rsb	r0, r0, r0, lsl #4
	lsls	r0, r0, #5
	.loc	5 65 11                         @ ../User/Bsp/BMI088Middleware.c:65:11
	str	r0, [sp, #16]
	movw	r0, #57368
	movt	r0, #57344
	.loc	5 66 61 is_stmt 1               @ ../User/Bsp/BMI088Middleware.c:66:61
	ldr	r0, [r0]
	.loc	5 66 10 is_stmt 0               @ ../User/Bsp/BMI088Middleware.c:66:10
	str	r0, [sp, #12]
	.loc	5 67 5 is_stmt 1                @ ../User/Bsp/BMI088Middleware.c:67:5
	b	.LBB3_1
.LBB3_1:                                @ =>This Inner Loop Header: Depth=1
	.loc	5 0 5 is_stmt 0                 @ ../User/Bsp/BMI088Middleware.c:0:5
	movw	r0, #57368
	movt	r0, #57344
.Ltmp7:
	.loc	5 69 65 is_stmt 1               @ ../User/Bsp/BMI088Middleware.c:69:65
	ldr	r0, [r0]
	.loc	5 69 14 is_stmt 0               @ ../User/Bsp/BMI088Middleware.c:69:14
	str	r0, [sp, #8]
.Ltmp8:
	.loc	5 70 13 is_stmt 1               @ ../User/Bsp/BMI088Middleware.c:70:13
	ldr	r0, [sp, #8]
	.loc	5 70 21 is_stmt 0               @ ../User/Bsp/BMI088Middleware.c:70:21
	ldr	r1, [sp, #12]
.Ltmp9:
	.loc	5 70 13                         @ ../User/Bsp/BMI088Middleware.c:70:13
	cmp	r0, r1
	beq	.LBB3_8
	b	.LBB3_2
.LBB3_2:                                @   in Loop: Header=BB3_1 Depth=1
.Ltmp10:
	.loc	5 72 17 is_stmt 1               @ ../User/Bsp/BMI088Middleware.c:72:17
	ldr	r0, [sp, #8]
	.loc	5 72 24 is_stmt 0               @ ../User/Bsp/BMI088Middleware.c:72:24
	ldr	r1, [sp, #12]
.Ltmp11:
	.loc	5 72 17                         @ ../User/Bsp/BMI088Middleware.c:72:17
	cmp	r0, r1
	bhs	.LBB3_4
	b	.LBB3_3
.LBB3_3:                                @   in Loop: Header=BB3_1 Depth=1
.Ltmp12:
	.loc	5 74 25 is_stmt 1               @ ../User/Bsp/BMI088Middleware.c:74:25
	ldr	r0, [sp, #12]
	.loc	5 74 32 is_stmt 0               @ ../User/Bsp/BMI088Middleware.c:74:32
	ldr	r1, [sp, #8]
	.loc	5 74 30                         @ ../User/Bsp/BMI088Middleware.c:74:30
	subs	r1, r0, r1
	.loc	5 74 22                         @ ../User/Bsp/BMI088Middleware.c:74:22
	ldr	r0, [sp, #4]
	add	r0, r1
	str	r0, [sp, #4]
	.loc	5 75 13 is_stmt 1               @ ../User/Bsp/BMI088Middleware.c:75:13
	b	.LBB3_5
.Ltmp13:
.LBB3_4:                                @   in Loop: Header=BB3_1 Depth=1
	.loc	5 78 25                         @ ../User/Bsp/BMI088Middleware.c:78:25
	ldr	r0, [sp]
	.loc	5 78 34 is_stmt 0               @ ../User/Bsp/BMI088Middleware.c:78:34
	ldr	r1, [sp, #8]
	.loc	5 78 32                         @ ../User/Bsp/BMI088Middleware.c:78:32
	subs	r0, r0, r1
	.loc	5 78 41                         @ ../User/Bsp/BMI088Middleware.c:78:41
	ldr	r1, [sp, #12]
	.loc	5 78 39                         @ ../User/Bsp/BMI088Middleware.c:78:39
	add	r1, r0
	.loc	5 78 22                         @ ../User/Bsp/BMI088Middleware.c:78:22
	ldr	r0, [sp, #4]
	add	r0, r1
	str	r0, [sp, #4]
	b	.LBB3_5
.Ltmp14:
.LBB3_5:                                @   in Loop: Header=BB3_1 Depth=1
	.loc	5 80 20 is_stmt 1               @ ../User/Bsp/BMI088Middleware.c:80:20
	ldr	r0, [sp, #8]
	.loc	5 80 18 is_stmt 0               @ ../User/Bsp/BMI088Middleware.c:80:18
	str	r0, [sp, #12]
.Ltmp15:
	.loc	5 81 17 is_stmt 1               @ ../User/Bsp/BMI088Middleware.c:81:17
	ldr	r0, [sp, #4]
	.loc	5 81 25 is_stmt 0               @ ../User/Bsp/BMI088Middleware.c:81:25
	ldr	r1, [sp, #16]
.Ltmp16:
	.loc	5 81 17                         @ ../User/Bsp/BMI088Middleware.c:81:17
	cmp	r0, r1
	blo	.LBB3_7
	b	.LBB3_6
.LBB3_6:
.Ltmp17:
	.loc	5 83 17 is_stmt 1               @ ../User/Bsp/BMI088Middleware.c:83:17
	b	.LBB3_9
.Ltmp18:
.LBB3_7:                                @   in Loop: Header=BB3_1 Depth=1
	.loc	5 85 9                          @ ../User/Bsp/BMI088Middleware.c:85:9
	b	.LBB3_8
.Ltmp19:
.LBB3_8:                                @   in Loop: Header=BB3_1 Depth=1
	.loc	5 67 5                          @ ../User/Bsp/BMI088Middleware.c:67:5
	b	.LBB3_1
.LBB3_9:
	.loc	5 87 1                          @ ../User/Bsp/BMI088Middleware.c:87:1
	add	sp, #24
	bx	lr
.Ltmp20:
.Lfunc_end3:
	.size	BMI088_delay_us, .Lfunc_end3-BMI088_delay_us
	.cfi_endproc
	.cantunwind
	.fnend
                                        @ -- End function
	.section	.text.BMI088_ACCEL_NS_L,"ax",%progbits
	.hidden	BMI088_ACCEL_NS_L               @ -- Begin function BMI088_ACCEL_NS_L
	.globl	BMI088_ACCEL_NS_L
	.p2align	2
	.type	BMI088_ACCEL_NS_L,%function
	.code	16                              @ @BMI088_ACCEL_NS_L
	.thumb_func
BMI088_ACCEL_NS_L:
.Lfunc_begin4:
	.loc	5 97 0                          @ ../User/Bsp/BMI088Middleware.c:97:0
	.fnstart
	.cfi_startproc
@ %bb.0:
	.save	{r7, lr}
	push	{r7, lr}
	.cfi_def_cfa_offset 8
	.cfi_offset lr, -4
	.cfi_offset r7, -8
	movs	r0, #0
	movt	r0, #16386
	movs	r1, #16
	movs	r2, #0
.Ltmp21:
	.loc	5 98 5 prologue_end             @ ../User/Bsp/BMI088Middleware.c:98:5
	bl	HAL_GPIO_WritePin
	.loc	5 99 1                          @ ../User/Bsp/BMI088Middleware.c:99:1
	pop	{r7, pc}
.Ltmp22:
.Lfunc_end4:
	.size	BMI088_ACCEL_NS_L, .Lfunc_end4-BMI088_ACCEL_NS_L
	.cfi_endproc
	.cantunwind
	.fnend
                                        @ -- End function
	.section	.text.BMI088_ACCEL_NS_H,"ax",%progbits
	.hidden	BMI088_ACCEL_NS_H               @ -- Begin function BMI088_ACCEL_NS_H
	.globl	BMI088_ACCEL_NS_H
	.p2align	2
	.type	BMI088_ACCEL_NS_H,%function
	.code	16                              @ @BMI088_ACCEL_NS_H
	.thumb_func
BMI088_ACCEL_NS_H:
.Lfunc_begin5:
	.loc	5 109 0                         @ ../User/Bsp/BMI088Middleware.c:109:0
	.fnstart
	.cfi_startproc
@ %bb.0:
	.save	{r7, lr}
	push	{r7, lr}
	.cfi_def_cfa_offset 8
	.cfi_offset lr, -4
	.cfi_offset r7, -8
	movs	r0, #0
	movt	r0, #16386
	movs	r1, #16
	movs	r2, #1
.Ltmp23:
	.loc	5 110 5 prologue_end            @ ../User/Bsp/BMI088Middleware.c:110:5
	bl	HAL_GPIO_WritePin
	.loc	5 111 1                         @ ../User/Bsp/BMI088Middleware.c:111:1
	pop	{r7, pc}
.Ltmp24:
.Lfunc_end5:
	.size	BMI088_ACCEL_NS_H, .Lfunc_end5-BMI088_ACCEL_NS_H
	.cfi_endproc
	.cantunwind
	.fnend
                                        @ -- End function
	.section	.text.BMI088_GYRO_NS_L,"ax",%progbits
	.hidden	BMI088_GYRO_NS_L                @ -- Begin function BMI088_GYRO_NS_L
	.globl	BMI088_GYRO_NS_L
	.p2align	2
	.type	BMI088_GYRO_NS_L,%function
	.code	16                              @ @BMI088_GYRO_NS_L
	.thumb_func
BMI088_GYRO_NS_L:
.Lfunc_begin6:
	.loc	5 121 0                         @ ../User/Bsp/BMI088Middleware.c:121:0
	.fnstart
	.cfi_startproc
@ %bb.0:
	.save	{r7, lr}
	push	{r7, lr}
	.cfi_def_cfa_offset 8
	.cfi_offset lr, -4
	.cfi_offset r7, -8
	movw	r0, #1024
	movt	r0, #16386
	movs	r1, #1
	movs	r2, #0
.Ltmp25:
	.loc	5 122 5 prologue_end            @ ../User/Bsp/BMI088Middleware.c:122:5
	bl	HAL_GPIO_WritePin
	.loc	5 123 1                         @ ../User/Bsp/BMI088Middleware.c:123:1
	pop	{r7, pc}
.Ltmp26:
.Lfunc_end6:
	.size	BMI088_GYRO_NS_L, .Lfunc_end6-BMI088_GYRO_NS_L
	.cfi_endproc
	.cantunwind
	.fnend
                                        @ -- End function
	.section	.text.BMI088_GYRO_NS_H,"ax",%progbits
	.hidden	BMI088_GYRO_NS_H                @ -- Begin function BMI088_GYRO_NS_H
	.globl	BMI088_GYRO_NS_H
	.p2align	2
	.type	BMI088_GYRO_NS_H,%function
	.code	16                              @ @BMI088_GYRO_NS_H
	.thumb_func
BMI088_GYRO_NS_H:
.Lfunc_begin7:
	.loc	5 133 0                         @ ../User/Bsp/BMI088Middleware.c:133:0
	.fnstart
	.cfi_startproc
@ %bb.0:
	.save	{r7, lr}
	push	{r7, lr}
	.cfi_def_cfa_offset 8
	.cfi_offset lr, -4
	.cfi_offset r7, -8
	movw	r0, #1024
	movt	r0, #16386
	movs	r2, #1
.Ltmp27:
	.loc	5 134 5 prologue_end            @ ../User/Bsp/BMI088Middleware.c:134:5
	mov	r1, r2
	bl	HAL_GPIO_WritePin
	.loc	5 135 1                         @ ../User/Bsp/BMI088Middleware.c:135:1
	pop	{r7, pc}
.Ltmp28:
.Lfunc_end7:
	.size	BMI088_GYRO_NS_H, .Lfunc_end7-BMI088_GYRO_NS_H
	.cfi_endproc
	.cantunwind
	.fnend
                                        @ -- End function
	.section	.text.BMI088_read_write_byte,"ax",%progbits
	.hidden	BMI088_read_write_byte          @ -- Begin function BMI088_read_write_byte
	.globl	BMI088_read_write_byte
	.p2align	2
	.type	BMI088_read_write_byte,%function
	.code	16                              @ @BMI088_read_write_byte
	.thumb_func
BMI088_read_write_byte:
.Lfunc_begin8:
	.loc	5 145 0                         @ ../User/Bsp/BMI088Middleware.c:145:0
	.fnstart
	.cfi_startproc
@ %bb.0:
	.save	{r7, lr}
	push	{r7, lr}
	.cfi_def_cfa_offset 8
	.cfi_offset lr, -4
	.cfi_offset r7, -8
	.pad	#8
	sub	sp, #8
	.cfi_def_cfa_offset 16
                                        @ kill: def $r1 killed $r0
	strb.w	r0, [sp, #7]
.Ltmp29:
	.loc	5 147 5 prologue_end            @ ../User/Bsp/BMI088Middleware.c:147:5
	mov	r1, sp
	mov.w	r0, #1000
	str	r0, [r1]
	movw	r0, :lower16:hspi1
	movt	r0, :upper16:hspi1
	add.w	r1, sp, #7
	add.w	r2, sp, #6
	movs	r3, #1
	bl	HAL_SPI_TransmitReceive
	.loc	5 148 12                        @ ../User/Bsp/BMI088Middleware.c:148:12
	ldrb.w	r0, [sp, #6]
	.loc	5 148 5 is_stmt 0               @ ../User/Bsp/BMI088Middleware.c:148:5
	add	sp, #8
	pop	{r7, pc}
.Ltmp30:
.Lfunc_end8:
	.size	BMI088_read_write_byte, .Lfunc_end8-BMI088_read_write_byte
	.cfi_endproc
	.cantunwind
	.fnend
                                        @ -- End function
	.section	".note.GNU-stack","",%progbits
	.eabi_attribute	30, 6	@ Tag_ABI_optimization_goals
	.ARM_attribute	16, 1	@ Tag_AV_eba