	.text
	.syntax unified
	.eabi_attribute	67, "2.09"	@ Tag_conformance
	.cpu	cortex-m4
	.eabi_attribute	6, 13	@ Tag_CPU_arch
	.eabi_attribute	7, 77	@ Tag_CPU_arch_profile
	.eabi_attribute	8, 0	@ Tag_ARM_ISA_use
	.eabi_attribute	9, 2	@ Tag_THUMB_ISA_use
	.fpu	fpv4-sp-d16
	.eabi_attribute	27, 1	@ Tag_ABI_HardFP_use
	.eabi_attribute	36, 1	@ Tag_FP_HP_extension
	.eabi_attribute	34, 1	@ Tag_CPU_unaligned_access
	.eabi_attribute	17, 1	@ Tag_ABI_PCS_GOT_use
	.eabi_attribute	20, 2	@ Tag_ABI_FP_denormal
	.eabi_attribute	21, 0	@ Tag_ABI_FP_exceptions
	.eabi_attribute	23, 3	@ Tag_ABI_FP_number_model
	.eabi_attribute	24, 1	@ Tag_ABI_align_needed
	.eabi_attribute	25, 1	@ Tag_ABI_align_preserved
	.eabi_attribute	28, 1	@ Tag_ABI_VFP_args
	.eabi_attribute	38, 1	@ Tag_ABI_FP_16bit_format
	.eabi_attribute	18, 2	@ Tag_ABI_PCS_wchar_t
	.eabi_attribute	26, 1	@ Tag_ABI_enum_size
	.eabi_attribute	14, 0	@ Tag_ABI_PCS_R9_use
	.file	"bsp_buzzer.c"
	.file	1 "D:\\" "kevil\\ARM\\ARMCLANG\\Bin\\..\\include\\stdint.h"
	.file	2 "D:\\horizon\\Horizon_Infantry (2)\\MDK-ARM" "../User/Bsp/bsp_buzzer.c"
	.file	3 "D:\\horizon\\Horizon_Infantry (2)\\MDK-ARM" "../Drivers/CMSIS/Device/ST/STM32F4xx/Include/stm32f407xx.h"
	.section	.text.BSP_Buzzer_Init,"ax",%progbits
	.hidden	BSP_Buzzer_Init                 @ -- Begin function BSP_Buzzer_Init
	.globl	BSP_Buzzer_Init
	.p2align	2
	.type	BSP_Buzzer_Init,%function
	.code	16                              @ @BSP_Buzzer_Init
	.thumb_func
BSP_Buzzer_Init:
.Lfunc_begin0:
	.loc	2 6 0                           @ ../User/Bsp/bsp_buzzer.c:6:0
	.fnstart
	.cfi_sections .debug_frame
	.cfi_startproc
@ %bb.0:
	.save	{r7, lr}
	push	{r7, lr}
	.cfi_def_cfa_offset 8
	.cfi_offset lr, -4
	.cfi_offset r7, -8
.Ltmp0:
	.loc	2 7 5 prologue_end              @ ../User/Bsp/bsp_buzzer.c:7:5
	movw	r0, :lower16:htim4
	movt	r0, :upper16:htim4
	movs	r1, #8
	bl	HAL_TIM_PWM_Start
	.loc	2 8 1                           @ ../User/Bsp/bsp_buzzer.c:8:1
	pop	{r7, pc}
.Ltmp1:
.Lfunc_end0:
	.size	BSP_Buzzer_Init, .Lfunc_end0-BSP_Buzzer_Init
	.cfi_endproc
	.cantunwind
	.fnend
                                        @ -- End function
	.section	.text.BSP_Buzzer_On,"ax",%progbits
	.hidden	BSP_Buzzer_On                   @ -- Begin function BSP_Buzzer_On
	.globl	BSP_Buzzer_On
	.p2align	2
	.type	BSP_Buzzer_On,%function
	.code	16                              @ @BSP_Buzzer_On
	.thumb_func
BSP_Buzzer_On:
.Lfunc_begin1:
	.loc	2 11 0                          @ ../User/Bsp/bsp_buzzer.c:11:0
	.fnstart
	.cfi_startproc
@ %bb.0:
	movw	r1, #2108
	movt	r1, #16384
	movs	r0, #50
.Ltmp2:
	.loc	2 12 55 prologue_end            @ ../User/Bsp/bsp_buzzer.c:12:55
	str	r0, [r1]
	.loc	2 13 15                         @ ../User/Bsp/bsp_buzzer.c:13:15
	movw	r1, :lower16:buzzerSta
	movt	r1, :upper16:buzzerSta
	movs	r0, #1
	strb	r0, [r1]
	.loc	2 14 1                          @ ../User/Bsp/bsp_buzzer.c:14:1
	bx	lr
.Ltmp3:
.Lfunc_end1:
	.size	BSP_Buzzer_On, .Lfunc_end1-BSP_Buzzer_On
	.cfi_endproc
	.cantunwind
	.fnend
                                        @ -- End function
	.section	.text.BSP_Buzzer_Off,"ax",%progbits
	.hidden	BSP_Buzzer_Off                  @ -- Begin function BSP_Buzzer_Off
	.globl	BSP_Buzzer_Off
	.p2align	2
	.type	BSP_Buzzer_Off,%function
	.code	16                              @ @BSP_Buzzer_Off
	.thumb_func
BSP_Buzzer_Off:
.Lfunc_begin2:
	.loc	2 17 0                          @ ../User/Bsp/bsp_buzzer.c:17:0
	.fnstart
	.cfi_startproc
@ %bb.0:
	movw	r1, #2108
	movt	r1, #16384
	movs	r0, #0
.Ltmp4:
	.loc	2 18 55 prologue_end            @ ../User/Bsp/bsp_buzzer.c:18:55
	str	r0, [r1]
	.loc	2 19 15                         @ ../User/Bsp/bsp_buzzer.c:19:15
	movw	r1, :lower16:buzzerSta
	movt	r1, :upper16:buzzerSta
	strb	r0, [r1]
	.loc	2 20 1                          @ ../User/Bsp/bsp_buzzer.c:20:1
	bx	lr
.Ltmp5:
.Lfunc_end2:
	.size	BSP_Buzzer_Off, .Lfunc_end2-BSP_Buzzer_Off
	.cfi_endproc
	.cantunwind
	.fnend
                                        @ -- End function
	.section	.text.BSP_Buzzer_Toggle,"ax",%progbits
	.hidden	BSP_Buzzer_Toggle               @ -- Begin function BSP_Buzzer_Toggle
	.globl	BSP_Buzzer_Toggle
	.p2align	2
	.type	BSP_Buzzer_Toggle,%function
	.code	16                              @ @BSP_Buzzer_Toggle
	.thumb_func
BSP_Buzzer_Toggle:
.Lfunc_begin3:
	.loc	2 23 0                          @ ../User/Bsp/bsp_buzzer.c:23:0
	.fnstart
	.cfi_startproc
@ %bb.0:
	.save	{r7, lr}
	push	{r7, lr}
	.cfi_def_cfa_offset 8
	.cfi_offset lr, -4
	.cfi_offset r7, -8
.Ltmp6:
	.loc	2 24 5 prologue_end             @ ../User/Bsp/bsp_buzzer.c:24:5
	movw	r0, :lower16:buzzerSta
	movt	r0, :upper16:buzzerSta
	ldrb	r0, [r0]
	cmp	r0, #1
	bne	.LBB3_2
	b	.LBB3_1
.LBB3_1:
	.loc	2 24 22 is_stmt 0               @ ../User/Bsp/bsp_buzzer.c:24:22
	bl	BSP_Buzzer_Off
	.loc	2 24 5                          @ ../User/Bsp/bsp_buzzer.c:24:5
	b	.LBB3_3
.LBB3_2:
	.loc	2 24 39                         @ ../User/Bsp/bsp_buzzer.c:24:39
	bl	BSP_Buzzer_On
	.loc	2 24 5                          @ ../User/Bsp/bsp_buzzer.c:24:5
	b	.LBB3_3
.LBB3_3:
	.loc	2 25 1 is_stmt 1                @ ../User/Bsp/bsp_buzzer.c:25:1
	pop	{r7, pc}
.Ltmp7:
.Lfunc_end3:
	.size	BSP_Buzzer_Toggle, .Lfunc_end3-BSP_Buzzer_Toggle
	.cfi_endproc
	.cantunwind
	.fnend
                                        @ -- End function
	.type	buzzerSta,%object               @ @buzzerSta
	.section	.bss.buzzerSta,"aw",%nobits
buzzerSta:
	.byte	0                               @ 0x0
	.size	buzzerSta, 1

	.section	".note.GNU-stack","",%progbits
	.eabi_attribute	30, 6	@ Tag_ABI_optimization_goals
	.ARM_attribute	16, 1	@ Tag_AV_eba