	.text
	.syntax unified
	.eabi_attribute	67, "2.09"	@ Tag_conformance
	.cpu	cortex-m4
	.eabi_attribute	6, 13	@ Tag_CPU_arch
	.eabi_attribute	7, 77	@ Tag_CPU_arch_profile
	.eabi_attribute	8, 0	@ Tag_ARM_ISA_use
	.eabi_attribute	9, 2	@ Tag_THUMB_ISA_use
	.fpu	fpv4-sp-d16
	.eabi_attribute	27, 1	@ Tag_ABI_HardFP_use
	.eabi_attribute	36, 1	@ Tag_FP_HP_extension
	.eabi_attribute	34, 1	@ Tag_CPU_unaligned_access
	.eabi_attribute	17, 1	@ Tag_ABI_PCS_GOT_use
	.eabi_attribute	20, 2	@ Tag_ABI_FP_denormal
	.eabi_attribute	21, 0	@ Tag_ABI_FP_exceptions
	.eabi_attribute	23, 3	@ Tag_ABI_FP_number_model
	.eabi_attribute	24, 1	@ Tag_ABI_align_needed
	.eabi_attribute	25, 1	@ Tag_ABI_align_preserved
	.eabi_attribute	28, 1	@ Tag_ABI_VFP_args
	.eabi_attribute	38, 1	@ Tag_ABI_FP_16bit_format
	.eabi_attribute	18, 2	@ Tag_ABI_PCS_wchar_t
	.eabi_attribute	26, 1	@ Tag_ABI_enum_size
	.eabi_attribute	14, 0	@ Tag_ABI_PCS_R9_use
	.file	"bsp_dwt.c"
	.file	1 "D:\\" "kevil\\ARM\\ARMCLANG\\Bin\\..\\include\\stdint.h"
	.file	2 "D:\\horizon\\Horizon_Infantry (2)\\MDK-ARM" "../User/Bsp/bsp_dwt.c"
	.file	3 "D:\\horizon\\Horizon_Infantry (2)\\MDK-ARM" "../User/Bsp/inc\\bsp_dwt.h"
	.file	4 "D:\\horizon\\Horizon_Infantry (2)\\MDK-ARM" "../Drivers/CMSIS/Include\\core_cm4.h"
	.section	.text.DWT_Init,"ax",%progbits
	.hidden	DWT_Init                        @ -- Begin function DWT_Init
	.globl	DWT_Init
	.p2align	2
	.type	DWT_Init,%function
	.code	16                              @ @DWT_Init
	.thumb_func
DWT_Init:
.Lfunc_begin0:
	.loc	2 46 0                          @ ../User/Bsp/bsp_dwt.c:46:0
	.fnstart
	.cfi_sections .debug_frame
	.cfi_startproc
@ %bb.0:
	.pad	#4
	sub	sp, #4
	.cfi_def_cfa_offset 4
	str	r0, [sp]
	movw	r1, #60924
	movt	r1, #57344
.Ltmp0:
	.loc	2 48 48 prologue_end            @ ../User/Bsp/bsp_dwt.c:48:48
	ldr	r0, [r1]
	orr	r0, r0, #16777216
	str	r0, [r1]
	movw	r1, #4100
	movt	r1, #57344
	movs	r0, #0
	.loc	2 51 44                         @ ../User/Bsp/bsp_dwt.c:51:44
	str	r0, [r1]
	movw	r2, #4096
	movt	r2, #57344
	.loc	2 54 42                         @ ../User/Bsp/bsp_dwt.c:54:42
	ldr	r1, [r2]
	orr	r1, r1, #1
	str	r1, [r2]
	.loc	2 56 19                         @ ../User/Bsp/bsp_dwt.c:56:19
	ldr	r1, [sp]
	movw	r2, #16960
	movt	r2, #15
	.loc	2 56 32 is_stmt 0               @ ../User/Bsp/bsp_dwt.c:56:32
	muls	r2, r1, r2
	.loc	2 56 17                         @ ../User/Bsp/bsp_dwt.c:56:17
	movw	r1, :lower16:CPU_FREQ_Hz
	movt	r1, :upper16:CPU_FREQ_Hz
	str	r2, [r1]
	.loc	2 57 22 is_stmt 1               @ ../User/Bsp/bsp_dwt.c:57:22
	ldr	r2, [r1]
	movw	r3, #19923
	movt	r3, #4194
	.loc	2 57 34 is_stmt 0               @ ../User/Bsp/bsp_dwt.c:57:34
	umull	r3, r2, r2, r3
	lsrs	r2, r2, #6
	.loc	2 57 20                         @ ../User/Bsp/bsp_dwt.c:57:20
	movw	r3, :lower16:CPU_FREQ_Hz_ms
	movt	r3, :upper16:CPU_FREQ_Hz_ms
	str	r2, [r3]
	.loc	2 58 22 is_stmt 1               @ ../User/Bsp/bsp_dwt.c:58:22
	ldr	r1, [r1]
	movw	r2, #56963
	movt	r2, #17179
	.loc	2 58 34 is_stmt 0               @ ../User/Bsp/bsp_dwt.c:58:34
	umull	r2, r1, r1, r2
	lsrs	r1, r1, #18
	.loc	2 58 20                         @ ../User/Bsp/bsp_dwt.c:58:20
	movw	r2, :lower16:CPU_FREQ_Hz_us
	movt	r2, :upper16:CPU_FREQ_Hz_us
	str	r1, [r2]
	.loc	2 59 23 is_stmt 1               @ ../User/Bsp/bsp_dwt.c:59:23
	movw	r1, :lower16:CYCCNT_RountCount
	movt	r1, :upper16:CYCCNT_RountCount
	str	r0, [r1]
	.loc	2 60 1                          @ ../User/Bsp/bsp_dwt.c:60:1
	add	sp, #4
	bx	lr
.Ltmp1:
.Lfunc_end0:
	.size	DWT_Init, .Lfunc_end0-DWT_Init
	.cfi_endproc
	.cantunwind
	.fnend
                                        @ -- End function
	.section	.text.DWT_GetDeltaT,"ax",%progbits
	.hidden	DWT_GetDeltaT                   @ -- Begin function DWT_GetDeltaT
	.globl	DWT_GetDeltaT
	.p2align	2
	.type	DWT_GetDeltaT,%function
	.code	16                              @ @DWT_GetDeltaT
	.thumb_func
DWT_GetDeltaT:
.Lfunc_begin1:
	.loc	2 63 0                          @ ../User/Bsp/bsp_dwt.c:63:0
	.fnstart
	.cfi_startproc
@ %bb.0:
	.save	{r7, lr}
	push	{r7, lr}
	.cfi_def_cfa_offset 8
	.cfi_offset lr, -4
	.cfi_offset r7, -8
	.pad	#16
	sub	sp, #16
	.cfi_def_cfa_offset 24
	str	r0, [sp, #12]
	movw	r0, #4100
	movt	r0, #57344
.Ltmp2:
	.loc	2 64 65 prologue_end            @ ../User/Bsp/bsp_dwt.c:64:65
	ldr	r0, [r0]
	.loc	2 64 23 is_stmt 0               @ ../User/Bsp/bsp_dwt.c:64:23
	str	r0, [sp, #8]
	.loc	2 65 28 is_stmt 1               @ ../User/Bsp/bsp_dwt.c:65:28
	ldr	r0, [sp, #8]
	.loc	2 65 39 is_stmt 0               @ ../User/Bsp/bsp_dwt.c:65:39
	ldr	r1, [sp, #12]
	.loc	2 65 38                         @ ../User/Bsp/bsp_dwt.c:65:38
	ldr	r1, [r1]
	.loc	2 65 36                         @ ../User/Bsp/bsp_dwt.c:65:36
	subs	r0, r0, r1
	.loc	2 65 16                         @ ../User/Bsp/bsp_dwt.c:65:16
	vmov	s0, r0
	vcvt.f32.u32	s0, s0
	.loc	2 65 61                         @ ../User/Bsp/bsp_dwt.c:65:61
	movw	r0, :lower16:CPU_FREQ_Hz
	movt	r0, :upper16:CPU_FREQ_Hz
	.loc	2 65 53                         @ ../User/Bsp/bsp_dwt.c:65:53
	vldr	s2, [r0]
	vcvt.f32.u32	s2, s2
	.loc	2 65 50                         @ ../User/Bsp/bsp_dwt.c:65:50
	vdiv.f32	s0, s0, s2
	.loc	2 65 11                         @ ../User/Bsp/bsp_dwt.c:65:11
	vstr	s0, [sp, #4]
	.loc	2 66 17 is_stmt 1               @ ../User/Bsp/bsp_dwt.c:66:17
	ldr	r0, [sp, #8]
	.loc	2 66 6 is_stmt 0                @ ../User/Bsp/bsp_dwt.c:66:6
	ldr	r1, [sp, #12]
	.loc	2 66 15                         @ ../User/Bsp/bsp_dwt.c:66:15
	str	r0, [r1]
	.loc	2 68 5 is_stmt 1                @ ../User/Bsp/bsp_dwt.c:68:5
	bl	DWT_CNT_Update
	.loc	2 70 12                         @ ../User/Bsp/bsp_dwt.c:70:12
	vldr	s0, [sp, #4]
	.loc	2 70 5 is_stmt 0                @ ../User/Bsp/bsp_dwt.c:70:5
	add	sp, #16
	pop	{r7, pc}
.Ltmp3:
.Lfunc_end1:
	.size	DWT_GetDeltaT, .Lfunc_end1-DWT_GetDeltaT
	.cfi_endproc
	.cantunwind
	.fnend
                                        @ -- End function
	.section	.text.DWT_CNT_Update,"ax",%progbits
	.p2align	2                               @ -- Begin function DWT_CNT_Update
	.type	DWT_CNT_Update,%function
	.code	16                              @ @DWT_CNT_Update
	.thumb_func
DWT_CNT_Update:
.Lfunc_begin2:
	.loc	2 128 0 is_stmt 1               @ ../User/Bsp/bsp_dwt.c:128:0
	.fnstart
	.cfi_startproc
@ %bb.0:
	.pad	#4
	sub	sp, #4
	.cfi_def_cfa_offset 4
	movw	r0, #4100
	movt	r0, #57344
.Ltmp4:
	.loc	2 129 65 prologue_end           @ ../User/Bsp/bsp_dwt.c:129:65
	ldr	r0, [r0]
	.loc	2 129 23 is_stmt 0              @ ../User/Bsp/bsp_dwt.c:129:23
	str	r0, [sp]
.Ltmp5:
	.loc	2 131 9 is_stmt 1               @ ../User/Bsp/bsp_dwt.c:131:9
	ldr	r0, [sp]
	.loc	2 131 19 is_stmt 0              @ ../User/Bsp/bsp_dwt.c:131:19
	movw	r1, :lower16:CYCCNT_LAST
	movt	r1, :upper16:CYCCNT_LAST
	ldr	r1, [r1]
.Ltmp6:
	.loc	2 131 9                         @ ../User/Bsp/bsp_dwt.c:131:9
	cmp	r0, r1
	bhs	.LBB2_2
	b	.LBB2_1
.LBB2_1:
.Ltmp7:
	.loc	2 132 26 is_stmt 1              @ ../User/Bsp/bsp_dwt.c:132:26
	movw	r1, :lower16:CYCCNT_RountCount
	movt	r1, :upper16:CYCCNT_RountCount
	ldr	r0, [r1]
	adds	r0, #1
	str	r0, [r1]
	.loc	2 132 9 is_stmt 0               @ ../User/Bsp/bsp_dwt.c:132:9
	b	.LBB2_2
.Ltmp8:
.LBB2_2:
	.loc	2 134 19 is_stmt 1              @ ../User/Bsp/bsp_dwt.c:134:19
	ldr	r0, [sp]
	.loc	2 134 17 is_stmt 0              @ ../User/Bsp/bsp_dwt.c:134:17
	movw	r1, :lower16:CYCCNT_LAST
	movt	r1, :upper16:CYCCNT_LAST
	str	r0, [r1]
	.loc	2 135 1 is_stmt 1               @ ../User/Bsp/bsp_dwt.c:135:1
	add	sp, #4
	bx	lr
.Ltmp9:
.Lfunc_end2:
	.size	DWT_CNT_Update, .Lfunc_end2-DWT_CNT_Update
	.cfi_endproc
	.cantunwind
	.fnend
                                        @ -- End function
	.section	.text.DWT_GetDeltaT64,"ax",%progbits
	.hidden	DWT_GetDeltaT64                 @ -- Begin function DWT_GetDeltaT64
	.globl	DWT_GetDeltaT64
	.p2align	2
	.type	DWT_GetDeltaT64,%function
	.code	16                              @ @DWT_GetDeltaT64
	.thumb_func
DWT_GetDeltaT64:
.Lfunc_begin3:
	.loc	2 74 0                          @ ../User/Bsp/bsp_dwt.c:74:0
	.fnstart
	.cfi_startproc
@ %bb.0:
	.save	{r7, lr}
	push	{r7, lr}
	.cfi_def_cfa_offset 8
	.cfi_offset lr, -4
	.cfi_offset r7, -8
	.pad	#24
	sub	sp, #24
	.cfi_def_cfa_offset 32
	str	r0, [sp, #20]
	movw	r0, #4100
	movt	r0, #57344
.Ltmp10:
	.loc	2 75 65 prologue_end            @ ../User/Bsp/bsp_dwt.c:75:65
	ldr	r0, [r0]
	.loc	2 75 23 is_stmt 0               @ ../User/Bsp/bsp_dwt.c:75:23
	str	r0, [sp, #16]
	.loc	2 76 29 is_stmt 1               @ ../User/Bsp/bsp_dwt.c:76:29
	ldr	r0, [sp, #16]
	.loc	2 76 40 is_stmt 0               @ ../User/Bsp/bsp_dwt.c:76:40
	ldr	r1, [sp, #20]
	.loc	2 76 39                         @ ../User/Bsp/bsp_dwt.c:76:39
	ldr	r1, [r1]
	.loc	2 76 37                         @ ../User/Bsp/bsp_dwt.c:76:37
	subs	r0, r0, r1
	.loc	2 76 17                         @ ../User/Bsp/bsp_dwt.c:76:17
	bl	__aeabi_ui2d
	vmov	d0, r0, r1
	vstr	d0, [sp]                        @ 8-byte Spill
	.loc	2 76 63                         @ ../User/Bsp/bsp_dwt.c:76:63
	movw	r0, :lower16:CPU_FREQ_Hz
	movt	r0, :upper16:CPU_FREQ_Hz
	ldr	r0, [r0]
	.loc	2 76 54                         @ ../User/Bsp/bsp_dwt.c:76:54
	bl	__aeabi_ui2d
	vldr	d1, [sp]                        @ 8-byte Reload
	vmov	d0, r0, r1
	.loc	2 76 51                         @ ../User/Bsp/bsp_dwt.c:76:51
	vmov	r0, r1, d1
	vmov	r2, r3, d0
	bl	__aeabi_ddiv
	vmov	d0, r0, r1
	.loc	2 76 12                         @ ../User/Bsp/bsp_dwt.c:76:12
	vstr	d0, [sp, #8]
	.loc	2 77 17 is_stmt 1               @ ../User/Bsp/bsp_dwt.c:77:17
	ldr	r0, [sp, #16]
	.loc	2 77 6 is_stmt 0                @ ../User/Bsp/bsp_dwt.c:77:6
	ldr	r1, [sp, #20]
	.loc	2 77 15                         @ ../User/Bsp/bsp_dwt.c:77:15
	str	r0, [r1]
	.loc	2 79 5 is_stmt 1                @ ../User/Bsp/bsp_dwt.c:79:5
	bl	DWT_CNT_Update
	.loc	2 81 12                         @ ../User/Bsp/bsp_dwt.c:81:12
	vldr	d0, [sp, #8]
	.loc	2 81 5 is_stmt 0                @ ../User/Bsp/bsp_dwt.c:81:5
	add	sp, #24
	pop	{r7, pc}
.Ltmp11:
.Lfunc_end3:
	.size	DWT_GetDeltaT64, .Lfunc_end3-DWT_GetDeltaT64
	.cfi_endproc
	.cantunwind
	.fnend
                                        @ -- End function
	.section	.text.DWT_SysTimeUpdate,"ax",%progbits
	.hidden	DWT_SysTimeUpdate               @ -- Begin function DWT_SysTimeUpdate
	.globl	DWT_SysTimeUpdate
	.p2align	2
	.type	DWT_SysTimeUpdate,%function
	.code	16                              @ @DWT_SysTimeUpdate
	.thumb_func
DWT_SysTimeUpdate:
.Lfunc_begin4:
	.loc	2 85 0 is_stmt 1                @ ../User/Bsp/bsp_dwt.c:85:0
	.fnstart
	.cfi_startproc
@ %bb.0:
	.save	{r4, r5, r7, lr}
	push	{r4, r5, r7, lr}
	.cfi_def_cfa_offset 16
	.cfi_offset lr, -4
	.cfi_offset r7, -8
	.cfi_offset r5, -12
	.cfi_offset r4, -16
	.pad	#24
	sub	sp, #24
	.cfi_def_cfa_offset 40
	movw	r0, #4100
	movt	r0, #57344
.Ltmp12:
	.loc	2 86 65 prologue_end            @ ../User/Bsp/bsp_dwt.c:86:65
	ldr	r0, [r0]
	.loc	2 86 23 is_stmt 0               @ ../User/Bsp/bsp_dwt.c:86:23
	str	r0, [sp, #20]
	.loc	2 89 5 is_stmt 1                @ ../User/Bsp/bsp_dwt.c:89:5
	bl	DWT_CNT_Update
	.loc	2 91 26                         @ ../User/Bsp/bsp_dwt.c:91:26
	movw	r0, :lower16:CYCCNT_RountCount
	movt	r0, :upper16:CYCCNT_RountCount
	ldr	r1, [r0]
	.loc	2 91 80 is_stmt 0               @ ../User/Bsp/bsp_dwt.c:91:80
	ldr	r0, [sp, #20]
	movs	r3, #0
	str	r3, [sp, #8]                    @ 4-byte Spill
	mov.w	r12, #-1
	.loc	2 91 68                         @ ../User/Bsp/bsp_dwt.c:91:68
	mov	r2, r3
	umlal	r0, r2, r1, r12
	.loc	2 91 14                         @ ../User/Bsp/bsp_dwt.c:91:14
	movw	r1, :lower16:CYCCNT64
	movt	r1, :upper16:CYCCNT64
	str	r1, [sp]                        @ 4-byte Spill
	str	r2, [r1, #4]
	str	r0, [r1]
	.loc	2 92 17 is_stmt 1               @ ../User/Bsp/bsp_dwt.c:92:17
	ldr	r0, [r1]
	ldr	r1, [r1, #4]
	.loc	2 92 28 is_stmt 0               @ ../User/Bsp/bsp_dwt.c:92:28
	movw	r4, :lower16:CPU_FREQ_Hz
	movt	r4, :upper16:CPU_FREQ_Hz
	ldr	r2, [r4]
	.loc	2 92 26                         @ ../User/Bsp/bsp_dwt.c:92:26
	bl	__aeabi_uldivmod
	ldr	r3, [sp, #8]                    @ 4-byte Reload
	mov	r2, r0
	mov	r12, r1
	.loc	2 92 15                         @ ../User/Bsp/bsp_dwt.c:92:15
	ldr	r1, [sp]                        @ 4-byte Reload
	movw	r0, :lower16:DWT_SysTimeUpdate.CNT_TEMP1
	movt	r0, :upper16:DWT_SysTimeUpdate.CNT_TEMP1
	str.w	r12, [r0, #4]
	str	r2, [r0]
	.loc	2 93 17 is_stmt 1               @ ../User/Bsp/bsp_dwt.c:93:17
	ldr.w	r12, [r1]
	ldr	r1, [r1, #4]
	.loc	2 93 28 is_stmt 0               @ ../User/Bsp/bsp_dwt.c:93:28
	ldr.w	lr, [r0]
	ldr	r2, [r0, #4]
	.loc	2 93 40                         @ ../User/Bsp/bsp_dwt.c:93:40
	ldr	r4, [r4]
	.loc	2 93 38                         @ ../User/Bsp/bsp_dwt.c:93:38
	umull	lr, r5, lr, r4
	mla	r2, r2, r4, r5
	.loc	2 93 26                         @ ../User/Bsp/bsp_dwt.c:93:26
	subs.w	r12, r12, lr
	sbc.w	r2, r1, r2
	.loc	2 93 15                         @ ../User/Bsp/bsp_dwt.c:93:15
	movw	r1, :lower16:DWT_SysTimeUpdate.CNT_TEMP2
	movt	r1, :upper16:DWT_SysTimeUpdate.CNT_TEMP2
	str	r1, [sp, #12]                   @ 4-byte Spill
	str.w	r12, [r1]
	str	r2, [r1, #4]
	.loc	2 94 17 is_stmt 1               @ ../User/Bsp/bsp_dwt.c:94:17
	ldr	r0, [r0]
	.loc	2 94 15 is_stmt 0               @ ../User/Bsp/bsp_dwt.c:94:15
	movw	r2, :lower16:SysTime
	movt	r2, :upper16:SysTime
	str	r2, [sp, #16]                   @ 4-byte Spill
	str	r0, [r2]
	.loc	2 95 18 is_stmt 1               @ ../User/Bsp/bsp_dwt.c:95:18
	ldr	r0, [r1]
	ldr	r1, [r1, #4]
	.loc	2 95 30 is_stmt 0               @ ../User/Bsp/bsp_dwt.c:95:30
	movw	r2, :lower16:CPU_FREQ_Hz_ms
	movt	r2, :upper16:CPU_FREQ_Hz_ms
	str	r2, [sp, #4]                    @ 4-byte Spill
	ldr	r2, [r2]
	.loc	2 95 28                         @ ../User/Bsp/bsp_dwt.c:95:28
	bl	__aeabi_uldivmod
	ldr.w	r12, [sp, #4]                   @ 4-byte Reload
	ldr	r3, [sp, #8]                    @ 4-byte Reload
	ldr	r2, [sp, #16]                   @ 4-byte Reload
	mov	r1, r0
	.loc	2 95 16                         @ ../User/Bsp/bsp_dwt.c:95:16
	ldr	r0, [sp, #12]                   @ 4-byte Reload
	strh	r1, [r2, #4]
	.loc	2 96 17 is_stmt 1               @ ../User/Bsp/bsp_dwt.c:96:17
	ldr	r1, [r0]
	ldr	r0, [r0, #4]
	.loc	2 96 37 is_stmt 0               @ ../User/Bsp/bsp_dwt.c:96:37
	ldrh	r2, [r2, #4]
	.loc	2 96 42                         @ ../User/Bsp/bsp_dwt.c:96:42
	ldr.w	r12, [r12]
	.loc	2 96 40                         @ ../User/Bsp/bsp_dwt.c:96:40
	mul	r2, r2, r12
	.loc	2 96 27                         @ ../User/Bsp/bsp_dwt.c:96:27
	subs	r2, r1, r2
	sbc	r0, r0, #0
	.loc	2 96 15                         @ ../User/Bsp/bsp_dwt.c:96:15
	movw	r1, :lower16:DWT_SysTimeUpdate.CNT_TEMP3
	movt	r1, :upper16:DWT_SysTimeUpdate.CNT_TEMP3
	str	r2, [r1]
	str	r0, [r1, #4]
	.loc	2 97 18 is_stmt 1               @ ../User/Bsp/bsp_dwt.c:97:18
	ldr	r0, [r1]
	ldr	r1, [r1, #4]
	.loc	2 97 30 is_stmt 0               @ ../User/Bsp/bsp_dwt.c:97:30
	movw	r2, :lower16:CPU_FREQ_Hz_us
	movt	r2, :upper16:CPU_FREQ_Hz_us
	ldr	r2, [r2]
	.loc	2 97 28                         @ ../User/Bsp/bsp_dwt.c:97:28
	bl	__aeabi_uldivmod
	ldr	r1, [sp, #16]                   @ 4-byte Reload
	.loc	2 97 16                         @ ../User/Bsp/bsp_dwt.c:97:16
	strh	r0, [r1, #6]
	.loc	2 98 1 is_stmt 1                @ ../User/Bsp/bsp_dwt.c:98:1
	add	sp, #24
	pop	{r4, r5, r7, pc}
.Ltmp13:
.Lfunc_end4:
	.size	DWT_SysTimeUpdate, .Lfunc_end4-DWT_SysTimeUpdate
	.cfi_endproc
	.cantunwind
	.fnend
                                        @ -- End function
	.section	.text.DWT_GetTimeline_s,"ax",%progbits
	.hidden	DWT_GetTimeline_s               @ -- Begin function DWT_GetTimeline_s
	.globl	DWT_GetTimeline_s
	.p2align	2
	.type	DWT_GetTimeline_s,%function
	.code	16                              @ @DWT_GetTimeline_s
	.thumb_func
DWT_GetTimeline_s:
.Lfunc_begin5:
	.loc	2 101 0                         @ ../User/Bsp/bsp_dwt.c:101:0
	.fnstart
	.cfi_startproc
@ %bb.0:
	.save	{r7, lr}
	push	{r7, lr}
	.cfi_def_cfa_offset 8
	.cfi_offset lr, -4
	.cfi_offset r7, -8
	.pad	#8
	sub	sp, #8
	.cfi_def_cfa_offset 16
.Ltmp14:
	.loc	2 102 5 prologue_end            @ ../User/Bsp/bsp_dwt.c:102:5
	bl	DWT_SysTimeUpdate
	.loc	2 104 37                        @ ../User/Bsp/bsp_dwt.c:104:37
	movw	r0, :lower16:SysTime
	movt	r0, :upper16:SysTime
	.loc	2 104 29 is_stmt 0              @ ../User/Bsp/bsp_dwt.c:104:29
	vldr	s0, [r0]
	vcvt.f32.u32	s2, s0
	.loc	2 104 49                        @ ../User/Bsp/bsp_dwt.c:104:49
	ldrh	r1, [r0, #4]
	.loc	2 104 41                        @ ../User/Bsp/bsp_dwt.c:104:41
	vmov	s0, r1
	vcvt.f32.s32	s0, s0
	vldr	s4, .LCPI5_0
	.loc	2 104 39                        @ ../User/Bsp/bsp_dwt.c:104:39
	vmul.f32	s0, s0, s4
	vadd.f32	s2, s0, s2
	.loc	2 104 71                        @ ../User/Bsp/bsp_dwt.c:104:71
	ldrh	r0, [r0, #6]
	.loc	2 104 63                        @ ../User/Bsp/bsp_dwt.c:104:63
	vmov	s0, r0
	vcvt.f32.s32	s0, s0
	vldr	s4, .LCPI5_1
	.loc	2 104 61                        @ ../User/Bsp/bsp_dwt.c:104:61
	vmul.f32	s0, s0, s4
	vadd.f32	s0, s0, s2
	.loc	2 104 11                        @ ../User/Bsp/bsp_dwt.c:104:11
	vstr	s0, [sp, #4]
	.loc	2 106 12 is_stmt 1              @ ../User/Bsp/bsp_dwt.c:106:12
	vldr	s0, [sp, #4]
	.loc	2 106 5 is_stmt 0               @ ../User/Bsp/bsp_dwt.c:106:5
	add	sp, #8
	pop	{r7, pc}
.Ltmp15:
	.p2align	2
@ %bb.1:
	.loc	2 0 5                           @ ../User/Bsp/bsp_dwt.c:0:5
.LCPI5_0:
	.long	0x3a83126f                      @ float 0.00100000005
.LCPI5_1:
	.long	0x358637bd                      @ float 9.99999997E-7
.Lfunc_end5:
	.size	DWT_GetTimeline_s, .Lfunc_end5-DWT_GetTimeline_s
	.cfi_endproc
	.cantunwind
	.fnend
                                        @ -- End function
	.section	.text.DWT_GetTimeline_ms,"ax",%progbits
	.hidden	DWT_GetTimeline_ms              @ -- Begin function DWT_GetTimeline_ms
	.globl	DWT_GetTimeline_ms
	.p2align	2
	.type	DWT_GetTimeline_ms,%function
	.code	16                              @ @DWT_GetTimeline_ms
	.thumb_func
DWT_GetTimeline_ms:
.Lfunc_begin6:
	.loc	2 110 0 is_stmt 1               @ ../User/Bsp/bsp_dwt.c:110:0
	.fnstart
	.cfi_startproc
@ %bb.0:
	.save	{r7, lr}
	push	{r7, lr}
	.cfi_def_cfa_offset 8
	.cfi_offset lr, -4
	.cfi_offset r7, -8
	.pad	#8
	sub	sp, #8
	.cfi_def_cfa_offset 16
.Ltmp16:
	.loc	2 111 5 prologue_end            @ ../User/Bsp/bsp_dwt.c:111:5
	bl	DWT_SysTimeUpdate
	.loc	2 113 37                        @ ../User/Bsp/bsp_dwt.c:113:37
	movw	r0, :lower16:SysTime
	movt	r0, :upper16:SysTime
	ldr	r1, [r0]
	.loc	2 113 56 is_stmt 0              @ ../User/Bsp/bsp_dwt.c:113:56
	ldrh	r3, [r0, #4]
	mov.w	r2, #1000
	.loc	2 113 46                        @ ../User/Bsp/bsp_dwt.c:113:46
	mla	r1, r1, r2, r3
	.loc	2 113 29                        @ ../User/Bsp/bsp_dwt.c:113:29
	vmov	s0, r1
	vcvt.f32.u32	s2, s0
	.loc	2 113 69                        @ ../User/Bsp/bsp_dwt.c:113:69
	ldrh	r0, [r0, #6]
	.loc	2 113 61                        @ ../User/Bsp/bsp_dwt.c:113:61
	vmov	s0, r0
	vcvt.f32.s32	s0, s0
	vldr	s4, .LCPI6_0
	.loc	2 113 59                        @ ../User/Bsp/bsp_dwt.c:113:59
	vmul.f32	s0, s0, s4
	vadd.f32	s0, s0, s2
	.loc	2 113 11                        @ ../User/Bsp/bsp_dwt.c:113:11
	vstr	s0, [sp, #4]
	.loc	2 115 12 is_stmt 1              @ ../User/Bsp/bsp_dwt.c:115:12
	vldr	s0, [sp, #4]
	.loc	2 115 5 is_stmt 0               @ ../User/Bsp/bsp_dwt.c:115:5
	add	sp, #8
	pop	{r7, pc}
.Ltmp17:
	.p2align	2
@ %bb.1:
	.loc	2 0 5                           @ ../User/Bsp/bsp_dwt.c:0:5
.LCPI6_0:
	.long	0x3a83126f                      @ float 0.00100000005
.Lfunc_end6:
	.size	DWT_GetTimeline_ms, .Lfunc_end6-DWT_GetTimeline_ms
	.cfi_endproc
	.cantunwind
	.fnend
                                        @ -- End function
	.section	.text.DWT_GetTimeline_us,"ax",%progbits
	.hidden	DWT_GetTimeline_us              @ -- Begin function DWT_GetTimeline_us
	.globl	DWT_GetTimeline_us
	.p2align	2
	.type	DWT_GetTimeline_us,%function
	.code	16                              @ @DWT_GetTimeline_us
	.thumb_func
DWT_GetTimeline_us:
.Lfunc_begin7:
	.loc	2 119 0 is_stmt 1               @ ../User/Bsp/bsp_dwt.c:119:0
	.fnstart
	.cfi_startproc
@ %bb.0:
	.save	{r7, lr}
	push	{r7, lr}
	.cfi_def_cfa_offset 8
	.cfi_offset lr, -4
	.cfi_offset r7, -8
	.pad	#8
	sub	sp, #8
	.cfi_def_cfa_offset 16
.Ltmp18:
	.loc	2 120 5 prologue_end            @ ../User/Bsp/bsp_dwt.c:120:5
	bl	DWT_SysTimeUpdate
	.loc	2 122 40                        @ ../User/Bsp/bsp_dwt.c:122:40
	movw	r1, :lower16:SysTime
	movt	r1, :upper16:SysTime
	ldr	r0, [r1]
	movw	r2, #15625
	.loc	2 122 42 is_stmt 0              @ ../User/Bsp/bsp_dwt.c:122:42
	muls	r2, r0, r2
	.loc	2 122 62                        @ ../User/Bsp/bsp_dwt.c:122:62
	ldrh	r0, [r1, #4]
	mov.w	r3, #1000
	.loc	2 122 65                        @ ../User/Bsp/bsp_dwt.c:122:65
	muls	r0, r3, r0
	.loc	2 122 52                        @ ../User/Bsp/bsp_dwt.c:122:52
	add.w	r0, r0, r2, lsl #6
	.loc	2 122 82                        @ ../User/Bsp/bsp_dwt.c:122:82
	ldrh	r1, [r1, #6]
	.loc	2 122 72                        @ ../User/Bsp/bsp_dwt.c:122:72
	add	r0, r1
	movs	r1, #0
	.loc	2 122 14                        @ ../User/Bsp/bsp_dwt.c:122:14
	str	r1, [sp, #4]
	str	r0, [sp]
	.loc	2 124 12 is_stmt 1              @ ../User/Bsp/bsp_dwt.c:124:12
	ldr	r0, [sp]
	ldr	r1, [sp, #4]
	.loc	2 124 5 is_stmt 0               @ ../User/Bsp/bsp_dwt.c:124:5
	add	sp, #8
	pop	{r7, pc}
.Ltmp19:
.Lfunc_end7:
	.size	DWT_GetTimeline_us, .Lfunc_end7-DWT_GetTimeline_us
	.cfi_endproc
	.cantunwind
	.fnend
                                        @ -- End function
	.section	.text.DWT_Delay,"ax",%progbits
	.hidden	DWT_Delay                       @ -- Begin function DWT_Delay
	.globl	DWT_Delay
	.p2align	2
	.type	DWT_Delay,%function
	.code	16                              @ @DWT_Delay
	.thumb_func
DWT_Delay:
.Lfunc_begin8:
	.loc	2 138 0 is_stmt 1               @ ../User/Bsp/bsp_dwt.c:138:0
	.fnstart
	.cfi_startproc
@ %bb.0:
	.pad	#12
	sub	sp, #12
	.cfi_def_cfa_offset 12
	vstr	s0, [sp, #8]
	movw	r0, #4100
	movt	r0, #57344
.Ltmp20:
	.loc	2 139 58 prologue_end           @ ../User/Bsp/bsp_dwt.c:139:58
	ldr	r0, [r0]
	.loc	2 139 14 is_stmt 0              @ ../User/Bsp/bsp_dwt.c:139:14
	str	r0, [sp, #4]
	.loc	2 140 18 is_stmt 1              @ ../User/Bsp/bsp_dwt.c:140:18
	ldr	r0, [sp, #8]
	.loc	2 140 11 is_stmt 0              @ ../User/Bsp/bsp_dwt.c:140:11
	str	r0, [sp]
	.loc	2 142 5 is_stmt 1               @ ../User/Bsp/bsp_dwt.c:142:5
	b	.LBB8_1
.LBB8_1:                                @ =>This Inner Loop Header: Depth=1
	.loc	2 0 5 is_stmt 0                 @ ../User/Bsp/bsp_dwt.c:0:5
	movw	r0, #4100
	movt	r0, #57344
	.loc	2 142 45                        @ ../User/Bsp/bsp_dwt.c:142:45
	ldr	r0, [r0]
	.loc	2 142 54                        @ ../User/Bsp/bsp_dwt.c:142:54
	ldr	r1, [sp, #4]
	.loc	2 142 52                        @ ../User/Bsp/bsp_dwt.c:142:52
	subs	r0, r0, r1
	.loc	2 142 12                        @ ../User/Bsp/bsp_dwt.c:142:12
	vmov	s0, r0
	vcvt.f32.u32	s0, s0
	.loc	2 142 67                        @ ../User/Bsp/bsp_dwt.c:142:67
	vldr	s2, [sp]
	.loc	2 142 81                        @ ../User/Bsp/bsp_dwt.c:142:81
	movw	r0, :lower16:CPU_FREQ_Hz
	movt	r0, :upper16:CPU_FREQ_Hz
	.loc	2 142 74                        @ ../User/Bsp/bsp_dwt.c:142:74
	vldr	s4, [r0]
	vcvt.f32.u32	s4, s4
	.loc	2 142 72                        @ ../User/Bsp/bsp_dwt.c:142:72
	vmul.f32	s2, s2, s4
	.loc	2 142 5                         @ ../User/Bsp/bsp_dwt.c:142:5
	vcmp.f32	s0, s2
	vmrs	APSR_nzcv, fpscr
	bge	.LBB8_3
	b	.LBB8_2
.LBB8_2:                                @   in Loop: Header=BB8_1 Depth=1
	b	.LBB8_1
.LBB8_3:
	.loc	2 145 1 is_stmt 1               @ ../User/Bsp/bsp_dwt.c:145:1
	add	sp, #12
	bx	lr
.Ltmp21:
.Lfunc_end8:
	.size	DWT_Delay, .Lfunc_end8-DWT_Delay
	.cfi_endproc
	.cantunwind
	.fnend
                                        @ -- End function
	.section	.text.DWT_Delay_us,"ax",%progbits
	.hidden	DWT_Delay_us                    @ -- Begin function DWT_Delay_us
	.globl	DWT_Delay_us
	.p2align	2
	.type	DWT_Delay_us,%function
	.code	16                              @ @DWT_Delay_us
	.thumb_func
DWT_Delay_us:
.Lfunc_begin9:
	.loc	2 148 0                         @ ../User/Bsp/bsp_dwt.c:148:0
	.fnstart
	.cfi_startproc
@ %bb.0:
	.pad	#12
	sub	sp, #12
	.cfi_def_cfa_offset 12
	str	r0, [sp, #8]
	movw	r0, #4100
	movt	r0, #57344
.Ltmp22:
	.loc	2 149 59 prologue_end           @ ../User/Bsp/bsp_dwt.c:149:59
	ldr	r0, [r0]
	.loc	2 149 14 is_stmt 0              @ ../User/Bsp/bsp_dwt.c:149:14
	str	r0, [sp, #4]
	.loc	2 150 28 is_stmt 1              @ ../User/Bsp/bsp_dwt.c:150:28
	ldr	r0, [sp, #8]
	.loc	2 150 33 is_stmt 0              @ ../User/Bsp/bsp_dwt.c:150:33
	movw	r1, :lower16:CPU_FREQ_Hz_us
	movt	r1, :upper16:CPU_FREQ_Hz_us
	ldr	r1, [r1]
	.loc	2 150 31                        @ ../User/Bsp/bsp_dwt.c:150:31
	muls	r0, r1, r0
	.loc	2 150 14                        @ ../User/Bsp/bsp_dwt.c:150:14
	str	r0, [sp]
	.loc	2 152 5 is_stmt 1               @ ../User/Bsp/bsp_dwt.c:152:5
	b	.LBB9_1
.LBB9_1:                                @ =>This Inner Loop Header: Depth=1
	.loc	2 0 5 is_stmt 0                 @ ../User/Bsp/bsp_dwt.c:0:5
	movw	r0, #4100
	movt	r0, #57344
	.loc	2 152 45                        @ ../User/Bsp/bsp_dwt.c:152:45
	ldr	r0, [r0]
	.loc	2 152 54                        @ ../User/Bsp/bsp_dwt.c:152:54
	ldr	r1, [sp, #4]
	.loc	2 152 52                        @ ../User/Bsp/bsp_dwt.c:152:52
	subs	r0, r0, r1
	.loc	2 152 68                        @ ../User/Bsp/bsp_dwt.c:152:68
	ldr	r1, [sp]
	.loc	2 152 5                         @ ../User/Bsp/bsp_dwt.c:152:5
	cmp	r0, r1
	bhs	.LBB9_3
	b	.LBB9_2
.LBB9_2:                                @   in Loop: Header=BB9_1 Depth=1
	b	.LBB9_1
.LBB9_3:
	.loc	2 156 1 is_stmt 1               @ ../User/Bsp/bsp_dwt.c:156:1
	add	sp, #12
	bx	lr
.Ltmp23:
.Lfunc_end9:
	.size	DWT_Delay_us, .Lfunc_end9-DWT_Delay_us
	.cfi_endproc
	.cantunwind
	.fnend
                                        @ -- End function
	.type	CPU_FREQ_Hz,%object             @ @CPU_FREQ_Hz
	.section	.bss.CPU_FREQ_Hz,"aw",%nobits
	.p2align	2
CPU_FREQ_Hz:
	.long	0                               @ 0x0
	.size	CPU_FREQ_Hz, 4

	.type	CPU_FREQ_Hz_ms,%object          @ @CPU_FREQ_Hz_ms
	.section	.bss.CPU_FREQ_Hz_ms,"aw",%nobits
	.p2align	2
CPU_FREQ_Hz_ms:
	.long	0                               @ 0x0
	.size	CPU_FREQ_Hz_ms, 4

	.type	CPU_FREQ_Hz_us,%object          @ @CPU_FREQ_Hz_us
	.section	.bss.CPU_FREQ_Hz_us,"aw",%nobits
	.p2align	2
CPU_FREQ_Hz_us:
	.long	0                               @ 0x0
	.size	CPU_FREQ_Hz_us, 4

	.type	CYCCNT_RountCount,%object       @ @CYCCNT_RountCount
	.section	.bss.CYCCNT_RountCount,"aw",%nobits
	.p2align	2
CYCCNT_RountCount:
	.long	0                               @ 0x0
	.size	CYCCNT_RountCount, 4

	.type	DWT_SysTimeUpdate.CNT_TEMP1,%object @ @DWT_SysTimeUpdate.CNT_TEMP1
	.section	.bss.DWT_SysTimeUpdate.CNT_TEMP1,"aw",%nobits
	.p2align	3
DWT_SysTimeUpdate.CNT_TEMP1:
	.long	0                               @ 0x0
	.long	0
	.size	DWT_SysTimeUpdate.CNT_TEMP1, 8

	.type	DWT_SysTimeUpdate.CNT_TEMP2,%object @ @DWT_SysTimeUpdate.CNT_TEMP2
	.section	.bss.DWT_SysTimeUpdate.CNT_TEMP2,"aw",%nobits
	.p2align	3
DWT_SysTimeUpdate.CNT_TEMP2:
	.long	0                               @ 0x0
	.long	0
	.size	DWT_SysTimeUpdate.CNT_TEMP2, 8

	.type	DWT_SysTimeUpdate.CNT_TEMP3,%object @ @DWT_SysTimeUpdate.CNT_TEMP3
	.section	.bss.DWT_SysTimeUpdate.CNT_TEMP3,"aw",%nobits
	.p2align	3
DWT_SysTimeUpdate.CNT_TEMP3:
	.long	0                               @ 0x0
	.long	0
	.size	DWT_SysTimeUpdate.CNT_TEMP3, 8

	.hidden	CYCCNT64                        @ @CYCCNT64
	.type	CYCCNT64,%object
	.section	.bss.CYCCNT64,"aw",%nobits
	.globl	CYCCNT64
	.p2align	3
CYCCNT64:
	.long	0                               @ 0x0
	.long	0
	.size	CYCCNT64, 8

	.hidden	SysTime                         @ @SysTime
	.type	SysTime,%object
	.section	.bss.SysTime,"aw",%nobits
	.globl	SysTime
	.p2align	2
SysTime:
	.zero	8
	.size	SysTime, 8

	.type	CYCCNT_LAST,%object             @ @CYCCNT_LAST
	.section	.bss.CYCCNT_LAST,"aw",%nobits
	.p2align	2
CYCCNT_LAST:
	.long	0                               @ 0x0
	.size	CYCCNT_LAST, 4

	.section	".note.GNU-stack","",%progbits
	.eabi_attribute	30, 6	@ Tag_ABI_optimization_goals
	.ARM_attribute	16, 1	@ Tag_AV_eba