	.text
	.syntax unified
	.eabi_attribute	67, "2.09"	@ Tag_conformance
	.cpu	cortex-m4
	.eabi_attribute	6, 13	@ Tag_CPU_arch
	.eabi_attribute	7, 77	@ Tag_CPU_arch_profile
	.eabi_attribute	8, 0	@ Tag_ARM_ISA_use
	.eabi_attribute	9, 2	@ Tag_THUMB_ISA_use
	.fpu	fpv4-sp-d16
	.eabi_attribute	27, 1	@ Tag_ABI_HardFP_use
	.eabi_attribute	36, 1	@ Tag_FP_HP_extension
	.eabi_attribute	34, 1	@ Tag_CPU_unaligned_access
	.eabi_attribute	17, 1	@ Tag_ABI_PCS_GOT_use
	.eabi_attribute	20, 2	@ Tag_ABI_FP_denormal
	.eabi_attribute	21, 0	@ Tag_ABI_FP_exceptions
	.eabi_attribute	23, 3	@ Tag_ABI_FP_number_model
	.eabi_attribute	24, 1	@ Tag_ABI_align_needed
	.eabi_attribute	25, 1	@ Tag_ABI_align_preserved
	.eabi_attribute	28, 1	@ Tag_ABI_VFP_args
	.eabi_attribute	38, 1	@ Tag_ABI_FP_16bit_format
	.eabi_attribute	18, 2	@ Tag_ABI_PCS_wchar_t
	.eabi_attribute	26, 1	@ Tag_ABI_enum_size
	.eabi_attribute	14, 0	@ Tag_ABI_PCS_R9_use
	.file	"can_bsp.c"
	.file	1 "D:\\horizon\\Horizon_Infantry (2)\\MDK-ARM" "../Drivers/CMSIS/Device/ST/STM32F4xx/Include\\stm32f4xx.h"
	.file	2 "D:\\horizon\\Horizon_Infantry (2)\\MDK-ARM" "../Drivers/STM32F4xx_HAL_Driver/Inc\\stm32f4xx_hal_can.h"
	.file	3 "D:\\" "kevil\\ARM\\ARMCLANG\\Bin\\..\\include\\stdint.h"
	.section	.text.CAN_Filter_Init,"ax",%progbits
	.hidden	CAN_Filter_Init                 @ -- Begin function CAN_Filter_Init
	.globl	CAN_Filter_Init
	.p2align	2
	.type	CAN_Filter_Init,%function
	.code	16                              @ @CAN_Filter_Init
	.thumb_func
CAN_Filter_Init:
.Lfunc_begin0:
	.file	4 "D:\\horizon\\Horizon_Infantry (2)\\MDK-ARM" "../User/Bsp/can_bsp.c"
	.loc	4 19 0                          @ ../User/Bsp/can_bsp.c:19:0
	.fnstart
	.cfi_sections .debug_frame
	.cfi_startproc
@ %bb.0:
	.save	{r7, lr}
	push	{r7, lr}
	.cfi_def_cfa_offset 8
	.cfi_offset lr, -4
	.cfi_offset r7, -8
	.pad	#64
	sub	sp, #64
	.cfi_def_cfa_offset 72
	movs	r0, #14
.Ltmp0:
	.loc	4 22 45 prologue_end            @ ../User/Bsp/can_bsp.c:22:45
	str	r0, [sp, #12]                   @ 4-byte Spill
	str	r0, [sp, #60]
	.loc	4 23 35                         @ ../User/Bsp/can_bsp.c:23:35
	str	r0, [sp, #44]
	movs	r1, #1
	.loc	4 24 41                         @ ../User/Bsp/can_bsp.c:24:41
	str	r1, [sp, #56]
	movs	r0, #0
	.loc	4 25 35                         @ ../User/Bsp/can_bsp.c:25:35
	str	r0, [sp, #48]
	.loc	4 26 36                         @ ../User/Bsp/can_bsp.c:26:36
	str	r1, [sp, #52]
	.loc	4 27 37                         @ ../User/Bsp/can_bsp.c:27:37
	str	r0, [sp, #24]
	.loc	4 28 36                         @ ../User/Bsp/can_bsp.c:28:36
	str	r0, [sp, #28]
	.loc	4 29 41                         @ ../User/Bsp/can_bsp.c:29:41
	str	r0, [sp, #32]
	.loc	4 30 40                         @ ../User/Bsp/can_bsp.c:30:40
	str	r0, [sp, #36]
	.loc	4 31 35                         @ ../User/Bsp/can_bsp.c:31:35
	str	r0, [sp, #44]
	.loc	4 32 45                         @ ../User/Bsp/can_bsp.c:32:45
	str	r0, [sp, #40]
	.loc	4 34 5                          @ ../User/Bsp/can_bsp.c:34:5
	movw	r0, :lower16:hcan1
	movt	r0, :upper16:hcan1
	str	r0, [sp, #4]                    @ 4-byte Spill
	add	r1, sp, #24
	str	r1, [sp, #8]                    @ 4-byte Spill
	bl	HAL_CAN_ConfigFilter
                                        @ kill: def $r1 killed $r0
	.loc	4 35 5                          @ ../User/Bsp/can_bsp.c:35:5
	ldr	r0, [sp, #4]                    @ 4-byte Reload
	bl	HAL_CAN_Start
                                        @ kill: def $r1 killed $r0
	.loc	4 36 5                          @ ../User/Bsp/can_bsp.c:36:5
	ldr	r0, [sp, #4]                    @ 4-byte Reload
	movs	r1, #2
	str	r1, [sp, #16]                   @ 4-byte Spill
	bl	HAL_CAN_ActivateNotification
	ldr	r1, [sp, #8]                    @ 4-byte Reload
                                        @ kill: def $r2 killed $r0
	.loc	4 38 45                         @ ../User/Bsp/can_bsp.c:38:45
	ldr	r0, [sp, #12]                   @ 4-byte Reload
	str	r0, [sp, #60]
	.loc	4 39 35                         @ ../User/Bsp/can_bsp.c:39:35
	str	r0, [sp, #44]
	.loc	4 41 5                          @ ../User/Bsp/can_bsp.c:41:5
	movw	r0, :lower16:hcan2
	movt	r0, :upper16:hcan2
	str	r0, [sp, #20]                   @ 4-byte Spill
	bl	HAL_CAN_ConfigFilter
                                        @ kill: def $r1 killed $r0
	.loc	4 42 5                          @ ../User/Bsp/can_bsp.c:42:5
	ldr	r0, [sp, #20]                   @ 4-byte Reload
	bl	HAL_CAN_Start
	ldr	r1, [sp, #16]                   @ 4-byte Reload
                                        @ kill: def $r2 killed $r0
	.loc	4 43 5                          @ ../User/Bsp/can_bsp.c:43:5
	ldr	r0, [sp, #20]                   @ 4-byte Reload
	bl	HAL_CAN_ActivateNotification
	.loc	4 45 5                          @ ../User/Bsp/can_bsp.c:45:5
	add	sp, #64
	pop	{r7, pc}
.Ltmp1:
.Lfunc_end0:
	.size	CAN_Filter_Init, .Lfunc_end0-CAN_Filter_Init
	.cfi_endproc
	.cantunwind
	.fnend
                                        @ -- End function
	.section	.text.canx_send_data,"ax",%progbits
	.hidden	canx_send_data                  @ -- Begin function canx_send_data
	.globl	canx_send_data
	.p2align	2
	.type	canx_send_data,%function
	.code	16                              @ @canx_send_data
	.thumb_func
canx_send_data:
.Lfunc_begin1:
	.loc	4 56 0                          @ ../User/Bsp/can_bsp.c:56:0
	.fnstart
	.cfi_startproc
@ %bb.0:
	.save	{r7, lr}
	push	{r7, lr}
	.cfi_def_cfa_offset 8
	.cfi_offset lr, -4
	.cfi_offset r7, -8
	.pad	#40
	sub	sp, #40
	.cfi_def_cfa_offset 48
                                        @ kill: def $r3 killed $r1
	str	r0, [sp, #36]
	strh.w	r1, [sp, #34]
	str	r2, [sp, #28]
	movs	r0, #8
.Ltmp2:
	.loc	4 61 19 prologue_end            @ ../User/Bsp/can_bsp.c:61:19
	str	r0, [sp, #20]
	movs	r0, #0
	.loc	4 62 19                         @ ../User/Bsp/can_bsp.c:62:19
	str	r0, [sp, #12]
	.loc	4 63 19                         @ ../User/Bsp/can_bsp.c:63:19
	str	r0, [sp, #16]
	.loc	4 64 23                         @ ../User/Bsp/can_bsp.c:64:23
	ldrh.w	r0, [sp, #34]
	.loc	4 64 21 is_stmt 0               @ ../User/Bsp/can_bsp.c:64:21
	str	r0, [sp, #4]
	.loc	4 66 26 is_stmt 1               @ ../User/Bsp/can_bsp.c:66:26
	ldr	r0, [sp, #36]
	.loc	4 66 47 is_stmt 0               @ ../User/Bsp/can_bsp.c:66:47
	ldr	r2, [sp, #28]
	add	r1, sp, #4
	mov	r3, sp
	.loc	4 66 5                          @ ../User/Bsp/can_bsp.c:66:5
	bl	HAL_CAN_AddTxMessage
	.loc	4 67 1 is_stmt 1                @ ../User/Bsp/can_bsp.c:67:1
	add	sp, #40
	pop	{r7, pc}
.Ltmp3:
.Lfunc_end1:
	.size	canx_send_data, .Lfunc_end1-canx_send_data
	.cfi_endproc
	.cantunwind
	.fnend
                                        @ -- End function
	.file	5 "D:\\horizon\\Horizon_Infantry (2)\\MDK-ARM" "../Drivers/CMSIS/Device/ST/STM32F4xx/Include/stm32f407xx.h"
	.section	".note.GNU-stack","",%progbits
	.eabi_attribute	30, 6	@ Tag_ABI_optimization_goals
	.ARM_attribute	16, 1	@ Tag_AV_eba