	.text
	.syntax unified
	.eabi_attribute	67, "2.09"	@ Tag_conformance
	.cpu	cortex-m4
	.eabi_attribute	6, 13	@ Tag_CPU_arch
	.eabi_attribute	7, 77	@ Tag_CPU_arch_profile
	.eabi_attribute	8, 0	@ Tag_ARM_ISA_use
	.eabi_attribute	9, 2	@ Tag_THUMB_ISA_use
	.fpu	fpv4-sp-d16
	.eabi_attribute	27, 1	@ Tag_ABI_HardFP_use
	.eabi_attribute	36, 1	@ Tag_FP_HP_extension
	.eabi_attribute	34, 1	@ Tag_CPU_unaligned_access
	.eabi_attribute	17, 1	@ Tag_ABI_PCS_GOT_use
	.eabi_attribute	20, 2	@ Tag_ABI_FP_denormal
	.eabi_attribute	21, 0	@ Tag_ABI_FP_exceptions
	.eabi_attribute	23, 3	@ Tag_ABI_FP_number_model
	.eabi_attribute	24, 1	@ Tag_ABI_align_needed
	.eabi_attribute	25, 1	@ Tag_ABI_align_preserved
	.eabi_attribute	28, 1	@ Tag_ABI_VFP_args
	.eabi_attribute	38, 1	@ Tag_ABI_FP_16bit_format
	.eabi_attribute	18, 2	@ Tag_ABI_PCS_wchar_t
	.eabi_attribute	26, 1	@ Tag_ABI_enum_size
	.eabi_attribute	14, 0	@ Tag_ABI_PCS_R9_use
	.file	"Chassis_Task.c"
	.file	1 "D:\\" "kevil\\ARM\\ARMCLANG\\Bin\\..\\include\\stdint.h"
	.file	2 "D:\\horizon\\Horizon_Infantry (2)\\MDK-ARM" "../User/App/Chassis_Task.c"
	.file	3 "D:\\horizon\\Horizon_Infantry (2)\\MDK-ARM" "../User/Algorithm/inc\\controller.h"
	.section	.text.MOTOR_PID_Chassis_INIT,"ax",%progbits
	.hidden	MOTOR_PID_Chassis_INIT          @ -- Begin function MOTOR_PID_Chassis_INIT
	.globl	MOTOR_PID_Chassis_INIT
	.p2align	2
	.type	MOTOR_PID_Chassis_INIT,%function
	.code	16                              @ @MOTOR_PID_Chassis_INIT
	.thumb_func
MOTOR_PID_Chassis_INIT:
.Lfunc_begin0:
	.loc	2 11 0                          @ ../User/App/Chassis_Task.c:11:0
	.fnstart
	.cfi_sections .debug_frame
	.cfi_startproc
@ %bb.0:
	.save	{r7, lr}
	push	{r7, lr}
	.cfi_def_cfa_offset 8
	.cfi_offset lr, -4
	.cfi_offset r7, -8
	.pad	#136
	sub	sp, #136
	.cfi_def_cfa_offset 144
	str	r0, [sp, #132]
.Ltmp0:
	.loc	2 13 11 prologue_end            @ ../User/App/Chassis_Task.c:13:11
	movw	r2, :lower16:.L__const.MOTOR_PID_Chassis_INIT.PID_F_1
	movt	r2, :upper16:.L__const.MOTOR_PID_Chassis_INIT.PID_F_1
	ldr	r0, [r2]
	ldr	r1, [r2, #4]
	ldr	r2, [r2, #8]
	str	r2, [sp, #128]
	str	r1, [sp, #124]
	str	r0, [sp, #120]
	.loc	2 14 11                         @ ../User/App/Chassis_Task.c:14:11
	movw	r2, :lower16:.L__const.MOTOR_PID_Chassis_INIT.PID_S_1
	movt	r2, :upper16:.L__const.MOTOR_PID_Chassis_INIT.PID_S_1
	ldr	r0, [r2]
	ldr	r1, [r2, #4]
	ldr	r2, [r2, #8]
	str	r2, [sp, #116]
	str	r1, [sp, #112]
	str	r0, [sp, #108]
	.loc	2 15 23                         @ ../User/App/Chassis_Task.c:15:23
	ldr	r0, [sp, #132]
	.loc	2 15 49 is_stmt 0               @ ../User/App/Chassis_Task.c:15:49
	addw	r0, r0, #3000
	vldr	s0, .LCPI0_0
	vstr	s0, [sp, #4]                    @ 4-byte Spill
	add	r1, sp, #120
	vmov.f32	s1, #5.000000e-01
	vstr	s1, [sp, #8]                    @ 4-byte Spill
	movs	r3, #2
	.loc	2 15 5                          @ ../User/App/Chassis_Task.c:15:5
	str	r3, [sp, #28]                   @ 4-byte Spill
	mov	r2, r3
	bl	Feedforward_Init
	ldr	r2, [sp, #28]                   @ 4-byte Reload
	.loc	2 17 15 is_stmt 1               @ ../User/App/Chassis_Task.c:17:15
	ldr	r0, [sp, #132]
	.loc	2 17 41 is_stmt 0               @ ../User/App/Chassis_Task.c:17:41
	addw	r0, r0, #3314
	vldr	s0, .LCPI0_1
	vstr	s0, [sp, #12]                   @ 4-byte Spill
	vldr	s1, .LCPI0_2
	vstr	s1, [sp, #16]                   @ 4-byte Spill
	add	r1, sp, #108
	vldr	s3, .LCPI0_3
	vstr	s3, [sp, #20]                   @ 4-byte Spill
	vldr	s5, .LCPI0_4
	vstr	s5, [sp, #24]                   @ 4-byte Spill
	movs	r3, #247
	.loc	2 17 5                          @ ../User/App/Chassis_Task.c:17:5
	str	r3, [sp, #32]                   @ 4-byte Spill
	vmov.f32	s2, s3
	vmov.f32	s4, s5
	bl	PID_Init
	vldr	s0, [sp, #4]                    @ 4-byte Reload
	vldr	s1, [sp, #8]                    @ 4-byte Reload
	ldr	r3, [sp, #28]                   @ 4-byte Reload
	.loc	2 24 11 is_stmt 1               @ ../User/App/Chassis_Task.c:24:11
	movw	r2, :lower16:.L__const.MOTOR_PID_Chassis_INIT.PID_F_2
	movt	r2, :upper16:.L__const.MOTOR_PID_Chassis_INIT.PID_F_2
	ldr	r0, [r2]
	ldr	r1, [r2, #4]
	ldr	r2, [r2, #8]
	str	r2, [sp, #104]
	str	r1, [sp, #100]
	str	r0, [sp, #96]
	.loc	2 25 11                         @ ../User/App/Chassis_Task.c:25:11
	movw	r2, :lower16:.L__const.MOTOR_PID_Chassis_INIT.PID_S_2
	movt	r2, :upper16:.L__const.MOTOR_PID_Chassis_INIT.PID_S_2
	ldr	r0, [r2]
	ldr	r1, [r2, #4]
	ldr	r2, [r2, #8]
	str	r2, [sp, #92]
	str	r1, [sp, #88]
	str	r0, [sp, #84]
	.loc	2 26 23                         @ ../User/App/Chassis_Task.c:26:23
	ldr	r0, [sp, #132]
	.loc	2 26 49 is_stmt 0               @ ../User/App/Chassis_Task.c:26:49
	addw	r0, r0, #3560
	add	r1, sp, #96
	.loc	2 26 5                          @ ../User/App/Chassis_Task.c:26:5
	mov	r2, r3
	bl	Feedforward_Init
	vldr	s0, [sp, #12]                   @ 4-byte Reload
	vldr	s1, [sp, #16]                   @ 4-byte Reload
	vldr	s3, [sp, #20]                   @ 4-byte Reload
	vldr	s5, [sp, #24]                   @ 4-byte Reload
	ldr	r2, [sp, #28]                   @ 4-byte Reload
	ldr	r3, [sp, #32]                   @ 4-byte Reload
	.loc	2 28 15 is_stmt 1               @ ../User/App/Chassis_Task.c:28:15
	ldr	r0, [sp, #132]
	.loc	2 28 41 is_stmt 0               @ ../User/App/Chassis_Task.c:28:41
	addw	r0, r0, #3874
	add	r1, sp, #84
	.loc	2 28 5                          @ ../User/App/Chassis_Task.c:28:5
	vmov.f32	s2, s3
	vmov.f32	s4, s5
	bl	PID_Init
	vldr	s0, [sp, #4]                    @ 4-byte Reload
	vldr	s1, [sp, #8]                    @ 4-byte Reload
	ldr	r3, [sp, #28]                   @ 4-byte Reload
	.loc	2 35 11 is_stmt 1               @ ../User/App/Chassis_Task.c:35:11
	movw	r2, :lower16:.L__const.MOTOR_PID_Chassis_INIT.PID_F_3
	movt	r2, :upper16:.L__const.MOTOR_PID_Chassis_INIT.PID_F_3
	ldr	r0, [r2]
	ldr	r1, [r2, #4]
	ldr	r2, [r2, #8]
	str	r2, [sp, #80]
	str	r1, [sp, #76]
	str	r0, [sp, #72]
	.loc	2 36 11                         @ ../User/App/Chassis_Task.c:36:11
	movw	r2, :lower16:.L__const.MOTOR_PID_Chassis_INIT.PID_S_3
	movt	r2, :upper16:.L__const.MOTOR_PID_Chassis_INIT.PID_S_3
	ldr	r0, [r2]
	ldr	r1, [r2, #4]
	ldr	r2, [r2, #8]
	str	r2, [sp, #68]
	str	r1, [sp, #64]
	str	r0, [sp, #60]
	.loc	2 37 23                         @ ../User/App/Chassis_Task.c:37:23
	ldr	r0, [sp, #132]
	movw	r1, #4120
	.loc	2 37 49 is_stmt 0               @ ../User/App/Chassis_Task.c:37:49
	add	r0, r1
	add	r1, sp, #72
	.loc	2 37 5                          @ ../User/App/Chassis_Task.c:37:5
	mov	r2, r3
	bl	Feedforward_Init
	vldr	s0, [sp, #12]                   @ 4-byte Reload
	vldr	s1, [sp, #16]                   @ 4-byte Reload
	vldr	s3, [sp, #20]                   @ 4-byte Reload
	vldr	s5, [sp, #24]                   @ 4-byte Reload
	ldr	r2, [sp, #28]                   @ 4-byte Reload
	ldr	r3, [sp, #32]                   @ 4-byte Reload
	.loc	2 39 15 is_stmt 1               @ ../User/App/Chassis_Task.c:39:15
	ldr	r0, [sp, #132]
	movw	r1, #4434
	.loc	2 39 41 is_stmt 0               @ ../User/App/Chassis_Task.c:39:41
	add	r0, r1
	add	r1, sp, #60
	.loc	2 39 5                          @ ../User/App/Chassis_Task.c:39:5
	vmov.f32	s2, s3
	vmov.f32	s4, s5
	bl	PID_Init
	vldr	s0, [sp, #4]                    @ 4-byte Reload
	vldr	s1, [sp, #8]                    @ 4-byte Reload
	ldr	r3, [sp, #28]                   @ 4-byte Reload
	.loc	2 46 11 is_stmt 1               @ ../User/App/Chassis_Task.c:46:11
	movw	r2, :lower16:.L__const.MOTOR_PID_Chassis_INIT.PID_F_4
	movt	r2, :upper16:.L__const.MOTOR_PID_Chassis_INIT.PID_F_4
	ldr	r0, [r2]
	ldr	r1, [r2, #4]
	ldr	r2, [r2, #8]
	str	r2, [sp, #56]
	str	r1, [sp, #52]
	str	r0, [sp, #48]
	.loc	2 47 11                         @ ../User/App/Chassis_Task.c:47:11
	movw	r2, :lower16:.L__const.MOTOR_PID_Chassis_INIT.PID_S_4
	movt	r2, :upper16:.L__const.MOTOR_PID_Chassis_INIT.PID_S_4
	ldr	r0, [r2]
	ldr	r1, [r2, #4]
	ldr	r2, [r2, #8]
	str	r2, [sp, #44]
	str	r1, [sp, #40]
	str	r0, [sp, #36]
	.loc	2 48 23                         @ ../User/App/Chassis_Task.c:48:23
	ldr	r0, [sp, #132]
	movw	r1, #4680
	.loc	2 48 49 is_stmt 0               @ ../User/App/Chassis_Task.c:48:49
	add	r0, r1
	add	r1, sp, #48
	.loc	2 48 5                          @ ../User/App/Chassis_Task.c:48:5
	mov	r2, r3
	bl	Feedforward_Init
	vldr	s0, [sp, #12]                   @ 4-byte Reload
	vldr	s1, [sp, #16]                   @ 4-byte Reload
	vldr	s3, [sp, #20]                   @ 4-byte Reload
	vldr	s5, [sp, #24]                   @ 4-byte Reload
	ldr	r2, [sp, #28]                   @ 4-byte Reload
	ldr	r3, [sp, #32]                   @ 4-byte Reload
	.loc	2 50 15 is_stmt 1               @ ../User/App/Chassis_Task.c:50:15
	ldr	r0, [sp, #132]
	movw	r1, #4994
	.loc	2 50 41 is_stmt 0               @ ../User/App/Chassis_Task.c:50:41
	add	r0, r1
	add	r1, sp, #36
	.loc	2 50 5                          @ ../User/App/Chassis_Task.c:50:5
	vmov.f32	s2, s3
	vmov.f32	s4, s5
	bl	PID_Init
	movs	r0, #1
	.loc	2 57 5 is_stmt 1                @ ../User/App/Chassis_Task.c:57:5
	add	sp, #136
	pop	{r7, pc}
.Ltmp1:
	.p2align	2
@ %bb.1:
	.loc	2 0 5 is_stmt 0                 @ ../User/App/Chassis_Task.c:0:5
.LCPI0_0:
	.long	0x453b8000                      @ float 3000
.LCPI0_1:
	.long	0x45bb8000                      @ float 6000
.LCPI0_2:
	.long	0x44fa0000                      @ float 2000
.LCPI0_3:
	.long	0x447a0000                      @ float 1000
.LCPI0_4:
	.long	0x3f333333                      @ float 0.699999988
.Lfunc_end0:
	.size	MOTOR_PID_Chassis_INIT, .Lfunc_end0-MOTOR_PID_Chassis_INIT
	.cfi_endproc
	.cantunwind
	.fnend
                                        @ -- End function
	.section	.text.Chassis_AIM_INIT,"ax",%progbits
	.hidden	Chassis_AIM_INIT                @ -- Begin function Chassis_AIM_INIT
	.globl	Chassis_AIM_INIT
	.p2align	2
	.type	Chassis_AIM_INIT,%function
	.code	16                              @ @Chassis_AIM_INIT
	.thumb_func
Chassis_AIM_INIT:
.Lfunc_begin1:
	.loc	2 61 0 is_stmt 1                @ ../User/App/Chassis_Task.c:61:0
	.fnstart
	.cfi_startproc
@ %bb.0:
	.save	{r7, lr}
	push	{r7, lr}
	.cfi_def_cfa_offset 8
	.cfi_offset lr, -4
	.cfi_offset r7, -8
	.pad	#16
	sub	sp, #16
	.cfi_def_cfa_offset 24
	str	r0, [sp, #8]
	str	r1, [sp, #4]
.Ltmp2:
	.loc	2 63 9 prologue_end             @ ../User/App/Chassis_Task.c:63:9
	ldr	r0, [sp, #8]
	.loc	2 63 15 is_stmt 0               @ ../User/App/Chassis_Task.c:63:15
	ldrb	r0, [r0, #7]
	.loc	2 63 36                         @ ../User/App/Chassis_Task.c:63:36
	cbz	r0, .LBB1_4
	b	.LBB1_1
.LBB1_1:
	.loc	2 64 9 is_stmt 1                @ ../User/App/Chassis_Task.c:64:9
	ldr	r0, [sp, #8]
	.loc	2 64 15 is_stmt 0               @ ../User/App/Chassis_Task.c:64:15
	ldrb	r0, [r0, #8]
	.loc	2 64 36                         @ ../User/App/Chassis_Task.c:64:36
	cbz	r0, .LBB1_4
	b	.LBB1_2
.LBB1_2:
	.loc	2 65 9 is_stmt 1                @ ../User/App/Chassis_Task.c:65:9
	ldr	r0, [sp, #8]
	.loc	2 65 15 is_stmt 0               @ ../User/App/Chassis_Task.c:65:15
	ldrb	r0, [r0, #9]
	.loc	2 65 36                         @ ../User/App/Chassis_Task.c:65:36
	cbz	r0, .LBB1_4
	b	.LBB1_3
.LBB1_3:
	.loc	2 66 9 is_stmt 1                @ ../User/App/Chassis_Task.c:66:9
	ldr	r0, [sp, #8]
	.loc	2 66 15 is_stmt 0               @ ../User/App/Chassis_Task.c:66:15
	ldrb	r0, [r0, #10]
.Ltmp3:
	.loc	2 63 9 is_stmt 1                @ ../User/App/Chassis_Task.c:63:9
	cbnz	r0, .LBB1_5
	b	.LBB1_4
.LBB1_4:
	.loc	2 0 9 is_stmt 0                 @ ../User/App/Chassis_Task.c:0:9
	movs	r0, #0
.Ltmp4:
	.loc	2 67 9 is_stmt 1                @ ../User/App/Chassis_Task.c:67:9
	strb.w	r0, [sp, #15]
	b	.LBB1_6
.Ltmp5:
.LBB1_5:
	.loc	2 70 29                         @ ../User/App/Chassis_Task.c:70:29
	ldr	r0, [sp, #4]
	.loc	2 70 36 is_stmt 0               @ ../User/App/Chassis_Task.c:70:36
	add.w	r0, r0, #2928
	movs	r1, #1
	.loc	2 70 5                          @ ../User/App/Chassis_Task.c:70:5
	str	r1, [sp]                        @ 4-byte Spill
	bl	RUI_F_HEAD_MOTOR_CLEAR
	ldr	r1, [sp]                        @ 4-byte Reload
	.loc	2 71 29 is_stmt 1               @ ../User/App/Chassis_Task.c:71:29
	ldr	r0, [sp, #4]
	.loc	2 71 36 is_stmt 0               @ ../User/App/Chassis_Task.c:71:36
	add.w	r0, r0, #3488
	.loc	2 71 5                          @ ../User/App/Chassis_Task.c:71:5
	bl	RUI_F_HEAD_MOTOR_CLEAR
	ldr	r1, [sp]                        @ 4-byte Reload
	.loc	2 72 29 is_stmt 1               @ ../User/App/Chassis_Task.c:72:29
	ldr	r0, [sp, #4]
	.loc	2 72 36 is_stmt 0               @ ../User/App/Chassis_Task.c:72:36
	add.w	r0, r0, #4048
	.loc	2 72 5                          @ ../User/App/Chassis_Task.c:72:5
	bl	RUI_F_HEAD_MOTOR_CLEAR
	ldr	r1, [sp]                        @ 4-byte Reload
	.loc	2 73 29 is_stmt 1               @ ../User/App/Chassis_Task.c:73:29
	ldr	r0, [sp, #4]
	.loc	2 73 36 is_stmt 0               @ ../User/App/Chassis_Task.c:73:36
	add.w	r0, r0, #4608
	.loc	2 73 5                          @ ../User/App/Chassis_Task.c:73:5
	bl	RUI_F_HEAD_MOTOR_CLEAR
	ldr	r0, [sp]                        @ 4-byte Reload
	.loc	2 75 5 is_stmt 1                @ ../User/App/Chassis_Task.c:75:5
	strb.w	r0, [sp, #15]
	b	.LBB1_6
.LBB1_6:
	.loc	2 76 1                          @ ../User/App/Chassis_Task.c:76:1
	ldrb.w	r0, [sp, #15]
	add	sp, #16
	pop	{r7, pc}
.Ltmp6:
.Lfunc_end1:
	.size	Chassis_AIM_INIT, .Lfunc_end1-Chassis_AIM_INIT
	.cfi_endproc
	.cantunwind
	.fnend
                                        @ -- End function
	.section	.text.chassis_task,"ax",%progbits
	.hidden	chassis_task                    @ -- Begin function chassis_task
	.globl	chassis_task
	.p2align	2
	.type	chassis_task,%function
	.code	16                              @ @chassis_task
	.thumb_func
chassis_task:
.Lfunc_begin2:
	.loc	2 84 0                          @ ../User/App/Chassis_Task.c:84:0
	.fnstart
	.cfi_startproc
@ %bb.0:
	.save	{r7, lr}
	push	{r7, lr}
	.cfi_def_cfa_offset 8
	.cfi_offset lr, -4
	.cfi_offset r7, -8
	.pad	#56
	sub	sp, #56
	.cfi_def_cfa_offset 64
	ldr.w	r12, [sp, #68]
	ldr.w	r12, [sp, #64]
	str	r0, [sp, #48]
	str	r1, [sp, #44]
	str	r2, [sp, #40]
	str	r3, [sp, #36]
.Ltmp7:
	.loc	2 89 9 prologue_end             @ ../User/App/Chassis_Task.c:89:9
	movw	r0, :lower16:chassis_task.PID_INIT
	movt	r0, :upper16:chassis_task.PID_INIT
	ldrb	r0, [r0]
.Ltmp8:
	.loc	2 89 9 is_stmt 0                @ ../User/App/Chassis_Task.c:89:9
	cmp	r0, #1
	beq	.LBB2_2
	b	.LBB2_1
.LBB2_1:
.Ltmp9:
	.loc	2 91 43 is_stmt 1               @ ../User/App/Chassis_Task.c:91:43
	ldr	r0, [sp, #68]
	.loc	2 91 20 is_stmt 0               @ ../User/App/Chassis_Task.c:91:20
	bl	MOTOR_PID_Chassis_INIT
	.loc	2 91 18                         @ ../User/App/Chassis_Task.c:91:18
	movw	r1, :lower16:chassis_task.PID_INIT
	movt	r1, :upper16:chassis_task.PID_INIT
	strb	r0, [r1]
	movs	r0, #0
	.loc	2 92 9 is_stmt 1                @ ../User/App/Chassis_Task.c:92:9
	strb.w	r0, [sp, #55]
	b	.LBB2_7
.Ltmp10:
.LBB2_2:
	.loc	2 96 9                          @ ../User/App/Chassis_Task.c:96:9
	movw	r0, :lower16:chassis_task.AIM_INIT
	movt	r0, :upper16:chassis_task.AIM_INIT
	ldrb	r0, [r0]
.Ltmp11:
	.loc	2 96 9 is_stmt 0                @ ../User/App/Chassis_Task.c:96:9
	cmp	r0, #1
	beq	.LBB2_4
	b	.LBB2_3
.LBB2_3:
.Ltmp12:
	.loc	2 98 37 is_stmt 1               @ ../User/App/Chassis_Task.c:98:37
	ldr	r0, [sp, #44]
	.loc	2 98 43 is_stmt 0               @ ../User/App/Chassis_Task.c:98:43
	ldr	r1, [sp, #68]
	.loc	2 98 20                         @ ../User/App/Chassis_Task.c:98:20
	bl	Chassis_AIM_INIT
	.loc	2 98 18                         @ ../User/App/Chassis_Task.c:98:18
	movw	r1, :lower16:chassis_task.AIM_INIT
	movt	r1, :upper16:chassis_task.AIM_INIT
	strb	r0, [r1]
	movs	r0, #0
	.loc	2 99 9 is_stmt 1                @ ../User/App/Chassis_Task.c:99:9
	strb.w	r0, [sp, #55]
	b	.LBB2_7
.Ltmp13:
.LBB2_4:
	.loc	2 103 42                        @ ../User/App/Chassis_Task.c:103:42
	ldr	r0, [sp, #48]
	.loc	2 103 57 is_stmt 0              @ ../User/App/Chassis_Task.c:103:57
	ldr	r0, [r0, #12]
	.loc	2 103 5                         @ ../User/App/Chassis_Task.c:103:5
	ldr	r1, [sp, #68]
	.loc	2 103 40                        @ ../User/App/Chassis_Task.c:103:40
	str.w	r0, [r1, #2980]
	.loc	2 104 42 is_stmt 1              @ ../User/App/Chassis_Task.c:104:42
	ldr	r0, [sp, #48]
	.loc	2 104 57 is_stmt 0              @ ../User/App/Chassis_Task.c:104:57
	ldr	r0, [r0, #16]
	.loc	2 104 5                         @ ../User/App/Chassis_Task.c:104:5
	ldr	r1, [sp, #68]
	.loc	2 104 40                        @ ../User/App/Chassis_Task.c:104:40
	str.w	r0, [r1, #3540]
	.loc	2 105 42 is_stmt 1              @ ../User/App/Chassis_Task.c:105:42
	ldr	r0, [sp, #48]
	.loc	2 105 57 is_stmt 0              @ ../User/App/Chassis_Task.c:105:57
	ldr	r0, [r0, #20]
	.loc	2 105 5                         @ ../User/App/Chassis_Task.c:105:5
	ldr	r1, [sp, #68]
	movw	r2, #4100
	.loc	2 105 40                        @ ../User/App/Chassis_Task.c:105:40
	str	r0, [r1, r2]
	.loc	2 106 42 is_stmt 1              @ ../User/App/Chassis_Task.c:106:42
	ldr	r0, [sp, #48]
	.loc	2 106 57 is_stmt 0              @ ../User/App/Chassis_Task.c:106:57
	ldr	r0, [r0, #24]
	.loc	2 106 5                         @ ../User/App/Chassis_Task.c:106:5
	ldr	r1, [sp, #68]
	movw	r2, #4660
	.loc	2 106 40                        @ ../User/App/Chassis_Task.c:106:40
	str	r0, [r1, r2]
.Ltmp14:
	.loc	2 109 9 is_stmt 1               @ ../User/App/Chassis_Task.c:109:9
	ldr	r0, [sp, #44]
	.loc	2 109 15 is_stmt 0              @ ../User/App/Chassis_Task.c:109:15
	ldrb	r0, [r0]
.Ltmp15:
	.loc	2 109 8                         @ ../User/App/Chassis_Task.c:109:8
	cbnz	r0, .LBB2_6
	b	.LBB2_5
.LBB2_5:
.Ltmp16:
	.loc	2 111 9 is_stmt 1               @ ../User/App/Chassis_Task.c:111:9
	ldr	r1, [sp, #48]
	movs	r0, #0
	.loc	2 111 31 is_stmt 0              @ ../User/App/Chassis_Task.c:111:31
	str	r0, [r1, #12]
	.loc	2 112 9 is_stmt 1               @ ../User/App/Chassis_Task.c:112:9
	ldr	r1, [sp, #48]
	.loc	2 112 31 is_stmt 0              @ ../User/App/Chassis_Task.c:112:31
	str	r0, [r1, #16]
	.loc	2 113 9 is_stmt 1               @ ../User/App/Chassis_Task.c:113:9
	ldr	r1, [sp, #48]
	.loc	2 113 31 is_stmt 0              @ ../User/App/Chassis_Task.c:113:31
	str	r0, [r1, #20]
	.loc	2 114 9 is_stmt 1               @ ../User/App/Chassis_Task.c:114:9
	ldr	r1, [sp, #48]
	.loc	2 114 31 is_stmt 0              @ ../User/App/Chassis_Task.c:114:31
	str	r0, [r1, #24]
	.loc	2 116 18 is_stmt 1              @ ../User/App/Chassis_Task.c:116:18
	movw	r1, :lower16:chassis_task.PID_INIT
	movt	r1, :upper16:chassis_task.PID_INIT
	strb	r0, [r1]
	.loc	2 117 18                        @ ../User/App/Chassis_Task.c:117:18
	movw	r1, :lower16:chassis_task.AIM_INIT
	movt	r1, :upper16:chassis_task.AIM_INIT
	strb	r0, [r1]
	.loc	2 118 5                         @ ../User/App/Chassis_Task.c:118:5
	b	.LBB2_6
.Ltmp17:
.LBB2_6:
	.loc	2 121 33                        @ ../User/App/Chassis_Task.c:121:33
	ldr	r0, [sp, #68]
	.loc	2 121 40 is_stmt 0              @ ../User/App/Chassis_Task.c:121:40
	add.w	r0, r0, #2928
	vldr	s0, .LCPI2_0
	vstr	s0, [sp, #4]                    @ 4-byte Spill
	vmov.f32	s1, #1.000000e+01
	vstr	s1, [sp, #8]                    @ 4-byte Spill
	.loc	2 121 5                         @ ../User/App/Chassis_Task.c:121:5
	bl	RUI_F_HEAD_MOTOR3508_STUCK
	vldr	s0, [sp, #4]                    @ 4-byte Reload
	vldr	s1, [sp, #8]                    @ 4-byte Reload
	.loc	2 122 33 is_stmt 1              @ ../User/App/Chassis_Task.c:122:33
	ldr	r0, [sp, #68]
	.loc	2 122 40 is_stmt 0              @ ../User/App/Chassis_Task.c:122:40
	add.w	r0, r0, #3488
	.loc	2 122 5                         @ ../User/App/Chassis_Task.c:122:5
	bl	RUI_F_HEAD_MOTOR3508_STUCK
	vldr	s0, [sp, #4]                    @ 4-byte Reload
	vldr	s1, [sp, #8]                    @ 4-byte Reload
	.loc	2 123 33 is_stmt 1              @ ../User/App/Chassis_Task.c:123:33
	ldr	r0, [sp, #68]
	.loc	2 123 40 is_stmt 0              @ ../User/App/Chassis_Task.c:123:40
	add.w	r0, r0, #4048
	.loc	2 123 5                         @ ../User/App/Chassis_Task.c:123:5
	bl	RUI_F_HEAD_MOTOR3508_STUCK
	vldr	s0, [sp, #4]                    @ 4-byte Reload
	vldr	s1, [sp, #8]                    @ 4-byte Reload
	.loc	2 124 33 is_stmt 1              @ ../User/App/Chassis_Task.c:124:33
	ldr	r0, [sp, #68]
	.loc	2 124 40 is_stmt 0              @ ../User/App/Chassis_Task.c:124:40
	add.w	r0, r0, #4608
	.loc	2 124 5                         @ ../User/App/Chassis_Task.c:124:5
	bl	RUI_F_HEAD_MOTOR3508_STUCK
	.loc	2 127 28 is_stmt 1              @ ../User/App/Chassis_Task.c:127:28
	ldr	r1, [sp, #68]
	.loc	2 127 54 is_stmt 0              @ ../User/App/Chassis_Task.c:127:54
	addw	r0, r1, #3000
	.loc	2 128 58 is_stmt 1              @ ../User/App/Chassis_Task.c:128:58
	addw	r1, r1, #2980
	vldr	s0, [r1]
	.loc	2 127 5                         @ ../User/App/Chassis_Task.c:127:5
	bl	Feedforward_Calculate
	.loc	2 129 20                        @ ../User/App/Chassis_Task.c:129:20
	ldr	r1, [sp, #68]
	.loc	2 129 46 is_stmt 0              @ ../User/App/Chassis_Task.c:129:46
	addw	r0, r1, #3314
	.loc	2 130 57 is_stmt 1              @ ../User/App/Chassis_Task.c:130:57
	ldrsh.w	r2, [r1, #2944]
	.loc	2 130 19 is_stmt 0              @ ../User/App/Chassis_Task.c:130:19
	vmov	s0, r2
	vcvt.f32.s32	s0, s0
	.loc	2 131 50 is_stmt 1              @ ../User/App/Chassis_Task.c:131:50
	addw	r1, r1, #2980
	vldr	s1, [r1]
	.loc	2 129 5                         @ ../User/App/Chassis_Task.c:129:5
	bl	PID_Calculate
	.loc	2 134 28                        @ ../User/App/Chassis_Task.c:134:28
	ldr	r1, [sp, #68]
	.loc	2 134 54 is_stmt 0              @ ../User/App/Chassis_Task.c:134:54
	addw	r0, r1, #3560
	.loc	2 135 58 is_stmt 1              @ ../User/App/Chassis_Task.c:135:58
	addw	r1, r1, #3540
	vldr	s0, [r1]
	.loc	2 134 5                         @ ../User/App/Chassis_Task.c:134:5
	bl	Feedforward_Calculate
	.loc	2 136 20                        @ ../User/App/Chassis_Task.c:136:20
	ldr	r1, [sp, #68]
	.loc	2 136 46 is_stmt 0              @ ../User/App/Chassis_Task.c:136:46
	addw	r0, r1, #3874
	.loc	2 137 57 is_stmt 1              @ ../User/App/Chassis_Task.c:137:57
	ldrsh.w	r2, [r1, #3504]
	.loc	2 137 19 is_stmt 0              @ ../User/App/Chassis_Task.c:137:19
	vmov	s0, r2
	vcvt.f32.s32	s0, s0
	.loc	2 138 50 is_stmt 1              @ ../User/App/Chassis_Task.c:138:50
	addw	r1, r1, #3540
	vldr	s1, [r1]
	.loc	2 136 5                         @ ../User/App/Chassis_Task.c:136:5
	bl	PID_Calculate
	.loc	2 141 28                        @ ../User/App/Chassis_Task.c:141:28
	ldr	r1, [sp, #68]
	movw	r0, #4120
	.loc	2 141 54 is_stmt 0              @ ../User/App/Chassis_Task.c:141:54
	add	r0, r1
	movw	r2, #4100
	.loc	2 142 58 is_stmt 1              @ ../User/App/Chassis_Task.c:142:58
	str	r2, [sp, #12]                   @ 4-byte Spill
	add	r1, r2
	vldr	s0, [r1]
	.loc	2 141 5                         @ ../User/App/Chassis_Task.c:141:5
	bl	Feedforward_Calculate
	ldr	r2, [sp, #12]                   @ 4-byte Reload
	.loc	2 143 20                        @ ../User/App/Chassis_Task.c:143:20
	ldr	r1, [sp, #68]
	movw	r0, #4434
	.loc	2 143 46 is_stmt 0              @ ../User/App/Chassis_Task.c:143:46
	add	r0, r1
	.loc	2 144 57 is_stmt 1              @ ../User/App/Chassis_Task.c:144:57
	ldrsh.w	r3, [r1, #4064]
	.loc	2 144 19 is_stmt 0              @ ../User/App/Chassis_Task.c:144:19
	vmov	s0, r3
	vcvt.f32.s32	s0, s0
	.loc	2 145 50 is_stmt 1              @ ../User/App/Chassis_Task.c:145:50
	add	r1, r2
	vldr	s1, [r1]
	.loc	2 143 5                         @ ../User/App/Chassis_Task.c:143:5
	bl	PID_Calculate
	.loc	2 148 28                        @ ../User/App/Chassis_Task.c:148:28
	ldr	r1, [sp, #68]
	movw	r0, #4680
	.loc	2 148 54 is_stmt 0              @ ../User/App/Chassis_Task.c:148:54
	add	r0, r1
	movw	r2, #4660
	.loc	2 149 58 is_stmt 1              @ ../User/App/Chassis_Task.c:149:58
	str	r2, [sp, #16]                   @ 4-byte Spill
	add	r1, r2
	vldr	s0, [r1]
	.loc	2 148 5                         @ ../User/App/Chassis_Task.c:148:5
	bl	Feedforward_Calculate
	ldr	r2, [sp, #16]                   @ 4-byte Reload
	.loc	2 150 20                        @ ../User/App/Chassis_Task.c:150:20
	ldr	r1, [sp, #68]
	movw	r0, #4994
	.loc	2 150 46 is_stmt 0              @ ../User/App/Chassis_Task.c:150:46
	add	r0, r1
	movw	r3, #4624
	.loc	2 151 57 is_stmt 1              @ ../User/App/Chassis_Task.c:151:57
	ldrsh	r3, [r1, r3]
	.loc	2 151 19 is_stmt 0              @ ../User/App/Chassis_Task.c:151:19
	vmov	s0, r3
	vcvt.f32.s32	s0, s0
	.loc	2 152 50 is_stmt 1              @ ../User/App/Chassis_Task.c:152:50
	add	r1, r2
	vldr	s1, [r1]
	.loc	2 150 5                         @ ../User/App/Chassis_Task.c:150:5
	bl	PID_Calculate
	.loc	2 157 27                        @ ../User/App/Chassis_Task.c:157:27
	ldr	r0, [sp, #48]
	.loc	2 158 27                        @ ../User/App/Chassis_Task.c:158:27
	ldr	r1, [sp, #40]
	.loc	2 159 27                        @ ../User/App/Chassis_Task.c:159:27
	ldr	r2, [sp, #36]
	.loc	2 160 27                        @ ../User/App/Chassis_Task.c:160:27
	ldr	r3, [sp, #64]
	.loc	2 161 27                        @ ../User/App/Chassis_Task.c:161:27
	ldr.w	r12, [sp, #68]
	.loc	2 157 5                         @ ../User/App/Chassis_Task.c:157:5
	mov	lr, sp
	str.w	r12, [lr]
	bl	chassis_power_control
	.loc	2 166 16                        @ ../User/App/Chassis_Task.c:166:16
	ldr	r0, [sp, #68]
	.loc	2 166 48 is_stmt 0              @ ../User/App/Chassis_Task.c:166:48
	add.w	r1, r0, #3136
	vldr	s0, [r1]
	.loc	2 167 48 is_stmt 1              @ ../User/App/Chassis_Task.c:167:48
	ldr.w	r0, [r0, #3366]
	vmov	s2, r0
	.loc	2 166 55                        @ ../User/App/Chassis_Task.c:166:55
	vadd.f32	s0, s0, s2
	.loc	2 166 14 is_stmt 0              @ ../User/App/Chassis_Task.c:166:14
	vstr	s0, [sp, #20]
	.loc	2 169 16 is_stmt 1              @ ../User/App/Chassis_Task.c:169:16
	ldr	r0, [sp, #68]
	.loc	2 169 48 is_stmt 0              @ ../User/App/Chassis_Task.c:169:48
	add.w	r1, r0, #3696
	vldr	s0, [r1]
	.loc	2 170 48 is_stmt 1              @ ../User/App/Chassis_Task.c:170:48
	ldr.w	r0, [r0, #3926]
	vmov	s2, r0
	.loc	2 169 55                        @ ../User/App/Chassis_Task.c:169:55
	vadd.f32	s0, s0, s2
	.loc	2 169 14 is_stmt 0              @ ../User/App/Chassis_Task.c:169:14
	vstr	s0, [sp, #24]
	.loc	2 172 16 is_stmt 1              @ ../User/App/Chassis_Task.c:172:16
	ldr	r0, [sp, #68]
	.loc	2 172 48 is_stmt 0              @ ../User/App/Chassis_Task.c:172:48
	add.w	r1, r0, #4256
	vldr	s0, [r1]
	movw	r1, #4486
	.loc	2 173 48 is_stmt 1              @ ../User/App/Chassis_Task.c:173:48
	ldr	r0, [r0, r1]
	vmov	s2, r0
	.loc	2 172 55                        @ ../User/App/Chassis_Task.c:172:55
	vadd.f32	s0, s0, s2
	.loc	2 172 14 is_stmt 0              @ ../User/App/Chassis_Task.c:172:14
	vstr	s0, [sp, #28]
	.loc	2 175 16 is_stmt 1              @ ../User/App/Chassis_Task.c:175:16
	ldr	r0, [sp, #68]
	movw	r1, #4816
	.loc	2 175 48 is_stmt 0              @ ../User/App/Chassis_Task.c:175:48
	add	r1, r0
	vldr	s0, [r1]
	movw	r1, #5046
	.loc	2 176 48 is_stmt 1              @ ../User/App/Chassis_Task.c:176:48
	ldr	r0, [r0, r1]
	vmov	s2, r0
	.loc	2 175 55                        @ ../User/App/Chassis_Task.c:175:55
	vadd.f32	s0, s0, s2
	.loc	2 175 14 is_stmt 0              @ ../User/App/Chassis_Task.c:175:14
	vstr	s0, [sp, #32]
	movs	r0, #1
	.loc	2 186 5 is_stmt 1               @ ../User/App/Chassis_Task.c:186:5
	strb.w	r0, [sp, #55]
	b	.LBB2_7
.LBB2_7:
	.loc	2 187 1                         @ ../User/App/Chassis_Task.c:187:1
	ldrb.w	r0, [sp, #55]
	add	sp, #56
	pop	{r7, pc}
.Ltmp18:
	.p2align	2
@ %bb.8:
	.loc	2 0 1 is_stmt 0                 @ ../User/App/Chassis_Task.c:0:1
.LCPI2_0:
	.long	0x457a0000                      @ float 4000
.Lfunc_end2:
	.size	chassis_task, .Lfunc_end2-chassis_task
	.cfi_endproc
	.cantunwind
	.fnend
                                        @ -- End function
	.type	.L__const.MOTOR_PID_Chassis_INIT.PID_F_1,%object @ @__const.MOTOR_PID_Chassis_INIT.PID_F_1
	.section	.rodata..L__const.MOTOR_PID_Chassis_INIT.PID_F_1,"a",%progbits
	.p2align	2
.L__const.MOTOR_PID_Chassis_INIT.PID_F_1:
	.long	0x3f800000                      @ float 1
	.long	0x00000000                      @ float 0
	.long	0x00000000                      @ float 0
	.size	.L__const.MOTOR_PID_Chassis_INIT.PID_F_1, 12

	.type	.L__const.MOTOR_PID_Chassis_INIT.PID_S_1,%object @ @__const.MOTOR_PID_Chassis_INIT.PID_S_1
	.section	.rodata..L__const.MOTOR_PID_Chassis_INIT.PID_S_1,"a",%progbits
	.p2align	2
.L__const.MOTOR_PID_Chassis_INIT.PID_S_1:
	.long	0x3f800000                      @ float 1
	.long	0x00000000                      @ float 0
	.long	0x00000000                      @ float 0
	.size	.L__const.MOTOR_PID_Chassis_INIT.PID_S_1, 12

	.type	.L__const.MOTOR_PID_Chassis_INIT.PID_F_2,%object @ @__const.MOTOR_PID_Chassis_INIT.PID_F_2
	.section	.rodata..L__const.MOTOR_PID_Chassis_INIT.PID_F_2,"a",%progbits
	.p2align	2
.L__const.MOTOR_PID_Chassis_INIT.PID_F_2:
	.long	0x3f800000                      @ float 1
	.long	0x00000000                      @ float 0
	.long	0x00000000                      @ float 0
	.size	.L__const.MOTOR_PID_Chassis_INIT.PID_F_2, 12

	.type	.L__const.MOTOR_PID_Chassis_INIT.PID_S_2,%object @ @__const.MOTOR_PID_Chassis_INIT.PID_S_2
	.section	.rodata..L__const.MOTOR_PID_Chassis_INIT.PID_S_2,"a",%progbits
	.p2align	2
.L__const.MOTOR_PID_Chassis_INIT.PID_S_2:
	.long	0x3f800000                      @ float 1
	.long	0x00000000                      @ float 0
	.long	0x00000000                      @ float 0
	.size	.L__const.MOTOR_PID_Chassis_INIT.PID_S_2, 12

	.type	.L__const.MOTOR_PID_Chassis_INIT.PID_F_3,%object @ @__const.MOTOR_PID_Chassis_INIT.PID_F_3
	.section	.rodata..L__const.MOTOR_PID_Chassis_INIT.PID_F_3,"a",%progbits
	.p2align	2
.L__const.MOTOR_PID_Chassis_INIT.PID_F_3:
	.long	0x3f800000                      @ float 1
	.long	0x00000000                      @ float 0
	.long	0x00000000                      @ float 0
	.size	.L__const.MOTOR_PID_Chassis_INIT.PID_F_3, 12

	.type	.L__const.MOTOR_PID_Chassis_INIT.PID_S_3,%object @ @__const.MOTOR_PID_Chassis_INIT.PID_S_3
	.section	.rodata..L__const.MOTOR_PID_Chassis_INIT.PID_S_3,"a",%progbits
	.p2align	2
.L__const.MOTOR_PID_Chassis_INIT.PID_S_3:
	.long	0x3f800000                      @ float 1
	.long	0x00000000                      @ float 0
	.long	0x00000000                      @ float 0
	.size	.L__const.MOTOR_PID_Chassis_INIT.PID_S_3, 12

	.type	.L__const.MOTOR_PID_Chassis_INIT.PID_F_4,%object @ @__const.MOTOR_PID_Chassis_INIT.PID_F_4
	.section	.rodata..L__const.MOTOR_PID_Chassis_INIT.PID_F_4,"a",%progbits
	.p2align	2
.L__const.MOTOR_PID_Chassis_INIT.PID_F_4:
	.long	0x3f800000                      @ float 1
	.long	0x00000000                      @ float 0
	.long	0x00000000                      @ float 0
	.size	.L__const.MOTOR_PID_Chassis_INIT.PID_F_4, 12

	.type	.L__const.MOTOR_PID_Chassis_INIT.PID_S_4,%object @ @__const.MOTOR_PID_Chassis_INIT.PID_S_4
	.section	.rodata..L__const.MOTOR_PID_Chassis_INIT.PID_S_4,"a",%progbits
	.p2align	2
.L__const.MOTOR_PID_Chassis_INIT.PID_S_4:
	.long	0x3f800000                      @ float 1
	.long	0x00000000                      @ float 0
	.long	0x00000000                      @ float 0
	.size	.L__const.MOTOR_PID_Chassis_INIT.PID_S_4, 12

	.type	chassis_task.PID_INIT,%object   @ @chassis_task.PID_INIT
	.section	.bss.chassis_task.PID_INIT,"aw",%nobits
chassis_task.PID_INIT:
	.byte	0                               @ 0x0
	.size	chassis_task.PID_INIT, 1

	.type	chassis_task.AIM_INIT,%object   @ @chassis_task.AIM_INIT
	.section	.bss.chassis_task.AIM_INIT,"aw",%nobits
chassis_task.AIM_INIT:
	.byte	0                               @ 0x0
	.size	chassis_task.AIM_INIT, 1

	.file	4 "D:\\horizon\\Horizon_Infantry (2)\\MDK-ARM" "../User/Bsp/inc\\DJI_Motor.h"
	.file	5 "D:\\horizon\\Horizon_Infantry (2)\\MDK-ARM" "../User/Start/Inc\\Motors.h"
	.file	6 "D:\\horizon\\Horizon_Infantry (2)\\MDK-ARM" "../User/Algorithm/inc/user_lib.h"
	.file	7 "D:\\horizon\\Horizon_Infantry (2)\\MDK-ARM" "../User/Bsp/inc\\DM_Motor.h"
	.file	8 "D:\\horizon\\Horizon_Infantry (2)\\MDK-ARM" "../User/Bsp/inc\\Referee.h"
	.file	9 "D:\\horizon\\Horizon_Infantry (2)\\MDK-ARM" "../User/Algorithm/inc\\Power_Ctrl.h"
	.file	10 "D:\\horizon\\Horizon_Infantry (2)\\MDK-ARM" "../User/Bsp/inc\\Power_CAP.h"
	.section	".note.GNU-stack","",%progbits
	.eabi_attribute	30, 6	@ Tag_ABI_optimization_goals
	.ARM_attribute	16, 1	@ Tag_AV_eba