	.text
	.syntax unified
	.eabi_attribute	67, "2.09"	@ Tag_conformance
	.cpu	cortex-m4
	.eabi_attribute	6, 13	@ Tag_CPU_arch
	.eabi_attribute	7, 77	@ Tag_CPU_arch_profile
	.eabi_attribute	8, 0	@ Tag_ARM_ISA_use
	.eabi_attribute	9, 2	@ Tag_THUMB_ISA_use
	.fpu	fpv4-sp-d16
	.eabi_attribute	27, 1	@ Tag_ABI_HardFP_use
	.eabi_attribute	36, 1	@ Tag_FP_HP_extension
	.eabi_attribute	34, 1	@ Tag_CPU_unaligned_access
	.eabi_attribute	17, 1	@ Tag_ABI_PCS_GOT_use
	.eabi_attribute	20, 2	@ Tag_ABI_FP_denormal
	.eabi_attribute	21, 0	@ Tag_ABI_FP_exceptions
	.eabi_attribute	23, 1	@ Tag_ABI_FP_number_model
	.eabi_attribute	24, 1	@ Tag_ABI_align_needed
	.eabi_attribute	25, 1	@ Tag_ABI_align_preserved
	.eabi_attribute	28, 1	@ Tag_ABI_VFP_args
	.eabi_attribute	38, 1	@ Tag_ABI_FP_16bit_format
	.eabi_attribute	18, 2	@ Tag_ABI_PCS_wchar_t
	.eabi_attribute	26, 1	@ Tag_ABI_enum_size
	.eabi_attribute	14, 0	@ Tag_ABI_PCS_R9_use
	.file	"ComplexMathFunctions.c"
	.file	1 "D:\\horizon\\Horizon_Infantry (2)\\MDK-ARM" "../Middlewares/CMSIS/DSP/Inc\\arm_math_types.h"
	.file	2 "D:\\" "kevil\\ARM\\ARMCLANG\\Bin\\..\\include\\stdint.h"
	.section	.text.arm_cmplx_conj_f32,"ax",%progbits
	.hidden	arm_cmplx_conj_f32              @ -- Begin function arm_cmplx_conj_f32
	.globl	arm_cmplx_conj_f32
	.p2align	2
	.type	arm_cmplx_conj_f32,%function
	.code	16                              @ @arm_cmplx_conj_f32
	.thumb_func
arm_cmplx_conj_f32:
.Lfunc_begin0:
	.file	3 "D:\\horizon\\Horizon_Infantry (2)\\MDK-ARM" "../Middlewares/CMSIS/DSP/Src/ComplexMathFunctions/arm_cmplx_conj_f32.c"
	.loc	3 127 0                         @ ../Middlewares/CMSIS/DSP/Src/ComplexMathFunctions/arm_cmplx_conj_f32.c:127:0
	.fnstart
	.cfi_sections .debug_frame
	.cfi_startproc
@ %bb.0:
	.pad	#16
	sub	sp, #16
	.cfi_def_cfa_offset 16
	str	r0, [sp, #12]
	str	r1, [sp, #8]
	str	r2, [sp, #4]
.Ltmp0:
	.loc	3 191 12 prologue_end           @ ../Middlewares/CMSIS/DSP/Src/ComplexMathFunctions/arm_cmplx_conj_f32.c:191:12
	ldr	r0, [sp, #4]
	.loc	3 191 10 is_stmt 0              @ ../Middlewares/CMSIS/DSP/Src/ComplexMathFunctions/arm_cmplx_conj_f32.c:191:10
	str	r0, [sp]
	.loc	3 196 3 is_stmt 1               @ ../Middlewares/CMSIS/DSP/Src/ComplexMathFunctions/arm_cmplx_conj_f32.c:196:3
	b	.LBB0_1
.LBB0_1:                                @ =>This Inner Loop Header: Depth=1
	.loc	3 196 10 is_stmt 0              @ ../Middlewares/CMSIS/DSP/Src/ComplexMathFunctions/arm_cmplx_conj_f32.c:196:10
	ldr	r0, [sp]
	.loc	3 196 3                         @ ../Middlewares/CMSIS/DSP/Src/ComplexMathFunctions/arm_cmplx_conj_f32.c:196:3
	cbz	r0, .LBB0_3
	b	.LBB0_2
.LBB0_2:                                @   in Loop: Header=BB0_1 Depth=1
.Ltmp1:
	.loc	3 201 20 is_stmt 1              @ ../Middlewares/CMSIS/DSP/Src/ComplexMathFunctions/arm_cmplx_conj_f32.c:201:20
	ldr	r0, [sp, #12]
	adds	r1, r0, #4
	str	r1, [sp, #12]
	.loc	3 201 15 is_stmt 0              @ ../Middlewares/CMSIS/DSP/Src/ComplexMathFunctions/arm_cmplx_conj_f32.c:201:15
	ldr	r0, [r0]
	.loc	3 201 10                        @ ../Middlewares/CMSIS/DSP/Src/ComplexMathFunctions/arm_cmplx_conj_f32.c:201:10
	ldr	r1, [sp, #8]
	adds	r2, r1, #4
	str	r2, [sp, #8]
	.loc	3 201 13                        @ ../Middlewares/CMSIS/DSP/Src/ComplexMathFunctions/arm_cmplx_conj_f32.c:201:13
	str	r0, [r1]
	.loc	3 202 21 is_stmt 1              @ ../Middlewares/CMSIS/DSP/Src/ComplexMathFunctions/arm_cmplx_conj_f32.c:202:21
	ldr	r0, [sp, #12]
	adds	r1, r0, #4
	str	r1, [sp, #12]
	.loc	3 202 16 is_stmt 0              @ ../Middlewares/CMSIS/DSP/Src/ComplexMathFunctions/arm_cmplx_conj_f32.c:202:16
	vldr	s0, [r0]
	.loc	3 202 15                        @ ../Middlewares/CMSIS/DSP/Src/ComplexMathFunctions/arm_cmplx_conj_f32.c:202:15
	vneg.f32	s0, s0
	.loc	3 202 10                        @ ../Middlewares/CMSIS/DSP/Src/ComplexMathFunctions/arm_cmplx_conj_f32.c:202:10
	ldr	r0, [sp, #8]
	adds	r1, r0, #4
	str	r1, [sp, #8]
	.loc	3 202 13                        @ ../Middlewares/CMSIS/DSP/Src/ComplexMathFunctions/arm_cmplx_conj_f32.c:202:13
	vstr	s0, [r0]
	.loc	3 205 11 is_stmt 1              @ ../Middlewares/CMSIS/DSP/Src/ComplexMathFunctions/arm_cmplx_conj_f32.c:205:11
	ldr	r0, [sp]
	subs	r0, #1
	str	r0, [sp]
.Ltmp2:
	.loc	3 196 3                         @ ../Middlewares/CMSIS/DSP/Src/ComplexMathFunctions/arm_cmplx_conj_f32.c:196:3
	b	.LBB0_1
.LBB0_3:
	.loc	3 208 1                         @ ../Middlewares/CMSIS/DSP/Src/ComplexMathFunctions/arm_cmplx_conj_f32.c:208:1
	add	sp, #16
	bx	lr
.Ltmp3:
.Lfunc_end0:
	.size	arm_cmplx_conj_f32, .Lfunc_end0-arm_cmplx_conj_f32
	.cfi_endproc
	.cantunwind
	.fnend
                                        @ -- End function
	.section	.text.arm_cmplx_conj_q15,"ax",%progbits
	.hidden	arm_cmplx_conj_q15              @ -- Begin function arm_cmplx_conj_q15
	.globl	arm_cmplx_conj_q15
	.p2align	2
	.type	arm_cmplx_conj_q15,%function
	.code	16                              @ @arm_cmplx_conj_q15
	.thumb_func
arm_cmplx_conj_q15:
.Lfunc_begin1:
	.file	4 "D:\\horizon\\Horizon_Infantry (2)\\MDK-ARM" "../Middlewares/CMSIS/DSP/Src/ComplexMathFunctions/arm_cmplx_conj_q15.c"
	.loc	4 105 0                         @ ../Middlewares/CMSIS/DSP/Src/ComplexMathFunctions/arm_cmplx_conj_q15.c:105:0
	.fnstart
	.cfi_startproc
@ %bb.0:
	.pad	#20
	sub	sp, #20
	.cfi_def_cfa_offset 20
	str	r0, [sp, #16]
	str	r1, [sp, #12]
	str	r2, [sp, #8]
.Ltmp4:
	.loc	4 181 12 prologue_end           @ ../Middlewares/CMSIS/DSP/Src/ComplexMathFunctions/arm_cmplx_conj_q15.c:181:12
	ldr	r0, [sp, #8]
	.loc	4 181 10 is_stmt 0              @ ../Middlewares/CMSIS/DSP/Src/ComplexMathFunctions/arm_cmplx_conj_q15.c:181:10
	str	r0, [sp, #4]
	.loc	4 185 3 is_stmt 1               @ ../Middlewares/CMSIS/DSP/Src/ComplexMathFunctions/arm_cmplx_conj_q15.c:185:3
	b	.LBB1_1
.LBB1_1:                                @ =>This Inner Loop Header: Depth=1
	.loc	4 185 10 is_stmt 0              @ ../Middlewares/CMSIS/DSP/Src/ComplexMathFunctions/arm_cmplx_conj_q15.c:185:10
	ldr	r0, [sp, #4]
	.loc	4 185 3                         @ ../Middlewares/CMSIS/DSP/Src/ComplexMathFunctions/arm_cmplx_conj_q15.c:185:3
	cbz	r0, .LBB1_3
	b	.LBB1_2
.LBB1_2:                                @   in Loop: Header=BB1_1 Depth=1
.Ltmp5:
	.loc	4 190 20 is_stmt 1              @ ../Middlewares/CMSIS/DSP/Src/ComplexMathFunctions/arm_cmplx_conj_q15.c:190:20
	ldr	r0, [sp, #16]
	adds	r1, r0, #2
	str	r1, [sp, #16]
	.loc	4 190 15 is_stmt 0              @ ../Middlewares/CMSIS/DSP/Src/ComplexMathFunctions/arm_cmplx_conj_q15.c:190:15
	ldrh	r0, [r0]
	.loc	4 190 10                        @ ../Middlewares/CMSIS/DSP/Src/ComplexMathFunctions/arm_cmplx_conj_q15.c:190:10
	ldr	r1, [sp, #12]
	adds	r2, r1, #2
	str	r2, [sp, #12]
	.loc	4 190 13                        @ ../Middlewares/CMSIS/DSP/Src/ComplexMathFunctions/arm_cmplx_conj_q15.c:190:13
	strh	r0, [r1]
	.loc	4 191 16 is_stmt 1              @ ../Middlewares/CMSIS/DSP/Src/ComplexMathFunctions/arm_cmplx_conj_q15.c:191:16
	ldr	r0, [sp, #16]
	adds	r1, r0, #2
	str	r1, [sp, #16]
	.loc	4 191 11 is_stmt 0              @ ../Middlewares/CMSIS/DSP/Src/ComplexMathFunctions/arm_cmplx_conj_q15.c:191:11
	ldrsh.w	r0, [r0]
	.loc	4 191 9                         @ ../Middlewares/CMSIS/DSP/Src/ComplexMathFunctions/arm_cmplx_conj_q15.c:191:9
	str	r0, [sp]
	.loc	4 193 35 is_stmt 1              @ ../Middlewares/CMSIS/DSP/Src/ComplexMathFunctions/arm_cmplx_conj_q15.c:193:35
	ldr	r0, [sp]
	.loc	4 193 34 is_stmt 0              @ ../Middlewares/CMSIS/DSP/Src/ComplexMathFunctions/arm_cmplx_conj_q15.c:193:34
	rsbs	r0, r0, #0
	.loc	4 193 15                        @ ../Middlewares/CMSIS/DSP/Src/ComplexMathFunctions/arm_cmplx_conj_q15.c:193:15
	ssat	r0, #16, r0
	.loc	4 193 10                        @ ../Middlewares/CMSIS/DSP/Src/ComplexMathFunctions/arm_cmplx_conj_q15.c:193:10
	ldr	r1, [sp, #12]
	adds	r2, r1, #2
	str	r2, [sp, #12]
	.loc	4 193 13                        @ ../Middlewares/CMSIS/DSP/Src/ComplexMathFunctions/arm_cmplx_conj_q15.c:193:13
	strh	r0, [r1]
	.loc	4 199 11 is_stmt 1              @ ../Middlewares/CMSIS/DSP/Src/ComplexMathFunctions/arm_cmplx_conj_q15.c:199:11
	ldr	r0, [sp, #4]
	subs	r0, #1
	str	r0, [sp, #4]
.Ltmp6:
	.loc	4 185 3                         @ ../Middlewares/CMSIS/DSP/Src/ComplexMathFunctions/arm_cmplx_conj_q15.c:185:3
	b	.LBB1_1
.LBB1_3:
	.loc	4 202 1                         @ ../Middlewares/CMSIS/DSP/Src/ComplexMathFunctions/arm_cmplx_conj_q15.c:202:1
	add	sp, #20
	bx	lr
.Ltmp7:
.Lfunc_end1:
	.size	arm_cmplx_conj_q15, .Lfunc_end1-arm_cmplx_conj_q15
	.cfi_endproc
	.cantunwind
	.fnend
                                        @ -- End function
	.section	.text.arm_cmplx_conj_q31,"ax",%progbits
	.hidden	arm_cmplx_conj_q31              @ -- Begin function arm_cmplx_conj_q31
	.globl	arm_cmplx_conj_q31
	.p2align	2
	.type	arm_cmplx_conj_q31,%function
	.code	16                              @ @arm_cmplx_conj_q31
	.thumb_func
arm_cmplx_conj_q31:
.Lfunc_begin2:
	.file	5 "D:\\horizon\\Horizon_Infantry (2)\\MDK-ARM" "../Middlewares/CMSIS/DSP/Src/ComplexMathFunctions/arm_cmplx_conj_q31.c"
	.loc	5 111 0                         @ ../Middlewares/CMSIS/DSP/Src/ComplexMathFunctions/arm_cmplx_conj_q31.c:111:0
	.fnstart
	.cfi_startproc
@ %bb.0:
	.pad	#20
	sub	sp, #20
	.cfi_def_cfa_offset 20
	str	r0, [sp, #16]
	str	r1, [sp, #12]
	str	r2, [sp, #8]
.Ltmp8:
	.loc	5 167 12 prologue_end           @ ../Middlewares/CMSIS/DSP/Src/ComplexMathFunctions/arm_cmplx_conj_q31.c:167:12
	ldr	r0, [sp, #8]
	.loc	5 167 10 is_stmt 0              @ ../Middlewares/CMSIS/DSP/Src/ComplexMathFunctions/arm_cmplx_conj_q31.c:167:10
	str	r0, [sp, #4]
	.loc	5 171 3 is_stmt 1               @ ../Middlewares/CMSIS/DSP/Src/ComplexMathFunctions/arm_cmplx_conj_q31.c:171:3
	b	.LBB2_1
.LBB2_1:                                @ =>This Inner Loop Header: Depth=1
	.loc	5 171 10 is_stmt 0              @ ../Middlewares/CMSIS/DSP/Src/ComplexMathFunctions/arm_cmplx_conj_q31.c:171:10
	ldr	r0, [sp, #4]
	.loc	5 171 3                         @ ../Middlewares/CMSIS/DSP/Src/ComplexMathFunctions/arm_cmplx_conj_q31.c:171:3
	cbz	r0, .LBB2_3
	b	.LBB2_2
.LBB2_2:                                @   in Loop: Header=BB2_1 Depth=1
.Ltmp9:
	.loc	5 176 20 is_stmt 1              @ ../Middlewares/CMSIS/DSP/Src/ComplexMathFunctions/arm_cmplx_conj_q31.c:176:20
	ldr	r0, [sp, #16]
	adds	r1, r0, #4
	str	r1, [sp, #16]
	.loc	5 176 15 is_stmt 0              @ ../Middlewares/CMSIS/DSP/Src/ComplexMathFunctions/arm_cmplx_conj_q31.c:176:15
	ldr	r0, [r0]
	.loc	5 176 10                        @ ../Middlewares/CMSIS/DSP/Src/ComplexMathFunctions/arm_cmplx_conj_q31.c:176:10
	ldr	r1, [sp, #12]
	adds	r2, r1, #4
	str	r2, [sp, #12]
	.loc	5 176 13                        @ ../Middlewares/CMSIS/DSP/Src/ComplexMathFunctions/arm_cmplx_conj_q31.c:176:13
	str	r0, [r1]
	.loc	5 177 15 is_stmt 1              @ ../Middlewares/CMSIS/DSP/Src/ComplexMathFunctions/arm_cmplx_conj_q31.c:177:15
	ldr	r0, [sp, #16]
	adds	r1, r0, #4
	str	r1, [sp, #16]
	.loc	5 177 10 is_stmt 0              @ ../Middlewares/CMSIS/DSP/Src/ComplexMathFunctions/arm_cmplx_conj_q31.c:177:10
	ldr	r0, [r0]
	.loc	5 177 8                         @ ../Middlewares/CMSIS/DSP/Src/ComplexMathFunctions/arm_cmplx_conj_q31.c:177:8
	str	r0, [sp]
	.loc	5 179 37 is_stmt 1              @ ../Middlewares/CMSIS/DSP/Src/ComplexMathFunctions/arm_cmplx_conj_q31.c:179:37
	ldr	r1, [sp]
	movs	r0, #0
	.loc	5 179 15 is_stmt 0              @ ../Middlewares/CMSIS/DSP/Src/ComplexMathFunctions/arm_cmplx_conj_q31.c:179:15
	qsub	r0, r0, r1
	.loc	5 179 10                        @ ../Middlewares/CMSIS/DSP/Src/ComplexMathFunctions/arm_cmplx_conj_q31.c:179:10
	ldr	r1, [sp, #12]
	adds	r2, r1, #4
	str	r2, [sp, #12]
	.loc	5 179 13                        @ ../Middlewares/CMSIS/DSP/Src/ComplexMathFunctions/arm_cmplx_conj_q31.c:179:13
	str	r0, [r1]
	.loc	5 185 11 is_stmt 1              @ ../Middlewares/CMSIS/DSP/Src/ComplexMathFunctions/arm_cmplx_conj_q31.c:185:11
	ldr	r0, [sp, #4]
	subs	r0, #1
	str	r0, [sp, #4]
.Ltmp10:
	.loc	5 171 3                         @ ../Middlewares/CMSIS/DSP/Src/ComplexMathFunctions/arm_cmplx_conj_q31.c:171:3
	b	.LBB2_1
.LBB2_3:
	.loc	5 188 1                         @ ../Middlewares/CMSIS/DSP/Src/ComplexMathFunctions/arm_cmplx_conj_q31.c:188:1
	add	sp, #20
	bx	lr
.Ltmp11:
.Lfunc_end2:
	.size	arm_cmplx_conj_q31, .Lfunc_end2-arm_cmplx_conj_q31
	.cfi_endproc
	.cantunwind
	.fnend
                                        @ -- End function
	.section	.text.arm_cmplx_dot_prod_f32,"ax",%progbits
	.hidden	arm_cmplx_dot_prod_f32          @ -- Begin function arm_cmplx_dot_prod_f32
	.globl	arm_cmplx_dot_prod_f32
	.p2align	2
	.type	arm_cmplx_dot_prod_f32,%function
	.code	16                              @ @arm_cmplx_dot_prod_f32
	.thumb_func
arm_cmplx_dot_prod_f32:
.Lfunc_begin3:
	.file	6 "D:\\horizon\\Horizon_Infantry (2)\\MDK-ARM" "../Middlewares/CMSIS/DSP/Src/ComplexMathFunctions/arm_cmplx_dot_prod_f32.c"
	.loc	6 189 0                         @ ../Middlewares/CMSIS/DSP/Src/ComplexMathFunctions/arm_cmplx_dot_prod_f32.c:189:0
	.fnstart
	.cfi_startproc
@ %bb.0:
	.pad	#44
	sub	sp, #44
	.cfi_def_cfa_offset 44
	ldr.w	r12, [sp, #44]
	str	r0, [sp, #40]
	str	r1, [sp, #36]
	str	r2, [sp, #32]
	str	r3, [sp, #28]
	movs	r0, #0
.Ltmp12:
	.loc	6 191 19 prologue_end           @ ../Middlewares/CMSIS/DSP/Src/ComplexMathFunctions/arm_cmplx_dot_prod_f32.c:191:19
	str	r0, [sp, #20]
	.loc	6 191 36 is_stmt 0              @ ../Middlewares/CMSIS/DSP/Src/ComplexMathFunctions/arm_cmplx_dot_prod_f32.c:191:36
	str	r0, [sp, #16]
	.loc	6 311 12 is_stmt 1              @ ../Middlewares/CMSIS/DSP/Src/ComplexMathFunctions/arm_cmplx_dot_prod_f32.c:311:12
	ldr	r0, [sp, #32]
	.loc	6 311 10 is_stmt 0              @ ../Middlewares/CMSIS/DSP/Src/ComplexMathFunctions/arm_cmplx_dot_prod_f32.c:311:10
	str	r0, [sp, #24]
	.loc	6 316 3 is_stmt 1               @ ../Middlewares/CMSIS/DSP/Src/ComplexMathFunctions/arm_cmplx_dot_prod_f32.c:316:3
	b	.LBB3_1
.LBB3_1:                                @ =>This Inner Loop Header: Depth=1
	.loc	6 316 10 is_stmt 0              @ ../Middlewares/CMSIS/DSP/Src/ComplexMathFunctions/arm_cmplx_dot_prod_f32.c:316:10
	ldr	r0, [sp, #24]
	.loc	6 316 3                         @ ../Middlewares/CMSIS/DSP/Src/ComplexMathFunctions/arm_cmplx_dot_prod_f32.c:316:3
	cmp	r0, #0
	beq	.LBB3_3
	b	.LBB3_2
.LBB3_2:                                @   in Loop: Header=BB3_1 Depth=1
.Ltmp13:
	.loc	6 318 16 is_stmt 1              @ ../Middlewares/CMSIS/DSP/Src/ComplexMathFunctions/arm_cmplx_dot_prod_f32.c:318:16
	ldr	r0, [sp, #40]
	adds	r1, r0, #4
	str	r1, [sp, #40]
	.loc	6 318 10 is_stmt 0              @ ../Middlewares/CMSIS/DSP/Src/ComplexMathFunctions/arm_cmplx_dot_prod_f32.c:318:10
	ldr	r0, [r0]
	.loc	6 318 8                         @ ../Middlewares/CMSIS/DSP/Src/ComplexMathFunctions/arm_cmplx_dot_prod_f32.c:318:8
	str	r0, [sp, #12]
	.loc	6 319 16 is_stmt 1              @ ../Middlewares/CMSIS/DSP/Src/ComplexMathFunctions/arm_cmplx_dot_prod_f32.c:319:16
	ldr	r0, [sp, #40]
	adds	r1, r0, #4
	str	r1, [sp, #40]
	.loc	6 319 10 is_stmt 0              @ ../Middlewares/CMSIS/DSP/Src/ComplexMathFunctions/arm_cmplx_dot_prod_f32.c:319:10
	ldr	r0, [r0]
	.loc	6 319 8                         @ ../Middlewares/CMSIS/DSP/Src/ComplexMathFunctions/arm_cmplx_dot_prod_f32.c:319:8
	str	r0, [sp, #8]
	.loc	6 320 16 is_stmt 1              @ ../Middlewares/CMSIS/DSP/Src/ComplexMathFunctions/arm_cmplx_dot_prod_f32.c:320:16
	ldr	r0, [sp, #36]
	adds	r1, r0, #4
	str	r1, [sp, #36]
	.loc	6 320 10 is_stmt 0              @ ../Middlewares/CMSIS/DSP/Src/ComplexMathFunctions/arm_cmplx_dot_prod_f32.c:320:10
	ldr	r0, [r0]
	.loc	6 320 8                         @ ../Middlewares/CMSIS/DSP/Src/ComplexMathFunctions/arm_cmplx_dot_prod_f32.c:320:8
	str	r0, [sp, #4]
	.loc	6 321 16 is_stmt 1              @ ../Middlewares/CMSIS/DSP/Src/ComplexMathFunctions/arm_cmplx_dot_prod_f32.c:321:16
	ldr	r0, [sp, #36]
	adds	r1, r0, #4
	str	r1, [sp, #36]
	.loc	6 321 10 is_stmt 0              @ ../Middlewares/CMSIS/DSP/Src/ComplexMathFunctions/arm_cmplx_dot_prod_f32.c:321:10
	ldr	r0, [r0]
	.loc	6 321 8                         @ ../Middlewares/CMSIS/DSP/Src/ComplexMathFunctions/arm_cmplx_dot_prod_f32.c:321:8
	str	r0, [sp]
	.loc	6 323 17 is_stmt 1              @ ../Middlewares/CMSIS/DSP/Src/ComplexMathFunctions/arm_cmplx_dot_prod_f32.c:323:17
	vldr	s0, [sp, #12]
	.loc	6 323 22 is_stmt 0              @ ../Middlewares/CMSIS/DSP/Src/ComplexMathFunctions/arm_cmplx_dot_prod_f32.c:323:22
	vldr	s4, [sp, #4]
	.loc	6 323 14                        @ ../Middlewares/CMSIS/DSP/Src/ComplexMathFunctions/arm_cmplx_dot_prod_f32.c:323:14
	vldr	s2, [sp, #20]
	vmul.f32	s0, s0, s4
	vadd.f32	s0, s0, s2
	vstr	s0, [sp, #20]
	.loc	6 324 17 is_stmt 1              @ ../Middlewares/CMSIS/DSP/Src/ComplexMathFunctions/arm_cmplx_dot_prod_f32.c:324:17
	vldr	s0, [sp, #12]
	.loc	6 324 22 is_stmt 0              @ ../Middlewares/CMSIS/DSP/Src/ComplexMathFunctions/arm_cmplx_dot_prod_f32.c:324:22
	vldr	s4, [sp]
	.loc	6 324 14                        @ ../Middlewares/CMSIS/DSP/Src/ComplexMathFunctions/arm_cmplx_dot_prod_f32.c:324:14
	vldr	s2, [sp, #16]
	vmul.f32	s0, s0, s4
	vadd.f32	s0, s0, s2
	vstr	s0, [sp, #16]
	.loc	6 325 17 is_stmt 1              @ ../Middlewares/CMSIS/DSP/Src/ComplexMathFunctions/arm_cmplx_dot_prod_f32.c:325:17
	vldr	s2, [sp, #8]
	.loc	6 325 22 is_stmt 0              @ ../Middlewares/CMSIS/DSP/Src/ComplexMathFunctions/arm_cmplx_dot_prod_f32.c:325:22
	vldr	s4, [sp]
	.loc	6 325 14                        @ ../Middlewares/CMSIS/DSP/Src/ComplexMathFunctions/arm_cmplx_dot_prod_f32.c:325:14
	vldr	s0, [sp, #20]
	vmul.f32	s2, s2, s4
	vsub.f32	s0, s0, s2
	vstr	s0, [sp, #20]
	.loc	6 326 17 is_stmt 1              @ ../Middlewares/CMSIS/DSP/Src/ComplexMathFunctions/arm_cmplx_dot_prod_f32.c:326:17
	vldr	s0, [sp, #8]
	.loc	6 326 22 is_stmt 0              @ ../Middlewares/CMSIS/DSP/Src/ComplexMathFunctions/arm_cmplx_dot_prod_f32.c:326:22
	vldr	s4, [sp, #4]
	.loc	6 326 14                        @ ../Middlewares/CMSIS/DSP/Src/ComplexMathFunctions/arm_cmplx_dot_prod_f32.c:326:14
	vldr	s2, [sp, #16]
	vmul.f32	s0, s0, s4
	vadd.f32	s0, s0, s2
	vstr	s0, [sp, #16]
	.loc	6 329 11 is_stmt 1              @ ../Middlewares/CMSIS/DSP/Src/ComplexMathFunctions/arm_cmplx_dot_prod_f32.c:329:11
	ldr	r0, [sp, #24]
	subs	r0, #1
	str	r0, [sp, #24]
.Ltmp14:
	.loc	6 316 3                         @ ../Middlewares/CMSIS/DSP/Src/ComplexMathFunctions/arm_cmplx_dot_prod_f32.c:316:3
	b	.LBB3_1
.LBB3_3:
	.loc	6 333 17                        @ ../Middlewares/CMSIS/DSP/Src/ComplexMathFunctions/arm_cmplx_dot_prod_f32.c:333:17
	ldr	r0, [sp, #20]
	.loc	6 333 4 is_stmt 0               @ ../Middlewares/CMSIS/DSP/Src/ComplexMathFunctions/arm_cmplx_dot_prod_f32.c:333:4
	ldr	r1, [sp, #28]
	.loc	6 333 15                        @ ../Middlewares/CMSIS/DSP/Src/ComplexMathFunctions/arm_cmplx_dot_prod_f32.c:333:15
	str	r0, [r1]
	.loc	6 334 17 is_stmt 1              @ ../Middlewares/CMSIS/DSP/Src/ComplexMathFunctions/arm_cmplx_dot_prod_f32.c:334:17
	ldr	r0, [sp, #16]
	.loc	6 334 4 is_stmt 0               @ ../Middlewares/CMSIS/DSP/Src/ComplexMathFunctions/arm_cmplx_dot_prod_f32.c:334:4
	ldr	r1, [sp, #44]
	.loc	6 334 15                        @ ../Middlewares/CMSIS/DSP/Src/ComplexMathFunctions/arm_cmplx_dot_prod_f32.c:334:15
	str	r0, [r1]
	.loc	6 335 1 is_stmt 1               @ ../Middlewares/CMSIS/DSP/Src/ComplexMathFunctions/arm_cmplx_dot_prod_f32.c:335:1
	add	sp, #44
	bx	lr
.Ltmp15:
.Lfunc_end3:
	.size	arm_cmplx_dot_prod_f32, .Lfunc_end3-arm_cmplx_dot_prod_f32
	.cfi_endproc
	.cantunwind
	.fnend
                                        @ -- End function
	.section	.text.arm_cmplx_dot_prod_q15,"ax",%progbits
	.hidden	arm_cmplx_dot_prod_q15          @ -- Begin function arm_cmplx_dot_prod_q15
	.globl	arm_cmplx_dot_prod_q15
	.p2align	2
	.type	arm_cmplx_dot_prod_q15,%function
	.code	16                              @ @arm_cmplx_dot_prod_q15
	.thumb_func
arm_cmplx_dot_prod_q15:
.Lfunc_begin4:
	.file	7 "D:\\horizon\\Horizon_Infantry (2)\\MDK-ARM" "../Middlewares/CMSIS/DSP/Src/ComplexMathFunctions/arm_cmplx_dot_prod_q15.c"
	.loc	7 165 0                         @ ../Middlewares/CMSIS/DSP/Src/ComplexMathFunctions/arm_cmplx_dot_prod_q15.c:165:0
	.fnstart
	.cfi_startproc
@ %bb.0:
	.pad	#48
	sub	sp, #48
	.cfi_def_cfa_offset 48
	ldr.w	r12, [sp, #48]
	str	r0, [sp, #44]
	str	r1, [sp, #40]
	str	r2, [sp, #36]
	str	r3, [sp, #32]
	movs	r0, #0
.Ltmp16:
	.loc	7 167 15 prologue_end           @ ../Middlewares/CMSIS/DSP/Src/ComplexMathFunctions/arm_cmplx_dot_prod_q15.c:167:15
	str	r0, [sp, #20]
	str	r0, [sp, #16]
	.loc	7 167 29 is_stmt 0              @ ../Middlewares/CMSIS/DSP/Src/ComplexMathFunctions/arm_cmplx_dot_prod_q15.c:167:29
	str	r0, [sp, #12]
	str	r0, [sp, #8]
	.loc	7 226 12 is_stmt 1              @ ../Middlewares/CMSIS/DSP/Src/ComplexMathFunctions/arm_cmplx_dot_prod_q15.c:226:12
	ldr	r0, [sp, #36]
	.loc	7 226 10 is_stmt 0              @ ../Middlewares/CMSIS/DSP/Src/ComplexMathFunctions/arm_cmplx_dot_prod_q15.c:226:10
	str	r0, [sp, #28]
	.loc	7 230 3 is_stmt 1               @ ../Middlewares/CMSIS/DSP/Src/ComplexMathFunctions/arm_cmplx_dot_prod_q15.c:230:3
	b	.LBB4_1
.LBB4_1:                                @ =>This Inner Loop Header: Depth=1
	.loc	7 230 10 is_stmt 0              @ ../Middlewares/CMSIS/DSP/Src/ComplexMathFunctions/arm_cmplx_dot_prod_q15.c:230:10
	ldr	r0, [sp, #28]
	.loc	7 230 3                         @ ../Middlewares/CMSIS/DSP/Src/ComplexMathFunctions/arm_cmplx_dot_prod_q15.c:230:3
	cmp	r0, #0
	beq	.LBB4_3
	b	.LBB4_2
.LBB4_2:                                @   in Loop: Header=BB4_1 Depth=1
.Ltmp17:
	.loc	7 232 16 is_stmt 1              @ ../Middlewares/CMSIS/DSP/Src/ComplexMathFunctions/arm_cmplx_dot_prod_q15.c:232:16
	ldr	r0, [sp, #44]
	adds	r1, r0, #2
	str	r1, [sp, #44]
	.loc	7 232 10 is_stmt 0              @ ../Middlewares/CMSIS/DSP/Src/ComplexMathFunctions/arm_cmplx_dot_prod_q15.c:232:10
	ldrh	r0, [r0]
	.loc	7 232 8                         @ ../Middlewares/CMSIS/DSP/Src/ComplexMathFunctions/arm_cmplx_dot_prod_q15.c:232:8
	strh.w	r0, [sp, #6]
	.loc	7 233 16 is_stmt 1              @ ../Middlewares/CMSIS/DSP/Src/ComplexMathFunctions/arm_cmplx_dot_prod_q15.c:233:16
	ldr	r0, [sp, #44]
	adds	r1, r0, #2
	str	r1, [sp, #44]
	.loc	7 233 10 is_stmt 0              @ ../Middlewares/CMSIS/DSP/Src/ComplexMathFunctions/arm_cmplx_dot_prod_q15.c:233:10
	ldrh	r0, [r0]
	.loc	7 233 8                         @ ../Middlewares/CMSIS/DSP/Src/ComplexMathFunctions/arm_cmplx_dot_prod_q15.c:233:8
	strh.w	r0, [sp, #4]
	.loc	7 234 16 is_stmt 1              @ ../Middlewares/CMSIS/DSP/Src/ComplexMathFunctions/arm_cmplx_dot_prod_q15.c:234:16
	ldr	r0, [sp, #40]
	adds	r1, r0, #2
	str	r1, [sp, #40]
	.loc	7 234 10 is_stmt 0              @ ../Middlewares/CMSIS/DSP/Src/ComplexMathFunctions/arm_cmplx_dot_prod_q15.c:234:10
	ldrh	r0, [r0]
	.loc	7 234 8                         @ ../Middlewares/CMSIS/DSP/Src/ComplexMathFunctions/arm_cmplx_dot_prod_q15.c:234:8
	strh.w	r0, [sp, #2]
	.loc	7 235 16 is_stmt 1              @ ../Middlewares/CMSIS/DSP/Src/ComplexMathFunctions/arm_cmplx_dot_prod_q15.c:235:16
	ldr	r0, [sp, #40]
	adds	r1, r0, #2
	str	r1, [sp, #40]
	.loc	7 235 10 is_stmt 0              @ ../Middlewares/CMSIS/DSP/Src/ComplexMathFunctions/arm_cmplx_dot_prod_q15.c:235:10
	ldrh	r0, [r0]
	.loc	7 235 8                         @ ../Middlewares/CMSIS/DSP/Src/ComplexMathFunctions/arm_cmplx_dot_prod_q15.c:235:8
	strh.w	r0, [sp]
	.loc	7 237 24 is_stmt 1              @ ../Middlewares/CMSIS/DSP/Src/ComplexMathFunctions/arm_cmplx_dot_prod_q15.c:237:24
	ldrsh.w	r2, [sp, #6]
	.loc	7 237 29 is_stmt 0              @ ../Middlewares/CMSIS/DSP/Src/ComplexMathFunctions/arm_cmplx_dot_prod_q15.c:237:29
	ldrsh.w	r3, [sp, #2]
	.loc	7 237 14                        @ ../Middlewares/CMSIS/DSP/Src/ComplexMathFunctions/arm_cmplx_dot_prod_q15.c:237:14
	ldr	r0, [sp, #16]
	ldr	r1, [sp, #20]
	smlalbb	r0, r1, r2, r3
	str	r1, [sp, #20]
	str	r0, [sp, #16]
	.loc	7 238 24 is_stmt 1              @ ../Middlewares/CMSIS/DSP/Src/ComplexMathFunctions/arm_cmplx_dot_prod_q15.c:238:24
	ldrsh.w	r2, [sp, #6]
	.loc	7 238 29 is_stmt 0              @ ../Middlewares/CMSIS/DSP/Src/ComplexMathFunctions/arm_cmplx_dot_prod_q15.c:238:29
	ldrsh.w	r3, [sp]
	.loc	7 238 14                        @ ../Middlewares/CMSIS/DSP/Src/ComplexMathFunctions/arm_cmplx_dot_prod_q15.c:238:14
	ldr	r0, [sp, #8]
	ldr	r1, [sp, #12]
	smlalbb	r0, r1, r2, r3
	str	r1, [sp, #12]
	str	r0, [sp, #8]
	.loc	7 239 24 is_stmt 1              @ ../Middlewares/CMSIS/DSP/Src/ComplexMathFunctions/arm_cmplx_dot_prod_q15.c:239:24
	ldrsh.w	r0, [sp, #4]
	.loc	7 239 29 is_stmt 0              @ ../Middlewares/CMSIS/DSP/Src/ComplexMathFunctions/arm_cmplx_dot_prod_q15.c:239:29
	ldrsh.w	r1, [sp]
	.loc	7 239 27                        @ ../Middlewares/CMSIS/DSP/Src/ComplexMathFunctions/arm_cmplx_dot_prod_q15.c:239:27
	mul	r2, r0, r1
	.loc	7 239 14                        @ ../Middlewares/CMSIS/DSP/Src/ComplexMathFunctions/arm_cmplx_dot_prod_q15.c:239:14
	ldr	r1, [sp, #16]
	ldr	r0, [sp, #20]
	subs	r1, r1, r2
	sbc.w	r0, r0, r2, asr #31
	str	r1, [sp, #16]
	str	r0, [sp, #20]
	.loc	7 240 24 is_stmt 1              @ ../Middlewares/CMSIS/DSP/Src/ComplexMathFunctions/arm_cmplx_dot_prod_q15.c:240:24
	ldrsh.w	r2, [sp, #4]
	.loc	7 240 29 is_stmt 0              @ ../Middlewares/CMSIS/DSP/Src/ComplexMathFunctions/arm_cmplx_dot_prod_q15.c:240:29
	ldrsh.w	r3, [sp, #2]
	.loc	7 240 14                        @ ../Middlewares/CMSIS/DSP/Src/ComplexMathFunctions/arm_cmplx_dot_prod_q15.c:240:14
	ldr	r0, [sp, #8]
	ldr	r1, [sp, #12]
	smlalbb	r0, r1, r2, r3
	str	r1, [sp, #12]
	str	r0, [sp, #8]
	.loc	7 243 11 is_stmt 1              @ ../Middlewares/CMSIS/DSP/Src/ComplexMathFunctions/arm_cmplx_dot_prod_q15.c:243:11
	ldr	r0, [sp, #28]
	subs	r0, #1
	str	r0, [sp, #28]
.Ltmp18:
	.loc	7 230 3                         @ ../Middlewares/CMSIS/DSP/Src/ComplexMathFunctions/arm_cmplx_dot_prod_q15.c:230:3
	b	.LBB4_1
.LBB4_3:
	.loc	7 248 26                        @ ../Middlewares/CMSIS/DSP/Src/ComplexMathFunctions/arm_cmplx_dot_prod_q15.c:248:26
	ldr	r0, [sp, #16]
	ldr	r1, [sp, #20]
	.loc	7 248 35 is_stmt 0              @ ../Middlewares/CMSIS/DSP/Src/ComplexMathFunctions/arm_cmplx_dot_prod_q15.c:248:35
	lsrs	r0, r0, #6
	orr.w	r0, r0, r1, lsl #26
	.loc	7 248 4                         @ ../Middlewares/CMSIS/DSP/Src/ComplexMathFunctions/arm_cmplx_dot_prod_q15.c:248:4
	ldr	r1, [sp, #32]
	.loc	7 248 15                        @ ../Middlewares/CMSIS/DSP/Src/ComplexMathFunctions/arm_cmplx_dot_prod_q15.c:248:15
	str	r0, [r1]
	.loc	7 250 26 is_stmt 1              @ ../Middlewares/CMSIS/DSP/Src/ComplexMathFunctions/arm_cmplx_dot_prod_q15.c:250:26
	ldr	r0, [sp, #8]
	ldr	r1, [sp, #12]
	.loc	7 250 35 is_stmt 0              @ ../Middlewares/CMSIS/DSP/Src/ComplexMathFunctions/arm_cmplx_dot_prod_q15.c:250:35
	lsrs	r0, r0, #6
	orr.w	r0, r0, r1, lsl #26
	.loc	7 250 4                         @ ../Middlewares/CMSIS/DSP/Src/ComplexMathFunctions/arm_cmplx_dot_prod_q15.c:250:4
	ldr	r1, [sp, #48]
	.loc	7 250 15                        @ ../Middlewares/CMSIS/DSP/Src/ComplexMathFunctions/arm_cmplx_dot_prod_q15.c:250:15
	str	r0, [r1]
	.loc	7 251 1 is_stmt 1               @ ../Middlewares/CMSIS/DSP/Src/ComplexMathFunctions/arm_cmplx_dot_prod_q15.c:251:1
	add	sp, #48
	bx	lr
.Ltmp19:
.Lfunc_end4:
	.size	arm_cmplx_dot_prod_q15, .Lfunc_end4-arm_cmplx_dot_prod_q15
	.cfi_endproc
	.cantunwind
	.fnend
                                        @ -- End function
	.section	.text.arm_cmplx_dot_prod_q31,"ax",%progbits
	.hidden	arm_cmplx_dot_prod_q31          @ -- Begin function arm_cmplx_dot_prod_q31
	.globl	arm_cmplx_dot_prod_q31
	.p2align	2
	.type	arm_cmplx_dot_prod_q31,%function
	.code	16                              @ @arm_cmplx_dot_prod_q31
	.thumb_func
arm_cmplx_dot_prod_q31:
.Lfunc_begin5:
	.file	8 "D:\\horizon\\Horizon_Infantry (2)\\MDK-ARM" "../Middlewares/CMSIS/DSP/Src/ComplexMathFunctions/arm_cmplx_dot_prod_q31.c"
	.loc	8 169 0                         @ ../Middlewares/CMSIS/DSP/Src/ComplexMathFunctions/arm_cmplx_dot_prod_q31.c:169:0
	.fnstart
	.cfi_startproc
@ %bb.0:
	.pad	#56
	sub	sp, #56
	.cfi_def_cfa_offset 56
	ldr.w	r12, [sp, #56]
	str	r0, [sp, #52]
	str	r1, [sp, #48]
	str	r2, [sp, #44]
	str	r3, [sp, #40]
	movs	r0, #0
.Ltmp20:
	.loc	8 171 15 prologue_end           @ ../Middlewares/CMSIS/DSP/Src/ComplexMathFunctions/arm_cmplx_dot_prod_q31.c:171:15
	str	r0, [sp, #28]
	str	r0, [sp, #24]
	.loc	8 171 29 is_stmt 0              @ ../Middlewares/CMSIS/DSP/Src/ComplexMathFunctions/arm_cmplx_dot_prod_q31.c:171:29
	str	r0, [sp, #20]
	str	r0, [sp, #16]
	.loc	8 231 12 is_stmt 1              @ ../Middlewares/CMSIS/DSP/Src/ComplexMathFunctions/arm_cmplx_dot_prod_q31.c:231:12
	ldr	r0, [sp, #44]
	.loc	8 231 10 is_stmt 0              @ ../Middlewares/CMSIS/DSP/Src/ComplexMathFunctions/arm_cmplx_dot_prod_q31.c:231:10
	str	r0, [sp, #36]
	.loc	8 235 3 is_stmt 1               @ ../Middlewares/CMSIS/DSP/Src/ComplexMathFunctions/arm_cmplx_dot_prod_q31.c:235:3
	b	.LBB5_1
.LBB5_1:                                @ =>This Inner Loop Header: Depth=1
	.loc	8 235 10 is_stmt 0              @ ../Middlewares/CMSIS/DSP/Src/ComplexMathFunctions/arm_cmplx_dot_prod_q31.c:235:10
	ldr	r0, [sp, #36]
	.loc	8 235 3                         @ ../Middlewares/CMSIS/DSP/Src/ComplexMathFunctions/arm_cmplx_dot_prod_q31.c:235:3
	cmp	r0, #0
	beq	.LBB5_3
	b	.LBB5_2
.LBB5_2:                                @   in Loop: Header=BB5_1 Depth=1
.Ltmp21:
	.loc	8 237 16 is_stmt 1              @ ../Middlewares/CMSIS/DSP/Src/ComplexMathFunctions/arm_cmplx_dot_prod_q31.c:237:16
	ldr	r0, [sp, #52]
	adds	r1, r0, #4
	str	r1, [sp, #52]
	.loc	8 237 10 is_stmt 0              @ ../Middlewares/CMSIS/DSP/Src/ComplexMathFunctions/arm_cmplx_dot_prod_q31.c:237:10
	ldr	r0, [r0]
	.loc	8 237 8                         @ ../Middlewares/CMSIS/DSP/Src/ComplexMathFunctions/arm_cmplx_dot_prod_q31.c:237:8
	str	r0, [sp, #12]
	.loc	8 238 16 is_stmt 1              @ ../Middlewares/CMSIS/DSP/Src/ComplexMathFunctions/arm_cmplx_dot_prod_q31.c:238:16
	ldr	r0, [sp, #52]
	adds	r1, r0, #4
	str	r1, [sp, #52]
	.loc	8 238 10 is_stmt 0              @ ../Middlewares/CMSIS/DSP/Src/ComplexMathFunctions/arm_cmplx_dot_prod_q31.c:238:10
	ldr	r0, [r0]
	.loc	8 238 8                         @ ../Middlewares/CMSIS/DSP/Src/ComplexMathFunctions/arm_cmplx_dot_prod_q31.c:238:8
	str	r0, [sp, #8]
	.loc	8 239 16 is_stmt 1              @ ../Middlewares/CMSIS/DSP/Src/ComplexMathFunctions/arm_cmplx_dot_prod_q31.c:239:16
	ldr	r0, [sp, #48]
	adds	r1, r0, #4
	str	r1, [sp, #48]
	.loc	8 239 10 is_stmt 0              @ ../Middlewares/CMSIS/DSP/Src/ComplexMathFunctions/arm_cmplx_dot_prod_q31.c:239:10
	ldr	r0, [r0]
	.loc	8 239 8                         @ ../Middlewares/CMSIS/DSP/Src/ComplexMathFunctions/arm_cmplx_dot_prod_q31.c:239:8
	str	r0, [sp, #4]
	.loc	8 240 16 is_stmt 1              @ ../Middlewares/CMSIS/DSP/Src/ComplexMathFunctions/arm_cmplx_dot_prod_q31.c:240:16
	ldr	r0, [sp, #48]
	adds	r1, r0, #4
	str	r1, [sp, #48]
	.loc	8 240 10 is_stmt 0              @ ../Middlewares/CMSIS/DSP/Src/ComplexMathFunctions/arm_cmplx_dot_prod_q31.c:240:10
	ldr	r0, [r0]
	.loc	8 240 8                         @ ../Middlewares/CMSIS/DSP/Src/ComplexMathFunctions/arm_cmplx_dot_prod_q31.c:240:8
	str	r0, [sp]
	.loc	8 242 25 is_stmt 1              @ ../Middlewares/CMSIS/DSP/Src/ComplexMathFunctions/arm_cmplx_dot_prod_q31.c:242:25
	ldr	r0, [sp, #12]
	.loc	8 242 30 is_stmt 0              @ ../Middlewares/CMSIS/DSP/Src/ComplexMathFunctions/arm_cmplx_dot_prod_q31.c:242:30
	ldr	r1, [sp, #4]
	.loc	8 242 28                        @ ../Middlewares/CMSIS/DSP/Src/ComplexMathFunctions/arm_cmplx_dot_prod_q31.c:242:28
	smull	r0, r2, r0, r1
	.loc	8 242 34                        @ ../Middlewares/CMSIS/DSP/Src/ComplexMathFunctions/arm_cmplx_dot_prod_q31.c:242:34
	lsrs	r0, r0, #14
	orr.w	r3, r0, r2, lsl #18
	.loc	8 242 14                        @ ../Middlewares/CMSIS/DSP/Src/ComplexMathFunctions/arm_cmplx_dot_prod_q31.c:242:14
	ldr	r1, [sp, #24]
	ldr	r0, [sp, #28]
	adds	r1, r1, r3
	adc.w	r0, r0, r2, asr #14
	str	r1, [sp, #24]
	str	r0, [sp, #28]
	.loc	8 243 25 is_stmt 1              @ ../Middlewares/CMSIS/DSP/Src/ComplexMathFunctions/arm_cmplx_dot_prod_q31.c:243:25
	ldr	r0, [sp, #12]
	.loc	8 243 30 is_stmt 0              @ ../Middlewares/CMSIS/DSP/Src/ComplexMathFunctions/arm_cmplx_dot_prod_q31.c:243:30
	ldr	r1, [sp]
	.loc	8 243 28                        @ ../Middlewares/CMSIS/DSP/Src/ComplexMathFunctions/arm_cmplx_dot_prod_q31.c:243:28
	smull	r0, r2, r0, r1
	.loc	8 243 34                        @ ../Middlewares/CMSIS/DSP/Src/ComplexMathFunctions/arm_cmplx_dot_prod_q31.c:243:34
	lsrs	r0, r0, #14
	orr.w	r3, r0, r2, lsl #18
	.loc	8 243 14                        @ ../Middlewares/CMSIS/DSP/Src/ComplexMathFunctions/arm_cmplx_dot_prod_q31.c:243:14
	ldr	r1, [sp, #16]
	ldr	r0, [sp, #20]
	adds	r1, r1, r3
	adc.w	r0, r0, r2, asr #14
	str	r1, [sp, #16]
	str	r0, [sp, #20]
	.loc	8 244 25 is_stmt 1              @ ../Middlewares/CMSIS/DSP/Src/ComplexMathFunctions/arm_cmplx_dot_prod_q31.c:244:25
	ldr	r0, [sp, #8]
	.loc	8 244 30 is_stmt 0              @ ../Middlewares/CMSIS/DSP/Src/ComplexMathFunctions/arm_cmplx_dot_prod_q31.c:244:30
	ldr	r1, [sp]
	.loc	8 244 28                        @ ../Middlewares/CMSIS/DSP/Src/ComplexMathFunctions/arm_cmplx_dot_prod_q31.c:244:28
	smull	r0, r2, r0, r1
	.loc	8 244 34                        @ ../Middlewares/CMSIS/DSP/Src/ComplexMathFunctions/arm_cmplx_dot_prod_q31.c:244:34
	lsrs	r0, r0, #14
	orr.w	r3, r0, r2, lsl #18
	.loc	8 244 14                        @ ../Middlewares/CMSIS/DSP/Src/ComplexMathFunctions/arm_cmplx_dot_prod_q31.c:244:14
	ldr	r1, [sp, #24]
	ldr	r0, [sp, #28]
	subs	r1, r1, r3
	sbc.w	r0, r0, r2, asr #14
	str	r1, [sp, #24]
	str	r0, [sp, #28]
	.loc	8 245 25 is_stmt 1              @ ../Middlewares/CMSIS/DSP/Src/ComplexMathFunctions/arm_cmplx_dot_prod_q31.c:245:25
	ldr	r0, [sp, #8]
	.loc	8 245 30 is_stmt 0              @ ../Middlewares/CMSIS/DSP/Src/ComplexMathFunctions/arm_cmplx_dot_prod_q31.c:245:30
	ldr	r1, [sp, #4]
	.loc	8 245 28                        @ ../Middlewares/CMSIS/DSP/Src/ComplexMathFunctions/arm_cmplx_dot_prod_q31.c:245:28
	smull	r0, r2, r0, r1
	.loc	8 245 34                        @ ../Middlewares/CMSIS/DSP/Src/ComplexMathFunctions/arm_cmplx_dot_prod_q31.c:245:34
	lsrs	r0, r0, #14
	orr.w	r3, r0, r2, lsl #18
	.loc	8 245 14                        @ ../Middlewares/CMSIS/DSP/Src/ComplexMathFunctions/arm_cmplx_dot_prod_q31.c:245:14
	ldr	r1, [sp, #16]
	ldr	r0, [sp, #20]
	adds	r1, r1, r3
	adc.w	r0, r0, r2, asr #14
	str	r1, [sp, #16]
	str	r0, [sp, #20]
	.loc	8 248 11 is_stmt 1              @ ../Middlewares/CMSIS/DSP/Src/ComplexMathFunctions/arm_cmplx_dot_prod_q31.c:248:11
	ldr	r0, [sp, #36]
	subs	r0, #1
	str	r0, [sp, #36]
.Ltmp22:
	.loc	8 235 3                         @ ../Middlewares/CMSIS/DSP/Src/ComplexMathFunctions/arm_cmplx_dot_prod_q31.c:235:3
	b	.LBB5_1
.LBB5_3:
	.loc	8 252 17                        @ ../Middlewares/CMSIS/DSP/Src/ComplexMathFunctions/arm_cmplx_dot_prod_q31.c:252:17
	ldr	r0, [sp, #24]
	ldr	r2, [sp, #28]
	.loc	8 252 4 is_stmt 0               @ ../Middlewares/CMSIS/DSP/Src/ComplexMathFunctions/arm_cmplx_dot_prod_q31.c:252:4
	ldr	r1, [sp, #40]
	.loc	8 252 15                        @ ../Middlewares/CMSIS/DSP/Src/ComplexMathFunctions/arm_cmplx_dot_prod_q31.c:252:15
	str	r2, [r1, #4]
	str	r0, [r1]
	.loc	8 253 17 is_stmt 1              @ ../Middlewares/CMSIS/DSP/Src/ComplexMathFunctions/arm_cmplx_dot_prod_q31.c:253:17
	ldr	r0, [sp, #16]
	ldr	r2, [sp, #20]
	.loc	8 253 4 is_stmt 0               @ ../Middlewares/CMSIS/DSP/Src/ComplexMathFunctions/arm_cmplx_dot_prod_q31.c:253:4
	ldr	r1, [sp, #56]
	.loc	8 253 15                        @ ../Middlewares/CMSIS/DSP/Src/ComplexMathFunctions/arm_cmplx_dot_prod_q31.c:253:15
	str	r2, [r1, #4]
	str	r0, [r1]
	.loc	8 254 1 is_stmt 1               @ ../Middlewares/CMSIS/DSP/Src/ComplexMathFunctions/arm_cmplx_dot_prod_q31.c:254:1
	add	sp, #56
	bx	lr
.Ltmp23:
.Lfunc_end5:
	.size	arm_cmplx_dot_prod_q31, .Lfunc_end5-arm_cmplx_dot_prod_q31
	.cfi_endproc
	.cantunwind
	.fnend
                                        @ -- End function
	.section	.text.arm_cmplx_mag_f32,"ax",%progbits
	.hidden	arm_cmplx_mag_f32               @ -- Begin function arm_cmplx_mag_f32
	.globl	arm_cmplx_mag_f32
	.p2align	2
	.type	arm_cmplx_mag_f32,%function
	.code	16                              @ @arm_cmplx_mag_f32
	.thumb_func
arm_cmplx_mag_f32:
.Lfunc_begin6:
	.file	9 "D:\\horizon\\Horizon_Infantry (2)\\MDK-ARM" "../Middlewares/CMSIS/DSP/Src/ComplexMathFunctions/arm_cmplx_mag_f32.c"
	.loc	9 160 0                         @ ../Middlewares/CMSIS/DSP/Src/ComplexMathFunctions/arm_cmplx_mag_f32.c:160:0
	.fnstart
	.cfi_startproc
@ %bb.0:
	.save	{r7, lr}
	push	{r7, lr}
	.cfi_def_cfa_offset 8
	.cfi_offset lr, -4
	.cfi_offset r7, -8
	.pad	#40
	sub	sp, #40
	.cfi_def_cfa_offset 48
	str	r0, [sp, #24]
	str	r1, [sp, #20]
	str	r2, [sp, #16]
.Ltmp24:
	.loc	9 249 12 prologue_end           @ ../Middlewares/CMSIS/DSP/Src/ComplexMathFunctions/arm_cmplx_mag_f32.c:249:12
	ldr	r0, [sp, #16]
	.loc	9 249 10 is_stmt 0              @ ../Middlewares/CMSIS/DSP/Src/ComplexMathFunctions/arm_cmplx_mag_f32.c:249:10
	str	r0, [sp, #12]
	.loc	9 254 3 is_stmt 1               @ ../Middlewares/CMSIS/DSP/Src/ComplexMathFunctions/arm_cmplx_mag_f32.c:254:3
	b	.LBB6_1
.LBB6_1:                                @ =>This Inner Loop Header: Depth=1
	.loc	9 254 10 is_stmt 0              @ ../Middlewares/CMSIS/DSP/Src/ComplexMathFunctions/arm_cmplx_mag_f32.c:254:10
	ldr	r0, [sp, #12]
	.loc	9 254 3                         @ ../Middlewares/CMSIS/DSP/Src/ComplexMathFunctions/arm_cmplx_mag_f32.c:254:3
	cbz	r0, .LBB6_6
	b	.LBB6_2
.LBB6_2:                                @   in Loop: Header=BB6_1 Depth=1
.Ltmp25:
	.loc	9 258 17 is_stmt 1              @ ../Middlewares/CMSIS/DSP/Src/ComplexMathFunctions/arm_cmplx_mag_f32.c:258:17
	ldr	r0, [sp, #24]
	adds	r1, r0, #4
	str	r1, [sp, #24]
	.loc	9 258 12 is_stmt 0              @ ../Middlewares/CMSIS/DSP/Src/ComplexMathFunctions/arm_cmplx_mag_f32.c:258:12
	ldr	r0, [r0]
	.loc	9 258 10                        @ ../Middlewares/CMSIS/DSP/Src/ComplexMathFunctions/arm_cmplx_mag_f32.c:258:10
	str	r0, [sp, #8]
	.loc	9 259 17 is_stmt 1              @ ../Middlewares/CMSIS/DSP/Src/ComplexMathFunctions/arm_cmplx_mag_f32.c:259:17
	ldr	r0, [sp, #24]
	adds	r1, r0, #4
	str	r1, [sp, #24]
	.loc	9 259 12 is_stmt 0              @ ../Middlewares/CMSIS/DSP/Src/ComplexMathFunctions/arm_cmplx_mag_f32.c:259:12
	ldr	r0, [r0]
	.loc	9 259 10                        @ ../Middlewares/CMSIS/DSP/Src/ComplexMathFunctions/arm_cmplx_mag_f32.c:259:10
	str	r0, [sp, #4]
	.loc	9 262 19 is_stmt 1              @ ../Middlewares/CMSIS/DSP/Src/ComplexMathFunctions/arm_cmplx_mag_f32.c:262:19
	vldr	s0, [sp, #8]
	.loc	9 262 35 is_stmt 0              @ ../Middlewares/CMSIS/DSP/Src/ComplexMathFunctions/arm_cmplx_mag_f32.c:262:35
	vldr	s2, [sp, #4]
	.loc	9 262 40                        @ ../Middlewares/CMSIS/DSP/Src/ComplexMathFunctions/arm_cmplx_mag_f32.c:262:40
	vmul.f32	s2, s2, s2
	.loc	9 262 32                        @ ../Middlewares/CMSIS/DSP/Src/ComplexMathFunctions/arm_cmplx_mag_f32.c:262:32
	vmul.f32	s0, s0, s0
	vadd.f32	s0, s0, s2
	.loc	9 262 53                        @ ../Middlewares/CMSIS/DSP/Src/ComplexMathFunctions/arm_cmplx_mag_f32.c:262:53
	ldr	r0, [sp, #20]
	adds	r1, r0, #4
	str	r1, [sp, #20]
	vstr	s0, [sp, #32]
	str	r0, [sp, #28]
.Ltmp26:
	.file	10 "D:\\horizon\\Horizon_Infantry (2)\\MDK-ARM" "../Middlewares/CMSIS/DSP/Inc\\dsp/fast_math_functions.h"
	.loc	10 244 9 is_stmt 1              @ ../Middlewares/CMSIS/DSP/Inc\dsp/fast_math_functions.h:244:9
	vldr	s0, [sp, #32]
.Ltmp27:
	.loc	10 244 9 is_stmt 0              @ ../Middlewares/CMSIS/DSP/Inc\dsp/fast_math_functions.h:244:9
	vcmp.f32	s0, #0
	vmrs	APSR_nzcv, fpscr
	blt	.LBB6_4
	b	.LBB6_3
.LBB6_3:                                @   in Loop: Header=BB6_1 Depth=1
.Ltmp28:
	.loc	10 261 22 is_stmt 1             @ ../Middlewares/CMSIS/DSP/Inc\dsp/fast_math_functions.h:261:22
	vldr	s0, [sp, #32]
	.loc	10 261 15 is_stmt 0             @ ../Middlewares/CMSIS/DSP/Inc\dsp/fast_math_functions.h:261:15
	bl	_sqrtf
	.loc	10 261 8                        @ ../Middlewares/CMSIS/DSP/Inc\dsp/fast_math_functions.h:261:8
	ldr	r0, [sp, #28]
	.loc	10 261 13                       @ ../Middlewares/CMSIS/DSP/Inc\dsp/fast_math_functions.h:261:13
	vstr	s0, [r0]
	movs	r0, #0
	.loc	10 274 7 is_stmt 1              @ ../Middlewares/CMSIS/DSP/Inc\dsp/fast_math_functions.h:274:7
	strb.w	r0, [sp, #39]
	b	.LBB6_5
.Ltmp29:
.LBB6_4:                                @   in Loop: Header=BB6_1 Depth=1
	.loc	10 278 8                        @ ../Middlewares/CMSIS/DSP/Inc\dsp/fast_math_functions.h:278:8
	ldr	r1, [sp, #28]
	movs	r0, #0
	.loc	10 278 13 is_stmt 0             @ ../Middlewares/CMSIS/DSP/Inc\dsp/fast_math_functions.h:278:13
	str	r0, [r1]
	movs	r0, #255
	.loc	10 279 7 is_stmt 1              @ ../Middlewares/CMSIS/DSP/Inc\dsp/fast_math_functions.h:279:7
	strb.w	r0, [sp, #39]
	b	.LBB6_5
.Ltmp30:
.LBB6_5:                                @ %arm_sqrt_f32.exit
                                        @   in Loop: Header=BB6_1 Depth=1
	.loc	9 265 11                        @ ../Middlewares/CMSIS/DSP/Src/ComplexMathFunctions/arm_cmplx_mag_f32.c:265:11
	ldr	r0, [sp, #12]
	subs	r0, #1
	str	r0, [sp, #12]
.Ltmp31:
	.loc	9 254 3                         @ ../Middlewares/CMSIS/DSP/Src/ComplexMathFunctions/arm_cmplx_mag_f32.c:254:3
	b	.LBB6_1
.LBB6_6:
	.loc	9 268 1                         @ ../Middlewares/CMSIS/DSP/Src/ComplexMathFunctions/arm_cmplx_mag_f32.c:268:1
	add	sp, #40
	pop	{r7, pc}
.Ltmp32:
.Lfunc_end6:
	.size	arm_cmplx_mag_f32, .Lfunc_end6-arm_cmplx_mag_f32
	.cfi_endproc
	.cantunwind
	.fnend
                                        @ -- End function
	.section	.text.arm_cmplx_mag_f64,"ax",%progbits
	.hidden	arm_cmplx_mag_f64               @ -- Begin function arm_cmplx_mag_f64
	.globl	arm_cmplx_mag_f64
	.p2align	2
	.type	arm_cmplx_mag_f64,%function
	.code	16                              @ @arm_cmplx_mag_f64
	.thumb_func
arm_cmplx_mag_f64:
.Lfunc_begin7:
	.file	11 "D:\\horizon\\Horizon_Infantry (2)\\MDK-ARM" "../Middlewares/CMSIS/DSP/Src/ComplexMathFunctions/arm_cmplx_mag_f64.c"
	.loc	11 53 0                         @ ../Middlewares/CMSIS/DSP/Src/ComplexMathFunctions/arm_cmplx_mag_f64.c:53:0
	.fnstart
	.cfi_startproc
@ %bb.0:
	.save	{r7, lr}
	push	{r7, lr}
	.cfi_def_cfa_offset 8
	.cfi_offset lr, -4
	.cfi_offset r7, -8
	.pad	#48
	sub	sp, #48
	.cfi_def_cfa_offset 56
	str	r0, [sp, #44]
	str	r1, [sp, #40]
	str	r2, [sp, #36]
.Ltmp33:
	.loc	11 58 12 prologue_end           @ ../Middlewares/CMSIS/DSP/Src/ComplexMathFunctions/arm_cmplx_mag_f64.c:58:12
	ldr	r0, [sp, #36]
	.loc	11 58 10 is_stmt 0              @ ../Middlewares/CMSIS/DSP/Src/ComplexMathFunctions/arm_cmplx_mag_f64.c:58:10
	str	r0, [sp, #32]
	.loc	11 60 3 is_stmt 1               @ ../Middlewares/CMSIS/DSP/Src/ComplexMathFunctions/arm_cmplx_mag_f64.c:60:3
	b	.LBB7_1
.LBB7_1:                                @ =>This Inner Loop Header: Depth=1
	.loc	11 60 10 is_stmt 0              @ ../Middlewares/CMSIS/DSP/Src/ComplexMathFunctions/arm_cmplx_mag_f64.c:60:10
	ldr	r0, [sp, #32]
	.loc	11 60 3                         @ ../Middlewares/CMSIS/DSP/Src/ComplexMathFunctions/arm_cmplx_mag_f64.c:60:3
	cmp	r0, #0
	beq	.LBB7_3
	b	.LBB7_2
.LBB7_2:                                @   in Loop: Header=BB7_1 Depth=1
.Ltmp34:
	.loc	11 64 17 is_stmt 1              @ ../Middlewares/CMSIS/DSP/Src/ComplexMathFunctions/arm_cmplx_mag_f64.c:64:17
	ldr	r0, [sp, #44]
	add.w	r1, r0, #8
	str	r1, [sp, #44]
	.loc	11 64 12 is_stmt 0              @ ../Middlewares/CMSIS/DSP/Src/ComplexMathFunctions/arm_cmplx_mag_f64.c:64:12
	vldr	d0, [r0]
	.loc	11 64 10                        @ ../Middlewares/CMSIS/DSP/Src/ComplexMathFunctions/arm_cmplx_mag_f64.c:64:10
	vstr	d0, [sp, #24]
	.loc	11 65 17 is_stmt 1              @ ../Middlewares/CMSIS/DSP/Src/ComplexMathFunctions/arm_cmplx_mag_f64.c:65:17
	ldr	r0, [sp, #44]
	add.w	r1, r0, #8
	str	r1, [sp, #44]
	.loc	11 65 12 is_stmt 0              @ ../Middlewares/CMSIS/DSP/Src/ComplexMathFunctions/arm_cmplx_mag_f64.c:65:12
	vldr	d0, [r0]
	.loc	11 65 10                        @ ../Middlewares/CMSIS/DSP/Src/ComplexMathFunctions/arm_cmplx_mag_f64.c:65:10
	vstr	d0, [sp, #16]
	.loc	11 68 21 is_stmt 1              @ ../Middlewares/CMSIS/DSP/Src/ComplexMathFunctions/arm_cmplx_mag_f64.c:68:21
	vldr	d0, [sp, #24]
	vstr	d0, [sp]                        @ 8-byte Spill
	.loc	11 68 37 is_stmt 0              @ ../Middlewares/CMSIS/DSP/Src/ComplexMathFunctions/arm_cmplx_mag_f64.c:68:37
	vldr	d0, [sp, #16]
	.loc	11 68 42                        @ ../Middlewares/CMSIS/DSP/Src/ComplexMathFunctions/arm_cmplx_mag_f64.c:68:42
	vmov	r2, r3, d0
	mov	r0, r2
	mov	r1, r3
	bl	__aeabi_dmul
	vldr	d0, [sp]                        @ 8-byte Reload
	vmov	d1, r0, r1
	vstr	d1, [sp, #8]                    @ 8-byte Spill
	.loc	11 68 34                        @ ../Middlewares/CMSIS/DSP/Src/ComplexMathFunctions/arm_cmplx_mag_f64.c:68:34
	vmov	r2, r3, d0
	mov	r0, r2
	mov	r1, r3
	bl	__aeabi_dmul
	vldr	d0, [sp, #8]                    @ 8-byte Reload
	vmov	d1, r0, r1
	vmov	r0, r1, d1
	vmov	r2, r3, d0
	bl	__aeabi_dadd
	vmov	d0, r0, r1
	.loc	11 68 15                        @ ../Middlewares/CMSIS/DSP/Src/ComplexMathFunctions/arm_cmplx_mag_f64.c:68:15
	bl	__hardfp_sqrt
	.loc	11 68 10                        @ ../Middlewares/CMSIS/DSP/Src/ComplexMathFunctions/arm_cmplx_mag_f64.c:68:10
	ldr	r0, [sp, #40]
	add.w	r1, r0, #8
	str	r1, [sp, #40]
	.loc	11 68 13                        @ ../Middlewares/CMSIS/DSP/Src/ComplexMathFunctions/arm_cmplx_mag_f64.c:68:13
	vstr	d0, [r0]
	.loc	11 71 11 is_stmt 1              @ ../Middlewares/CMSIS/DSP/Src/ComplexMathFunctions/arm_cmplx_mag_f64.c:71:11
	ldr	r0, [sp, #32]
	subs	r0, #1
	str	r0, [sp, #32]
.Ltmp35:
	.loc	11 60 3                         @ ../Middlewares/CMSIS/DSP/Src/ComplexMathFunctions/arm_cmplx_mag_f64.c:60:3
	b	.LBB7_1
.LBB7_3:
	.loc	11 74 1                         @ ../Middlewares/CMSIS/DSP/Src/ComplexMathFunctions/arm_cmplx_mag_f64.c:74:1
	add	sp, #48
	pop	{r7, pc}
.Ltmp36:
.Lfunc_end7:
	.size	arm_cmplx_mag_f64, .Lfunc_end7-arm_cmplx_mag_f64
	.cfi_endproc
	.cantunwind
	.fnend
                                        @ -- End function
	.section	.text.arm_cmplx_mag_q15,"ax",%progbits
	.hidden	arm_cmplx_mag_q15               @ -- Begin function arm_cmplx_mag_q15
	.globl	arm_cmplx_mag_q15
	.p2align	2
	.type	arm_cmplx_mag_q15,%function
	.code	16                              @ @arm_cmplx_mag_q15
	.thumb_func
arm_cmplx_mag_q15:
.Lfunc_begin8:
	.file	12 "D:\\horizon\\Horizon_Infantry (2)\\MDK-ARM" "../Middlewares/CMSIS/DSP/Src/ComplexMathFunctions/arm_cmplx_mag_q15.c"
	.loc	12 148 0                        @ ../Middlewares/CMSIS/DSP/Src/ComplexMathFunctions/arm_cmplx_mag_q15.c:148:0
	.fnstart
	.cfi_startproc
@ %bb.0:
	.save	{r7, lr}
	push	{r7, lr}
	.cfi_def_cfa_offset 8
	.cfi_offset lr, -4
	.cfi_offset r7, -8
	.pad	#40
	sub	sp, #40
	.cfi_def_cfa_offset 48
	str	r0, [sp, #28]
	str	r1, [sp, #24]
	str	r2, [sp, #20]
.Ltmp37:
	.loc	12 232 12 prologue_end          @ ../Middlewares/CMSIS/DSP/Src/ComplexMathFunctions/arm_cmplx_mag_q15.c:232:12
	ldr	r0, [sp, #20]
	.loc	12 232 10 is_stmt 0             @ ../Middlewares/CMSIS/DSP/Src/ComplexMathFunctions/arm_cmplx_mag_q15.c:232:10
	str	r0, [sp, #12]
	.loc	12 236 3 is_stmt 1              @ ../Middlewares/CMSIS/DSP/Src/ComplexMathFunctions/arm_cmplx_mag_q15.c:236:3
	b	.LBB8_1
.LBB8_1:                                @ =>This Inner Loop Header: Depth=1
	.loc	12 236 10 is_stmt 0             @ ../Middlewares/CMSIS/DSP/Src/ComplexMathFunctions/arm_cmplx_mag_q15.c:236:10
	ldr	r0, [sp, #12]
	.loc	12 236 3                        @ ../Middlewares/CMSIS/DSP/Src/ComplexMathFunctions/arm_cmplx_mag_q15.c:236:3
	cbz	r0, .LBB8_3
	b	.LBB8_2
.LBB8_2:                                @   in Loop: Header=BB8_1 Depth=1
.Ltmp38:
	.loc	12 241 31 is_stmt 1             @ ../Middlewares/CMSIS/DSP/Src/ComplexMathFunctions/arm_cmplx_mag_q15.c:241:31
	ldr	r0, [sp, #28]
	adds	r1, r0, #4
	str	r1, [sp, #28]
	str	r0, [sp, #36]
.Ltmp39:
	.file	13 "D:\\horizon\\Horizon_Infantry (2)\\MDK-ARM" "../Middlewares/CMSIS/DSP/Inc\\arm_math_memory.h"
	.loc	13 82 17                        @ ../Middlewares/CMSIS/DSP/Inc\arm_math_memory.h:82:17
	ldr	r0, [sp, #36]
	.loc	13 82 3 is_stmt 0               @ ../Middlewares/CMSIS/DSP/Inc\arm_math_memory.h:82:3
	ldr	r0, [r0]
	str	r0, [sp, #32]
	.loc	13 87 11 is_stmt 1              @ ../Middlewares/CMSIS/DSP/Inc\arm_math_memory.h:87:11
	ldr	r0, [sp, #32]
.Ltmp40:
	.loc	12 241 8                        @ ../Middlewares/CMSIS/DSP/Src/ComplexMathFunctions/arm_cmplx_mag_q15.c:241:8
	str	r0, [sp, #8]
	.loc	12 242 32                       @ ../Middlewares/CMSIS/DSP/Src/ComplexMathFunctions/arm_cmplx_mag_q15.c:242:32
	ldr	r0, [sp, #8]
	.loc	12 242 12 is_stmt 0             @ ../Middlewares/CMSIS/DSP/Src/ComplexMathFunctions/arm_cmplx_mag_q15.c:242:12
	smuad	r0, r0, r0
	.loc	12 242 10                       @ ../Middlewares/CMSIS/DSP/Src/ComplexMathFunctions/arm_cmplx_mag_q15.c:242:10
	str	r0, [sp, #4]
	.loc	12 244 28 is_stmt 1             @ ../Middlewares/CMSIS/DSP/Src/ComplexMathFunctions/arm_cmplx_mag_q15.c:244:28
	ldr	r0, [sp, #4]
	.loc	12 244 33 is_stmt 0             @ ../Middlewares/CMSIS/DSP/Src/ComplexMathFunctions/arm_cmplx_mag_q15.c:244:33
	lsrs	r0, r0, #1
	add	r1, sp, #16
	.loc	12 244 5                        @ ../Middlewares/CMSIS/DSP/Src/ComplexMathFunctions/arm_cmplx_mag_q15.c:244:5
	bl	arm_sqrt_q31
	.loc	12 245 15 is_stmt 1             @ ../Middlewares/CMSIS/DSP/Src/ComplexMathFunctions/arm_cmplx_mag_q15.c:245:15
	ldrh.w	r0, [sp, #18]
	.loc	12 245 10 is_stmt 0             @ ../Middlewares/CMSIS/DSP/Src/ComplexMathFunctions/arm_cmplx_mag_q15.c:245:10
	ldr	r1, [sp, #24]
	adds	r2, r1, #2
	str	r2, [sp, #24]
	.loc	12 245 13                       @ ../Middlewares/CMSIS/DSP/Src/ComplexMathFunctions/arm_cmplx_mag_q15.c:245:13
	strh	r0, [r1]
	.loc	12 259 11 is_stmt 1             @ ../Middlewares/CMSIS/DSP/Src/ComplexMathFunctions/arm_cmplx_mag_q15.c:259:11
	ldr	r0, [sp, #12]
	subs	r0, #1
	str	r0, [sp, #12]
.Ltmp41:
	.loc	12 236 3                        @ ../Middlewares/CMSIS/DSP/Src/ComplexMathFunctions/arm_cmplx_mag_q15.c:236:3
	b	.LBB8_1
.LBB8_3:
	.loc	12 262 1                        @ ../Middlewares/CMSIS/DSP/Src/ComplexMathFunctions/arm_cmplx_mag_q15.c:262:1
	add	sp, #40
	pop	{r7, pc}
.Ltmp42:
.Lfunc_end8:
	.size	arm_cmplx_mag_q15, .Lfunc_end8-arm_cmplx_mag_q15
	.cfi_endproc
	.cantunwind
	.fnend
                                        @ -- End function
	.section	.text.arm_cmplx_mag_fast_q15,"ax",%progbits
	.hidden	arm_cmplx_mag_fast_q15          @ -- Begin function arm_cmplx_mag_fast_q15
	.globl	arm_cmplx_mag_fast_q15
	.p2align	2
	.type	arm_cmplx_mag_fast_q15,%function
	.code	16                              @ @arm_cmplx_mag_fast_q15
	.thumb_func
arm_cmplx_mag_fast_q15:
.Lfunc_begin9:
	.file	14 "D:\\horizon\\Horizon_Infantry (2)\\MDK-ARM" "../Middlewares/CMSIS/DSP/Src/ComplexMathFunctions/arm_cmplx_mag_fast_q15.c"
	.loc	14 115 0                        @ ../Middlewares/CMSIS/DSP/Src/ComplexMathFunctions/arm_cmplx_mag_fast_q15.c:115:0
	.fnstart
	.cfi_startproc
@ %bb.0:
	.save	{r7, lr}
	push	{r7, lr}
	.cfi_def_cfa_offset 8
	.cfi_offset lr, -4
	.cfi_offset r7, -8
	.pad	#32
	sub	sp, #32
	.cfi_def_cfa_offset 40
	str	r0, [sp, #20]
	str	r1, [sp, #16]
	str	r2, [sp, #12]
.Ltmp43:
	.loc	14 190 12 prologue_end          @ ../Middlewares/CMSIS/DSP/Src/ComplexMathFunctions/arm_cmplx_mag_fast_q15.c:190:12
	ldr	r0, [sp, #12]
	.loc	14 190 10 is_stmt 0             @ ../Middlewares/CMSIS/DSP/Src/ComplexMathFunctions/arm_cmplx_mag_fast_q15.c:190:10
	str	r0, [sp, #8]
	.loc	14 194 3 is_stmt 1              @ ../Middlewares/CMSIS/DSP/Src/ComplexMathFunctions/arm_cmplx_mag_fast_q15.c:194:3
	b	.LBB9_1
.LBB9_1:                                @ =>This Inner Loop Header: Depth=1
	.loc	14 194 10 is_stmt 0             @ ../Middlewares/CMSIS/DSP/Src/ComplexMathFunctions/arm_cmplx_mag_fast_q15.c:194:10
	ldr	r0, [sp, #8]
	.loc	14 194 3                        @ ../Middlewares/CMSIS/DSP/Src/ComplexMathFunctions/arm_cmplx_mag_fast_q15.c:194:3
	cbz	r0, .LBB9_3
	b	.LBB9_2
.LBB9_2:                                @   in Loop: Header=BB9_1 Depth=1
.Ltmp44:
	.loc	14 199 31 is_stmt 1             @ ../Middlewares/CMSIS/DSP/Src/ComplexMathFunctions/arm_cmplx_mag_fast_q15.c:199:31
	ldr	r0, [sp, #20]
	adds	r1, r0, #4
	str	r1, [sp, #20]
	str	r0, [sp, #28]
.Ltmp45:
	.loc	13 82 17                        @ ../Middlewares/CMSIS/DSP/Inc\arm_math_memory.h:82:17
	ldr	r0, [sp, #28]
	.loc	13 82 3 is_stmt 0               @ ../Middlewares/CMSIS/DSP/Inc\arm_math_memory.h:82:3
	ldr	r0, [r0]
	str	r0, [sp, #24]
	.loc	13 87 11 is_stmt 1              @ ../Middlewares/CMSIS/DSP/Inc\arm_math_memory.h:87:11
	ldr	r0, [sp, #24]
.Ltmp46:
	.loc	14 199 8                        @ ../Middlewares/CMSIS/DSP/Src/ComplexMathFunctions/arm_cmplx_mag_fast_q15.c:199:8
	str	r0, [sp, #4]
	.loc	14 200 32                       @ ../Middlewares/CMSIS/DSP/Src/ComplexMathFunctions/arm_cmplx_mag_fast_q15.c:200:32
	ldr	r0, [sp, #4]
	.loc	14 200 12 is_stmt 0             @ ../Middlewares/CMSIS/DSP/Src/ComplexMathFunctions/arm_cmplx_mag_fast_q15.c:200:12
	smuad	r0, r0, r0
	.loc	14 200 10                       @ ../Middlewares/CMSIS/DSP/Src/ComplexMathFunctions/arm_cmplx_mag_fast_q15.c:200:10
	str	r0, [sp]
	.loc	14 203 27 is_stmt 1             @ ../Middlewares/CMSIS/DSP/Src/ComplexMathFunctions/arm_cmplx_mag_fast_q15.c:203:27
	ldr	r0, [sp]
	.loc	14 203 32 is_stmt 0             @ ../Middlewares/CMSIS/DSP/Src/ComplexMathFunctions/arm_cmplx_mag_fast_q15.c:203:32
	asrs	r0, r0, #17
	.loc	14 203 44                       @ ../Middlewares/CMSIS/DSP/Src/ComplexMathFunctions/arm_cmplx_mag_fast_q15.c:203:44
	ldr	r1, [sp, #16]
	adds	r2, r1, #2
	str	r2, [sp, #16]
	.loc	14 203 5                        @ ../Middlewares/CMSIS/DSP/Src/ComplexMathFunctions/arm_cmplx_mag_fast_q15.c:203:5
	bl	arm_sqrt_q15
	.loc	14 215 11 is_stmt 1             @ ../Middlewares/CMSIS/DSP/Src/ComplexMathFunctions/arm_cmplx_mag_fast_q15.c:215:11
	ldr	r0, [sp, #8]
	subs	r0, #1
	str	r0, [sp, #8]
.Ltmp47:
	.loc	14 194 3                        @ ../Middlewares/CMSIS/DSP/Src/ComplexMathFunctions/arm_cmplx_mag_fast_q15.c:194:3
	b	.LBB9_1
.LBB9_3:
	.loc	14 218 1                        @ ../Middlewares/CMSIS/DSP/Src/ComplexMathFunctions/arm_cmplx_mag_fast_q15.c:218:1
	add	sp, #32
	pop	{r7, pc}
.Ltmp48:
.Lfunc_end9:
	.size	arm_cmplx_mag_fast_q15, .Lfunc_end9-arm_cmplx_mag_fast_q15
	.cfi_endproc
	.cantunwind
	.fnend
                                        @ -- End function
	.section	.text.arm_cmplx_mag_q31,"ax",%progbits
	.hidden	arm_cmplx_mag_q31               @ -- Begin function arm_cmplx_mag_q31
	.globl	arm_cmplx_mag_q31
	.p2align	2
	.type	arm_cmplx_mag_q31,%function
	.code	16                              @ @arm_cmplx_mag_q31
	.thumb_func
arm_cmplx_mag_q31:
.Lfunc_begin10:
	.file	15 "D:\\horizon\\Horizon_Infantry (2)\\MDK-ARM" "../Middlewares/CMSIS/DSP/Src/ComplexMathFunctions/arm_cmplx_mag_q31.c"
	.loc	15 126 0                        @ ../Middlewares/CMSIS/DSP/Src/ComplexMathFunctions/arm_cmplx_mag_q31.c:126:0
	.fnstart
	.cfi_startproc
@ %bb.0:
	.save	{r7, lr}
	push	{r7, lr}
	.cfi_def_cfa_offset 8
	.cfi_offset lr, -4
	.cfi_offset r7, -8
	.pad	#32
	sub	sp, #32
	.cfi_def_cfa_offset 40
	str	r0, [sp, #28]
	str	r1, [sp, #24]
	str	r2, [sp, #20]
.Ltmp49:
	.loc	15 176 12 prologue_end          @ ../Middlewares/CMSIS/DSP/Src/ComplexMathFunctions/arm_cmplx_mag_q31.c:176:12
	ldr	r0, [sp, #20]
	.loc	15 176 10 is_stmt 0             @ ../Middlewares/CMSIS/DSP/Src/ComplexMathFunctions/arm_cmplx_mag_q31.c:176:10
	str	r0, [sp, #16]
	.loc	15 180 3 is_stmt 1              @ ../Middlewares/CMSIS/DSP/Src/ComplexMathFunctions/arm_cmplx_mag_q31.c:180:3
	b	.LBB10_1
.LBB10_1:                               @ =>This Inner Loop Header: Depth=1
	.loc	15 180 10 is_stmt 0             @ ../Middlewares/CMSIS/DSP/Src/ComplexMathFunctions/arm_cmplx_mag_q31.c:180:10
	ldr	r0, [sp, #16]
	.loc	15 180 3                        @ ../Middlewares/CMSIS/DSP/Src/ComplexMathFunctions/arm_cmplx_mag_q31.c:180:3
	cbz	r0, .LBB10_3
	b	.LBB10_2
.LBB10_2:                               @   in Loop: Header=BB10_1 Depth=1
.Ltmp50:
	.loc	15 184 17 is_stmt 1             @ ../Middlewares/CMSIS/DSP/Src/ComplexMathFunctions/arm_cmplx_mag_q31.c:184:17
	ldr	r0, [sp, #28]
	adds	r1, r0, #4
	str	r1, [sp, #28]
	.loc	15 184 12 is_stmt 0             @ ../Middlewares/CMSIS/DSP/Src/ComplexMathFunctions/arm_cmplx_mag_q31.c:184:12
	ldr	r0, [r0]
	.loc	15 184 10                       @ ../Middlewares/CMSIS/DSP/Src/ComplexMathFunctions/arm_cmplx_mag_q31.c:184:10
	str	r0, [sp, #12]
	.loc	15 185 17 is_stmt 1             @ ../Middlewares/CMSIS/DSP/Src/ComplexMathFunctions/arm_cmplx_mag_q31.c:185:17
	ldr	r0, [sp, #28]
	adds	r1, r0, #4
	str	r1, [sp, #28]
	.loc	15 185 12 is_stmt 0             @ ../Middlewares/CMSIS/DSP/Src/ComplexMathFunctions/arm_cmplx_mag_q31.c:185:12
	ldr	r0, [r0]
	.loc	15 185 10                       @ ../Middlewares/CMSIS/DSP/Src/ComplexMathFunctions/arm_cmplx_mag_q31.c:185:10
	str	r0, [sp, #8]
	.loc	15 186 30 is_stmt 1             @ ../Middlewares/CMSIS/DSP/Src/ComplexMathFunctions/arm_cmplx_mag_q31.c:186:30
	ldr	r0, [sp, #12]
	.loc	15 186 35 is_stmt 0             @ ../Middlewares/CMSIS/DSP/Src/ComplexMathFunctions/arm_cmplx_mag_q31.c:186:35
	smmul	r0, r0, r0
	.loc	15 186 43                       @ ../Middlewares/CMSIS/DSP/Src/ComplexMathFunctions/arm_cmplx_mag_q31.c:186:43
	asrs	r0, r0, #1
	.loc	15 186 10                       @ ../Middlewares/CMSIS/DSP/Src/ComplexMathFunctions/arm_cmplx_mag_q31.c:186:10
	str	r0, [sp, #4]
	.loc	15 187 30 is_stmt 1             @ ../Middlewares/CMSIS/DSP/Src/ComplexMathFunctions/arm_cmplx_mag_q31.c:187:30
	ldr	r0, [sp, #8]
	.loc	15 187 35 is_stmt 0             @ ../Middlewares/CMSIS/DSP/Src/ComplexMathFunctions/arm_cmplx_mag_q31.c:187:35
	smmul	r0, r0, r0
	.loc	15 187 43                       @ ../Middlewares/CMSIS/DSP/Src/ComplexMathFunctions/arm_cmplx_mag_q31.c:187:43
	asrs	r0, r0, #1
	.loc	15 187 10                       @ ../Middlewares/CMSIS/DSP/Src/ComplexMathFunctions/arm_cmplx_mag_q31.c:187:10
	str	r0, [sp]
	.loc	15 190 18 is_stmt 1             @ ../Middlewares/CMSIS/DSP/Src/ComplexMathFunctions/arm_cmplx_mag_q31.c:190:18
	ldr	r0, [sp, #4]
	.loc	15 190 25 is_stmt 0             @ ../Middlewares/CMSIS/DSP/Src/ComplexMathFunctions/arm_cmplx_mag_q31.c:190:25
	ldr	r1, [sp]
	.loc	15 190 23                       @ ../Middlewares/CMSIS/DSP/Src/ComplexMathFunctions/arm_cmplx_mag_q31.c:190:23
	add	r0, r1
	.loc	15 190 35                       @ ../Middlewares/CMSIS/DSP/Src/ComplexMathFunctions/arm_cmplx_mag_q31.c:190:35
	ldr	r1, [sp, #24]
	adds	r2, r1, #4
	str	r2, [sp, #24]
	.loc	15 190 5                        @ ../Middlewares/CMSIS/DSP/Src/ComplexMathFunctions/arm_cmplx_mag_q31.c:190:5
	bl	arm_sqrt_q31
	.loc	15 193 11 is_stmt 1             @ ../Middlewares/CMSIS/DSP/Src/ComplexMathFunctions/arm_cmplx_mag_q31.c:193:11
	ldr	r0, [sp, #16]
	subs	r0, #1
	str	r0, [sp, #16]
.Ltmp51:
	.loc	15 180 3                        @ ../Middlewares/CMSIS/DSP/Src/ComplexMathFunctions/arm_cmplx_mag_q31.c:180:3
	b	.LBB10_1
.LBB10_3:
	.loc	15 196 1                        @ ../Middlewares/CMSIS/DSP/Src/ComplexMathFunctions/arm_cmplx_mag_q31.c:196:1
	add	sp, #32
	pop	{r7, pc}
.Ltmp52:
.Lfunc_end10:
	.size	arm_cmplx_mag_q31, .Lfunc_end10-arm_cmplx_mag_q31
	.cfi_endproc
	.cantunwind
	.fnend
                                        @ -- End function
	.section	.text.arm_cmplx_mag_squared_f32,"ax",%progbits
	.hidden	arm_cmplx_mag_squared_f32       @ -- Begin function arm_cmplx_mag_squared_f32
	.globl	arm_cmplx_mag_squared_f32
	.p2align	2
	.type	arm_cmplx_mag_squared_f32,%function
	.code	16                              @ @arm_cmplx_mag_squared_f32
	.thumb_func
arm_cmplx_mag_squared_f32:
.Lfunc_begin11:
	.file	16 "D:\\horizon\\Horizon_Infantry (2)\\MDK-ARM" "../Middlewares/CMSIS/DSP/Src/ComplexMathFunctions/arm_cmplx_mag_squared_f32.c"
	.loc	16 126 0                        @ ../Middlewares/CMSIS/DSP/Src/ComplexMathFunctions/arm_cmplx_mag_squared_f32.c:126:0
	.fnstart
	.cfi_startproc
@ %bb.0:
	.pad	#24
	sub	sp, #24
	.cfi_def_cfa_offset 24
	str	r0, [sp, #20]
	str	r1, [sp, #16]
	str	r2, [sp, #12]
.Ltmp53:
	.loc	16 211 12 prologue_end          @ ../Middlewares/CMSIS/DSP/Src/ComplexMathFunctions/arm_cmplx_mag_squared_f32.c:211:12
	ldr	r0, [sp, #12]
	.loc	16 211 10 is_stmt 0             @ ../Middlewares/CMSIS/DSP/Src/ComplexMathFunctions/arm_cmplx_mag_squared_f32.c:211:10
	str	r0, [sp, #8]
	.loc	16 216 3 is_stmt 1              @ ../Middlewares/CMSIS/DSP/Src/ComplexMathFunctions/arm_cmplx_mag_squared_f32.c:216:3
	b	.LBB11_1
.LBB11_1:                               @ =>This Inner Loop Header: Depth=1
	.loc	16 216 10 is_stmt 0             @ ../Middlewares/CMSIS/DSP/Src/ComplexMathFunctions/arm_cmplx_mag_squared_f32.c:216:10
	ldr	r0, [sp, #8]
	.loc	16 216 3                        @ ../Middlewares/CMSIS/DSP/Src/ComplexMathFunctions/arm_cmplx_mag_squared_f32.c:216:3
	cbz	r0, .LBB11_3
	b	.LBB11_2
.LBB11_2:                               @   in Loop: Header=BB11_1 Depth=1
.Ltmp54:
	.loc	16 220 17 is_stmt 1             @ ../Middlewares/CMSIS/DSP/Src/ComplexMathFunctions/arm_cmplx_mag_squared_f32.c:220:17
	ldr	r0, [sp, #20]
	adds	r1, r0, #4
	str	r1, [sp, #20]
	.loc	16 220 12 is_stmt 0             @ ../Middlewares/CMSIS/DSP/Src/ComplexMathFunctions/arm_cmplx_mag_squared_f32.c:220:12
	ldr	r0, [r0]
	.loc	16 220 10                       @ ../Middlewares/CMSIS/DSP/Src/ComplexMathFunctions/arm_cmplx_mag_squared_f32.c:220:10
	str	r0, [sp, #4]
	.loc	16 221 17 is_stmt 1             @ ../Middlewares/CMSIS/DSP/Src/ComplexMathFunctions/arm_cmplx_mag_squared_f32.c:221:17
	ldr	r0, [sp, #20]
	adds	r1, r0, #4
	str	r1, [sp, #20]
	.loc	16 221 12 is_stmt 0             @ ../Middlewares/CMSIS/DSP/Src/ComplexMathFunctions/arm_cmplx_mag_squared_f32.c:221:12
	ldr	r0, [r0]
	.loc	16 221 10                       @ ../Middlewares/CMSIS/DSP/Src/ComplexMathFunctions/arm_cmplx_mag_squared_f32.c:221:10
	str	r0, [sp]
	.loc	16 224 16 is_stmt 1             @ ../Middlewares/CMSIS/DSP/Src/ComplexMathFunctions/arm_cmplx_mag_squared_f32.c:224:16
	vldr	s0, [sp, #4]
	.loc	16 224 32 is_stmt 0             @ ../Middlewares/CMSIS/DSP/Src/ComplexMathFunctions/arm_cmplx_mag_squared_f32.c:224:32
	vldr	s2, [sp]
	.loc	16 224 37                       @ ../Middlewares/CMSIS/DSP/Src/ComplexMathFunctions/arm_cmplx_mag_squared_f32.c:224:37
	vmul.f32	s2, s2, s2
	.loc	16 224 29                       @ ../Middlewares/CMSIS/DSP/Src/ComplexMathFunctions/arm_cmplx_mag_squared_f32.c:224:29
	vmul.f32	s0, s0, s0
	vadd.f32	s0, s0, s2
	.loc	16 224 10                       @ ../Middlewares/CMSIS/DSP/Src/ComplexMathFunctions/arm_cmplx_mag_squared_f32.c:224:10
	ldr	r0, [sp, #16]
	adds	r1, r0, #4
	str	r1, [sp, #16]
	.loc	16 224 13                       @ ../Middlewares/CMSIS/DSP/Src/ComplexMathFunctions/arm_cmplx_mag_squared_f32.c:224:13
	vstr	s0, [r0]
	.loc	16 227 11 is_stmt 1             @ ../Middlewares/CMSIS/DSP/Src/ComplexMathFunctions/arm_cmplx_mag_squared_f32.c:227:11
	ldr	r0, [sp, #8]
	subs	r0, #1
	str	r0, [sp, #8]
.Ltmp55:
	.loc	16 216 3                        @ ../Middlewares/CMSIS/DSP/Src/ComplexMathFunctions/arm_cmplx_mag_squared_f32.c:216:3
	b	.LBB11_1
.LBB11_3:
	.loc	16 230 1                        @ ../Middlewares/CMSIS/DSP/Src/ComplexMathFunctions/arm_cmplx_mag_squared_f32.c:230:1
	add	sp, #24
	bx	lr
.Ltmp56:
.Lfunc_end11:
	.size	arm_cmplx_mag_squared_f32, .Lfunc_end11-arm_cmplx_mag_squared_f32
	.cfi_endproc
	.cantunwind
	.fnend
                                        @ -- End function
	.section	.text.arm_cmplx_mag_squared_f64,"ax",%progbits
	.hidden	arm_cmplx_mag_squared_f64       @ -- Begin function arm_cmplx_mag_squared_f64
	.globl	arm_cmplx_mag_squared_f64
	.p2align	2
	.type	arm_cmplx_mag_squared_f64,%function
	.code	16                              @ @arm_cmplx_mag_squared_f64
	.thumb_func
arm_cmplx_mag_squared_f64:
.Lfunc_begin12:
	.file	17 "D:\\horizon\\Horizon_Infantry (2)\\MDK-ARM" "../Middlewares/CMSIS/DSP/Src/ComplexMathFunctions/arm_cmplx_mag_squared_f64.c"
	.loc	17 51 0                         @ ../Middlewares/CMSIS/DSP/Src/ComplexMathFunctions/arm_cmplx_mag_squared_f64.c:51:0
	.fnstart
	.cfi_startproc
@ %bb.0:
	.save	{r7, lr}
	push	{r7, lr}
	.cfi_def_cfa_offset 8
	.cfi_offset lr, -4
	.cfi_offset r7, -8
	.pad	#48
	sub	sp, #48
	.cfi_def_cfa_offset 56
	str	r0, [sp, #44]
	str	r1, [sp, #40]
	str	r2, [sp, #36]
.Ltmp57:
	.loc	17 56 12 prologue_end           @ ../Middlewares/CMSIS/DSP/Src/ComplexMathFunctions/arm_cmplx_mag_squared_f64.c:56:12
	ldr	r0, [sp, #36]
	.loc	17 56 10 is_stmt 0              @ ../Middlewares/CMSIS/DSP/Src/ComplexMathFunctions/arm_cmplx_mag_squared_f64.c:56:10
	str	r0, [sp, #32]
	.loc	17 58 3 is_stmt 1               @ ../Middlewares/CMSIS/DSP/Src/ComplexMathFunctions/arm_cmplx_mag_squared_f64.c:58:3
	b	.LBB12_1
.LBB12_1:                               @ =>This Inner Loop Header: Depth=1
	.loc	17 58 10 is_stmt 0              @ ../Middlewares/CMSIS/DSP/Src/ComplexMathFunctions/arm_cmplx_mag_squared_f64.c:58:10
	ldr	r0, [sp, #32]
	.loc	17 58 3                         @ ../Middlewares/CMSIS/DSP/Src/ComplexMathFunctions/arm_cmplx_mag_squared_f64.c:58:3
	cmp	r0, #0
	beq	.LBB12_3
	b	.LBB12_2
.LBB12_2:                               @   in Loop: Header=BB12_1 Depth=1
.Ltmp58:
	.loc	17 62 17 is_stmt 1              @ ../Middlewares/CMSIS/DSP/Src/ComplexMathFunctions/arm_cmplx_mag_squared_f64.c:62:17
	ldr	r0, [sp, #44]
	add.w	r1, r0, #8
	str	r1, [sp, #44]
	.loc	17 62 12 is_stmt 0              @ ../Middlewares/CMSIS/DSP/Src/ComplexMathFunctions/arm_cmplx_mag_squared_f64.c:62:12
	vldr	d0, [r0]
	.loc	17 62 10                        @ ../Middlewares/CMSIS/DSP/Src/ComplexMathFunctions/arm_cmplx_mag_squared_f64.c:62:10
	vstr	d0, [sp, #24]
	.loc	17 63 17 is_stmt 1              @ ../Middlewares/CMSIS/DSP/Src/ComplexMathFunctions/arm_cmplx_mag_squared_f64.c:63:17
	ldr	r0, [sp, #44]
	add.w	r1, r0, #8
	str	r1, [sp, #44]
	.loc	17 63 12 is_stmt 0              @ ../Middlewares/CMSIS/DSP/Src/ComplexMathFunctions/arm_cmplx_mag_squared_f64.c:63:12
	vldr	d0, [r0]
	.loc	17 63 10                        @ ../Middlewares/CMSIS/DSP/Src/ComplexMathFunctions/arm_cmplx_mag_squared_f64.c:63:10
	vstr	d0, [sp, #16]
	.loc	17 66 16 is_stmt 1              @ ../Middlewares/CMSIS/DSP/Src/ComplexMathFunctions/arm_cmplx_mag_squared_f64.c:66:16
	vldr	d0, [sp, #24]
	vstr	d0, [sp]                        @ 8-byte Spill
	.loc	17 66 32 is_stmt 0              @ ../Middlewares/CMSIS/DSP/Src/ComplexMathFunctions/arm_cmplx_mag_squared_f64.c:66:32
	vldr	d0, [sp, #16]
	.loc	17 66 37                        @ ../Middlewares/CMSIS/DSP/Src/ComplexMathFunctions/arm_cmplx_mag_squared_f64.c:66:37
	vmov	r2, r3, d0
	mov	r0, r2
	mov	r1, r3
	bl	__aeabi_dmul
	vldr	d0, [sp]                        @ 8-byte Reload
	vmov	d1, r0, r1
	vstr	d1, [sp, #8]                    @ 8-byte Spill
	.loc	17 66 29                        @ ../Middlewares/CMSIS/DSP/Src/ComplexMathFunctions/arm_cmplx_mag_squared_f64.c:66:29
	vmov	r2, r3, d0
	mov	r0, r2
	mov	r1, r3
	bl	__aeabi_dmul
	vldr	d0, [sp, #8]                    @ 8-byte Reload
	vmov	d1, r0, r1
	vmov	r0, r1, d1
	vmov	r2, r3, d0
	bl	__aeabi_dadd
	vmov	d0, r0, r1
	.loc	17 66 10                        @ ../Middlewares/CMSIS/DSP/Src/ComplexMathFunctions/arm_cmplx_mag_squared_f64.c:66:10
	ldr	r0, [sp, #40]
	add.w	r1, r0, #8
	str	r1, [sp, #40]
	.loc	17 66 13                        @ ../Middlewares/CMSIS/DSP/Src/ComplexMathFunctions/arm_cmplx_mag_squared_f64.c:66:13
	vstr	d0, [r0]
	.loc	17 69 11 is_stmt 1              @ ../Middlewares/CMSIS/DSP/Src/ComplexMathFunctions/arm_cmplx_mag_squared_f64.c:69:11
	ldr	r0, [sp, #32]
	subs	r0, #1
	str	r0, [sp, #32]
.Ltmp59:
	.loc	17 58 3                         @ ../Middlewares/CMSIS/DSP/Src/ComplexMathFunctions/arm_cmplx_mag_squared_f64.c:58:3
	b	.LBB12_1
.LBB12_3:
	.loc	17 72 1                         @ ../Middlewares/CMSIS/DSP/Src/ComplexMathFunctions/arm_cmplx_mag_squared_f64.c:72:1
	add	sp, #48
	pop	{r7, pc}
.Ltmp60:
.Lfunc_end12:
	.size	arm_cmplx_mag_squared_f64, .Lfunc_end12-arm_cmplx_mag_squared_f64
	.cfi_endproc
	.cantunwind
	.fnend
                                        @ -- End function
	.section	.text.arm_cmplx_mag_squared_q15,"ax",%progbits
	.hidden	arm_cmplx_mag_squared_q15       @ -- Begin function arm_cmplx_mag_squared_q15
	.globl	arm_cmplx_mag_squared_q15
	.p2align	2
	.type	arm_cmplx_mag_squared_q15,%function
	.code	16                              @ @arm_cmplx_mag_squared_q15
	.thumb_func
arm_cmplx_mag_squared_q15:
.Lfunc_begin13:
	.file	18 "D:\\horizon\\Horizon_Infantry (2)\\MDK-ARM" "../Middlewares/CMSIS/DSP/Src/ComplexMathFunctions/arm_cmplx_mag_squared_q15.c"
	.loc	18 113 0                        @ ../Middlewares/CMSIS/DSP/Src/ComplexMathFunctions/arm_cmplx_mag_squared_q15.c:113:0
	.fnstart
	.cfi_startproc
@ %bb.0:
	.pad	#32
	sub	sp, #32
	.cfi_def_cfa_offset 32
	str	r0, [sp, #20]
	str	r1, [sp, #16]
	str	r2, [sp, #12]
.Ltmp61:
	.loc	18 187 12 prologue_end          @ ../Middlewares/CMSIS/DSP/Src/ComplexMathFunctions/arm_cmplx_mag_squared_q15.c:187:12
	ldr	r0, [sp, #12]
	.loc	18 187 10 is_stmt 0             @ ../Middlewares/CMSIS/DSP/Src/ComplexMathFunctions/arm_cmplx_mag_squared_q15.c:187:10
	str	r0, [sp, #8]
	.loc	18 191 3 is_stmt 1              @ ../Middlewares/CMSIS/DSP/Src/ComplexMathFunctions/arm_cmplx_mag_squared_q15.c:191:3
	b	.LBB13_1
.LBB13_1:                               @ =>This Inner Loop Header: Depth=1
	.loc	18 191 10 is_stmt 0             @ ../Middlewares/CMSIS/DSP/Src/ComplexMathFunctions/arm_cmplx_mag_squared_q15.c:191:10
	ldr	r0, [sp, #8]
	.loc	18 191 3                        @ ../Middlewares/CMSIS/DSP/Src/ComplexMathFunctions/arm_cmplx_mag_squared_q15.c:191:3
	cbz	r0, .LBB13_3
	b	.LBB13_2
.LBB13_2:                               @   in Loop: Header=BB13_1 Depth=1
.Ltmp62:
	.loc	18 196 31 is_stmt 1             @ ../Middlewares/CMSIS/DSP/Src/ComplexMathFunctions/arm_cmplx_mag_squared_q15.c:196:31
	ldr	r0, [sp, #20]
	adds	r1, r0, #4
	str	r1, [sp, #20]
	str	r0, [sp, #28]
.Ltmp63:
	.loc	13 82 17                        @ ../Middlewares/CMSIS/DSP/Inc\arm_math_memory.h:82:17
	ldr	r0, [sp, #28]
	.loc	13 82 3 is_stmt 0               @ ../Middlewares/CMSIS/DSP/Inc\arm_math_memory.h:82:3
	ldr	r0, [r0]
	str	r0, [sp, #24]
	.loc	13 87 11 is_stmt 1              @ ../Middlewares/CMSIS/DSP/Inc\arm_math_memory.h:87:11
	ldr	r0, [sp, #24]
.Ltmp64:
	.loc	18 196 8                        @ ../Middlewares/CMSIS/DSP/Src/ComplexMathFunctions/arm_cmplx_mag_squared_q15.c:196:8
	str	r0, [sp, #4]
	.loc	18 197 32                       @ ../Middlewares/CMSIS/DSP/Src/ComplexMathFunctions/arm_cmplx_mag_squared_q15.c:197:32
	ldr	r0, [sp, #4]
	.loc	18 197 12 is_stmt 0             @ ../Middlewares/CMSIS/DSP/Src/ComplexMathFunctions/arm_cmplx_mag_squared_q15.c:197:12
	smuad	r0, r0, r0
	.loc	18 197 10                       @ ../Middlewares/CMSIS/DSP/Src/ComplexMathFunctions/arm_cmplx_mag_squared_q15.c:197:10
	str	r0, [sp]
	.loc	18 200 24 is_stmt 1             @ ../Middlewares/CMSIS/DSP/Src/ComplexMathFunctions/arm_cmplx_mag_squared_q15.c:200:24
	ldr	r0, [sp]
	.loc	18 200 29 is_stmt 0             @ ../Middlewares/CMSIS/DSP/Src/ComplexMathFunctions/arm_cmplx_mag_squared_q15.c:200:29
	asrs	r0, r0, #17
	.loc	18 200 10                       @ ../Middlewares/CMSIS/DSP/Src/ComplexMathFunctions/arm_cmplx_mag_squared_q15.c:200:10
	ldr	r1, [sp, #16]
	adds	r2, r1, #2
	str	r2, [sp, #16]
	.loc	18 200 13                       @ ../Middlewares/CMSIS/DSP/Src/ComplexMathFunctions/arm_cmplx_mag_squared_q15.c:200:13
	strh	r0, [r1]
	.loc	18 212 11 is_stmt 1             @ ../Middlewares/CMSIS/DSP/Src/ComplexMathFunctions/arm_cmplx_mag_squared_q15.c:212:11
	ldr	r0, [sp, #8]
	subs	r0, #1
	str	r0, [sp, #8]
.Ltmp65:
	.loc	18 191 3                        @ ../Middlewares/CMSIS/DSP/Src/ComplexMathFunctions/arm_cmplx_mag_squared_q15.c:191:3
	b	.LBB13_1
.LBB13_3:
	.loc	18 215 1                        @ ../Middlewares/CMSIS/DSP/Src/ComplexMathFunctions/arm_cmplx_mag_squared_q15.c:215:1
	add	sp, #32
	bx	lr
.Ltmp66:
.Lfunc_end13:
	.size	arm_cmplx_mag_squared_q15, .Lfunc_end13-arm_cmplx_mag_squared_q15
	.cfi_endproc
	.cantunwind
	.fnend
                                        @ -- End function
	.section	.text.arm_cmplx_mag_squared_q31,"ax",%progbits
	.hidden	arm_cmplx_mag_squared_q31       @ -- Begin function arm_cmplx_mag_squared_q31
	.globl	arm_cmplx_mag_squared_q31
	.p2align	2
	.type	arm_cmplx_mag_squared_q31,%function
	.code	16                              @ @arm_cmplx_mag_squared_q31
	.thumb_func
arm_cmplx_mag_squared_q31:
.Lfunc_begin14:
	.file	19 "D:\\horizon\\Horizon_Infantry (2)\\MDK-ARM" "../Middlewares/CMSIS/DSP/Src/ComplexMathFunctions/arm_cmplx_mag_squared_q31.c"
	.loc	19 112 0                        @ ../Middlewares/CMSIS/DSP/Src/ComplexMathFunctions/arm_cmplx_mag_squared_q31.c:112:0
	.fnstart
	.cfi_startproc
@ %bb.0:
	.pad	#32
	sub	sp, #32
	.cfi_def_cfa_offset 32
	str	r0, [sp, #28]
	str	r1, [sp, #24]
	str	r2, [sp, #20]
.Ltmp67:
	.loc	19 161 12 prologue_end          @ ../Middlewares/CMSIS/DSP/Src/ComplexMathFunctions/arm_cmplx_mag_squared_q31.c:161:12
	ldr	r0, [sp, #20]
	.loc	19 161 10 is_stmt 0             @ ../Middlewares/CMSIS/DSP/Src/ComplexMathFunctions/arm_cmplx_mag_squared_q31.c:161:10
	str	r0, [sp, #16]
	.loc	19 165 3 is_stmt 1              @ ../Middlewares/CMSIS/DSP/Src/ComplexMathFunctions/arm_cmplx_mag_squared_q31.c:165:3
	b	.LBB14_1
.LBB14_1:                               @ =>This Inner Loop Header: Depth=1
	.loc	19 165 10 is_stmt 0             @ ../Middlewares/CMSIS/DSP/Src/ComplexMathFunctions/arm_cmplx_mag_squared_q31.c:165:10
	ldr	r0, [sp, #16]
	.loc	19 165 3                        @ ../Middlewares/CMSIS/DSP/Src/ComplexMathFunctions/arm_cmplx_mag_squared_q31.c:165:3
	cbz	r0, .LBB14_3
	b	.LBB14_2
.LBB14_2:                               @   in Loop: Header=BB14_1 Depth=1
.Ltmp68:
	.loc	19 169 17 is_stmt 1             @ ../Middlewares/CMSIS/DSP/Src/ComplexMathFunctions/arm_cmplx_mag_squared_q31.c:169:17
	ldr	r0, [sp, #28]
	adds	r1, r0, #4
	str	r1, [sp, #28]
	.loc	19 169 12 is_stmt 0             @ ../Middlewares/CMSIS/DSP/Src/ComplexMathFunctions/arm_cmplx_mag_squared_q31.c:169:12
	ldr	r0, [r0]
	.loc	19 169 10                       @ ../Middlewares/CMSIS/DSP/Src/ComplexMathFunctions/arm_cmplx_mag_squared_q31.c:169:10
	str	r0, [sp, #12]
	.loc	19 170 17 is_stmt 1             @ ../Middlewares/CMSIS/DSP/Src/ComplexMathFunctions/arm_cmplx_mag_squared_q31.c:170:17
	ldr	r0, [sp, #28]
	adds	r1, r0, #4
	str	r1, [sp, #28]
	.loc	19 170 12 is_stmt 0             @ ../Middlewares/CMSIS/DSP/Src/ComplexMathFunctions/arm_cmplx_mag_squared_q31.c:170:12
	ldr	r0, [r0]
	.loc	19 170 10                       @ ../Middlewares/CMSIS/DSP/Src/ComplexMathFunctions/arm_cmplx_mag_squared_q31.c:170:10
	str	r0, [sp, #8]
	.loc	19 171 30 is_stmt 1             @ ../Middlewares/CMSIS/DSP/Src/ComplexMathFunctions/arm_cmplx_mag_squared_q31.c:171:30
	ldr	r0, [sp, #12]
	.loc	19 171 35 is_stmt 0             @ ../Middlewares/CMSIS/DSP/Src/ComplexMathFunctions/arm_cmplx_mag_squared_q31.c:171:35
	smmul	r0, r0, r0
	.loc	19 171 43                       @ ../Middlewares/CMSIS/DSP/Src/ComplexMathFunctions/arm_cmplx_mag_squared_q31.c:171:43
	asrs	r0, r0, #1
	.loc	19 171 10                       @ ../Middlewares/CMSIS/DSP/Src/ComplexMathFunctions/arm_cmplx_mag_squared_q31.c:171:10
	str	r0, [sp, #4]
	.loc	19 172 30 is_stmt 1             @ ../Middlewares/CMSIS/DSP/Src/ComplexMathFunctions/arm_cmplx_mag_squared_q31.c:172:30
	ldr	r0, [sp, #8]
	.loc	19 172 35 is_stmt 0             @ ../Middlewares/CMSIS/DSP/Src/ComplexMathFunctions/arm_cmplx_mag_squared_q31.c:172:35
	smmul	r0, r0, r0
	.loc	19 172 43                       @ ../Middlewares/CMSIS/DSP/Src/ComplexMathFunctions/arm_cmplx_mag_squared_q31.c:172:43
	asrs	r0, r0, #1
	.loc	19 172 10                       @ ../Middlewares/CMSIS/DSP/Src/ComplexMathFunctions/arm_cmplx_mag_squared_q31.c:172:10
	str	r0, [sp]
	.loc	19 175 15 is_stmt 1             @ ../Middlewares/CMSIS/DSP/Src/ComplexMathFunctions/arm_cmplx_mag_squared_q31.c:175:15
	ldr	r0, [sp, #4]
	.loc	19 175 22 is_stmt 0             @ ../Middlewares/CMSIS/DSP/Src/ComplexMathFunctions/arm_cmplx_mag_squared_q31.c:175:22
	ldr	r1, [sp]
	.loc	19 175 20                       @ ../Middlewares/CMSIS/DSP/Src/ComplexMathFunctions/arm_cmplx_mag_squared_q31.c:175:20
	add	r0, r1
	.loc	19 175 10                       @ ../Middlewares/CMSIS/DSP/Src/ComplexMathFunctions/arm_cmplx_mag_squared_q31.c:175:10
	ldr	r1, [sp, #24]
	adds	r2, r1, #4
	str	r2, [sp, #24]
	.loc	19 175 13                       @ ../Middlewares/CMSIS/DSP/Src/ComplexMathFunctions/arm_cmplx_mag_squared_q31.c:175:13
	str	r0, [r1]
	.loc	19 178 11 is_stmt 1             @ ../Middlewares/CMSIS/DSP/Src/ComplexMathFunctions/arm_cmplx_mag_squared_q31.c:178:11
	ldr	r0, [sp, #16]
	subs	r0, #1
	str	r0, [sp, #16]
.Ltmp69:
	.loc	19 165 3                        @ ../Middlewares/CMSIS/DSP/Src/ComplexMathFunctions/arm_cmplx_mag_squared_q31.c:165:3
	b	.LBB14_1
.LBB14_3:
	.loc	19 181 1                        @ ../Middlewares/CMSIS/DSP/Src/ComplexMathFunctions/arm_cmplx_mag_squared_q31.c:181:1
	add	sp, #32
	bx	lr
.Ltmp70:
.Lfunc_end14:
	.size	arm_cmplx_mag_squared_q31, .Lfunc_end14-arm_cmplx_mag_squared_q31
	.cfi_endproc
	.cantunwind
	.fnend
                                        @ -- End function
	.section	.text.arm_cmplx_mult_cmplx_f32,"ax",%progbits
	.hidden	arm_cmplx_mult_cmplx_f32        @ -- Begin function arm_cmplx_mult_cmplx_f32
	.globl	arm_cmplx_mult_cmplx_f32
	.p2align	2
	.type	arm_cmplx_mult_cmplx_f32,%function
	.code	16                              @ @arm_cmplx_mult_cmplx_f32
	.thumb_func
arm_cmplx_mult_cmplx_f32:
.Lfunc_begin15:
	.file	20 "D:\\horizon\\Horizon_Infantry (2)\\MDK-ARM" "../Middlewares/CMSIS/DSP/Src/ComplexMathFunctions/arm_cmplx_mult_cmplx_f32.c"
	.loc	20 187 0                        @ ../Middlewares/CMSIS/DSP/Src/ComplexMathFunctions/arm_cmplx_mult_cmplx_f32.c:187:0
	.fnstart
	.cfi_startproc
@ %bb.0:
	.pad	#36
	sub	sp, #36
	.cfi_def_cfa_offset 36
	str	r0, [sp, #32]
	str	r1, [sp, #28]
	str	r2, [sp, #24]
	str	r3, [sp, #20]
.Ltmp71:
	.loc	20 277 12 prologue_end          @ ../Middlewares/CMSIS/DSP/Src/ComplexMathFunctions/arm_cmplx_mult_cmplx_f32.c:277:12
	ldr	r0, [sp, #20]
	.loc	20 277 10 is_stmt 0             @ ../Middlewares/CMSIS/DSP/Src/ComplexMathFunctions/arm_cmplx_mult_cmplx_f32.c:277:10
	str	r0, [sp, #16]
	.loc	20 282 3 is_stmt 1              @ ../Middlewares/CMSIS/DSP/Src/ComplexMathFunctions/arm_cmplx_mult_cmplx_f32.c:282:3
	b	.LBB15_1
.LBB15_1:                               @ =>This Inner Loop Header: Depth=1
	.loc	20 282 10 is_stmt 0             @ ../Middlewares/CMSIS/DSP/Src/ComplexMathFunctions/arm_cmplx_mult_cmplx_f32.c:282:10
	ldr	r0, [sp, #16]
	.loc	20 282 3                        @ ../Middlewares/CMSIS/DSP/Src/ComplexMathFunctions/arm_cmplx_mult_cmplx_f32.c:282:3
	cmp	r0, #0
	beq	.LBB15_3
	b	.LBB15_2
.LBB15_2:                               @   in Loop: Header=BB15_1 Depth=1
.Ltmp72:
	.loc	20 287 15 is_stmt 1             @ ../Middlewares/CMSIS/DSP/Src/ComplexMathFunctions/arm_cmplx_mult_cmplx_f32.c:287:15
	ldr	r0, [sp, #32]
	adds	r1, r0, #4
	str	r1, [sp, #32]
	.loc	20 287 9 is_stmt 0              @ ../Middlewares/CMSIS/DSP/Src/ComplexMathFunctions/arm_cmplx_mult_cmplx_f32.c:287:9
	ldr	r0, [r0]
	.loc	20 287 7                        @ ../Middlewares/CMSIS/DSP/Src/ComplexMathFunctions/arm_cmplx_mult_cmplx_f32.c:287:7
	str	r0, [sp, #12]
	.loc	20 288 15 is_stmt 1             @ ../Middlewares/CMSIS/DSP/Src/ComplexMathFunctions/arm_cmplx_mult_cmplx_f32.c:288:15
	ldr	r0, [sp, #32]
	adds	r1, r0, #4
	str	r1, [sp, #32]
	.loc	20 288 9 is_stmt 0              @ ../Middlewares/CMSIS/DSP/Src/ComplexMathFunctions/arm_cmplx_mult_cmplx_f32.c:288:9
	ldr	r0, [r0]
	.loc	20 288 7                        @ ../Middlewares/CMSIS/DSP/Src/ComplexMathFunctions/arm_cmplx_mult_cmplx_f32.c:288:7
	str	r0, [sp, #8]
	.loc	20 289 15 is_stmt 1             @ ../Middlewares/CMSIS/DSP/Src/ComplexMathFunctions/arm_cmplx_mult_cmplx_f32.c:289:15
	ldr	r0, [sp, #28]
	adds	r1, r0, #4
	str	r1, [sp, #28]
	.loc	20 289 9 is_stmt 0              @ ../Middlewares/CMSIS/DSP/Src/ComplexMathFunctions/arm_cmplx_mult_cmplx_f32.c:289:9
	ldr	r0, [r0]
	.loc	20 289 7                        @ ../Middlewares/CMSIS/DSP/Src/ComplexMathFunctions/arm_cmplx_mult_cmplx_f32.c:289:7
	str	r0, [sp, #4]
	.loc	20 290 15 is_stmt 1             @ ../Middlewares/CMSIS/DSP/Src/ComplexMathFunctions/arm_cmplx_mult_cmplx_f32.c:290:15
	ldr	r0, [sp, #28]
	adds	r1, r0, #4
	str	r1, [sp, #28]
	.loc	20 290 9 is_stmt 0              @ ../Middlewares/CMSIS/DSP/Src/ComplexMathFunctions/arm_cmplx_mult_cmplx_f32.c:290:9
	ldr	r0, [r0]
	.loc	20 290 7                        @ ../Middlewares/CMSIS/DSP/Src/ComplexMathFunctions/arm_cmplx_mult_cmplx_f32.c:290:7
	str	r0, [sp]
	.loc	20 293 16 is_stmt 1             @ ../Middlewares/CMSIS/DSP/Src/ComplexMathFunctions/arm_cmplx_mult_cmplx_f32.c:293:16
	vldr	s0, [sp, #12]
	.loc	20 293 20 is_stmt 0             @ ../Middlewares/CMSIS/DSP/Src/ComplexMathFunctions/arm_cmplx_mult_cmplx_f32.c:293:20
	vldr	s4, [sp, #4]
	.loc	20 293 26                       @ ../Middlewares/CMSIS/DSP/Src/ComplexMathFunctions/arm_cmplx_mult_cmplx_f32.c:293:26
	vldr	s2, [sp, #8]
	.loc	20 293 30                       @ ../Middlewares/CMSIS/DSP/Src/ComplexMathFunctions/arm_cmplx_mult_cmplx_f32.c:293:30
	vldr	s6, [sp]
	.loc	20 293 28                       @ ../Middlewares/CMSIS/DSP/Src/ComplexMathFunctions/arm_cmplx_mult_cmplx_f32.c:293:28
	vmul.f32	s2, s2, s6
	.loc	20 293 23                       @ ../Middlewares/CMSIS/DSP/Src/ComplexMathFunctions/arm_cmplx_mult_cmplx_f32.c:293:23
	vmul.f32	s0, s0, s4
	vsub.f32	s0, s0, s2
	.loc	20 293 10                       @ ../Middlewares/CMSIS/DSP/Src/ComplexMathFunctions/arm_cmplx_mult_cmplx_f32.c:293:10
	ldr	r0, [sp, #24]
	adds	r1, r0, #4
	str	r1, [sp, #24]
	.loc	20 293 13                       @ ../Middlewares/CMSIS/DSP/Src/ComplexMathFunctions/arm_cmplx_mult_cmplx_f32.c:293:13
	vstr	s0, [r0]
	.loc	20 294 16 is_stmt 1             @ ../Middlewares/CMSIS/DSP/Src/ComplexMathFunctions/arm_cmplx_mult_cmplx_f32.c:294:16
	vldr	s0, [sp, #12]
	.loc	20 294 20 is_stmt 0             @ ../Middlewares/CMSIS/DSP/Src/ComplexMathFunctions/arm_cmplx_mult_cmplx_f32.c:294:20
	vldr	s4, [sp]
	.loc	20 294 26                       @ ../Middlewares/CMSIS/DSP/Src/ComplexMathFunctions/arm_cmplx_mult_cmplx_f32.c:294:26
	vldr	s2, [sp, #8]
	.loc	20 294 30                       @ ../Middlewares/CMSIS/DSP/Src/ComplexMathFunctions/arm_cmplx_mult_cmplx_f32.c:294:30
	vldr	s6, [sp, #4]
	.loc	20 294 28                       @ ../Middlewares/CMSIS/DSP/Src/ComplexMathFunctions/arm_cmplx_mult_cmplx_f32.c:294:28
	vmul.f32	s2, s2, s6
	.loc	20 294 23                       @ ../Middlewares/CMSIS/DSP/Src/ComplexMathFunctions/arm_cmplx_mult_cmplx_f32.c:294:23
	vmul.f32	s0, s0, s4
	vadd.f32	s0, s0, s2
	.loc	20 294 10                       @ ../Middlewares/CMSIS/DSP/Src/ComplexMathFunctions/arm_cmplx_mult_cmplx_f32.c:294:10
	ldr	r0, [sp, #24]
	adds	r1, r0, #4
	str	r1, [sp, #24]
	.loc	20 294 13                       @ ../Middlewares/CMSIS/DSP/Src/ComplexMathFunctions/arm_cmplx_mult_cmplx_f32.c:294:13
	vstr	s0, [r0]
	.loc	20 297 11 is_stmt 1             @ ../Middlewares/CMSIS/DSP/Src/ComplexMathFunctions/arm_cmplx_mult_cmplx_f32.c:297:11
	ldr	r0, [sp, #16]
	subs	r0, #1
	str	r0, [sp, #16]
.Ltmp73:
	.loc	20 282 3                        @ ../Middlewares/CMSIS/DSP/Src/ComplexMathFunctions/arm_cmplx_mult_cmplx_f32.c:282:3
	b	.LBB15_1
.LBB15_3:
	.loc	20 300 1                        @ ../Middlewares/CMSIS/DSP/Src/ComplexMathFunctions/arm_cmplx_mult_cmplx_f32.c:300:1
	add	sp, #36
	bx	lr
.Ltmp74:
.Lfunc_end15:
	.size	arm_cmplx_mult_cmplx_f32, .Lfunc_end15-arm_cmplx_mult_cmplx_f32
	.cfi_endproc
	.cantunwind
	.fnend
                                        @ -- End function
	.section	.text.arm_cmplx_mult_cmplx_f64,"ax",%progbits
	.hidden	arm_cmplx_mult_cmplx_f64        @ -- Begin function arm_cmplx_mult_cmplx_f64
	.globl	arm_cmplx_mult_cmplx_f64
	.p2align	2
	.type	arm_cmplx_mult_cmplx_f64,%function
	.code	16                              @ @arm_cmplx_mult_cmplx_f64
	.thumb_func
arm_cmplx_mult_cmplx_f64:
.Lfunc_begin16:
	.file	21 "D:\\horizon\\Horizon_Infantry (2)\\MDK-ARM" "../Middlewares/CMSIS/DSP/Src/ComplexMathFunctions/arm_cmplx_mult_cmplx_f64.c"
	.loc	21 54 0                         @ ../Middlewares/CMSIS/DSP/Src/ComplexMathFunctions/arm_cmplx_mult_cmplx_f64.c:54:0
	.fnstart
	.cfi_startproc
@ %bb.0:
	.save	{r7, lr}
	push	{r7, lr}
	.cfi_def_cfa_offset 8
	.cfi_offset lr, -4
	.cfi_offset r7, -8
	.pad	#104
	sub	sp, #104
	.cfi_def_cfa_offset 112
	str	r0, [sp, #100]
	str	r1, [sp, #96]
	str	r2, [sp, #92]
	str	r3, [sp, #88]
.Ltmp75:
	.loc	21 59 12 prologue_end           @ ../Middlewares/CMSIS/DSP/Src/ComplexMathFunctions/arm_cmplx_mult_cmplx_f64.c:59:12
	ldr	r0, [sp, #88]
	.loc	21 59 10 is_stmt 0              @ ../Middlewares/CMSIS/DSP/Src/ComplexMathFunctions/arm_cmplx_mult_cmplx_f64.c:59:10
	str	r0, [sp, #84]
	.loc	21 61 3 is_stmt 1               @ ../Middlewares/CMSIS/DSP/Src/ComplexMathFunctions/arm_cmplx_mult_cmplx_f64.c:61:3
	b	.LBB16_1
.LBB16_1:                               @ =>This Inner Loop Header: Depth=1
	.loc	21 61 10 is_stmt 0              @ ../Middlewares/CMSIS/DSP/Src/ComplexMathFunctions/arm_cmplx_mult_cmplx_f64.c:61:10
	ldr	r0, [sp, #84]
	.loc	21 61 3                         @ ../Middlewares/CMSIS/DSP/Src/ComplexMathFunctions/arm_cmplx_mult_cmplx_f64.c:61:3
	cmp	r0, #0
	beq.w	.LBB16_3
	b	.LBB16_2
.LBB16_2:                               @   in Loop: Header=BB16_1 Depth=1
.Ltmp76:
	.loc	21 66 15 is_stmt 1              @ ../Middlewares/CMSIS/DSP/Src/ComplexMathFunctions/arm_cmplx_mult_cmplx_f64.c:66:15
	ldr	r0, [sp, #100]
	add.w	r1, r0, #8
	str	r1, [sp, #100]
	.loc	21 66 9 is_stmt 0               @ ../Middlewares/CMSIS/DSP/Src/ComplexMathFunctions/arm_cmplx_mult_cmplx_f64.c:66:9
	vldr	d0, [r0]
	.loc	21 66 7                         @ ../Middlewares/CMSIS/DSP/Src/ComplexMathFunctions/arm_cmplx_mult_cmplx_f64.c:66:7
	vstr	d0, [sp, #72]
	.loc	21 67 15 is_stmt 1              @ ../Middlewares/CMSIS/DSP/Src/ComplexMathFunctions/arm_cmplx_mult_cmplx_f64.c:67:15
	ldr	r0, [sp, #100]
	add.w	r1, r0, #8
	str	r1, [sp, #100]
	.loc	21 67 9 is_stmt 0               @ ../Middlewares/CMSIS/DSP/Src/ComplexMathFunctions/arm_cmplx_mult_cmplx_f64.c:67:9
	vldr	d0, [r0]
	.loc	21 67 7                         @ ../Middlewares/CMSIS/DSP/Src/ComplexMathFunctions/arm_cmplx_mult_cmplx_f64.c:67:7
	vstr	d0, [sp, #64]
	.loc	21 68 15 is_stmt 1              @ ../Middlewares/CMSIS/DSP/Src/ComplexMathFunctions/arm_cmplx_mult_cmplx_f64.c:68:15
	ldr	r0, [sp, #96]
	add.w	r1, r0, #8
	str	r1, [sp, #96]
	.loc	21 68 9 is_stmt 0               @ ../Middlewares/CMSIS/DSP/Src/ComplexMathFunctions/arm_cmplx_mult_cmplx_f64.c:68:9
	vldr	d0, [r0]
	.loc	21 68 7                         @ ../Middlewares/CMSIS/DSP/Src/ComplexMathFunctions/arm_cmplx_mult_cmplx_f64.c:68:7
	vstr	d0, [sp, #56]
	.loc	21 69 15 is_stmt 1              @ ../Middlewares/CMSIS/DSP/Src/ComplexMathFunctions/arm_cmplx_mult_cmplx_f64.c:69:15
	ldr	r0, [sp, #96]
	add.w	r1, r0, #8
	str	r1, [sp, #96]
	.loc	21 69 9 is_stmt 0               @ ../Middlewares/CMSIS/DSP/Src/ComplexMathFunctions/arm_cmplx_mult_cmplx_f64.c:69:9
	vldr	d0, [r0]
	.loc	21 69 7                         @ ../Middlewares/CMSIS/DSP/Src/ComplexMathFunctions/arm_cmplx_mult_cmplx_f64.c:69:7
	vstr	d0, [sp, #48]
	.loc	21 72 16 is_stmt 1              @ ../Middlewares/CMSIS/DSP/Src/ComplexMathFunctions/arm_cmplx_mult_cmplx_f64.c:72:16
	vldr	d0, [sp, #72]
	vstr	d0, [sp]                        @ 8-byte Spill
	.loc	21 72 20 is_stmt 0              @ ../Middlewares/CMSIS/DSP/Src/ComplexMathFunctions/arm_cmplx_mult_cmplx_f64.c:72:20
	vldr	d0, [sp, #56]
	vstr	d0, [sp, #8]                    @ 8-byte Spill
	.loc	21 72 26                        @ ../Middlewares/CMSIS/DSP/Src/ComplexMathFunctions/arm_cmplx_mult_cmplx_f64.c:72:26
	vldr	d1, [sp, #64]
	.loc	21 72 30                        @ ../Middlewares/CMSIS/DSP/Src/ComplexMathFunctions/arm_cmplx_mult_cmplx_f64.c:72:30
	vldr	d0, [sp, #48]
	.loc	21 72 28                        @ ../Middlewares/CMSIS/DSP/Src/ComplexMathFunctions/arm_cmplx_mult_cmplx_f64.c:72:28
	vmov	r0, r1, d1
	vmov	r2, r3, d0
	bl	__aeabi_dmul
	vldr	d1, [sp]                        @ 8-byte Reload
	vldr	d0, [sp, #8]                    @ 8-byte Reload
	vmov	d2, r0, r1
	vstr	d2, [sp, #16]                   @ 8-byte Spill
	.loc	21 72 23                        @ ../Middlewares/CMSIS/DSP/Src/ComplexMathFunctions/arm_cmplx_mult_cmplx_f64.c:72:23
	vmov	r0, r1, d1
	vmov	r2, r3, d0
	bl	__aeabi_dmul
	vldr	d0, [sp, #16]                   @ 8-byte Reload
	vmov	d1, r0, r1
	vmov	r0, r1, d1
	vmov	r2, r3, d0
	bl	__aeabi_dsub
	vmov	d0, r0, r1
	.loc	21 72 10                        @ ../Middlewares/CMSIS/DSP/Src/ComplexMathFunctions/arm_cmplx_mult_cmplx_f64.c:72:10
	ldr	r0, [sp, #92]
	add.w	r1, r0, #8
	str	r1, [sp, #92]
	.loc	21 72 13                        @ ../Middlewares/CMSIS/DSP/Src/ComplexMathFunctions/arm_cmplx_mult_cmplx_f64.c:72:13
	vstr	d0, [r0]
	.loc	21 73 16 is_stmt 1              @ ../Middlewares/CMSIS/DSP/Src/ComplexMathFunctions/arm_cmplx_mult_cmplx_f64.c:73:16
	vldr	d0, [sp, #72]
	vstr	d0, [sp, #24]                   @ 8-byte Spill
	.loc	21 73 20 is_stmt 0              @ ../Middlewares/CMSIS/DSP/Src/ComplexMathFunctions/arm_cmplx_mult_cmplx_f64.c:73:20
	vldr	d0, [sp, #48]
	vstr	d0, [sp, #32]                   @ 8-byte Spill
	.loc	21 73 26                        @ ../Middlewares/CMSIS/DSP/Src/ComplexMathFunctions/arm_cmplx_mult_cmplx_f64.c:73:26
	vldr	d1, [sp, #64]
	.loc	21 73 30                        @ ../Middlewares/CMSIS/DSP/Src/ComplexMathFunctions/arm_cmplx_mult_cmplx_f64.c:73:30
	vldr	d0, [sp, #56]
	.loc	21 73 28                        @ ../Middlewares/CMSIS/DSP/Src/ComplexMathFunctions/arm_cmplx_mult_cmplx_f64.c:73:28
	vmov	r0, r1, d1
	vmov	r2, r3, d0
	bl	__aeabi_dmul
	vldr	d1, [sp, #24]                   @ 8-byte Reload
	vldr	d0, [sp, #32]                   @ 8-byte Reload
	vmov	d2, r0, r1
	vstr	d2, [sp, #40]                   @ 8-byte Spill
	.loc	21 73 23                        @ ../Middlewares/CMSIS/DSP/Src/ComplexMathFunctions/arm_cmplx_mult_cmplx_f64.c:73:23
	vmov	r0, r1, d1
	vmov	r2, r3, d0
	bl	__aeabi_dmul
	vldr	d0, [sp, #40]                   @ 8-byte Reload
	vmov	d1, r0, r1
	vmov	r0, r1, d1
	vmov	r2, r3, d0
	bl	__aeabi_dadd
	vmov	d0, r0, r1
	.loc	21 73 10                        @ ../Middlewares/CMSIS/DSP/Src/ComplexMathFunctions/arm_cmplx_mult_cmplx_f64.c:73:10
	ldr	r0, [sp, #92]
	add.w	r1, r0, #8
	str	r1, [sp, #92]
	.loc	21 73 13                        @ ../Middlewares/CMSIS/DSP/Src/ComplexMathFunctions/arm_cmplx_mult_cmplx_f64.c:73:13
	vstr	d0, [r0]
	.loc	21 76 11 is_stmt 1              @ ../Middlewares/CMSIS/DSP/Src/ComplexMathFunctions/arm_cmplx_mult_cmplx_f64.c:76:11
	ldr	r0, [sp, #84]
	subs	r0, #1
	str	r0, [sp, #84]
.Ltmp77:
	.loc	21 61 3                         @ ../Middlewares/CMSIS/DSP/Src/ComplexMathFunctions/arm_cmplx_mult_cmplx_f64.c:61:3
	b	.LBB16_1
.LBB16_3:
	.loc	21 79 1                         @ ../Middlewares/CMSIS/DSP/Src/ComplexMathFunctions/arm_cmplx_mult_cmplx_f64.c:79:1
	add	sp, #104
	pop	{r7, pc}
.Ltmp78:
.Lfunc_end16:
	.size	arm_cmplx_mult_cmplx_f64, .Lfunc_end16-arm_cmplx_mult_cmplx_f64
	.cfi_endproc
	.cantunwind
	.fnend
                                        @ -- End function
	.section	.text.arm_cmplx_mult_cmplx_q15,"ax",%progbits
	.hidden	arm_cmplx_mult_cmplx_q15        @ -- Begin function arm_cmplx_mult_cmplx_q15
	.globl	arm_cmplx_mult_cmplx_q15
	.p2align	2
	.type	arm_cmplx_mult_cmplx_q15,%function
	.code	16                              @ @arm_cmplx_mult_cmplx_q15
	.thumb_func
arm_cmplx_mult_cmplx_q15:
.Lfunc_begin17:
	.file	22 "D:\\horizon\\Horizon_Infantry (2)\\MDK-ARM" "../Middlewares/CMSIS/DSP/Src/ComplexMathFunctions/arm_cmplx_mult_cmplx_q15.c"
	.loc	22 178 0                        @ ../Middlewares/CMSIS/DSP/Src/ComplexMathFunctions/arm_cmplx_mult_cmplx_q15.c:178:0
	.fnstart
	.cfi_startproc
@ %bb.0:
	.pad	#28
	sub	sp, #28
	.cfi_def_cfa_offset 28
	str	r0, [sp, #24]
	str	r1, [sp, #20]
	str	r2, [sp, #16]
	str	r3, [sp, #12]
.Ltmp79:
	.loc	22 231 12 prologue_end          @ ../Middlewares/CMSIS/DSP/Src/ComplexMathFunctions/arm_cmplx_mult_cmplx_q15.c:231:12
	ldr	r0, [sp, #12]
	.loc	22 231 10 is_stmt 0             @ ../Middlewares/CMSIS/DSP/Src/ComplexMathFunctions/arm_cmplx_mult_cmplx_q15.c:231:10
	str	r0, [sp, #8]
	.loc	22 235 3 is_stmt 1              @ ../Middlewares/CMSIS/DSP/Src/ComplexMathFunctions/arm_cmplx_mult_cmplx_q15.c:235:3
	b	.LBB17_1
.LBB17_1:                               @ =>This Inner Loop Header: Depth=1
	.loc	22 235 10 is_stmt 0             @ ../Middlewares/CMSIS/DSP/Src/ComplexMathFunctions/arm_cmplx_mult_cmplx_q15.c:235:10
	ldr	r0, [sp, #8]
	.loc	22 235 3                        @ ../Middlewares/CMSIS/DSP/Src/ComplexMathFunctions/arm_cmplx_mult_cmplx_q15.c:235:3
	cmp	r0, #0
	beq	.LBB17_3
	b	.LBB17_2
.LBB17_2:                               @   in Loop: Header=BB17_1 Depth=1
.Ltmp80:
	.loc	22 240 15 is_stmt 1             @ ../Middlewares/CMSIS/DSP/Src/ComplexMathFunctions/arm_cmplx_mult_cmplx_q15.c:240:15
	ldr	r0, [sp, #24]
	adds	r1, r0, #2
	str	r1, [sp, #24]
	.loc	22 240 9 is_stmt 0              @ ../Middlewares/CMSIS/DSP/Src/ComplexMathFunctions/arm_cmplx_mult_cmplx_q15.c:240:9
	ldrh	r0, [r0]
	.loc	22 240 7                        @ ../Middlewares/CMSIS/DSP/Src/ComplexMathFunctions/arm_cmplx_mult_cmplx_q15.c:240:7
	strh.w	r0, [sp, #6]
	.loc	22 241 15 is_stmt 1             @ ../Middlewares/CMSIS/DSP/Src/ComplexMathFunctions/arm_cmplx_mult_cmplx_q15.c:241:15
	ldr	r0, [sp, #24]
	adds	r1, r0, #2
	str	r1, [sp, #24]
	.loc	22 241 9 is_stmt 0              @ ../Middlewares/CMSIS/DSP/Src/ComplexMathFunctions/arm_cmplx_mult_cmplx_q15.c:241:9
	ldrh	r0, [r0]
	.loc	22 241 7                        @ ../Middlewares/CMSIS/DSP/Src/ComplexMathFunctions/arm_cmplx_mult_cmplx_q15.c:241:7
	strh.w	r0, [sp, #4]
	.loc	22 242 15 is_stmt 1             @ ../Middlewares/CMSIS/DSP/Src/ComplexMathFunctions/arm_cmplx_mult_cmplx_q15.c:242:15
	ldr	r0, [sp, #20]
	adds	r1, r0, #2
	str	r1, [sp, #20]
	.loc	22 242 9 is_stmt 0              @ ../Middlewares/CMSIS/DSP/Src/ComplexMathFunctions/arm_cmplx_mult_cmplx_q15.c:242:9
	ldrh	r0, [r0]
	.loc	22 242 7                        @ ../Middlewares/CMSIS/DSP/Src/ComplexMathFunctions/arm_cmplx_mult_cmplx_q15.c:242:7
	strh.w	r0, [sp, #2]
	.loc	22 243 15 is_stmt 1             @ ../Middlewares/CMSIS/DSP/Src/ComplexMathFunctions/arm_cmplx_mult_cmplx_q15.c:243:15
	ldr	r0, [sp, #20]
	adds	r1, r0, #2
	str	r1, [sp, #20]
	.loc	22 243 9 is_stmt 0              @ ../Middlewares/CMSIS/DSP/Src/ComplexMathFunctions/arm_cmplx_mult_cmplx_q15.c:243:9
	ldrh	r0, [r0]
	.loc	22 243 7                        @ ../Middlewares/CMSIS/DSP/Src/ComplexMathFunctions/arm_cmplx_mult_cmplx_q15.c:243:7
	strh.w	r0, [sp]
	.loc	22 246 35 is_stmt 1             @ ../Middlewares/CMSIS/DSP/Src/ComplexMathFunctions/arm_cmplx_mult_cmplx_q15.c:246:35
	ldrsh.w	r0, [sp, #6]
	.loc	22 246 39 is_stmt 0             @ ../Middlewares/CMSIS/DSP/Src/ComplexMathFunctions/arm_cmplx_mult_cmplx_q15.c:246:39
	ldrsh.w	r1, [sp, #2]
	.loc	22 246 37                       @ ../Middlewares/CMSIS/DSP/Src/ComplexMathFunctions/arm_cmplx_mult_cmplx_q15.c:246:37
	muls	r0, r1, r0
	.loc	22 246 42                       @ ../Middlewares/CMSIS/DSP/Src/ComplexMathFunctions/arm_cmplx_mult_cmplx_q15.c:246:42
	asrs	r0, r0, #17
	.loc	22 246 61                       @ ../Middlewares/CMSIS/DSP/Src/ComplexMathFunctions/arm_cmplx_mult_cmplx_q15.c:246:61
	ldrsh.w	r1, [sp, #4]
	.loc	22 246 65                       @ ../Middlewares/CMSIS/DSP/Src/ComplexMathFunctions/arm_cmplx_mult_cmplx_q15.c:246:65
	ldrsh.w	r2, [sp]
	.loc	22 246 63                       @ ../Middlewares/CMSIS/DSP/Src/ComplexMathFunctions/arm_cmplx_mult_cmplx_q15.c:246:63
	muls	r1, r2, r1
	.loc	22 246 49                       @ ../Middlewares/CMSIS/DSP/Src/ComplexMathFunctions/arm_cmplx_mult_cmplx_q15.c:246:49
	sub.w	r0, r0, r1, asr #17
	.loc	22 246 10                       @ ../Middlewares/CMSIS/DSP/Src/ComplexMathFunctions/arm_cmplx_mult_cmplx_q15.c:246:10
	ldr	r1, [sp, #16]
	adds	r2, r1, #2
	str	r2, [sp, #16]
	.loc	22 246 13                       @ ../Middlewares/CMSIS/DSP/Src/ComplexMathFunctions/arm_cmplx_mult_cmplx_q15.c:246:13
	strh	r0, [r1]
	.loc	22 247 35 is_stmt 1             @ ../Middlewares/CMSIS/DSP/Src/ComplexMathFunctions/arm_cmplx_mult_cmplx_q15.c:247:35
	ldrsh.w	r0, [sp, #6]
	.loc	22 247 39 is_stmt 0             @ ../Middlewares/CMSIS/DSP/Src/ComplexMathFunctions/arm_cmplx_mult_cmplx_q15.c:247:39
	ldrsh.w	r1, [sp]
	.loc	22 247 37                       @ ../Middlewares/CMSIS/DSP/Src/ComplexMathFunctions/arm_cmplx_mult_cmplx_q15.c:247:37
	muls	r0, r1, r0
	.loc	22 247 42                       @ ../Middlewares/CMSIS/DSP/Src/ComplexMathFunctions/arm_cmplx_mult_cmplx_q15.c:247:42
	asrs	r0, r0, #17
	.loc	22 247 61                       @ ../Middlewares/CMSIS/DSP/Src/ComplexMathFunctions/arm_cmplx_mult_cmplx_q15.c:247:61
	ldrsh.w	r1, [sp, #4]
	.loc	22 247 65                       @ ../Middlewares/CMSIS/DSP/Src/ComplexMathFunctions/arm_cmplx_mult_cmplx_q15.c:247:65
	ldrsh.w	r2, [sp, #2]
	.loc	22 247 63                       @ ../Middlewares/CMSIS/DSP/Src/ComplexMathFunctions/arm_cmplx_mult_cmplx_q15.c:247:63
	muls	r1, r2, r1
	.loc	22 247 49                       @ ../Middlewares/CMSIS/DSP/Src/ComplexMathFunctions/arm_cmplx_mult_cmplx_q15.c:247:49
	add.w	r0, r0, r1, asr #17
	.loc	22 247 10                       @ ../Middlewares/CMSIS/DSP/Src/ComplexMathFunctions/arm_cmplx_mult_cmplx_q15.c:247:10
	ldr	r1, [sp, #16]
	adds	r2, r1, #2
	str	r2, [sp, #16]
	.loc	22 247 13                       @ ../Middlewares/CMSIS/DSP/Src/ComplexMathFunctions/arm_cmplx_mult_cmplx_q15.c:247:13
	strh	r0, [r1]
	.loc	22 250 11 is_stmt 1             @ ../Middlewares/CMSIS/DSP/Src/ComplexMathFunctions/arm_cmplx_mult_cmplx_q15.c:250:11
	ldr	r0, [sp, #8]
	subs	r0, #1
	str	r0, [sp, #8]
.Ltmp81:
	.loc	22 235 3                        @ ../Middlewares/CMSIS/DSP/Src/ComplexMathFunctions/arm_cmplx_mult_cmplx_q15.c:235:3
	b	.LBB17_1
.LBB17_3:
	.loc	22 253 1                        @ ../Middlewares/CMSIS/DSP/Src/ComplexMathFunctions/arm_cmplx_mult_cmplx_q15.c:253:1
	add	sp, #28
	bx	lr
.Ltmp82:
.Lfunc_end17:
	.size	arm_cmplx_mult_cmplx_q15, .Lfunc_end17-arm_cmplx_mult_cmplx_q15
	.cfi_endproc
	.cantunwind
	.fnend
                                        @ -- End function
	.section	.text.arm_cmplx_mult_cmplx_q31,"ax",%progbits
	.hidden	arm_cmplx_mult_cmplx_q31        @ -- Begin function arm_cmplx_mult_cmplx_q31
	.globl	arm_cmplx_mult_cmplx_q31
	.p2align	2
	.type	arm_cmplx_mult_cmplx_q31,%function
	.code	16                              @ @arm_cmplx_mult_cmplx_q31
	.thumb_func
arm_cmplx_mult_cmplx_q31:
.Lfunc_begin18:
	.file	23 "D:\\horizon\\Horizon_Infantry (2)\\MDK-ARM" "../Middlewares/CMSIS/DSP/Src/ComplexMathFunctions/arm_cmplx_mult_cmplx_q31.c"
	.loc	23 173 0                        @ ../Middlewares/CMSIS/DSP/Src/ComplexMathFunctions/arm_cmplx_mult_cmplx_q31.c:173:0
	.fnstart
	.cfi_startproc
@ %bb.0:
	.pad	#36
	sub	sp, #36
	.cfi_def_cfa_offset 36
	str	r0, [sp, #32]
	str	r1, [sp, #28]
	str	r2, [sp, #24]
	str	r3, [sp, #20]
.Ltmp83:
	.loc	23 226 12 prologue_end          @ ../Middlewares/CMSIS/DSP/Src/ComplexMathFunctions/arm_cmplx_mult_cmplx_q31.c:226:12
	ldr	r0, [sp, #20]
	.loc	23 226 10 is_stmt 0             @ ../Middlewares/CMSIS/DSP/Src/ComplexMathFunctions/arm_cmplx_mult_cmplx_q31.c:226:10
	str	r0, [sp, #16]
	.loc	23 230 3 is_stmt 1              @ ../Middlewares/CMSIS/DSP/Src/ComplexMathFunctions/arm_cmplx_mult_cmplx_q31.c:230:3
	b	.LBB18_1
.LBB18_1:                               @ =>This Inner Loop Header: Depth=1
	.loc	23 230 10 is_stmt 0             @ ../Middlewares/CMSIS/DSP/Src/ComplexMathFunctions/arm_cmplx_mult_cmplx_q31.c:230:10
	ldr	r0, [sp, #16]
	.loc	23 230 3                        @ ../Middlewares/CMSIS/DSP/Src/ComplexMathFunctions/arm_cmplx_mult_cmplx_q31.c:230:3
	cbz	r0, .LBB18_3
	b	.LBB18_2
.LBB18_2:                               @   in Loop: Header=BB18_1 Depth=1
.Ltmp84:
	.loc	23 235 15 is_stmt 1             @ ../Middlewares/CMSIS/DSP/Src/ComplexMathFunctions/arm_cmplx_mult_cmplx_q31.c:235:15
	ldr	r0, [sp, #32]
	adds	r1, r0, #4
	str	r1, [sp, #32]
	.loc	23 235 9 is_stmt 0              @ ../Middlewares/CMSIS/DSP/Src/ComplexMathFunctions/arm_cmplx_mult_cmplx_q31.c:235:9
	ldr	r0, [r0]
	.loc	23 235 7                        @ ../Middlewares/CMSIS/DSP/Src/ComplexMathFunctions/arm_cmplx_mult_cmplx_q31.c:235:7
	str	r0, [sp, #12]
	.loc	23 236 15 is_stmt 1             @ ../Middlewares/CMSIS/DSP/Src/ComplexMathFunctions/arm_cmplx_mult_cmplx_q31.c:236:15
	ldr	r0, [sp, #32]
	adds	r1, r0, #4
	str	r1, [sp, #32]
	.loc	23 236 9 is_stmt 0              @ ../Middlewares/CMSIS/DSP/Src/ComplexMathFunctions/arm_cmplx_mult_cmplx_q31.c:236:9
	ldr	r0, [r0]
	.loc	23 236 7                        @ ../Middlewares/CMSIS/DSP/Src/ComplexMathFunctions/arm_cmplx_mult_cmplx_q31.c:236:7
	str	r0, [sp, #8]
	.loc	23 237 15 is_stmt 1             @ ../Middlewares/CMSIS/DSP/Src/ComplexMathFunctions/arm_cmplx_mult_cmplx_q31.c:237:15
	ldr	r0, [sp, #28]
	adds	r1, r0, #4
	str	r1, [sp, #28]
	.loc	23 237 9 is_stmt 0              @ ../Middlewares/CMSIS/DSP/Src/ComplexMathFunctions/arm_cmplx_mult_cmplx_q31.c:237:9
	ldr	r0, [r0]
	.loc	23 237 7                        @ ../Middlewares/CMSIS/DSP/Src/ComplexMathFunctions/arm_cmplx_mult_cmplx_q31.c:237:7
	str	r0, [sp, #4]
	.loc	23 238 15 is_stmt 1             @ ../Middlewares/CMSIS/DSP/Src/ComplexMathFunctions/arm_cmplx_mult_cmplx_q31.c:238:15
	ldr	r0, [sp, #28]
	adds	r1, r0, #4
	str	r1, [sp, #28]
	.loc	23 238 9 is_stmt 0              @ ../Middlewares/CMSIS/DSP/Src/ComplexMathFunctions/arm_cmplx_mult_cmplx_q31.c:238:9
	ldr	r0, [r0]
	.loc	23 238 7                        @ ../Middlewares/CMSIS/DSP/Src/ComplexMathFunctions/arm_cmplx_mult_cmplx_q31.c:238:7
	str	r0, [sp]
	.loc	23 241 35 is_stmt 1             @ ../Middlewares/CMSIS/DSP/Src/ComplexMathFunctions/arm_cmplx_mult_cmplx_q31.c:241:35
	ldr	r0, [sp, #12]
	.loc	23 241 39 is_stmt 0             @ ../Middlewares/CMSIS/DSP/Src/ComplexMathFunctions/arm_cmplx_mult_cmplx_q31.c:241:39
	ldr	r1, [sp, #4]
	.loc	23 241 37                       @ ../Middlewares/CMSIS/DSP/Src/ComplexMathFunctions/arm_cmplx_mult_cmplx_q31.c:241:37
	smmul	r0, r0, r1
	.loc	23 241 42                       @ ../Middlewares/CMSIS/DSP/Src/ComplexMathFunctions/arm_cmplx_mult_cmplx_q31.c:241:42
	asrs	r0, r0, #1
	.loc	23 241 61                       @ ../Middlewares/CMSIS/DSP/Src/ComplexMathFunctions/arm_cmplx_mult_cmplx_q31.c:241:61
	ldr	r1, [sp, #8]
	.loc	23 241 65                       @ ../Middlewares/CMSIS/DSP/Src/ComplexMathFunctions/arm_cmplx_mult_cmplx_q31.c:241:65
	ldr	r2, [sp]
	.loc	23 241 63                       @ ../Middlewares/CMSIS/DSP/Src/ComplexMathFunctions/arm_cmplx_mult_cmplx_q31.c:241:63
	smmul	r1, r1, r2
	.loc	23 241 49                       @ ../Middlewares/CMSIS/DSP/Src/ComplexMathFunctions/arm_cmplx_mult_cmplx_q31.c:241:49
	sub.w	r0, r0, r1, asr #1
	.loc	23 241 10                       @ ../Middlewares/CMSIS/DSP/Src/ComplexMathFunctions/arm_cmplx_mult_cmplx_q31.c:241:10
	ldr	r1, [sp, #24]
	adds	r2, r1, #4
	str	r2, [sp, #24]
	.loc	23 241 13                       @ ../Middlewares/CMSIS/DSP/Src/ComplexMathFunctions/arm_cmplx_mult_cmplx_q31.c:241:13
	str	r0, [r1]
	.loc	23 242 35 is_stmt 1             @ ../Middlewares/CMSIS/DSP/Src/ComplexMathFunctions/arm_cmplx_mult_cmplx_q31.c:242:35
	ldr	r0, [sp, #12]
	.loc	23 242 39 is_stmt 0             @ ../Middlewares/CMSIS/DSP/Src/ComplexMathFunctions/arm_cmplx_mult_cmplx_q31.c:242:39
	ldr	r1, [sp]
	.loc	23 242 37                       @ ../Middlewares/CMSIS/DSP/Src/ComplexMathFunctions/arm_cmplx_mult_cmplx_q31.c:242:37
	smmul	r0, r0, r1
	.loc	23 242 42                       @ ../Middlewares/CMSIS/DSP/Src/ComplexMathFunctions/arm_cmplx_mult_cmplx_q31.c:242:42
	asrs	r0, r0, #1
	.loc	23 242 61                       @ ../Middlewares/CMSIS/DSP/Src/ComplexMathFunctions/arm_cmplx_mult_cmplx_q31.c:242:61
	ldr	r1, [sp, #8]
	.loc	23 242 65                       @ ../Middlewares/CMSIS/DSP/Src/ComplexMathFunctions/arm_cmplx_mult_cmplx_q31.c:242:65
	ldr	r2, [sp, #4]
	.loc	23 242 63                       @ ../Middlewares/CMSIS/DSP/Src/ComplexMathFunctions/arm_cmplx_mult_cmplx_q31.c:242:63
	smmul	r1, r1, r2
	.loc	23 242 49                       @ ../Middlewares/CMSIS/DSP/Src/ComplexMathFunctions/arm_cmplx_mult_cmplx_q31.c:242:49
	add.w	r0, r0, r1, asr #1
	.loc	23 242 10                       @ ../Middlewares/CMSIS/DSP/Src/ComplexMathFunctions/arm_cmplx_mult_cmplx_q31.c:242:10
	ldr	r1, [sp, #24]
	adds	r2, r1, #4
	str	r2, [sp, #24]
	.loc	23 242 13                       @ ../Middlewares/CMSIS/DSP/Src/ComplexMathFunctions/arm_cmplx_mult_cmplx_q31.c:242:13
	str	r0, [r1]
	.loc	23 245 11 is_stmt 1             @ ../Middlewares/CMSIS/DSP/Src/ComplexMathFunctions/arm_cmplx_mult_cmplx_q31.c:245:11
	ldr	r0, [sp, #16]
	subs	r0, #1
	str	r0, [sp, #16]
.Ltmp85:
	.loc	23 230 3                        @ ../Middlewares/CMSIS/DSP/Src/ComplexMathFunctions/arm_cmplx_mult_cmplx_q31.c:230:3
	b	.LBB18_1
.LBB18_3:
	.loc	23 248 1                        @ ../Middlewares/CMSIS/DSP/Src/ComplexMathFunctions/arm_cmplx_mult_cmplx_q31.c:248:1
	add	sp, #36
	bx	lr
.Ltmp86:
.Lfunc_end18:
	.size	arm_cmplx_mult_cmplx_q31, .Lfunc_end18-arm_cmplx_mult_cmplx_q31
	.cfi_endproc
	.cantunwind
	.fnend
                                        @ -- End function
	.section	.text.arm_cmplx_mult_real_f32,"ax",%progbits
	.hidden	arm_cmplx_mult_real_f32         @ -- Begin function arm_cmplx_mult_real_f32
	.globl	arm_cmplx_mult_real_f32
	.p2align	2
	.type	arm_cmplx_mult_real_f32,%function
	.code	16                              @ @arm_cmplx_mult_real_f32
	.thumb_func
arm_cmplx_mult_real_f32:
.Lfunc_begin19:
	.file	24 "D:\\horizon\\Horizon_Infantry (2)\\MDK-ARM" "../Middlewares/CMSIS/DSP/Src/ComplexMathFunctions/arm_cmplx_mult_real_f32.c"
	.loc	24 131 0                        @ ../Middlewares/CMSIS/DSP/Src/ComplexMathFunctions/arm_cmplx_mult_real_f32.c:131:0
	.fnstart
	.cfi_startproc
@ %bb.0:
	.pad	#24
	sub	sp, #24
	.cfi_def_cfa_offset 24
	str	r0, [sp, #20]
	str	r1, [sp, #16]
	str	r2, [sp, #12]
	str	r3, [sp, #8]
.Ltmp87:
	.loc	24 200 12 prologue_end          @ ../Middlewares/CMSIS/DSP/Src/ComplexMathFunctions/arm_cmplx_mult_real_f32.c:200:12
	ldr	r0, [sp, #8]
	.loc	24 200 10 is_stmt 0             @ ../Middlewares/CMSIS/DSP/Src/ComplexMathFunctions/arm_cmplx_mult_real_f32.c:200:10
	str	r0, [sp, #4]
	.loc	24 205 3 is_stmt 1              @ ../Middlewares/CMSIS/DSP/Src/ComplexMathFunctions/arm_cmplx_mult_real_f32.c:205:3
	b	.LBB19_1
.LBB19_1:                               @ =>This Inner Loop Header: Depth=1
	.loc	24 205 10 is_stmt 0             @ ../Middlewares/CMSIS/DSP/Src/ComplexMathFunctions/arm_cmplx_mult_real_f32.c:205:10
	ldr	r0, [sp, #4]
	.loc	24 205 3                        @ ../Middlewares/CMSIS/DSP/Src/ComplexMathFunctions/arm_cmplx_mult_real_f32.c:205:3
	cbz	r0, .LBB19_3
	b	.LBB19_2
.LBB19_2:                               @   in Loop: Header=BB19_1 Depth=1
.Ltmp88:
	.loc	24 210 19 is_stmt 1             @ ../Middlewares/CMSIS/DSP/Src/ComplexMathFunctions/arm_cmplx_mult_real_f32.c:210:19
	ldr	r0, [sp, #16]
	adds	r1, r0, #4
	str	r1, [sp, #16]
	.loc	24 210 10 is_stmt 0             @ ../Middlewares/CMSIS/DSP/Src/ComplexMathFunctions/arm_cmplx_mult_real_f32.c:210:10
	ldr	r0, [r0]
	.loc	24 210 8                        @ ../Middlewares/CMSIS/DSP/Src/ComplexMathFunctions/arm_cmplx_mult_real_f32.c:210:8
	str	r0, [sp]
	.loc	24 212 30 is_stmt 1             @ ../Middlewares/CMSIS/DSP/Src/ComplexMathFunctions/arm_cmplx_mult_real_f32.c:212:30
	ldr	r0, [sp, #20]
	adds	r1, r0, #4
	str	r1, [sp, #20]
	.loc	24 212 20 is_stmt 0             @ ../Middlewares/CMSIS/DSP/Src/ComplexMathFunctions/arm_cmplx_mult_real_f32.c:212:20
	vldr	s0, [r0]
	.loc	24 212 35                       @ ../Middlewares/CMSIS/DSP/Src/ComplexMathFunctions/arm_cmplx_mult_real_f32.c:212:35
	vldr	s2, [sp]
	.loc	24 212 33                       @ ../Middlewares/CMSIS/DSP/Src/ComplexMathFunctions/arm_cmplx_mult_real_f32.c:212:33
	vmul.f32	s0, s0, s2
	.loc	24 212 15                       @ ../Middlewares/CMSIS/DSP/Src/ComplexMathFunctions/arm_cmplx_mult_real_f32.c:212:15
	ldr	r0, [sp, #12]
	adds	r1, r0, #4
	str	r1, [sp, #12]
	.loc	24 212 18                       @ ../Middlewares/CMSIS/DSP/Src/ComplexMathFunctions/arm_cmplx_mult_real_f32.c:212:18
	vstr	s0, [r0]
	.loc	24 213 30 is_stmt 1             @ ../Middlewares/CMSIS/DSP/Src/ComplexMathFunctions/arm_cmplx_mult_real_f32.c:213:30
	ldr	r0, [sp, #20]
	adds	r1, r0, #4
	str	r1, [sp, #20]
	.loc	24 213 20 is_stmt 0             @ ../Middlewares/CMSIS/DSP/Src/ComplexMathFunctions/arm_cmplx_mult_real_f32.c:213:20
	vldr	s0, [r0]
	.loc	24 213 35                       @ ../Middlewares/CMSIS/DSP/Src/ComplexMathFunctions/arm_cmplx_mult_real_f32.c:213:35
	vldr	s2, [sp]
	.loc	24 213 33                       @ ../Middlewares/CMSIS/DSP/Src/ComplexMathFunctions/arm_cmplx_mult_real_f32.c:213:33
	vmul.f32	s0, s0, s2
	.loc	24 213 15                       @ ../Middlewares/CMSIS/DSP/Src/ComplexMathFunctions/arm_cmplx_mult_real_f32.c:213:15
	ldr	r0, [sp, #12]
	adds	r1, r0, #4
	str	r1, [sp, #12]
	.loc	24 213 18                       @ ../Middlewares/CMSIS/DSP/Src/ComplexMathFunctions/arm_cmplx_mult_real_f32.c:213:18
	vstr	s0, [r0]
	.loc	24 216 11 is_stmt 1             @ ../Middlewares/CMSIS/DSP/Src/ComplexMathFunctions/arm_cmplx_mult_real_f32.c:216:11
	ldr	r0, [sp, #4]
	subs	r0, #1
	str	r0, [sp, #4]
.Ltmp89:
	.loc	24 205 3                        @ ../Middlewares/CMSIS/DSP/Src/ComplexMathFunctions/arm_cmplx_mult_real_f32.c:205:3
	b	.LBB19_1
.LBB19_3:
	.loc	24 219 1                        @ ../Middlewares/CMSIS/DSP/Src/ComplexMathFunctions/arm_cmplx_mult_real_f32.c:219:1
	add	sp, #24
	bx	lr
.Ltmp90:
.Lfunc_end19:
	.size	arm_cmplx_mult_real_f32, .Lfunc_end19-arm_cmplx_mult_real_f32
	.cfi_endproc
	.cantunwind
	.fnend
                                        @ -- End function
	.section	.text.arm_cmplx_mult_real_q15,"ax",%progbits
	.hidden	arm_cmplx_mult_real_q15         @ -- Begin function arm_cmplx_mult_real_q15
	.globl	arm_cmplx_mult_real_q15
	.p2align	2
	.type	arm_cmplx_mult_real_q15,%function
	.code	16                              @ @arm_cmplx_mult_real_q15
	.thumb_func
arm_cmplx_mult_real_q15:
.Lfunc_begin20:
	.file	25 "D:\\horizon\\Horizon_Infantry (2)\\MDK-ARM" "../Middlewares/CMSIS/DSP/Src/ComplexMathFunctions/arm_cmplx_mult_real_q15.c"
	.loc	25 113 0                        @ ../Middlewares/CMSIS/DSP/Src/ComplexMathFunctions/arm_cmplx_mult_real_q15.c:113:0
	.fnstart
	.cfi_startproc
@ %bb.0:
	.pad	#24
	sub	sp, #24
	.cfi_def_cfa_offset 24
	str	r0, [sp, #20]
	str	r1, [sp, #16]
	str	r2, [sp, #12]
	str	r3, [sp, #8]
.Ltmp91:
	.loc	25 215 12 prologue_end          @ ../Middlewares/CMSIS/DSP/Src/ComplexMathFunctions/arm_cmplx_mult_real_q15.c:215:12
	ldr	r0, [sp, #8]
	.loc	25 215 10 is_stmt 0             @ ../Middlewares/CMSIS/DSP/Src/ComplexMathFunctions/arm_cmplx_mult_real_q15.c:215:10
	str	r0, [sp, #4]
	.loc	25 219 3 is_stmt 1              @ ../Middlewares/CMSIS/DSP/Src/ComplexMathFunctions/arm_cmplx_mult_real_q15.c:219:3
	b	.LBB20_1
.LBB20_1:                               @ =>This Inner Loop Header: Depth=1
	.loc	25 219 10 is_stmt 0             @ ../Middlewares/CMSIS/DSP/Src/ComplexMathFunctions/arm_cmplx_mult_real_q15.c:219:10
	ldr	r0, [sp, #4]
	.loc	25 219 3                        @ ../Middlewares/CMSIS/DSP/Src/ComplexMathFunctions/arm_cmplx_mult_real_q15.c:219:3
	cbz	r0, .LBB20_3
	b	.LBB20_2
.LBB20_2:                               @   in Loop: Header=BB20_1 Depth=1
.Ltmp92:
	.loc	25 224 19 is_stmt 1             @ ../Middlewares/CMSIS/DSP/Src/ComplexMathFunctions/arm_cmplx_mult_real_q15.c:224:19
	ldr	r0, [sp, #16]
	adds	r1, r0, #2
	str	r1, [sp, #16]
	.loc	25 224 10 is_stmt 0             @ ../Middlewares/CMSIS/DSP/Src/ComplexMathFunctions/arm_cmplx_mult_real_q15.c:224:10
	ldrh	r0, [r0]
	.loc	25 224 8                        @ ../Middlewares/CMSIS/DSP/Src/ComplexMathFunctions/arm_cmplx_mult_real_q15.c:224:8
	strh.w	r0, [sp, #2]
	.loc	25 226 67 is_stmt 1             @ ../Middlewares/CMSIS/DSP/Src/ComplexMathFunctions/arm_cmplx_mult_real_q15.c:226:67
	ldr	r0, [sp, #20]
	adds	r1, r0, #2
	str	r1, [sp, #20]
	.loc	25 226 57 is_stmt 0             @ ../Middlewares/CMSIS/DSP/Src/ComplexMathFunctions/arm_cmplx_mult_real_q15.c:226:57
	ldrsh.w	r0, [r0]
	.loc	25 226 72                       @ ../Middlewares/CMSIS/DSP/Src/ComplexMathFunctions/arm_cmplx_mult_real_q15.c:226:72
	ldrsh.w	r1, [sp, #2]
	.loc	25 226 70                       @ ../Middlewares/CMSIS/DSP/Src/ComplexMathFunctions/arm_cmplx_mult_real_q15.c:226:70
	muls	r0, r1, r0
	.loc	25 226 28                       @ ../Middlewares/CMSIS/DSP/Src/ComplexMathFunctions/arm_cmplx_mult_real_q15.c:226:28
	ssat	r0, #16, r0, asr #15
	.loc	25 226 15                       @ ../Middlewares/CMSIS/DSP/Src/ComplexMathFunctions/arm_cmplx_mult_real_q15.c:226:15
	ldr	r1, [sp, #12]
	adds	r2, r1, #2
	str	r2, [sp, #12]
	.loc	25 226 18                       @ ../Middlewares/CMSIS/DSP/Src/ComplexMathFunctions/arm_cmplx_mult_real_q15.c:226:18
	strh	r0, [r1]
	.loc	25 227 67 is_stmt 1             @ ../Middlewares/CMSIS/DSP/Src/ComplexMathFunctions/arm_cmplx_mult_real_q15.c:227:67
	ldr	r0, [sp, #20]
	adds	r1, r0, #2
	str	r1, [sp, #20]
	.loc	25 227 57 is_stmt 0             @ ../Middlewares/CMSIS/DSP/Src/ComplexMathFunctions/arm_cmplx_mult_real_q15.c:227:57
	ldrsh.w	r0, [r0]
	.loc	25 227 72                       @ ../Middlewares/CMSIS/DSP/Src/ComplexMathFunctions/arm_cmplx_mult_real_q15.c:227:72
	ldrsh.w	r1, [sp, #2]
	.loc	25 227 70                       @ ../Middlewares/CMSIS/DSP/Src/ComplexMathFunctions/arm_cmplx_mult_real_q15.c:227:70
	muls	r0, r1, r0
	.loc	25 227 28                       @ ../Middlewares/CMSIS/DSP/Src/ComplexMathFunctions/arm_cmplx_mult_real_q15.c:227:28
	ssat	r0, #16, r0, asr #15
	.loc	25 227 15                       @ ../Middlewares/CMSIS/DSP/Src/ComplexMathFunctions/arm_cmplx_mult_real_q15.c:227:15
	ldr	r1, [sp, #12]
	adds	r2, r1, #2
	str	r2, [sp, #12]
	.loc	25 227 18                       @ ../Middlewares/CMSIS/DSP/Src/ComplexMathFunctions/arm_cmplx_mult_real_q15.c:227:18
	strh	r0, [r1]
	.loc	25 230 11 is_stmt 1             @ ../Middlewares/CMSIS/DSP/Src/ComplexMathFunctions/arm_cmplx_mult_real_q15.c:230:11
	ldr	r0, [sp, #4]
	subs	r0, #1
	str	r0, [sp, #4]
.Ltmp93:
	.loc	25 219 3                        @ ../Middlewares/CMSIS/DSP/Src/ComplexMathFunctions/arm_cmplx_mult_real_q15.c:219:3
	b	.LBB20_1
.LBB20_3:
	.loc	25 233 1                        @ ../Middlewares/CMSIS/DSP/Src/ComplexMathFunctions/arm_cmplx_mult_real_q15.c:233:1
	add	sp, #24
	bx	lr
.Ltmp94:
.Lfunc_end20:
	.size	arm_cmplx_mult_real_q15, .Lfunc_end20-arm_cmplx_mult_real_q15
	.cfi_endproc
	.cantunwind
	.fnend
                                        @ -- End function
	.section	.text.arm_cmplx_mult_real_q31,"ax",%progbits
	.hidden	arm_cmplx_mult_real_q31         @ -- Begin function arm_cmplx_mult_real_q31
	.globl	arm_cmplx_mult_real_q31
	.p2align	2
	.type	arm_cmplx_mult_real_q31,%function
	.code	16                              @ @arm_cmplx_mult_real_q31
	.thumb_func
arm_cmplx_mult_real_q31:
.Lfunc_begin21:
	.file	26 "D:\\horizon\\Horizon_Infantry (2)\\MDK-ARM" "../Middlewares/CMSIS/DSP/Src/ComplexMathFunctions/arm_cmplx_mult_real_q31.c"
	.loc	26 113 0                        @ ../Middlewares/CMSIS/DSP/Src/ComplexMathFunctions/arm_cmplx_mult_real_q31.c:113:0
	.fnstart
	.cfi_startproc
@ %bb.0:
	.pad	#24
	sub	sp, #24
	.cfi_def_cfa_offset 24
	str	r0, [sp, #20]
	str	r1, [sp, #16]
	str	r2, [sp, #12]
	str	r3, [sp, #8]
.Ltmp95:
	.loc	26 175 12 prologue_end          @ ../Middlewares/CMSIS/DSP/Src/ComplexMathFunctions/arm_cmplx_mult_real_q31.c:175:12
	ldr	r0, [sp, #8]
	.loc	26 175 10 is_stmt 0             @ ../Middlewares/CMSIS/DSP/Src/ComplexMathFunctions/arm_cmplx_mult_real_q31.c:175:10
	str	r0, [sp, #4]
	.loc	26 179 3 is_stmt 1              @ ../Middlewares/CMSIS/DSP/Src/ComplexMathFunctions/arm_cmplx_mult_real_q31.c:179:3
	b	.LBB21_1
.LBB21_1:                               @ =>This Inner Loop Header: Depth=1
	.loc	26 179 10 is_stmt 0             @ ../Middlewares/CMSIS/DSP/Src/ComplexMathFunctions/arm_cmplx_mult_real_q31.c:179:10
	ldr	r0, [sp, #4]
	.loc	26 179 3                        @ ../Middlewares/CMSIS/DSP/Src/ComplexMathFunctions/arm_cmplx_mult_real_q31.c:179:3
	cbz	r0, .LBB21_3
	b	.LBB21_2
.LBB21_2:                               @   in Loop: Header=BB21_1 Depth=1
.Ltmp96:
	.loc	26 184 19 is_stmt 1             @ ../Middlewares/CMSIS/DSP/Src/ComplexMathFunctions/arm_cmplx_mult_real_q31.c:184:19
	ldr	r0, [sp, #16]
	adds	r1, r0, #4
	str	r1, [sp, #16]
	.loc	26 184 10 is_stmt 0             @ ../Middlewares/CMSIS/DSP/Src/ComplexMathFunctions/arm_cmplx_mult_real_q31.c:184:10
	ldr	r0, [r0]
	.loc	26 184 8                        @ ../Middlewares/CMSIS/DSP/Src/ComplexMathFunctions/arm_cmplx_mult_real_q31.c:184:8
	str	r0, [sp]
	.loc	26 187 68 is_stmt 1             @ ../Middlewares/CMSIS/DSP/Src/ComplexMathFunctions/arm_cmplx_mult_real_q31.c:187:68
	ldr	r0, [sp, #20]
	adds	r1, r0, #4
	str	r1, [sp, #20]
	.loc	26 187 58 is_stmt 0             @ ../Middlewares/CMSIS/DSP/Src/ComplexMathFunctions/arm_cmplx_mult_real_q31.c:187:58
	ldr	r0, [r0]
	.loc	26 187 73                       @ ../Middlewares/CMSIS/DSP/Src/ComplexMathFunctions/arm_cmplx_mult_real_q31.c:187:73
	ldr	r1, [sp]
	.loc	26 187 77                       @ ../Middlewares/CMSIS/DSP/Src/ComplexMathFunctions/arm_cmplx_mult_real_q31.c:187:77
	smmul	r0, r0, r1
	.loc	26 187 21                       @ ../Middlewares/CMSIS/DSP/Src/ComplexMathFunctions/arm_cmplx_mult_real_q31.c:187:21
	ssat	r0, #31, r0
	.loc	26 187 89                       @ ../Middlewares/CMSIS/DSP/Src/ComplexMathFunctions/arm_cmplx_mult_real_q31.c:187:89
	lsls	r0, r0, #1
	.loc	26 187 15                       @ ../Middlewares/CMSIS/DSP/Src/ComplexMathFunctions/arm_cmplx_mult_real_q31.c:187:15
	ldr	r1, [sp, #12]
	adds	r2, r1, #4
	str	r2, [sp, #12]
	.loc	26 187 18                       @ ../Middlewares/CMSIS/DSP/Src/ComplexMathFunctions/arm_cmplx_mult_real_q31.c:187:18
	str	r0, [r1]
	.loc	26 188 68 is_stmt 1             @ ../Middlewares/CMSIS/DSP/Src/ComplexMathFunctions/arm_cmplx_mult_real_q31.c:188:68
	ldr	r0, [sp, #20]
	adds	r1, r0, #4
	str	r1, [sp, #20]
	.loc	26 188 58 is_stmt 0             @ ../Middlewares/CMSIS/DSP/Src/ComplexMathFunctions/arm_cmplx_mult_real_q31.c:188:58
	ldr	r0, [r0]
	.loc	26 188 73                       @ ../Middlewares/CMSIS/DSP/Src/ComplexMathFunctions/arm_cmplx_mult_real_q31.c:188:73
	ldr	r1, [sp]
	.loc	26 188 77                       @ ../Middlewares/CMSIS/DSP/Src/ComplexMathFunctions/arm_cmplx_mult_real_q31.c:188:77
	smmul	r0, r0, r1
	.loc	26 188 21                       @ ../Middlewares/CMSIS/DSP/Src/ComplexMathFunctions/arm_cmplx_mult_real_q31.c:188:21
	ssat	r0, #31, r0
	.loc	26 188 89                       @ ../Middlewares/CMSIS/DSP/Src/ComplexMathFunctions/arm_cmplx_mult_real_q31.c:188:89
	lsls	r0, r0, #1
	.loc	26 188 15                       @ ../Middlewares/CMSIS/DSP/Src/ComplexMathFunctions/arm_cmplx_mult_real_q31.c:188:15
	ldr	r1, [sp, #12]
	adds	r2, r1, #4
	str	r2, [sp, #12]
	.loc	26 188 18                       @ ../Middlewares/CMSIS/DSP/Src/ComplexMathFunctions/arm_cmplx_mult_real_q31.c:188:18
	str	r0, [r1]
	.loc	26 196 11 is_stmt 1             @ ../Middlewares/CMSIS/DSP/Src/ComplexMathFunctions/arm_cmplx_mult_real_q31.c:196:11
	ldr	r0, [sp, #4]
	subs	r0, #1
	str	r0, [sp, #4]
.Ltmp97:
	.loc	26 179 3                        @ ../Middlewares/CMSIS/DSP/Src/ComplexMathFunctions/arm_cmplx_mult_real_q31.c:179:3
	b	.LBB21_1
.LBB21_3:
	.loc	26 199 1                        @ ../Middlewares/CMSIS/DSP/Src/ComplexMathFunctions/arm_cmplx_mult_real_q31.c:199:1
	add	sp, #24
	bx	lr
.Ltmp98:
.Lfunc_end21:
	.size	arm_cmplx_mult_real_q31, .Lfunc_end21-arm_cmplx_mult_real_q31
	.cfi_endproc
	.cantunwind
	.fnend
                                        @ -- End function
	.section	.text._sqrtf,"ax",%progbits
	.p2align	2                               @ -- Begin function _sqrtf
	.type	_sqrtf,%function
	.code	16                              @ @_sqrtf
	.thumb_func
_sqrtf:
.Lfunc_begin22:
	.file	27 "D:\\" "kevil\\ARM\\ARMCLANG\\Bin\\..\\include\\math.h"
	.loc	27 425 0                        @ kevil\ARM\ARMCLANG\Bin\..\include\math.h:425:0
	.fnstart
	.cfi_startproc
@ %bb.0:
	.pad	#8
	sub	sp, #8
	.cfi_def_cfa_offset 8
	vstr	s0, [sp]
.Ltmp99:
	.loc	27 425 62 prologue_end          @ kevil\ARM\ARMCLANG\Bin\..\include\math.h:425:62
	ldr	r0, [sp]
	str	r0, [sp, #4]
.Ltmp100:
	.loc	27 415 7                        @ kevil\ARM\ARMCLANG\Bin\..\include\math.h:415:7
	vldr	s0, [sp, #4]
	@APP
	vsqrt.f32	s0, s0
	@NO_APP
	vstr	s0, [sp, #4]
	.loc	27 422 14                       @ kevil\ARM\ARMCLANG\Bin\..\include\math.h:422:14
	vldr	s0, [sp, #4]
.Ltmp101:
	.loc	27 425 47                       @ kevil\ARM\ARMCLANG\Bin\..\include\math.h:425:47
	add	sp, #8
	bx	lr
.Ltmp102:
.Lfunc_end22:
	.size	_sqrtf, .Lfunc_end22-_sqrtf
	.cfi_endproc
	.cantunwind
	.fnend
                                        @ -- End function
	.section	".note.GNU-stack","",%progbits
	.eabi_attribute	30, 6	@ Tag_ABI_optimization_goals
	.ARM_attribute	16, 1	@ Tag_AV_eba