	.text
	.syntax unified
	.eabi_attribute	67, "2.09"	@ Tag_conformance
	.cpu	cortex-m4
	.eabi_attribute	6, 13	@ Tag_CPU_arch
	.eabi_attribute	7, 77	@ Tag_CPU_arch_profile
	.eabi_attribute	8, 0	@ Tag_ARM_ISA_use
	.eabi_attribute	9, 2	@ Tag_THUMB_ISA_use
	.fpu	fpv4-sp-d16
	.eabi_attribute	27, 1	@ Tag_ABI_HardFP_use
	.eabi_attribute	36, 1	@ Tag_FP_HP_extension
	.eabi_attribute	34, 1	@ Tag_CPU_unaligned_access
	.eabi_attribute	17, 1	@ Tag_ABI_PCS_GOT_use
	.eabi_attribute	20, 2	@ Tag_ABI_FP_denormal
	.eabi_attribute	21, 0	@ Tag_ABI_FP_exceptions
	.eabi_attribute	23, 1	@ Tag_ABI_FP_number_model
	.eabi_attribute	24, 1	@ Tag_ABI_align_needed
	.eabi_attribute	25, 1	@ Tag_ABI_align_preserved
	.eabi_attribute	28, 1	@ Tag_ABI_VFP_args
	.eabi_attribute	38, 1	@ Tag_ABI_FP_16bit_format
	.eabi_attribute	18, 2	@ Tag_ABI_PCS_wchar_t
	.eabi_attribute	26, 1	@ Tag_ABI_enum_size
	.eabi_attribute	14, 0	@ Tag_ABI_PCS_R9_use
	.file	"ControllerFunctions.c"
	.file	1 "D:\\horizon\\Horizon_Infantry (2)\\MDK-ARM" "../Middlewares/CMSIS/DSP/Inc\\arm_math_types.h"
	.file	2 "D:\\" "kevil\\ARM\\ARMCLANG\\Bin\\..\\include\\stdint.h"
	.section	.text.arm_pid_init_f32,"ax",%progbits
	.hidden	arm_pid_init_f32                @ -- Begin function arm_pid_init_f32
	.globl	arm_pid_init_f32
	.p2align	2
	.type	arm_pid_init_f32,%function
	.code	16                              @ @arm_pid_init_f32
	.thumb_func
arm_pid_init_f32:
.Lfunc_begin0:
	.file	3 "D:\\horizon\\Horizon_Infantry (2)\\MDK-ARM" "../Middlewares/CMSIS/DSP/Src/ControllerFunctions/arm_pid_init_f32.c"
	.loc	3 54 0                          @ ../Middlewares/CMSIS/DSP/Src/ControllerFunctions/arm_pid_init_f32.c:54:0
	.fnstart
	.cfi_sections .debug_frame
	.cfi_startproc
@ %bb.0:
	.pad	#8
	sub	sp, #8
	.cfi_def_cfa_offset 8
	str	r0, [sp, #4]
	str	r1, [sp]
.Ltmp0:
	.loc	3 56 11 prologue_end            @ ../Middlewares/CMSIS/DSP/Src/ControllerFunctions/arm_pid_init_f32.c:56:11
	ldr	r0, [sp, #4]
	.loc	3 56 14 is_stmt 0               @ ../Middlewares/CMSIS/DSP/Src/ControllerFunctions/arm_pid_init_f32.c:56:14
	vldr	s0, [r0, #24]
	.loc	3 56 22                         @ ../Middlewares/CMSIS/DSP/Src/ControllerFunctions/arm_pid_init_f32.c:56:22
	vldr	s4, [r0, #28]
	.loc	3 56 30                         @ ../Middlewares/CMSIS/DSP/Src/ControllerFunctions/arm_pid_init_f32.c:56:30
	vldr	s2, [r0, #32]
	.loc	3 56 17                         @ ../Middlewares/CMSIS/DSP/Src/ControllerFunctions/arm_pid_init_f32.c:56:17
	vadd.f32	s0, s0, s4
	.loc	3 56 25                         @ ../Middlewares/CMSIS/DSP/Src/ControllerFunctions/arm_pid_init_f32.c:56:25
	vadd.f32	s0, s0, s2
	.loc	3 56 9                          @ ../Middlewares/CMSIS/DSP/Src/ControllerFunctions/arm_pid_init_f32.c:56:9
	vstr	s0, [r0]
	.loc	3 59 13 is_stmt 1               @ ../Middlewares/CMSIS/DSP/Src/ControllerFunctions/arm_pid_init_f32.c:59:13
	ldr	r0, [sp, #4]
	.loc	3 59 16 is_stmt 0               @ ../Middlewares/CMSIS/DSP/Src/ControllerFunctions/arm_pid_init_f32.c:59:16
	vldr	s2, [r0, #24]
	.loc	3 59 45                         @ ../Middlewares/CMSIS/DSP/Src/ControllerFunctions/arm_pid_init_f32.c:59:45
	vldr	s0, [r0, #32]
	vmov.f32	s4, #-2.000000e+00
	.loc	3 59 20                         @ ../Middlewares/CMSIS/DSP/Src/ControllerFunctions/arm_pid_init_f32.c:59:20
	vmul.f32	s0, s0, s4
	vsub.f32	s0, s0, s2
	.loc	3 59 9                          @ ../Middlewares/CMSIS/DSP/Src/ControllerFunctions/arm_pid_init_f32.c:59:9
	vstr	s0, [r0, #4]
	.loc	3 62 11 is_stmt 1               @ ../Middlewares/CMSIS/DSP/Src/ControllerFunctions/arm_pid_init_f32.c:62:11
	ldr	r1, [sp, #4]
	.loc	3 62 14 is_stmt 0               @ ../Middlewares/CMSIS/DSP/Src/ControllerFunctions/arm_pid_init_f32.c:62:14
	ldr	r0, [r1, #32]
	.loc	3 62 9                          @ ../Middlewares/CMSIS/DSP/Src/ControllerFunctions/arm_pid_init_f32.c:62:9
	str	r0, [r1, #8]
.Ltmp1:
	.loc	3 65 7 is_stmt 1                @ ../Middlewares/CMSIS/DSP/Src/ControllerFunctions/arm_pid_init_f32.c:65:7
	ldr	r0, [sp]
.Ltmp2:
	.loc	3 65 7 is_stmt 0                @ ../Middlewares/CMSIS/DSP/Src/ControllerFunctions/arm_pid_init_f32.c:65:7
	cbz	r0, .LBB0_2
	b	.LBB0_1
.LBB0_1:
.Ltmp3:
	.loc	3 68 12 is_stmt 1               @ ../Middlewares/CMSIS/DSP/Src/ControllerFunctions/arm_pid_init_f32.c:68:12
	ldr	r1, [sp, #4]
	movs	r0, #0
	.loc	3 68 5 is_stmt 0                @ ../Middlewares/CMSIS/DSP/Src/ControllerFunctions/arm_pid_init_f32.c:68:5
	str	r0, [r1, #20]
	str	r0, [r1, #16]
	str	r0, [r1, #12]
	.loc	3 69 3 is_stmt 1                @ ../Middlewares/CMSIS/DSP/Src/ControllerFunctions/arm_pid_init_f32.c:69:3
	b	.LBB0_2
.Ltmp4:
.LBB0_2:
	.loc	3 71 1                          @ ../Middlewares/CMSIS/DSP/Src/ControllerFunctions/arm_pid_init_f32.c:71:1
	add	sp, #8
	bx	lr
.Ltmp5:
.Lfunc_end0:
	.size	arm_pid_init_f32, .Lfunc_end0-arm_pid_init_f32
	.cfi_endproc
	.cantunwind
	.fnend
                                        @ -- End function
	.section	.text.arm_pid_init_q15,"ax",%progbits
	.hidden	arm_pid_init_q15                @ -- Begin function arm_pid_init_q15
	.globl	arm_pid_init_q15
	.p2align	2
	.type	arm_pid_init_q15,%function
	.code	16                              @ @arm_pid_init_q15
	.thumb_func
arm_pid_init_q15:
.Lfunc_begin1:
	.file	4 "D:\\horizon\\Horizon_Infantry (2)\\MDK-ARM" "../Middlewares/CMSIS/DSP/Src/ControllerFunctions/arm_pid_init_q15.c"
	.loc	4 54 0                          @ ../Middlewares/CMSIS/DSP/Src/ControllerFunctions/arm_pid_init_q15.c:54:0
	.fnstart
	.cfi_startproc
@ %bb.0:
	.pad	#8
	sub	sp, #8
	.cfi_def_cfa_offset 8
	str	r0, [sp, #4]
	str	r1, [sp]
.Ltmp6:
	.loc	4 59 53 prologue_end            @ ../Middlewares/CMSIS/DSP/Src/ControllerFunctions/arm_pid_init_q15.c:59:53
	ldr	r1, [sp, #4]
	.loc	4 59 56 is_stmt 0               @ ../Middlewares/CMSIS/DSP/Src/ControllerFunctions/arm_pid_init_q15.c:59:56
	ldrsh.w	r0, [r1, #14]
	.loc	4 59 63                         @ ../Middlewares/CMSIS/DSP/Src/ControllerFunctions/arm_pid_init_q15.c:59:63
	ldrsh.w	r3, [r1, #16]
	.loc	4 59 71                         @ ../Middlewares/CMSIS/DSP/Src/ControllerFunctions/arm_pid_init_q15.c:59:71
	ldrsh.w	r2, [r1, #18]
	.loc	4 59 32                         @ ../Middlewares/CMSIS/DSP/Src/ControllerFunctions/arm_pid_init_q15.c:59:32
	qadd16	r0, r0, r3
	.loc	4 59 11                         @ ../Middlewares/CMSIS/DSP/Src/ControllerFunctions/arm_pid_init_q15.c:59:11
	qadd16	r0, r0, r2
	.loc	4 59 9                          @ ../Middlewares/CMSIS/DSP/Src/ControllerFunctions/arm_pid_init_q15.c:59:9
	strh	r0, [r1]
	.loc	4 64 70 is_stmt 1               @ ../Middlewares/CMSIS/DSP/Src/ControllerFunctions/arm_pid_init_q15.c:64:70
	ldr	r1, [sp, #4]
	.loc	4 64 88 is_stmt 0               @ ../Middlewares/CMSIS/DSP/Src/ControllerFunctions/arm_pid_init_q15.c:64:88
	ldrsh.w	r3, [r1, #14]
	.loc	4 64 73                         @ ../Middlewares/CMSIS/DSP/Src/ControllerFunctions/arm_pid_init_q15.c:64:73
	ldrsh.w	r2, [r1, #18]
	.loc	4 64 49                         @ ../Middlewares/CMSIS/DSP/Src/ControllerFunctions/arm_pid_init_q15.c:64:49
	qadd16	r0, r2, r2
	.loc	4 64 28                         @ ../Middlewares/CMSIS/DSP/Src/ControllerFunctions/arm_pid_init_q15.c:64:28
	qadd16	r0, r0, r3
	.loc	4 64 27                         @ ../Middlewares/CMSIS/DSP/Src/ControllerFunctions/arm_pid_init_q15.c:64:27
	rsbs	r0, r0, #0
	.loc	4 64 112                        @ ../Middlewares/CMSIS/DSP/Src/ControllerFunctions/arm_pid_init_q15.c:64:112
	pkhbt	r0, r0, r2, lsl #16
	.loc	4 64 9                          @ ../Middlewares/CMSIS/DSP/Src/ControllerFunctions/arm_pid_init_q15.c:64:9
	str	r0, [r1, #4]
.Ltmp7:
	.loc	4 85 7 is_stmt 1                @ ../Middlewares/CMSIS/DSP/Src/ControllerFunctions/arm_pid_init_q15.c:85:7
	ldr	r0, [sp]
.Ltmp8:
	.loc	4 85 7 is_stmt 0                @ ../Middlewares/CMSIS/DSP/Src/ControllerFunctions/arm_pid_init_q15.c:85:7
	cbz	r0, .LBB1_2
	b	.LBB1_1
.LBB1_1:
.Ltmp9:
	.loc	4 88 12 is_stmt 1               @ ../Middlewares/CMSIS/DSP/Src/ControllerFunctions/arm_pid_init_q15.c:88:12
	ldr	r1, [sp, #4]
	movs	r0, #0
	.loc	4 88 5 is_stmt 0                @ ../Middlewares/CMSIS/DSP/Src/ControllerFunctions/arm_pid_init_q15.c:88:5
	strh	r0, [r1, #12]
	str	r0, [r1, #8]
	.loc	4 89 3 is_stmt 1                @ ../Middlewares/CMSIS/DSP/Src/ControllerFunctions/arm_pid_init_q15.c:89:3
	b	.LBB1_2
.Ltmp10:
.LBB1_2:
	.loc	4 91 1                          @ ../Middlewares/CMSIS/DSP/Src/ControllerFunctions/arm_pid_init_q15.c:91:1
	add	sp, #8
	bx	lr
.Ltmp11:
.Lfunc_end1:
	.size	arm_pid_init_q15, .Lfunc_end1-arm_pid_init_q15
	.cfi_endproc
	.cantunwind
	.fnend
                                        @ -- End function
	.section	.text.arm_pid_init_q31,"ax",%progbits
	.hidden	arm_pid_init_q31                @ -- Begin function arm_pid_init_q31
	.globl	arm_pid_init_q31
	.p2align	2
	.type	arm_pid_init_q31,%function
	.code	16                              @ @arm_pid_init_q31
	.thumb_func
arm_pid_init_q31:
.Lfunc_begin2:
	.file	5 "D:\\horizon\\Horizon_Infantry (2)\\MDK-ARM" "../Middlewares/CMSIS/DSP/Src/ControllerFunctions/arm_pid_init_q31.c"
	.loc	5 54 0                          @ ../Middlewares/CMSIS/DSP/Src/ControllerFunctions/arm_pid_init_q31.c:54:0
	.fnstart
	.cfi_startproc
@ %bb.0:
	.pad	#8
	sub	sp, #8
	.cfi_def_cfa_offset 8
	str	r0, [sp, #4]
	str	r1, [sp]
.Ltmp12:
	.loc	5 59 49 prologue_end            @ ../Middlewares/CMSIS/DSP/Src/ControllerFunctions/arm_pid_init_q31.c:59:49
	ldr	r1, [sp, #4]
	.loc	5 59 52 is_stmt 0               @ ../Middlewares/CMSIS/DSP/Src/ControllerFunctions/arm_pid_init_q31.c:59:52
	ldr	r0, [r1, #24]
	.loc	5 59 59                         @ ../Middlewares/CMSIS/DSP/Src/ControllerFunctions/arm_pid_init_q31.c:59:59
	ldr	r3, [r1, #28]
	.loc	5 59 67                         @ ../Middlewares/CMSIS/DSP/Src/ControllerFunctions/arm_pid_init_q31.c:59:67
	ldr	r2, [r1, #32]
	.loc	5 59 30                         @ ../Middlewares/CMSIS/DSP/Src/ControllerFunctions/arm_pid_init_q31.c:59:30
	qadd	r0, r0, r3
	.loc	5 59 11                         @ ../Middlewares/CMSIS/DSP/Src/ControllerFunctions/arm_pid_init_q31.c:59:11
	qadd	r0, r0, r2
	.loc	5 59 9                          @ ../Middlewares/CMSIS/DSP/Src/ControllerFunctions/arm_pid_init_q31.c:59:9
	str	r0, [r1]
	.loc	5 62 50 is_stmt 1               @ ../Middlewares/CMSIS/DSP/Src/ControllerFunctions/arm_pid_init_q31.c:62:50
	ldr	r1, [sp, #4]
	.loc	5 62 68 is_stmt 0               @ ../Middlewares/CMSIS/DSP/Src/ControllerFunctions/arm_pid_init_q31.c:62:68
	ldr	r0, [r1, #24]
	.loc	5 62 53                         @ ../Middlewares/CMSIS/DSP/Src/ControllerFunctions/arm_pid_init_q31.c:62:53
	ldr	r2, [r1, #32]
	.loc	5 62 12                         @ ../Middlewares/CMSIS/DSP/Src/ControllerFunctions/arm_pid_init_q31.c:62:12
	qdadd	r0, r0, r2
	.loc	5 62 11                         @ ../Middlewares/CMSIS/DSP/Src/ControllerFunctions/arm_pid_init_q31.c:62:11
	rsbs	r0, r0, #0
	.loc	5 62 9                          @ ../Middlewares/CMSIS/DSP/Src/ControllerFunctions/arm_pid_init_q31.c:62:9
	str	r0, [r1, #4]
	.loc	5 79 11 is_stmt 1               @ ../Middlewares/CMSIS/DSP/Src/ControllerFunctions/arm_pid_init_q31.c:79:11
	ldr	r1, [sp, #4]
	.loc	5 79 14 is_stmt 0               @ ../Middlewares/CMSIS/DSP/Src/ControllerFunctions/arm_pid_init_q31.c:79:14
	ldr	r0, [r1, #32]
	.loc	5 79 9                          @ ../Middlewares/CMSIS/DSP/Src/ControllerFunctions/arm_pid_init_q31.c:79:9
	str	r0, [r1, #8]
.Ltmp13:
	.loc	5 82 7 is_stmt 1                @ ../Middlewares/CMSIS/DSP/Src/ControllerFunctions/arm_pid_init_q31.c:82:7
	ldr	r0, [sp]
.Ltmp14:
	.loc	5 82 7 is_stmt 0                @ ../Middlewares/CMSIS/DSP/Src/ControllerFunctions/arm_pid_init_q31.c:82:7
	cbz	r0, .LBB2_2
	b	.LBB2_1
.LBB2_1:
.Ltmp15:
	.loc	5 85 12 is_stmt 1               @ ../Middlewares/CMSIS/DSP/Src/ControllerFunctions/arm_pid_init_q31.c:85:12
	ldr	r1, [sp, #4]
	movs	r0, #0
	.loc	5 85 5 is_stmt 0                @ ../Middlewares/CMSIS/DSP/Src/ControllerFunctions/arm_pid_init_q31.c:85:5
	str	r0, [r1, #20]
	str	r0, [r1, #16]
	str	r0, [r1, #12]
	.loc	5 86 3 is_stmt 1                @ ../Middlewares/CMSIS/DSP/Src/ControllerFunctions/arm_pid_init_q31.c:86:3
	b	.LBB2_2
.Ltmp16:
.LBB2_2:
	.loc	5 88 1                          @ ../Middlewares/CMSIS/DSP/Src/ControllerFunctions/arm_pid_init_q31.c:88:1
	add	sp, #8
	bx	lr
.Ltmp17:
.Lfunc_end2:
	.size	arm_pid_init_q31, .Lfunc_end2-arm_pid_init_q31
	.cfi_endproc
	.cantunwind
	.fnend
                                        @ -- End function
	.section	.text.arm_pid_reset_f32,"ax",%progbits
	.hidden	arm_pid_reset_f32               @ -- Begin function arm_pid_reset_f32
	.globl	arm_pid_reset_f32
	.p2align	2
	.type	arm_pid_reset_f32,%function
	.code	16                              @ @arm_pid_reset_f32
	.thumb_func
arm_pid_reset_f32:
.Lfunc_begin3:
	.file	6 "D:\\horizon\\Horizon_Infantry (2)\\MDK-ARM" "../Middlewares/CMSIS/DSP/Src/ControllerFunctions/arm_pid_reset_f32.c"
	.loc	6 47 0                          @ ../Middlewares/CMSIS/DSP/Src/ControllerFunctions/arm_pid_reset_f32.c:47:0
	.fnstart
	.cfi_startproc
@ %bb.0:
	.pad	#4
	sub	sp, #4
	.cfi_def_cfa_offset 4
	str	r0, [sp]
.Ltmp18:
	.loc	6 49 10 prologue_end            @ ../Middlewares/CMSIS/DSP/Src/ControllerFunctions/arm_pid_reset_f32.c:49:10
	ldr	r1, [sp]
	movs	r0, #0
	.loc	6 49 3 is_stmt 0                @ ../Middlewares/CMSIS/DSP/Src/ControllerFunctions/arm_pid_reset_f32.c:49:3
	str	r0, [r1, #20]
	str	r0, [r1, #16]
	str	r0, [r1, #12]
	.loc	6 50 1 is_stmt 1                @ ../Middlewares/CMSIS/DSP/Src/ControllerFunctions/arm_pid_reset_f32.c:50:1
	add	sp, #4
	bx	lr
.Ltmp19:
.Lfunc_end3:
	.size	arm_pid_reset_f32, .Lfunc_end3-arm_pid_reset_f32
	.cfi_endproc
	.cantunwind
	.fnend
                                        @ -- End function
	.section	.text.arm_pid_reset_q15,"ax",%progbits
	.hidden	arm_pid_reset_q15               @ -- Begin function arm_pid_reset_q15
	.globl	arm_pid_reset_q15
	.p2align	2
	.type	arm_pid_reset_q15,%function
	.code	16                              @ @arm_pid_reset_q15
	.thumb_func
arm_pid_reset_q15:
.Lfunc_begin4:
	.file	7 "D:\\horizon\\Horizon_Infantry (2)\\MDK-ARM" "../Middlewares/CMSIS/DSP/Src/ControllerFunctions/arm_pid_reset_q15.c"
	.loc	7 47 0                          @ ../Middlewares/CMSIS/DSP/Src/ControllerFunctions/arm_pid_reset_q15.c:47:0
	.fnstart
	.cfi_startproc
@ %bb.0:
	.pad	#4
	sub	sp, #4
	.cfi_def_cfa_offset 4
	str	r0, [sp]
.Ltmp20:
	.loc	7 49 10 prologue_end            @ ../Middlewares/CMSIS/DSP/Src/ControllerFunctions/arm_pid_reset_q15.c:49:10
	ldr	r1, [sp]
	movs	r0, #0
	.loc	7 49 3 is_stmt 0                @ ../Middlewares/CMSIS/DSP/Src/ControllerFunctions/arm_pid_reset_q15.c:49:3
	strh	r0, [r1, #12]
	str	r0, [r1, #8]
	.loc	7 50 1 is_stmt 1                @ ../Middlewares/CMSIS/DSP/Src/ControllerFunctions/arm_pid_reset_q15.c:50:1
	add	sp, #4
	bx	lr
.Ltmp21:
.Lfunc_end4:
	.size	arm_pid_reset_q15, .Lfunc_end4-arm_pid_reset_q15
	.cfi_endproc
	.cantunwind
	.fnend
                                        @ -- End function
	.section	.text.arm_pid_reset_q31,"ax",%progbits
	.hidden	arm_pid_reset_q31               @ -- Begin function arm_pid_reset_q31
	.globl	arm_pid_reset_q31
	.p2align	2
	.type	arm_pid_reset_q31,%function
	.code	16                              @ @arm_pid_reset_q31
	.thumb_func
arm_pid_reset_q31:
.Lfunc_begin5:
	.file	8 "D:\\horizon\\Horizon_Infantry (2)\\MDK-ARM" "../Middlewares/CMSIS/DSP/Src/ControllerFunctions/arm_pid_reset_q31.c"
	.loc	8 47 0                          @ ../Middlewares/CMSIS/DSP/Src/ControllerFunctions/arm_pid_reset_q31.c:47:0
	.fnstart
	.cfi_startproc
@ %bb.0:
	.pad	#4
	sub	sp, #4
	.cfi_def_cfa_offset 4
	str	r0, [sp]
.Ltmp22:
	.loc	8 49 10 prologue_end            @ ../Middlewares/CMSIS/DSP/Src/ControllerFunctions/arm_pid_reset_q31.c:49:10
	ldr	r1, [sp]
	movs	r0, #0
	.loc	8 49 3 is_stmt 0                @ ../Middlewares/CMSIS/DSP/Src/ControllerFunctions/arm_pid_reset_q31.c:49:3
	str	r0, [r1, #20]
	str	r0, [r1, #16]
	str	r0, [r1, #12]
	.loc	8 50 1 is_stmt 1                @ ../Middlewares/CMSIS/DSP/Src/ControllerFunctions/arm_pid_reset_q31.c:50:1
	add	sp, #4
	bx	lr
.Ltmp23:
.Lfunc_end5:
	.size	arm_pid_reset_q31, .Lfunc_end5-arm_pid_reset_q31
	.cfi_endproc
	.cantunwind
	.fnend
                                        @ -- End function
	.section	.text.arm_sin_cos_f32,"ax",%progbits
	.hidden	arm_sin_cos_f32                 @ -- Begin function arm_sin_cos_f32
	.globl	arm_sin_cos_f32
	.p2align	2
	.type	arm_sin_cos_f32,%function
	.code	16                              @ @arm_sin_cos_f32
	.thumb_func
arm_sin_cos_f32:
.Lfunc_begin6:
	.file	9 "D:\\horizon\\Horizon_Infantry (2)\\MDK-ARM" "../Middlewares/CMSIS/DSP/Src/ControllerFunctions/arm_sin_cos_f32.c"
	.loc	9 49 0                          @ ../Middlewares/CMSIS/DSP/Src/ControllerFunctions/arm_sin_cos_f32.c:49:0
	.fnstart
	.cfi_startproc
@ %bb.0:
	.pad	#60
	sub	sp, #60
	.cfi_def_cfa_offset 60
	vstr	s0, [sp, #56]
	str	r0, [sp, #52]
	str	r1, [sp, #48]
.Ltmp24:
	.loc	9 58 8 prologue_end             @ ../Middlewares/CMSIS/DSP/Src/ControllerFunctions/arm_sin_cos_f32.c:58:8
	vldr	s0, [sp, #56]
	vldr	s2, .LCPI6_0
	.loc	9 58 14 is_stmt 0               @ ../Middlewares/CMSIS/DSP/Src/ControllerFunctions/arm_sin_cos_f32.c:58:14
	vmul.f32	s0, s0, s2
	.loc	9 58 6                          @ ../Middlewares/CMSIS/DSP/Src/ControllerFunctions/arm_sin_cos_f32.c:58:6
	vstr	s0, [sp, #40]
.Ltmp25:
	.loc	9 60 7 is_stmt 1                @ ../Middlewares/CMSIS/DSP/Src/ControllerFunctions/arm_sin_cos_f32.c:60:7
	vldr	s0, [sp, #40]
.Ltmp26:
	.loc	9 60 7 is_stmt 0                @ ../Middlewares/CMSIS/DSP/Src/ControllerFunctions/arm_sin_cos_f32.c:60:7
	vcmp.f32	s0, #0
	vmrs	APSR_nzcv, fpscr
	bge	.LBB6_2
	b	.LBB6_1
.LBB6_1:
.Ltmp27:
	.loc	9 62 11 is_stmt 1               @ ../Middlewares/CMSIS/DSP/Src/ControllerFunctions/arm_sin_cos_f32.c:62:11
	vldr	s0, [sp, #40]
	.loc	9 62 10 is_stmt 0               @ ../Middlewares/CMSIS/DSP/Src/ControllerFunctions/arm_sin_cos_f32.c:62:10
	vneg.f32	s0, s0
	.loc	9 62 8                          @ ../Middlewares/CMSIS/DSP/Src/ControllerFunctions/arm_sin_cos_f32.c:62:8
	vstr	s0, [sp, #40]
	.loc	9 63 3 is_stmt 1                @ ../Middlewares/CMSIS/DSP/Src/ControllerFunctions/arm_sin_cos_f32.c:63:3
	b	.LBB6_2
.Ltmp28:
.LBB6_2:
	.loc	9 65 8                          @ ../Middlewares/CMSIS/DSP/Src/ControllerFunctions/arm_sin_cos_f32.c:65:8
	vldr	s0, [sp, #40]
	.loc	9 65 13 is_stmt 0               @ ../Middlewares/CMSIS/DSP/Src/ControllerFunctions/arm_sin_cos_f32.c:65:13
	vcvt.s32.f32	s2, s0
	vmov	r0, s2
	vmov	s2, r0
	vcvt.f32.s32	s2, s2
	.loc	9 65 11                         @ ../Middlewares/CMSIS/DSP/Src/ControllerFunctions/arm_sin_cos_f32.c:65:11
	vsub.f32	s0, s0, s2
	.loc	9 65 6                          @ ../Middlewares/CMSIS/DSP/Src/ControllerFunctions/arm_sin_cos_f32.c:65:6
	vstr	s0, [sp, #40]
	.loc	9 68 29 is_stmt 1               @ ../Middlewares/CMSIS/DSP/Src/ControllerFunctions/arm_sin_cos_f32.c:68:29
	vldr	s0, [sp, #40]
	vldr	s2, .LCPI6_1
	.loc	9 68 27 is_stmt 0               @ ../Middlewares/CMSIS/DSP/Src/ControllerFunctions/arm_sin_cos_f32.c:68:27
	vmul.f32	s0, s0, s2
	.loc	9 68 10                         @ ../Middlewares/CMSIS/DSP/Src/ControllerFunctions/arm_sin_cos_f32.c:68:10
	vstr	s0, [sp, #4]
	.loc	9 69 23 is_stmt 1               @ ../Middlewares/CMSIS/DSP/Src/ControllerFunctions/arm_sin_cos_f32.c:69:23
	vldr	s0, [sp, #4]
	.loc	9 69 13 is_stmt 0               @ ../Middlewares/CMSIS/DSP/Src/ControllerFunctions/arm_sin_cos_f32.c:69:13
	vcvt.s32.f32	s0, s0
	vmov	r0, s0
	.loc	9 69 31                         @ ../Middlewares/CMSIS/DSP/Src/ControllerFunctions/arm_sin_cos_f32.c:69:31
	bfc	r0, #9, #23
	.loc	9 69 10                         @ ../Middlewares/CMSIS/DSP/Src/ControllerFunctions/arm_sin_cos_f32.c:69:10
	strh.w	r0, [sp, #38]
	.loc	9 70 13 is_stmt 1               @ ../Middlewares/CMSIS/DSP/Src/ControllerFunctions/arm_sin_cos_f32.c:70:13
	ldrh.w	r0, [sp, #38]
	.loc	9 70 20 is_stmt 0               @ ../Middlewares/CMSIS/DSP/Src/ControllerFunctions/arm_sin_cos_f32.c:70:20
	adds	r0, #128
	.loc	9 70 33                         @ ../Middlewares/CMSIS/DSP/Src/ControllerFunctions/arm_sin_cos_f32.c:70:33
	bfc	r0, #9, #23
	.loc	9 70 10                         @ ../Middlewares/CMSIS/DSP/Src/ControllerFunctions/arm_sin_cos_f32.c:70:10
	strh.w	r0, [sp, #36]
	.loc	9 73 11 is_stmt 1               @ ../Middlewares/CMSIS/DSP/Src/ControllerFunctions/arm_sin_cos_f32.c:73:11
	vldr	s0, [sp, #4]
	.loc	9 73 32 is_stmt 0               @ ../Middlewares/CMSIS/DSP/Src/ControllerFunctions/arm_sin_cos_f32.c:73:32
	ldrh.w	r0, [sp, #38]
	.loc	9 73 20                         @ ../Middlewares/CMSIS/DSP/Src/ControllerFunctions/arm_sin_cos_f32.c:73:20
	vmov	s2, r0
	vcvt.f32.u32	s2, s2
	.loc	9 73 18                         @ ../Middlewares/CMSIS/DSP/Src/ControllerFunctions/arm_sin_cos_f32.c:73:18
	vsub.f32	s0, s0, s2
	.loc	9 73 9                          @ ../Middlewares/CMSIS/DSP/Src/ControllerFunctions/arm_sin_cos_f32.c:73:9
	vstr	s0, [sp, #44]
	.loc	9 76 21 is_stmt 1               @ ../Middlewares/CMSIS/DSP/Src/ControllerFunctions/arm_sin_cos_f32.c:76:21
	ldrh.w	r1, [sp, #36]
	.loc	9 76 8 is_stmt 0                @ ../Middlewares/CMSIS/DSP/Src/ControllerFunctions/arm_sin_cos_f32.c:76:8
	movw	r0, :lower16:sinTable_f32
	movt	r0, :upper16:sinTable_f32
	str	r0, [sp]                        @ 4-byte Spill
	ldr.w	r1, [r0, r1, lsl #2]
	.loc	9 76 6                          @ ../Middlewares/CMSIS/DSP/Src/ControllerFunctions/arm_sin_cos_f32.c:76:6
	str	r1, [sp, #32]
	.loc	9 77 21 is_stmt 1               @ ../Middlewares/CMSIS/DSP/Src/ControllerFunctions/arm_sin_cos_f32.c:77:21
	ldrh.w	r1, [sp, #36]
	.loc	9 77 8 is_stmt 0                @ ../Middlewares/CMSIS/DSP/Src/ControllerFunctions/arm_sin_cos_f32.c:77:8
	add.w	r1, r0, r1, lsl #2
	ldr	r1, [r1, #4]
	.loc	9 77 6                          @ ../Middlewares/CMSIS/DSP/Src/ControllerFunctions/arm_sin_cos_f32.c:77:6
	str	r1, [sp, #28]
	.loc	9 78 22 is_stmt 1               @ ../Middlewares/CMSIS/DSP/Src/ControllerFunctions/arm_sin_cos_f32.c:78:22
	ldrh.w	r1, [sp, #38]
	.loc	9 78 9 is_stmt 0                @ ../Middlewares/CMSIS/DSP/Src/ControllerFunctions/arm_sin_cos_f32.c:78:9
	add.w	r1, r0, r1, lsl #2
	vldr	s0, [r1]
	.loc	9 78 8                          @ ../Middlewares/CMSIS/DSP/Src/ControllerFunctions/arm_sin_cos_f32.c:78:8
	vneg.f32	s0, s0
	.loc	9 78 6                          @ ../Middlewares/CMSIS/DSP/Src/ControllerFunctions/arm_sin_cos_f32.c:78:6
	vstr	s0, [sp, #24]
	.loc	9 79 22 is_stmt 1               @ ../Middlewares/CMSIS/DSP/Src/ControllerFunctions/arm_sin_cos_f32.c:79:22
	ldrh.w	r1, [sp, #38]
	.loc	9 79 9 is_stmt 0                @ ../Middlewares/CMSIS/DSP/Src/ControllerFunctions/arm_sin_cos_f32.c:79:9
	add.w	r1, r0, r1, lsl #2
	vldr	s0, [r1, #4]
	.loc	9 79 8                          @ ../Middlewares/CMSIS/DSP/Src/ControllerFunctions/arm_sin_cos_f32.c:79:8
	vneg.f32	s0, s0
	.loc	9 79 6                          @ ../Middlewares/CMSIS/DSP/Src/ControllerFunctions/arm_sin_cos_f32.c:79:6
	vstr	s0, [sp, #20]
	movw	r1, #4059
	movt	r1, #15433
	.loc	9 81 6 is_stmt 1                @ ../Middlewares/CMSIS/DSP/Src/ControllerFunctions/arm_sin_cos_f32.c:81:6
	str	r1, [sp, #16]
	.loc	9 82 8                          @ ../Middlewares/CMSIS/DSP/Src/ControllerFunctions/arm_sin_cos_f32.c:82:8
	vldr	s0, [sp, #28]
	.loc	9 82 13 is_stmt 0               @ ../Middlewares/CMSIS/DSP/Src/ControllerFunctions/arm_sin_cos_f32.c:82:13
	vldr	s2, [sp, #32]
	.loc	9 82 11                         @ ../Middlewares/CMSIS/DSP/Src/ControllerFunctions/arm_sin_cos_f32.c:82:11
	vsub.f32	s0, s0, s2
	.loc	9 82 6                          @ ../Middlewares/CMSIS/DSP/Src/ControllerFunctions/arm_sin_cos_f32.c:82:6
	vstr	s0, [sp, #12]
	.loc	9 84 10 is_stmt 1               @ ../Middlewares/CMSIS/DSP/Src/ControllerFunctions/arm_sin_cos_f32.c:84:10
	vldr	s0, [sp, #16]
	.loc	9 84 16 is_stmt 0               @ ../Middlewares/CMSIS/DSP/Src/ControllerFunctions/arm_sin_cos_f32.c:84:16
	vldr	s2, [sp, #24]
	.loc	9 84 21                         @ ../Middlewares/CMSIS/DSP/Src/ControllerFunctions/arm_sin_cos_f32.c:84:21
	vldr	s4, [sp, #20]
	.loc	9 84 19                         @ ../Middlewares/CMSIS/DSP/Src/ControllerFunctions/arm_sin_cos_f32.c:84:19
	vadd.f32	s4, s2, s4
	.loc	9 84 31                         @ ../Middlewares/CMSIS/DSP/Src/ControllerFunctions/arm_sin_cos_f32.c:84:31
	vldr	s2, [sp, #12]
	.loc	9 84 29                         @ ../Middlewares/CMSIS/DSP/Src/ControllerFunctions/arm_sin_cos_f32.c:84:29
	vadd.f32	s2, s2, s2
	.loc	9 84 25                         @ ../Middlewares/CMSIS/DSP/Src/ControllerFunctions/arm_sin_cos_f32.c:84:25
	vmul.f32	s0, s0, s4
	vsub.f32	s0, s0, s2
	.loc	9 84 8                          @ ../Middlewares/CMSIS/DSP/Src/ControllerFunctions/arm_sin_cos_f32.c:84:8
	vstr	s0, [sp, #8]
	.loc	9 85 10 is_stmt 1               @ ../Middlewares/CMSIS/DSP/Src/ControllerFunctions/arm_sin_cos_f32.c:85:10
	vldr	s0, [sp, #44]
	.loc	9 85 18 is_stmt 0               @ ../Middlewares/CMSIS/DSP/Src/ControllerFunctions/arm_sin_cos_f32.c:85:18
	vldr	s4, [sp, #8]
	.loc	9 85 30                         @ ../Middlewares/CMSIS/DSP/Src/ControllerFunctions/arm_sin_cos_f32.c:85:30
	vldr	s2, [sp, #12]
	.loc	9 85 36                         @ ../Middlewares/CMSIS/DSP/Src/ControllerFunctions/arm_sin_cos_f32.c:85:36
	vldr	s8, [sp, #20]
	.loc	9 85 45                         @ ../Middlewares/CMSIS/DSP/Src/ControllerFunctions/arm_sin_cos_f32.c:85:45
	vldr	s6, [sp, #24]
	.loc	9 85 39                         @ ../Middlewares/CMSIS/DSP/Src/ControllerFunctions/arm_sin_cos_f32.c:85:39
	vadd.f32	s6, s6, s6
	vadd.f32	s6, s6, s8
	.loc	9 85 51                         @ ../Middlewares/CMSIS/DSP/Src/ControllerFunctions/arm_sin_cos_f32.c:85:51
	vldr	s8, [sp, #16]
	.loc	9 85 49                         @ ../Middlewares/CMSIS/DSP/Src/ControllerFunctions/arm_sin_cos_f32.c:85:49
	vmul.f32	s6, s6, s8
	vmov.f32	s8, #3.000000e+00
	.loc	9 85 33                         @ ../Middlewares/CMSIS/DSP/Src/ControllerFunctions/arm_sin_cos_f32.c:85:33
	vmul.f32	s2, s2, s8
	vsub.f32	s2, s2, s6
	.loc	9 85 23                         @ ../Middlewares/CMSIS/DSP/Src/ControllerFunctions/arm_sin_cos_f32.c:85:23
	vmul.f32	s0, s0, s4
	vadd.f32	s0, s0, s2
	.loc	9 85 8                          @ ../Middlewares/CMSIS/DSP/Src/ControllerFunctions/arm_sin_cos_f32.c:85:8
	vstr	s0, [sp, #8]
	.loc	9 86 10 is_stmt 1               @ ../Middlewares/CMSIS/DSP/Src/ControllerFunctions/arm_sin_cos_f32.c:86:10
	vldr	s0, [sp, #44]
	.loc	9 86 18 is_stmt 0               @ ../Middlewares/CMSIS/DSP/Src/ControllerFunctions/arm_sin_cos_f32.c:86:18
	vldr	s4, [sp, #8]
	.loc	9 86 25                         @ ../Middlewares/CMSIS/DSP/Src/ControllerFunctions/arm_sin_cos_f32.c:86:25
	vldr	s2, [sp, #24]
	.loc	9 86 30                         @ ../Middlewares/CMSIS/DSP/Src/ControllerFunctions/arm_sin_cos_f32.c:86:30
	vldr	s6, [sp, #16]
	.loc	9 86 28                         @ ../Middlewares/CMSIS/DSP/Src/ControllerFunctions/arm_sin_cos_f32.c:86:28
	vmul.f32	s2, s2, s6
	.loc	9 86 23                         @ ../Middlewares/CMSIS/DSP/Src/ControllerFunctions/arm_sin_cos_f32.c:86:23
	vmul.f32	s0, s0, s4
	vadd.f32	s0, s0, s2
	.loc	9 86 8                          @ ../Middlewares/CMSIS/DSP/Src/ControllerFunctions/arm_sin_cos_f32.c:86:8
	vstr	s0, [sp, #8]
	.loc	9 89 14 is_stmt 1               @ ../Middlewares/CMSIS/DSP/Src/ControllerFunctions/arm_sin_cos_f32.c:89:14
	vldr	s0, [sp, #44]
	.loc	9 89 22 is_stmt 0               @ ../Middlewares/CMSIS/DSP/Src/ControllerFunctions/arm_sin_cos_f32.c:89:22
	vldr	s4, [sp, #8]
	.loc	9 89 29                         @ ../Middlewares/CMSIS/DSP/Src/ControllerFunctions/arm_sin_cos_f32.c:89:29
	vldr	s2, [sp, #32]
	.loc	9 89 27                         @ ../Middlewares/CMSIS/DSP/Src/ControllerFunctions/arm_sin_cos_f32.c:89:27
	vmul.f32	s0, s0, s4
	vadd.f32	s0, s0, s2
	.loc	9 89 4                          @ ../Middlewares/CMSIS/DSP/Src/ControllerFunctions/arm_sin_cos_f32.c:89:4
	ldr	r1, [sp, #48]
	.loc	9 89 12                         @ ../Middlewares/CMSIS/DSP/Src/ControllerFunctions/arm_sin_cos_f32.c:89:12
	vstr	s0, [r1]
	.loc	9 92 21 is_stmt 1               @ ../Middlewares/CMSIS/DSP/Src/ControllerFunctions/arm_sin_cos_f32.c:92:21
	ldrh.w	r1, [sp, #38]
	.loc	9 92 8 is_stmt 0                @ ../Middlewares/CMSIS/DSP/Src/ControllerFunctions/arm_sin_cos_f32.c:92:8
	ldr.w	r1, [r0, r1, lsl #2]
	.loc	9 92 6                          @ ../Middlewares/CMSIS/DSP/Src/ControllerFunctions/arm_sin_cos_f32.c:92:6
	str	r1, [sp, #32]
	.loc	9 93 21 is_stmt 1               @ ../Middlewares/CMSIS/DSP/Src/ControllerFunctions/arm_sin_cos_f32.c:93:21
	ldrh.w	r1, [sp, #38]
	.loc	9 93 8 is_stmt 0                @ ../Middlewares/CMSIS/DSP/Src/ControllerFunctions/arm_sin_cos_f32.c:93:8
	add.w	r1, r0, r1, lsl #2
	ldr	r1, [r1, #4]
	.loc	9 93 6                          @ ../Middlewares/CMSIS/DSP/Src/ControllerFunctions/arm_sin_cos_f32.c:93:6
	str	r1, [sp, #28]
	.loc	9 94 21 is_stmt 1               @ ../Middlewares/CMSIS/DSP/Src/ControllerFunctions/arm_sin_cos_f32.c:94:21
	ldrh.w	r1, [sp, #36]
	.loc	9 94 8 is_stmt 0                @ ../Middlewares/CMSIS/DSP/Src/ControllerFunctions/arm_sin_cos_f32.c:94:8
	ldr.w	r1, [r0, r1, lsl #2]
	.loc	9 94 6                          @ ../Middlewares/CMSIS/DSP/Src/ControllerFunctions/arm_sin_cos_f32.c:94:6
	str	r1, [sp, #24]
	.loc	9 95 21 is_stmt 1               @ ../Middlewares/CMSIS/DSP/Src/ControllerFunctions/arm_sin_cos_f32.c:95:21
	ldrh.w	r1, [sp, #36]
	.loc	9 95 8 is_stmt 0                @ ../Middlewares/CMSIS/DSP/Src/ControllerFunctions/arm_sin_cos_f32.c:95:8
	add.w	r0, r0, r1, lsl #2
	ldr	r0, [r0, #4]
	.loc	9 95 6                          @ ../Middlewares/CMSIS/DSP/Src/ControllerFunctions/arm_sin_cos_f32.c:95:6
	str	r0, [sp, #20]
	.loc	9 98 8 is_stmt 1                @ ../Middlewares/CMSIS/DSP/Src/ControllerFunctions/arm_sin_cos_f32.c:98:8
	vldr	s0, [sp, #28]
	.loc	9 98 13 is_stmt 0               @ ../Middlewares/CMSIS/DSP/Src/ControllerFunctions/arm_sin_cos_f32.c:98:13
	vldr	s2, [sp, #32]
	.loc	9 98 11                         @ ../Middlewares/CMSIS/DSP/Src/ControllerFunctions/arm_sin_cos_f32.c:98:11
	vsub.f32	s0, s0, s2
	.loc	9 98 6                          @ ../Middlewares/CMSIS/DSP/Src/ControllerFunctions/arm_sin_cos_f32.c:98:6
	vstr	s0, [sp, #12]
	.loc	9 99 10 is_stmt 1               @ ../Middlewares/CMSIS/DSP/Src/ControllerFunctions/arm_sin_cos_f32.c:99:10
	vldr	s0, [sp, #16]
	.loc	9 99 16 is_stmt 0               @ ../Middlewares/CMSIS/DSP/Src/ControllerFunctions/arm_sin_cos_f32.c:99:16
	vldr	s2, [sp, #24]
	.loc	9 99 21                         @ ../Middlewares/CMSIS/DSP/Src/ControllerFunctions/arm_sin_cos_f32.c:99:21
	vldr	s4, [sp, #20]
	.loc	9 99 19                         @ ../Middlewares/CMSIS/DSP/Src/ControllerFunctions/arm_sin_cos_f32.c:99:19
	vadd.f32	s4, s2, s4
	.loc	9 99 31                         @ ../Middlewares/CMSIS/DSP/Src/ControllerFunctions/arm_sin_cos_f32.c:99:31
	vldr	s2, [sp, #12]
	.loc	9 99 29                         @ ../Middlewares/CMSIS/DSP/Src/ControllerFunctions/arm_sin_cos_f32.c:99:29
	vadd.f32	s2, s2, s2
	.loc	9 99 25                         @ ../Middlewares/CMSIS/DSP/Src/ControllerFunctions/arm_sin_cos_f32.c:99:25
	vmul.f32	s0, s0, s4
	vsub.f32	s0, s0, s2
	.loc	9 99 8                          @ ../Middlewares/CMSIS/DSP/Src/ControllerFunctions/arm_sin_cos_f32.c:99:8
	vstr	s0, [sp, #8]
	.loc	9 100 10 is_stmt 1              @ ../Middlewares/CMSIS/DSP/Src/ControllerFunctions/arm_sin_cos_f32.c:100:10
	vldr	s0, [sp, #44]
	.loc	9 100 18 is_stmt 0              @ ../Middlewares/CMSIS/DSP/Src/ControllerFunctions/arm_sin_cos_f32.c:100:18
	vldr	s4, [sp, #8]
	.loc	9 100 30                        @ ../Middlewares/CMSIS/DSP/Src/ControllerFunctions/arm_sin_cos_f32.c:100:30
	vldr	s2, [sp, #12]
	.loc	9 100 36                        @ ../Middlewares/CMSIS/DSP/Src/ControllerFunctions/arm_sin_cos_f32.c:100:36
	vldr	s10, [sp, #20]
	.loc	9 100 45                        @ ../Middlewares/CMSIS/DSP/Src/ControllerFunctions/arm_sin_cos_f32.c:100:45
	vldr	s6, [sp, #24]
	.loc	9 100 39                        @ ../Middlewares/CMSIS/DSP/Src/ControllerFunctions/arm_sin_cos_f32.c:100:39
	vadd.f32	s6, s6, s6
	vadd.f32	s6, s6, s10
	.loc	9 100 51                        @ ../Middlewares/CMSIS/DSP/Src/ControllerFunctions/arm_sin_cos_f32.c:100:51
	vldr	s10, [sp, #16]
	.loc	9 100 49                        @ ../Middlewares/CMSIS/DSP/Src/ControllerFunctions/arm_sin_cos_f32.c:100:49
	vmul.f32	s6, s6, s10
	.loc	9 100 33                        @ ../Middlewares/CMSIS/DSP/Src/ControllerFunctions/arm_sin_cos_f32.c:100:33
	vmul.f32	s2, s2, s8
	vsub.f32	s2, s2, s6
	.loc	9 100 23                        @ ../Middlewares/CMSIS/DSP/Src/ControllerFunctions/arm_sin_cos_f32.c:100:23
	vmul.f32	s0, s0, s4
	vadd.f32	s0, s0, s2
	.loc	9 100 8                         @ ../Middlewares/CMSIS/DSP/Src/ControllerFunctions/arm_sin_cos_f32.c:100:8
	vstr	s0, [sp, #8]
	.loc	9 101 10 is_stmt 1              @ ../Middlewares/CMSIS/DSP/Src/ControllerFunctions/arm_sin_cos_f32.c:101:10
	vldr	s0, [sp, #44]
	.loc	9 101 18 is_stmt 0              @ ../Middlewares/CMSIS/DSP/Src/ControllerFunctions/arm_sin_cos_f32.c:101:18
	vldr	s4, [sp, #8]
	.loc	9 101 25                        @ ../Middlewares/CMSIS/DSP/Src/ControllerFunctions/arm_sin_cos_f32.c:101:25
	vldr	s2, [sp, #24]
	.loc	9 101 30                        @ ../Middlewares/CMSIS/DSP/Src/ControllerFunctions/arm_sin_cos_f32.c:101:30
	vldr	s6, [sp, #16]
	.loc	9 101 28                        @ ../Middlewares/CMSIS/DSP/Src/ControllerFunctions/arm_sin_cos_f32.c:101:28
	vmul.f32	s2, s2, s6
	.loc	9 101 23                        @ ../Middlewares/CMSIS/DSP/Src/ControllerFunctions/arm_sin_cos_f32.c:101:23
	vmul.f32	s0, s0, s4
	vadd.f32	s0, s0, s2
	.loc	9 101 8                         @ ../Middlewares/CMSIS/DSP/Src/ControllerFunctions/arm_sin_cos_f32.c:101:8
	vstr	s0, [sp, #8]
	.loc	9 104 14 is_stmt 1              @ ../Middlewares/CMSIS/DSP/Src/ControllerFunctions/arm_sin_cos_f32.c:104:14
	vldr	s0, [sp, #44]
	.loc	9 104 22 is_stmt 0              @ ../Middlewares/CMSIS/DSP/Src/ControllerFunctions/arm_sin_cos_f32.c:104:22
	vldr	s4, [sp, #8]
	.loc	9 104 29                        @ ../Middlewares/CMSIS/DSP/Src/ControllerFunctions/arm_sin_cos_f32.c:104:29
	vldr	s2, [sp, #32]
	.loc	9 104 27                        @ ../Middlewares/CMSIS/DSP/Src/ControllerFunctions/arm_sin_cos_f32.c:104:27
	vmul.f32	s0, s0, s4
	vadd.f32	s0, s0, s2
	.loc	9 104 4                         @ ../Middlewares/CMSIS/DSP/Src/ControllerFunctions/arm_sin_cos_f32.c:104:4
	ldr	r0, [sp, #52]
	.loc	9 104 12                        @ ../Middlewares/CMSIS/DSP/Src/ControllerFunctions/arm_sin_cos_f32.c:104:12
	vstr	s0, [r0]
.Ltmp29:
	.loc	9 106 7 is_stmt 1               @ ../Middlewares/CMSIS/DSP/Src/ControllerFunctions/arm_sin_cos_f32.c:106:7
	vldr	s0, [sp, #56]
.Ltmp30:
	.loc	9 106 7 is_stmt 0               @ ../Middlewares/CMSIS/DSP/Src/ControllerFunctions/arm_sin_cos_f32.c:106:7
	vcmp.f32	s0, #0
	vmrs	APSR_nzcv, fpscr
	bge	.LBB6_4
	b	.LBB6_3
.LBB6_3:
.Ltmp31:
	.loc	9 108 18 is_stmt 1              @ ../Middlewares/CMSIS/DSP/Src/ControllerFunctions/arm_sin_cos_f32.c:108:18
	ldr	r0, [sp, #52]
	.loc	9 108 17 is_stmt 0              @ ../Middlewares/CMSIS/DSP/Src/ControllerFunctions/arm_sin_cos_f32.c:108:17
	vldr	s0, [r0]
	.loc	9 108 16                        @ ../Middlewares/CMSIS/DSP/Src/ControllerFunctions/arm_sin_cos_f32.c:108:16
	vneg.f32	s0, s0
	.loc	9 108 14                        @ ../Middlewares/CMSIS/DSP/Src/ControllerFunctions/arm_sin_cos_f32.c:108:14
	vstr	s0, [r0]
	.loc	9 109 3 is_stmt 1               @ ../Middlewares/CMSIS/DSP/Src/ControllerFunctions/arm_sin_cos_f32.c:109:3
	b	.LBB6_4
.Ltmp32:
.LBB6_4:
	.loc	9 110 1                         @ ../Middlewares/CMSIS/DSP/Src/ControllerFunctions/arm_sin_cos_f32.c:110:1
	add	sp, #60
	bx	lr
.Ltmp33:
	.p2align	2
@ %bb.5:
	.loc	9 0 1 is_stmt 0                 @ ../Middlewares/CMSIS/DSP/Src/ControllerFunctions/arm_sin_cos_f32.c:0:1
.LCPI6_0:
	.long	0x3b360b61                      @ float 0.00277777785
.LCPI6_1:
	.long	0x44000000                      @ float 512
.Lfunc_end6:
	.size	arm_sin_cos_f32, .Lfunc_end6-arm_sin_cos_f32
	.cfi_endproc
	.cantunwind
	.fnend
                                        @ -- End function
	.section	.text.arm_sin_cos_q31,"ax",%progbits
	.hidden	arm_sin_cos_q31                 @ -- Begin function arm_sin_cos_q31
	.globl	arm_sin_cos_q31
	.p2align	2
	.type	arm_sin_cos_q31,%function
	.code	16                              @ @arm_sin_cos_q31
	.thumb_func
arm_sin_cos_q31:
.Lfunc_begin7:
	.file	10 "D:\\horizon\\Horizon_Infantry (2)\\MDK-ARM" "../Middlewares/CMSIS/DSP/Src/ControllerFunctions/arm_sin_cos_q31.c"
	.loc	10 55 0 is_stmt 1               @ ../Middlewares/CMSIS/DSP/Src/ControllerFunctions/arm_sin_cos_q31.c:55:0
	.fnstart
	.cfi_startproc
@ %bb.0:
	.save	{r4, r5, r6, r7, lr}
	push	{r4, r5, r6, r7, lr}
	.cfi_def_cfa_offset 20
	.cfi_offset lr, -4
	.cfi_offset r7, -8
	.cfi_offset r6, -12
	.cfi_offset r5, -16
	.cfi_offset r4, -20
	.pad	#84
	sub	sp, #84
	.cfi_def_cfa_offset 104
	str	r0, [sp, #60]
	str	r1, [sp, #56]
	str	r2, [sp, #52]
.Ltmp34:
	.loc	10 63 22 prologue_end           @ ../Middlewares/CMSIS/DSP/Src/ControllerFunctions/arm_sin_cos_q31.c:63:22
	ldr	r0, [sp, #60]
	.loc	10 63 28 is_stmt 0              @ ../Middlewares/CMSIS/DSP/Src/ControllerFunctions/arm_sin_cos_q31.c:63:28
	lsrs	r0, r0, #23
	.loc	10 63 10                        @ ../Middlewares/CMSIS/DSP/Src/ControllerFunctions/arm_sin_cos_q31.c:63:10
	strh.w	r0, [sp, #46]
	.loc	10 64 13 is_stmt 1              @ ../Middlewares/CMSIS/DSP/Src/ControllerFunctions/arm_sin_cos_q31.c:64:13
	ldrh.w	r0, [sp, #46]
	.loc	10 64 20 is_stmt 0              @ ../Middlewares/CMSIS/DSP/Src/ControllerFunctions/arm_sin_cos_q31.c:64:20
	adds	r0, #128
	.loc	10 64 27                        @ ../Middlewares/CMSIS/DSP/Src/ControllerFunctions/arm_sin_cos_q31.c:64:27
	bfc	r0, #9, #23
	.loc	10 64 10                        @ ../Middlewares/CMSIS/DSP/Src/ControllerFunctions/arm_sin_cos_q31.c:64:10
	strh.w	r0, [sp, #44]
	.loc	10 67 12 is_stmt 1              @ ../Middlewares/CMSIS/DSP/Src/ControllerFunctions/arm_sin_cos_q31.c:67:12
	ldr	r0, [sp, #60]
	.loc	10 67 21 is_stmt 0              @ ../Middlewares/CMSIS/DSP/Src/ControllerFunctions/arm_sin_cos_q31.c:67:21
	ldrh.w	r1, [sp, #46]
	.loc	10 67 18                        @ ../Middlewares/CMSIS/DSP/Src/ControllerFunctions/arm_sin_cos_q31.c:67:18
	sub.w	r0, r0, r1, lsl #23
	.loc	10 67 42                        @ ../Middlewares/CMSIS/DSP/Src/ControllerFunctions/arm_sin_cos_q31.c:67:42
	lsls	r0, r0, #8
	.loc	10 67 9                         @ ../Middlewares/CMSIS/DSP/Src/ControllerFunctions/arm_sin_cos_q31.c:67:9
	str	r0, [sp, #48]
	.loc	10 70 21 is_stmt 1              @ ../Middlewares/CMSIS/DSP/Src/ControllerFunctions/arm_sin_cos_q31.c:70:21
	ldrh.w	r1, [sp, #44]
	.loc	10 70 8 is_stmt 0               @ ../Middlewares/CMSIS/DSP/Src/ControllerFunctions/arm_sin_cos_q31.c:70:8
	movw	r0, :lower16:sinTable_q31
	movt	r0, :upper16:sinTable_q31
	ldr.w	r1, [r0, r1, lsl #2]
	.loc	10 70 6                         @ ../Middlewares/CMSIS/DSP/Src/ControllerFunctions/arm_sin_cos_q31.c:70:6
	str	r1, [sp, #40]
	.loc	10 71 21 is_stmt 1              @ ../Middlewares/CMSIS/DSP/Src/ControllerFunctions/arm_sin_cos_q31.c:71:21
	ldrh.w	r1, [sp, #44]
	.loc	10 71 8 is_stmt 0               @ ../Middlewares/CMSIS/DSP/Src/ControllerFunctions/arm_sin_cos_q31.c:71:8
	add.w	r1, r0, r1, lsl #2
	ldr	r1, [r1, #4]
	.loc	10 71 6                         @ ../Middlewares/CMSIS/DSP/Src/ControllerFunctions/arm_sin_cos_q31.c:71:6
	str	r1, [sp, #36]
	.loc	10 72 22 is_stmt 1              @ ../Middlewares/CMSIS/DSP/Src/ControllerFunctions/arm_sin_cos_q31.c:72:22
	ldrh.w	r1, [sp, #46]
	.loc	10 72 9 is_stmt 0               @ ../Middlewares/CMSIS/DSP/Src/ControllerFunctions/arm_sin_cos_q31.c:72:9
	ldr.w	r1, [r0, r1, lsl #2]
	.loc	10 72 8                         @ ../Middlewares/CMSIS/DSP/Src/ControllerFunctions/arm_sin_cos_q31.c:72:8
	rsbs	r1, r1, #0
	.loc	10 72 6                         @ ../Middlewares/CMSIS/DSP/Src/ControllerFunctions/arm_sin_cos_q31.c:72:6
	str	r1, [sp, #32]
	.loc	10 73 22 is_stmt 1              @ ../Middlewares/CMSIS/DSP/Src/ControllerFunctions/arm_sin_cos_q31.c:73:22
	ldrh.w	r1, [sp, #46]
	.loc	10 73 9 is_stmt 0               @ ../Middlewares/CMSIS/DSP/Src/ControllerFunctions/arm_sin_cos_q31.c:73:9
	add.w	r0, r0, r1, lsl #2
	ldr	r0, [r0, #4]
	.loc	10 73 8                         @ ../Middlewares/CMSIS/DSP/Src/ControllerFunctions/arm_sin_cos_q31.c:73:8
	rsbs	r0, r0, #0
	.loc	10 73 6                         @ ../Middlewares/CMSIS/DSP/Src/ControllerFunctions/arm_sin_cos_q31.c:73:6
	str	r0, [sp, #28]
	movw	r0, #8117
	movt	r0, #402
	.loc	10 75 6 is_stmt 1               @ ../Middlewares/CMSIS/DSP/Src/ControllerFunctions/arm_sin_cos_q31.c:75:6
	str	r0, [sp, #24]
	.loc	10 76 8                         @ ../Middlewares/CMSIS/DSP/Src/ControllerFunctions/arm_sin_cos_q31.c:76:8
	ldr	r0, [sp, #36]
	.loc	10 76 13 is_stmt 0              @ ../Middlewares/CMSIS/DSP/Src/ControllerFunctions/arm_sin_cos_q31.c:76:13
	ldr	r1, [sp, #40]
	.loc	10 76 11                        @ ../Middlewares/CMSIS/DSP/Src/ControllerFunctions/arm_sin_cos_q31.c:76:11
	subs	r0, r0, r1
	.loc	10 76 6                         @ ../Middlewares/CMSIS/DSP/Src/ControllerFunctions/arm_sin_cos_q31.c:76:6
	str	r0, [sp, #20]
	.loc	10 78 10 is_stmt 1              @ ../Middlewares/CMSIS/DSP/Src/ControllerFunctions/arm_sin_cos_q31.c:78:10
	ldr	r3, [sp, #24]
	asrs	r0, r3, #31
	.loc	10 78 23 is_stmt 0              @ ../Middlewares/CMSIS/DSP/Src/ControllerFunctions/arm_sin_cos_q31.c:78:23
	ldr	r2, [sp, #32]
	asrs	r1, r2, #31
	.loc	10 78 28                        @ ../Middlewares/CMSIS/DSP/Src/ControllerFunctions/arm_sin_cos_q31.c:78:28
	ldr.w	r12, [sp, #28]
	.loc	10 78 26                        @ ../Middlewares/CMSIS/DSP/Src/ControllerFunctions/arm_sin_cos_q31.c:78:26
	adds.w	r2, r2, r12
	adc.w	r12, r1, r12, asr #31
	.loc	10 78 13                        @ ../Middlewares/CMSIS/DSP/Src/ControllerFunctions/arm_sin_cos_q31.c:78:13
	umull	r1, lr, r3, r2
	mla	r3, r3, r12, lr
	mla	r0, r0, r2, r3
	.loc	10 78 8                         @ ../Middlewares/CMSIS/DSP/Src/ControllerFunctions/arm_sin_cos_q31.c:78:8
	str	r1, [sp, #8]
	str	r0, [sp, #12]
	.loc	10 79 10 is_stmt 1              @ ../Middlewares/CMSIS/DSP/Src/ControllerFunctions/arm_sin_cos_q31.c:79:10
	ldr	r1, [sp, #8]
	ldr	r0, [sp, #12]
	.loc	10 79 18 is_stmt 0              @ ../Middlewares/CMSIS/DSP/Src/ControllerFunctions/arm_sin_cos_q31.c:79:18
	ldr	r2, [sp, #20]
	.loc	10 79 15                        @ ../Middlewares/CMSIS/DSP/Src/ControllerFunctions/arm_sin_cos_q31.c:79:15
	subs	r0, r0, r2
	.loc	10 79 8                         @ ../Middlewares/CMSIS/DSP/Src/ControllerFunctions/arm_sin_cos_q31.c:79:8
	str	r1, [sp, #8]
	str	r0, [sp, #12]
	.loc	10 80 17 is_stmt 1              @ ../Middlewares/CMSIS/DSP/Src/ControllerFunctions/arm_sin_cos_q31.c:80:17
	ldr	r3, [sp, #48]
	asrs	r0, r3, #31
	.loc	10 80 26 is_stmt 0              @ ../Middlewares/CMSIS/DSP/Src/ControllerFunctions/arm_sin_cos_q31.c:80:26
	ldr	r2, [sp, #8]
	ldr	r1, [sp, #12]
	.loc	10 80 31                        @ ../Middlewares/CMSIS/DSP/Src/ControllerFunctions/arm_sin_cos_q31.c:80:31
	lsrs	r2, r2, #31
	orr.w	r2, r2, r1, lsl #1
	asr.w	r12, r1, #31
	.loc	10 80 23                        @ ../Middlewares/CMSIS/DSP/Src/ControllerFunctions/arm_sin_cos_q31.c:80:23
	umull	r1, lr, r3, r2
	mla	r3, r3, r12, lr
	mla	r0, r0, r2, r3
	.loc	10 80 8                         @ ../Middlewares/CMSIS/DSP/Src/ControllerFunctions/arm_sin_cos_q31.c:80:8
	str	r1, [sp, #8]
	str	r0, [sp, #12]
	.loc	10 81 10 is_stmt 1              @ ../Middlewares/CMSIS/DSP/Src/ControllerFunctions/arm_sin_cos_q31.c:81:10
	ldr	r1, [sp, #8]
	ldr	r0, [sp, #12]
	.loc	10 81 30 is_stmt 0              @ ../Middlewares/CMSIS/DSP/Src/ControllerFunctions/arm_sin_cos_q31.c:81:30
	ldr.w	lr, [sp, #20]
	and	r12, lr, #-2147483648
	mov.w	r2, #-2147483648
	.loc	10 81 33                        @ ../Middlewares/CMSIS/DSP/Src/ControllerFunctions/arm_sin_cos_q31.c:81:33
	umull	r3, r2, lr, r2
	add	r2, lr
	add	r2, r12
	.loc	10 81 43                        @ ../Middlewares/CMSIS/DSP/Src/ControllerFunctions/arm_sin_cos_q31.c:81:43
	ldr	r4, [sp, #28]
	asr.w	r12, r4, #31
	.loc	10 81 56                        @ ../Middlewares/CMSIS/DSP/Src/ControllerFunctions/arm_sin_cos_q31.c:81:56
	ldr	r5, [sp, #32]
	asr.w	lr, r5, #31
	.loc	10 81 59                        @ ../Middlewares/CMSIS/DSP/Src/ControllerFunctions/arm_sin_cos_q31.c:81:59
	lsl.w	lr, lr, #1
	orr.w	lr, lr, r5, lsr #31
	.loc	10 81 46                        @ ../Middlewares/CMSIS/DSP/Src/ControllerFunctions/arm_sin_cos_q31.c:81:46
	adds.w	r5, r4, r5, lsl #1
	adc.w	r12, r12, lr
	.loc	10 81 68                        @ ../Middlewares/CMSIS/DSP/Src/ControllerFunctions/arm_sin_cos_q31.c:81:68
	ldr	r4, [sp, #24]
	asrs	r6, r4, #31
	.loc	10 81 66                        @ ../Middlewares/CMSIS/DSP/Src/ControllerFunctions/arm_sin_cos_q31.c:81:66
	umull	lr, r7, r5, r4
	mla	r5, r5, r6, r7
	mla	r12, r12, r4, r5
	.loc	10 81 40                        @ ../Middlewares/CMSIS/DSP/Src/ControllerFunctions/arm_sin_cos_q31.c:81:40
	subs.w	r3, r3, lr
	sbc.w	r2, r2, r12
	.loc	10 81 15                        @ ../Middlewares/CMSIS/DSP/Src/ControllerFunctions/arm_sin_cos_q31.c:81:15
	adds	r1, r1, r3
	adcs	r0, r2
	.loc	10 81 8                         @ ../Middlewares/CMSIS/DSP/Src/ControllerFunctions/arm_sin_cos_q31.c:81:8
	str	r1, [sp, #8]
	str	r0, [sp, #12]
	.loc	10 82 17 is_stmt 1              @ ../Middlewares/CMSIS/DSP/Src/ControllerFunctions/arm_sin_cos_q31.c:82:17
	ldr	r3, [sp, #48]
	asrs	r0, r3, #31
	.loc	10 82 26 is_stmt 0              @ ../Middlewares/CMSIS/DSP/Src/ControllerFunctions/arm_sin_cos_q31.c:82:26
	ldr	r2, [sp, #8]
	ldr	r1, [sp, #12]
	.loc	10 82 31                        @ ../Middlewares/CMSIS/DSP/Src/ControllerFunctions/arm_sin_cos_q31.c:82:31
	lsrs	r2, r2, #31
	orr.w	r2, r2, r1, lsl #1
	asr.w	r12, r1, #31
	.loc	10 82 23                        @ ../Middlewares/CMSIS/DSP/Src/ControllerFunctions/arm_sin_cos_q31.c:82:23
	umull	r1, lr, r3, r2
	mla	r3, r3, r12, lr
	mla	r0, r0, r2, r3
	.loc	10 82 8                         @ ../Middlewares/CMSIS/DSP/Src/ControllerFunctions/arm_sin_cos_q31.c:82:8
	str	r1, [sp, #8]
	str	r0, [sp, #12]
	.loc	10 83 10 is_stmt 1              @ ../Middlewares/CMSIS/DSP/Src/ControllerFunctions/arm_sin_cos_q31.c:83:10
	ldr	r0, [sp, #8]
	ldr	r1, [sp, #12]
	.loc	10 83 24 is_stmt 0              @ ../Middlewares/CMSIS/DSP/Src/ControllerFunctions/arm_sin_cos_q31.c:83:24
	ldr	r2, [sp, #32]
	.loc	10 83 29                        @ ../Middlewares/CMSIS/DSP/Src/ControllerFunctions/arm_sin_cos_q31.c:83:29
	ldr	r3, [sp, #24]
	.loc	10 83 15                        @ ../Middlewares/CMSIS/DSP/Src/ControllerFunctions/arm_sin_cos_q31.c:83:15
	smlal	r0, r1, r2, r3
	.loc	10 83 8                         @ ../Middlewares/CMSIS/DSP/Src/ControllerFunctions/arm_sin_cos_q31.c:83:8
	str	r1, [sp, #12]
	str	r0, [sp, #8]
	.loc	10 84 17 is_stmt 1              @ ../Middlewares/CMSIS/DSP/Src/ControllerFunctions/arm_sin_cos_q31.c:84:17
	ldr	r3, [sp, #48]
	asrs	r0, r3, #31
	.loc	10 84 26 is_stmt 0              @ ../Middlewares/CMSIS/DSP/Src/ControllerFunctions/arm_sin_cos_q31.c:84:26
	ldr	r2, [sp, #8]
	ldr	r1, [sp, #12]
	.loc	10 84 31                        @ ../Middlewares/CMSIS/DSP/Src/ControllerFunctions/arm_sin_cos_q31.c:84:31
	lsrs	r2, r2, #31
	orr.w	r2, r2, r1, lsl #1
	asr.w	r12, r1, #31
	.loc	10 84 23                        @ ../Middlewares/CMSIS/DSP/Src/ControllerFunctions/arm_sin_cos_q31.c:84:23
	umull	r1, lr, r3, r2
	mla	r3, r3, r12, lr
	mla	r0, r0, r2, r3
	.loc	10 84 8                         @ ../Middlewares/CMSIS/DSP/Src/ControllerFunctions/arm_sin_cos_q31.c:84:8
	str	r1, [sp, #8]
	str	r0, [sp, #12]
	.loc	10 87 31 is_stmt 1              @ ../Middlewares/CMSIS/DSP/Src/ControllerFunctions/arm_sin_cos_q31.c:87:31
	ldr	r1, [sp, #8]
	ldr	r0, [sp, #12]
	.loc	10 87 36 is_stmt 0              @ ../Middlewares/CMSIS/DSP/Src/ControllerFunctions/arm_sin_cos_q31.c:87:36
	lsrs	r1, r1, #31
	orr.w	r1, r1, r0, lsl #1
	asrs	r0, r0, #31
	.loc	10 87 52                        @ ../Middlewares/CMSIS/DSP/Src/ControllerFunctions/arm_sin_cos_q31.c:87:52
	ldr	r2, [sp, #40]
	.loc	10 87 43                        @ ../Middlewares/CMSIS/DSP/Src/ControllerFunctions/arm_sin_cos_q31.c:87:43
	adds	r1, r1, r2
	adc.w	r0, r0, r2, asr #31
	str	r1, [sp, #72]
	str	r0, [sp, #76]
.Ltmp35:
	.file	11 "D:\\horizon\\Horizon_Infantry (2)\\MDK-ARM" "../Middlewares/CMSIS/DSP/Inc\\dsp/none.h"
	.loc	11 139 22 is_stmt 1             @ ../Middlewares/CMSIS/DSP/Inc\dsp/none.h:139:22
	ldr	r1, [sp, #72]
	ldr	r0, [sp, #76]
	.loc	11 139 12 is_stmt 0             @ ../Middlewares/CMSIS/DSP/Inc\dsp/none.h:139:12
	cmp.w	r0, r1, asr #31
	beq	.LBB7_2
	b	.LBB7_1
.LBB7_1:
	.loc	11 140 32 is_stmt 1             @ ../Middlewares/CMSIS/DSP/Inc\dsp/none.h:140:32
	ldr	r1, [sp, #76]
	mvn	r0, #-2147483648
	.loc	11 140 20 is_stmt 0             @ ../Middlewares/CMSIS/DSP/Inc\dsp/none.h:140:20
	eor.w	r0, r0, r1, asr #31
	.loc	11 139 12 is_stmt 1             @ ../Middlewares/CMSIS/DSP/Inc\dsp/none.h:139:12
	str	r0, [sp, #4]                    @ 4-byte Spill
	b	.LBB7_3
.LBB7_2:
	.loc	11 140 54                       @ ../Middlewares/CMSIS/DSP/Inc\dsp/none.h:140:54
	ldr	r0, [sp, #72]
	.loc	11 139 12                       @ ../Middlewares/CMSIS/DSP/Inc\dsp/none.h:139:12
	str	r0, [sp, #4]                    @ 4-byte Spill
	b	.LBB7_3
.LBB7_3:                                @ %clip_q63_to_q31.exit1
	ldr	r0, [sp, #4]                    @ 4-byte Reload
.Ltmp36:
	.loc	10 87 4                         @ ../Middlewares/CMSIS/DSP/Src/ControllerFunctions/arm_sin_cos_q31.c:87:4
	ldr	r1, [sp, #52]
	.loc	10 87 12 is_stmt 0              @ ../Middlewares/CMSIS/DSP/Src/ControllerFunctions/arm_sin_cos_q31.c:87:12
	str	r0, [r1]
	.loc	10 90 21 is_stmt 1              @ ../Middlewares/CMSIS/DSP/Src/ControllerFunctions/arm_sin_cos_q31.c:90:21
	ldrh.w	r1, [sp, #46]
	.loc	10 90 8 is_stmt 0               @ ../Middlewares/CMSIS/DSP/Src/ControllerFunctions/arm_sin_cos_q31.c:90:8
	movw	r0, :lower16:sinTable_q31
	movt	r0, :upper16:sinTable_q31
	ldr.w	r1, [r0, r1, lsl #2]
	.loc	10 90 6                         @ ../Middlewares/CMSIS/DSP/Src/ControllerFunctions/arm_sin_cos_q31.c:90:6
	str	r1, [sp, #40]
	.loc	10 91 21 is_stmt 1              @ ../Middlewares/CMSIS/DSP/Src/ControllerFunctions/arm_sin_cos_q31.c:91:21
	ldrh.w	r1, [sp, #46]
	.loc	10 91 8 is_stmt 0               @ ../Middlewares/CMSIS/DSP/Src/ControllerFunctions/arm_sin_cos_q31.c:91:8
	add.w	r1, r0, r1, lsl #2
	ldr	r1, [r1, #4]
	.loc	10 91 6                         @ ../Middlewares/CMSIS/DSP/Src/ControllerFunctions/arm_sin_cos_q31.c:91:6
	str	r1, [sp, #36]
	.loc	10 92 21 is_stmt 1              @ ../Middlewares/CMSIS/DSP/Src/ControllerFunctions/arm_sin_cos_q31.c:92:21
	ldrh.w	r1, [sp, #44]
	.loc	10 92 8 is_stmt 0               @ ../Middlewares/CMSIS/DSP/Src/ControllerFunctions/arm_sin_cos_q31.c:92:8
	ldr.w	r1, [r0, r1, lsl #2]
	.loc	10 92 6                         @ ../Middlewares/CMSIS/DSP/Src/ControllerFunctions/arm_sin_cos_q31.c:92:6
	str	r1, [sp, #32]
	.loc	10 93 21 is_stmt 1              @ ../Middlewares/CMSIS/DSP/Src/ControllerFunctions/arm_sin_cos_q31.c:93:21
	ldrh.w	r1, [sp, #44]
	.loc	10 93 8 is_stmt 0               @ ../Middlewares/CMSIS/DSP/Src/ControllerFunctions/arm_sin_cos_q31.c:93:8
	add.w	r0, r0, r1, lsl #2
	ldr	r0, [r0, #4]
	.loc	10 93 6                         @ ../Middlewares/CMSIS/DSP/Src/ControllerFunctions/arm_sin_cos_q31.c:93:6
	str	r0, [sp, #28]
	.loc	10 95 8 is_stmt 1               @ ../Middlewares/CMSIS/DSP/Src/ControllerFunctions/arm_sin_cos_q31.c:95:8
	ldr	r0, [sp, #36]
	.loc	10 95 13 is_stmt 0              @ ../Middlewares/CMSIS/DSP/Src/ControllerFunctions/arm_sin_cos_q31.c:95:13
	ldr	r1, [sp, #40]
	.loc	10 95 11                        @ ../Middlewares/CMSIS/DSP/Src/ControllerFunctions/arm_sin_cos_q31.c:95:11
	subs	r0, r0, r1
	.loc	10 95 6                         @ ../Middlewares/CMSIS/DSP/Src/ControllerFunctions/arm_sin_cos_q31.c:95:6
	str	r0, [sp, #20]
	.loc	10 96 10 is_stmt 1              @ ../Middlewares/CMSIS/DSP/Src/ControllerFunctions/arm_sin_cos_q31.c:96:10
	ldr	r3, [sp, #24]
	asrs	r0, r3, #31
	.loc	10 96 23 is_stmt 0              @ ../Middlewares/CMSIS/DSP/Src/ControllerFunctions/arm_sin_cos_q31.c:96:23
	ldr	r2, [sp, #32]
	asrs	r1, r2, #31
	.loc	10 96 28                        @ ../Middlewares/CMSIS/DSP/Src/ControllerFunctions/arm_sin_cos_q31.c:96:28
	ldr.w	r12, [sp, #28]
	.loc	10 96 26                        @ ../Middlewares/CMSIS/DSP/Src/ControllerFunctions/arm_sin_cos_q31.c:96:26
	adds.w	r2, r2, r12
	adc.w	r12, r1, r12, asr #31
	.loc	10 96 13                        @ ../Middlewares/CMSIS/DSP/Src/ControllerFunctions/arm_sin_cos_q31.c:96:13
	umull	r1, lr, r3, r2
	mla	r3, r3, r12, lr
	mla	r0, r0, r2, r3
	.loc	10 96 8                         @ ../Middlewares/CMSIS/DSP/Src/ControllerFunctions/arm_sin_cos_q31.c:96:8
	str	r1, [sp, #8]
	str	r0, [sp, #12]
	.loc	10 97 10 is_stmt 1              @ ../Middlewares/CMSIS/DSP/Src/ControllerFunctions/arm_sin_cos_q31.c:97:10
	ldr	r1, [sp, #8]
	ldr	r0, [sp, #12]
	.loc	10 97 18 is_stmt 0              @ ../Middlewares/CMSIS/DSP/Src/ControllerFunctions/arm_sin_cos_q31.c:97:18
	ldr	r2, [sp, #20]
	.loc	10 97 15                        @ ../Middlewares/CMSIS/DSP/Src/ControllerFunctions/arm_sin_cos_q31.c:97:15
	subs	r0, r0, r2
	.loc	10 97 8                         @ ../Middlewares/CMSIS/DSP/Src/ControllerFunctions/arm_sin_cos_q31.c:97:8
	str	r1, [sp, #8]
	str	r0, [sp, #12]
	.loc	10 98 17 is_stmt 1              @ ../Middlewares/CMSIS/DSP/Src/ControllerFunctions/arm_sin_cos_q31.c:98:17
	ldr	r3, [sp, #48]
	asrs	r0, r3, #31
	.loc	10 98 26 is_stmt 0              @ ../Middlewares/CMSIS/DSP/Src/ControllerFunctions/arm_sin_cos_q31.c:98:26
	ldr	r2, [sp, #8]
	ldr	r1, [sp, #12]
	.loc	10 98 31                        @ ../Middlewares/CMSIS/DSP/Src/ControllerFunctions/arm_sin_cos_q31.c:98:31
	lsrs	r2, r2, #31
	orr.w	r2, r2, r1, lsl #1
	asr.w	r12, r1, #31
	.loc	10 98 23                        @ ../Middlewares/CMSIS/DSP/Src/ControllerFunctions/arm_sin_cos_q31.c:98:23
	umull	r1, lr, r3, r2
	mla	r3, r3, r12, lr
	mla	r0, r0, r2, r3
	.loc	10 98 8                         @ ../Middlewares/CMSIS/DSP/Src/ControllerFunctions/arm_sin_cos_q31.c:98:8
	str	r1, [sp, #8]
	str	r0, [sp, #12]
	.loc	10 99 10 is_stmt 1              @ ../Middlewares/CMSIS/DSP/Src/ControllerFunctions/arm_sin_cos_q31.c:99:10
	ldr	r1, [sp, #8]
	ldr	r0, [sp, #12]
	.loc	10 99 30 is_stmt 0              @ ../Middlewares/CMSIS/DSP/Src/ControllerFunctions/arm_sin_cos_q31.c:99:30
	ldr.w	lr, [sp, #20]
	and	r12, lr, #-2147483648
	mov.w	r2, #-2147483648
	.loc	10 99 33                        @ ../Middlewares/CMSIS/DSP/Src/ControllerFunctions/arm_sin_cos_q31.c:99:33
	umull	r3, r2, lr, r2
	add	r2, lr
	add	r2, r12
	.loc	10 99 43                        @ ../Middlewares/CMSIS/DSP/Src/ControllerFunctions/arm_sin_cos_q31.c:99:43
	ldr	r4, [sp, #28]
	asr.w	r12, r4, #31
	.loc	10 99 56                        @ ../Middlewares/CMSIS/DSP/Src/ControllerFunctions/arm_sin_cos_q31.c:99:56
	ldr	r5, [sp, #32]
	asr.w	lr, r5, #31
	.loc	10 99 59                        @ ../Middlewares/CMSIS/DSP/Src/ControllerFunctions/arm_sin_cos_q31.c:99:59
	lsl.w	lr, lr, #1
	orr.w	lr, lr, r5, lsr #31
	.loc	10 99 46                        @ ../Middlewares/CMSIS/DSP/Src/ControllerFunctions/arm_sin_cos_q31.c:99:46
	adds.w	r5, r4, r5, lsl #1
	adc.w	r12, r12, lr
	.loc	10 99 68                        @ ../Middlewares/CMSIS/DSP/Src/ControllerFunctions/arm_sin_cos_q31.c:99:68
	ldr	r4, [sp, #24]
	asrs	r6, r4, #31
	.loc	10 99 66                        @ ../Middlewares/CMSIS/DSP/Src/ControllerFunctions/arm_sin_cos_q31.c:99:66
	umull	lr, r7, r5, r4
	mla	r5, r5, r6, r7
	mla	r12, r12, r4, r5
	.loc	10 99 40                        @ ../Middlewares/CMSIS/DSP/Src/ControllerFunctions/arm_sin_cos_q31.c:99:40
	subs.w	r3, r3, lr
	sbc.w	r2, r2, r12
	.loc	10 99 15                        @ ../Middlewares/CMSIS/DSP/Src/ControllerFunctions/arm_sin_cos_q31.c:99:15
	adds	r1, r1, r3
	adcs	r0, r2
	.loc	10 99 8                         @ ../Middlewares/CMSIS/DSP/Src/ControllerFunctions/arm_sin_cos_q31.c:99:8
	str	r1, [sp, #8]
	str	r0, [sp, #12]
	.loc	10 100 17 is_stmt 1             @ ../Middlewares/CMSIS/DSP/Src/ControllerFunctions/arm_sin_cos_q31.c:100:17
	ldr	r3, [sp, #48]
	asrs	r0, r3, #31
	.loc	10 100 26 is_stmt 0             @ ../Middlewares/CMSIS/DSP/Src/ControllerFunctions/arm_sin_cos_q31.c:100:26
	ldr	r2, [sp, #8]
	ldr	r1, [sp, #12]
	.loc	10 100 31                       @ ../Middlewares/CMSIS/DSP/Src/ControllerFunctions/arm_sin_cos_q31.c:100:31
	lsrs	r2, r2, #31
	orr.w	r2, r2, r1, lsl #1
	asr.w	r12, r1, #31
	.loc	10 100 23                       @ ../Middlewares/CMSIS/DSP/Src/ControllerFunctions/arm_sin_cos_q31.c:100:23
	umull	r1, lr, r3, r2
	mla	r3, r3, r12, lr
	mla	r0, r0, r2, r3
	.loc	10 100 8                        @ ../Middlewares/CMSIS/DSP/Src/ControllerFunctions/arm_sin_cos_q31.c:100:8
	str	r1, [sp, #8]
	str	r0, [sp, #12]
	.loc	10 101 10 is_stmt 1             @ ../Middlewares/CMSIS/DSP/Src/ControllerFunctions/arm_sin_cos_q31.c:101:10
	ldr	r0, [sp, #8]
	ldr	r1, [sp, #12]
	.loc	10 101 24 is_stmt 0             @ ../Middlewares/CMSIS/DSP/Src/ControllerFunctions/arm_sin_cos_q31.c:101:24
	ldr	r2, [sp, #32]
	.loc	10 101 29                       @ ../Middlewares/CMSIS/DSP/Src/ControllerFunctions/arm_sin_cos_q31.c:101:29
	ldr	r3, [sp, #24]
	.loc	10 101 15                       @ ../Middlewares/CMSIS/DSP/Src/ControllerFunctions/arm_sin_cos_q31.c:101:15
	smlal	r0, r1, r2, r3
	.loc	10 101 8                        @ ../Middlewares/CMSIS/DSP/Src/ControllerFunctions/arm_sin_cos_q31.c:101:8
	str	r1, [sp, #12]
	str	r0, [sp, #8]
	.loc	10 102 17 is_stmt 1             @ ../Middlewares/CMSIS/DSP/Src/ControllerFunctions/arm_sin_cos_q31.c:102:17
	ldr	r3, [sp, #48]
	asrs	r0, r3, #31
	.loc	10 102 26 is_stmt 0             @ ../Middlewares/CMSIS/DSP/Src/ControllerFunctions/arm_sin_cos_q31.c:102:26
	ldr	r2, [sp, #8]
	ldr	r1, [sp, #12]
	.loc	10 102 31                       @ ../Middlewares/CMSIS/DSP/Src/ControllerFunctions/arm_sin_cos_q31.c:102:31
	lsrs	r2, r2, #31
	orr.w	r2, r2, r1, lsl #1
	asr.w	r12, r1, #31
	.loc	10 102 23                       @ ../Middlewares/CMSIS/DSP/Src/ControllerFunctions/arm_sin_cos_q31.c:102:23
	umull	r1, lr, r3, r2
	mla	r3, r3, r12, lr
	mla	r0, r0, r2, r3
	.loc	10 102 8                        @ ../Middlewares/CMSIS/DSP/Src/ControllerFunctions/arm_sin_cos_q31.c:102:8
	str	r1, [sp, #8]
	str	r0, [sp, #12]
	.loc	10 105 31 is_stmt 1             @ ../Middlewares/CMSIS/DSP/Src/ControllerFunctions/arm_sin_cos_q31.c:105:31
	ldr	r1, [sp, #8]
	ldr	r0, [sp, #12]
	.loc	10 105 36 is_stmt 0             @ ../Middlewares/CMSIS/DSP/Src/ControllerFunctions/arm_sin_cos_q31.c:105:36
	lsrs	r1, r1, #31
	orr.w	r1, r1, r0, lsl #1
	asrs	r0, r0, #31
	.loc	10 105 52                       @ ../Middlewares/CMSIS/DSP/Src/ControllerFunctions/arm_sin_cos_q31.c:105:52
	ldr	r2, [sp, #40]
	.loc	10 105 43                       @ ../Middlewares/CMSIS/DSP/Src/ControllerFunctions/arm_sin_cos_q31.c:105:43
	adds	r1, r1, r2
	adc.w	r0, r0, r2, asr #31
	str	r1, [sp, #64]
	str	r0, [sp, #68]
.Ltmp37:
	.loc	11 139 22 is_stmt 1             @ ../Middlewares/CMSIS/DSP/Inc\dsp/none.h:139:22
	ldr	r1, [sp, #64]
	ldr	r0, [sp, #68]
	.loc	11 139 12 is_stmt 0             @ ../Middlewares/CMSIS/DSP/Inc\dsp/none.h:139:12
	cmp.w	r0, r1, asr #31
	beq	.LBB7_5
	b	.LBB7_4
.LBB7_4:
	.loc	11 140 32 is_stmt 1             @ ../Middlewares/CMSIS/DSP/Inc\dsp/none.h:140:32
	ldr	r1, [sp, #68]
	mvn	r0, #-2147483648
	.loc	11 140 20 is_stmt 0             @ ../Middlewares/CMSIS/DSP/Inc\dsp/none.h:140:20
	eor.w	r0, r0, r1, asr #31
	.loc	11 139 12 is_stmt 1             @ ../Middlewares/CMSIS/DSP/Inc\dsp/none.h:139:12
	str	r0, [sp]                        @ 4-byte Spill
	b	.LBB7_6
.LBB7_5:
	.loc	11 140 54                       @ ../Middlewares/CMSIS/DSP/Inc\dsp/none.h:140:54
	ldr	r0, [sp, #64]
	.loc	11 139 12                       @ ../Middlewares/CMSIS/DSP/Inc\dsp/none.h:139:12
	str	r0, [sp]                        @ 4-byte Spill
	b	.LBB7_6
.LBB7_6:                                @ %clip_q63_to_q31.exit
	ldr	r0, [sp]                        @ 4-byte Reload
.Ltmp38:
	.loc	10 105 4                        @ ../Middlewares/CMSIS/DSP/Src/ControllerFunctions/arm_sin_cos_q31.c:105:4
	ldr	r1, [sp, #56]
	.loc	10 105 12 is_stmt 0             @ ../Middlewares/CMSIS/DSP/Src/ControllerFunctions/arm_sin_cos_q31.c:105:12
	str	r0, [r1]
	.loc	10 106 1 is_stmt 1              @ ../Middlewares/CMSIS/DSP/Src/ControllerFunctions/arm_sin_cos_q31.c:106:1
	add	sp, #84
	pop	{r4, r5, r6, r7, pc}
.Ltmp39:
.Lfunc_end7:
	.size	arm_sin_cos_q31, .Lfunc_end7-arm_sin_cos_q31
	.cfi_endproc
	.cantunwind
	.fnend
                                        @ -- End function
	.file	12 "D:\\horizon\\Horizon_Infantry (2)\\MDK-ARM" "../Middlewares/CMSIS/DSP/Inc\\dsp/controller_functions.h"
	.section	".note.GNU-stack","",%progbits
	.eabi_attribute	30, 6	@ Tag_ABI_optimization_goals
	.ARM_attribute	16, 1	@ Tag_AV_eba