	.text
	.syntax unified
	.eabi_attribute	67, "2.09"	@ Tag_conformance
	.cpu	cortex-m4
	.eabi_attribute	6, 13	@ Tag_CPU_arch
	.eabi_attribute	7, 77	@ Tag_CPU_arch_profile
	.eabi_attribute	8, 0	@ Tag_ARM_ISA_use
	.eabi_attribute	9, 2	@ Tag_THUMB_ISA_use
	.fpu	fpv4-sp-d16
	.eabi_attribute	27, 1	@ Tag_ABI_HardFP_use
	.eabi_attribute	36, 1	@ Tag_FP_HP_extension
	.eabi_attribute	34, 1	@ Tag_CPU_unaligned_access
	.eabi_attribute	17, 1	@ Tag_ABI_PCS_GOT_use
	.eabi_attribute	20, 2	@ Tag_ABI_FP_denormal
	.eabi_attribute	21, 0	@ Tag_ABI_FP_exceptions
	.eabi_attribute	23, 1	@ Tag_ABI_FP_number_model
	.eabi_attribute	24, 1	@ Tag_ABI_align_needed
	.eabi_attribute	25, 1	@ Tag_ABI_align_preserved
	.eabi_attribute	28, 1	@ Tag_ABI_VFP_args
	.eabi_attribute	38, 1	@ Tag_ABI_FP_16bit_format
	.eabi_attribute	18, 2	@ Tag_ABI_PCS_wchar_t
	.eabi_attribute	26, 1	@ Tag_ABI_enum_size
	.eabi_attribute	14, 0	@ Tag_ABI_PCS_R9_use
	.file	"DistanceFunctions.c"
	.file	1 "D:\\horizon\\Horizon_Infantry (2)\\MDK-ARM" "../Middlewares/CMSIS/DSP/Inc\\arm_math_types.h"
	.file	2 "D:\\horizon\\Horizon_Infantry (2)\\MDK-ARM" "../Middlewares/CMSIS/DSP/Inc\\dsp/distance_functions.h"
	.file	3 "D:\\" "kevil\\ARM\\ARMCLANG\\Bin\\..\\include\\stdint.h"
	.section	.text.arm_boolean_distance_TT_TF_FT,"ax",%progbits
	.hidden	arm_boolean_distance_TT_TF_FT   @ -- Begin function arm_boolean_distance_TT_TF_FT
	.globl	arm_boolean_distance_TT_TF_FT
	.p2align	2
	.type	arm_boolean_distance_TT_TF_FT,%function
	.code	16                              @ @arm_boolean_distance_TT_TF_FT
	.thumb_func
arm_boolean_distance_TT_TF_FT:
.Lfunc_begin0:
	.file	4 "D:\\horizon\\Horizon_Infantry (2)\\MDK-ARM" "../Middlewares/CMSIS/DSP/Src/DistanceFunctions/arm_boolean_distance_template.h"
	.loc	4 458 0                         @ ../Middlewares/CMSIS/DSP/Src/DistanceFunctions/arm_boolean_distance_template.h:458:0
	.fnstart
	.cfi_sections .debug_frame
	.cfi_startproc
@ %bb.0:
	.pad	#72
	sub	sp, #72
	.cfi_def_cfa_offset 72
	ldr.w	r12, [sp, #76]
	ldr.w	r12, [sp, #72]
	str	r0, [sp, #68]
	str	r1, [sp, #64]
	str	r2, [sp, #60]
	str	r3, [sp, #56]
	movs	r0, #0
.Ltmp0:
	.loc	4 461 14 prologue_end           @ ../Middlewares/CMSIS/DSP/Src/DistanceFunctions/arm_boolean_distance_template.h:461:14
	str	r0, [sp, #52]
	.loc	4 467 14                        @ ../Middlewares/CMSIS/DSP/Src/DistanceFunctions/arm_boolean_distance_template.h:467:14
	str	r0, [sp, #48]
	.loc	4 470 14                        @ ../Middlewares/CMSIS/DSP/Src/DistanceFunctions/arm_boolean_distance_template.h:470:14
	str	r0, [sp, #44]
	.loc	4 475 5                         @ ../Middlewares/CMSIS/DSP/Src/DistanceFunctions/arm_boolean_distance_template.h:475:5
	b	.LBB0_1
.LBB0_1:                                @ =>This Loop Header: Depth=1
                                        @     Child Loop BB0_3 Depth 2
	.loc	4 475 11 is_stmt 0              @ ../Middlewares/CMSIS/DSP/Src/DistanceFunctions/arm_boolean_distance_template.h:475:11
	ldr	r0, [sp, #60]
	.loc	4 475 5                         @ ../Middlewares/CMSIS/DSP/Src/DistanceFunctions/arm_boolean_distance_template.h:475:5
	cmp	r0, #32
	blo	.LBB0_12
	b	.LBB0_2
.LBB0_2:                                @   in Loop: Header=BB0_1 Depth=1
.Ltmp1:
	.loc	4 477 15 is_stmt 1              @ ../Middlewares/CMSIS/DSP/Src/DistanceFunctions/arm_boolean_distance_template.h:477:15
	ldr	r0, [sp, #68]
	adds	r1, r0, #4
	str	r1, [sp, #68]
	.loc	4 477 12 is_stmt 0              @ ../Middlewares/CMSIS/DSP/Src/DistanceFunctions/arm_boolean_distance_template.h:477:12
	ldr	r0, [r0]
	.loc	4 477 10                        @ ../Middlewares/CMSIS/DSP/Src/DistanceFunctions/arm_boolean_distance_template.h:477:10
	str	r0, [sp, #40]
	.loc	4 478 15 is_stmt 1              @ ../Middlewares/CMSIS/DSP/Src/DistanceFunctions/arm_boolean_distance_template.h:478:15
	ldr	r0, [sp, #64]
	adds	r1, r0, #4
	str	r1, [sp, #64]
	.loc	4 478 12 is_stmt 0              @ ../Middlewares/CMSIS/DSP/Src/DistanceFunctions/arm_boolean_distance_template.h:478:12
	ldr	r0, [r0]
	.loc	4 478 10                        @ ../Middlewares/CMSIS/DSP/Src/DistanceFunctions/arm_boolean_distance_template.h:478:10
	str	r0, [sp, #36]
	movs	r0, #0
	.loc	4 479 14 is_stmt 1              @ ../Middlewares/CMSIS/DSP/Src/DistanceFunctions/arm_boolean_distance_template.h:479:14
	str	r0, [sp, #24]
	.loc	4 480 8                         @ ../Middlewares/CMSIS/DSP/Src/DistanceFunctions/arm_boolean_distance_template.h:480:8
	b	.LBB0_3
.LBB0_3:                                @   Parent Loop BB0_1 Depth=1
                                        @ =>  This Inner Loop Header: Depth=2
	.loc	4 480 14 is_stmt 0              @ ../Middlewares/CMSIS/DSP/Src/DistanceFunctions/arm_boolean_distance_template.h:480:14
	ldr	r0, [sp, #24]
	.loc	4 480 8                         @ ../Middlewares/CMSIS/DSP/Src/DistanceFunctions/arm_boolean_distance_template.h:480:8
	cmp	r0, #31
	bgt	.LBB0_11
	b	.LBB0_4
.LBB0_4:                                @   in Loop: Header=BB0_3 Depth=2
.Ltmp2:
	.loc	4 482 16 is_stmt 1              @ ../Middlewares/CMSIS/DSP/Src/DistanceFunctions/arm_boolean_distance_template.h:482:16
	ldr	r0, [sp, #40]
	.loc	4 482 18 is_stmt 0              @ ../Middlewares/CMSIS/DSP/Src/DistanceFunctions/arm_boolean_distance_template.h:482:18
	and	r0, r0, #1
	.loc	4 482 14                        @ ../Middlewares/CMSIS/DSP/Src/DistanceFunctions/arm_boolean_distance_template.h:482:14
	str	r0, [sp, #32]
	.loc	4 483 16 is_stmt 1              @ ../Middlewares/CMSIS/DSP/Src/DistanceFunctions/arm_boolean_distance_template.h:483:16
	ldr	r0, [sp, #36]
	.loc	4 483 18 is_stmt 0              @ ../Middlewares/CMSIS/DSP/Src/DistanceFunctions/arm_boolean_distance_template.h:483:18
	and	r0, r0, #1
	.loc	4 483 14                        @ ../Middlewares/CMSIS/DSP/Src/DistanceFunctions/arm_boolean_distance_template.h:483:14
	str	r0, [sp, #28]
	.loc	4 484 15 is_stmt 1              @ ../Middlewares/CMSIS/DSP/Src/DistanceFunctions/arm_boolean_distance_template.h:484:15
	ldr	r0, [sp, #40]
	.loc	4 484 17 is_stmt 0              @ ../Middlewares/CMSIS/DSP/Src/DistanceFunctions/arm_boolean_distance_template.h:484:17
	lsrs	r0, r0, #1
	.loc	4 484 13                        @ ../Middlewares/CMSIS/DSP/Src/DistanceFunctions/arm_boolean_distance_template.h:484:13
	str	r0, [sp, #40]
	.loc	4 485 15 is_stmt 1              @ ../Middlewares/CMSIS/DSP/Src/DistanceFunctions/arm_boolean_distance_template.h:485:15
	ldr	r0, [sp, #36]
	.loc	4 485 17 is_stmt 0              @ ../Middlewares/CMSIS/DSP/Src/DistanceFunctions/arm_boolean_distance_template.h:485:17
	lsrs	r0, r0, #1
	.loc	4 485 13                        @ ../Middlewares/CMSIS/DSP/Src/DistanceFunctions/arm_boolean_distance_template.h:485:13
	str	r0, [sp, #36]
	.loc	4 487 20 is_stmt 1              @ ../Middlewares/CMSIS/DSP/Src/DistanceFunctions/arm_boolean_distance_template.h:487:20
	ldr	r1, [sp, #32]
	movs	r0, #0
	.loc	4 487 23 is_stmt 0              @ ../Middlewares/CMSIS/DSP/Src/DistanceFunctions/arm_boolean_distance_template.h:487:23
	str	r0, [sp, #20]                   @ 4-byte Spill
	cbz	r1, .LBB0_6
	b	.LBB0_5
.LBB0_5:                                @   in Loop: Header=BB0_3 Depth=2
	.loc	4 487 26                        @ ../Middlewares/CMSIS/DSP/Src/DistanceFunctions/arm_boolean_distance_template.h:487:26
	ldr	r0, [sp, #28]
	.loc	4 487 23                        @ ../Middlewares/CMSIS/DSP/Src/DistanceFunctions/arm_boolean_distance_template.h:487:23
	cmp	r0, #0
	it	ne
	movne	r0, #1
	str	r0, [sp, #20]                   @ 4-byte Spill
	b	.LBB0_6
.LBB0_6:                                @   in Loop: Header=BB0_3 Depth=2
	.loc	4 0 0                           @ ../Middlewares/CMSIS/DSP/Src/DistanceFunctions/arm_boolean_distance_template.h:0:0
	ldr	r0, [sp, #20]                   @ 4-byte Reload
	.loc	4 487 23                        @ ../Middlewares/CMSIS/DSP/Src/DistanceFunctions/arm_boolean_distance_template.h:487:23
	and	r1, r0, #1
	.loc	4 487 16                        @ ../Middlewares/CMSIS/DSP/Src/DistanceFunctions/arm_boolean_distance_template.h:487:16
	ldr	r0, [sp, #52]
	add	r0, r1
	str	r0, [sp, #52]
	.loc	4 493 20 is_stmt 1              @ ../Middlewares/CMSIS/DSP/Src/DistanceFunctions/arm_boolean_distance_template.h:493:20
	ldr	r1, [sp, #32]
	movs	r0, #0
	.loc	4 493 23 is_stmt 0              @ ../Middlewares/CMSIS/DSP/Src/DistanceFunctions/arm_boolean_distance_template.h:493:23
	str	r0, [sp, #16]                   @ 4-byte Spill
	cbz	r1, .LBB0_8
	b	.LBB0_7
.LBB0_7:                                @   in Loop: Header=BB0_3 Depth=2
	.loc	4 493 31                        @ ../Middlewares/CMSIS/DSP/Src/DistanceFunctions/arm_boolean_distance_template.h:493:31
	ldr	r0, [sp, #28]
	.loc	4 493 29                        @ ../Middlewares/CMSIS/DSP/Src/DistanceFunctions/arm_boolean_distance_template.h:493:29
	eor	r0, r0, #1
	.loc	4 493 23                        @ ../Middlewares/CMSIS/DSP/Src/DistanceFunctions/arm_boolean_distance_template.h:493:23
	cmp	r0, #0
	it	ne
	movne	r0, #1
	str	r0, [sp, #16]                   @ 4-byte Spill
	b	.LBB0_8
.LBB0_8:                                @   in Loop: Header=BB0_3 Depth=2
	.loc	4 0 0                           @ ../Middlewares/CMSIS/DSP/Src/DistanceFunctions/arm_boolean_distance_template.h:0:0
	ldr	r0, [sp, #16]                   @ 4-byte Reload
	.loc	4 493 23                        @ ../Middlewares/CMSIS/DSP/Src/DistanceFunctions/arm_boolean_distance_template.h:493:23
	and	r1, r0, #1
	.loc	4 493 16                        @ ../Middlewares/CMSIS/DSP/Src/DistanceFunctions/arm_boolean_distance_template.h:493:16
	ldr	r0, [sp, #48]
	add	r0, r1
	str	r0, [sp, #48]
	.loc	4 496 25 is_stmt 1              @ ../Middlewares/CMSIS/DSP/Src/DistanceFunctions/arm_boolean_distance_template.h:496:25
	ldr	r1, [sp, #32]
	movs	r0, #0
	.loc	4 496 29 is_stmt 0              @ ../Middlewares/CMSIS/DSP/Src/DistanceFunctions/arm_boolean_distance_template.h:496:29
	teq.w	r1, #1
	str	r0, [sp, #12]                   @ 4-byte Spill
	beq	.LBB0_10
	b	.LBB0_9
.LBB0_9:                                @   in Loop: Header=BB0_3 Depth=2
	.loc	4 496 32                        @ ../Middlewares/CMSIS/DSP/Src/DistanceFunctions/arm_boolean_distance_template.h:496:32
	ldr	r0, [sp, #28]
	.loc	4 496 29                        @ ../Middlewares/CMSIS/DSP/Src/DistanceFunctions/arm_boolean_distance_template.h:496:29
	cmp	r0, #0
	it	ne
	movne	r0, #1
	str	r0, [sp, #12]                   @ 4-byte Spill
	b	.LBB0_10
.LBB0_10:                               @   in Loop: Header=BB0_3 Depth=2
	.loc	4 0 0                           @ ../Middlewares/CMSIS/DSP/Src/DistanceFunctions/arm_boolean_distance_template.h:0:0
	ldr	r0, [sp, #12]                   @ 4-byte Reload
	.loc	4 496 29                        @ ../Middlewares/CMSIS/DSP/Src/DistanceFunctions/arm_boolean_distance_template.h:496:29
	and	r1, r0, #1
	.loc	4 496 16                        @ ../Middlewares/CMSIS/DSP/Src/DistanceFunctions/arm_boolean_distance_template.h:496:16
	ldr	r0, [sp, #44]
	add	r0, r1
	str	r0, [sp, #44]
	.loc	4 498 17 is_stmt 1              @ ../Middlewares/CMSIS/DSP/Src/DistanceFunctions/arm_boolean_distance_template.h:498:17
	ldr	r0, [sp, #24]
	adds	r0, #1
	str	r0, [sp, #24]
.Ltmp3:
	.loc	4 480 8                         @ ../Middlewares/CMSIS/DSP/Src/DistanceFunctions/arm_boolean_distance_template.h:480:8
	b	.LBB0_3
.LBB0_11:                               @   in Loop: Header=BB0_1 Depth=1
	.loc	4 501 22                        @ ../Middlewares/CMSIS/DSP/Src/DistanceFunctions/arm_boolean_distance_template.h:501:22
	ldr	r0, [sp, #60]
	subs	r0, #32
	str	r0, [sp, #60]
.Ltmp4:
	.loc	4 475 5                         @ ../Middlewares/CMSIS/DSP/Src/DistanceFunctions/arm_boolean_distance_template.h:475:5
	b	.LBB0_1
.LBB0_12:
	.loc	4 504 12                        @ ../Middlewares/CMSIS/DSP/Src/DistanceFunctions/arm_boolean_distance_template.h:504:12
	ldr	r0, [sp, #68]
	adds	r1, r0, #4
	str	r1, [sp, #68]
	.loc	4 504 9 is_stmt 0               @ ../Middlewares/CMSIS/DSP/Src/DistanceFunctions/arm_boolean_distance_template.h:504:9
	ldr	r0, [r0]
	.loc	4 504 7                         @ ../Middlewares/CMSIS/DSP/Src/DistanceFunctions/arm_boolean_distance_template.h:504:7
	str	r0, [sp, #40]
	.loc	4 505 12 is_stmt 1              @ ../Middlewares/CMSIS/DSP/Src/DistanceFunctions/arm_boolean_distance_template.h:505:12
	ldr	r0, [sp, #64]
	adds	r1, r0, #4
	str	r1, [sp, #64]
	.loc	4 505 9 is_stmt 0               @ ../Middlewares/CMSIS/DSP/Src/DistanceFunctions/arm_boolean_distance_template.h:505:9
	ldr	r0, [r0]
	.loc	4 505 7                         @ ../Middlewares/CMSIS/DSP/Src/DistanceFunctions/arm_boolean_distance_template.h:505:7
	str	r0, [sp, #36]
	.loc	4 507 9 is_stmt 1               @ ../Middlewares/CMSIS/DSP/Src/DistanceFunctions/arm_boolean_distance_template.h:507:9
	ldr	r0, [sp, #40]
	.loc	4 507 20 is_stmt 0              @ ../Middlewares/CMSIS/DSP/Src/DistanceFunctions/arm_boolean_distance_template.h:507:20
	ldr	r1, [sp, #60]
	.loc	4 507 18                        @ ../Middlewares/CMSIS/DSP/Src/DistanceFunctions/arm_boolean_distance_template.h:507:18
	rsb.w	r1, r1, #32
	.loc	4 507 11                        @ ../Middlewares/CMSIS/DSP/Src/DistanceFunctions/arm_boolean_distance_template.h:507:11
	lsrs	r0, r1
	.loc	4 507 7                         @ ../Middlewares/CMSIS/DSP/Src/DistanceFunctions/arm_boolean_distance_template.h:507:7
	str	r0, [sp, #40]
	.loc	4 508 9 is_stmt 1               @ ../Middlewares/CMSIS/DSP/Src/DistanceFunctions/arm_boolean_distance_template.h:508:9
	ldr	r0, [sp, #36]
	.loc	4 508 20 is_stmt 0              @ ../Middlewares/CMSIS/DSP/Src/DistanceFunctions/arm_boolean_distance_template.h:508:20
	ldr	r1, [sp, #60]
	.loc	4 508 18                        @ ../Middlewares/CMSIS/DSP/Src/DistanceFunctions/arm_boolean_distance_template.h:508:18
	rsb.w	r1, r1, #32
	.loc	4 508 11                        @ ../Middlewares/CMSIS/DSP/Src/DistanceFunctions/arm_boolean_distance_template.h:508:11
	lsrs	r0, r1
	.loc	4 508 7                         @ ../Middlewares/CMSIS/DSP/Src/DistanceFunctions/arm_boolean_distance_template.h:508:7
	str	r0, [sp, #36]
	.loc	4 510 5 is_stmt 1               @ ../Middlewares/CMSIS/DSP/Src/DistanceFunctions/arm_boolean_distance_template.h:510:5
	b	.LBB0_13
.LBB0_13:                               @ =>This Inner Loop Header: Depth=1
	.loc	4 510 11 is_stmt 0              @ ../Middlewares/CMSIS/DSP/Src/DistanceFunctions/arm_boolean_distance_template.h:510:11
	ldr	r0, [sp, #60]
	.loc	4 510 5                         @ ../Middlewares/CMSIS/DSP/Src/DistanceFunctions/arm_boolean_distance_template.h:510:5
	cmp	r0, #0
	beq	.LBB0_21
	b	.LBB0_14
.LBB0_14:                               @   in Loop: Header=BB0_13 Depth=1
.Ltmp5:
	.loc	4 512 16 is_stmt 1              @ ../Middlewares/CMSIS/DSP/Src/DistanceFunctions/arm_boolean_distance_template.h:512:16
	ldr	r0, [sp, #40]
	.loc	4 512 18 is_stmt 0              @ ../Middlewares/CMSIS/DSP/Src/DistanceFunctions/arm_boolean_distance_template.h:512:18
	and	r0, r0, #1
	.loc	4 512 14                        @ ../Middlewares/CMSIS/DSP/Src/DistanceFunctions/arm_boolean_distance_template.h:512:14
	str	r0, [sp, #32]
	.loc	4 513 16 is_stmt 1              @ ../Middlewares/CMSIS/DSP/Src/DistanceFunctions/arm_boolean_distance_template.h:513:16
	ldr	r0, [sp, #36]
	.loc	4 513 18 is_stmt 0              @ ../Middlewares/CMSIS/DSP/Src/DistanceFunctions/arm_boolean_distance_template.h:513:18
	and	r0, r0, #1
	.loc	4 513 14                        @ ../Middlewares/CMSIS/DSP/Src/DistanceFunctions/arm_boolean_distance_template.h:513:14
	str	r0, [sp, #28]
	.loc	4 514 15 is_stmt 1              @ ../Middlewares/CMSIS/DSP/Src/DistanceFunctions/arm_boolean_distance_template.h:514:15
	ldr	r0, [sp, #40]
	.loc	4 514 17 is_stmt 0              @ ../Middlewares/CMSIS/DSP/Src/DistanceFunctions/arm_boolean_distance_template.h:514:17
	lsrs	r0, r0, #1
	.loc	4 514 13                        @ ../Middlewares/CMSIS/DSP/Src/DistanceFunctions/arm_boolean_distance_template.h:514:13
	str	r0, [sp, #40]
	.loc	4 515 15 is_stmt 1              @ ../Middlewares/CMSIS/DSP/Src/DistanceFunctions/arm_boolean_distance_template.h:515:15
	ldr	r0, [sp, #36]
	.loc	4 515 17 is_stmt 0              @ ../Middlewares/CMSIS/DSP/Src/DistanceFunctions/arm_boolean_distance_template.h:515:17
	lsrs	r0, r0, #1
	.loc	4 515 13                        @ ../Middlewares/CMSIS/DSP/Src/DistanceFunctions/arm_boolean_distance_template.h:515:13
	str	r0, [sp, #36]
	.loc	4 518 20 is_stmt 1              @ ../Middlewares/CMSIS/DSP/Src/DistanceFunctions/arm_boolean_distance_template.h:518:20
	ldr	r1, [sp, #32]
	movs	r0, #0
	.loc	4 518 23 is_stmt 0              @ ../Middlewares/CMSIS/DSP/Src/DistanceFunctions/arm_boolean_distance_template.h:518:23
	str	r0, [sp, #8]                    @ 4-byte Spill
	cbz	r1, .LBB0_16
	b	.LBB0_15
.LBB0_15:                               @   in Loop: Header=BB0_13 Depth=1
	.loc	4 518 26                        @ ../Middlewares/CMSIS/DSP/Src/DistanceFunctions/arm_boolean_distance_template.h:518:26
	ldr	r0, [sp, #28]
	.loc	4 518 23                        @ ../Middlewares/CMSIS/DSP/Src/DistanceFunctions/arm_boolean_distance_template.h:518:23
	cmp	r0, #0
	it	ne
	movne	r0, #1
	str	r0, [sp, #8]                    @ 4-byte Spill
	b	.LBB0_16
.LBB0_16:                               @   in Loop: Header=BB0_13 Depth=1
	.loc	4 0 0                           @ ../Middlewares/CMSIS/DSP/Src/DistanceFunctions/arm_boolean_distance_template.h:0:0
	ldr	r0, [sp, #8]                    @ 4-byte Reload
	.loc	4 518 23                        @ ../Middlewares/CMSIS/DSP/Src/DistanceFunctions/arm_boolean_distance_template.h:518:23
	and	r1, r0, #1
	.loc	4 518 16                        @ ../Middlewares/CMSIS/DSP/Src/DistanceFunctions/arm_boolean_distance_template.h:518:16
	ldr	r0, [sp, #52]
	add	r0, r1
	str	r0, [sp, #52]
	.loc	4 524 20 is_stmt 1              @ ../Middlewares/CMSIS/DSP/Src/DistanceFunctions/arm_boolean_distance_template.h:524:20
	ldr	r1, [sp, #32]
	movs	r0, #0
	.loc	4 524 23 is_stmt 0              @ ../Middlewares/CMSIS/DSP/Src/DistanceFunctions/arm_boolean_distance_template.h:524:23
	str	r0, [sp, #4]                    @ 4-byte Spill
	cbz	r1, .LBB0_18
	b	.LBB0_17
.LBB0_17:                               @   in Loop: Header=BB0_13 Depth=1
	.loc	4 524 31                        @ ../Middlewares/CMSIS/DSP/Src/DistanceFunctions/arm_boolean_distance_template.h:524:31
	ldr	r0, [sp, #28]
	.loc	4 524 29                        @ ../Middlewares/CMSIS/DSP/Src/DistanceFunctions/arm_boolean_distance_template.h:524:29
	eor	r0, r0, #1
	.loc	4 524 23                        @ ../Middlewares/CMSIS/DSP/Src/DistanceFunctions/arm_boolean_distance_template.h:524:23
	cmp	r0, #0
	it	ne
	movne	r0, #1
	str	r0, [sp, #4]                    @ 4-byte Spill
	b	.LBB0_18
.LBB0_18:                               @   in Loop: Header=BB0_13 Depth=1
	.loc	4 0 0                           @ ../Middlewares/CMSIS/DSP/Src/DistanceFunctions/arm_boolean_distance_template.h:0:0
	ldr	r0, [sp, #4]                    @ 4-byte Reload
	.loc	4 524 23                        @ ../Middlewares/CMSIS/DSP/Src/DistanceFunctions/arm_boolean_distance_template.h:524:23
	and	r1, r0, #1
	.loc	4 524 16                        @ ../Middlewares/CMSIS/DSP/Src/DistanceFunctions/arm_boolean_distance_template.h:524:16
	ldr	r0, [sp, #48]
	add	r0, r1
	str	r0, [sp, #48]
	.loc	4 527 25 is_stmt 1              @ ../Middlewares/CMSIS/DSP/Src/DistanceFunctions/arm_boolean_distance_template.h:527:25
	ldr	r1, [sp, #32]
	movs	r0, #0
	.loc	4 527 29 is_stmt 0              @ ../Middlewares/CMSIS/DSP/Src/DistanceFunctions/arm_boolean_distance_template.h:527:29
	teq.w	r1, #1
	str	r0, [sp]                        @ 4-byte Spill
	beq	.LBB0_20
	b	.LBB0_19
.LBB0_19:                               @   in Loop: Header=BB0_13 Depth=1
	.loc	4 527 32                        @ ../Middlewares/CMSIS/DSP/Src/DistanceFunctions/arm_boolean_distance_template.h:527:32
	ldr	r0, [sp, #28]
	.loc	4 527 29                        @ ../Middlewares/CMSIS/DSP/Src/DistanceFunctions/arm_boolean_distance_template.h:527:29
	cmp	r0, #0
	it	ne
	movne	r0, #1
	str	r0, [sp]                        @ 4-byte Spill
	b	.LBB0_20
.LBB0_20:                               @   in Loop: Header=BB0_13 Depth=1
	.loc	4 0 0                           @ ../Middlewares/CMSIS/DSP/Src/DistanceFunctions/arm_boolean_distance_template.h:0:0
	ldr	r0, [sp]                        @ 4-byte Reload
	.loc	4 527 29                        @ ../Middlewares/CMSIS/DSP/Src/DistanceFunctions/arm_boolean_distance_template.h:527:29
	and	r1, r0, #1
	.loc	4 527 16                        @ ../Middlewares/CMSIS/DSP/Src/DistanceFunctions/arm_boolean_distance_template.h:527:16
	ldr	r0, [sp, #44]
	add	r0, r1
	str	r0, [sp, #44]
	.loc	4 529 25 is_stmt 1              @ ../Middlewares/CMSIS/DSP/Src/DistanceFunctions/arm_boolean_distance_template.h:529:25
	ldr	r0, [sp, #60]
	subs	r0, #1
	str	r0, [sp, #60]
.Ltmp6:
	.loc	4 510 5                         @ ../Middlewares/CMSIS/DSP/Src/DistanceFunctions/arm_boolean_distance_template.h:510:5
	b	.LBB0_13
.LBB0_21:
	.loc	4 533 12                        @ ../Middlewares/CMSIS/DSP/Src/DistanceFunctions/arm_boolean_distance_template.h:533:12
	ldr	r0, [sp, #52]
	.loc	4 533 6 is_stmt 0               @ ../Middlewares/CMSIS/DSP/Src/DistanceFunctions/arm_boolean_distance_template.h:533:6
	ldr	r1, [sp, #56]
	.loc	4 533 10                        @ ../Middlewares/CMSIS/DSP/Src/DistanceFunctions/arm_boolean_distance_template.h:533:10
	str	r0, [r1]
	.loc	4 539 12 is_stmt 1              @ ../Middlewares/CMSIS/DSP/Src/DistanceFunctions/arm_boolean_distance_template.h:539:12
	ldr	r0, [sp, #48]
	.loc	4 539 6 is_stmt 0               @ ../Middlewares/CMSIS/DSP/Src/DistanceFunctions/arm_boolean_distance_template.h:539:6
	ldr	r1, [sp, #72]
	.loc	4 539 10                        @ ../Middlewares/CMSIS/DSP/Src/DistanceFunctions/arm_boolean_distance_template.h:539:10
	str	r0, [r1]
	.loc	4 542 12 is_stmt 1              @ ../Middlewares/CMSIS/DSP/Src/DistanceFunctions/arm_boolean_distance_template.h:542:12
	ldr	r0, [sp, #44]
	.loc	4 542 6 is_stmt 0               @ ../Middlewares/CMSIS/DSP/Src/DistanceFunctions/arm_boolean_distance_template.h:542:6
	ldr	r1, [sp, #76]
	.loc	4 542 10                        @ ../Middlewares/CMSIS/DSP/Src/DistanceFunctions/arm_boolean_distance_template.h:542:10
	str	r0, [r1]
	.loc	4 544 1 is_stmt 1               @ ../Middlewares/CMSIS/DSP/Src/DistanceFunctions/arm_boolean_distance_template.h:544:1
	add	sp, #72
	bx	lr
.Ltmp7:
.Lfunc_end0:
	.size	arm_boolean_distance_TT_TF_FT, .Lfunc_end0-arm_boolean_distance_TT_TF_FT
	.cfi_endproc
	.cantunwind
	.fnend
                                        @ -- End function
	.section	.text.arm_boolean_distance_TF_FT,"ax",%progbits
	.hidden	arm_boolean_distance_TF_FT      @ -- Begin function arm_boolean_distance_TF_FT
	.globl	arm_boolean_distance_TF_FT
	.p2align	2
	.type	arm_boolean_distance_TF_FT,%function
	.code	16                              @ @arm_boolean_distance_TF_FT
	.thumb_func
arm_boolean_distance_TF_FT:
.Lfunc_begin1:
	.loc	4 458 0                         @ ../Middlewares/CMSIS/DSP/Src/DistanceFunctions/arm_boolean_distance_template.h:458:0
	.fnstart
	.cfi_startproc
@ %bb.0:
	.pad	#60
	sub	sp, #60
	.cfi_def_cfa_offset 60
	ldr.w	r12, [sp, #60]
	str	r0, [sp, #56]
	str	r1, [sp, #52]
	str	r2, [sp, #48]
	str	r3, [sp, #44]
	movs	r0, #0
.Ltmp8:
	.loc	4 467 14 prologue_end           @ ../Middlewares/CMSIS/DSP/Src/DistanceFunctions/arm_boolean_distance_template.h:467:14
	str	r0, [sp, #40]
	.loc	4 470 14                        @ ../Middlewares/CMSIS/DSP/Src/DistanceFunctions/arm_boolean_distance_template.h:470:14
	str	r0, [sp, #36]
	.loc	4 475 5                         @ ../Middlewares/CMSIS/DSP/Src/DistanceFunctions/arm_boolean_distance_template.h:475:5
	b	.LBB1_1
.LBB1_1:                                @ =>This Loop Header: Depth=1
                                        @     Child Loop BB1_3 Depth 2
	.loc	4 475 11 is_stmt 0              @ ../Middlewares/CMSIS/DSP/Src/DistanceFunctions/arm_boolean_distance_template.h:475:11
	ldr	r0, [sp, #48]
	.loc	4 475 5                         @ ../Middlewares/CMSIS/DSP/Src/DistanceFunctions/arm_boolean_distance_template.h:475:5
	cmp	r0, #32
	blo	.LBB1_10
	b	.LBB1_2
.LBB1_2:                                @   in Loop: Header=BB1_1 Depth=1
.Ltmp9:
	.loc	4 477 15 is_stmt 1              @ ../Middlewares/CMSIS/DSP/Src/DistanceFunctions/arm_boolean_distance_template.h:477:15
	ldr	r0, [sp, #56]
	adds	r1, r0, #4
	str	r1, [sp, #56]
	.loc	4 477 12 is_stmt 0              @ ../Middlewares/CMSIS/DSP/Src/DistanceFunctions/arm_boolean_distance_template.h:477:12
	ldr	r0, [r0]
	.loc	4 477 10                        @ ../Middlewares/CMSIS/DSP/Src/DistanceFunctions/arm_boolean_distance_template.h:477:10
	str	r0, [sp, #32]
	.loc	4 478 15 is_stmt 1              @ ../Middlewares/CMSIS/DSP/Src/DistanceFunctions/arm_boolean_distance_template.h:478:15
	ldr	r0, [sp, #52]
	adds	r1, r0, #4
	str	r1, [sp, #52]
	.loc	4 478 12 is_stmt 0              @ ../Middlewares/CMSIS/DSP/Src/DistanceFunctions/arm_boolean_distance_template.h:478:12
	ldr	r0, [r0]
	.loc	4 478 10                        @ ../Middlewares/CMSIS/DSP/Src/DistanceFunctions/arm_boolean_distance_template.h:478:10
	str	r0, [sp, #28]
	movs	r0, #0
	.loc	4 479 14 is_stmt 1              @ ../Middlewares/CMSIS/DSP/Src/DistanceFunctions/arm_boolean_distance_template.h:479:14
	str	r0, [sp, #16]
	.loc	4 480 8                         @ ../Middlewares/CMSIS/DSP/Src/DistanceFunctions/arm_boolean_distance_template.h:480:8
	b	.LBB1_3
.LBB1_3:                                @   Parent Loop BB1_1 Depth=1
                                        @ =>  This Inner Loop Header: Depth=2
	.loc	4 480 14 is_stmt 0              @ ../Middlewares/CMSIS/DSP/Src/DistanceFunctions/arm_boolean_distance_template.h:480:14
	ldr	r0, [sp, #16]
	.loc	4 480 8                         @ ../Middlewares/CMSIS/DSP/Src/DistanceFunctions/arm_boolean_distance_template.h:480:8
	cmp	r0, #31
	bgt	.LBB1_9
	b	.LBB1_4
.LBB1_4:                                @   in Loop: Header=BB1_3 Depth=2
.Ltmp10:
	.loc	4 482 16 is_stmt 1              @ ../Middlewares/CMSIS/DSP/Src/DistanceFunctions/arm_boolean_distance_template.h:482:16
	ldr	r0, [sp, #32]
	.loc	4 482 18 is_stmt 0              @ ../Middlewares/CMSIS/DSP/Src/DistanceFunctions/arm_boolean_distance_template.h:482:18
	and	r0, r0, #1
	.loc	4 482 14                        @ ../Middlewares/CMSIS/DSP/Src/DistanceFunctions/arm_boolean_distance_template.h:482:14
	str	r0, [sp, #24]
	.loc	4 483 16 is_stmt 1              @ ../Middlewares/CMSIS/DSP/Src/DistanceFunctions/arm_boolean_distance_template.h:483:16
	ldr	r0, [sp, #28]
	.loc	4 483 18 is_stmt 0              @ ../Middlewares/CMSIS/DSP/Src/DistanceFunctions/arm_boolean_distance_template.h:483:18
	and	r0, r0, #1
	.loc	4 483 14                        @ ../Middlewares/CMSIS/DSP/Src/DistanceFunctions/arm_boolean_distance_template.h:483:14
	str	r0, [sp, #20]
	.loc	4 484 15 is_stmt 1              @ ../Middlewares/CMSIS/DSP/Src/DistanceFunctions/arm_boolean_distance_template.h:484:15
	ldr	r0, [sp, #32]
	.loc	4 484 17 is_stmt 0              @ ../Middlewares/CMSIS/DSP/Src/DistanceFunctions/arm_boolean_distance_template.h:484:17
	lsrs	r0, r0, #1
	.loc	4 484 13                        @ ../Middlewares/CMSIS/DSP/Src/DistanceFunctions/arm_boolean_distance_template.h:484:13
	str	r0, [sp, #32]
	.loc	4 485 15 is_stmt 1              @ ../Middlewares/CMSIS/DSP/Src/DistanceFunctions/arm_boolean_distance_template.h:485:15
	ldr	r0, [sp, #28]
	.loc	4 485 17 is_stmt 0              @ ../Middlewares/CMSIS/DSP/Src/DistanceFunctions/arm_boolean_distance_template.h:485:17
	lsrs	r0, r0, #1
	.loc	4 485 13                        @ ../Middlewares/CMSIS/DSP/Src/DistanceFunctions/arm_boolean_distance_template.h:485:13
	str	r0, [sp, #28]
	.loc	4 493 20 is_stmt 1              @ ../Middlewares/CMSIS/DSP/Src/DistanceFunctions/arm_boolean_distance_template.h:493:20
	ldr	r1, [sp, #24]
	movs	r0, #0
	.loc	4 493 23 is_stmt 0              @ ../Middlewares/CMSIS/DSP/Src/DistanceFunctions/arm_boolean_distance_template.h:493:23
	str	r0, [sp, #12]                   @ 4-byte Spill
	cbz	r1, .LBB1_6
	b	.LBB1_5
.LBB1_5:                                @   in Loop: Header=BB1_3 Depth=2
	.loc	4 493 31                        @ ../Middlewares/CMSIS/DSP/Src/DistanceFunctions/arm_boolean_distance_template.h:493:31
	ldr	r0, [sp, #20]
	.loc	4 493 29                        @ ../Middlewares/CMSIS/DSP/Src/DistanceFunctions/arm_boolean_distance_template.h:493:29
	eor	r0, r0, #1
	.loc	4 493 23                        @ ../Middlewares/CMSIS/DSP/Src/DistanceFunctions/arm_boolean_distance_template.h:493:23
	cmp	r0, #0
	it	ne
	movne	r0, #1
	str	r0, [sp, #12]                   @ 4-byte Spill
	b	.LBB1_6
.LBB1_6:                                @   in Loop: Header=BB1_3 Depth=2
	.loc	4 0 0                           @ ../Middlewares/CMSIS/DSP/Src/DistanceFunctions/arm_boolean_distance_template.h:0:0
	ldr	r0, [sp, #12]                   @ 4-byte Reload
	.loc	4 493 23                        @ ../Middlewares/CMSIS/DSP/Src/DistanceFunctions/arm_boolean_distance_template.h:493:23
	and	r1, r0, #1
	.loc	4 493 16                        @ ../Middlewares/CMSIS/DSP/Src/DistanceFunctions/arm_boolean_distance_template.h:493:16
	ldr	r0, [sp, #40]
	add	r0, r1
	str	r0, [sp, #40]
	.loc	4 496 25 is_stmt 1              @ ../Middlewares/CMSIS/DSP/Src/DistanceFunctions/arm_boolean_distance_template.h:496:25
	ldr	r1, [sp, #24]
	movs	r0, #0
	.loc	4 496 29 is_stmt 0              @ ../Middlewares/CMSIS/DSP/Src/DistanceFunctions/arm_boolean_distance_template.h:496:29
	teq.w	r1, #1
	str	r0, [sp, #8]                    @ 4-byte Spill
	beq	.LBB1_8
	b	.LBB1_7
.LBB1_7:                                @   in Loop: Header=BB1_3 Depth=2
	.loc	4 496 32                        @ ../Middlewares/CMSIS/DSP/Src/DistanceFunctions/arm_boolean_distance_template.h:496:32
	ldr	r0, [sp, #20]
	.loc	4 496 29                        @ ../Middlewares/CMSIS/DSP/Src/DistanceFunctions/arm_boolean_distance_template.h:496:29
	cmp	r0, #0
	it	ne
	movne	r0, #1
	str	r0, [sp, #8]                    @ 4-byte Spill
	b	.LBB1_8
.LBB1_8:                                @   in Loop: Header=BB1_3 Depth=2
	.loc	4 0 0                           @ ../Middlewares/CMSIS/DSP/Src/DistanceFunctions/arm_boolean_distance_template.h:0:0
	ldr	r0, [sp, #8]                    @ 4-byte Reload
	.loc	4 496 29                        @ ../Middlewares/CMSIS/DSP/Src/DistanceFunctions/arm_boolean_distance_template.h:496:29
	and	r1, r0, #1
	.loc	4 496 16                        @ ../Middlewares/CMSIS/DSP/Src/DistanceFunctions/arm_boolean_distance_template.h:496:16
	ldr	r0, [sp, #36]
	add	r0, r1
	str	r0, [sp, #36]
	.loc	4 498 17 is_stmt 1              @ ../Middlewares/CMSIS/DSP/Src/DistanceFunctions/arm_boolean_distance_template.h:498:17
	ldr	r0, [sp, #16]
	adds	r0, #1
	str	r0, [sp, #16]
.Ltmp11:
	.loc	4 480 8                         @ ../Middlewares/CMSIS/DSP/Src/DistanceFunctions/arm_boolean_distance_template.h:480:8
	b	.LBB1_3
.LBB1_9:                                @   in Loop: Header=BB1_1 Depth=1
	.loc	4 501 22                        @ ../Middlewares/CMSIS/DSP/Src/DistanceFunctions/arm_boolean_distance_template.h:501:22
	ldr	r0, [sp, #48]
	subs	r0, #32
	str	r0, [sp, #48]
.Ltmp12:
	.loc	4 475 5                         @ ../Middlewares/CMSIS/DSP/Src/DistanceFunctions/arm_boolean_distance_template.h:475:5
	b	.LBB1_1
.LBB1_10:
	.loc	4 504 12                        @ ../Middlewares/CMSIS/DSP/Src/DistanceFunctions/arm_boolean_distance_template.h:504:12
	ldr	r0, [sp, #56]
	adds	r1, r0, #4
	str	r1, [sp, #56]
	.loc	4 504 9 is_stmt 0               @ ../Middlewares/CMSIS/DSP/Src/DistanceFunctions/arm_boolean_distance_template.h:504:9
	ldr	r0, [r0]
	.loc	4 504 7                         @ ../Middlewares/CMSIS/DSP/Src/DistanceFunctions/arm_boolean_distance_template.h:504:7
	str	r0, [sp, #32]
	.loc	4 505 12 is_stmt 1              @ ../Middlewares/CMSIS/DSP/Src/DistanceFunctions/arm_boolean_distance_template.h:505:12
	ldr	r0, [sp, #52]
	adds	r1, r0, #4
	str	r1, [sp, #52]
	.loc	4 505 9 is_stmt 0               @ ../Middlewares/CMSIS/DSP/Src/DistanceFunctions/arm_boolean_distance_template.h:505:9
	ldr	r0, [r0]
	.loc	4 505 7                         @ ../Middlewares/CMSIS/DSP/Src/DistanceFunctions/arm_boolean_distance_template.h:505:7
	str	r0, [sp, #28]
	.loc	4 507 9 is_stmt 1               @ ../Middlewares/CMSIS/DSP/Src/DistanceFunctions/arm_boolean_distance_template.h:507:9
	ldr	r0, [sp, #32]
	.loc	4 507 20 is_stmt 0              @ ../Middlewares/CMSIS/DSP/Src/DistanceFunctions/arm_boolean_distance_template.h:507:20
	ldr	r1, [sp, #48]
	.loc	4 507 18                        @ ../Middlewares/CMSIS/DSP/Src/DistanceFunctions/arm_boolean_distance_template.h:507:18
	rsb.w	r1, r1, #32
	.loc	4 507 11                        @ ../Middlewares/CMSIS/DSP/Src/DistanceFunctions/arm_boolean_distance_template.h:507:11
	lsrs	r0, r1
	.loc	4 507 7                         @ ../Middlewares/CMSIS/DSP/Src/DistanceFunctions/arm_boolean_distance_template.h:507:7
	str	r0, [sp, #32]
	.loc	4 508 9 is_stmt 1               @ ../Middlewares/CMSIS/DSP/Src/DistanceFunctions/arm_boolean_distance_template.h:508:9
	ldr	r0, [sp, #28]
	.loc	4 508 20 is_stmt 0              @ ../Middlewares/CMSIS/DSP/Src/DistanceFunctions/arm_boolean_distance_template.h:508:20
	ldr	r1, [sp, #48]
	.loc	4 508 18                        @ ../Middlewares/CMSIS/DSP/Src/DistanceFunctions/arm_boolean_distance_template.h:508:18
	rsb.w	r1, r1, #32
	.loc	4 508 11                        @ ../Middlewares/CMSIS/DSP/Src/DistanceFunctions/arm_boolean_distance_template.h:508:11
	lsrs	r0, r1
	.loc	4 508 7                         @ ../Middlewares/CMSIS/DSP/Src/DistanceFunctions/arm_boolean_distance_template.h:508:7
	str	r0, [sp, #28]
	.loc	4 510 5 is_stmt 1               @ ../Middlewares/CMSIS/DSP/Src/DistanceFunctions/arm_boolean_distance_template.h:510:5
	b	.LBB1_11
.LBB1_11:                               @ =>This Inner Loop Header: Depth=1
	.loc	4 510 11 is_stmt 0              @ ../Middlewares/CMSIS/DSP/Src/DistanceFunctions/arm_boolean_distance_template.h:510:11
	ldr	r0, [sp, #48]
	.loc	4 510 5                         @ ../Middlewares/CMSIS/DSP/Src/DistanceFunctions/arm_boolean_distance_template.h:510:5
	cbz	r0, .LBB1_17
	b	.LBB1_12
.LBB1_12:                               @   in Loop: Header=BB1_11 Depth=1
.Ltmp13:
	.loc	4 512 16 is_stmt 1              @ ../Middlewares/CMSIS/DSP/Src/DistanceFunctions/arm_boolean_distance_template.h:512:16
	ldr	r0, [sp, #32]
	.loc	4 512 18 is_stmt 0              @ ../Middlewares/CMSIS/DSP/Src/DistanceFunctions/arm_boolean_distance_template.h:512:18
	and	r0, r0, #1
	.loc	4 512 14                        @ ../Middlewares/CMSIS/DSP/Src/DistanceFunctions/arm_boolean_distance_template.h:512:14
	str	r0, [sp, #24]
	.loc	4 513 16 is_stmt 1              @ ../Middlewares/CMSIS/DSP/Src/DistanceFunctions/arm_boolean_distance_template.h:513:16
	ldr	r0, [sp, #28]
	.loc	4 513 18 is_stmt 0              @ ../Middlewares/CMSIS/DSP/Src/DistanceFunctions/arm_boolean_distance_template.h:513:18
	and	r0, r0, #1
	.loc	4 513 14                        @ ../Middlewares/CMSIS/DSP/Src/DistanceFunctions/arm_boolean_distance_template.h:513:14
	str	r0, [sp, #20]
	.loc	4 514 15 is_stmt 1              @ ../Middlewares/CMSIS/DSP/Src/DistanceFunctions/arm_boolean_distance_template.h:514:15
	ldr	r0, [sp, #32]
	.loc	4 514 17 is_stmt 0              @ ../Middlewares/CMSIS/DSP/Src/DistanceFunctions/arm_boolean_distance_template.h:514:17
	lsrs	r0, r0, #1
	.loc	4 514 13                        @ ../Middlewares/CMSIS/DSP/Src/DistanceFunctions/arm_boolean_distance_template.h:514:13
	str	r0, [sp, #32]
	.loc	4 515 15 is_stmt 1              @ ../Middlewares/CMSIS/DSP/Src/DistanceFunctions/arm_boolean_distance_template.h:515:15
	ldr	r0, [sp, #28]
	.loc	4 515 17 is_stmt 0              @ ../Middlewares/CMSIS/DSP/Src/DistanceFunctions/arm_boolean_distance_template.h:515:17
	lsrs	r0, r0, #1
	.loc	4 515 13                        @ ../Middlewares/CMSIS/DSP/Src/DistanceFunctions/arm_boolean_distance_template.h:515:13
	str	r0, [sp, #28]
	.loc	4 524 20 is_stmt 1              @ ../Middlewares/CMSIS/DSP/Src/DistanceFunctions/arm_boolean_distance_template.h:524:20
	ldr	r1, [sp, #24]
	movs	r0, #0
	.loc	4 524 23 is_stmt 0              @ ../Middlewares/CMSIS/DSP/Src/DistanceFunctions/arm_boolean_distance_template.h:524:23
	str	r0, [sp, #4]                    @ 4-byte Spill
	cbz	r1, .LBB1_14
	b	.LBB1_13
.LBB1_13:                               @   in Loop: Header=BB1_11 Depth=1
	.loc	4 524 31                        @ ../Middlewares/CMSIS/DSP/Src/DistanceFunctions/arm_boolean_distance_template.h:524:31
	ldr	r0, [sp, #20]
	.loc	4 524 29                        @ ../Middlewares/CMSIS/DSP/Src/DistanceFunctions/arm_boolean_distance_template.h:524:29
	eor	r0, r0, #1
	.loc	4 524 23                        @ ../Middlewares/CMSIS/DSP/Src/DistanceFunctions/arm_boolean_distance_template.h:524:23
	cmp	r0, #0
	it	ne
	movne	r0, #1
	str	r0, [sp, #4]                    @ 4-byte Spill
	b	.LBB1_14
.LBB1_14:                               @   in Loop: Header=BB1_11 Depth=1
	.loc	4 0 0                           @ ../Middlewares/CMSIS/DSP/Src/DistanceFunctions/arm_boolean_distance_template.h:0:0
	ldr	r0, [sp, #4]                    @ 4-byte Reload
	.loc	4 524 23                        @ ../Middlewares/CMSIS/DSP/Src/DistanceFunctions/arm_boolean_distance_template.h:524:23
	and	r1, r0, #1
	.loc	4 524 16                        @ ../Middlewares/CMSIS/DSP/Src/DistanceFunctions/arm_boolean_distance_template.h:524:16
	ldr	r0, [sp, #40]
	add	r0, r1
	str	r0, [sp, #40]
	.loc	4 527 25 is_stmt 1              @ ../Middlewares/CMSIS/DSP/Src/DistanceFunctions/arm_boolean_distance_template.h:527:25
	ldr	r1, [sp, #24]
	movs	r0, #0
	.loc	4 527 29 is_stmt 0              @ ../Middlewares/CMSIS/DSP/Src/DistanceFunctions/arm_boolean_distance_template.h:527:29
	teq.w	r1, #1
	str	r0, [sp]                        @ 4-byte Spill
	beq	.LBB1_16
	b	.LBB1_15
.LBB1_15:                               @   in Loop: Header=BB1_11 Depth=1
	.loc	4 527 32                        @ ../Middlewares/CMSIS/DSP/Src/DistanceFunctions/arm_boolean_distance_template.h:527:32
	ldr	r0, [sp, #20]
	.loc	4 527 29                        @ ../Middlewares/CMSIS/DSP/Src/DistanceFunctions/arm_boolean_distance_template.h:527:29
	cmp	r0, #0
	it	ne
	movne	r0, #1
	str	r0, [sp]                        @ 4-byte Spill
	b	.LBB1_16
.LBB1_16:                               @   in Loop: Header=BB1_11 Depth=1
	.loc	4 0 0                           @ ../Middlewares/CMSIS/DSP/Src/DistanceFunctions/arm_boolean_distance_template.h:0:0
	ldr	r0, [sp]                        @ 4-byte Reload
	.loc	4 527 29                        @ ../Middlewares/CMSIS/DSP/Src/DistanceFunctions/arm_boolean_distance_template.h:527:29
	and	r1, r0, #1
	.loc	4 527 16                        @ ../Middlewares/CMSIS/DSP/Src/DistanceFunctions/arm_boolean_distance_template.h:527:16
	ldr	r0, [sp, #36]
	add	r0, r1
	str	r0, [sp, #36]
	.loc	4 529 25 is_stmt 1              @ ../Middlewares/CMSIS/DSP/Src/DistanceFunctions/arm_boolean_distance_template.h:529:25
	ldr	r0, [sp, #48]
	subs	r0, #1
	str	r0, [sp, #48]
.Ltmp14:
	.loc	4 510 5                         @ ../Middlewares/CMSIS/DSP/Src/DistanceFunctions/arm_boolean_distance_template.h:510:5
	b	.LBB1_11
.LBB1_17:
	.loc	4 539 12                        @ ../Middlewares/CMSIS/DSP/Src/DistanceFunctions/arm_boolean_distance_template.h:539:12
	ldr	r0, [sp, #40]
	.loc	4 539 6 is_stmt 0               @ ../Middlewares/CMSIS/DSP/Src/DistanceFunctions/arm_boolean_distance_template.h:539:6
	ldr	r1, [sp, #44]
	.loc	4 539 10                        @ ../Middlewares/CMSIS/DSP/Src/DistanceFunctions/arm_boolean_distance_template.h:539:10
	str	r0, [r1]
	.loc	4 542 12 is_stmt 1              @ ../Middlewares/CMSIS/DSP/Src/DistanceFunctions/arm_boolean_distance_template.h:542:12
	ldr	r0, [sp, #36]
	.loc	4 542 6 is_stmt 0               @ ../Middlewares/CMSIS/DSP/Src/DistanceFunctions/arm_boolean_distance_template.h:542:6
	ldr	r1, [sp, #60]
	.loc	4 542 10                        @ ../Middlewares/CMSIS/DSP/Src/DistanceFunctions/arm_boolean_distance_template.h:542:10
	str	r0, [r1]
	.loc	4 544 1 is_stmt 1               @ ../Middlewares/CMSIS/DSP/Src/DistanceFunctions/arm_boolean_distance_template.h:544:1
	add	sp, #60
	bx	lr
.Ltmp15:
.Lfunc_end1:
	.size	arm_boolean_distance_TF_FT, .Lfunc_end1-arm_boolean_distance_TF_FT
	.cfi_endproc
	.cantunwind
	.fnend
                                        @ -- End function
	.section	.text.arm_boolean_distance_TT_FF_TF_FT,"ax",%progbits
	.hidden	arm_boolean_distance_TT_FF_TF_FT @ -- Begin function arm_boolean_distance_TT_FF_TF_FT
	.globl	arm_boolean_distance_TT_FF_TF_FT
	.p2align	2
	.type	arm_boolean_distance_TT_FF_TF_FT,%function
	.code	16                              @ @arm_boolean_distance_TT_FF_TF_FT
	.thumb_func
arm_boolean_distance_TT_FF_TF_FT:
.Lfunc_begin2:
	.loc	4 458 0                         @ ../Middlewares/CMSIS/DSP/Src/DistanceFunctions/arm_boolean_distance_template.h:458:0
	.fnstart
	.cfi_startproc
@ %bb.0:
	.pad	#84
	sub	sp, #84
	.cfi_def_cfa_offset 84
	ldr.w	r12, [sp, #92]
	ldr.w	r12, [sp, #88]
	ldr.w	r12, [sp, #84]
	str	r0, [sp, #80]
	str	r1, [sp, #76]
	str	r2, [sp, #72]
	str	r3, [sp, #68]
	movs	r0, #0
.Ltmp16:
	.loc	4 461 14 prologue_end           @ ../Middlewares/CMSIS/DSP/Src/DistanceFunctions/arm_boolean_distance_template.h:461:14
	str	r0, [sp, #64]
	.loc	4 464 14                        @ ../Middlewares/CMSIS/DSP/Src/DistanceFunctions/arm_boolean_distance_template.h:464:14
	str	r0, [sp, #60]
	.loc	4 467 14                        @ ../Middlewares/CMSIS/DSP/Src/DistanceFunctions/arm_boolean_distance_template.h:467:14
	str	r0, [sp, #56]
	.loc	4 470 14                        @ ../Middlewares/CMSIS/DSP/Src/DistanceFunctions/arm_boolean_distance_template.h:470:14
	str	r0, [sp, #52]
	.loc	4 475 5                         @ ../Middlewares/CMSIS/DSP/Src/DistanceFunctions/arm_boolean_distance_template.h:475:5
	b	.LBB2_1
.LBB2_1:                                @ =>This Loop Header: Depth=1
                                        @     Child Loop BB2_3 Depth 2
	.loc	4 475 11 is_stmt 0              @ ../Middlewares/CMSIS/DSP/Src/DistanceFunctions/arm_boolean_distance_template.h:475:11
	ldr	r0, [sp, #72]
	.loc	4 475 5                         @ ../Middlewares/CMSIS/DSP/Src/DistanceFunctions/arm_boolean_distance_template.h:475:5
	cmp	r0, #32
	blo	.LBB2_14
	b	.LBB2_2
.LBB2_2:                                @   in Loop: Header=BB2_1 Depth=1
.Ltmp17:
	.loc	4 477 15 is_stmt 1              @ ../Middlewares/CMSIS/DSP/Src/DistanceFunctions/arm_boolean_distance_template.h:477:15
	ldr	r0, [sp, #80]
	adds	r1, r0, #4
	str	r1, [sp, #80]
	.loc	4 477 12 is_stmt 0              @ ../Middlewares/CMSIS/DSP/Src/DistanceFunctions/arm_boolean_distance_template.h:477:12
	ldr	r0, [r0]
	.loc	4 477 10                        @ ../Middlewares/CMSIS/DSP/Src/DistanceFunctions/arm_boolean_distance_template.h:477:10
	str	r0, [sp, #48]
	.loc	4 478 15 is_stmt 1              @ ../Middlewares/CMSIS/DSP/Src/DistanceFunctions/arm_boolean_distance_template.h:478:15
	ldr	r0, [sp, #76]
	adds	r1, r0, #4
	str	r1, [sp, #76]
	.loc	4 478 12 is_stmt 0              @ ../Middlewares/CMSIS/DSP/Src/DistanceFunctions/arm_boolean_distance_template.h:478:12
	ldr	r0, [r0]
	.loc	4 478 10                        @ ../Middlewares/CMSIS/DSP/Src/DistanceFunctions/arm_boolean_distance_template.h:478:10
	str	r0, [sp, #44]
	movs	r0, #0
	.loc	4 479 14 is_stmt 1              @ ../Middlewares/CMSIS/DSP/Src/DistanceFunctions/arm_boolean_distance_template.h:479:14
	str	r0, [sp, #32]
	.loc	4 480 8                         @ ../Middlewares/CMSIS/DSP/Src/DistanceFunctions/arm_boolean_distance_template.h:480:8
	b	.LBB2_3
.LBB2_3:                                @   Parent Loop BB2_1 Depth=1
                                        @ =>  This Inner Loop Header: Depth=2
	.loc	4 480 14 is_stmt 0              @ ../Middlewares/CMSIS/DSP/Src/DistanceFunctions/arm_boolean_distance_template.h:480:14
	ldr	r0, [sp, #32]
	.loc	4 480 8                         @ ../Middlewares/CMSIS/DSP/Src/DistanceFunctions/arm_boolean_distance_template.h:480:8
	cmp	r0, #31
	bgt	.LBB2_13
	b	.LBB2_4
.LBB2_4:                                @   in Loop: Header=BB2_3 Depth=2
.Ltmp18:
	.loc	4 482 16 is_stmt 1              @ ../Middlewares/CMSIS/DSP/Src/DistanceFunctions/arm_boolean_distance_template.h:482:16
	ldr	r0, [sp, #48]
	.loc	4 482 18 is_stmt 0              @ ../Middlewares/CMSIS/DSP/Src/DistanceFunctions/arm_boolean_distance_template.h:482:18
	and	r0, r0, #1
	.loc	4 482 14                        @ ../Middlewares/CMSIS/DSP/Src/DistanceFunctions/arm_boolean_distance_template.h:482:14
	str	r0, [sp, #40]
	.loc	4 483 16 is_stmt 1              @ ../Middlewares/CMSIS/DSP/Src/DistanceFunctions/arm_boolean_distance_template.h:483:16
	ldr	r0, [sp, #44]
	.loc	4 483 18 is_stmt 0              @ ../Middlewares/CMSIS/DSP/Src/DistanceFunctions/arm_boolean_distance_template.h:483:18
	and	r0, r0, #1
	.loc	4 483 14                        @ ../Middlewares/CMSIS/DSP/Src/DistanceFunctions/arm_boolean_distance_template.h:483:14
	str	r0, [sp, #36]
	.loc	4 484 15 is_stmt 1              @ ../Middlewares/CMSIS/DSP/Src/DistanceFunctions/arm_boolean_distance_template.h:484:15
	ldr	r0, [sp, #48]
	.loc	4 484 17 is_stmt 0              @ ../Middlewares/CMSIS/DSP/Src/DistanceFunctions/arm_boolean_distance_template.h:484:17
	lsrs	r0, r0, #1
	.loc	4 484 13                        @ ../Middlewares/CMSIS/DSP/Src/DistanceFunctions/arm_boolean_distance_template.h:484:13
	str	r0, [sp, #48]
	.loc	4 485 15 is_stmt 1              @ ../Middlewares/CMSIS/DSP/Src/DistanceFunctions/arm_boolean_distance_template.h:485:15
	ldr	r0, [sp, #44]
	.loc	4 485 17 is_stmt 0              @ ../Middlewares/CMSIS/DSP/Src/DistanceFunctions/arm_boolean_distance_template.h:485:17
	lsrs	r0, r0, #1
	.loc	4 485 13                        @ ../Middlewares/CMSIS/DSP/Src/DistanceFunctions/arm_boolean_distance_template.h:485:13
	str	r0, [sp, #44]
	.loc	4 487 20 is_stmt 1              @ ../Middlewares/CMSIS/DSP/Src/DistanceFunctions/arm_boolean_distance_template.h:487:20
	ldr	r1, [sp, #40]
	movs	r0, #0
	.loc	4 487 23 is_stmt 0              @ ../Middlewares/CMSIS/DSP/Src/DistanceFunctions/arm_boolean_distance_template.h:487:23
	str	r0, [sp, #28]                   @ 4-byte Spill
	cbz	r1, .LBB2_6
	b	.LBB2_5
.LBB2_5:                                @   in Loop: Header=BB2_3 Depth=2
	.loc	4 487 26                        @ ../Middlewares/CMSIS/DSP/Src/DistanceFunctions/arm_boolean_distance_template.h:487:26
	ldr	r0, [sp, #36]
	.loc	4 487 23                        @ ../Middlewares/CMSIS/DSP/Src/DistanceFunctions/arm_boolean_distance_template.h:487:23
	cmp	r0, #0
	it	ne
	movne	r0, #1
	str	r0, [sp, #28]                   @ 4-byte Spill
	b	.LBB2_6
.LBB2_6:                                @   in Loop: Header=BB2_3 Depth=2
	.loc	4 0 0                           @ ../Middlewares/CMSIS/DSP/Src/DistanceFunctions/arm_boolean_distance_template.h:0:0
	ldr	r0, [sp, #28]                   @ 4-byte Reload
	.loc	4 487 23                        @ ../Middlewares/CMSIS/DSP/Src/DistanceFunctions/arm_boolean_distance_template.h:487:23
	and	r1, r0, #1
	.loc	4 487 16                        @ ../Middlewares/CMSIS/DSP/Src/DistanceFunctions/arm_boolean_distance_template.h:487:16
	ldr	r0, [sp, #64]
	add	r0, r1
	str	r0, [sp, #64]
	.loc	4 490 25 is_stmt 1              @ ../Middlewares/CMSIS/DSP/Src/DistanceFunctions/arm_boolean_distance_template.h:490:25
	ldr	r1, [sp, #40]
	movs	r0, #0
	.loc	4 490 29 is_stmt 0              @ ../Middlewares/CMSIS/DSP/Src/DistanceFunctions/arm_boolean_distance_template.h:490:29
	teq.w	r1, #1
	str	r0, [sp, #24]                   @ 4-byte Spill
	beq	.LBB2_8
	b	.LBB2_7
.LBB2_7:                                @   in Loop: Header=BB2_3 Depth=2
	.loc	4 490 37                        @ ../Middlewares/CMSIS/DSP/Src/DistanceFunctions/arm_boolean_distance_template.h:490:37
	ldr	r0, [sp, #36]
	.loc	4 490 35                        @ ../Middlewares/CMSIS/DSP/Src/DistanceFunctions/arm_boolean_distance_template.h:490:35
	eor	r0, r0, #1
	.loc	4 490 29                        @ ../Middlewares/CMSIS/DSP/Src/DistanceFunctions/arm_boolean_distance_template.h:490:29
	cmp	r0, #0
	it	ne
	movne	r0, #1
	str	r0, [sp, #24]                   @ 4-byte Spill
	b	.LBB2_8
.LBB2_8:                                @   in Loop: Header=BB2_3 Depth=2
	.loc	4 0 0                           @ ../Middlewares/CMSIS/DSP/Src/DistanceFunctions/arm_boolean_distance_template.h:0:0
	ldr	r0, [sp, #24]                   @ 4-byte Reload
	.loc	4 490 29                        @ ../Middlewares/CMSIS/DSP/Src/DistanceFunctions/arm_boolean_distance_template.h:490:29
	and	r1, r0, #1
	.loc	4 490 16                        @ ../Middlewares/CMSIS/DSP/Src/DistanceFunctions/arm_boolean_distance_template.h:490:16
	ldr	r0, [sp, #60]
	add	r0, r1
	str	r0, [sp, #60]
	.loc	4 493 20 is_stmt 1              @ ../Middlewares/CMSIS/DSP/Src/DistanceFunctions/arm_boolean_distance_template.h:493:20
	ldr	r1, [sp, #40]
	movs	r0, #0
	.loc	4 493 23 is_stmt 0              @ ../Middlewares/CMSIS/DSP/Src/DistanceFunctions/arm_boolean_distance_template.h:493:23
	str	r0, [sp, #20]                   @ 4-byte Spill
	cbz	r1, .LBB2_10
	b	.LBB2_9
.LBB2_9:                                @   in Loop: Header=BB2_3 Depth=2
	.loc	4 493 31                        @ ../Middlewares/CMSIS/DSP/Src/DistanceFunctions/arm_boolean_distance_template.h:493:31
	ldr	r0, [sp, #36]
	.loc	4 493 29                        @ ../Middlewares/CMSIS/DSP/Src/DistanceFunctions/arm_boolean_distance_template.h:493:29
	eor	r0, r0, #1
	.loc	4 493 23                        @ ../Middlewares/CMSIS/DSP/Src/DistanceFunctions/arm_boolean_distance_template.h:493:23
	cmp	r0, #0
	it	ne
	movne	r0, #1
	str	r0, [sp, #20]                   @ 4-byte Spill
	b	.LBB2_10
.LBB2_10:                               @   in Loop: Header=BB2_3 Depth=2
	.loc	4 0 0                           @ ../Middlewares/CMSIS/DSP/Src/DistanceFunctions/arm_boolean_distance_template.h:0:0
	ldr	r0, [sp, #20]                   @ 4-byte Reload
	.loc	4 493 23                        @ ../Middlewares/CMSIS/DSP/Src/DistanceFunctions/arm_boolean_distance_template.h:493:23
	and	r1, r0, #1
	.loc	4 493 16                        @ ../Middlewares/CMSIS/DSP/Src/DistanceFunctions/arm_boolean_distance_template.h:493:16
	ldr	r0, [sp, #56]
	add	r0, r1
	str	r0, [sp, #56]
	.loc	4 496 25 is_stmt 1              @ ../Middlewares/CMSIS/DSP/Src/DistanceFunctions/arm_boolean_distance_template.h:496:25
	ldr	r1, [sp, #40]
	movs	r0, #0
	.loc	4 496 29 is_stmt 0              @ ../Middlewares/CMSIS/DSP/Src/DistanceFunctions/arm_boolean_distance_template.h:496:29
	teq.w	r1, #1
	str	r0, [sp, #16]                   @ 4-byte Spill
	beq	.LBB2_12
	b	.LBB2_11
.LBB2_11:                               @   in Loop: Header=BB2_3 Depth=2
	.loc	4 496 32                        @ ../Middlewares/CMSIS/DSP/Src/DistanceFunctions/arm_boolean_distance_template.h:496:32
	ldr	r0, [sp, #36]
	.loc	4 496 29                        @ ../Middlewares/CMSIS/DSP/Src/DistanceFunctions/arm_boolean_distance_template.h:496:29
	cmp	r0, #0
	it	ne
	movne	r0, #1
	str	r0, [sp, #16]                   @ 4-byte Spill
	b	.LBB2_12
.LBB2_12:                               @   in Loop: Header=BB2_3 Depth=2
	.loc	4 0 0                           @ ../Middlewares/CMSIS/DSP/Src/DistanceFunctions/arm_boolean_distance_template.h:0:0
	ldr	r0, [sp, #16]                   @ 4-byte Reload
	.loc	4 496 29                        @ ../Middlewares/CMSIS/DSP/Src/DistanceFunctions/arm_boolean_distance_template.h:496:29
	and	r1, r0, #1
	.loc	4 496 16                        @ ../Middlewares/CMSIS/DSP/Src/DistanceFunctions/arm_boolean_distance_template.h:496:16
	ldr	r0, [sp, #52]
	add	r0, r1
	str	r0, [sp, #52]
	.loc	4 498 17 is_stmt 1              @ ../Middlewares/CMSIS/DSP/Src/DistanceFunctions/arm_boolean_distance_template.h:498:17
	ldr	r0, [sp, #32]
	adds	r0, #1
	str	r0, [sp, #32]
.Ltmp19:
	.loc	4 480 8                         @ ../Middlewares/CMSIS/DSP/Src/DistanceFunctions/arm_boolean_distance_template.h:480:8
	b	.LBB2_3
.LBB2_13:                               @   in Loop: Header=BB2_1 Depth=1
	.loc	4 501 22                        @ ../Middlewares/CMSIS/DSP/Src/DistanceFunctions/arm_boolean_distance_template.h:501:22
	ldr	r0, [sp, #72]
	subs	r0, #32
	str	r0, [sp, #72]
.Ltmp20:
	.loc	4 475 5                         @ ../Middlewares/CMSIS/DSP/Src/DistanceFunctions/arm_boolean_distance_template.h:475:5
	b	.LBB2_1
.LBB2_14:
	.loc	4 504 12                        @ ../Middlewares/CMSIS/DSP/Src/DistanceFunctions/arm_boolean_distance_template.h:504:12
	ldr	r0, [sp, #80]
	adds	r1, r0, #4
	str	r1, [sp, #80]
	.loc	4 504 9 is_stmt 0               @ ../Middlewares/CMSIS/DSP/Src/DistanceFunctions/arm_boolean_distance_template.h:504:9
	ldr	r0, [r0]
	.loc	4 504 7                         @ ../Middlewares/CMSIS/DSP/Src/DistanceFunctions/arm_boolean_distance_template.h:504:7
	str	r0, [sp, #48]
	.loc	4 505 12 is_stmt 1              @ ../Middlewares/CMSIS/DSP/Src/DistanceFunctions/arm_boolean_distance_template.h:505:12
	ldr	r0, [sp, #76]
	adds	r1, r0, #4
	str	r1, [sp, #76]
	.loc	4 505 9 is_stmt 0               @ ../Middlewares/CMSIS/DSP/Src/DistanceFunctions/arm_boolean_distance_template.h:505:9
	ldr	r0, [r0]
	.loc	4 505 7                         @ ../Middlewares/CMSIS/DSP/Src/DistanceFunctions/arm_boolean_distance_template.h:505:7
	str	r0, [sp, #44]
	.loc	4 507 9 is_stmt 1               @ ../Middlewares/CMSIS/DSP/Src/DistanceFunctions/arm_boolean_distance_template.h:507:9
	ldr	r0, [sp, #48]
	.loc	4 507 20 is_stmt 0              @ ../Middlewares/CMSIS/DSP/Src/DistanceFunctions/arm_boolean_distance_template.h:507:20
	ldr	r1, [sp, #72]
	.loc	4 507 18                        @ ../Middlewares/CMSIS/DSP/Src/DistanceFunctions/arm_boolean_distance_template.h:507:18
	rsb.w	r1, r1, #32
	.loc	4 507 11                        @ ../Middlewares/CMSIS/DSP/Src/DistanceFunctions/arm_boolean_distance_template.h:507:11
	lsrs	r0, r1
	.loc	4 507 7                         @ ../Middlewares/CMSIS/DSP/Src/DistanceFunctions/arm_boolean_distance_template.h:507:7
	str	r0, [sp, #48]
	.loc	4 508 9 is_stmt 1               @ ../Middlewares/CMSIS/DSP/Src/DistanceFunctions/arm_boolean_distance_template.h:508:9
	ldr	r0, [sp, #44]
	.loc	4 508 20 is_stmt 0              @ ../Middlewares/CMSIS/DSP/Src/DistanceFunctions/arm_boolean_distance_template.h:508:20
	ldr	r1, [sp, #72]
	.loc	4 508 18                        @ ../Middlewares/CMSIS/DSP/Src/DistanceFunctions/arm_boolean_distance_template.h:508:18
	rsb.w	r1, r1, #32
	.loc	4 508 11                        @ ../Middlewares/CMSIS/DSP/Src/DistanceFunctions/arm_boolean_distance_template.h:508:11
	lsrs	r0, r1
	.loc	4 508 7                         @ ../Middlewares/CMSIS/DSP/Src/DistanceFunctions/arm_boolean_distance_template.h:508:7
	str	r0, [sp, #44]
	.loc	4 510 5 is_stmt 1               @ ../Middlewares/CMSIS/DSP/Src/DistanceFunctions/arm_boolean_distance_template.h:510:5
	b	.LBB2_15
.LBB2_15:                               @ =>This Inner Loop Header: Depth=1
	.loc	4 510 11 is_stmt 0              @ ../Middlewares/CMSIS/DSP/Src/DistanceFunctions/arm_boolean_distance_template.h:510:11
	ldr	r0, [sp, #72]
	.loc	4 510 5                         @ ../Middlewares/CMSIS/DSP/Src/DistanceFunctions/arm_boolean_distance_template.h:510:5
	cmp	r0, #0
	beq	.LBB2_25
	b	.LBB2_16
.LBB2_16:                               @   in Loop: Header=BB2_15 Depth=1
.Ltmp21:
	.loc	4 512 16 is_stmt 1              @ ../Middlewares/CMSIS/DSP/Src/DistanceFunctions/arm_boolean_distance_template.h:512:16
	ldr	r0, [sp, #48]
	.loc	4 512 18 is_stmt 0              @ ../Middlewares/CMSIS/DSP/Src/DistanceFunctions/arm_boolean_distance_template.h:512:18
	and	r0, r0, #1
	.loc	4 512 14                        @ ../Middlewares/CMSIS/DSP/Src/DistanceFunctions/arm_boolean_distance_template.h:512:14
	str	r0, [sp, #40]
	.loc	4 513 16 is_stmt 1              @ ../Middlewares/CMSIS/DSP/Src/DistanceFunctions/arm_boolean_distance_template.h:513:16
	ldr	r0, [sp, #44]
	.loc	4 513 18 is_stmt 0              @ ../Middlewares/CMSIS/DSP/Src/DistanceFunctions/arm_boolean_distance_template.h:513:18
	and	r0, r0, #1
	.loc	4 513 14                        @ ../Middlewares/CMSIS/DSP/Src/DistanceFunctions/arm_boolean_distance_template.h:513:14
	str	r0, [sp, #36]
	.loc	4 514 15 is_stmt 1              @ ../Middlewares/CMSIS/DSP/Src/DistanceFunctions/arm_boolean_distance_template.h:514:15
	ldr	r0, [sp, #48]
	.loc	4 514 17 is_stmt 0              @ ../Middlewares/CMSIS/DSP/Src/DistanceFunctions/arm_boolean_distance_template.h:514:17
	lsrs	r0, r0, #1
	.loc	4 514 13                        @ ../Middlewares/CMSIS/DSP/Src/DistanceFunctions/arm_boolean_distance_template.h:514:13
	str	r0, [sp, #48]
	.loc	4 515 15 is_stmt 1              @ ../Middlewares/CMSIS/DSP/Src/DistanceFunctions/arm_boolean_distance_template.h:515:15
	ldr	r0, [sp, #44]
	.loc	4 515 17 is_stmt 0              @ ../Middlewares/CMSIS/DSP/Src/DistanceFunctions/arm_boolean_distance_template.h:515:17
	lsrs	r0, r0, #1
	.loc	4 515 13                        @ ../Middlewares/CMSIS/DSP/Src/DistanceFunctions/arm_boolean_distance_template.h:515:13
	str	r0, [sp, #44]
	.loc	4 518 20 is_stmt 1              @ ../Middlewares/CMSIS/DSP/Src/DistanceFunctions/arm_boolean_distance_template.h:518:20
	ldr	r1, [sp, #40]
	movs	r0, #0
	.loc	4 518 23 is_stmt 0              @ ../Middlewares/CMSIS/DSP/Src/DistanceFunctions/arm_boolean_distance_template.h:518:23
	str	r0, [sp, #12]                   @ 4-byte Spill
	cbz	r1, .LBB2_18
	b	.LBB2_17
.LBB2_17:                               @   in Loop: Header=BB2_15 Depth=1
	.loc	4 518 26                        @ ../Middlewares/CMSIS/DSP/Src/DistanceFunctions/arm_boolean_distance_template.h:518:26
	ldr	r0, [sp, #36]
	.loc	4 518 23                        @ ../Middlewares/CMSIS/DSP/Src/DistanceFunctions/arm_boolean_distance_template.h:518:23
	cmp	r0, #0
	it	ne
	movne	r0, #1
	str	r0, [sp, #12]                   @ 4-byte Spill
	b	.LBB2_18
.LBB2_18:                               @   in Loop: Header=BB2_15 Depth=1
	.loc	4 0 0                           @ ../Middlewares/CMSIS/DSP/Src/DistanceFunctions/arm_boolean_distance_template.h:0:0
	ldr	r0, [sp, #12]                   @ 4-byte Reload
	.loc	4 518 23                        @ ../Middlewares/CMSIS/DSP/Src/DistanceFunctions/arm_boolean_distance_template.h:518:23
	and	r1, r0, #1
	.loc	4 518 16                        @ ../Middlewares/CMSIS/DSP/Src/DistanceFunctions/arm_boolean_distance_template.h:518:16
	ldr	r0, [sp, #64]
	add	r0, r1
	str	r0, [sp, #64]
	.loc	4 521 25 is_stmt 1              @ ../Middlewares/CMSIS/DSP/Src/DistanceFunctions/arm_boolean_distance_template.h:521:25
	ldr	r1, [sp, #40]
	movs	r0, #0
	.loc	4 521 29 is_stmt 0              @ ../Middlewares/CMSIS/DSP/Src/DistanceFunctions/arm_boolean_distance_template.h:521:29
	teq.w	r1, #1
	str	r0, [sp, #8]                    @ 4-byte Spill
	beq	.LBB2_20
	b	.LBB2_19
.LBB2_19:                               @   in Loop: Header=BB2_15 Depth=1
	.loc	4 521 37                        @ ../Middlewares/CMSIS/DSP/Src/DistanceFunctions/arm_boolean_distance_template.h:521:37
	ldr	r0, [sp, #36]
	.loc	4 521 35                        @ ../Middlewares/CMSIS/DSP/Src/DistanceFunctions/arm_boolean_distance_template.h:521:35
	eor	r0, r0, #1
	.loc	4 521 29                        @ ../Middlewares/CMSIS/DSP/Src/DistanceFunctions/arm_boolean_distance_template.h:521:29
	cmp	r0, #0
	it	ne
	movne	r0, #1
	str	r0, [sp, #8]                    @ 4-byte Spill
	b	.LBB2_20
.LBB2_20:                               @   in Loop: Header=BB2_15 Depth=1
	.loc	4 0 0                           @ ../Middlewares/CMSIS/DSP/Src/DistanceFunctions/arm_boolean_distance_template.h:0:0
	ldr	r0, [sp, #8]                    @ 4-byte Reload
	.loc	4 521 29                        @ ../Middlewares/CMSIS/DSP/Src/DistanceFunctions/arm_boolean_distance_template.h:521:29
	and	r1, r0, #1
	.loc	4 521 16                        @ ../Middlewares/CMSIS/DSP/Src/DistanceFunctions/arm_boolean_distance_template.h:521:16
	ldr	r0, [sp, #60]
	add	r0, r1
	str	r0, [sp, #60]
	.loc	4 524 20 is_stmt 1              @ ../Middlewares/CMSIS/DSP/Src/DistanceFunctions/arm_boolean_distance_template.h:524:20
	ldr	r1, [sp, #40]
	movs	r0, #0
	.loc	4 524 23 is_stmt 0              @ ../Middlewares/CMSIS/DSP/Src/DistanceFunctions/arm_boolean_distance_template.h:524:23
	str	r0, [sp, #4]                    @ 4-byte Spill
	cbz	r1, .LBB2_22
	b	.LBB2_21
.LBB2_21:                               @   in Loop: Header=BB2_15 Depth=1
	.loc	4 524 31                        @ ../Middlewares/CMSIS/DSP/Src/DistanceFunctions/arm_boolean_distance_template.h:524:31
	ldr	r0, [sp, #36]
	.loc	4 524 29                        @ ../Middlewares/CMSIS/DSP/Src/DistanceFunctions/arm_boolean_distance_template.h:524:29
	eor	r0, r0, #1
	.loc	4 524 23                        @ ../Middlewares/CMSIS/DSP/Src/DistanceFunctions/arm_boolean_distance_template.h:524:23
	cmp	r0, #0
	it	ne
	movne	r0, #1
	str	r0, [sp, #4]                    @ 4-byte Spill
	b	.LBB2_22
.LBB2_22:                               @   in Loop: Header=BB2_15 Depth=1
	.loc	4 0 0                           @ ../Middlewares/CMSIS/DSP/Src/DistanceFunctions/arm_boolean_distance_template.h:0:0
	ldr	r0, [sp, #4]                    @ 4-byte Reload
	.loc	4 524 23                        @ ../Middlewares/CMSIS/DSP/Src/DistanceFunctions/arm_boolean_distance_template.h:524:23
	and	r1, r0, #1
	.loc	4 524 16                        @ ../Middlewares/CMSIS/DSP/Src/DistanceFunctions/arm_boolean_distance_template.h:524:16
	ldr	r0, [sp, #56]
	add	r0, r1
	str	r0, [sp, #56]
	.loc	4 527 25 is_stmt 1              @ ../Middlewares/CMSIS/DSP/Src/DistanceFunctions/arm_boolean_distance_template.h:527:25
	ldr	r1, [sp, #40]
	movs	r0, #0
	.loc	4 527 29 is_stmt 0              @ ../Middlewares/CMSIS/DSP/Src/DistanceFunctions/arm_boolean_distance_template.h:527:29
	teq.w	r1, #1
	str	r0, [sp]                        @ 4-byte Spill
	beq	.LBB2_24
	b	.LBB2_23
.LBB2_23:                               @   in Loop: Header=BB2_15 Depth=1
	.loc	4 527 32                        @ ../Middlewares/CMSIS/DSP/Src/DistanceFunctions/arm_boolean_distance_template.h:527:32
	ldr	r0, [sp, #36]
	.loc	4 527 29                        @ ../Middlewares/CMSIS/DSP/Src/DistanceFunctions/arm_boolean_distance_template.h:527:29
	cmp	r0, #0
	it	ne
	movne	r0, #1
	str	r0, [sp]                        @ 4-byte Spill
	b	.LBB2_24
.LBB2_24:                               @   in Loop: Header=BB2_15 Depth=1
	.loc	4 0 0                           @ ../Middlewares/CMSIS/DSP/Src/DistanceFunctions/arm_boolean_distance_template.h:0:0
	ldr	r0, [sp]                        @ 4-byte Reload
	.loc	4 527 29                        @ ../Middlewares/CMSIS/DSP/Src/DistanceFunctions/arm_boolean_distance_template.h:527:29
	and	r1, r0, #1
	.loc	4 527 16                        @ ../Middlewares/CMSIS/DSP/Src/DistanceFunctions/arm_boolean_distance_template.h:527:16
	ldr	r0, [sp, #52]
	add	r0, r1
	str	r0, [sp, #52]
	.loc	4 529 25 is_stmt 1              @ ../Middlewares/CMSIS/DSP/Src/DistanceFunctions/arm_boolean_distance_template.h:529:25
	ldr	r0, [sp, #72]
	subs	r0, #1
	str	r0, [sp, #72]
.Ltmp22:
	.loc	4 510 5                         @ ../Middlewares/CMSIS/DSP/Src/DistanceFunctions/arm_boolean_distance_template.h:510:5
	b	.LBB2_15
.LBB2_25:
	.loc	4 533 12                        @ ../Middlewares/CMSIS/DSP/Src/DistanceFunctions/arm_boolean_distance_template.h:533:12
	ldr	r0, [sp, #64]
	.loc	4 533 6 is_stmt 0               @ ../Middlewares/CMSIS/DSP/Src/DistanceFunctions/arm_boolean_distance_template.h:533:6
	ldr	r1, [sp, #68]
	.loc	4 533 10                        @ ../Middlewares/CMSIS/DSP/Src/DistanceFunctions/arm_boolean_distance_template.h:533:10
	str	r0, [r1]
	.loc	4 536 12 is_stmt 1              @ ../Middlewares/CMSIS/DSP/Src/DistanceFunctions/arm_boolean_distance_template.h:536:12
	ldr	r0, [sp, #60]
	.loc	4 536 6 is_stmt 0               @ ../Middlewares/CMSIS/DSP/Src/DistanceFunctions/arm_boolean_distance_template.h:536:6
	ldr	r1, [sp, #84]
	.loc	4 536 10                        @ ../Middlewares/CMSIS/DSP/Src/DistanceFunctions/arm_boolean_distance_template.h:536:10
	str	r0, [r1]
	.loc	4 539 12 is_stmt 1              @ ../Middlewares/CMSIS/DSP/Src/DistanceFunctions/arm_boolean_distance_template.h:539:12
	ldr	r0, [sp, #56]
	.loc	4 539 6 is_stmt 0               @ ../Middlewares/CMSIS/DSP/Src/DistanceFunctions/arm_boolean_distance_template.h:539:6
	ldr	r1, [sp, #88]
	.loc	4 539 10                        @ ../Middlewares/CMSIS/DSP/Src/DistanceFunctions/arm_boolean_distance_template.h:539:10
	str	r0, [r1]
	.loc	4 542 12 is_stmt 1              @ ../Middlewares/CMSIS/DSP/Src/DistanceFunctions/arm_boolean_distance_template.h:542:12
	ldr	r0, [sp, #52]
	.loc	4 542 6 is_stmt 0               @ ../Middlewares/CMSIS/DSP/Src/DistanceFunctions/arm_boolean_distance_template.h:542:6
	ldr	r1, [sp, #92]
	.loc	4 542 10                        @ ../Middlewares/CMSIS/DSP/Src/DistanceFunctions/arm_boolean_distance_template.h:542:10
	str	r0, [r1]
	.loc	4 544 1 is_stmt 1               @ ../Middlewares/CMSIS/DSP/Src/DistanceFunctions/arm_boolean_distance_template.h:544:1
	add	sp, #84
	bx	lr
.Ltmp23:
.Lfunc_end2:
	.size	arm_boolean_distance_TT_FF_TF_FT, .Lfunc_end2-arm_boolean_distance_TT_FF_TF_FT
	.cfi_endproc
	.cantunwind
	.fnend
                                        @ -- End function
	.section	.text.arm_boolean_distance_TT,"ax",%progbits
	.hidden	arm_boolean_distance_TT         @ -- Begin function arm_boolean_distance_TT
	.globl	arm_boolean_distance_TT
	.p2align	2
	.type	arm_boolean_distance_TT,%function
	.code	16                              @ @arm_boolean_distance_TT
	.thumb_func
arm_boolean_distance_TT:
.Lfunc_begin3:
	.loc	4 458 0                         @ ../Middlewares/CMSIS/DSP/Src/DistanceFunctions/arm_boolean_distance_template.h:458:0
	.fnstart
	.cfi_startproc
@ %bb.0:
	.pad	#48
	sub	sp, #48
	.cfi_def_cfa_offset 48
	str	r0, [sp, #44]
	str	r1, [sp, #40]
	str	r2, [sp, #36]
	str	r3, [sp, #32]
	movs	r0, #0
.Ltmp24:
	.loc	4 461 14 prologue_end           @ ../Middlewares/CMSIS/DSP/Src/DistanceFunctions/arm_boolean_distance_template.h:461:14
	str	r0, [sp, #28]
	.loc	4 475 5                         @ ../Middlewares/CMSIS/DSP/Src/DistanceFunctions/arm_boolean_distance_template.h:475:5
	b	.LBB3_1
.LBB3_1:                                @ =>This Loop Header: Depth=1
                                        @     Child Loop BB3_3 Depth 2
	.loc	4 475 11 is_stmt 0              @ ../Middlewares/CMSIS/DSP/Src/DistanceFunctions/arm_boolean_distance_template.h:475:11
	ldr	r0, [sp, #36]
	.loc	4 475 5                         @ ../Middlewares/CMSIS/DSP/Src/DistanceFunctions/arm_boolean_distance_template.h:475:5
	cmp	r0, #32
	blo	.LBB3_8
	b	.LBB3_2
.LBB3_2:                                @   in Loop: Header=BB3_1 Depth=1
.Ltmp25:
	.loc	4 477 15 is_stmt 1              @ ../Middlewares/CMSIS/DSP/Src/DistanceFunctions/arm_boolean_distance_template.h:477:15
	ldr	r0, [sp, #44]
	adds	r1, r0, #4
	str	r1, [sp, #44]
	.loc	4 477 12 is_stmt 0              @ ../Middlewares/CMSIS/DSP/Src/DistanceFunctions/arm_boolean_distance_template.h:477:12
	ldr	r0, [r0]
	.loc	4 477 10                        @ ../Middlewares/CMSIS/DSP/Src/DistanceFunctions/arm_boolean_distance_template.h:477:10
	str	r0, [sp, #24]
	.loc	4 478 15 is_stmt 1              @ ../Middlewares/CMSIS/DSP/Src/DistanceFunctions/arm_boolean_distance_template.h:478:15
	ldr	r0, [sp, #40]
	adds	r1, r0, #4
	str	r1, [sp, #40]
	.loc	4 478 12 is_stmt 0              @ ../Middlewares/CMSIS/DSP/Src/DistanceFunctions/arm_boolean_distance_template.h:478:12
	ldr	r0, [r0]
	.loc	4 478 10                        @ ../Middlewares/CMSIS/DSP/Src/DistanceFunctions/arm_boolean_distance_template.h:478:10
	str	r0, [sp, #20]
	movs	r0, #0
	.loc	4 479 14 is_stmt 1              @ ../Middlewares/CMSIS/DSP/Src/DistanceFunctions/arm_boolean_distance_template.h:479:14
	str	r0, [sp, #8]
	.loc	4 480 8                         @ ../Middlewares/CMSIS/DSP/Src/DistanceFunctions/arm_boolean_distance_template.h:480:8
	b	.LBB3_3
.LBB3_3:                                @   Parent Loop BB3_1 Depth=1
                                        @ =>  This Inner Loop Header: Depth=2
	.loc	4 480 14 is_stmt 0              @ ../Middlewares/CMSIS/DSP/Src/DistanceFunctions/arm_boolean_distance_template.h:480:14
	ldr	r0, [sp, #8]
	.loc	4 480 8                         @ ../Middlewares/CMSIS/DSP/Src/DistanceFunctions/arm_boolean_distance_template.h:480:8
	cmp	r0, #31
	bgt	.LBB3_7
	b	.LBB3_4
.LBB3_4:                                @   in Loop: Header=BB3_3 Depth=2
.Ltmp26:
	.loc	4 482 16 is_stmt 1              @ ../Middlewares/CMSIS/DSP/Src/DistanceFunctions/arm_boolean_distance_template.h:482:16
	ldr	r0, [sp, #24]
	.loc	4 482 18 is_stmt 0              @ ../Middlewares/CMSIS/DSP/Src/DistanceFunctions/arm_boolean_distance_template.h:482:18
	and	r0, r0, #1
	.loc	4 482 14                        @ ../Middlewares/CMSIS/DSP/Src/DistanceFunctions/arm_boolean_distance_template.h:482:14
	str	r0, [sp, #16]
	.loc	4 483 16 is_stmt 1              @ ../Middlewares/CMSIS/DSP/Src/DistanceFunctions/arm_boolean_distance_template.h:483:16
	ldr	r0, [sp, #20]
	.loc	4 483 18 is_stmt 0              @ ../Middlewares/CMSIS/DSP/Src/DistanceFunctions/arm_boolean_distance_template.h:483:18
	and	r0, r0, #1
	.loc	4 483 14                        @ ../Middlewares/CMSIS/DSP/Src/DistanceFunctions/arm_boolean_distance_template.h:483:14
	str	r0, [sp, #12]
	.loc	4 484 15 is_stmt 1              @ ../Middlewares/CMSIS/DSP/Src/DistanceFunctions/arm_boolean_distance_template.h:484:15
	ldr	r0, [sp, #24]
	.loc	4 484 17 is_stmt 0              @ ../Middlewares/CMSIS/DSP/Src/DistanceFunctions/arm_boolean_distance_template.h:484:17
	lsrs	r0, r0, #1
	.loc	4 484 13                        @ ../Middlewares/CMSIS/DSP/Src/DistanceFunctions/arm_boolean_distance_template.h:484:13
	str	r0, [sp, #24]
	.loc	4 485 15 is_stmt 1              @ ../Middlewares/CMSIS/DSP/Src/DistanceFunctions/arm_boolean_distance_template.h:485:15
	ldr	r0, [sp, #20]
	.loc	4 485 17 is_stmt 0              @ ../Middlewares/CMSIS/DSP/Src/DistanceFunctions/arm_boolean_distance_template.h:485:17
	lsrs	r0, r0, #1
	.loc	4 485 13                        @ ../Middlewares/CMSIS/DSP/Src/DistanceFunctions/arm_boolean_distance_template.h:485:13
	str	r0, [sp, #20]
	.loc	4 487 20 is_stmt 1              @ ../Middlewares/CMSIS/DSP/Src/DistanceFunctions/arm_boolean_distance_template.h:487:20
	ldr	r1, [sp, #16]
	movs	r0, #0
	.loc	4 487 23 is_stmt 0              @ ../Middlewares/CMSIS/DSP/Src/DistanceFunctions/arm_boolean_distance_template.h:487:23
	str	r0, [sp, #4]                    @ 4-byte Spill
	cbz	r1, .LBB3_6
	b	.LBB3_5
.LBB3_5:                                @   in Loop: Header=BB3_3 Depth=2
	.loc	4 487 26                        @ ../Middlewares/CMSIS/DSP/Src/DistanceFunctions/arm_boolean_distance_template.h:487:26
	ldr	r0, [sp, #12]
	.loc	4 487 23                        @ ../Middlewares/CMSIS/DSP/Src/DistanceFunctions/arm_boolean_distance_template.h:487:23
	cmp	r0, #0
	it	ne
	movne	r0, #1
	str	r0, [sp, #4]                    @ 4-byte Spill
	b	.LBB3_6
.LBB3_6:                                @   in Loop: Header=BB3_3 Depth=2
	.loc	4 0 0                           @ ../Middlewares/CMSIS/DSP/Src/DistanceFunctions/arm_boolean_distance_template.h:0:0
	ldr	r0, [sp, #4]                    @ 4-byte Reload
	.loc	4 487 23                        @ ../Middlewares/CMSIS/DSP/Src/DistanceFunctions/arm_boolean_distance_template.h:487:23
	and	r1, r0, #1
	.loc	4 487 16                        @ ../Middlewares/CMSIS/DSP/Src/DistanceFunctions/arm_boolean_distance_template.h:487:16
	ldr	r0, [sp, #28]
	add	r0, r1
	str	r0, [sp, #28]
	.loc	4 498 17 is_stmt 1              @ ../Middlewares/CMSIS/DSP/Src/DistanceFunctions/arm_boolean_distance_template.h:498:17
	ldr	r0, [sp, #8]
	adds	r0, #1
	str	r0, [sp, #8]
.Ltmp27:
	.loc	4 480 8                         @ ../Middlewares/CMSIS/DSP/Src/DistanceFunctions/arm_boolean_distance_template.h:480:8
	b	.LBB3_3
.LBB3_7:                                @   in Loop: Header=BB3_1 Depth=1
	.loc	4 501 22                        @ ../Middlewares/CMSIS/DSP/Src/DistanceFunctions/arm_boolean_distance_template.h:501:22
	ldr	r0, [sp, #36]
	subs	r0, #32
	str	r0, [sp, #36]
.Ltmp28:
	.loc	4 475 5                         @ ../Middlewares/CMSIS/DSP/Src/DistanceFunctions/arm_boolean_distance_template.h:475:5
	b	.LBB3_1
.LBB3_8:
	.loc	4 504 12                        @ ../Middlewares/CMSIS/DSP/Src/DistanceFunctions/arm_boolean_distance_template.h:504:12
	ldr	r0, [sp, #44]
	adds	r1, r0, #4
	str	r1, [sp, #44]
	.loc	4 504 9 is_stmt 0               @ ../Middlewares/CMSIS/DSP/Src/DistanceFunctions/arm_boolean_distance_template.h:504:9
	ldr	r0, [r0]
	.loc	4 504 7                         @ ../Middlewares/CMSIS/DSP/Src/DistanceFunctions/arm_boolean_distance_template.h:504:7
	str	r0, [sp, #24]
	.loc	4 505 12 is_stmt 1              @ ../Middlewares/CMSIS/DSP/Src/DistanceFunctions/arm_boolean_distance_template.h:505:12
	ldr	r0, [sp, #40]
	adds	r1, r0, #4
	str	r1, [sp, #40]
	.loc	4 505 9 is_stmt 0               @ ../Middlewares/CMSIS/DSP/Src/DistanceFunctions/arm_boolean_distance_template.h:505:9
	ldr	r0, [r0]
	.loc	4 505 7                         @ ../Middlewares/CMSIS/DSP/Src/DistanceFunctions/arm_boolean_distance_template.h:505:7
	str	r0, [sp, #20]
	.loc	4 507 9 is_stmt 1               @ ../Middlewares/CMSIS/DSP/Src/DistanceFunctions/arm_boolean_distance_template.h:507:9
	ldr	r0, [sp, #24]
	.loc	4 507 20 is_stmt 0              @ ../Middlewares/CMSIS/DSP/Src/DistanceFunctions/arm_boolean_distance_template.h:507:20
	ldr	r1, [sp, #36]
	.loc	4 507 18                        @ ../Middlewares/CMSIS/DSP/Src/DistanceFunctions/arm_boolean_distance_template.h:507:18
	rsb.w	r1, r1, #32
	.loc	4 507 11                        @ ../Middlewares/CMSIS/DSP/Src/DistanceFunctions/arm_boolean_distance_template.h:507:11
	lsrs	r0, r1
	.loc	4 507 7                         @ ../Middlewares/CMSIS/DSP/Src/DistanceFunctions/arm_boolean_distance_template.h:507:7
	str	r0, [sp, #24]
	.loc	4 508 9 is_stmt 1               @ ../Middlewares/CMSIS/DSP/Src/DistanceFunctions/arm_boolean_distance_template.h:508:9
	ldr	r0, [sp, #20]
	.loc	4 508 20 is_stmt 0              @ ../Middlewares/CMSIS/DSP/Src/DistanceFunctions/arm_boolean_distance_template.h:508:20
	ldr	r1, [sp, #36]
	.loc	4 508 18                        @ ../Middlewares/CMSIS/DSP/Src/DistanceFunctions/arm_boolean_distance_template.h:508:18
	rsb.w	r1, r1, #32
	.loc	4 508 11                        @ ../Middlewares/CMSIS/DSP/Src/DistanceFunctions/arm_boolean_distance_template.h:508:11
	lsrs	r0, r1
	.loc	4 508 7                         @ ../Middlewares/CMSIS/DSP/Src/DistanceFunctions/arm_boolean_distance_template.h:508:7
	str	r0, [sp, #20]
	.loc	4 510 5 is_stmt 1               @ ../Middlewares/CMSIS/DSP/Src/DistanceFunctions/arm_boolean_distance_template.h:510:5
	b	.LBB3_9
.LBB3_9:                                @ =>This Inner Loop Header: Depth=1
	.loc	4 510 11 is_stmt 0              @ ../Middlewares/CMSIS/DSP/Src/DistanceFunctions/arm_boolean_distance_template.h:510:11
	ldr	r0, [sp, #36]
	.loc	4 510 5                         @ ../Middlewares/CMSIS/DSP/Src/DistanceFunctions/arm_boolean_distance_template.h:510:5
	cbz	r0, .LBB3_13
	b	.LBB3_10
.LBB3_10:                               @   in Loop: Header=BB3_9 Depth=1
.Ltmp29:
	.loc	4 512 16 is_stmt 1              @ ../Middlewares/CMSIS/DSP/Src/DistanceFunctions/arm_boolean_distance_template.h:512:16
	ldr	r0, [sp, #24]
	.loc	4 512 18 is_stmt 0              @ ../Middlewares/CMSIS/DSP/Src/DistanceFunctions/arm_boolean_distance_template.h:512:18
	and	r0, r0, #1
	.loc	4 512 14                        @ ../Middlewares/CMSIS/DSP/Src/DistanceFunctions/arm_boolean_distance_template.h:512:14
	str	r0, [sp, #16]
	.loc	4 513 16 is_stmt 1              @ ../Middlewares/CMSIS/DSP/Src/DistanceFunctions/arm_boolean_distance_template.h:513:16
	ldr	r0, [sp, #20]
	.loc	4 513 18 is_stmt 0              @ ../Middlewares/CMSIS/DSP/Src/DistanceFunctions/arm_boolean_distance_template.h:513:18
	and	r0, r0, #1
	.loc	4 513 14                        @ ../Middlewares/CMSIS/DSP/Src/DistanceFunctions/arm_boolean_distance_template.h:513:14
	str	r0, [sp, #12]
	.loc	4 514 15 is_stmt 1              @ ../Middlewares/CMSIS/DSP/Src/DistanceFunctions/arm_boolean_distance_template.h:514:15
	ldr	r0, [sp, #24]
	.loc	4 514 17 is_stmt 0              @ ../Middlewares/CMSIS/DSP/Src/DistanceFunctions/arm_boolean_distance_template.h:514:17
	lsrs	r0, r0, #1
	.loc	4 514 13                        @ ../Middlewares/CMSIS/DSP/Src/DistanceFunctions/arm_boolean_distance_template.h:514:13
	str	r0, [sp, #24]
	.loc	4 515 15 is_stmt 1              @ ../Middlewares/CMSIS/DSP/Src/DistanceFunctions/arm_boolean_distance_template.h:515:15
	ldr	r0, [sp, #20]
	.loc	4 515 17 is_stmt 0              @ ../Middlewares/CMSIS/DSP/Src/DistanceFunctions/arm_boolean_distance_template.h:515:17
	lsrs	r0, r0, #1
	.loc	4 515 13                        @ ../Middlewares/CMSIS/DSP/Src/DistanceFunctions/arm_boolean_distance_template.h:515:13
	str	r0, [sp, #20]
	.loc	4 518 20 is_stmt 1              @ ../Middlewares/CMSIS/DSP/Src/DistanceFunctions/arm_boolean_distance_template.h:518:20
	ldr	r1, [sp, #16]
	movs	r0, #0
	.loc	4 518 23 is_stmt 0              @ ../Middlewares/CMSIS/DSP/Src/DistanceFunctions/arm_boolean_distance_template.h:518:23
	str	r0, [sp]                        @ 4-byte Spill
	cbz	r1, .LBB3_12
	b	.LBB3_11
.LBB3_11:                               @   in Loop: Header=BB3_9 Depth=1
	.loc	4 518 26                        @ ../Middlewares/CMSIS/DSP/Src/DistanceFunctions/arm_boolean_distance_template.h:518:26
	ldr	r0, [sp, #12]
	.loc	4 518 23                        @ ../Middlewares/CMSIS/DSP/Src/DistanceFunctions/arm_boolean_distance_template.h:518:23
	cmp	r0, #0
	it	ne
	movne	r0, #1
	str	r0, [sp]                        @ 4-byte Spill
	b	.LBB3_12
.LBB3_12:                               @   in Loop: Header=BB3_9 Depth=1
	.loc	4 0 0                           @ ../Middlewares/CMSIS/DSP/Src/DistanceFunctions/arm_boolean_distance_template.h:0:0
	ldr	r0, [sp]                        @ 4-byte Reload
	.loc	4 518 23                        @ ../Middlewares/CMSIS/DSP/Src/DistanceFunctions/arm_boolean_distance_template.h:518:23
	and	r1, r0, #1
	.loc	4 518 16                        @ ../Middlewares/CMSIS/DSP/Src/DistanceFunctions/arm_boolean_distance_template.h:518:16
	ldr	r0, [sp, #28]
	add	r0, r1
	str	r0, [sp, #28]
	.loc	4 529 25 is_stmt 1              @ ../Middlewares/CMSIS/DSP/Src/DistanceFunctions/arm_boolean_distance_template.h:529:25
	ldr	r0, [sp, #36]
	subs	r0, #1
	str	r0, [sp, #36]
.Ltmp30:
	.loc	4 510 5                         @ ../Middlewares/CMSIS/DSP/Src/DistanceFunctions/arm_boolean_distance_template.h:510:5
	b	.LBB3_9
.LBB3_13:
	.loc	4 533 12                        @ ../Middlewares/CMSIS/DSP/Src/DistanceFunctions/arm_boolean_distance_template.h:533:12
	ldr	r0, [sp, #28]
	.loc	4 533 6 is_stmt 0               @ ../Middlewares/CMSIS/DSP/Src/DistanceFunctions/arm_boolean_distance_template.h:533:6
	ldr	r1, [sp, #32]
	.loc	4 533 10                        @ ../Middlewares/CMSIS/DSP/Src/DistanceFunctions/arm_boolean_distance_template.h:533:10
	str	r0, [r1]
	.loc	4 544 1 is_stmt 1               @ ../Middlewares/CMSIS/DSP/Src/DistanceFunctions/arm_boolean_distance_template.h:544:1
	add	sp, #48
	bx	lr
.Ltmp31:
.Lfunc_end3:
	.size	arm_boolean_distance_TT, .Lfunc_end3-arm_boolean_distance_TT
	.cfi_endproc
	.cantunwind
	.fnend
                                        @ -- End function
	.section	.text.arm_braycurtis_distance_f32,"ax",%progbits
	.hidden	arm_braycurtis_distance_f32     @ -- Begin function arm_braycurtis_distance_f32
	.globl	arm_braycurtis_distance_f32
	.p2align	2
	.type	arm_braycurtis_distance_f32,%function
	.code	16                              @ @arm_braycurtis_distance_f32
	.thumb_func
arm_braycurtis_distance_f32:
.Lfunc_begin4:
	.file	5 "D:\\horizon\\Horizon_Infantry (2)\\MDK-ARM" "../Middlewares/CMSIS/DSP/Src/DistanceFunctions/arm_braycurtis_distance_f32.c"
	.loc	5 161 0                         @ ../Middlewares/CMSIS/DSP/Src/DistanceFunctions/arm_braycurtis_distance_f32.c:161:0
	.fnstart
	.cfi_startproc
@ %bb.0:
	.pad	#28
	sub	sp, #28
	.cfi_def_cfa_offset 28
	str	r0, [sp, #24]
	str	r1, [sp, #20]
	str	r2, [sp, #16]
	movs	r0, #0
.Ltmp32:
	.loc	5 162 14 prologue_end           @ ../Middlewares/CMSIS/DSP/Src/DistanceFunctions/arm_braycurtis_distance_f32.c:162:14
	str	r0, [sp, #12]
	.loc	5 162 30 is_stmt 0              @ ../Middlewares/CMSIS/DSP/Src/DistanceFunctions/arm_braycurtis_distance_f32.c:162:30
	str	r0, [sp, #8]
	.loc	5 164 4 is_stmt 1               @ ../Middlewares/CMSIS/DSP/Src/DistanceFunctions/arm_braycurtis_distance_f32.c:164:4
	b	.LBB4_1
.LBB4_1:                                @ =>This Inner Loop Header: Depth=1
	.loc	5 164 10 is_stmt 0              @ ../Middlewares/CMSIS/DSP/Src/DistanceFunctions/arm_braycurtis_distance_f32.c:164:10
	ldr	r0, [sp, #16]
	.loc	5 164 4                         @ ../Middlewares/CMSIS/DSP/Src/DistanceFunctions/arm_braycurtis_distance_f32.c:164:4
	cbz	r0, .LBB4_3
	b	.LBB4_2
.LBB4_2:                                @   in Loop: Header=BB4_1 Depth=1
.Ltmp33:
	.loc	5 166 17 is_stmt 1              @ ../Middlewares/CMSIS/DSP/Src/DistanceFunctions/arm_braycurtis_distance_f32.c:166:17
	ldr	r0, [sp, #24]
	adds	r1, r0, #4
	str	r1, [sp, #24]
	.loc	5 166 14 is_stmt 0              @ ../Middlewares/CMSIS/DSP/Src/DistanceFunctions/arm_braycurtis_distance_f32.c:166:14
	ldr	r0, [r0]
	.loc	5 166 12                        @ ../Middlewares/CMSIS/DSP/Src/DistanceFunctions/arm_braycurtis_distance_f32.c:166:12
	str	r0, [sp, #4]
	.loc	5 167 17 is_stmt 1              @ ../Middlewares/CMSIS/DSP/Src/DistanceFunctions/arm_braycurtis_distance_f32.c:167:17
	ldr	r0, [sp, #20]
	adds	r1, r0, #4
	str	r1, [sp, #20]
	.loc	5 167 14 is_stmt 0              @ ../Middlewares/CMSIS/DSP/Src/DistanceFunctions/arm_braycurtis_distance_f32.c:167:14
	ldr	r0, [r0]
	.loc	5 167 12                        @ ../Middlewares/CMSIS/DSP/Src/DistanceFunctions/arm_braycurtis_distance_f32.c:167:12
	str	r0, [sp]
	.loc	5 168 26 is_stmt 1              @ ../Middlewares/CMSIS/DSP/Src/DistanceFunctions/arm_braycurtis_distance_f32.c:168:26
	vldr	s0, [sp, #4]
	.loc	5 168 33 is_stmt 0              @ ../Middlewares/CMSIS/DSP/Src/DistanceFunctions/arm_braycurtis_distance_f32.c:168:33
	vldr	s2, [sp]
	.loc	5 168 31                        @ ../Middlewares/CMSIS/DSP/Src/DistanceFunctions/arm_braycurtis_distance_f32.c:168:31
	vsub.f32	s0, s0, s2
	.loc	5 168 20                        @ ../Middlewares/CMSIS/DSP/Src/DistanceFunctions/arm_braycurtis_distance_f32.c:168:20
	vabs.f32	s2, s0
	.loc	5 168 17                        @ ../Middlewares/CMSIS/DSP/Src/DistanceFunctions/arm_braycurtis_distance_f32.c:168:17
	vldr	s0, [sp, #12]
	vadd.f32	s0, s0, s2
	vstr	s0, [sp, #12]
	.loc	5 169 25 is_stmt 1              @ ../Middlewares/CMSIS/DSP/Src/DistanceFunctions/arm_braycurtis_distance_f32.c:169:25
	vldr	s0, [sp, #4]
	.loc	5 169 32 is_stmt 0              @ ../Middlewares/CMSIS/DSP/Src/DistanceFunctions/arm_braycurtis_distance_f32.c:169:32
	vldr	s2, [sp]
	.loc	5 169 30                        @ ../Middlewares/CMSIS/DSP/Src/DistanceFunctions/arm_braycurtis_distance_f32.c:169:30
	vadd.f32	s0, s0, s2
	.loc	5 169 19                        @ ../Middlewares/CMSIS/DSP/Src/DistanceFunctions/arm_braycurtis_distance_f32.c:169:19
	vabs.f32	s2, s0
	.loc	5 169 16                        @ ../Middlewares/CMSIS/DSP/Src/DistanceFunctions/arm_braycurtis_distance_f32.c:169:16
	vldr	s0, [sp, #8]
	vadd.f32	s0, s0, s2
	vstr	s0, [sp, #8]
	.loc	5 170 17 is_stmt 1              @ ../Middlewares/CMSIS/DSP/Src/DistanceFunctions/arm_braycurtis_distance_f32.c:170:17
	ldr	r0, [sp, #16]
	subs	r0, #1
	str	r0, [sp, #16]
.Ltmp34:
	.loc	5 164 4                         @ ../Middlewares/CMSIS/DSP/Src/DistanceFunctions/arm_braycurtis_distance_f32.c:164:4
	b	.LBB4_1
.LBB4_3:
	.loc	5 178 11                        @ ../Middlewares/CMSIS/DSP/Src/DistanceFunctions/arm_braycurtis_distance_f32.c:178:11
	vldr	s0, [sp, #12]
	.loc	5 178 23 is_stmt 0              @ ../Middlewares/CMSIS/DSP/Src/DistanceFunctions/arm_braycurtis_distance_f32.c:178:23
	vldr	s2, [sp, #8]
	.loc	5 178 21                        @ ../Middlewares/CMSIS/DSP/Src/DistanceFunctions/arm_braycurtis_distance_f32.c:178:21
	vdiv.f32	s0, s0, s2
	.loc	5 178 4                         @ ../Middlewares/CMSIS/DSP/Src/DistanceFunctions/arm_braycurtis_distance_f32.c:178:4
	add	sp, #28
	bx	lr
.Ltmp35:
.Lfunc_end4:
	.size	arm_braycurtis_distance_f32, .Lfunc_end4-arm_braycurtis_distance_f32
	.cfi_endproc
	.cantunwind
	.fnend
                                        @ -- End function
	.section	.text.arm_canberra_distance_f32,"ax",%progbits
	.hidden	arm_canberra_distance_f32       @ -- Begin function arm_canberra_distance_f32
	.globl	arm_canberra_distance_f32
	.p2align	2
	.type	arm_canberra_distance_f32,%function
	.code	16                              @ @arm_canberra_distance_f32
	.thumb_func
arm_canberra_distance_f32:
.Lfunc_begin5:
	.file	6 "D:\\horizon\\Horizon_Infantry (2)\\MDK-ARM" "../Middlewares/CMSIS/DSP/Src/DistanceFunctions/arm_canberra_distance_f32.c"
	.loc	6 198 0 is_stmt 1               @ ../Middlewares/CMSIS/DSP/Src/DistanceFunctions/arm_canberra_distance_f32.c:198:0
	.fnstart
	.cfi_startproc
@ %bb.0:
	.pad	#32
	sub	sp, #32
	.cfi_def_cfa_offset 32
	str	r0, [sp, #28]
	str	r1, [sp, #24]
	str	r2, [sp, #20]
	movs	r0, #0
.Ltmp36:
	.loc	6 199 14 prologue_end           @ ../Middlewares/CMSIS/DSP/Src/DistanceFunctions/arm_canberra_distance_f32.c:199:14
	str	r0, [sp, #16]
	.loc	6 201 4                         @ ../Middlewares/CMSIS/DSP/Src/DistanceFunctions/arm_canberra_distance_f32.c:201:4
	b	.LBB5_1
.LBB5_1:                                @ =>This Inner Loop Header: Depth=1
	.loc	6 201 10 is_stmt 0              @ ../Middlewares/CMSIS/DSP/Src/DistanceFunctions/arm_canberra_distance_f32.c:201:10
	ldr	r0, [sp, #20]
	.loc	6 201 4                         @ ../Middlewares/CMSIS/DSP/Src/DistanceFunctions/arm_canberra_distance_f32.c:201:4
	cmp	r0, #0
	beq	.LBB5_6
	b	.LBB5_2
.LBB5_2:                                @   in Loop: Header=BB5_1 Depth=1
.Ltmp37:
	.loc	6 203 17 is_stmt 1              @ ../Middlewares/CMSIS/DSP/Src/DistanceFunctions/arm_canberra_distance_f32.c:203:17
	ldr	r0, [sp, #28]
	adds	r1, r0, #4
	str	r1, [sp, #28]
	.loc	6 203 14 is_stmt 0              @ ../Middlewares/CMSIS/DSP/Src/DistanceFunctions/arm_canberra_distance_f32.c:203:14
	ldr	r0, [r0]
	.loc	6 203 12                        @ ../Middlewares/CMSIS/DSP/Src/DistanceFunctions/arm_canberra_distance_f32.c:203:12
	str	r0, [sp, #12]
	.loc	6 204 17 is_stmt 1              @ ../Middlewares/CMSIS/DSP/Src/DistanceFunctions/arm_canberra_distance_f32.c:204:17
	ldr	r0, [sp, #24]
	adds	r1, r0, #4
	str	r1, [sp, #24]
	.loc	6 204 14 is_stmt 0              @ ../Middlewares/CMSIS/DSP/Src/DistanceFunctions/arm_canberra_distance_f32.c:204:14
	ldr	r0, [r0]
	.loc	6 204 12                        @ ../Middlewares/CMSIS/DSP/Src/DistanceFunctions/arm_canberra_distance_f32.c:204:12
	str	r0, [sp, #8]
	.loc	6 206 20 is_stmt 1              @ ../Middlewares/CMSIS/DSP/Src/DistanceFunctions/arm_canberra_distance_f32.c:206:20
	vldr	s0, [sp, #12]
	.loc	6 206 27 is_stmt 0              @ ../Middlewares/CMSIS/DSP/Src/DistanceFunctions/arm_canberra_distance_f32.c:206:27
	vldr	s2, [sp, #8]
	.loc	6 206 25                        @ ../Middlewares/CMSIS/DSP/Src/DistanceFunctions/arm_canberra_distance_f32.c:206:25
	vsub.f32	s0, s0, s2
	.loc	6 206 14                        @ ../Middlewares/CMSIS/DSP/Src/DistanceFunctions/arm_canberra_distance_f32.c:206:14
	vabs.f32	s0, s0
	.loc	6 206 12                        @ ../Middlewares/CMSIS/DSP/Src/DistanceFunctions/arm_canberra_distance_f32.c:206:12
	vstr	s0, [sp, #4]
	.loc	6 207 19 is_stmt 1              @ ../Middlewares/CMSIS/DSP/Src/DistanceFunctions/arm_canberra_distance_f32.c:207:19
	vldr	s0, [sp, #12]
	.loc	6 207 13 is_stmt 0              @ ../Middlewares/CMSIS/DSP/Src/DistanceFunctions/arm_canberra_distance_f32.c:207:13
	vabs.f32	s0, s0
	.loc	6 207 33                        @ ../Middlewares/CMSIS/DSP/Src/DistanceFunctions/arm_canberra_distance_f32.c:207:33
	vldr	s2, [sp, #8]
	.loc	6 207 27                        @ ../Middlewares/CMSIS/DSP/Src/DistanceFunctions/arm_canberra_distance_f32.c:207:27
	vabs.f32	s2, s2
	.loc	6 207 25                        @ ../Middlewares/CMSIS/DSP/Src/DistanceFunctions/arm_canberra_distance_f32.c:207:25
	vadd.f32	s0, s0, s2
	.loc	6 207 11                        @ ../Middlewares/CMSIS/DSP/Src/DistanceFunctions/arm_canberra_distance_f32.c:207:11
	vstr	s0, [sp]
.Ltmp38:
	.loc	6 208 12 is_stmt 1              @ ../Middlewares/CMSIS/DSP/Src/DistanceFunctions/arm_canberra_distance_f32.c:208:12
	vldr	s0, [sp, #12]
	.loc	6 208 26 is_stmt 0              @ ../Middlewares/CMSIS/DSP/Src/DistanceFunctions/arm_canberra_distance_f32.c:208:26
	vcmp.f32	s0, #0
	vmrs	APSR_nzcv, fpscr
	bne	.LBB5_4
	b	.LBB5_3
.LBB5_3:                                @   in Loop: Header=BB5_1 Depth=1
	.loc	6 208 30                        @ ../Middlewares/CMSIS/DSP/Src/DistanceFunctions/arm_canberra_distance_f32.c:208:30
	vldr	s0, [sp, #8]
.Ltmp39:
	.loc	6 208 11                        @ ../Middlewares/CMSIS/DSP/Src/DistanceFunctions/arm_canberra_distance_f32.c:208:11
	vcmp.f32	s0, #0
	vmrs	APSR_nzcv, fpscr
	beq	.LBB5_5
	b	.LBB5_4
.LBB5_4:                                @   in Loop: Header=BB5_1 Depth=1
.Ltmp40:
	.loc	6 210 20 is_stmt 1              @ ../Middlewares/CMSIS/DSP/Src/DistanceFunctions/arm_canberra_distance_f32.c:210:20
	vldr	s0, [sp, #4]
	.loc	6 210 27 is_stmt 0              @ ../Middlewares/CMSIS/DSP/Src/DistanceFunctions/arm_canberra_distance_f32.c:210:27
	vldr	s2, [sp]
	.loc	6 210 25                        @ ../Middlewares/CMSIS/DSP/Src/DistanceFunctions/arm_canberra_distance_f32.c:210:25
	vdiv.f32	s2, s0, s2
	.loc	6 210 16                        @ ../Middlewares/CMSIS/DSP/Src/DistanceFunctions/arm_canberra_distance_f32.c:210:16
	vldr	s0, [sp, #16]
	vadd.f32	s0, s0, s2
	vstr	s0, [sp, #16]
	.loc	6 211 7 is_stmt 1               @ ../Middlewares/CMSIS/DSP/Src/DistanceFunctions/arm_canberra_distance_f32.c:211:7
	b	.LBB5_5
.Ltmp41:
.LBB5_5:                                @   in Loop: Header=BB5_1 Depth=1
	.loc	6 212 17                        @ ../Middlewares/CMSIS/DSP/Src/DistanceFunctions/arm_canberra_distance_f32.c:212:17
	ldr	r0, [sp, #20]
	subs	r0, #1
	str	r0, [sp, #20]
.Ltmp42:
	.loc	6 201 4                         @ ../Middlewares/CMSIS/DSP/Src/DistanceFunctions/arm_canberra_distance_f32.c:201:4
	b	.LBB5_1
.LBB5_6:
	.loc	6 214 11                        @ ../Middlewares/CMSIS/DSP/Src/DistanceFunctions/arm_canberra_distance_f32.c:214:11
	vldr	s0, [sp, #16]
	.loc	6 214 4 is_stmt 0               @ ../Middlewares/CMSIS/DSP/Src/DistanceFunctions/arm_canberra_distance_f32.c:214:4
	add	sp, #32
	bx	lr
.Ltmp43:
.Lfunc_end5:
	.size	arm_canberra_distance_f32, .Lfunc_end5-arm_canberra_distance_f32
	.cfi_endproc
	.cantunwind
	.fnend
                                        @ -- End function
	.section	.text.arm_chebyshev_distance_f32,"ax",%progbits
	.hidden	arm_chebyshev_distance_f32      @ -- Begin function arm_chebyshev_distance_f32
	.globl	arm_chebyshev_distance_f32
	.p2align	2
	.type	arm_chebyshev_distance_f32,%function
	.code	16                              @ @arm_chebyshev_distance_f32
	.thumb_func
arm_chebyshev_distance_f32:
.Lfunc_begin6:
	.file	7 "D:\\horizon\\Horizon_Infantry (2)\\MDK-ARM" "../Middlewares/CMSIS/DSP/Src/DistanceFunctions/arm_chebyshev_distance_f32.c"
	.loc	7 184 0 is_stmt 1               @ ../Middlewares/CMSIS/DSP/Src/DistanceFunctions/arm_chebyshev_distance_f32.c:184:0
	.fnstart
	.cfi_startproc
@ %bb.0:
	.pad	#28
	sub	sp, #28
	.cfi_def_cfa_offset 28
	str	r0, [sp, #24]
	str	r1, [sp, #20]
	str	r2, [sp, #16]
	movs	r0, #0
.Ltmp44:
	.loc	7 185 14 prologue_end           @ ../Middlewares/CMSIS/DSP/Src/DistanceFunctions/arm_chebyshev_distance_f32.c:185:14
	str	r0, [sp, #12]
	.loc	7 187 14                        @ ../Middlewares/CMSIS/DSP/Src/DistanceFunctions/arm_chebyshev_distance_f32.c:187:14
	ldr	r0, [sp, #24]
	adds	r1, r0, #4
	str	r1, [sp, #24]
	.loc	7 187 11 is_stmt 0              @ ../Middlewares/CMSIS/DSP/Src/DistanceFunctions/arm_chebyshev_distance_f32.c:187:11
	ldr	r0, [r0]
	.loc	7 187 9                         @ ../Middlewares/CMSIS/DSP/Src/DistanceFunctions/arm_chebyshev_distance_f32.c:187:9
	str	r0, [sp, #4]
	.loc	7 188 14 is_stmt 1              @ ../Middlewares/CMSIS/DSP/Src/DistanceFunctions/arm_chebyshev_distance_f32.c:188:14
	ldr	r0, [sp, #20]
	adds	r1, r0, #4
	str	r1, [sp, #20]
	.loc	7 188 11 is_stmt 0              @ ../Middlewares/CMSIS/DSP/Src/DistanceFunctions/arm_chebyshev_distance_f32.c:188:11
	ldr	r0, [r0]
	.loc	7 188 9                         @ ../Middlewares/CMSIS/DSP/Src/DistanceFunctions/arm_chebyshev_distance_f32.c:188:9
	str	r0, [sp]
	.loc	7 189 17 is_stmt 1              @ ../Middlewares/CMSIS/DSP/Src/DistanceFunctions/arm_chebyshev_distance_f32.c:189:17
	vldr	s0, [sp, #4]
	.loc	7 189 24 is_stmt 0              @ ../Middlewares/CMSIS/DSP/Src/DistanceFunctions/arm_chebyshev_distance_f32.c:189:24
	vldr	s2, [sp]
	.loc	7 189 22                        @ ../Middlewares/CMSIS/DSP/Src/DistanceFunctions/arm_chebyshev_distance_f32.c:189:22
	vsub.f32	s0, s0, s2
	.loc	7 189 11                        @ ../Middlewares/CMSIS/DSP/Src/DistanceFunctions/arm_chebyshev_distance_f32.c:189:11
	vabs.f32	s0, s0
	.loc	7 189 9                         @ ../Middlewares/CMSIS/DSP/Src/DistanceFunctions/arm_chebyshev_distance_f32.c:189:9
	vstr	s0, [sp, #12]
	.loc	7 190 13 is_stmt 1              @ ../Middlewares/CMSIS/DSP/Src/DistanceFunctions/arm_chebyshev_distance_f32.c:190:13
	ldr	r0, [sp, #12]
	.loc	7 190 11 is_stmt 0              @ ../Middlewares/CMSIS/DSP/Src/DistanceFunctions/arm_chebyshev_distance_f32.c:190:11
	str	r0, [sp, #8]
	.loc	7 191 13 is_stmt 1              @ ../Middlewares/CMSIS/DSP/Src/DistanceFunctions/arm_chebyshev_distance_f32.c:191:13
	ldr	r0, [sp, #16]
	subs	r0, #1
	str	r0, [sp, #16]
	.loc	7 193 4                         @ ../Middlewares/CMSIS/DSP/Src/DistanceFunctions/arm_chebyshev_distance_f32.c:193:4
	b	.LBB6_1
.LBB6_1:                                @ =>This Inner Loop Header: Depth=1
	.loc	7 193 10 is_stmt 0              @ ../Middlewares/CMSIS/DSP/Src/DistanceFunctions/arm_chebyshev_distance_f32.c:193:10
	ldr	r0, [sp, #16]
	.loc	7 193 4                         @ ../Middlewares/CMSIS/DSP/Src/DistanceFunctions/arm_chebyshev_distance_f32.c:193:4
	cbz	r0, .LBB6_5
	b	.LBB6_2
.LBB6_2:                                @   in Loop: Header=BB6_1 Depth=1
.Ltmp45:
	.loc	7 195 17 is_stmt 1              @ ../Middlewares/CMSIS/DSP/Src/DistanceFunctions/arm_chebyshev_distance_f32.c:195:17
	ldr	r0, [sp, #24]
	adds	r1, r0, #4
	str	r1, [sp, #24]
	.loc	7 195 14 is_stmt 0              @ ../Middlewares/CMSIS/DSP/Src/DistanceFunctions/arm_chebyshev_distance_f32.c:195:14
	ldr	r0, [r0]
	.loc	7 195 12                        @ ../Middlewares/CMSIS/DSP/Src/DistanceFunctions/arm_chebyshev_distance_f32.c:195:12
	str	r0, [sp, #4]
	.loc	7 196 17 is_stmt 1              @ ../Middlewares/CMSIS/DSP/Src/DistanceFunctions/arm_chebyshev_distance_f32.c:196:17
	ldr	r0, [sp, #20]
	adds	r1, r0, #4
	str	r1, [sp, #20]
	.loc	7 196 14 is_stmt 0              @ ../Middlewares/CMSIS/DSP/Src/DistanceFunctions/arm_chebyshev_distance_f32.c:196:14
	ldr	r0, [r0]
	.loc	7 196 12                        @ ../Middlewares/CMSIS/DSP/Src/DistanceFunctions/arm_chebyshev_distance_f32.c:196:12
	str	r0, [sp]
	.loc	7 197 20 is_stmt 1              @ ../Middlewares/CMSIS/DSP/Src/DistanceFunctions/arm_chebyshev_distance_f32.c:197:20
	vldr	s0, [sp, #4]
	.loc	7 197 27 is_stmt 0              @ ../Middlewares/CMSIS/DSP/Src/DistanceFunctions/arm_chebyshev_distance_f32.c:197:27
	vldr	s2, [sp]
	.loc	7 197 25                        @ ../Middlewares/CMSIS/DSP/Src/DistanceFunctions/arm_chebyshev_distance_f32.c:197:25
	vsub.f32	s0, s0, s2
	.loc	7 197 14                        @ ../Middlewares/CMSIS/DSP/Src/DistanceFunctions/arm_chebyshev_distance_f32.c:197:14
	vabs.f32	s0, s0
	.loc	7 197 12                        @ ../Middlewares/CMSIS/DSP/Src/DistanceFunctions/arm_chebyshev_distance_f32.c:197:12
	vstr	s0, [sp, #12]
.Ltmp46:
	.loc	7 198 11 is_stmt 1              @ ../Middlewares/CMSIS/DSP/Src/DistanceFunctions/arm_chebyshev_distance_f32.c:198:11
	vldr	s0, [sp, #12]
	.loc	7 198 18 is_stmt 0              @ ../Middlewares/CMSIS/DSP/Src/DistanceFunctions/arm_chebyshev_distance_f32.c:198:18
	vldr	s2, [sp, #8]
.Ltmp47:
	.loc	7 198 11                        @ ../Middlewares/CMSIS/DSP/Src/DistanceFunctions/arm_chebyshev_distance_f32.c:198:11
	vcmp.f32	s0, s2
	vmrs	APSR_nzcv, fpscr
	ble	.LBB6_4
	b	.LBB6_3
.LBB6_3:                                @   in Loop: Header=BB6_1 Depth=1
.Ltmp48:
	.loc	7 200 18 is_stmt 1              @ ../Middlewares/CMSIS/DSP/Src/DistanceFunctions/arm_chebyshev_distance_f32.c:200:18
	ldr	r0, [sp, #12]
	.loc	7 200 16 is_stmt 0              @ ../Middlewares/CMSIS/DSP/Src/DistanceFunctions/arm_chebyshev_distance_f32.c:200:16
	str	r0, [sp, #8]
	.loc	7 201 7 is_stmt 1               @ ../Middlewares/CMSIS/DSP/Src/DistanceFunctions/arm_chebyshev_distance_f32.c:201:7
	b	.LBB6_4
.Ltmp49:
.LBB6_4:                                @   in Loop: Header=BB6_1 Depth=1
	.loc	7 202 17                        @ ../Middlewares/CMSIS/DSP/Src/DistanceFunctions/arm_chebyshev_distance_f32.c:202:17
	ldr	r0, [sp, #16]
	subs	r0, #1
	str	r0, [sp, #16]
.Ltmp50:
	.loc	7 193 4                         @ ../Middlewares/CMSIS/DSP/Src/DistanceFunctions/arm_chebyshev_distance_f32.c:193:4
	b	.LBB6_1
.LBB6_5:
	.loc	7 205 11                        @ ../Middlewares/CMSIS/DSP/Src/DistanceFunctions/arm_chebyshev_distance_f32.c:205:11
	vldr	s0, [sp, #8]
	.loc	7 205 4 is_stmt 0               @ ../Middlewares/CMSIS/DSP/Src/DistanceFunctions/arm_chebyshev_distance_f32.c:205:4
	add	sp, #28
	bx	lr
.Ltmp51:
.Lfunc_end6:
	.size	arm_chebyshev_distance_f32, .Lfunc_end6-arm_chebyshev_distance_f32
	.cfi_endproc
	.cantunwind
	.fnend
                                        @ -- End function
	.section	.text.arm_chebyshev_distance_f64,"ax",%progbits
	.hidden	arm_chebyshev_distance_f64      @ -- Begin function arm_chebyshev_distance_f64
	.globl	arm_chebyshev_distance_f64
	.p2align	3
	.type	arm_chebyshev_distance_f64,%function
	.code	16                              @ @arm_chebyshev_distance_f64
	.thumb_func
arm_chebyshev_distance_f64:
.Lfunc_begin7:
	.file	8 "D:\\horizon\\Horizon_Infantry (2)\\MDK-ARM" "../Middlewares/CMSIS/DSP/Src/DistanceFunctions/arm_chebyshev_distance_f64.c"
	.loc	8 50 0 is_stmt 1                @ ../Middlewares/CMSIS/DSP/Src/DistanceFunctions/arm_chebyshev_distance_f64.c:50:0
	.fnstart
	.cfi_startproc
@ %bb.0:
	.save	{r7, lr}
	push	{r7, lr}
	.cfi_def_cfa_offset 8
	.cfi_offset lr, -4
	.cfi_offset r7, -8
	.pad	#56
	sub	sp, #56
	.cfi_def_cfa_offset 64
	str	r0, [sp, #52]
	str	r1, [sp, #48]
	str	r2, [sp, #44]
	movs	r0, #0
.Ltmp52:
	.loc	8 52 15 prologue_end            @ ../Middlewares/CMSIS/DSP/Src/DistanceFunctions/arm_chebyshev_distance_f64.c:52:15
	str	r0, [sp, #36]
	str	r0, [sp, #32]
	mvn	r0, #1048576
	.loc	8 54 12                         @ ../Middlewares/CMSIS/DSP/Src/DistanceFunctions/arm_chebyshev_distance_f64.c:54:12
	str	r0, [sp, #28]
	mov.w	r0, #-1
	str	r0, [sp, #24]
	.loc	8 78 14                         @ ../Middlewares/CMSIS/DSP/Src/DistanceFunctions/arm_chebyshev_distance_f64.c:78:14
	ldr	r0, [sp, #44]
	.loc	8 78 12 is_stmt 0               @ ../Middlewares/CMSIS/DSP/Src/DistanceFunctions/arm_chebyshev_distance_f64.c:78:12
	str	r0, [sp, #4]
	.loc	8 81 5 is_stmt 1                @ ../Middlewares/CMSIS/DSP/Src/DistanceFunctions/arm_chebyshev_distance_f64.c:81:5
	b	.LBB7_1
.LBB7_1:                                @ =>This Inner Loop Header: Depth=1
	.loc	8 81 11 is_stmt 0               @ ../Middlewares/CMSIS/DSP/Src/DistanceFunctions/arm_chebyshev_distance_f64.c:81:11
	ldr	r0, [sp, #4]
	.loc	8 81 5                          @ ../Middlewares/CMSIS/DSP/Src/DistanceFunctions/arm_chebyshev_distance_f64.c:81:5
	cbz	r0, .LBB7_5
	b	.LBB7_2
.LBB7_2:                                @   in Loop: Header=BB7_1 Depth=1
.Ltmp53:
	.loc	8 83 19 is_stmt 1               @ ../Middlewares/CMSIS/DSP/Src/DistanceFunctions/arm_chebyshev_distance_f64.c:83:19
	ldr	r0, [sp, #52]
	add.w	r1, r0, #8
	str	r1, [sp, #52]
	.loc	8 83 16 is_stmt 0               @ ../Middlewares/CMSIS/DSP/Src/DistanceFunctions/arm_chebyshev_distance_f64.c:83:16
	vldr	d0, [r0]
	.loc	8 83 14                         @ ../Middlewares/CMSIS/DSP/Src/DistanceFunctions/arm_chebyshev_distance_f64.c:83:14
	vstr	d0, [sp, #16]
	.loc	8 84 19 is_stmt 1               @ ../Middlewares/CMSIS/DSP/Src/DistanceFunctions/arm_chebyshev_distance_f64.c:84:19
	ldr	r0, [sp, #48]
	add.w	r1, r0, #8
	str	r1, [sp, #48]
	.loc	8 84 16 is_stmt 0               @ ../Middlewares/CMSIS/DSP/Src/DistanceFunctions/arm_chebyshev_distance_f64.c:84:16
	vldr	d0, [r0]
	.loc	8 84 14                         @ ../Middlewares/CMSIS/DSP/Src/DistanceFunctions/arm_chebyshev_distance_f64.c:84:14
	vstr	d0, [sp, #8]
	.loc	8 85 21 is_stmt 1               @ ../Middlewares/CMSIS/DSP/Src/DistanceFunctions/arm_chebyshev_distance_f64.c:85:21
	vldr	d1, [sp, #16]
	.loc	8 85 28 is_stmt 0               @ ../Middlewares/CMSIS/DSP/Src/DistanceFunctions/arm_chebyshev_distance_f64.c:85:28
	vldr	d0, [sp, #8]
	.loc	8 85 26                         @ ../Middlewares/CMSIS/DSP/Src/DistanceFunctions/arm_chebyshev_distance_f64.c:85:26
	vmov	r0, r1, d1
	vmov	r2, r3, d0
	bl	__aeabi_dsub
	vmov	d0, r0, r1
	.loc	8 85 16                         @ ../Middlewares/CMSIS/DSP/Src/DistanceFunctions/arm_chebyshev_distance_f64.c:85:16
	vmov	r0, r1, d0
	vldr	d0, .LCPI7_0
	vmov	r3, r2, d0
	lsrs	r2, r2, #31
	bfi	r1, r2, #31, #1
	vmov	d0, r0, r1
	.loc	8 85 14                         @ ../Middlewares/CMSIS/DSP/Src/DistanceFunctions/arm_chebyshev_distance_f64.c:85:14
	vstr	d0, [sp, #32]
.Ltmp54:
	.loc	8 86 13 is_stmt 1               @ ../Middlewares/CMSIS/DSP/Src/DistanceFunctions/arm_chebyshev_distance_f64.c:86:13
	ldr	r0, [sp, #32]
	ldr	r1, [sp, #36]
	.loc	8 86 20 is_stmt 0               @ ../Middlewares/CMSIS/DSP/Src/DistanceFunctions/arm_chebyshev_distance_f64.c:86:20
	ldr	r2, [sp, #24]
	ldr	r3, [sp, #28]
.Ltmp55:
	.loc	8 86 13                         @ ../Middlewares/CMSIS/DSP/Src/DistanceFunctions/arm_chebyshev_distance_f64.c:86:13
	bl	__aeabi_dcmple
	cbnz	r0, .LBB7_4
	b	.LBB7_3
.LBB7_3:                                @   in Loop: Header=BB7_1 Depth=1
.Ltmp56:
	.loc	8 88 22 is_stmt 1               @ ../Middlewares/CMSIS/DSP/Src/DistanceFunctions/arm_chebyshev_distance_f64.c:88:22
	vldr	d0, [sp, #32]
	.loc	8 88 20 is_stmt 0               @ ../Middlewares/CMSIS/DSP/Src/DistanceFunctions/arm_chebyshev_distance_f64.c:88:20
	vstr	d0, [sp, #24]
	.loc	8 89 9 is_stmt 1                @ ../Middlewares/CMSIS/DSP/Src/DistanceFunctions/arm_chebyshev_distance_f64.c:89:9
	b	.LBB7_4
.Ltmp57:
.LBB7_4:                                @   in Loop: Header=BB7_1 Depth=1
	.loc	8 90 16                         @ ../Middlewares/CMSIS/DSP/Src/DistanceFunctions/arm_chebyshev_distance_f64.c:90:16
	ldr	r0, [sp, #4]
	subs	r0, #1
	str	r0, [sp, #4]
.Ltmp58:
	.loc	8 81 5                          @ ../Middlewares/CMSIS/DSP/Src/DistanceFunctions/arm_chebyshev_distance_f64.c:81:5
	b	.LBB7_1
.LBB7_5:
	.loc	8 93 12                         @ ../Middlewares/CMSIS/DSP/Src/DistanceFunctions/arm_chebyshev_distance_f64.c:93:12
	vldr	d0, [sp, #24]
	.loc	8 93 5 is_stmt 0                @ ../Middlewares/CMSIS/DSP/Src/DistanceFunctions/arm_chebyshev_distance_f64.c:93:5
	add	sp, #56
	pop	{r7, pc}
.Ltmp59:
	.p2align	3
@ %bb.6:
	.loc	8 0 5                           @ ../Middlewares/CMSIS/DSP/Src/DistanceFunctions/arm_chebyshev_distance_f64.c:0:5
.LCPI7_0:
	.long	0                               @ double 0
	.long	0
.Lfunc_end7:
	.size	arm_chebyshev_distance_f64, .Lfunc_end7-arm_chebyshev_distance_f64
	.cfi_endproc
	.cantunwind
	.fnend
                                        @ -- End function
	.section	.text.arm_cityblock_distance_f32,"ax",%progbits
	.hidden	arm_cityblock_distance_f32      @ -- Begin function arm_cityblock_distance_f32
	.globl	arm_cityblock_distance_f32
	.p2align	2
	.type	arm_cityblock_distance_f32,%function
	.code	16                              @ @arm_cityblock_distance_f32
	.thumb_func
arm_cityblock_distance_f32:
.Lfunc_begin8:
	.file	9 "D:\\horizon\\Horizon_Infantry (2)\\MDK-ARM" "../Middlewares/CMSIS/DSP/Src/DistanceFunctions/arm_cityblock_distance_f32.c"
	.loc	9 137 0 is_stmt 1               @ ../Middlewares/CMSIS/DSP/Src/DistanceFunctions/arm_cityblock_distance_f32.c:137:0
	.fnstart
	.cfi_startproc
@ %bb.0:
	.pad	#24
	sub	sp, #24
	.cfi_def_cfa_offset 24
	str	r0, [sp, #20]
	str	r1, [sp, #16]
	str	r2, [sp, #12]
	movs	r0, #0
.Ltmp60:
	.loc	9 140 10 prologue_end           @ ../Middlewares/CMSIS/DSP/Src/DistanceFunctions/arm_cityblock_distance_f32.c:140:10
	str	r0, [sp, #8]
	.loc	9 141 4                         @ ../Middlewares/CMSIS/DSP/Src/DistanceFunctions/arm_cityblock_distance_f32.c:141:4
	b	.LBB8_1
.LBB8_1:                                @ =>This Inner Loop Header: Depth=1
	.loc	9 141 10 is_stmt 0              @ ../Middlewares/CMSIS/DSP/Src/DistanceFunctions/arm_cityblock_distance_f32.c:141:10
	ldr	r0, [sp, #12]
	.loc	9 141 4                         @ ../Middlewares/CMSIS/DSP/Src/DistanceFunctions/arm_cityblock_distance_f32.c:141:4
	cbz	r0, .LBB8_3
	b	.LBB8_2
.LBB8_2:                                @   in Loop: Header=BB8_1 Depth=1
.Ltmp61:
	.loc	9 143 17 is_stmt 1              @ ../Middlewares/CMSIS/DSP/Src/DistanceFunctions/arm_cityblock_distance_f32.c:143:17
	ldr	r0, [sp, #20]
	adds	r1, r0, #4
	str	r1, [sp, #20]
	.loc	9 143 14 is_stmt 0              @ ../Middlewares/CMSIS/DSP/Src/DistanceFunctions/arm_cityblock_distance_f32.c:143:14
	ldr	r0, [r0]
	.loc	9 143 12                        @ ../Middlewares/CMSIS/DSP/Src/DistanceFunctions/arm_cityblock_distance_f32.c:143:12
	str	r0, [sp, #4]
	.loc	9 144 17 is_stmt 1              @ ../Middlewares/CMSIS/DSP/Src/DistanceFunctions/arm_cityblock_distance_f32.c:144:17
	ldr	r0, [sp, #16]
	adds	r1, r0, #4
	str	r1, [sp, #16]
	.loc	9 144 14 is_stmt 0              @ ../Middlewares/CMSIS/DSP/Src/DistanceFunctions/arm_cityblock_distance_f32.c:144:14
	ldr	r0, [r0]
	.loc	9 144 12                        @ ../Middlewares/CMSIS/DSP/Src/DistanceFunctions/arm_cityblock_distance_f32.c:144:12
	str	r0, [sp]
	.loc	9 145 22 is_stmt 1              @ ../Middlewares/CMSIS/DSP/Src/DistanceFunctions/arm_cityblock_distance_f32.c:145:22
	vldr	s0, [sp, #4]
	.loc	9 145 29 is_stmt 0              @ ../Middlewares/CMSIS/DSP/Src/DistanceFunctions/arm_cityblock_distance_f32.c:145:29
	vldr	s2, [sp]
	.loc	9 145 27                        @ ../Middlewares/CMSIS/DSP/Src/DistanceFunctions/arm_cityblock_distance_f32.c:145:27
	vsub.f32	s0, s0, s2
	.loc	9 145 16                        @ ../Middlewares/CMSIS/DSP/Src/DistanceFunctions/arm_cityblock_distance_f32.c:145:16
	vabs.f32	s2, s0
	.loc	9 145 13                        @ ../Middlewares/CMSIS/DSP/Src/DistanceFunctions/arm_cityblock_distance_f32.c:145:13
	vldr	s0, [sp, #8]
	vadd.f32	s0, s0, s2
	vstr	s0, [sp, #8]
	.loc	9 147 17 is_stmt 1              @ ../Middlewares/CMSIS/DSP/Src/DistanceFunctions/arm_cityblock_distance_f32.c:147:17
	ldr	r0, [sp, #12]
	subs	r0, #1
	str	r0, [sp, #12]
.Ltmp62:
	.loc	9 141 4                         @ ../Middlewares/CMSIS/DSP/Src/DistanceFunctions/arm_cityblock_distance_f32.c:141:4
	b	.LBB8_1
.LBB8_3:
	.loc	9 150 11                        @ ../Middlewares/CMSIS/DSP/Src/DistanceFunctions/arm_cityblock_distance_f32.c:150:11
	vldr	s0, [sp, #8]
	.loc	9 150 4 is_stmt 0               @ ../Middlewares/CMSIS/DSP/Src/DistanceFunctions/arm_cityblock_distance_f32.c:150:4
	add	sp, #24
	bx	lr
.Ltmp63:
.Lfunc_end8:
	.size	arm_cityblock_distance_f32, .Lfunc_end8-arm_cityblock_distance_f32
	.cfi_endproc
	.cantunwind
	.fnend
                                        @ -- End function
	.section	.text.arm_cityblock_distance_f64,"ax",%progbits
	.hidden	arm_cityblock_distance_f64      @ -- Begin function arm_cityblock_distance_f64
	.globl	arm_cityblock_distance_f64
	.p2align	3
	.type	arm_cityblock_distance_f64,%function
	.code	16                              @ @arm_cityblock_distance_f64
	.thumb_func
arm_cityblock_distance_f64:
.Lfunc_begin9:
	.file	10 "D:\\horizon\\Horizon_Infantry (2)\\MDK-ARM" "../Middlewares/CMSIS/DSP/Src/DistanceFunctions/arm_cityblock_distance_f64.c"
	.loc	10 49 0 is_stmt 1               @ ../Middlewares/CMSIS/DSP/Src/DistanceFunctions/arm_cityblock_distance_f64.c:49:0
	.fnstart
	.cfi_startproc
@ %bb.0:
	.save	{r7, lr}
	push	{r7, lr}
	.cfi_def_cfa_offset 8
	.cfi_offset lr, -4
	.cfi_offset r7, -8
	.pad	#48
	sub	sp, #48
	.cfi_def_cfa_offset 56
	str	r0, [sp, #44]
	str	r1, [sp, #40]
	str	r2, [sp, #36]
	movs	r0, #0
.Ltmp64:
	.loc	10 52 11 prologue_end           @ ../Middlewares/CMSIS/DSP/Src/DistanceFunctions/arm_cityblock_distance_f64.c:52:11
	str	r0, [sp, #28]
	str	r0, [sp, #24]
	.loc	10 73 14                        @ ../Middlewares/CMSIS/DSP/Src/DistanceFunctions/arm_cityblock_distance_f64.c:73:14
	ldr	r0, [sp, #36]
	.loc	10 73 12 is_stmt 0              @ ../Middlewares/CMSIS/DSP/Src/DistanceFunctions/arm_cityblock_distance_f64.c:73:12
	str	r0, [sp, #4]
	.loc	10 75 5 is_stmt 1               @ ../Middlewares/CMSIS/DSP/Src/DistanceFunctions/arm_cityblock_distance_f64.c:75:5
	b	.LBB9_1
.LBB9_1:                                @ =>This Inner Loop Header: Depth=1
	.loc	10 75 11 is_stmt 0              @ ../Middlewares/CMSIS/DSP/Src/DistanceFunctions/arm_cityblock_distance_f64.c:75:11
	ldr	r0, [sp, #4]
	.loc	10 75 5                         @ ../Middlewares/CMSIS/DSP/Src/DistanceFunctions/arm_cityblock_distance_f64.c:75:5
	cbz	r0, .LBB9_3
	b	.LBB9_2
.LBB9_2:                                @   in Loop: Header=BB9_1 Depth=1
.Ltmp65:
	.loc	10 77 19 is_stmt 1              @ ../Middlewares/CMSIS/DSP/Src/DistanceFunctions/arm_cityblock_distance_f64.c:77:19
	ldr	r0, [sp, #44]
	add.w	r1, r0, #8
	str	r1, [sp, #44]
	.loc	10 77 16 is_stmt 0              @ ../Middlewares/CMSIS/DSP/Src/DistanceFunctions/arm_cityblock_distance_f64.c:77:16
	vldr	d0, [r0]
	.loc	10 77 14                        @ ../Middlewares/CMSIS/DSP/Src/DistanceFunctions/arm_cityblock_distance_f64.c:77:14
	vstr	d0, [sp, #16]
	.loc	10 78 19 is_stmt 1              @ ../Middlewares/CMSIS/DSP/Src/DistanceFunctions/arm_cityblock_distance_f64.c:78:19
	ldr	r0, [sp, #40]
	add.w	r1, r0, #8
	str	r1, [sp, #40]
	.loc	10 78 16 is_stmt 0              @ ../Middlewares/CMSIS/DSP/Src/DistanceFunctions/arm_cityblock_distance_f64.c:78:16
	vldr	d0, [r0]
	.loc	10 78 14                        @ ../Middlewares/CMSIS/DSP/Src/DistanceFunctions/arm_cityblock_distance_f64.c:78:14
	vstr	d0, [sp, #8]
	.loc	10 79 23 is_stmt 1              @ ../Middlewares/CMSIS/DSP/Src/DistanceFunctions/arm_cityblock_distance_f64.c:79:23
	vldr	d1, [sp, #16]
	.loc	10 79 30 is_stmt 0              @ ../Middlewares/CMSIS/DSP/Src/DistanceFunctions/arm_cityblock_distance_f64.c:79:30
	vldr	d0, [sp, #8]
	.loc	10 79 28                        @ ../Middlewares/CMSIS/DSP/Src/DistanceFunctions/arm_cityblock_distance_f64.c:79:28
	vmov	r0, r1, d1
	vmov	r2, r3, d0
	bl	__aeabi_dsub
	vmov	d0, r0, r1
	.loc	10 79 18                        @ ../Middlewares/CMSIS/DSP/Src/DistanceFunctions/arm_cityblock_distance_f64.c:79:18
	vmov	r0, r1, d0
	vldr	d0, .LCPI9_0
	vmov	r3, r2, d0
	lsrs	r2, r2, #31
	bfi	r1, r2, #31, #1
	vmov	d1, r0, r1
	.loc	10 79 15                        @ ../Middlewares/CMSIS/DSP/Src/DistanceFunctions/arm_cityblock_distance_f64.c:79:15
	vldr	d0, [sp, #24]
	vmov	r2, r3, d1
	vmov	r0, r1, d0
	bl	__aeabi_dadd
	vmov	d0, r0, r1
	vstr	d0, [sp, #24]
	.loc	10 81 15 is_stmt 1              @ ../Middlewares/CMSIS/DSP/Src/DistanceFunctions/arm_cityblock_distance_f64.c:81:15
	ldr	r0, [sp, #4]
	subs	r0, #1
	str	r0, [sp, #4]
.Ltmp66:
	.loc	10 75 5                         @ ../Middlewares/CMSIS/DSP/Src/DistanceFunctions/arm_cityblock_distance_f64.c:75:5
	b	.LBB9_1
.LBB9_3:
	.loc	10 84 12                        @ ../Middlewares/CMSIS/DSP/Src/DistanceFunctions/arm_cityblock_distance_f64.c:84:12
	vldr	d0, [sp, #24]
	.loc	10 84 5 is_stmt 0               @ ../Middlewares/CMSIS/DSP/Src/DistanceFunctions/arm_cityblock_distance_f64.c:84:5
	add	sp, #48
	pop	{r7, pc}
.Ltmp67:
	.p2align	3
@ %bb.4:
	.loc	10 0 5                          @ ../Middlewares/CMSIS/DSP/Src/DistanceFunctions/arm_cityblock_distance_f64.c:0:5
.LCPI9_0:
	.long	0                               @ double 0
	.long	0
.Lfunc_end9:
	.size	arm_cityblock_distance_f64, .Lfunc_end9-arm_cityblock_distance_f64
	.cfi_endproc
	.cantunwind
	.fnend
                                        @ -- End function
	.section	.text.arm_correlation_distance_f32,"ax",%progbits
	.hidden	arm_correlation_distance_f32    @ -- Begin function arm_correlation_distance_f32
	.globl	arm_correlation_distance_f32
	.p2align	2
	.type	arm_correlation_distance_f32,%function
	.code	16                              @ @arm_correlation_distance_f32
	.thumb_func
arm_correlation_distance_f32:
.Lfunc_begin10:
	.file	11 "D:\\horizon\\Horizon_Infantry (2)\\MDK-ARM" "../Middlewares/CMSIS/DSP/Src/DistanceFunctions/arm_correlation_distance_f32.c"
	.loc	11 55 0 is_stmt 1               @ ../Middlewares/CMSIS/DSP/Src/DistanceFunctions/arm_correlation_distance_f32.c:55:0
	.fnstart
	.cfi_startproc
@ %bb.0:
	.save	{r7, lr}
	push	{r7, lr}
	.cfi_def_cfa_offset 8
	.cfi_offset lr, -4
	.cfi_offset r7, -8
	.pad	#48
	sub	sp, #48
	.cfi_def_cfa_offset 56
	str	r0, [sp, #32]
	str	r1, [sp, #28]
	str	r2, [sp, #24]
.Ltmp68:
	.loc	11 58 18 prologue_end           @ ../Middlewares/CMSIS/DSP/Src/DistanceFunctions/arm_correlation_distance_f32.c:58:18
	ldr	r0, [sp, #32]
	.loc	11 58 22 is_stmt 0              @ ../Middlewares/CMSIS/DSP/Src/DistanceFunctions/arm_correlation_distance_f32.c:58:22
	ldr	r1, [sp, #24]
	add	r2, sp, #20
	.loc	11 58 5                         @ ../Middlewares/CMSIS/DSP/Src/DistanceFunctions/arm_correlation_distance_f32.c:58:5
	bl	arm_mean_f32
	.loc	11 59 18 is_stmt 1              @ ../Middlewares/CMSIS/DSP/Src/DistanceFunctions/arm_correlation_distance_f32.c:59:18
	ldr	r0, [sp, #28]
	.loc	11 59 22 is_stmt 0              @ ../Middlewares/CMSIS/DSP/Src/DistanceFunctions/arm_correlation_distance_f32.c:59:22
	ldr	r1, [sp, #24]
	add	r2, sp, #16
	.loc	11 59 5                         @ ../Middlewares/CMSIS/DSP/Src/DistanceFunctions/arm_correlation_distance_f32.c:59:5
	bl	arm_mean_f32
	.loc	11 61 20 is_stmt 1              @ ../Middlewares/CMSIS/DSP/Src/DistanceFunctions/arm_correlation_distance_f32.c:61:20
	ldr	r1, [sp, #32]
	.loc	11 61 25 is_stmt 0              @ ../Middlewares/CMSIS/DSP/Src/DistanceFunctions/arm_correlation_distance_f32.c:61:25
	vldr	s0, [sp, #20]
	.loc	11 61 24                        @ ../Middlewares/CMSIS/DSP/Src/DistanceFunctions/arm_correlation_distance_f32.c:61:24
	vneg.f32	s0, s0
	.loc	11 61 33                        @ ../Middlewares/CMSIS/DSP/Src/DistanceFunctions/arm_correlation_distance_f32.c:61:33
	ldr	r2, [sp, #24]
	.loc	11 61 5                         @ ../Middlewares/CMSIS/DSP/Src/DistanceFunctions/arm_correlation_distance_f32.c:61:5
	mov	r0, r1
	bl	arm_offset_f32
	.loc	11 62 20 is_stmt 1              @ ../Middlewares/CMSIS/DSP/Src/DistanceFunctions/arm_correlation_distance_f32.c:62:20
	ldr	r1, [sp, #28]
	.loc	11 62 25 is_stmt 0              @ ../Middlewares/CMSIS/DSP/Src/DistanceFunctions/arm_correlation_distance_f32.c:62:25
	vldr	s0, [sp, #16]
	.loc	11 62 24                        @ ../Middlewares/CMSIS/DSP/Src/DistanceFunctions/arm_correlation_distance_f32.c:62:24
	vneg.f32	s0, s0
	.loc	11 62 33                        @ ../Middlewares/CMSIS/DSP/Src/DistanceFunctions/arm_correlation_distance_f32.c:62:33
	ldr	r2, [sp, #24]
	.loc	11 62 5                         @ ../Middlewares/CMSIS/DSP/Src/DistanceFunctions/arm_correlation_distance_f32.c:62:5
	mov	r0, r1
	bl	arm_offset_f32
	.loc	11 64 19 is_stmt 1              @ ../Middlewares/CMSIS/DSP/Src/DistanceFunctions/arm_correlation_distance_f32.c:64:19
	ldr	r0, [sp, #32]
	.loc	11 64 23 is_stmt 0              @ ../Middlewares/CMSIS/DSP/Src/DistanceFunctions/arm_correlation_distance_f32.c:64:23
	ldr	r1, [sp, #24]
	add	r2, sp, #12
	.loc	11 64 5                         @ ../Middlewares/CMSIS/DSP/Src/DistanceFunctions/arm_correlation_distance_f32.c:64:5
	bl	arm_power_f32
	.loc	11 65 19 is_stmt 1              @ ../Middlewares/CMSIS/DSP/Src/DistanceFunctions/arm_correlation_distance_f32.c:65:19
	ldr	r0, [sp, #28]
	.loc	11 65 23 is_stmt 0              @ ../Middlewares/CMSIS/DSP/Src/DistanceFunctions/arm_correlation_distance_f32.c:65:23
	ldr	r1, [sp, #24]
	add	r2, sp, #8
	.loc	11 65 5                         @ ../Middlewares/CMSIS/DSP/Src/DistanceFunctions/arm_correlation_distance_f32.c:65:5
	bl	arm_power_f32
	.loc	11 67 22 is_stmt 1              @ ../Middlewares/CMSIS/DSP/Src/DistanceFunctions/arm_correlation_distance_f32.c:67:22
	ldr	r0, [sp, #32]
	.loc	11 67 25 is_stmt 0              @ ../Middlewares/CMSIS/DSP/Src/DistanceFunctions/arm_correlation_distance_f32.c:67:25
	ldr	r1, [sp, #28]
	.loc	11 67 28                        @ ../Middlewares/CMSIS/DSP/Src/DistanceFunctions/arm_correlation_distance_f32.c:67:28
	ldr	r2, [sp, #24]
	add	r3, sp, #4
	.loc	11 67 5                         @ ../Middlewares/CMSIS/DSP/Src/DistanceFunctions/arm_correlation_distance_f32.c:67:5
	bl	arm_dot_prod_f32
	.loc	11 69 11 is_stmt 1              @ ../Middlewares/CMSIS/DSP/Src/DistanceFunctions/arm_correlation_distance_f32.c:69:11
	vldr	s0, [sp, #4]
	.loc	11 69 17 is_stmt 0              @ ../Middlewares/CMSIS/DSP/Src/DistanceFunctions/arm_correlation_distance_f32.c:69:17
	vldr	s2, [sp, #24]
	vcvt.f32.u32	s2, s2
	.loc	11 69 15                        @ ../Middlewares/CMSIS/DSP/Src/DistanceFunctions/arm_correlation_distance_f32.c:69:15
	vdiv.f32	s0, s0, s2
	.loc	11 69 9                         @ ../Middlewares/CMSIS/DSP/Src/DistanceFunctions/arm_correlation_distance_f32.c:69:9
	vstr	s0, [sp, #4]
	.loc	11 70 12 is_stmt 1              @ ../Middlewares/CMSIS/DSP/Src/DistanceFunctions/arm_correlation_distance_f32.c:70:12
	vldr	s0, [sp, #12]
	.loc	11 70 19 is_stmt 0              @ ../Middlewares/CMSIS/DSP/Src/DistanceFunctions/arm_correlation_distance_f32.c:70:19
	vldr	s2, [sp, #24]
	vcvt.f32.u32	s2, s2
	.loc	11 70 17                        @ ../Middlewares/CMSIS/DSP/Src/DistanceFunctions/arm_correlation_distance_f32.c:70:17
	vdiv.f32	s0, s0, s2
	.loc	11 70 10                        @ ../Middlewares/CMSIS/DSP/Src/DistanceFunctions/arm_correlation_distance_f32.c:70:10
	vstr	s0, [sp, #12]
	.loc	11 71 12 is_stmt 1              @ ../Middlewares/CMSIS/DSP/Src/DistanceFunctions/arm_correlation_distance_f32.c:71:12
	vldr	s0, [sp, #8]
	.loc	11 71 19 is_stmt 0              @ ../Middlewares/CMSIS/DSP/Src/DistanceFunctions/arm_correlation_distance_f32.c:71:19
	vldr	s2, [sp, #24]
	vcvt.f32.u32	s2, s2
	.loc	11 71 17                        @ ../Middlewares/CMSIS/DSP/Src/DistanceFunctions/arm_correlation_distance_f32.c:71:17
	vdiv.f32	s0, s0, s2
	.loc	11 71 10                        @ ../Middlewares/CMSIS/DSP/Src/DistanceFunctions/arm_correlation_distance_f32.c:71:10
	vstr	s0, [sp, #8]
	.loc	11 73 18 is_stmt 1              @ ../Middlewares/CMSIS/DSP/Src/DistanceFunctions/arm_correlation_distance_f32.c:73:18
	vldr	s0, [sp, #12]
	.loc	11 73 25 is_stmt 0              @ ../Middlewares/CMSIS/DSP/Src/DistanceFunctions/arm_correlation_distance_f32.c:73:25
	vldr	s2, [sp, #8]
	.loc	11 73 23                        @ ../Middlewares/CMSIS/DSP/Src/DistanceFunctions/arm_correlation_distance_f32.c:73:23
	vmul.f32	s0, s0, s2
	vstr	s0, [sp, #40]
	mov	r0, sp
	str	r0, [sp, #36]
.Ltmp69:
	.file	12 "D:\\horizon\\Horizon_Infantry (2)\\MDK-ARM" "../Middlewares/CMSIS/DSP/Inc\\dsp/fast_math_functions.h"
	.loc	12 244 9 is_stmt 1              @ ../Middlewares/CMSIS/DSP/Inc\dsp/fast_math_functions.h:244:9
	vldr	s0, [sp, #40]
.Ltmp70:
	.loc	12 244 9 is_stmt 0              @ ../Middlewares/CMSIS/DSP/Inc\dsp/fast_math_functions.h:244:9
	vcmp.f32	s0, #0
	vmrs	APSR_nzcv, fpscr
	blt	.LBB10_2
	b	.LBB10_1
.LBB10_1:
.Ltmp71:
	.loc	12 261 22 is_stmt 1             @ ../Middlewares/CMSIS/DSP/Inc\dsp/fast_math_functions.h:261:22
	vldr	s0, [sp, #40]
	.loc	12 261 15 is_stmt 0             @ ../Middlewares/CMSIS/DSP/Inc\dsp/fast_math_functions.h:261:15
	bl	_sqrtf
	.loc	12 261 8                        @ ../Middlewares/CMSIS/DSP/Inc\dsp/fast_math_functions.h:261:8
	ldr	r0, [sp, #36]
	.loc	12 261 13                       @ ../Middlewares/CMSIS/DSP/Inc\dsp/fast_math_functions.h:261:13
	vstr	s0, [r0]
	movs	r0, #0
	.loc	12 274 7 is_stmt 1              @ ../Middlewares/CMSIS/DSP/Inc\dsp/fast_math_functions.h:274:7
	strb.w	r0, [sp, #47]
	b	.LBB10_3
.Ltmp72:
.LBB10_2:
	.loc	12 278 8                        @ ../Middlewares/CMSIS/DSP/Inc\dsp/fast_math_functions.h:278:8
	ldr	r1, [sp, #36]
	movs	r0, #0
	.loc	12 278 13 is_stmt 0             @ ../Middlewares/CMSIS/DSP/Inc\dsp/fast_math_functions.h:278:13
	str	r0, [r1]
	movs	r0, #255
	.loc	12 279 7 is_stmt 1              @ ../Middlewares/CMSIS/DSP/Inc\dsp/fast_math_functions.h:279:7
	strb.w	r0, [sp, #47]
	b	.LBB10_3
.Ltmp73:
.LBB10_3:                               @ %arm_sqrt_f32.exit
	.loc	11 75 19                        @ ../Middlewares/CMSIS/DSP/Src/DistanceFunctions/arm_correlation_distance_f32.c:75:19
	vldr	s0, [sp, #4]
	.loc	11 75 25 is_stmt 0              @ ../Middlewares/CMSIS/DSP/Src/DistanceFunctions/arm_correlation_distance_f32.c:75:25
	vldr	s2, [sp]
	.loc	11 75 23                        @ ../Middlewares/CMSIS/DSP/Src/DistanceFunctions/arm_correlation_distance_f32.c:75:23
	vdiv.f32	s2, s0, s2
	vmov.f32	s0, #1.000000e+00
	.loc	11 75 17                        @ ../Middlewares/CMSIS/DSP/Src/DistanceFunctions/arm_correlation_distance_f32.c:75:17
	vsub.f32	s0, s0, s2
	.loc	11 75 5                         @ ../Middlewares/CMSIS/DSP/Src/DistanceFunctions/arm_correlation_distance_f32.c:75:5
	add	sp, #48
	pop	{r7, pc}
.Ltmp74:
.Lfunc_end10:
	.size	arm_correlation_distance_f32, .Lfunc_end10-arm_correlation_distance_f32
	.cfi_endproc
	.cantunwind
	.fnend
                                        @ -- End function
	.section	.text.arm_cosine_distance_f32,"ax",%progbits
	.hidden	arm_cosine_distance_f32         @ -- Begin function arm_cosine_distance_f32
	.globl	arm_cosine_distance_f32
	.p2align	2
	.type	arm_cosine_distance_f32,%function
	.code	16                              @ @arm_cosine_distance_f32
	.thumb_func
arm_cosine_distance_f32:
.Lfunc_begin11:
	.file	13 "D:\\horizon\\Horizon_Infantry (2)\\MDK-ARM" "../Middlewares/CMSIS/DSP/Src/DistanceFunctions/arm_cosine_distance_f32.c"
	.loc	13 55 0 is_stmt 1               @ ../Middlewares/CMSIS/DSP/Src/DistanceFunctions/arm_cosine_distance_f32.c:55:0
	.fnstart
	.cfi_startproc
@ %bb.0:
	.save	{r7, lr}
	push	{r7, lr}
	.cfi_def_cfa_offset 8
	.cfi_offset lr, -4
	.cfi_offset r7, -8
	.pad	#40
	sub	sp, #40
	.cfi_def_cfa_offset 48
	str	r0, [sp, #24]
	str	r1, [sp, #20]
	str	r2, [sp, #16]
.Ltmp75:
	.loc	13 58 19 prologue_end           @ ../Middlewares/CMSIS/DSP/Src/DistanceFunctions/arm_cosine_distance_f32.c:58:19
	ldr	r0, [sp, #24]
	.loc	13 58 23 is_stmt 0              @ ../Middlewares/CMSIS/DSP/Src/DistanceFunctions/arm_cosine_distance_f32.c:58:23
	ldr	r1, [sp, #16]
	add	r2, sp, #12
	.loc	13 58 5                         @ ../Middlewares/CMSIS/DSP/Src/DistanceFunctions/arm_cosine_distance_f32.c:58:5
	bl	arm_power_f32
	.loc	13 59 19 is_stmt 1              @ ../Middlewares/CMSIS/DSP/Src/DistanceFunctions/arm_cosine_distance_f32.c:59:19
	ldr	r0, [sp, #20]
	.loc	13 59 23 is_stmt 0              @ ../Middlewares/CMSIS/DSP/Src/DistanceFunctions/arm_cosine_distance_f32.c:59:23
	ldr	r1, [sp, #16]
	add	r2, sp, #8
	.loc	13 59 5                         @ ../Middlewares/CMSIS/DSP/Src/DistanceFunctions/arm_cosine_distance_f32.c:59:5
	bl	arm_power_f32
	.loc	13 61 22 is_stmt 1              @ ../Middlewares/CMSIS/DSP/Src/DistanceFunctions/arm_cosine_distance_f32.c:61:22
	ldr	r0, [sp, #24]
	.loc	13 61 25 is_stmt 0              @ ../Middlewares/CMSIS/DSP/Src/DistanceFunctions/arm_cosine_distance_f32.c:61:25
	ldr	r1, [sp, #20]
	.loc	13 61 28                        @ ../Middlewares/CMSIS/DSP/Src/DistanceFunctions/arm_cosine_distance_f32.c:61:28
	ldr	r2, [sp, #16]
	add	r3, sp, #4
	.loc	13 61 5                         @ ../Middlewares/CMSIS/DSP/Src/DistanceFunctions/arm_cosine_distance_f32.c:61:5
	bl	arm_dot_prod_f32
	.loc	13 63 18 is_stmt 1              @ ../Middlewares/CMSIS/DSP/Src/DistanceFunctions/arm_cosine_distance_f32.c:63:18
	vldr	s0, [sp, #12]
	.loc	13 63 25 is_stmt 0              @ ../Middlewares/CMSIS/DSP/Src/DistanceFunctions/arm_cosine_distance_f32.c:63:25
	vldr	s2, [sp, #8]
	.loc	13 63 23                        @ ../Middlewares/CMSIS/DSP/Src/DistanceFunctions/arm_cosine_distance_f32.c:63:23
	vmul.f32	s0, s0, s2
	vstr	s0, [sp, #32]
	mov	r0, sp
	str	r0, [sp, #28]
.Ltmp76:
	.loc	12 244 9 is_stmt 1              @ ../Middlewares/CMSIS/DSP/Inc\dsp/fast_math_functions.h:244:9
	vldr	s0, [sp, #32]
.Ltmp77:
	.loc	12 244 9 is_stmt 0              @ ../Middlewares/CMSIS/DSP/Inc\dsp/fast_math_functions.h:244:9
	vcmp.f32	s0, #0
	vmrs	APSR_nzcv, fpscr
	blt	.LBB11_2
	b	.LBB11_1
.LBB11_1:
.Ltmp78:
	.loc	12 261 22 is_stmt 1             @ ../Middlewares/CMSIS/DSP/Inc\dsp/fast_math_functions.h:261:22
	vldr	s0, [sp, #32]
	.loc	12 261 15 is_stmt 0             @ ../Middlewares/CMSIS/DSP/Inc\dsp/fast_math_functions.h:261:15
	bl	_sqrtf
	.loc	12 261 8                        @ ../Middlewares/CMSIS/DSP/Inc\dsp/fast_math_functions.h:261:8
	ldr	r0, [sp, #28]
	.loc	12 261 13                       @ ../Middlewares/CMSIS/DSP/Inc\dsp/fast_math_functions.h:261:13
	vstr	s0, [r0]
	movs	r0, #0
	.loc	12 274 7 is_stmt 1              @ ../Middlewares/CMSIS/DSP/Inc\dsp/fast_math_functions.h:274:7
	strb.w	r0, [sp, #39]
	b	.LBB11_3
.Ltmp79:
.LBB11_2:
	.loc	12 278 8                        @ ../Middlewares/CMSIS/DSP/Inc\dsp/fast_math_functions.h:278:8
	ldr	r1, [sp, #28]
	movs	r0, #0
	.loc	12 278 13 is_stmt 0             @ ../Middlewares/CMSIS/DSP/Inc\dsp/fast_math_functions.h:278:13
	str	r0, [r1]
	movs	r0, #255
	.loc	12 279 7 is_stmt 1              @ ../Middlewares/CMSIS/DSP/Inc\dsp/fast_math_functions.h:279:7
	strb.w	r0, [sp, #39]
	b	.LBB11_3
.Ltmp80:
.LBB11_3:                               @ %arm_sqrt_f32.exit
	.loc	13 64 19                        @ ../Middlewares/CMSIS/DSP/Src/DistanceFunctions/arm_cosine_distance_f32.c:64:19
	vldr	s0, [sp, #4]
	.loc	13 64 25 is_stmt 0              @ ../Middlewares/CMSIS/DSP/Src/DistanceFunctions/arm_cosine_distance_f32.c:64:25
	vldr	s2, [sp]
	.loc	13 64 23                        @ ../Middlewares/CMSIS/DSP/Src/DistanceFunctions/arm_cosine_distance_f32.c:64:23
	vdiv.f32	s2, s0, s2
	vmov.f32	s0, #1.000000e+00
	.loc	13 64 17                        @ ../Middlewares/CMSIS/DSP/Src/DistanceFunctions/arm_cosine_distance_f32.c:64:17
	vsub.f32	s0, s0, s2
	.loc	13 64 5                         @ ../Middlewares/CMSIS/DSP/Src/DistanceFunctions/arm_cosine_distance_f32.c:64:5
	add	sp, #40
	pop	{r7, pc}
.Ltmp81:
.Lfunc_end11:
	.size	arm_cosine_distance_f32, .Lfunc_end11-arm_cosine_distance_f32
	.cfi_endproc
	.cantunwind
	.fnend
                                        @ -- End function
	.section	.text.arm_cosine_distance_f64,"ax",%progbits
	.hidden	arm_cosine_distance_f64         @ -- Begin function arm_cosine_distance_f64
	.globl	arm_cosine_distance_f64
	.p2align	3
	.type	arm_cosine_distance_f64,%function
	.code	16                              @ @arm_cosine_distance_f64
	.thumb_func
arm_cosine_distance_f64:
.Lfunc_begin12:
	.file	14 "D:\\horizon\\Horizon_Infantry (2)\\MDK-ARM" "../Middlewares/CMSIS/DSP/Src/DistanceFunctions/arm_cosine_distance_f64.c"
	.loc	14 53 0 is_stmt 1               @ ../Middlewares/CMSIS/DSP/Src/DistanceFunctions/arm_cosine_distance_f64.c:53:0
	.fnstart
	.cfi_startproc
@ %bb.0:
	.save	{r7, lr}
	push	{r7, lr}
	.cfi_def_cfa_offset 8
	.cfi_offset lr, -4
	.cfi_offset r7, -8
	.pad	#48
	sub	sp, #48
	.cfi_def_cfa_offset 56
	str	r0, [sp, #44]
	str	r1, [sp, #40]
	str	r2, [sp, #36]
.Ltmp82:
	.loc	14 56 19 prologue_end           @ ../Middlewares/CMSIS/DSP/Src/DistanceFunctions/arm_cosine_distance_f64.c:56:19
	ldr	r0, [sp, #44]
	.loc	14 56 23 is_stmt 0              @ ../Middlewares/CMSIS/DSP/Src/DistanceFunctions/arm_cosine_distance_f64.c:56:23
	ldr	r1, [sp, #36]
	add	r2, sp, #24
	.loc	14 56 5                         @ ../Middlewares/CMSIS/DSP/Src/DistanceFunctions/arm_cosine_distance_f64.c:56:5
	bl	arm_power_f64
	.loc	14 57 19 is_stmt 1              @ ../Middlewares/CMSIS/DSP/Src/DistanceFunctions/arm_cosine_distance_f64.c:57:19
	ldr	r0, [sp, #40]
	.loc	14 57 23 is_stmt 0              @ ../Middlewares/CMSIS/DSP/Src/DistanceFunctions/arm_cosine_distance_f64.c:57:23
	ldr	r1, [sp, #36]
	add	r2, sp, #16
	.loc	14 57 5                         @ ../Middlewares/CMSIS/DSP/Src/DistanceFunctions/arm_cosine_distance_f64.c:57:5
	bl	arm_power_f64
	.loc	14 59 22 is_stmt 1              @ ../Middlewares/CMSIS/DSP/Src/DistanceFunctions/arm_cosine_distance_f64.c:59:22
	ldr	r0, [sp, #44]
	.loc	14 59 25 is_stmt 0              @ ../Middlewares/CMSIS/DSP/Src/DistanceFunctions/arm_cosine_distance_f64.c:59:25
	ldr	r1, [sp, #40]
	.loc	14 59 28                        @ ../Middlewares/CMSIS/DSP/Src/DistanceFunctions/arm_cosine_distance_f64.c:59:28
	ldr	r2, [sp, #36]
	add	r3, sp, #8
	.loc	14 59 5                         @ ../Middlewares/CMSIS/DSP/Src/DistanceFunctions/arm_cosine_distance_f64.c:59:5
	bl	arm_dot_prod_f64
	.loc	14 61 16 is_stmt 1              @ ../Middlewares/CMSIS/DSP/Src/DistanceFunctions/arm_cosine_distance_f64.c:61:16
	vldr	d1, [sp, #24]
	.loc	14 61 23 is_stmt 0              @ ../Middlewares/CMSIS/DSP/Src/DistanceFunctions/arm_cosine_distance_f64.c:61:23
	vldr	d0, [sp, #16]
	.loc	14 61 21                        @ ../Middlewares/CMSIS/DSP/Src/DistanceFunctions/arm_cosine_distance_f64.c:61:21
	vmov	r0, r1, d1
	vmov	r2, r3, d0
	bl	__aeabi_dmul
	vmov	d0, r0, r1
	.loc	14 61 11                        @ ../Middlewares/CMSIS/DSP/Src/DistanceFunctions/arm_cosine_distance_f64.c:61:11
	bl	__hardfp_sqrt
	.loc	14 61 9                         @ ../Middlewares/CMSIS/DSP/Src/DistanceFunctions/arm_cosine_distance_f64.c:61:9
	vstr	d0, [sp]
	.loc	14 62 18 is_stmt 1              @ ../Middlewares/CMSIS/DSP/Src/DistanceFunctions/arm_cosine_distance_f64.c:62:18
	ldr	r0, [sp, #8]
	ldr	r1, [sp, #12]
	.loc	14 62 24 is_stmt 0              @ ../Middlewares/CMSIS/DSP/Src/DistanceFunctions/arm_cosine_distance_f64.c:62:24
	ldr	r2, [sp]
	ldr	r3, [sp, #4]
	.loc	14 62 22                        @ ../Middlewares/CMSIS/DSP/Src/DistanceFunctions/arm_cosine_distance_f64.c:62:22
	bl	__aeabi_ddiv
	vmov	d0, r0, r1
	.loc	14 62 16                        @ ../Middlewares/CMSIS/DSP/Src/DistanceFunctions/arm_cosine_distance_f64.c:62:16
	vmov	r2, r3, d0
	vldr	d0, .LCPI12_0
	vmov	r0, r1, d0
	bl	__aeabi_dsub
	vmov	d0, r0, r1
	.loc	14 62 5                         @ ../Middlewares/CMSIS/DSP/Src/DistanceFunctions/arm_cosine_distance_f64.c:62:5
	add	sp, #48
	pop	{r7, pc}
.Ltmp83:
	.p2align	3
@ %bb.1:
	.loc	14 0 5                          @ ../Middlewares/CMSIS/DSP/Src/DistanceFunctions/arm_cosine_distance_f64.c:0:5
.LCPI12_0:
	.long	0                               @ double 1
	.long	1072693248
.Lfunc_end12:
	.size	arm_cosine_distance_f64, .Lfunc_end12-arm_cosine_distance_f64
	.cfi_endproc
	.cantunwind
	.fnend
                                        @ -- End function
	.section	.text.arm_dice_distance,"ax",%progbits
	.hidden	arm_dice_distance               @ -- Begin function arm_dice_distance
	.globl	arm_dice_distance
	.p2align	2
	.type	arm_dice_distance,%function
	.code	16                              @ @arm_dice_distance
	.thumb_func
arm_dice_distance:
.Lfunc_begin13:
	.file	15 "D:\\horizon\\Horizon_Infantry (2)\\MDK-ARM" "../Middlewares/CMSIS/DSP/Src/DistanceFunctions/arm_dice_distance.c"
	.loc	15 77 0 is_stmt 1               @ ../Middlewares/CMSIS/DSP/Src/DistanceFunctions/arm_dice_distance.c:77:0
	.fnstart
	.cfi_startproc
@ %bb.0:
	.save	{r7, lr}
	push	{r7, lr}
	.cfi_def_cfa_offset 8
	.cfi_offset lr, -4
	.cfi_offset r7, -8
	.pad	#80
	sub	sp, #80
	.cfi_def_cfa_offset 88
	str	r0, [sp, #76]
	str	r1, [sp, #72]
	str	r2, [sp, #68]
	movs	r0, #0
.Ltmp84:
	.loc	15 78 14 prologue_end           @ ../Middlewares/CMSIS/DSP/Src/DistanceFunctions/arm_dice_distance.c:78:14
	str	r0, [sp, #64]
	.loc	15 78 20 is_stmt 0              @ ../Middlewares/CMSIS/DSP/Src/DistanceFunctions/arm_dice_distance.c:78:20
	str	r0, [sp, #60]
	.loc	15 78 26                        @ ../Middlewares/CMSIS/DSP/Src/DistanceFunctions/arm_dice_distance.c:78:26
	str	r0, [sp, #56]
	.loc	15 80 35 is_stmt 1              @ ../Middlewares/CMSIS/DSP/Src/DistanceFunctions/arm_dice_distance.c:80:35
	ldr	r0, [sp, #76]
	.loc	15 80 39 is_stmt 0              @ ../Middlewares/CMSIS/DSP/Src/DistanceFunctions/arm_dice_distance.c:80:39
	ldr	r1, [sp, #72]
	.loc	15 80 43                        @ ../Middlewares/CMSIS/DSP/Src/DistanceFunctions/arm_dice_distance.c:80:43
	ldr	r2, [sp, #68]
	.loc	15 80 5                         @ ../Middlewares/CMSIS/DSP/Src/DistanceFunctions/arm_dice_distance.c:80:5
	mov	r12, sp
	add	r3, sp, #56
	str.w	r3, [r12, #4]
	add	r3, sp, #60
	str.w	r3, [r12]
	add	r3, sp, #64
	bl	arm_boolean_distance_TT_TF_FT
	.loc	15 82 17 is_stmt 1              @ ../Middlewares/CMSIS/DSP/Src/DistanceFunctions/arm_dice_distance.c:82:17
	ldr	r0, [sp, #60]
	.loc	15 82 23 is_stmt 0              @ ../Middlewares/CMSIS/DSP/Src/DistanceFunctions/arm_dice_distance.c:82:23
	str	r0, [sp, #32]                   @ 4-byte Spill
	ldr	r1, [sp, #56]
	.loc	15 82 21                        @ ../Middlewares/CMSIS/DSP/Src/DistanceFunctions/arm_dice_distance.c:82:21
	str	r1, [sp, #8]                    @ 4-byte Spill
	add	r0, r1
	.loc	15 82 16                        @ ../Middlewares/CMSIS/DSP/Src/DistanceFunctions/arm_dice_distance.c:82:16
	bl	__aeabi_ui2d
	vmov	d0, r0, r1
	vstr	d0, [sp, #48]                   @ 8-byte Spill
	.loc	15 82 35                        @ ../Middlewares/CMSIS/DSP/Src/DistanceFunctions/arm_dice_distance.c:82:35
	ldr	r0, [sp, #64]
	bl	__aeabi_ui2d
	mov	r2, r0
	ldr	r0, [sp, #8]                    @ 4-byte Reload
	str	r2, [sp, #12]                   @ 4-byte Spill
	mov	r2, r1
	ldr	r1, [sp, #12]                   @ 4-byte Reload
	vmov	d0, r1, r2
	vstr	d0, [sp, #16]                   @ 8-byte Spill
	.loc	15 82 41                        @ ../Middlewares/CMSIS/DSP/Src/DistanceFunctions/arm_dice_distance.c:82:41
	bl	__aeabi_ui2d
	vldr	d0, [sp, #16]                   @ 8-byte Reload
	vmov	d1, r0, r1
	vstr	d1, [sp, #24]                   @ 8-byte Spill
	.loc	15 82 39                        @ ../Middlewares/CMSIS/DSP/Src/DistanceFunctions/arm_dice_distance.c:82:39
	vmov	r2, r3, d0
	mov	r0, r2
	mov	r1, r3
	bl	__aeabi_dadd
	vldr	d0, [sp, #24]                   @ 8-byte Reload
	vmov	r2, r3, d0
	vmov	d0, r0, r1
	vmov	r0, r1, d0
	bl	__aeabi_dadd
	mov	r2, r0
	ldr	r0, [sp, #32]                   @ 4-byte Reload
	str	r2, [sp, #36]                   @ 4-byte Spill
	mov	r2, r1
	ldr	r1, [sp, #36]                   @ 4-byte Reload
	vmov	d0, r1, r2
	vstr	d0, [sp, #40]                   @ 8-byte Spill
	.loc	15 82 47                        @ ../Middlewares/CMSIS/DSP/Src/DistanceFunctions/arm_dice_distance.c:82:47
	bl	__aeabi_ui2d
	vldr	d1, [sp, #40]                   @ 8-byte Reload
	vmov	d0, r0, r1
	.loc	15 82 45                        @ ../Middlewares/CMSIS/DSP/Src/DistanceFunctions/arm_dice_distance.c:82:45
	vmov	r0, r1, d1
	vmov	r2, r3, d0
	bl	__aeabi_dadd
	vldr	d1, [sp, #48]                   @ 8-byte Reload
	vmov	d0, r0, r1
	.loc	15 82 28                        @ ../Middlewares/CMSIS/DSP/Src/DistanceFunctions/arm_dice_distance.c:82:28
	vmov	r0, r1, d1
	vmov	r2, r3, d0
	bl	__aeabi_ddiv
	vmov	d0, r0, r1
	.loc	15 82 11                        @ ../Middlewares/CMSIS/DSP/Src/DistanceFunctions/arm_dice_distance.c:82:11
	vmov	r0, r1, d0
	bl	__aeabi_d2f
	vmov	s0, r0
	.loc	15 82 5                         @ ../Middlewares/CMSIS/DSP/Src/DistanceFunctions/arm_dice_distance.c:82:5
	add	sp, #80
	pop	{r7, pc}
.Ltmp85:
.Lfunc_end13:
	.size	arm_dice_distance, .Lfunc_end13-arm_dice_distance
	.cfi_endproc
	.cantunwind
	.fnend
                                        @ -- End function
	.section	.text.arm_euclidean_distance_f32,"ax",%progbits
	.hidden	arm_euclidean_distance_f32      @ -- Begin function arm_euclidean_distance_f32
	.globl	arm_euclidean_distance_f32
	.p2align	2
	.type	arm_euclidean_distance_f32,%function
	.code	16                              @ @arm_euclidean_distance_f32
	.thumb_func
arm_euclidean_distance_f32:
.Lfunc_begin14:
	.file	16 "D:\\horizon\\Horizon_Infantry (2)\\MDK-ARM" "../Middlewares/CMSIS/DSP/Src/DistanceFunctions/arm_euclidean_distance_f32.c"
	.loc	16 134 0 is_stmt 1              @ ../Middlewares/CMSIS/DSP/Src/DistanceFunctions/arm_euclidean_distance_f32.c:134:0
	.fnstart
	.cfi_startproc
@ %bb.0:
	.save	{r7, lr}
	push	{r7, lr}
	.cfi_def_cfa_offset 8
	.cfi_offset lr, -4
	.cfi_offset r7, -8
	.pad	#32
	sub	sp, #32
	.cfi_def_cfa_offset 40
	str	r0, [sp, #16]
	str	r1, [sp, #12]
	str	r2, [sp, #8]
	movs	r0, #0
.Ltmp86:
	.loc	16 135 14 prologue_end          @ ../Middlewares/CMSIS/DSP/Src/DistanceFunctions/arm_euclidean_distance_f32.c:135:14
	str	r0, [sp, #4]
	.loc	16 137 4                        @ ../Middlewares/CMSIS/DSP/Src/DistanceFunctions/arm_euclidean_distance_f32.c:137:4
	b	.LBB14_1
.LBB14_1:                               @ =>This Inner Loop Header: Depth=1
	.loc	16 137 10 is_stmt 0             @ ../Middlewares/CMSIS/DSP/Src/DistanceFunctions/arm_euclidean_distance_f32.c:137:10
	ldr	r0, [sp, #8]
	.loc	16 137 4                        @ ../Middlewares/CMSIS/DSP/Src/DistanceFunctions/arm_euclidean_distance_f32.c:137:4
	cbz	r0, .LBB14_3
	b	.LBB14_2
.LBB14_2:                               @   in Loop: Header=BB14_1 Depth=1
.Ltmp87:
	.loc	16 139 16 is_stmt 1             @ ../Middlewares/CMSIS/DSP/Src/DistanceFunctions/arm_euclidean_distance_f32.c:139:16
	ldr	r0, [sp, #16]
	adds	r1, r0, #4
	str	r1, [sp, #16]
	.loc	16 139 13 is_stmt 0             @ ../Middlewares/CMSIS/DSP/Src/DistanceFunctions/arm_euclidean_distance_f32.c:139:13
	vldr	s0, [r0]
	.loc	16 139 24                       @ ../Middlewares/CMSIS/DSP/Src/DistanceFunctions/arm_euclidean_distance_f32.c:139:24
	ldr	r0, [sp, #12]
	adds	r1, r0, #4
	str	r1, [sp, #12]
	.loc	16 139 21                       @ ../Middlewares/CMSIS/DSP/Src/DistanceFunctions/arm_euclidean_distance_f32.c:139:21
	vldr	s2, [r0]
	.loc	16 139 19                       @ ../Middlewares/CMSIS/DSP/Src/DistanceFunctions/arm_euclidean_distance_f32.c:139:19
	vsub.f32	s0, s0, s2
	.loc	16 139 11                       @ ../Middlewares/CMSIS/DSP/Src/DistanceFunctions/arm_euclidean_distance_f32.c:139:11
	vstr	s0, [sp]
	.loc	16 140 18 is_stmt 1             @ ../Middlewares/CMSIS/DSP/Src/DistanceFunctions/arm_euclidean_distance_f32.c:140:18
	vldr	s0, [sp]
	.loc	16 140 13 is_stmt 0             @ ../Middlewares/CMSIS/DSP/Src/DistanceFunctions/arm_euclidean_distance_f32.c:140:13
	vldr	s2, [sp, #4]
	vmul.f32	s0, s0, s0
	vadd.f32	s0, s0, s2
	vstr	s0, [sp, #4]
	.loc	16 141 17 is_stmt 1             @ ../Middlewares/CMSIS/DSP/Src/DistanceFunctions/arm_euclidean_distance_f32.c:141:17
	ldr	r0, [sp, #8]
	subs	r0, #1
	str	r0, [sp, #8]
.Ltmp88:
	.loc	16 137 4                        @ ../Middlewares/CMSIS/DSP/Src/DistanceFunctions/arm_euclidean_distance_f32.c:137:4
	b	.LBB14_1
.LBB14_3:
	.loc	16 143 17                       @ ../Middlewares/CMSIS/DSP/Src/DistanceFunctions/arm_euclidean_distance_f32.c:143:17
	ldr	r0, [sp, #4]
	str	r0, [sp, #24]
	mov	r0, sp
	str	r0, [sp, #20]
.Ltmp89:
	.loc	12 244 9                        @ ../Middlewares/CMSIS/DSP/Inc\dsp/fast_math_functions.h:244:9
	vldr	s0, [sp, #24]
.Ltmp90:
	.loc	12 244 9 is_stmt 0              @ ../Middlewares/CMSIS/DSP/Inc\dsp/fast_math_functions.h:244:9
	vcmp.f32	s0, #0
	vmrs	APSR_nzcv, fpscr
	blt	.LBB14_5
	b	.LBB14_4
.LBB14_4:
.Ltmp91:
	.loc	12 261 22 is_stmt 1             @ ../Middlewares/CMSIS/DSP/Inc\dsp/fast_math_functions.h:261:22
	vldr	s0, [sp, #24]
	.loc	12 261 15 is_stmt 0             @ ../Middlewares/CMSIS/DSP/Inc\dsp/fast_math_functions.h:261:15
	bl	_sqrtf
	.loc	12 261 8                        @ ../Middlewares/CMSIS/DSP/Inc\dsp/fast_math_functions.h:261:8
	ldr	r0, [sp, #20]
	.loc	12 261 13                       @ ../Middlewares/CMSIS/DSP/Inc\dsp/fast_math_functions.h:261:13
	vstr	s0, [r0]
	movs	r0, #0
	.loc	12 274 7 is_stmt 1              @ ../Middlewares/CMSIS/DSP/Inc\dsp/fast_math_functions.h:274:7
	strb.w	r0, [sp, #31]
	b	.LBB14_6
.Ltmp92:
.LBB14_5:
	.loc	12 278 8                        @ ../Middlewares/CMSIS/DSP/Inc\dsp/fast_math_functions.h:278:8
	ldr	r1, [sp, #20]
	movs	r0, #0
	.loc	12 278 13 is_stmt 0             @ ../Middlewares/CMSIS/DSP/Inc\dsp/fast_math_functions.h:278:13
	str	r0, [r1]
	movs	r0, #255
	.loc	12 279 7 is_stmt 1              @ ../Middlewares/CMSIS/DSP/Inc\dsp/fast_math_functions.h:279:7
	strb.w	r0, [sp, #31]
	b	.LBB14_6
.Ltmp93:
.LBB14_6:                               @ %arm_sqrt_f32.exit
	.loc	16 144 11                       @ ../Middlewares/CMSIS/DSP/Src/DistanceFunctions/arm_euclidean_distance_f32.c:144:11
	vldr	s0, [sp]
	.loc	16 144 4 is_stmt 0              @ ../Middlewares/CMSIS/DSP/Src/DistanceFunctions/arm_euclidean_distance_f32.c:144:4
	add	sp, #32
	pop	{r7, pc}
.Ltmp94:
.Lfunc_end14:
	.size	arm_euclidean_distance_f32, .Lfunc_end14-arm_euclidean_distance_f32
	.cfi_endproc
	.cantunwind
	.fnend
                                        @ -- End function
	.section	.text.arm_euclidean_distance_f64,"ax",%progbits
	.hidden	arm_euclidean_distance_f64      @ -- Begin function arm_euclidean_distance_f64
	.globl	arm_euclidean_distance_f64
	.p2align	2
	.type	arm_euclidean_distance_f64,%function
	.code	16                              @ @arm_euclidean_distance_f64
	.thumb_func
arm_euclidean_distance_f64:
.Lfunc_begin15:
	.file	17 "D:\\horizon\\Horizon_Infantry (2)\\MDK-ARM" "../Middlewares/CMSIS/DSP/Src/DistanceFunctions/arm_euclidean_distance_f64.c"
	.loc	17 51 0 is_stmt 1               @ ../Middlewares/CMSIS/DSP/Src/DistanceFunctions/arm_euclidean_distance_f64.c:51:0
	.fnstart
	.cfi_startproc
@ %bb.0:
	.save	{r7, lr}
	push	{r7, lr}
	.cfi_def_cfa_offset 8
	.cfi_offset lr, -4
	.cfi_offset r7, -8
	.pad	#48
	sub	sp, #48
	.cfi_def_cfa_offset 56
	str	r0, [sp, #44]
	str	r1, [sp, #40]
	str	r2, [sp, #36]
	movs	r0, #0
.Ltmp95:
	.loc	17 52 15 prologue_end           @ ../Middlewares/CMSIS/DSP/Src/DistanceFunctions/arm_euclidean_distance_f64.c:52:15
	str	r0, [sp, #28]
	str	r0, [sp, #24]
	.loc	17 71 14                        @ ../Middlewares/CMSIS/DSP/Src/DistanceFunctions/arm_euclidean_distance_f64.c:71:14
	ldr	r0, [sp, #36]
	.loc	17 71 12 is_stmt 0              @ ../Middlewares/CMSIS/DSP/Src/DistanceFunctions/arm_euclidean_distance_f64.c:71:12
	str	r0, [sp, #12]
	.loc	17 73 5 is_stmt 1               @ ../Middlewares/CMSIS/DSP/Src/DistanceFunctions/arm_euclidean_distance_f64.c:73:5
	b	.LBB15_1
.LBB15_1:                               @ =>This Inner Loop Header: Depth=1
	.loc	17 73 11 is_stmt 0              @ ../Middlewares/CMSIS/DSP/Src/DistanceFunctions/arm_euclidean_distance_f64.c:73:11
	ldr	r0, [sp, #12]
	.loc	17 73 5                         @ ../Middlewares/CMSIS/DSP/Src/DistanceFunctions/arm_euclidean_distance_f64.c:73:5
	cbz	r0, .LBB15_3
	b	.LBB15_2
.LBB15_2:                               @   in Loop: Header=BB15_1 Depth=1
.Ltmp96:
	.loc	17 75 18 is_stmt 1              @ ../Middlewares/CMSIS/DSP/Src/DistanceFunctions/arm_euclidean_distance_f64.c:75:18
	ldr	r0, [sp, #44]
	add.w	r1, r0, #8
	str	r1, [sp, #44]
	.loc	17 75 15 is_stmt 0              @ ../Middlewares/CMSIS/DSP/Src/DistanceFunctions/arm_euclidean_distance_f64.c:75:15
	vldr	d1, [r0]
	.loc	17 75 26                        @ ../Middlewares/CMSIS/DSP/Src/DistanceFunctions/arm_euclidean_distance_f64.c:75:26
	ldr	r0, [sp, #40]
	add.w	r1, r0, #8
	str	r1, [sp, #40]
	.loc	17 75 23                        @ ../Middlewares/CMSIS/DSP/Src/DistanceFunctions/arm_euclidean_distance_f64.c:75:23
	vldr	d0, [r0]
	.loc	17 75 21                        @ ../Middlewares/CMSIS/DSP/Src/DistanceFunctions/arm_euclidean_distance_f64.c:75:21
	vmov	r0, r1, d1
	vmov	r2, r3, d0
	bl	__aeabi_dsub
	vmov	d0, r0, r1
	.loc	17 75 13                        @ ../Middlewares/CMSIS/DSP/Src/DistanceFunctions/arm_euclidean_distance_f64.c:75:13
	vstr	d0, [sp, #16]
	.loc	17 76 20 is_stmt 1              @ ../Middlewares/CMSIS/DSP/Src/DistanceFunctions/arm_euclidean_distance_f64.c:76:20
	vldr	d0, [sp, #16]
	.loc	17 76 15 is_stmt 0              @ ../Middlewares/CMSIS/DSP/Src/DistanceFunctions/arm_euclidean_distance_f64.c:76:15
	vldr	d1, [sp, #24]
	vstr	d1, [sp]                        @ 8-byte Spill
	vmov	r2, r3, d0
	mov	r0, r2
	mov	r1, r3
	bl	__aeabi_dmul
	vldr	d0, [sp]                        @ 8-byte Reload
	vmov	r2, r3, d0
	vmov	d0, r0, r1
	vmov	r0, r1, d0
	bl	__aeabi_dadd
	vmov	d0, r0, r1
	vstr	d0, [sp, #24]
	.loc	17 77 16 is_stmt 1              @ ../Middlewares/CMSIS/DSP/Src/DistanceFunctions/arm_euclidean_distance_f64.c:77:16
	ldr	r0, [sp, #12]
	subs	r0, #1
	str	r0, [sp, #12]
.Ltmp97:
	.loc	17 73 5                         @ ../Middlewares/CMSIS/DSP/Src/DistanceFunctions/arm_euclidean_distance_f64.c:73:5
	b	.LBB15_1
.LBB15_3:
	.loc	17 79 16                        @ ../Middlewares/CMSIS/DSP/Src/DistanceFunctions/arm_euclidean_distance_f64.c:79:16
	vldr	d0, [sp, #24]
	.loc	17 79 11 is_stmt 0              @ ../Middlewares/CMSIS/DSP/Src/DistanceFunctions/arm_euclidean_distance_f64.c:79:11
	bl	__hardfp_sqrt
	.loc	17 79 9                         @ ../Middlewares/CMSIS/DSP/Src/DistanceFunctions/arm_euclidean_distance_f64.c:79:9
	vstr	d0, [sp, #16]
	.loc	17 80 12 is_stmt 1              @ ../Middlewares/CMSIS/DSP/Src/DistanceFunctions/arm_euclidean_distance_f64.c:80:12
	vldr	d0, [sp, #16]
	.loc	17 80 5 is_stmt 0               @ ../Middlewares/CMSIS/DSP/Src/DistanceFunctions/arm_euclidean_distance_f64.c:80:5
	add	sp, #48
	pop	{r7, pc}
.Ltmp98:
.Lfunc_end15:
	.size	arm_euclidean_distance_f64, .Lfunc_end15-arm_euclidean_distance_f64
	.cfi_endproc
	.cantunwind
	.fnend
                                        @ -- End function
	.section	.text.arm_hamming_distance,"ax",%progbits
	.hidden	arm_hamming_distance            @ -- Begin function arm_hamming_distance
	.globl	arm_hamming_distance
	.p2align	2
	.type	arm_hamming_distance,%function
	.code	16                              @ @arm_hamming_distance
	.thumb_func
arm_hamming_distance:
.Lfunc_begin16:
	.file	18 "D:\\horizon\\Horizon_Infantry (2)\\MDK-ARM" "../Middlewares/CMSIS/DSP/Src/DistanceFunctions/arm_hamming_distance.c"
	.loc	18 59 0 is_stmt 1               @ ../Middlewares/CMSIS/DSP/Src/DistanceFunctions/arm_hamming_distance.c:59:0
	.fnstart
	.cfi_startproc
@ %bb.0:
	.save	{r7, lr}
	push	{r7, lr}
	.cfi_def_cfa_offset 8
	.cfi_offset lr, -4
	.cfi_offset r7, -8
	.pad	#40
	sub	sp, #40
	.cfi_def_cfa_offset 48
	str	r0, [sp, #36]
	str	r1, [sp, #32]
	str	r2, [sp, #28]
	movs	r0, #0
.Ltmp99:
	.loc	18 60 14 prologue_end           @ ../Middlewares/CMSIS/DSP/Src/DistanceFunctions/arm_hamming_distance.c:60:14
	str	r0, [sp, #24]
	.loc	18 60 20 is_stmt 0              @ ../Middlewares/CMSIS/DSP/Src/DistanceFunctions/arm_hamming_distance.c:60:20
	str	r0, [sp, #20]
	.loc	18 62 32 is_stmt 1              @ ../Middlewares/CMSIS/DSP/Src/DistanceFunctions/arm_hamming_distance.c:62:32
	ldr	r0, [sp, #36]
	.loc	18 62 36 is_stmt 0              @ ../Middlewares/CMSIS/DSP/Src/DistanceFunctions/arm_hamming_distance.c:62:36
	ldr	r1, [sp, #32]
	.loc	18 62 40                        @ ../Middlewares/CMSIS/DSP/Src/DistanceFunctions/arm_hamming_distance.c:62:40
	ldr	r2, [sp, #28]
	.loc	18 62 5                         @ ../Middlewares/CMSIS/DSP/Src/DistanceFunctions/arm_hamming_distance.c:62:5
	mov	r12, sp
	add	r3, sp, #20
	str.w	r3, [r12]
	add	r3, sp, #24
	bl	arm_boolean_distance_TF_FT
	.loc	18 64 17 is_stmt 1              @ ../Middlewares/CMSIS/DSP/Src/DistanceFunctions/arm_hamming_distance.c:64:17
	ldr	r0, [sp, #24]
	.loc	18 64 23 is_stmt 0              @ ../Middlewares/CMSIS/DSP/Src/DistanceFunctions/arm_hamming_distance.c:64:23
	ldr	r1, [sp, #20]
	.loc	18 64 21                        @ ../Middlewares/CMSIS/DSP/Src/DistanceFunctions/arm_hamming_distance.c:64:21
	add	r0, r1
	.loc	18 64 16                        @ ../Middlewares/CMSIS/DSP/Src/DistanceFunctions/arm_hamming_distance.c:64:16
	bl	__aeabi_ui2d
	vmov	d0, r0, r1
	vstr	d0, [sp, #8]                    @ 8-byte Spill
	.loc	18 64 30                        @ ../Middlewares/CMSIS/DSP/Src/DistanceFunctions/arm_hamming_distance.c:64:30
	ldr	r0, [sp, #28]
	bl	__aeabi_ui2d
	vldr	d1, [sp, #8]                    @ 8-byte Reload
	vmov	d0, r0, r1
	.loc	18 64 28                        @ ../Middlewares/CMSIS/DSP/Src/DistanceFunctions/arm_hamming_distance.c:64:28
	vmov	r0, r1, d1
	vmov	r2, r3, d0
	bl	__aeabi_ddiv
	vmov	d0, r0, r1
	.loc	18 64 11                        @ ../Middlewares/CMSIS/DSP/Src/DistanceFunctions/arm_hamming_distance.c:64:11
	vmov	r0, r1, d0
	bl	__aeabi_d2f
	vmov	s0, r0
	.loc	18 64 5                         @ ../Middlewares/CMSIS/DSP/Src/DistanceFunctions/arm_hamming_distance.c:64:5
	add	sp, #40
	pop	{r7, pc}
.Ltmp100:
.Lfunc_end16:
	.size	arm_hamming_distance, .Lfunc_end16-arm_hamming_distance
	.cfi_endproc
	.cantunwind
	.fnend
                                        @ -- End function
	.section	.text.arm_jaccard_distance,"ax",%progbits
	.hidden	arm_jaccard_distance            @ -- Begin function arm_jaccard_distance
	.globl	arm_jaccard_distance
	.p2align	2
	.type	arm_jaccard_distance,%function
	.code	16                              @ @arm_jaccard_distance
	.thumb_func
arm_jaccard_distance:
.Lfunc_begin17:
	.file	19 "D:\\horizon\\Horizon_Infantry (2)\\MDK-ARM" "../Middlewares/CMSIS/DSP/Src/DistanceFunctions/arm_jaccard_distance.c"
	.loc	19 61 0 is_stmt 1               @ ../Middlewares/CMSIS/DSP/Src/DistanceFunctions/arm_jaccard_distance.c:61:0
	.fnstart
	.cfi_startproc
@ %bb.0:
	.save	{r7, lr}
	push	{r7, lr}
	.cfi_def_cfa_offset 8
	.cfi_offset lr, -4
	.cfi_offset r7, -8
	.pad	#48
	sub	sp, #48
	.cfi_def_cfa_offset 56
	str	r0, [sp, #44]
	str	r1, [sp, #40]
	str	r2, [sp, #36]
	movs	r0, #0
.Ltmp101:
	.loc	19 62 14 prologue_end           @ ../Middlewares/CMSIS/DSP/Src/DistanceFunctions/arm_jaccard_distance.c:62:14
	str	r0, [sp, #32]
	.loc	19 62 20 is_stmt 0              @ ../Middlewares/CMSIS/DSP/Src/DistanceFunctions/arm_jaccard_distance.c:62:20
	str	r0, [sp, #28]
	.loc	19 62 26                        @ ../Middlewares/CMSIS/DSP/Src/DistanceFunctions/arm_jaccard_distance.c:62:26
	str	r0, [sp, #24]
	.loc	19 64 35 is_stmt 1              @ ../Middlewares/CMSIS/DSP/Src/DistanceFunctions/arm_jaccard_distance.c:64:35
	ldr	r0, [sp, #44]
	.loc	19 64 39 is_stmt 0              @ ../Middlewares/CMSIS/DSP/Src/DistanceFunctions/arm_jaccard_distance.c:64:39
	ldr	r1, [sp, #40]
	.loc	19 64 43                        @ ../Middlewares/CMSIS/DSP/Src/DistanceFunctions/arm_jaccard_distance.c:64:43
	ldr	r2, [sp, #36]
	.loc	19 64 5                         @ ../Middlewares/CMSIS/DSP/Src/DistanceFunctions/arm_jaccard_distance.c:64:5
	mov	r12, sp
	add	r3, sp, #24
	str.w	r3, [r12, #4]
	add	r3, sp, #28
	str.w	r3, [r12]
	add	r3, sp, #32
	bl	arm_boolean_distance_TT_TF_FT
	.loc	19 66 17 is_stmt 1              @ ../Middlewares/CMSIS/DSP/Src/DistanceFunctions/arm_jaccard_distance.c:66:17
	ldr	r0, [sp, #28]
	.loc	19 66 23 is_stmt 0              @ ../Middlewares/CMSIS/DSP/Src/DistanceFunctions/arm_jaccard_distance.c:66:23
	str	r0, [sp, #12]                   @ 4-byte Spill
	ldr	r1, [sp, #24]
	.loc	19 66 21                        @ ../Middlewares/CMSIS/DSP/Src/DistanceFunctions/arm_jaccard_distance.c:66:21
	str	r1, [sp, #8]                    @ 4-byte Spill
	add	r0, r1
	.loc	19 66 16                        @ ../Middlewares/CMSIS/DSP/Src/DistanceFunctions/arm_jaccard_distance.c:66:16
	bl	__aeabi_ui2d
	ldr	r2, [sp, #8]                    @ 4-byte Reload
	mov	r3, r1
	ldr	r1, [sp, #12]                   @ 4-byte Reload
	vmov	d0, r0, r3
	vstr	d0, [sp, #16]                   @ 8-byte Spill
	.loc	19 66 31                        @ ../Middlewares/CMSIS/DSP/Src/DistanceFunctions/arm_jaccard_distance.c:66:31
	ldr	r0, [sp, #32]
	.loc	19 66 35                        @ ../Middlewares/CMSIS/DSP/Src/DistanceFunctions/arm_jaccard_distance.c:66:35
	add	r0, r2
	.loc	19 66 41                        @ ../Middlewares/CMSIS/DSP/Src/DistanceFunctions/arm_jaccard_distance.c:66:41
	add	r0, r1
	.loc	19 66 30                        @ ../Middlewares/CMSIS/DSP/Src/DistanceFunctions/arm_jaccard_distance.c:66:30
	bl	__aeabi_ui2d
	vldr	d1, [sp, #16]                   @ 8-byte Reload
	vmov	d0, r0, r1
	.loc	19 66 28                        @ ../Middlewares/CMSIS/DSP/Src/DistanceFunctions/arm_jaccard_distance.c:66:28
	vmov	r0, r1, d1
	vmov	r2, r3, d0
	bl	__aeabi_ddiv
	vmov	d0, r0, r1
	.loc	19 66 11                        @ ../Middlewares/CMSIS/DSP/Src/DistanceFunctions/arm_jaccard_distance.c:66:11
	vmov	r0, r1, d0
	bl	__aeabi_d2f
	vmov	s0, r0
	.loc	19 66 5                         @ ../Middlewares/CMSIS/DSP/Src/DistanceFunctions/arm_jaccard_distance.c:66:5
	add	sp, #48
	pop	{r7, pc}
.Ltmp102:
.Lfunc_end17:
	.size	arm_jaccard_distance, .Lfunc_end17-arm_jaccard_distance
	.cfi_endproc
	.cantunwind
	.fnend
                                        @ -- End function
	.section	.text.arm_jensenshannon_distance_f32,"ax",%progbits
	.hidden	arm_jensenshannon_distance_f32  @ -- Begin function arm_jensenshannon_distance_f32
	.globl	arm_jensenshannon_distance_f32
	.p2align	2
	.type	arm_jensenshannon_distance_f32,%function
	.code	16                              @ @arm_jensenshannon_distance_f32
	.thumb_func
arm_jensenshannon_distance_f32:
.Lfunc_begin18:
	.file	20 "D:\\horizon\\Horizon_Infantry (2)\\MDK-ARM" "../Middlewares/CMSIS/DSP/Src/DistanceFunctions/arm_jensenshannon_distance_f32.c"
	.loc	20 222 0 is_stmt 1              @ ../Middlewares/CMSIS/DSP/Src/DistanceFunctions/arm_jensenshannon_distance_f32.c:222:0
	.fnstart
	.cfi_startproc
@ %bb.0:
	.save	{r7, lr}
	push	{r7, lr}
	.cfi_def_cfa_offset 8
	.cfi_offset lr, -4
	.cfi_offset r7, -8
	.pad	#48
	sub	sp, #48
	.cfi_def_cfa_offset 56
	str	r0, [sp, #32]
	str	r1, [sp, #28]
	str	r2, [sp, #24]
	movs	r0, #0
.Ltmp103:
	.loc	20 226 10 prologue_end          @ ../Middlewares/CMSIS/DSP/Src/DistanceFunctions/arm_jensenshannon_distance_f32.c:226:10
	str	r0, [sp, #20]
	.loc	20 227 11                       @ ../Middlewares/CMSIS/DSP/Src/DistanceFunctions/arm_jensenshannon_distance_f32.c:227:11
	str	r0, [sp, #16]
.Ltmp104:
	.loc	20 228 10                       @ ../Middlewares/CMSIS/DSP/Src/DistanceFunctions/arm_jensenshannon_distance_f32.c:228:10
	str	r0, [sp]
	.loc	20 228 9 is_stmt 0              @ ../Middlewares/CMSIS/DSP/Src/DistanceFunctions/arm_jensenshannon_distance_f32.c:228:9
	b	.LBB18_1
.LBB18_1:                               @ =>This Inner Loop Header: Depth=1
.Ltmp105:
	.loc	20 228 14                       @ ../Middlewares/CMSIS/DSP/Src/DistanceFunctions/arm_jensenshannon_distance_f32.c:228:14
	ldr	r0, [sp]
	.loc	20 228 18                       @ ../Middlewares/CMSIS/DSP/Src/DistanceFunctions/arm_jensenshannon_distance_f32.c:228:18
	ldr	r1, [sp, #24]
.Ltmp106:
	.loc	20 228 5                        @ ../Middlewares/CMSIS/DSP/Src/DistanceFunctions/arm_jensenshannon_distance_f32.c:228:5
	cmp	r0, r1
	bhs	.LBB18_4
	b	.LBB18_2
.LBB18_2:                               @   in Loop: Header=BB18_1 Depth=1
.Ltmp107:
	.loc	20 230 14 is_stmt 1             @ ../Middlewares/CMSIS/DSP/Src/DistanceFunctions/arm_jensenshannon_distance_f32.c:230:14
	ldr	r0, [sp, #32]
	.loc	20 230 17 is_stmt 0             @ ../Middlewares/CMSIS/DSP/Src/DistanceFunctions/arm_jensenshannon_distance_f32.c:230:17
	ldr	r1, [sp]
	.loc	20 230 14                       @ ../Middlewares/CMSIS/DSP/Src/DistanceFunctions/arm_jensenshannon_distance_f32.c:230:14
	add.w	r0, r0, r1, lsl #2
	vldr	s0, [r0]
	.loc	20 230 22                       @ ../Middlewares/CMSIS/DSP/Src/DistanceFunctions/arm_jensenshannon_distance_f32.c:230:22
	ldr	r0, [sp, #28]
	add.w	r0, r0, r1, lsl #2
	vldr	s2, [r0]
	.loc	20 230 20                       @ ../Middlewares/CMSIS/DSP/Src/DistanceFunctions/arm_jensenshannon_distance_f32.c:230:20
	vadd.f32	s0, s0, s2
	vmov.f32	s2, #2.000000e+00
	.loc	20 230 29                       @ ../Middlewares/CMSIS/DSP/Src/DistanceFunctions/arm_jensenshannon_distance_f32.c:230:29
	vdiv.f32	s0, s0, s2
	.loc	20 230 11                       @ ../Middlewares/CMSIS/DSP/Src/DistanceFunctions/arm_jensenshannon_distance_f32.c:230:11
	vstr	s0, [sp, #4]
	.loc	20 231 24 is_stmt 1             @ ../Middlewares/CMSIS/DSP/Src/DistanceFunctions/arm_jensenshannon_distance_f32.c:231:24
	ldr	r0, [sp, #32]
	.loc	20 231 27 is_stmt 0             @ ../Middlewares/CMSIS/DSP/Src/DistanceFunctions/arm_jensenshannon_distance_f32.c:231:27
	ldr	r1, [sp]
	.loc	20 231 24                       @ ../Middlewares/CMSIS/DSP/Src/DistanceFunctions/arm_jensenshannon_distance_f32.c:231:24
	add.w	r0, r0, r1, lsl #2
	vldr	s0, [r0]
	.loc	20 231 31                       @ ../Middlewares/CMSIS/DSP/Src/DistanceFunctions/arm_jensenshannon_distance_f32.c:231:31
	vldr	s1, [sp, #4]
	.loc	20 231 15                       @ ../Middlewares/CMSIS/DSP/Src/DistanceFunctions/arm_jensenshannon_distance_f32.c:231:15
	bl	rel_entr
	vmov.f32	s2, s0
	.loc	20 231 12                       @ ../Middlewares/CMSIS/DSP/Src/DistanceFunctions/arm_jensenshannon_distance_f32.c:231:12
	vldr	s0, [sp, #20]
	vadd.f32	s0, s0, s2
	vstr	s0, [sp, #20]
	.loc	20 232 25 is_stmt 1             @ ../Middlewares/CMSIS/DSP/Src/DistanceFunctions/arm_jensenshannon_distance_f32.c:232:25
	ldr	r0, [sp, #28]
	.loc	20 232 28 is_stmt 0             @ ../Middlewares/CMSIS/DSP/Src/DistanceFunctions/arm_jensenshannon_distance_f32.c:232:28
	ldr	r1, [sp]
	.loc	20 232 25                       @ ../Middlewares/CMSIS/DSP/Src/DistanceFunctions/arm_jensenshannon_distance_f32.c:232:25
	add.w	r0, r0, r1, lsl #2
	vldr	s0, [r0]
	.loc	20 232 32                       @ ../Middlewares/CMSIS/DSP/Src/DistanceFunctions/arm_jensenshannon_distance_f32.c:232:32
	vldr	s1, [sp, #4]
	.loc	20 232 16                       @ ../Middlewares/CMSIS/DSP/Src/DistanceFunctions/arm_jensenshannon_distance_f32.c:232:16
	bl	rel_entr
	vmov.f32	s2, s0
	.loc	20 232 13                       @ ../Middlewares/CMSIS/DSP/Src/DistanceFunctions/arm_jensenshannon_distance_f32.c:232:13
	vldr	s0, [sp, #16]
	vadd.f32	s0, s0, s2
	vstr	s0, [sp, #16]
	.loc	20 233 5 is_stmt 1              @ ../Middlewares/CMSIS/DSP/Src/DistanceFunctions/arm_jensenshannon_distance_f32.c:233:5
	b	.LBB18_3
.Ltmp108:
.LBB18_3:                               @   in Loop: Header=BB18_1 Depth=1
	.loc	20 228 30                       @ ../Middlewares/CMSIS/DSP/Src/DistanceFunctions/arm_jensenshannon_distance_f32.c:228:30
	ldr	r0, [sp]
	adds	r0, #1
	str	r0, [sp]
	.loc	20 228 5 is_stmt 0              @ ../Middlewares/CMSIS/DSP/Src/DistanceFunctions/arm_jensenshannon_distance_f32.c:228:5
	b	.LBB18_1
.Ltmp109:
.LBB18_4:
	.loc	20 236 11 is_stmt 1             @ ../Middlewares/CMSIS/DSP/Src/DistanceFunctions/arm_jensenshannon_distance_f32.c:236:11
	vldr	s0, [sp, #20]
	.loc	20 236 18 is_stmt 0             @ ../Middlewares/CMSIS/DSP/Src/DistanceFunctions/arm_jensenshannon_distance_f32.c:236:18
	vldr	s2, [sp, #16]
	.loc	20 236 16                       @ ../Middlewares/CMSIS/DSP/Src/DistanceFunctions/arm_jensenshannon_distance_f32.c:236:16
	vadd.f32	s0, s0, s2
	.loc	20 236 9                        @ ../Middlewares/CMSIS/DSP/Src/DistanceFunctions/arm_jensenshannon_distance_f32.c:236:9
	vstr	s0, [sp, #12]
	.loc	20 237 18 is_stmt 1             @ ../Middlewares/CMSIS/DSP/Src/DistanceFunctions/arm_jensenshannon_distance_f32.c:237:18
	vldr	s0, [sp, #12]
	vmov.f32	s2, #2.000000e+00
	.loc	20 237 21 is_stmt 0             @ ../Middlewares/CMSIS/DSP/Src/DistanceFunctions/arm_jensenshannon_distance_f32.c:237:21
	vdiv.f32	s0, s0, s2
	vstr	s0, [sp, #40]
	add	r0, sp, #8
	str	r0, [sp, #36]
.Ltmp110:
	.loc	12 244 9 is_stmt 1              @ ../Middlewares/CMSIS/DSP/Inc\dsp/fast_math_functions.h:244:9
	vldr	s0, [sp, #40]
.Ltmp111:
	.loc	12 244 9 is_stmt 0              @ ../Middlewares/CMSIS/DSP/Inc\dsp/fast_math_functions.h:244:9
	vcmp.f32	s0, #0
	vmrs	APSR_nzcv, fpscr
	blt	.LBB18_6
	b	.LBB18_5
.LBB18_5:
.Ltmp112:
	.loc	12 261 22 is_stmt 1             @ ../Middlewares/CMSIS/DSP/Inc\dsp/fast_math_functions.h:261:22
	vldr	s0, [sp, #40]
	.loc	12 261 15 is_stmt 0             @ ../Middlewares/CMSIS/DSP/Inc\dsp/fast_math_functions.h:261:15
	bl	_sqrtf
	.loc	12 261 8                        @ ../Middlewares/CMSIS/DSP/Inc\dsp/fast_math_functions.h:261:8
	ldr	r0, [sp, #36]
	.loc	12 261 13                       @ ../Middlewares/CMSIS/DSP/Inc\dsp/fast_math_functions.h:261:13
	vstr	s0, [r0]
	movs	r0, #0
	.loc	12 274 7 is_stmt 1              @ ../Middlewares/CMSIS/DSP/Inc\dsp/fast_math_functions.h:274:7
	strb.w	r0, [sp, #47]
	b	.LBB18_7
.Ltmp113:
.LBB18_6:
	.loc	12 278 8                        @ ../Middlewares/CMSIS/DSP/Inc\dsp/fast_math_functions.h:278:8
	ldr	r1, [sp, #36]
	movs	r0, #0
	.loc	12 278 13 is_stmt 0             @ ../Middlewares/CMSIS/DSP/Inc\dsp/fast_math_functions.h:278:13
	str	r0, [r1]
	movs	r0, #255
	.loc	12 279 7 is_stmt 1              @ ../Middlewares/CMSIS/DSP/Inc\dsp/fast_math_functions.h:279:7
	strb.w	r0, [sp, #47]
	b	.LBB18_7
.Ltmp114:
.LBB18_7:                               @ %arm_sqrt_f32.exit
	.loc	20 238 12                       @ ../Middlewares/CMSIS/DSP/Src/DistanceFunctions/arm_jensenshannon_distance_f32.c:238:12
	vldr	s0, [sp, #8]
	.loc	20 238 5 is_stmt 0              @ ../Middlewares/CMSIS/DSP/Src/DistanceFunctions/arm_jensenshannon_distance_f32.c:238:5
	add	sp, #48
	pop	{r7, pc}
.Ltmp115:
.Lfunc_end18:
	.size	arm_jensenshannon_distance_f32, .Lfunc_end18-arm_jensenshannon_distance_f32
	.cfi_endproc
	.cantunwind
	.fnend
                                        @ -- End function
	.section	.text.rel_entr,"ax",%progbits
	.p2align	2                               @ -- Begin function rel_entr
	.type	rel_entr,%function
	.code	16                              @ @rel_entr
	.thumb_func
rel_entr:
.Lfunc_begin19:
	.loc	20 43 0 is_stmt 1               @ ../Middlewares/CMSIS/DSP/Src/DistanceFunctions/arm_jensenshannon_distance_f32.c:43:0
	.fnstart
	.cfi_startproc
@ %bb.0:
	.save	{r7, lr}
	push	{r7, lr}
	.cfi_def_cfa_offset 8
	.cfi_offset lr, -4
	.cfi_offset r7, -8
	.pad	#16
	sub	sp, #16
	.cfi_def_cfa_offset 24
	vstr	s0, [sp, #12]
	vstr	s1, [sp, #8]
.Ltmp116:
	.loc	20 44 13 prologue_end           @ ../Middlewares/CMSIS/DSP/Src/DistanceFunctions/arm_jensenshannon_distance_f32.c:44:13
	vldr	s0, [sp, #12]
	vstr	s0, [sp, #4]                    @ 4-byte Spill
	.loc	20 44 26 is_stmt 0              @ ../Middlewares/CMSIS/DSP/Src/DistanceFunctions/arm_jensenshannon_distance_f32.c:44:26
	vldr	s2, [sp, #8]
	.loc	20 44 24                        @ ../Middlewares/CMSIS/DSP/Src/DistanceFunctions/arm_jensenshannon_distance_f32.c:44:24
	vdiv.f32	s0, s0, s2
	.loc	20 44 17                        @ ../Middlewares/CMSIS/DSP/Src/DistanceFunctions/arm_jensenshannon_distance_f32.c:44:17
	bl	__hardfp_logf
	vmov.f32	s2, s0
	.loc	20 44 15                        @ ../Middlewares/CMSIS/DSP/Src/DistanceFunctions/arm_jensenshannon_distance_f32.c:44:15
	vldr	s0, [sp, #4]                    @ 4-byte Reload
	vmul.f32	s0, s0, s2
	.loc	20 44 5                         @ ../Middlewares/CMSIS/DSP/Src/DistanceFunctions/arm_jensenshannon_distance_f32.c:44:5
	add	sp, #16
	pop	{r7, pc}
.Ltmp117:
.Lfunc_end19:
	.size	rel_entr, .Lfunc_end19-rel_entr
	.cfi_endproc
	.cantunwind
	.fnend
                                        @ -- End function
	.section	.text.arm_kulsinski_distance,"ax",%progbits
	.hidden	arm_kulsinski_distance          @ -- Begin function arm_kulsinski_distance
	.globl	arm_kulsinski_distance
	.p2align	2
	.type	arm_kulsinski_distance,%function
	.code	16                              @ @arm_kulsinski_distance
	.thumb_func
arm_kulsinski_distance:
.Lfunc_begin20:
	.file	21 "D:\\horizon\\Horizon_Infantry (2)\\MDK-ARM" "../Middlewares/CMSIS/DSP/Src/DistanceFunctions/arm_kulsinski_distance.c"
	.loc	21 62 0 is_stmt 1               @ ../Middlewares/CMSIS/DSP/Src/DistanceFunctions/arm_kulsinski_distance.c:62:0
	.fnstart
	.cfi_startproc
@ %bb.0:
	.save	{r7, lr}
	push	{r7, lr}
	.cfi_def_cfa_offset 8
	.cfi_offset lr, -4
	.cfi_offset r7, -8
	.pad	#48
	sub	sp, #48
	.cfi_def_cfa_offset 56
	str	r0, [sp, #44]
	str	r1, [sp, #40]
	str	r2, [sp, #36]
	movs	r0, #0
.Ltmp118:
	.loc	21 63 14 prologue_end           @ ../Middlewares/CMSIS/DSP/Src/DistanceFunctions/arm_kulsinski_distance.c:63:14
	str	r0, [sp, #32]
	.loc	21 63 20 is_stmt 0              @ ../Middlewares/CMSIS/DSP/Src/DistanceFunctions/arm_kulsinski_distance.c:63:20
	str	r0, [sp, #28]
	.loc	21 63 26                        @ ../Middlewares/CMSIS/DSP/Src/DistanceFunctions/arm_kulsinski_distance.c:63:26
	str	r0, [sp, #24]
	.loc	21 65 35 is_stmt 1              @ ../Middlewares/CMSIS/DSP/Src/DistanceFunctions/arm_kulsinski_distance.c:65:35
	ldr	r0, [sp, #44]
	.loc	21 65 39 is_stmt 0              @ ../Middlewares/CMSIS/DSP/Src/DistanceFunctions/arm_kulsinski_distance.c:65:39
	ldr	r1, [sp, #40]
	.loc	21 65 43                        @ ../Middlewares/CMSIS/DSP/Src/DistanceFunctions/arm_kulsinski_distance.c:65:43
	ldr	r2, [sp, #36]
	.loc	21 65 5                         @ ../Middlewares/CMSIS/DSP/Src/DistanceFunctions/arm_kulsinski_distance.c:65:5
	mov	r12, sp
	add	r3, sp, #24
	str.w	r3, [r12, #4]
	add	r3, sp, #28
	str.w	r3, [r12]
	add	r3, sp, #32
	bl	arm_boolean_distance_TT_TF_FT
	.loc	21 67 17 is_stmt 1              @ ../Middlewares/CMSIS/DSP/Src/DistanceFunctions/arm_kulsinski_distance.c:67:17
	ldr	r0, [sp, #28]
	.loc	21 67 23 is_stmt 0              @ ../Middlewares/CMSIS/DSP/Src/DistanceFunctions/arm_kulsinski_distance.c:67:23
	ldr	r1, [sp, #24]
	.loc	21 67 21                        @ ../Middlewares/CMSIS/DSP/Src/DistanceFunctions/arm_kulsinski_distance.c:67:21
	add	r0, r1
	.loc	21 67 29                        @ ../Middlewares/CMSIS/DSP/Src/DistanceFunctions/arm_kulsinski_distance.c:67:29
	str	r0, [sp, #8]                    @ 4-byte Spill
	ldr	r1, [sp, #32]
	.loc	21 67 27                        @ ../Middlewares/CMSIS/DSP/Src/DistanceFunctions/arm_kulsinski_distance.c:67:27
	subs	r0, r0, r1
	.loc	21 67 35                        @ ../Middlewares/CMSIS/DSP/Src/DistanceFunctions/arm_kulsinski_distance.c:67:35
	ldr	r1, [sp, #36]
	.loc	21 67 33                        @ ../Middlewares/CMSIS/DSP/Src/DistanceFunctions/arm_kulsinski_distance.c:67:33
	str	r1, [sp, #12]                   @ 4-byte Spill
	add	r0, r1
	.loc	21 67 16                        @ ../Middlewares/CMSIS/DSP/Src/DistanceFunctions/arm_kulsinski_distance.c:67:16
	bl	__aeabi_ui2d
	mov	r2, r0
	ldr	r0, [sp, #8]                    @ 4-byte Reload
	mov	r3, r1
	ldr	r1, [sp, #12]                   @ 4-byte Reload
	vmov	d0, r2, r3
	vstr	d0, [sp, #16]                   @ 8-byte Spill
	.loc	21 67 63                        @ ../Middlewares/CMSIS/DSP/Src/DistanceFunctions/arm_kulsinski_distance.c:67:63
	add	r0, r1
	.loc	21 67 52                        @ ../Middlewares/CMSIS/DSP/Src/DistanceFunctions/arm_kulsinski_distance.c:67:52
	bl	__aeabi_ui2d
	vldr	d0, [sp, #16]                   @ 8-byte Reload
	vmov	d1, r0, r1
	.loc	21 67 50                        @ ../Middlewares/CMSIS/DSP/Src/DistanceFunctions/arm_kulsinski_distance.c:67:50
	vmov	r2, r3, d1
	vmov	r0, r1, d0
	bl	__aeabi_ddiv
	vmov	d0, r0, r1
	.loc	21 67 11                        @ ../Middlewares/CMSIS/DSP/Src/DistanceFunctions/arm_kulsinski_distance.c:67:11
	vmov	r0, r1, d0
	bl	__aeabi_d2f
	vmov	s0, r0
	.loc	21 67 5                         @ ../Middlewares/CMSIS/DSP/Src/DistanceFunctions/arm_kulsinski_distance.c:67:5
	add	sp, #48
	pop	{r7, pc}
.Ltmp119:
.Lfunc_end20:
	.size	arm_kulsinski_distance, .Lfunc_end20-arm_kulsinski_distance
	.cfi_endproc
	.cantunwind
	.fnend
                                        @ -- End function
	.section	.text.arm_minkowski_distance_f32,"ax",%progbits
	.hidden	arm_minkowski_distance_f32      @ -- Begin function arm_minkowski_distance_f32
	.globl	arm_minkowski_distance_f32
	.p2align	2
	.type	arm_minkowski_distance_f32,%function
	.code	16                              @ @arm_minkowski_distance_f32
	.thumb_func
arm_minkowski_distance_f32:
.Lfunc_begin21:
	.file	22 "D:\\horizon\\Horizon_Infantry (2)\\MDK-ARM" "../Middlewares/CMSIS/DSP/Src/DistanceFunctions/arm_minkowski_distance_f32.c"
	.loc	22 168 0 is_stmt 1              @ ../Middlewares/CMSIS/DSP/Src/DistanceFunctions/arm_minkowski_distance_f32.c:168:0
	.fnstart
	.cfi_startproc
@ %bb.0:
	.save	{r7, lr}
	push	{r7, lr}
	.cfi_def_cfa_offset 8
	.cfi_offset lr, -4
	.cfi_offset r7, -8
	.pad	#24
	sub	sp, #24
	.cfi_def_cfa_offset 32
	str	r0, [sp, #20]
	str	r1, [sp, #16]
	str	r2, [sp, #12]
	str	r3, [sp, #8]
	movs	r0, #0
.Ltmp120:
	.loc	22 172 9 prologue_end           @ ../Middlewares/CMSIS/DSP/Src/DistanceFunctions/arm_minkowski_distance_f32.c:172:9
	str	r0, [sp, #4]
.Ltmp121:
	.loc	22 173 10                       @ ../Middlewares/CMSIS/DSP/Src/DistanceFunctions/arm_minkowski_distance_f32.c:173:10
	str	r0, [sp]
	.loc	22 173 9 is_stmt 0              @ ../Middlewares/CMSIS/DSP/Src/DistanceFunctions/arm_minkowski_distance_f32.c:173:9
	b	.LBB21_1
.LBB21_1:                               @ =>This Inner Loop Header: Depth=1
.Ltmp122:
	.loc	22 173 14                       @ ../Middlewares/CMSIS/DSP/Src/DistanceFunctions/arm_minkowski_distance_f32.c:173:14
	ldr	r0, [sp]
	.loc	22 173 18                       @ ../Middlewares/CMSIS/DSP/Src/DistanceFunctions/arm_minkowski_distance_f32.c:173:18
	ldr	r1, [sp, #8]
.Ltmp123:
	.loc	22 173 5                        @ ../Middlewares/CMSIS/DSP/Src/DistanceFunctions/arm_minkowski_distance_f32.c:173:5
	cmp	r0, r1
	bhs	.LBB21_4
	b	.LBB21_2
.LBB21_2:                               @   in Loop: Header=BB21_1 Depth=1
.Ltmp124:
	.loc	22 175 26 is_stmt 1             @ ../Middlewares/CMSIS/DSP/Src/DistanceFunctions/arm_minkowski_distance_f32.c:175:26
	ldr	r0, [sp, #20]
	.loc	22 175 29 is_stmt 0             @ ../Middlewares/CMSIS/DSP/Src/DistanceFunctions/arm_minkowski_distance_f32.c:175:29
	ldr	r1, [sp]
	.loc	22 175 26                       @ ../Middlewares/CMSIS/DSP/Src/DistanceFunctions/arm_minkowski_distance_f32.c:175:26
	add.w	r0, r0, r1, lsl #2
	vldr	s0, [r0]
	.loc	22 175 34                       @ ../Middlewares/CMSIS/DSP/Src/DistanceFunctions/arm_minkowski_distance_f32.c:175:34
	ldr	r0, [sp, #16]
	add.w	r0, r0, r1, lsl #2
	vldr	s2, [r0]
	.loc	22 175 32                       @ ../Middlewares/CMSIS/DSP/Src/DistanceFunctions/arm_minkowski_distance_f32.c:175:32
	vsub.f32	s0, s0, s2
	.loc	22 175 20                       @ ../Middlewares/CMSIS/DSP/Src/DistanceFunctions/arm_minkowski_distance_f32.c:175:20
	vabs.f32	s0, s0
	.loc	22 175 41                       @ ../Middlewares/CMSIS/DSP/Src/DistanceFunctions/arm_minkowski_distance_f32.c:175:41
	vldr	s2, [sp, #12]
	vcvt.f32.s32	s1, s2
	.loc	22 175 15                       @ ../Middlewares/CMSIS/DSP/Src/DistanceFunctions/arm_minkowski_distance_f32.c:175:15
	bl	__hardfp_powf
	vmov.f32	s2, s0
	.loc	22 175 12                       @ ../Middlewares/CMSIS/DSP/Src/DistanceFunctions/arm_minkowski_distance_f32.c:175:12
	vldr	s0, [sp, #4]
	vadd.f32	s0, s0, s2
	vstr	s0, [sp, #4]
	.loc	22 176 5 is_stmt 1              @ ../Middlewares/CMSIS/DSP/Src/DistanceFunctions/arm_minkowski_distance_f32.c:176:5
	b	.LBB21_3
.Ltmp125:
.LBB21_3:                               @   in Loop: Header=BB21_1 Depth=1
	.loc	22 173 30                       @ ../Middlewares/CMSIS/DSP/Src/DistanceFunctions/arm_minkowski_distance_f32.c:173:30
	ldr	r0, [sp]
	adds	r0, #1
	str	r0, [sp]
	.loc	22 173 5 is_stmt 0              @ ../Middlewares/CMSIS/DSP/Src/DistanceFunctions/arm_minkowski_distance_f32.c:173:5
	b	.LBB21_1
.Ltmp126:
.LBB21_4:
	.loc	22 179 17 is_stmt 1             @ ../Middlewares/CMSIS/DSP/Src/DistanceFunctions/arm_minkowski_distance_f32.c:179:17
	vldr	s0, [sp, #4]
	.loc	22 179 27 is_stmt 0             @ ../Middlewares/CMSIS/DSP/Src/DistanceFunctions/arm_minkowski_distance_f32.c:179:27
	vldr	s2, [sp, #12]
	vcvt.f32.s32	s4, s2
	vmov.f32	s2, #1.000000e+00
	.loc	22 179 26                       @ ../Middlewares/CMSIS/DSP/Src/DistanceFunctions/arm_minkowski_distance_f32.c:179:26
	vdiv.f32	s1, s2, s4
	.loc	22 179 12                       @ ../Middlewares/CMSIS/DSP/Src/DistanceFunctions/arm_minkowski_distance_f32.c:179:12
	bl	__hardfp_powf
	.loc	22 179 5                        @ ../Middlewares/CMSIS/DSP/Src/DistanceFunctions/arm_minkowski_distance_f32.c:179:5
	add	sp, #24
	pop	{r7, pc}
.Ltmp127:
.Lfunc_end21:
	.size	arm_minkowski_distance_f32, .Lfunc_end21-arm_minkowski_distance_f32
	.cfi_endproc
	.cantunwind
	.fnend
                                        @ -- End function
	.section	.text.arm_rogerstanimoto_distance,"ax",%progbits
	.hidden	arm_rogerstanimoto_distance     @ -- Begin function arm_rogerstanimoto_distance
	.globl	arm_rogerstanimoto_distance
	.p2align	2
	.type	arm_rogerstanimoto_distance,%function
	.code	16                              @ @arm_rogerstanimoto_distance
	.thumb_func
arm_rogerstanimoto_distance:
.Lfunc_begin22:
	.file	23 "D:\\horizon\\Horizon_Infantry (2)\\MDK-ARM" "../Middlewares/CMSIS/DSP/Src/DistanceFunctions/arm_rogerstanimoto_distance.c"
	.loc	23 62 0 is_stmt 1               @ ../Middlewares/CMSIS/DSP/Src/DistanceFunctions/arm_rogerstanimoto_distance.c:62:0
	.fnstart
	.cfi_startproc
@ %bb.0:
	.save	{r7, lr}
	push	{r7, lr}
	.cfi_def_cfa_offset 8
	.cfi_offset lr, -4
	.cfi_offset r7, -8
	.pad	#64
	sub	sp, #64
	.cfi_def_cfa_offset 72
	str	r0, [sp, #60]
	str	r1, [sp, #56]
	str	r2, [sp, #52]
	movs	r0, #0
.Ltmp128:
	.loc	23 63 14 prologue_end           @ ../Middlewares/CMSIS/DSP/Src/DistanceFunctions/arm_rogerstanimoto_distance.c:63:14
	str	r0, [sp, #48]
	.loc	23 63 20 is_stmt 0              @ ../Middlewares/CMSIS/DSP/Src/DistanceFunctions/arm_rogerstanimoto_distance.c:63:20
	str	r0, [sp, #44]
	.loc	23 63 26                        @ ../Middlewares/CMSIS/DSP/Src/DistanceFunctions/arm_rogerstanimoto_distance.c:63:26
	str	r0, [sp, #40]
	.loc	23 63 32                        @ ../Middlewares/CMSIS/DSP/Src/DistanceFunctions/arm_rogerstanimoto_distance.c:63:32
	str	r0, [sp, #36]
	.loc	23 65 38 is_stmt 1              @ ../Middlewares/CMSIS/DSP/Src/DistanceFunctions/arm_rogerstanimoto_distance.c:65:38
	ldr	r0, [sp, #60]
	.loc	23 65 42 is_stmt 0              @ ../Middlewares/CMSIS/DSP/Src/DistanceFunctions/arm_rogerstanimoto_distance.c:65:42
	ldr	r1, [sp, #56]
	.loc	23 65 46                        @ ../Middlewares/CMSIS/DSP/Src/DistanceFunctions/arm_rogerstanimoto_distance.c:65:46
	ldr	r2, [sp, #52]
	.loc	23 65 5                         @ ../Middlewares/CMSIS/DSP/Src/DistanceFunctions/arm_rogerstanimoto_distance.c:65:5
	mov	r12, sp
	add	r3, sp, #36
	str.w	r3, [r12, #8]
	add	r3, sp, #40
	str.w	r3, [r12, #4]
	add	r3, sp, #44
	str.w	r3, [r12]
	add	r3, sp, #48
	bl	arm_boolean_distance_TT_FF_TF_FT
	.loc	23 67 12 is_stmt 1              @ ../Middlewares/CMSIS/DSP/Src/DistanceFunctions/arm_rogerstanimoto_distance.c:67:12
	ldr	r0, [sp, #40]
	.loc	23 67 18 is_stmt 0              @ ../Middlewares/CMSIS/DSP/Src/DistanceFunctions/arm_rogerstanimoto_distance.c:67:18
	ldr	r1, [sp, #36]
	.loc	23 67 16                        @ ../Middlewares/CMSIS/DSP/Src/DistanceFunctions/arm_rogerstanimoto_distance.c:67:16
	add	r0, r1
	.loc	23 67 10                        @ ../Middlewares/CMSIS/DSP/Src/DistanceFunctions/arm_rogerstanimoto_distance.c:67:10
	lsls	r0, r0, #1
	.loc	23 67 7                         @ ../Middlewares/CMSIS/DSP/Src/DistanceFunctions/arm_rogerstanimoto_distance.c:67:7
	str	r0, [sp, #32]
	.loc	23 69 16 is_stmt 1              @ ../Middlewares/CMSIS/DSP/Src/DistanceFunctions/arm_rogerstanimoto_distance.c:69:16
	ldr	r0, [sp, #32]
	str	r0, [sp, #16]                   @ 4-byte Spill
	bl	__aeabi_ui2d
	mov	r2, r0
	ldr	r0, [sp, #16]                   @ 4-byte Reload
	str	r2, [sp, #20]                   @ 4-byte Spill
	mov	r2, r1
	ldr	r1, [sp, #20]                   @ 4-byte Reload
	vmov	d0, r1, r2
	vstr	d0, [sp, #24]                   @ 8-byte Spill
	.loc	23 69 25 is_stmt 0              @ ../Middlewares/CMSIS/DSP/Src/DistanceFunctions/arm_rogerstanimoto_distance.c:69:25
	ldr	r1, [sp, #48]
	.loc	23 69 23                        @ ../Middlewares/CMSIS/DSP/Src/DistanceFunctions/arm_rogerstanimoto_distance.c:69:23
	add	r0, r1
	.loc	23 69 31                        @ ../Middlewares/CMSIS/DSP/Src/DistanceFunctions/arm_rogerstanimoto_distance.c:69:31
	ldr	r1, [sp, #44]
	.loc	23 69 29                        @ ../Middlewares/CMSIS/DSP/Src/DistanceFunctions/arm_rogerstanimoto_distance.c:69:29
	add	r0, r1
	.loc	23 69 20                        @ ../Middlewares/CMSIS/DSP/Src/DistanceFunctions/arm_rogerstanimoto_distance.c:69:20
	bl	__aeabi_ui2d
	vldr	d0, [sp, #24]                   @ 8-byte Reload
	vmov	d1, r0, r1
	.loc	23 69 18                        @ ../Middlewares/CMSIS/DSP/Src/DistanceFunctions/arm_rogerstanimoto_distance.c:69:18
	vmov	r2, r3, d1
	vmov	r0, r1, d0
	bl	__aeabi_ddiv
	vmov	d0, r0, r1
	.loc	23 69 11                        @ ../Middlewares/CMSIS/DSP/Src/DistanceFunctions/arm_rogerstanimoto_distance.c:69:11
	vmov	r0, r1, d0
	bl	__aeabi_d2f
	vmov	s0, r0
	.loc	23 69 5                         @ ../Middlewares/CMSIS/DSP/Src/DistanceFunctions/arm_rogerstanimoto_distance.c:69:5
	add	sp, #64
	pop	{r7, pc}
.Ltmp129:
.Lfunc_end22:
	.size	arm_rogerstanimoto_distance, .Lfunc_end22-arm_rogerstanimoto_distance
	.cfi_endproc
	.cantunwind
	.fnend
                                        @ -- End function
	.section	.text.arm_russellrao_distance,"ax",%progbits
	.hidden	arm_russellrao_distance         @ -- Begin function arm_russellrao_distance
	.globl	arm_russellrao_distance
	.p2align	2
	.type	arm_russellrao_distance,%function
	.code	16                              @ @arm_russellrao_distance
	.thumb_func
arm_russellrao_distance:
.Lfunc_begin23:
	.file	24 "D:\\horizon\\Horizon_Infantry (2)\\MDK-ARM" "../Middlewares/CMSIS/DSP/Src/DistanceFunctions/arm_russellrao_distance.c"
	.loc	24 59 0 is_stmt 1               @ ../Middlewares/CMSIS/DSP/Src/DistanceFunctions/arm_russellrao_distance.c:59:0
	.fnstart
	.cfi_startproc
@ %bb.0:
	.save	{r7, lr}
	push	{r7, lr}
	.cfi_def_cfa_offset 8
	.cfi_offset lr, -4
	.cfi_offset r7, -8
	.pad	#16
	sub	sp, #16
	.cfi_def_cfa_offset 24
	str	r0, [sp, #12]
	str	r1, [sp, #8]
	str	r2, [sp, #4]
	movs	r0, #0
.Ltmp130:
	.loc	24 60 14 prologue_end           @ ../Middlewares/CMSIS/DSP/Src/DistanceFunctions/arm_russellrao_distance.c:60:14
	str	r0, [sp]
	.loc	24 63 29                        @ ../Middlewares/CMSIS/DSP/Src/DistanceFunctions/arm_russellrao_distance.c:63:29
	ldr	r0, [sp, #12]
	.loc	24 63 33 is_stmt 0              @ ../Middlewares/CMSIS/DSP/Src/DistanceFunctions/arm_russellrao_distance.c:63:33
	ldr	r1, [sp, #8]
	.loc	24 63 37                        @ ../Middlewares/CMSIS/DSP/Src/DistanceFunctions/arm_russellrao_distance.c:63:37
	ldr	r2, [sp, #4]
	mov	r3, sp
	.loc	24 63 5                         @ ../Middlewares/CMSIS/DSP/Src/DistanceFunctions/arm_russellrao_distance.c:63:5
	bl	arm_boolean_distance_TT
	.loc	24 66 18 is_stmt 1              @ ../Middlewares/CMSIS/DSP/Src/DistanceFunctions/arm_russellrao_distance.c:66:18
	ldr	r0, [sp, #4]
	.loc	24 66 34 is_stmt 0              @ ../Middlewares/CMSIS/DSP/Src/DistanceFunctions/arm_russellrao_distance.c:66:34
	ldr	r1, [sp]
	.loc	24 66 32                        @ ../Middlewares/CMSIS/DSP/Src/DistanceFunctions/arm_russellrao_distance.c:66:32
	subs	r1, r0, r1
	.loc	24 66 17                        @ ../Middlewares/CMSIS/DSP/Src/DistanceFunctions/arm_russellrao_distance.c:66:17
	vmov	s0, r1
	vcvt.f32.u32	s0, s0
	.loc	24 66 42                        @ ../Middlewares/CMSIS/DSP/Src/DistanceFunctions/arm_russellrao_distance.c:66:42
	vmov	s2, r0
	vcvt.f32.u32	s2, s2
	.loc	24 66 39                        @ ../Middlewares/CMSIS/DSP/Src/DistanceFunctions/arm_russellrao_distance.c:66:39
	vdiv.f32	s0, s0, s2
	.loc	24 66 5                         @ ../Middlewares/CMSIS/DSP/Src/DistanceFunctions/arm_russellrao_distance.c:66:5
	add	sp, #16
	pop	{r7, pc}
.Ltmp131:
.Lfunc_end23:
	.size	arm_russellrao_distance, .Lfunc_end23-arm_russellrao_distance
	.cfi_endproc
	.cantunwind
	.fnend
                                        @ -- End function
	.section	.text.arm_sokalmichener_distance,"ax",%progbits
	.hidden	arm_sokalmichener_distance      @ -- Begin function arm_sokalmichener_distance
	.globl	arm_sokalmichener_distance
	.p2align	2
	.type	arm_sokalmichener_distance,%function
	.code	16                              @ @arm_sokalmichener_distance
	.thumb_func
arm_sokalmichener_distance:
.Lfunc_begin24:
	.file	25 "D:\\horizon\\Horizon_Infantry (2)\\MDK-ARM" "../Middlewares/CMSIS/DSP/Src/DistanceFunctions/arm_sokalmichener_distance.c"
	.loc	25 61 0 is_stmt 1               @ ../Middlewares/CMSIS/DSP/Src/DistanceFunctions/arm_sokalmichener_distance.c:61:0
	.fnstart
	.cfi_startproc
@ %bb.0:
	.save	{r7, lr}
	push	{r7, lr}
	.cfi_def_cfa_offset 8
	.cfi_offset lr, -4
	.cfi_offset r7, -8
	.pad	#48
	sub	sp, #48
	.cfi_def_cfa_offset 56
	str	r0, [sp, #44]
	str	r1, [sp, #40]
	str	r2, [sp, #36]
	movs	r0, #0
.Ltmp132:
	.loc	25 62 14 prologue_end           @ ../Middlewares/CMSIS/DSP/Src/DistanceFunctions/arm_sokalmichener_distance.c:62:14
	str	r0, [sp, #32]
	.loc	25 62 20 is_stmt 0              @ ../Middlewares/CMSIS/DSP/Src/DistanceFunctions/arm_sokalmichener_distance.c:62:20
	str	r0, [sp, #28]
	.loc	25 62 26                        @ ../Middlewares/CMSIS/DSP/Src/DistanceFunctions/arm_sokalmichener_distance.c:62:26
	str	r0, [sp, #24]
	.loc	25 62 32                        @ ../Middlewares/CMSIS/DSP/Src/DistanceFunctions/arm_sokalmichener_distance.c:62:32
	str	r0, [sp, #20]
	.loc	25 65 38 is_stmt 1              @ ../Middlewares/CMSIS/DSP/Src/DistanceFunctions/arm_sokalmichener_distance.c:65:38
	ldr	r0, [sp, #44]
	.loc	25 65 42 is_stmt 0              @ ../Middlewares/CMSIS/DSP/Src/DistanceFunctions/arm_sokalmichener_distance.c:65:42
	ldr	r1, [sp, #40]
	.loc	25 65 46                        @ ../Middlewares/CMSIS/DSP/Src/DistanceFunctions/arm_sokalmichener_distance.c:65:46
	ldr	r2, [sp, #36]
	.loc	25 65 5                         @ ../Middlewares/CMSIS/DSP/Src/DistanceFunctions/arm_sokalmichener_distance.c:65:5
	mov	r12, sp
	add	r3, sp, #24
	str.w	r3, [r12, #8]
	add	r3, sp, #20
	str.w	r3, [r12, #4]
	add	r3, sp, #28
	str.w	r3, [r12]
	add	r3, sp, #32
	bl	arm_boolean_distance_TT_FF_TF_FT
	.loc	25 67 13 is_stmt 1              @ ../Middlewares/CMSIS/DSP/Src/DistanceFunctions/arm_sokalmichener_distance.c:67:13
	ldr	r0, [sp, #20]
	.loc	25 67 19 is_stmt 0              @ ../Middlewares/CMSIS/DSP/Src/DistanceFunctions/arm_sokalmichener_distance.c:67:19
	ldr	r1, [sp, #24]
	.loc	25 67 17                        @ ../Middlewares/CMSIS/DSP/Src/DistanceFunctions/arm_sokalmichener_distance.c:67:17
	add	r0, r1
	.loc	25 67 12                        @ ../Middlewares/CMSIS/DSP/Src/DistanceFunctions/arm_sokalmichener_distance.c:67:12
	bl	__aeabi_ui2d
	vmov	d0, r0, r1
	.loc	25 67 11                        @ ../Middlewares/CMSIS/DSP/Src/DistanceFunctions/arm_sokalmichener_distance.c:67:11
	vmov	r2, r3, d0
	mov	r0, r2
	mov	r1, r3
	bl	__aeabi_dadd
	vmov	d0, r0, r1
	.loc	25 67 8                         @ ../Middlewares/CMSIS/DSP/Src/DistanceFunctions/arm_sokalmichener_distance.c:67:8
	vmov	r0, r1, d0
	bl	__aeabi_d2f
	.loc	25 67 6                         @ ../Middlewares/CMSIS/DSP/Src/DistanceFunctions/arm_sokalmichener_distance.c:67:6
	str	r0, [sp, #16]
	.loc	25 68 13 is_stmt 1              @ ../Middlewares/CMSIS/DSP/Src/DistanceFunctions/arm_sokalmichener_distance.c:68:13
	ldr	r0, [sp, #28]
	.loc	25 68 19 is_stmt 0              @ ../Middlewares/CMSIS/DSP/Src/DistanceFunctions/arm_sokalmichener_distance.c:68:19
	ldr	r1, [sp, #32]
	.loc	25 68 17                        @ ../Middlewares/CMSIS/DSP/Src/DistanceFunctions/arm_sokalmichener_distance.c:68:17
	add	r0, r1
	.loc	25 68 12                        @ ../Middlewares/CMSIS/DSP/Src/DistanceFunctions/arm_sokalmichener_distance.c:68:12
	bl	__aeabi_ui2d
	vmov	d0, r0, r1
	.loc	25 68 8                         @ ../Middlewares/CMSIS/DSP/Src/DistanceFunctions/arm_sokalmichener_distance.c:68:8
	vmov	r0, r1, d0
	bl	__aeabi_d2f
	.loc	25 68 6                         @ ../Middlewares/CMSIS/DSP/Src/DistanceFunctions/arm_sokalmichener_distance.c:68:6
	str	r0, [sp, #12]
	.loc	25 70 12 is_stmt 1              @ ../Middlewares/CMSIS/DSP/Src/DistanceFunctions/arm_sokalmichener_distance.c:70:12
	vldr	s0, [sp, #16]
	.loc	25 70 17 is_stmt 0              @ ../Middlewares/CMSIS/DSP/Src/DistanceFunctions/arm_sokalmichener_distance.c:70:17
	vldr	s2, [sp, #12]
	.loc	25 70 18                        @ ../Middlewares/CMSIS/DSP/Src/DistanceFunctions/arm_sokalmichener_distance.c:70:18
	vadd.f32	s2, s2, s0
	.loc	25 70 14                        @ ../Middlewares/CMSIS/DSP/Src/DistanceFunctions/arm_sokalmichener_distance.c:70:14
	vdiv.f32	s0, s0, s2
	.loc	25 70 5                         @ ../Middlewares/CMSIS/DSP/Src/DistanceFunctions/arm_sokalmichener_distance.c:70:5
	add	sp, #48
	pop	{r7, pc}
.Ltmp133:
.Lfunc_end24:
	.size	arm_sokalmichener_distance, .Lfunc_end24-arm_sokalmichener_distance
	.cfi_endproc
	.cantunwind
	.fnend
                                        @ -- End function
	.section	.text.arm_sokalsneath_distance,"ax",%progbits
	.hidden	arm_sokalsneath_distance        @ -- Begin function arm_sokalsneath_distance
	.globl	arm_sokalsneath_distance
	.p2align	2
	.type	arm_sokalsneath_distance,%function
	.code	16                              @ @arm_sokalsneath_distance
	.thumb_func
arm_sokalsneath_distance:
.Lfunc_begin25:
	.file	26 "D:\\horizon\\Horizon_Infantry (2)\\MDK-ARM" "../Middlewares/CMSIS/DSP/Src/DistanceFunctions/arm_sokalsneath_distance.c"
	.loc	26 60 0 is_stmt 1               @ ../Middlewares/CMSIS/DSP/Src/DistanceFunctions/arm_sokalsneath_distance.c:60:0
	.fnstart
	.cfi_startproc
@ %bb.0:
	.save	{r7, lr}
	push	{r7, lr}
	.cfi_def_cfa_offset 8
	.cfi_offset lr, -4
	.cfi_offset r7, -8
	.pad	#40
	sub	sp, #40
	.cfi_def_cfa_offset 48
	str	r0, [sp, #36]
	str	r1, [sp, #32]
	str	r2, [sp, #28]
	movs	r0, #0
.Ltmp134:
	.loc	26 61 14 prologue_end           @ ../Middlewares/CMSIS/DSP/Src/DistanceFunctions/arm_sokalsneath_distance.c:61:14
	str	r0, [sp, #24]
	.loc	26 61 20 is_stmt 0              @ ../Middlewares/CMSIS/DSP/Src/DistanceFunctions/arm_sokalsneath_distance.c:61:20
	str	r0, [sp, #20]
	.loc	26 61 26                        @ ../Middlewares/CMSIS/DSP/Src/DistanceFunctions/arm_sokalsneath_distance.c:61:26
	str	r0, [sp, #16]
	.loc	26 64 35 is_stmt 1              @ ../Middlewares/CMSIS/DSP/Src/DistanceFunctions/arm_sokalsneath_distance.c:64:35
	ldr	r0, [sp, #36]
	.loc	26 64 39 is_stmt 0              @ ../Middlewares/CMSIS/DSP/Src/DistanceFunctions/arm_sokalsneath_distance.c:64:39
	ldr	r1, [sp, #32]
	.loc	26 64 43                        @ ../Middlewares/CMSIS/DSP/Src/DistanceFunctions/arm_sokalsneath_distance.c:64:43
	ldr	r2, [sp, #28]
	.loc	26 64 5                         @ ../Middlewares/CMSIS/DSP/Src/DistanceFunctions/arm_sokalsneath_distance.c:64:5
	mov	r12, sp
	add	r3, sp, #20
	str.w	r3, [r12, #4]
	add	r3, sp, #16
	str.w	r3, [r12]
	add	r3, sp, #24
	bl	arm_boolean_distance_TT_TF_FT
	.loc	26 66 14 is_stmt 1              @ ../Middlewares/CMSIS/DSP/Src/DistanceFunctions/arm_sokalsneath_distance.c:66:14
	ldr	r0, [sp, #16]
	.loc	26 66 20 is_stmt 0              @ ../Middlewares/CMSIS/DSP/Src/DistanceFunctions/arm_sokalsneath_distance.c:66:20
	ldr	r1, [sp, #20]
	.loc	26 66 18                        @ ../Middlewares/CMSIS/DSP/Src/DistanceFunctions/arm_sokalsneath_distance.c:66:18
	add	r0, r1
	.loc	26 66 13                        @ ../Middlewares/CMSIS/DSP/Src/DistanceFunctions/arm_sokalsneath_distance.c:66:13
	bl	__aeabi_ui2d
	vmov	d0, r0, r1
	.loc	26 66 12                        @ ../Middlewares/CMSIS/DSP/Src/DistanceFunctions/arm_sokalsneath_distance.c:66:12
	vmov	r2, r3, d0
	mov	r0, r2
	mov	r1, r3
	bl	__aeabi_dadd
	vmov	d0, r0, r1
	.loc	26 66 9                         @ ../Middlewares/CMSIS/DSP/Src/DistanceFunctions/arm_sokalsneath_distance.c:66:9
	vmov	r0, r1, d0
	bl	__aeabi_d2f
	.loc	26 66 7                         @ ../Middlewares/CMSIS/DSP/Src/DistanceFunctions/arm_sokalsneath_distance.c:66:7
	str	r0, [sp, #12]
	.loc	26 68 12 is_stmt 1              @ ../Middlewares/CMSIS/DSP/Src/DistanceFunctions/arm_sokalsneath_distance.c:68:12
	vldr	s0, [sp, #12]
	.loc	26 68 21 is_stmt 0              @ ../Middlewares/CMSIS/DSP/Src/DistanceFunctions/arm_sokalsneath_distance.c:68:21
	vldr	s2, [sp, #24]
	vcvt.f32.u32	s2, s2
	.loc	26 68 19                        @ ../Middlewares/CMSIS/DSP/Src/DistanceFunctions/arm_sokalsneath_distance.c:68:19
	vadd.f32	s2, s0, s2
	.loc	26 68 14                        @ ../Middlewares/CMSIS/DSP/Src/DistanceFunctions/arm_sokalsneath_distance.c:68:14
	vdiv.f32	s0, s0, s2
	.loc	26 68 5                         @ ../Middlewares/CMSIS/DSP/Src/DistanceFunctions/arm_sokalsneath_distance.c:68:5
	add	sp, #40
	pop	{r7, pc}
.Ltmp135:
.Lfunc_end25:
	.size	arm_sokalsneath_distance, .Lfunc_end25-arm_sokalsneath_distance
	.cfi_endproc
	.cantunwind
	.fnend
                                        @ -- End function
	.section	.text.arm_yule_distance,"ax",%progbits
	.hidden	arm_yule_distance               @ -- Begin function arm_yule_distance
	.globl	arm_yule_distance
	.p2align	3
	.type	arm_yule_distance,%function
	.code	16                              @ @arm_yule_distance
	.thumb_func
arm_yule_distance:
.Lfunc_begin26:
	.file	27 "D:\\horizon\\Horizon_Infantry (2)\\MDK-ARM" "../Middlewares/CMSIS/DSP/Src/DistanceFunctions/arm_yule_distance.c"
	.loc	27 61 0 is_stmt 1               @ ../Middlewares/CMSIS/DSP/Src/DistanceFunctions/arm_yule_distance.c:61:0
	.fnstart
	.cfi_startproc
@ %bb.0:
	.save	{r7, lr}
	push	{r7, lr}
	.cfi_def_cfa_offset 8
	.cfi_offset lr, -4
	.cfi_offset r7, -8
	.pad	#64
	sub	sp, #64
	.cfi_def_cfa_offset 72
	str	r0, [sp, #60]
	str	r1, [sp, #56]
	str	r2, [sp, #52]
	movs	r0, #0
.Ltmp136:
	.loc	27 62 14 prologue_end           @ ../Middlewares/CMSIS/DSP/Src/DistanceFunctions/arm_yule_distance.c:62:14
	str	r0, [sp, #48]
	.loc	27 62 20 is_stmt 0              @ ../Middlewares/CMSIS/DSP/Src/DistanceFunctions/arm_yule_distance.c:62:20
	str	r0, [sp, #44]
	.loc	27 62 26                        @ ../Middlewares/CMSIS/DSP/Src/DistanceFunctions/arm_yule_distance.c:62:26
	str	r0, [sp, #40]
	.loc	27 62 32                        @ ../Middlewares/CMSIS/DSP/Src/DistanceFunctions/arm_yule_distance.c:62:32
	str	r0, [sp, #36]
	.loc	27 64 38 is_stmt 1              @ ../Middlewares/CMSIS/DSP/Src/DistanceFunctions/arm_yule_distance.c:64:38
	ldr	r0, [sp, #60]
	.loc	27 64 42 is_stmt 0              @ ../Middlewares/CMSIS/DSP/Src/DistanceFunctions/arm_yule_distance.c:64:42
	ldr	r1, [sp, #56]
	.loc	27 64 46                        @ ../Middlewares/CMSIS/DSP/Src/DistanceFunctions/arm_yule_distance.c:64:46
	ldr	r2, [sp, #52]
	.loc	27 64 5                         @ ../Middlewares/CMSIS/DSP/Src/DistanceFunctions/arm_yule_distance.c:64:5
	mov	r12, sp
	add	r3, sp, #36
	str.w	r3, [r12, #8]
	add	r3, sp, #40
	str.w	r3, [r12, #4]
	add	r3, sp, #44
	str.w	r3, [r12]
	add	r3, sp, #48
	bl	arm_boolean_distance_TT_FF_TF_FT
	.loc	27 66 12 is_stmt 1              @ ../Middlewares/CMSIS/DSP/Src/DistanceFunctions/arm_yule_distance.c:66:12
	ldr	r0, [sp, #40]
	.loc	27 66 18 is_stmt 0              @ ../Middlewares/CMSIS/DSP/Src/DistanceFunctions/arm_yule_distance.c:66:18
	ldr	r1, [sp, #36]
	.loc	27 66 16                        @ ../Middlewares/CMSIS/DSP/Src/DistanceFunctions/arm_yule_distance.c:66:16
	muls	r0, r1, r0
	.loc	27 66 10                        @ ../Middlewares/CMSIS/DSP/Src/DistanceFunctions/arm_yule_distance.c:66:10
	lsls	r0, r0, #1
	.loc	27 66 7                         @ ../Middlewares/CMSIS/DSP/Src/DistanceFunctions/arm_yule_distance.c:66:7
	str	r0, [sp, #32]
	.loc	27 68 16 is_stmt 1              @ ../Middlewares/CMSIS/DSP/Src/DistanceFunctions/arm_yule_distance.c:68:16
	ldr	r0, [sp, #32]
	bl	__aeabi_ui2d
	vmov	d0, r0, r1
	vldr	d1, .LCPI26_0
	.loc	27 68 22 is_stmt 0              @ ../Middlewares/CMSIS/DSP/Src/DistanceFunctions/arm_yule_distance.c:68:22
	vmov	r2, r3, d1
	vmov	r0, r1, d0
	str	r1, [sp, #28]                   @ 4-byte Spill
	str	r0, [sp, #24]                   @ 4-byte Spill
	bl	__aeabi_ddiv
	vmov	d0, r0, r1
	vstr	d0, [sp, #16]                   @ 8-byte Spill
	.loc	27 68 29                        @ ../Middlewares/CMSIS/DSP/Src/DistanceFunctions/arm_yule_distance.c:68:29
	ldr	r0, [sp, #48]
	.loc	27 68 35                        @ ../Middlewares/CMSIS/DSP/Src/DistanceFunctions/arm_yule_distance.c:68:35
	ldr	r1, [sp, #44]
	.loc	27 68 33                        @ ../Middlewares/CMSIS/DSP/Src/DistanceFunctions/arm_yule_distance.c:68:33
	muls	r0, r1, r0
	.loc	27 68 29                        @ ../Middlewares/CMSIS/DSP/Src/DistanceFunctions/arm_yule_distance.c:68:29
	bl	__aeabi_ui2d
	vldr	d0, [sp, #16]                   @ 8-byte Reload
	vmov	d1, r0, r1
	.loc	27 68 27                        @ ../Middlewares/CMSIS/DSP/Src/DistanceFunctions/arm_yule_distance.c:68:27
	vmov	r2, r3, d1
	vmov	r0, r1, d0
	bl	__aeabi_dadd
	mov	r2, r0
	ldr	r0, [sp, #24]                   @ 4-byte Reload
	mov	r3, r1
	ldr	r1, [sp, #28]                   @ 4-byte Reload
	vmov	d0, r2, r3
	.loc	27 68 18                        @ ../Middlewares/CMSIS/DSP/Src/DistanceFunctions/arm_yule_distance.c:68:18
	vmov	r2, r3, d0
	bl	__aeabi_ddiv
	vmov	d0, r0, r1
	.loc	27 68 11                        @ ../Middlewares/CMSIS/DSP/Src/DistanceFunctions/arm_yule_distance.c:68:11
	vmov	r0, r1, d0
	bl	__aeabi_d2f
	vmov	s0, r0
	.loc	27 68 5                         @ ../Middlewares/CMSIS/DSP/Src/DistanceFunctions/arm_yule_distance.c:68:5
	add	sp, #64
	pop	{r7, pc}
.Ltmp137:
	.p2align	3
@ %bb.1:
	.loc	27 0 5                          @ ../Middlewares/CMSIS/DSP/Src/DistanceFunctions/arm_yule_distance.c:0:5
.LCPI26_0:
	.long	0                               @ double 2
	.long	1073741824
.Lfunc_end26:
	.size	arm_yule_distance, .Lfunc_end26-arm_yule_distance
	.cfi_endproc
	.cantunwind
	.fnend
                                        @ -- End function
	.section	.text.arm_dtw_distance_f32,"ax",%progbits
	.hidden	arm_dtw_distance_f32            @ -- Begin function arm_dtw_distance_f32
	.globl	arm_dtw_distance_f32
	.p2align	2
	.type	arm_dtw_distance_f32,%function
	.code	16                              @ @arm_dtw_distance_f32
	.thumb_func
arm_dtw_distance_f32:
.Lfunc_begin27:
	.file	28 "D:\\horizon\\Horizon_Infantry (2)\\MDK-ARM" "../Middlewares/CMSIS/DSP/Src/DistanceFunctions/arm_dtw_distance_f32.c"
	.loc	28 90 0 is_stmt 1               @ ../Middlewares/CMSIS/DSP/Src/DistanceFunctions/arm_dtw_distance_f32.c:90:0
	.fnstart
	.cfi_startproc
@ %bb.0:
	.save	{r4, r5, r7, lr}
	push	{r4, r5, r7, lr}
	.cfi_def_cfa_offset 16
	.cfi_offset lr, -4
	.cfi_offset r7, -8
	.cfi_offset r5, -12
	.cfi_offset r4, -16
	.pad	#76
	sub	sp, #76
	.cfi_def_cfa_offset 92
	str	r0, [sp, #68]
	str	r1, [sp, #64]
	str	r2, [sp, #60]
	str	r3, [sp, #56]
.Ltmp138:
	.loc	28 91 33 prologue_end           @ ../Middlewares/CMSIS/DSP/Src/DistanceFunctions/arm_dtw_distance_f32.c:91:33
	ldr	r0, [sp, #68]
	.loc	28 91 46 is_stmt 0              @ ../Middlewares/CMSIS/DSP/Src/DistanceFunctions/arm_dtw_distance_f32.c:91:46
	ldrh	r0, [r0]
	.loc	28 91 19                        @ ../Middlewares/CMSIS/DSP/Src/DistanceFunctions/arm_dtw_distance_f32.c:91:19
	str	r0, [sp, #52]
	.loc	28 92 36 is_stmt 1              @ ../Middlewares/CMSIS/DSP/Src/DistanceFunctions/arm_dtw_distance_f32.c:92:36
	ldr	r0, [sp, #68]
	.loc	28 92 49 is_stmt 0              @ ../Middlewares/CMSIS/DSP/Src/DistanceFunctions/arm_dtw_distance_f32.c:92:49
	ldrh	r0, [r0, #2]
	.loc	28 92 19                        @ ../Middlewares/CMSIS/DSP/Src/DistanceFunctions/arm_dtw_distance_f32.c:92:19
	str	r0, [sp, #48]
	.loc	28 95 22 is_stmt 1              @ ../Middlewares/CMSIS/DSP/Src/DistanceFunctions/arm_dtw_distance_f32.c:95:22
	ldr	r0, [sp, #60]
	.loc	28 95 28 is_stmt 0              @ ../Middlewares/CMSIS/DSP/Src/DistanceFunctions/arm_dtw_distance_f32.c:95:28
	ldr	r0, [r0, #4]
	.loc	28 95 15                        @ ../Middlewares/CMSIS/DSP/Src/DistanceFunctions/arm_dtw_distance_f32.c:95:15
	str	r0, [sp, #40]
	movs	r0, #0
.Ltmp139:
	.loc	28 96 17 is_stmt 1              @ ../Middlewares/CMSIS/DSP/Src/DistanceFunctions/arm_dtw_distance_f32.c:96:17
	str	r0, [sp, #36]
	.loc	28 96 8 is_stmt 0               @ ../Middlewares/CMSIS/DSP/Src/DistanceFunctions/arm_dtw_distance_f32.c:96:8
	b	.LBB27_1
.LBB27_1:                               @ =>This Loop Header: Depth=1
                                        @     Child Loop BB27_3 Depth 2
.Ltmp140:
	.loc	28 96 23                        @ ../Middlewares/CMSIS/DSP/Src/DistanceFunctions/arm_dtw_distance_f32.c:96:23
	ldr	r0, [sp, #36]
	.loc	28 96 27                        @ ../Middlewares/CMSIS/DSP/Src/DistanceFunctions/arm_dtw_distance_f32.c:96:27
	ldr	r1, [sp, #52]
.Ltmp141:
	.loc	28 96 4                         @ ../Middlewares/CMSIS/DSP/Src/DistanceFunctions/arm_dtw_distance_f32.c:96:4
	cmp	r0, r1
	bhs	.LBB27_8
	b	.LBB27_2
.LBB27_2:                               @   in Loop: Header=BB27_1 Depth=1
	.loc	28 0 4                          @ ../Middlewares/CMSIS/DSP/Src/DistanceFunctions/arm_dtw_distance_f32.c:0:4
	movs	r0, #0
.Ltmp142:
	.loc	28 98 19 is_stmt 1              @ ../Middlewares/CMSIS/DSP/Src/DistanceFunctions/arm_dtw_distance_f32.c:98:19
	str	r0, [sp, #32]
	.loc	28 98 10 is_stmt 0              @ ../Middlewares/CMSIS/DSP/Src/DistanceFunctions/arm_dtw_distance_f32.c:98:10
	b	.LBB27_3
.LBB27_3:                               @   Parent Loop BB27_1 Depth=1
                                        @ =>  This Inner Loop Header: Depth=2
.Ltmp143:
	.loc	28 98 25                        @ ../Middlewares/CMSIS/DSP/Src/DistanceFunctions/arm_dtw_distance_f32.c:98:25
	ldr	r0, [sp, #32]
	.loc	28 98 29                        @ ../Middlewares/CMSIS/DSP/Src/DistanceFunctions/arm_dtw_distance_f32.c:98:29
	ldr	r1, [sp, #48]
.Ltmp144:
	.loc	28 98 6                         @ ../Middlewares/CMSIS/DSP/Src/DistanceFunctions/arm_dtw_distance_f32.c:98:6
	cmp	r0, r1
	bhs	.LBB27_6
	b	.LBB27_4
.LBB27_4:                               @   in Loop: Header=BB27_3 Depth=2
.Ltmp145:
	.loc	28 100 14 is_stmt 1             @ ../Middlewares/CMSIS/DSP/Src/DistanceFunctions/arm_dtw_distance_f32.c:100:14
	ldr	r1, [sp, #40]
	adds	r0, r1, #4
	str	r0, [sp, #40]
	movw	r0, #65535
	movt	r0, #32639
	.loc	28 100 17 is_stmt 0             @ ../Middlewares/CMSIS/DSP/Src/DistanceFunctions/arm_dtw_distance_f32.c:100:17
	str	r0, [r1]
	.loc	28 101 6 is_stmt 1              @ ../Middlewares/CMSIS/DSP/Src/DistanceFunctions/arm_dtw_distance_f32.c:101:6
	b	.LBB27_5
.Ltmp146:
.LBB27_5:                               @   in Loop: Header=BB27_3 Depth=2
	.loc	28 98 46                        @ ../Middlewares/CMSIS/DSP/Src/DistanceFunctions/arm_dtw_distance_f32.c:98:46
	ldr	r0, [sp, #32]
	adds	r0, #1
	str	r0, [sp, #32]
	.loc	28 98 6 is_stmt 0               @ ../Middlewares/CMSIS/DSP/Src/DistanceFunctions/arm_dtw_distance_f32.c:98:6
	b	.LBB27_3
.Ltmp147:
.LBB27_6:                               @   in Loop: Header=BB27_1 Depth=1
	.loc	28 102 4 is_stmt 1              @ ../Middlewares/CMSIS/DSP/Src/DistanceFunctions/arm_dtw_distance_f32.c:102:4
	b	.LBB27_7
.Ltmp148:
.LBB27_7:                               @   in Loop: Header=BB27_1 Depth=1
	.loc	28 96 41                        @ ../Middlewares/CMSIS/DSP/Src/DistanceFunctions/arm_dtw_distance_f32.c:96:41
	ldr	r0, [sp, #36]
	adds	r0, #1
	str	r0, [sp, #36]
	.loc	28 96 4 is_stmt 0               @ ../Middlewares/CMSIS/DSP/Src/DistanceFunctions/arm_dtw_distance_f32.c:96:4
	b	.LBB27_1
.Ltmp149:
.LBB27_8:
	.loc	28 104 25 is_stmt 1             @ ../Middlewares/CMSIS/DSP/Src/DistanceFunctions/arm_dtw_distance_f32.c:104:25
	ldr	r0, [sp, #68]
	.loc	28 104 37 is_stmt 0             @ ../Middlewares/CMSIS/DSP/Src/DistanceFunctions/arm_dtw_distance_f32.c:104:37
	ldr	r0, [r0, #4]
	.loc	28 104 22                       @ ../Middlewares/CMSIS/DSP/Src/DistanceFunctions/arm_dtw_distance_f32.c:104:22
	ldr	r0, [r0]
	.loc	28 104 4                        @ ../Middlewares/CMSIS/DSP/Src/DistanceFunctions/arm_dtw_distance_f32.c:104:4
	ldr	r1, [sp, #60]
	.loc	28 104 10                       @ ../Middlewares/CMSIS/DSP/Src/DistanceFunctions/arm_dtw_distance_f32.c:104:10
	ldr	r1, [r1, #4]
	.loc	28 104 19                       @ ../Middlewares/CMSIS/DSP/Src/DistanceFunctions/arm_dtw_distance_f32.c:104:19
	str	r0, [r1]
	movs	r0, #1
.Ltmp150:
	.loc	28 105 17 is_stmt 1             @ ../Middlewares/CMSIS/DSP/Src/DistanceFunctions/arm_dtw_distance_f32.c:105:17
	str	r0, [sp, #28]
	.loc	28 105 8 is_stmt 0              @ ../Middlewares/CMSIS/DSP/Src/DistanceFunctions/arm_dtw_distance_f32.c:105:8
	b	.LBB27_9
.LBB27_9:                               @ =>This Inner Loop Header: Depth=1
.Ltmp151:
	.loc	28 105 24                       @ ../Middlewares/CMSIS/DSP/Src/DistanceFunctions/arm_dtw_distance_f32.c:105:24
	ldr	r0, [sp, #28]
	.loc	28 105 28                       @ ../Middlewares/CMSIS/DSP/Src/DistanceFunctions/arm_dtw_distance_f32.c:105:28
	ldr	r1, [sp, #52]
.Ltmp152:
	.loc	28 105 4                        @ ../Middlewares/CMSIS/DSP/Src/DistanceFunctions/arm_dtw_distance_f32.c:105:4
	cmp	r0, r1
	bhs	.LBB27_16
	b	.LBB27_10
.LBB27_10:                              @   in Loop: Header=BB27_9 Depth=1
.Ltmp153:
	.loc	28 107 13 is_stmt 1             @ ../Middlewares/CMSIS/DSP/Src/DistanceFunctions/arm_dtw_distance_f32.c:107:13
	ldr	r0, [sp, #64]
.Ltmp154:
	.loc	28 107 10 is_stmt 0             @ ../Middlewares/CMSIS/DSP/Src/DistanceFunctions/arm_dtw_distance_f32.c:107:10
	cbnz	r0, .LBB27_12
	b	.LBB27_11
.LBB27_11:                              @   in Loop: Header=BB27_9 Depth=1
	.loc	28 0 10                         @ ../Middlewares/CMSIS/DSP/Src/DistanceFunctions/arm_dtw_distance_f32.c:0:10
	movs	r0, #1
.Ltmp155:
	.loc	28 107 12                       @ ../Middlewares/CMSIS/DSP/Src/DistanceFunctions/arm_dtw_distance_f32.c:107:12
	cbnz	r0, .LBB27_14
	b	.LBB27_13
.LBB27_12:                              @   in Loop: Header=BB27_9 Depth=1
	.loc	28 107 38                       @ ../Middlewares/CMSIS/DSP/Src/DistanceFunctions/arm_dtw_distance_f32.c:107:38
	ldr	r1, [sp, #64]
	.loc	28 107 48                       @ ../Middlewares/CMSIS/DSP/Src/DistanceFunctions/arm_dtw_distance_f32.c:107:48
	ldr	r0, [r1, #4]
	.loc	28 107 67                       @ ../Middlewares/CMSIS/DSP/Src/DistanceFunctions/arm_dtw_distance_f32.c:107:67
	ldrh	r1, [r1, #2]
	.loc	28 107 76                       @ ../Middlewares/CMSIS/DSP/Src/DistanceFunctions/arm_dtw_distance_f32.c:107:76
	ldr	r2, [sp, #28]
	.loc	28 107 74                       @ ../Middlewares/CMSIS/DSP/Src/DistanceFunctions/arm_dtw_distance_f32.c:107:74
	muls	r1, r2, r1
	.loc	28 107 35                       @ ../Middlewares/CMSIS/DSP/Src/DistanceFunctions/arm_dtw_distance_f32.c:107:35
	ldrsb	r0, [r0, r1]
.Ltmp156:
	.loc	28 107 10                       @ ../Middlewares/CMSIS/DSP/Src/DistanceFunctions/arm_dtw_distance_f32.c:107:10
	cmp	r0, #1
	beq	.LBB27_14
	b	.LBB27_13
.LBB27_13:                              @   in Loop: Header=BB27_9 Depth=1
.Ltmp157:
	.loc	28 109 9 is_stmt 1              @ ../Middlewares/CMSIS/DSP/Src/DistanceFunctions/arm_dtw_distance_f32.c:109:9
	b	.LBB27_15
.Ltmp158:
.LBB27_14:                              @   in Loop: Header=BB27_9 Depth=1
	.loc	28 111 59                       @ ../Middlewares/CMSIS/DSP/Src/DistanceFunctions/arm_dtw_distance_f32.c:111:59
	ldr	r1, [sp, #60]
	.loc	28 111 66 is_stmt 0             @ ../Middlewares/CMSIS/DSP/Src/DistanceFunctions/arm_dtw_distance_f32.c:111:66
	ldr	r0, [r1, #4]
	.loc	28 111 82                       @ ../Middlewares/CMSIS/DSP/Src/DistanceFunctions/arm_dtw_distance_f32.c:111:82
	ldrh	r1, [r1, #2]
	.loc	28 111 91                       @ ../Middlewares/CMSIS/DSP/Src/DistanceFunctions/arm_dtw_distance_f32.c:111:91
	ldr	r2, [sp, #28]
	.loc	28 111 92                       @ ../Middlewares/CMSIS/DSP/Src/DistanceFunctions/arm_dtw_distance_f32.c:111:92
	subs	r3, r2, #1
	.loc	28 111 89                       @ ../Middlewares/CMSIS/DSP/Src/DistanceFunctions/arm_dtw_distance_f32.c:111:89
	muls	r3, r1, r3
	.loc	28 111 72                       @ ../Middlewares/CMSIS/DSP/Src/DistanceFunctions/arm_dtw_distance_f32.c:111:72
	add.w	r3, r0, r3, lsl #2
	.loc	28 111 56                       @ ../Middlewares/CMSIS/DSP/Src/DistanceFunctions/arm_dtw_distance_f32.c:111:56
	vldr	s0, [r3]
	.loc	28 111 110                      @ ../Middlewares/CMSIS/DSP/Src/DistanceFunctions/arm_dtw_distance_f32.c:111:110
	ldr.w	r12, [sp, #68]
	.loc	28 111 122                      @ ../Middlewares/CMSIS/DSP/Src/DistanceFunctions/arm_dtw_distance_f32.c:111:122
	ldr.w	r3, [r12, #4]
	.loc	28 111 143                      @ ../Middlewares/CMSIS/DSP/Src/DistanceFunctions/arm_dtw_distance_f32.c:111:143
	ldrh.w	r12, [r12, #2]
	.loc	28 111 150                      @ ../Middlewares/CMSIS/DSP/Src/DistanceFunctions/arm_dtw_distance_f32.c:111:150
	mul	r12, r12, r2
	.loc	28 111 128                      @ ../Middlewares/CMSIS/DSP/Src/DistanceFunctions/arm_dtw_distance_f32.c:111:128
	add.w	r3, r3, r12, lsl #2
	.loc	28 111 107                      @ ../Middlewares/CMSIS/DSP/Src/DistanceFunctions/arm_dtw_distance_f32.c:111:107
	vldr	s2, [r3]
	.loc	28 111 104                      @ ../Middlewares/CMSIS/DSP/Src/DistanceFunctions/arm_dtw_distance_f32.c:111:104
	vadd.f32	s0, s0, s2
	.loc	28 111 40                       @ ../Middlewares/CMSIS/DSP/Src/DistanceFunctions/arm_dtw_distance_f32.c:111:40
	muls	r1, r2, r1
	.loc	28 111 23                       @ ../Middlewares/CMSIS/DSP/Src/DistanceFunctions/arm_dtw_distance_f32.c:111:23
	add.w	r0, r0, r1, lsl #2
	.loc	28 111 53                       @ ../Middlewares/CMSIS/DSP/Src/DistanceFunctions/arm_dtw_distance_f32.c:111:53
	vstr	s0, [r0]
	.loc	28 112 4 is_stmt 1              @ ../Middlewares/CMSIS/DSP/Src/DistanceFunctions/arm_dtw_distance_f32.c:112:4
	b	.LBB27_15
.Ltmp159:
.LBB27_15:                              @   in Loop: Header=BB27_9 Depth=1
	.loc	28 105 42                       @ ../Middlewares/CMSIS/DSP/Src/DistanceFunctions/arm_dtw_distance_f32.c:105:42
	ldr	r0, [sp, #28]
	adds	r0, #1
	str	r0, [sp, #28]
	.loc	28 105 4 is_stmt 0              @ ../Middlewares/CMSIS/DSP/Src/DistanceFunctions/arm_dtw_distance_f32.c:105:4
	b	.LBB27_9
.Ltmp160:
.LBB27_16:
	.loc	28 0 4                          @ ../Middlewares/CMSIS/DSP/Src/DistanceFunctions/arm_dtw_distance_f32.c:0:4
	movs	r0, #1
.Ltmp161:
	.loc	28 114 17 is_stmt 1             @ ../Middlewares/CMSIS/DSP/Src/DistanceFunctions/arm_dtw_distance_f32.c:114:17
	str	r0, [sp, #24]
	.loc	28 114 8 is_stmt 0              @ ../Middlewares/CMSIS/DSP/Src/DistanceFunctions/arm_dtw_distance_f32.c:114:8
	b	.LBB27_17
.LBB27_17:                              @ =>This Inner Loop Header: Depth=1
.Ltmp162:
	.loc	28 114 24                       @ ../Middlewares/CMSIS/DSP/Src/DistanceFunctions/arm_dtw_distance_f32.c:114:24
	ldr	r0, [sp, #24]
	.loc	28 114 28                       @ ../Middlewares/CMSIS/DSP/Src/DistanceFunctions/arm_dtw_distance_f32.c:114:28
	ldr	r1, [sp, #48]
.Ltmp163:
	.loc	28 114 4                        @ ../Middlewares/CMSIS/DSP/Src/DistanceFunctions/arm_dtw_distance_f32.c:114:4
	cmp	r0, r1
	bhs	.LBB27_24
	b	.LBB27_18
.LBB27_18:                              @   in Loop: Header=BB27_17 Depth=1
.Ltmp164:
	.loc	28 116 13 is_stmt 1             @ ../Middlewares/CMSIS/DSP/Src/DistanceFunctions/arm_dtw_distance_f32.c:116:13
	ldr	r0, [sp, #64]
.Ltmp165:
	.loc	28 116 10 is_stmt 0             @ ../Middlewares/CMSIS/DSP/Src/DistanceFunctions/arm_dtw_distance_f32.c:116:10
	cbnz	r0, .LBB27_20
	b	.LBB27_19
.LBB27_19:                              @   in Loop: Header=BB27_17 Depth=1
	.loc	28 0 10                         @ ../Middlewares/CMSIS/DSP/Src/DistanceFunctions/arm_dtw_distance_f32.c:0:10
	movs	r0, #1
.Ltmp166:
	.loc	28 116 12                       @ ../Middlewares/CMSIS/DSP/Src/DistanceFunctions/arm_dtw_distance_f32.c:116:12
	cbnz	r0, .LBB27_22
	b	.LBB27_21
.LBB27_20:                              @   in Loop: Header=BB27_17 Depth=1
	.loc	28 116 38                       @ ../Middlewares/CMSIS/DSP/Src/DistanceFunctions/arm_dtw_distance_f32.c:116:38
	ldr	r0, [sp, #64]
	.loc	28 116 48                       @ ../Middlewares/CMSIS/DSP/Src/DistanceFunctions/arm_dtw_distance_f32.c:116:48
	ldr	r0, [r0, #4]
	.loc	28 116 82                       @ ../Middlewares/CMSIS/DSP/Src/DistanceFunctions/arm_dtw_distance_f32.c:116:82
	ldr	r1, [sp, #24]
	.loc	28 116 35                       @ ../Middlewares/CMSIS/DSP/Src/DistanceFunctions/arm_dtw_distance_f32.c:116:35
	ldrsb	r0, [r0, r1]
.Ltmp167:
	.loc	28 116 10                       @ ../Middlewares/CMSIS/DSP/Src/DistanceFunctions/arm_dtw_distance_f32.c:116:10
	cmp	r0, #1
	beq	.LBB27_22
	b	.LBB27_21
.LBB27_21:                              @   in Loop: Header=BB27_17 Depth=1
.Ltmp168:
	.loc	28 118 9 is_stmt 1              @ ../Middlewares/CMSIS/DSP/Src/DistanceFunctions/arm_dtw_distance_f32.c:118:9
	b	.LBB27_23
.Ltmp169:
.LBB27_22:                              @   in Loop: Header=BB27_17 Depth=1
	.loc	28 120 59                       @ ../Middlewares/CMSIS/DSP/Src/DistanceFunctions/arm_dtw_distance_f32.c:120:59
	ldr	r0, [sp, #60]
	.loc	28 120 66 is_stmt 0             @ ../Middlewares/CMSIS/DSP/Src/DistanceFunctions/arm_dtw_distance_f32.c:120:66
	ldr	r0, [r0, #4]
	.loc	28 120 97                       @ ../Middlewares/CMSIS/DSP/Src/DistanceFunctions/arm_dtw_distance_f32.c:120:97
	ldr	r2, [sp, #24]
	.loc	28 120 72                       @ ../Middlewares/CMSIS/DSP/Src/DistanceFunctions/arm_dtw_distance_f32.c:120:72
	add.w	r0, r0, r2, lsl #2
	.loc	28 120 56                       @ ../Middlewares/CMSIS/DSP/Src/DistanceFunctions/arm_dtw_distance_f32.c:120:56
	vldr	s0, [r0, #-4]
	.loc	28 120 110                      @ ../Middlewares/CMSIS/DSP/Src/DistanceFunctions/arm_dtw_distance_f32.c:120:110
	ldr	r1, [sp, #68]
	.loc	28 120 122                      @ ../Middlewares/CMSIS/DSP/Src/DistanceFunctions/arm_dtw_distance_f32.c:120:122
	ldr	r1, [r1, #4]
	.loc	28 120 128                      @ ../Middlewares/CMSIS/DSP/Src/DistanceFunctions/arm_dtw_distance_f32.c:120:128
	add.w	r1, r1, r2, lsl #2
	.loc	28 120 107                      @ ../Middlewares/CMSIS/DSP/Src/DistanceFunctions/arm_dtw_distance_f32.c:120:107
	vldr	s2, [r1]
	.loc	28 120 104                      @ ../Middlewares/CMSIS/DSP/Src/DistanceFunctions/arm_dtw_distance_f32.c:120:104
	vadd.f32	s0, s0, s2
	.loc	28 120 53                       @ ../Middlewares/CMSIS/DSP/Src/DistanceFunctions/arm_dtw_distance_f32.c:120:53
	vstr	s0, [r0]
	.loc	28 121 4 is_stmt 1              @ ../Middlewares/CMSIS/DSP/Src/DistanceFunctions/arm_dtw_distance_f32.c:121:4
	b	.LBB27_23
.Ltmp170:
.LBB27_23:                              @   in Loop: Header=BB27_17 Depth=1
	.loc	28 114 45                       @ ../Middlewares/CMSIS/DSP/Src/DistanceFunctions/arm_dtw_distance_f32.c:114:45
	ldr	r0, [sp, #24]
	adds	r0, #1
	str	r0, [sp, #24]
	.loc	28 114 4 is_stmt 0              @ ../Middlewares/CMSIS/DSP/Src/DistanceFunctions/arm_dtw_distance_f32.c:114:4
	b	.LBB27_17
.Ltmp171:
.LBB27_24:
	.loc	28 0 4                          @ ../Middlewares/CMSIS/DSP/Src/DistanceFunctions/arm_dtw_distance_f32.c:0:4
	movs	r0, #1
.Ltmp172:
	.loc	28 124 17 is_stmt 1             @ ../Middlewares/CMSIS/DSP/Src/DistanceFunctions/arm_dtw_distance_f32.c:124:17
	str	r0, [sp, #20]
	.loc	28 124 8 is_stmt 0              @ ../Middlewares/CMSIS/DSP/Src/DistanceFunctions/arm_dtw_distance_f32.c:124:8
	b	.LBB27_25
.LBB27_25:                              @ =>This Loop Header: Depth=1
                                        @     Child Loop BB27_27 Depth 2
.Ltmp173:
	.loc	28 124 24                       @ ../Middlewares/CMSIS/DSP/Src/DistanceFunctions/arm_dtw_distance_f32.c:124:24
	ldr	r0, [sp, #20]
	.loc	28 124 28                       @ ../Middlewares/CMSIS/DSP/Src/DistanceFunctions/arm_dtw_distance_f32.c:124:28
	ldr	r1, [sp, #52]
.Ltmp174:
	.loc	28 124 4                        @ ../Middlewares/CMSIS/DSP/Src/DistanceFunctions/arm_dtw_distance_f32.c:124:4
	cmp	r0, r1
	bhs.w	.LBB27_45
	b	.LBB27_26
.LBB27_26:                              @   in Loop: Header=BB27_25 Depth=1
	.loc	28 0 4                          @ ../Middlewares/CMSIS/DSP/Src/DistanceFunctions/arm_dtw_distance_f32.c:0:4
	movs	r0, #1
.Ltmp175:
	.loc	28 126 19 is_stmt 1             @ ../Middlewares/CMSIS/DSP/Src/DistanceFunctions/arm_dtw_distance_f32.c:126:19
	str	r0, [sp, #16]
	.loc	28 126 10 is_stmt 0             @ ../Middlewares/CMSIS/DSP/Src/DistanceFunctions/arm_dtw_distance_f32.c:126:10
	b	.LBB27_27
.LBB27_27:                              @   Parent Loop BB27_25 Depth=1
                                        @ =>  This Inner Loop Header: Depth=2
.Ltmp176:
	.loc	28 126 26                       @ ../Middlewares/CMSIS/DSP/Src/DistanceFunctions/arm_dtw_distance_f32.c:126:26
	ldr	r0, [sp, #16]
	.loc	28 126 30                       @ ../Middlewares/CMSIS/DSP/Src/DistanceFunctions/arm_dtw_distance_f32.c:126:30
	ldr	r1, [sp, #48]
.Ltmp177:
	.loc	28 126 6                        @ ../Middlewares/CMSIS/DSP/Src/DistanceFunctions/arm_dtw_distance_f32.c:126:6
	cmp	r0, r1
	bhs.w	.LBB27_43
	b	.LBB27_28
.LBB27_28:                              @   in Loop: Header=BB27_27 Depth=2
.Ltmp178:
	.loc	28 128 15 is_stmt 1             @ ../Middlewares/CMSIS/DSP/Src/DistanceFunctions/arm_dtw_distance_f32.c:128:15
	ldr	r0, [sp, #64]
.Ltmp179:
	.loc	28 128 12 is_stmt 0             @ ../Middlewares/CMSIS/DSP/Src/DistanceFunctions/arm_dtw_distance_f32.c:128:12
	cbnz	r0, .LBB27_30
	b	.LBB27_29
.LBB27_29:                              @   in Loop: Header=BB27_27 Depth=2
	.loc	28 0 12                         @ ../Middlewares/CMSIS/DSP/Src/DistanceFunctions/arm_dtw_distance_f32.c:0:12
	movs	r0, #1
.Ltmp180:
	.loc	28 128 14                       @ ../Middlewares/CMSIS/DSP/Src/DistanceFunctions/arm_dtw_distance_f32.c:128:14
	cbnz	r0, .LBB27_32
	b	.LBB27_31
.LBB27_30:                              @   in Loop: Header=BB27_27 Depth=2
	.loc	28 128 40                       @ ../Middlewares/CMSIS/DSP/Src/DistanceFunctions/arm_dtw_distance_f32.c:128:40
	ldr	r0, [sp, #64]
	.loc	28 128 50                       @ ../Middlewares/CMSIS/DSP/Src/DistanceFunctions/arm_dtw_distance_f32.c:128:50
	ldr	r2, [r0, #4]
	.loc	28 128 69                       @ ../Middlewares/CMSIS/DSP/Src/DistanceFunctions/arm_dtw_distance_f32.c:128:69
	ldrh	r0, [r0, #2]
	.loc	28 128 78                       @ ../Middlewares/CMSIS/DSP/Src/DistanceFunctions/arm_dtw_distance_f32.c:128:78
	ldr	r1, [sp, #20]
	.loc	28 128 56                       @ ../Middlewares/CMSIS/DSP/Src/DistanceFunctions/arm_dtw_distance_f32.c:128:56
	mla	r0, r0, r1, r2
	.loc	28 128 84                       @ ../Middlewares/CMSIS/DSP/Src/DistanceFunctions/arm_dtw_distance_f32.c:128:84
	ldr	r1, [sp, #16]
	.loc	28 128 37                       @ ../Middlewares/CMSIS/DSP/Src/DistanceFunctions/arm_dtw_distance_f32.c:128:37
	ldrsb	r0, [r0, r1]
.Ltmp181:
	.loc	28 128 12                       @ ../Middlewares/CMSIS/DSP/Src/DistanceFunctions/arm_dtw_distance_f32.c:128:12
	cmp	r0, #1
	beq	.LBB27_32
	b	.LBB27_31
.LBB27_31:                              @   in Loop: Header=BB27_27 Depth=2
.Ltmp182:
	.loc	28 130 11 is_stmt 1             @ ../Middlewares/CMSIS/DSP/Src/DistanceFunctions/arm_dtw_distance_f32.c:130:11
	b	.LBB27_42
.Ltmp183:
.LBB27_32:                              @   in Loop: Header=BB27_27 Depth=2
	.loc	28 133 19                       @ ../Middlewares/CMSIS/DSP/Src/DistanceFunctions/arm_dtw_distance_f32.c:133:19
	ldr	r0, [sp, #60]
	.loc	28 133 26 is_stmt 0             @ ../Middlewares/CMSIS/DSP/Src/DistanceFunctions/arm_dtw_distance_f32.c:133:26
	ldr	r2, [r0, #4]
	.loc	28 133 42                       @ ../Middlewares/CMSIS/DSP/Src/DistanceFunctions/arm_dtw_distance_f32.c:133:42
	ldrh.w	r12, [r0, #2]
	.loc	28 133 51                       @ ../Middlewares/CMSIS/DSP/Src/DistanceFunctions/arm_dtw_distance_f32.c:133:51
	ldr.w	lr, [sp, #20]
	.loc	28 133 52                       @ ../Middlewares/CMSIS/DSP/Src/DistanceFunctions/arm_dtw_distance_f32.c:133:52
	sub.w	r0, lr, #1
	.loc	28 133 49                       @ ../Middlewares/CMSIS/DSP/Src/DistanceFunctions/arm_dtw_distance_f32.c:133:49
	mul	r0, r12, r0
	.loc	28 133 32                       @ ../Middlewares/CMSIS/DSP/Src/DistanceFunctions/arm_dtw_distance_f32.c:133:32
	add.w	r0, r2, r0, lsl #2
	.loc	28 133 59                       @ ../Middlewares/CMSIS/DSP/Src/DistanceFunctions/arm_dtw_distance_f32.c:133:59
	ldr	r1, [sp, #16]
	mvn	r3, #3
	.loc	28 133 56                       @ ../Middlewares/CMSIS/DSP/Src/DistanceFunctions/arm_dtw_distance_f32.c:133:56
	add.w	r3, r3, r1, lsl #2
	adds	r4, r0, r3
	.loc	28 133 16                       @ ../Middlewares/CMSIS/DSP/Src/DistanceFunctions/arm_dtw_distance_f32.c:133:16
	vldr	s2, [r4]
	.loc	28 133 79                       @ ../Middlewares/CMSIS/DSP/Src/DistanceFunctions/arm_dtw_distance_f32.c:133:79
	ldr	r5, [sp, #68]
	.loc	28 133 91                       @ ../Middlewares/CMSIS/DSP/Src/DistanceFunctions/arm_dtw_distance_f32.c:133:91
	ldr	r4, [r5, #4]
	.loc	28 133 112                      @ ../Middlewares/CMSIS/DSP/Src/DistanceFunctions/arm_dtw_distance_f32.c:133:112
	ldrh	r5, [r5, #2]
	.loc	28 133 119                      @ ../Middlewares/CMSIS/DSP/Src/DistanceFunctions/arm_dtw_distance_f32.c:133:119
	mul	r5, r5, lr
	.loc	28 133 97                       @ ../Middlewares/CMSIS/DSP/Src/DistanceFunctions/arm_dtw_distance_f32.c:133:97
	add.w	r4, r4, r5, lsl #2
	.loc	28 133 124                      @ ../Middlewares/CMSIS/DSP/Src/DistanceFunctions/arm_dtw_distance_f32.c:133:124
	add.w	r4, r4, r1, lsl #2
	.loc	28 133 76                       @ ../Middlewares/CMSIS/DSP/Src/DistanceFunctions/arm_dtw_distance_f32.c:133:76
	vldr	s4, [r4]
	.loc	28 133 66                       @ ../Middlewares/CMSIS/DSP/Src/DistanceFunctions/arm_dtw_distance_f32.c:133:66
	vadd.f32	s0, s4, s4
	vadd.f32	s0, s0, s2
	vstr	s0, [sp, #12]                   @ 4-byte Spill
	.loc	28 133 172                      @ ../Middlewares/CMSIS/DSP/Src/DistanceFunctions/arm_dtw_distance_f32.c:133:172
	mul	r12, r12, lr
	.loc	28 133 155                      @ ../Middlewares/CMSIS/DSP/Src/DistanceFunctions/arm_dtw_distance_f32.c:133:155
	add.w	r2, r2, r12, lsl #2
	.loc	28 133 177                      @ ../Middlewares/CMSIS/DSP/Src/DistanceFunctions/arm_dtw_distance_f32.c:133:177
	add	r2, r3
	.loc	28 133 139                      @ ../Middlewares/CMSIS/DSP/Src/DistanceFunctions/arm_dtw_distance_f32.c:133:139
	vldr	s0, [r2]
	.loc	28 133 187                      @ ../Middlewares/CMSIS/DSP/Src/DistanceFunctions/arm_dtw_distance_f32.c:133:187
	vadd.f32	s0, s0, s4
	.loc	28 133 291                      @ ../Middlewares/CMSIS/DSP/Src/DistanceFunctions/arm_dtw_distance_f32.c:133:291
	add.w	r0, r0, r1, lsl #2
	.loc	28 133 251                      @ ../Middlewares/CMSIS/DSP/Src/DistanceFunctions/arm_dtw_distance_f32.c:133:251
	vldr	s2, [r0]
	.loc	28 133 299                      @ ../Middlewares/CMSIS/DSP/Src/DistanceFunctions/arm_dtw_distance_f32.c:133:299
	vadd.f32	s2, s2, s4
	.loc	28 133 137                      @ ../Middlewares/CMSIS/DSP/Src/DistanceFunctions/arm_dtw_distance_f32.c:133:137
	vcmp.f32	s0, s2
	vmrs	APSR_nzcv, fpscr
	bge	.LBB27_34
	b	.LBB27_33
.LBB27_33:                              @   in Loop: Header=BB27_27 Depth=2
	.loc	28 133 366                      @ ../Middlewares/CMSIS/DSP/Src/DistanceFunctions/arm_dtw_distance_f32.c:133:366
	ldr	r1, [sp, #60]
	.loc	28 133 373                      @ ../Middlewares/CMSIS/DSP/Src/DistanceFunctions/arm_dtw_distance_f32.c:133:373
	ldr	r0, [r1, #4]
	.loc	28 133 389                      @ ../Middlewares/CMSIS/DSP/Src/DistanceFunctions/arm_dtw_distance_f32.c:133:389
	ldrh	r1, [r1, #2]
	.loc	28 133 398                      @ ../Middlewares/CMSIS/DSP/Src/DistanceFunctions/arm_dtw_distance_f32.c:133:398
	ldr	r3, [sp, #20]
	.loc	28 133 396                      @ ../Middlewares/CMSIS/DSP/Src/DistanceFunctions/arm_dtw_distance_f32.c:133:396
	muls	r1, r3, r1
	.loc	28 133 379                      @ ../Middlewares/CMSIS/DSP/Src/DistanceFunctions/arm_dtw_distance_f32.c:133:379
	add.w	r0, r0, r1, lsl #2
	.loc	28 133 404                      @ ../Middlewares/CMSIS/DSP/Src/DistanceFunctions/arm_dtw_distance_f32.c:133:404
	ldr	r1, [sp, #16]
	.loc	28 133 401                      @ ../Middlewares/CMSIS/DSP/Src/DistanceFunctions/arm_dtw_distance_f32.c:133:401
	add.w	r0, r0, r1, lsl #2
	.loc	28 133 363                      @ ../Middlewares/CMSIS/DSP/Src/DistanceFunctions/arm_dtw_distance_f32.c:133:363
	vldr	s0, [r0, #-4]
	.loc	28 133 417                      @ ../Middlewares/CMSIS/DSP/Src/DistanceFunctions/arm_dtw_distance_f32.c:133:417
	ldr	r2, [sp, #68]
	.loc	28 133 429                      @ ../Middlewares/CMSIS/DSP/Src/DistanceFunctions/arm_dtw_distance_f32.c:133:429
	ldr	r0, [r2, #4]
	.loc	28 133 450                      @ ../Middlewares/CMSIS/DSP/Src/DistanceFunctions/arm_dtw_distance_f32.c:133:450
	ldrh	r2, [r2, #2]
	.loc	28 133 457                      @ ../Middlewares/CMSIS/DSP/Src/DistanceFunctions/arm_dtw_distance_f32.c:133:457
	muls	r2, r3, r2
	.loc	28 133 435                      @ ../Middlewares/CMSIS/DSP/Src/DistanceFunctions/arm_dtw_distance_f32.c:133:435
	add.w	r0, r0, r2, lsl #2
	.loc	28 133 462                      @ ../Middlewares/CMSIS/DSP/Src/DistanceFunctions/arm_dtw_distance_f32.c:133:462
	add.w	r0, r0, r1, lsl #2
	.loc	28 133 414                      @ ../Middlewares/CMSIS/DSP/Src/DistanceFunctions/arm_dtw_distance_f32.c:133:414
	vldr	s2, [r0]
	.loc	28 133 411                      @ ../Middlewares/CMSIS/DSP/Src/DistanceFunctions/arm_dtw_distance_f32.c:133:411
	vadd.f32	s0, s0, s2
	vstr	s0, [sp, #8]                    @ 4-byte Spill
	.loc	28 133 137                      @ ../Middlewares/CMSIS/DSP/Src/DistanceFunctions/arm_dtw_distance_f32.c:133:137
	b	.LBB27_35
.LBB27_34:                              @   in Loop: Header=BB27_27 Depth=2
	.loc	28 133 478                      @ ../Middlewares/CMSIS/DSP/Src/DistanceFunctions/arm_dtw_distance_f32.c:133:478
	ldr	r1, [sp, #60]
	.loc	28 133 485                      @ ../Middlewares/CMSIS/DSP/Src/DistanceFunctions/arm_dtw_distance_f32.c:133:485
	ldr	r0, [r1, #4]
	.loc	28 133 501                      @ ../Middlewares/CMSIS/DSP/Src/DistanceFunctions/arm_dtw_distance_f32.c:133:501
	ldrh	r1, [r1, #2]
	.loc	28 133 510                      @ ../Middlewares/CMSIS/DSP/Src/DistanceFunctions/arm_dtw_distance_f32.c:133:510
	ldr	r3, [sp, #20]
	.loc	28 133 511                      @ ../Middlewares/CMSIS/DSP/Src/DistanceFunctions/arm_dtw_distance_f32.c:133:511
	subs	r2, r3, #1
	.loc	28 133 508                      @ ../Middlewares/CMSIS/DSP/Src/DistanceFunctions/arm_dtw_distance_f32.c:133:508
	muls	r1, r2, r1
	.loc	28 133 491                      @ ../Middlewares/CMSIS/DSP/Src/DistanceFunctions/arm_dtw_distance_f32.c:133:491
	add.w	r0, r0, r1, lsl #2
	.loc	28 133 518                      @ ../Middlewares/CMSIS/DSP/Src/DistanceFunctions/arm_dtw_distance_f32.c:133:518
	ldr	r1, [sp, #16]
	.loc	28 133 515                      @ ../Middlewares/CMSIS/DSP/Src/DistanceFunctions/arm_dtw_distance_f32.c:133:515
	add.w	r0, r0, r1, lsl #2
	.loc	28 133 475                      @ ../Middlewares/CMSIS/DSP/Src/DistanceFunctions/arm_dtw_distance_f32.c:133:475
	vldr	s0, [r0]
	.loc	28 133 529                      @ ../Middlewares/CMSIS/DSP/Src/DistanceFunctions/arm_dtw_distance_f32.c:133:529
	ldr	r2, [sp, #68]
	.loc	28 133 541                      @ ../Middlewares/CMSIS/DSP/Src/DistanceFunctions/arm_dtw_distance_f32.c:133:541
	ldr	r0, [r2, #4]
	.loc	28 133 562                      @ ../Middlewares/CMSIS/DSP/Src/DistanceFunctions/arm_dtw_distance_f32.c:133:562
	ldrh	r2, [r2, #2]
	.loc	28 133 569                      @ ../Middlewares/CMSIS/DSP/Src/DistanceFunctions/arm_dtw_distance_f32.c:133:569
	muls	r2, r3, r2
	.loc	28 133 547                      @ ../Middlewares/CMSIS/DSP/Src/DistanceFunctions/arm_dtw_distance_f32.c:133:547
	add.w	r0, r0, r2, lsl #2
	.loc	28 133 574                      @ ../Middlewares/CMSIS/DSP/Src/DistanceFunctions/arm_dtw_distance_f32.c:133:574
	add.w	r0, r0, r1, lsl #2
	.loc	28 133 526                      @ ../Middlewares/CMSIS/DSP/Src/DistanceFunctions/arm_dtw_distance_f32.c:133:526
	vldr	s2, [r0]
	.loc	28 133 523                      @ ../Middlewares/CMSIS/DSP/Src/DistanceFunctions/arm_dtw_distance_f32.c:133:523
	vadd.f32	s0, s0, s2
	vstr	s0, [sp, #8]                    @ 4-byte Spill
	.loc	28 133 137                      @ ../Middlewares/CMSIS/DSP/Src/DistanceFunctions/arm_dtw_distance_f32.c:133:137
	b	.LBB27_35
.LBB27_35:                              @   in Loop: Header=BB27_27 Depth=2
	vldr	s0, [sp, #12]                   @ 4-byte Reload
	vldr	s2, [sp, #8]                    @ 4-byte Reload
	.loc	28 133 14                       @ ../Middlewares/CMSIS/DSP/Src/DistanceFunctions/arm_dtw_distance_f32.c:133:14
	vcmp.f32	s0, s2
	vmrs	APSR_nzcv, fpscr
	bge	.LBB27_37
	b	.LBB27_36
.LBB27_36:                              @   in Loop: Header=BB27_27 Depth=2
	.loc	28 133 592                      @ ../Middlewares/CMSIS/DSP/Src/DistanceFunctions/arm_dtw_distance_f32.c:133:592
	ldr	r1, [sp, #60]
	.loc	28 133 599                      @ ../Middlewares/CMSIS/DSP/Src/DistanceFunctions/arm_dtw_distance_f32.c:133:599
	ldr	r0, [r1, #4]
	.loc	28 133 615                      @ ../Middlewares/CMSIS/DSP/Src/DistanceFunctions/arm_dtw_distance_f32.c:133:615
	ldrh	r1, [r1, #2]
	.loc	28 133 624                      @ ../Middlewares/CMSIS/DSP/Src/DistanceFunctions/arm_dtw_distance_f32.c:133:624
	ldr	r3, [sp, #20]
	.loc	28 133 625                      @ ../Middlewares/CMSIS/DSP/Src/DistanceFunctions/arm_dtw_distance_f32.c:133:625
	subs	r2, r3, #1
	.loc	28 133 622                      @ ../Middlewares/CMSIS/DSP/Src/DistanceFunctions/arm_dtw_distance_f32.c:133:622
	muls	r1, r2, r1
	.loc	28 133 605                      @ ../Middlewares/CMSIS/DSP/Src/DistanceFunctions/arm_dtw_distance_f32.c:133:605
	add.w	r0, r0, r1, lsl #2
	.loc	28 133 632                      @ ../Middlewares/CMSIS/DSP/Src/DistanceFunctions/arm_dtw_distance_f32.c:133:632
	ldr	r1, [sp, #16]
	.loc	28 133 629                      @ ../Middlewares/CMSIS/DSP/Src/DistanceFunctions/arm_dtw_distance_f32.c:133:629
	add.w	r0, r0, r1, lsl #2
	.loc	28 133 589                      @ ../Middlewares/CMSIS/DSP/Src/DistanceFunctions/arm_dtw_distance_f32.c:133:589
	vldr	s2, [r0, #-4]
	.loc	28 133 652                      @ ../Middlewares/CMSIS/DSP/Src/DistanceFunctions/arm_dtw_distance_f32.c:133:652
	ldr	r2, [sp, #68]
	.loc	28 133 664                      @ ../Middlewares/CMSIS/DSP/Src/DistanceFunctions/arm_dtw_distance_f32.c:133:664
	ldr	r0, [r2, #4]
	.loc	28 133 685                      @ ../Middlewares/CMSIS/DSP/Src/DistanceFunctions/arm_dtw_distance_f32.c:133:685
	ldrh	r2, [r2, #2]
	.loc	28 133 692                      @ ../Middlewares/CMSIS/DSP/Src/DistanceFunctions/arm_dtw_distance_f32.c:133:692
	muls	r2, r3, r2
	.loc	28 133 670                      @ ../Middlewares/CMSIS/DSP/Src/DistanceFunctions/arm_dtw_distance_f32.c:133:670
	add.w	r0, r0, r2, lsl #2
	.loc	28 133 697                      @ ../Middlewares/CMSIS/DSP/Src/DistanceFunctions/arm_dtw_distance_f32.c:133:697
	add.w	r0, r0, r1, lsl #2
	.loc	28 133 649                      @ ../Middlewares/CMSIS/DSP/Src/DistanceFunctions/arm_dtw_distance_f32.c:133:649
	vldr	s0, [r0]
	.loc	28 133 639                      @ ../Middlewares/CMSIS/DSP/Src/DistanceFunctions/arm_dtw_distance_f32.c:133:639
	vadd.f32	s0, s0, s0
	vadd.f32	s0, s0, s2
	vstr	s0, [sp, #4]                    @ 4-byte Spill
	.loc	28 133 14                       @ ../Middlewares/CMSIS/DSP/Src/DistanceFunctions/arm_dtw_distance_f32.c:133:14
	b	.LBB27_41
.LBB27_37:                              @   in Loop: Header=BB27_27 Depth=2
	.loc	28 133 715                      @ ../Middlewares/CMSIS/DSP/Src/DistanceFunctions/arm_dtw_distance_f32.c:133:715
	ldr	r1, [sp, #60]
	.loc	28 133 722                      @ ../Middlewares/CMSIS/DSP/Src/DistanceFunctions/arm_dtw_distance_f32.c:133:722
	ldr	r0, [r1, #4]
	.loc	28 133 738                      @ ../Middlewares/CMSIS/DSP/Src/DistanceFunctions/arm_dtw_distance_f32.c:133:738
	ldrh	r2, [r1, #2]
	.loc	28 133 747                      @ ../Middlewares/CMSIS/DSP/Src/DistanceFunctions/arm_dtw_distance_f32.c:133:747
	ldr	r3, [sp, #20]
	.loc	28 133 745                      @ ../Middlewares/CMSIS/DSP/Src/DistanceFunctions/arm_dtw_distance_f32.c:133:745
	mul	r1, r2, r3
	.loc	28 133 728                      @ ../Middlewares/CMSIS/DSP/Src/DistanceFunctions/arm_dtw_distance_f32.c:133:728
	add.w	r12, r0, r1, lsl #2
	.loc	28 133 753                      @ ../Middlewares/CMSIS/DSP/Src/DistanceFunctions/arm_dtw_distance_f32.c:133:753
	ldr	r1, [sp, #16]
	.loc	28 133 750                      @ ../Middlewares/CMSIS/DSP/Src/DistanceFunctions/arm_dtw_distance_f32.c:133:750
	add.w	r12, r12, r1, lsl #2
	.loc	28 133 712                      @ ../Middlewares/CMSIS/DSP/Src/DistanceFunctions/arm_dtw_distance_f32.c:133:712
	vldr	s0, [r12, #-4]
	.loc	28 133 766                      @ ../Middlewares/CMSIS/DSP/Src/DistanceFunctions/arm_dtw_distance_f32.c:133:766
	ldr.w	lr, [sp, #68]
	.loc	28 133 778                      @ ../Middlewares/CMSIS/DSP/Src/DistanceFunctions/arm_dtw_distance_f32.c:133:778
	ldr.w	r12, [lr, #4]
	.loc	28 133 799                      @ ../Middlewares/CMSIS/DSP/Src/DistanceFunctions/arm_dtw_distance_f32.c:133:799
	ldrh.w	lr, [lr, #2]
	.loc	28 133 806                      @ ../Middlewares/CMSIS/DSP/Src/DistanceFunctions/arm_dtw_distance_f32.c:133:806
	mul	lr, lr, r3
	.loc	28 133 784                      @ ../Middlewares/CMSIS/DSP/Src/DistanceFunctions/arm_dtw_distance_f32.c:133:784
	add.w	r12, r12, lr, lsl #2
	.loc	28 133 811                      @ ../Middlewares/CMSIS/DSP/Src/DistanceFunctions/arm_dtw_distance_f32.c:133:811
	add.w	r12, r12, r1, lsl #2
	.loc	28 133 763                      @ ../Middlewares/CMSIS/DSP/Src/DistanceFunctions/arm_dtw_distance_f32.c:133:763
	vldr	s4, [r12]
	.loc	28 133 760                      @ ../Middlewares/CMSIS/DSP/Src/DistanceFunctions/arm_dtw_distance_f32.c:133:760
	vadd.f32	s0, s0, s4
	.loc	28 133 860                      @ ../Middlewares/CMSIS/DSP/Src/DistanceFunctions/arm_dtw_distance_f32.c:133:860
	subs	r3, #1
	.loc	28 133 857                      @ ../Middlewares/CMSIS/DSP/Src/DistanceFunctions/arm_dtw_distance_f32.c:133:857
	muls	r2, r3, r2
	.loc	28 133 840                      @ ../Middlewares/CMSIS/DSP/Src/DistanceFunctions/arm_dtw_distance_f32.c:133:840
	add.w	r0, r0, r2, lsl #2
	.loc	28 133 864                      @ ../Middlewares/CMSIS/DSP/Src/DistanceFunctions/arm_dtw_distance_f32.c:133:864
	add.w	r0, r0, r1, lsl #2
	.loc	28 133 824                      @ ../Middlewares/CMSIS/DSP/Src/DistanceFunctions/arm_dtw_distance_f32.c:133:824
	vldr	s2, [r0]
	.loc	28 133 872                      @ ../Middlewares/CMSIS/DSP/Src/DistanceFunctions/arm_dtw_distance_f32.c:133:872
	vadd.f32	s2, s2, s4
	.loc	28 133 710                      @ ../Middlewares/CMSIS/DSP/Src/DistanceFunctions/arm_dtw_distance_f32.c:133:710
	vcmp.f32	s0, s2
	vmrs	APSR_nzcv, fpscr
	bge	.LBB27_39
	b	.LBB27_38
.LBB27_38:                              @   in Loop: Header=BB27_27 Depth=2
	.loc	28 133 939                      @ ../Middlewares/CMSIS/DSP/Src/DistanceFunctions/arm_dtw_distance_f32.c:133:939
	ldr	r1, [sp, #60]
	.loc	28 133 946                      @ ../Middlewares/CMSIS/DSP/Src/DistanceFunctions/arm_dtw_distance_f32.c:133:946
	ldr	r0, [r1, #4]
	.loc	28 133 962                      @ ../Middlewares/CMSIS/DSP/Src/DistanceFunctions/arm_dtw_distance_f32.c:133:962
	ldrh	r1, [r1, #2]
	.loc	28 133 971                      @ ../Middlewares/CMSIS/DSP/Src/DistanceFunctions/arm_dtw_distance_f32.c:133:971
	ldr	r3, [sp, #20]
	.loc	28 133 969                      @ ../Middlewares/CMSIS/DSP/Src/DistanceFunctions/arm_dtw_distance_f32.c:133:969
	muls	r1, r3, r1
	.loc	28 133 952                      @ ../Middlewares/CMSIS/DSP/Src/DistanceFunctions/arm_dtw_distance_f32.c:133:952
	add.w	r0, r0, r1, lsl #2
	.loc	28 133 977                      @ ../Middlewares/CMSIS/DSP/Src/DistanceFunctions/arm_dtw_distance_f32.c:133:977
	ldr	r1, [sp, #16]
	.loc	28 133 974                      @ ../Middlewares/CMSIS/DSP/Src/DistanceFunctions/arm_dtw_distance_f32.c:133:974
	add.w	r0, r0, r1, lsl #2
	.loc	28 133 936                      @ ../Middlewares/CMSIS/DSP/Src/DistanceFunctions/arm_dtw_distance_f32.c:133:936
	vldr	s0, [r0, #-4]
	.loc	28 133 990                      @ ../Middlewares/CMSIS/DSP/Src/DistanceFunctions/arm_dtw_distance_f32.c:133:990
	ldr	r2, [sp, #68]
	.loc	28 133 1002                     @ ../Middlewares/CMSIS/DSP/Src/DistanceFunctions/arm_dtw_distance_f32.c:133:1002
	ldr	r0, [r2, #4]
	.loc	28 133 1023                     @ ../Middlewares/CMSIS/DSP/Src/DistanceFunctions/arm_dtw_distance_f32.c:133:1023
	ldrh	r2, [r2, #2]
	.loc	28 133 1030                     @ ../Middlewares/CMSIS/DSP/Src/DistanceFunctions/arm_dtw_distance_f32.c:133:1030
	muls	r2, r3, r2
	.loc	28 133 1008                     @ ../Middlewares/CMSIS/DSP/Src/DistanceFunctions/arm_dtw_distance_f32.c:133:1008
	add.w	r0, r0, r2, lsl #2
	.loc	28 133 1035                     @ ../Middlewares/CMSIS/DSP/Src/DistanceFunctions/arm_dtw_distance_f32.c:133:1035
	add.w	r0, r0, r1, lsl #2
	.loc	28 133 987                      @ ../Middlewares/CMSIS/DSP/Src/DistanceFunctions/arm_dtw_distance_f32.c:133:987
	vldr	s2, [r0]
	.loc	28 133 984                      @ ../Middlewares/CMSIS/DSP/Src/DistanceFunctions/arm_dtw_distance_f32.c:133:984
	vadd.f32	s0, s0, s2
	vstr	s0, [sp]                        @ 4-byte Spill
	.loc	28 133 710                      @ ../Middlewares/CMSIS/DSP/Src/DistanceFunctions/arm_dtw_distance_f32.c:133:710
	b	.LBB27_40
.LBB27_39:                              @   in Loop: Header=BB27_27 Depth=2
	.loc	28 133 1051                     @ ../Middlewares/CMSIS/DSP/Src/DistanceFunctions/arm_dtw_distance_f32.c:133:1051
	ldr	r1, [sp, #60]
	.loc	28 133 1058                     @ ../Middlewares/CMSIS/DSP/Src/DistanceFunctions/arm_dtw_distance_f32.c:133:1058
	ldr	r0, [r1, #4]
	.loc	28 133 1074                     @ ../Middlewares/CMSIS/DSP/Src/DistanceFunctions/arm_dtw_distance_f32.c:133:1074
	ldrh	r1, [r1, #2]
	.loc	28 133 1083                     @ ../Middlewares/CMSIS/DSP/Src/DistanceFunctions/arm_dtw_distance_f32.c:133:1083
	ldr	r3, [sp, #20]
	.loc	28 133 1084                     @ ../Middlewares/CMSIS/DSP/Src/DistanceFunctions/arm_dtw_distance_f32.c:133:1084
	subs	r2, r3, #1
	.loc	28 133 1081                     @ ../Middlewares/CMSIS/DSP/Src/DistanceFunctions/arm_dtw_distance_f32.c:133:1081
	muls	r1, r2, r1
	.loc	28 133 1064                     @ ../Middlewares/CMSIS/DSP/Src/DistanceFunctions/arm_dtw_distance_f32.c:133:1064
	add.w	r0, r0, r1, lsl #2
	.loc	28 133 1091                     @ ../Middlewares/CMSIS/DSP/Src/DistanceFunctions/arm_dtw_distance_f32.c:133:1091
	ldr	r1, [sp, #16]
	.loc	28 133 1088                     @ ../Middlewares/CMSIS/DSP/Src/DistanceFunctions/arm_dtw_distance_f32.c:133:1088
	add.w	r0, r0, r1, lsl #2
	.loc	28 133 1048                     @ ../Middlewares/CMSIS/DSP/Src/DistanceFunctions/arm_dtw_distance_f32.c:133:1048
	vldr	s0, [r0]
	.loc	28 133 1102                     @ ../Middlewares/CMSIS/DSP/Src/DistanceFunctions/arm_dtw_distance_f32.c:133:1102
	ldr	r2, [sp, #68]
	.loc	28 133 1114                     @ ../Middlewares/CMSIS/DSP/Src/DistanceFunctions/arm_dtw_distance_f32.c:133:1114
	ldr	r0, [r2, #4]
	.loc	28 133 1135                     @ ../Middlewares/CMSIS/DSP/Src/DistanceFunctions/arm_dtw_distance_f32.c:133:1135
	ldrh	r2, [r2, #2]
	.loc	28 133 1142                     @ ../Middlewares/CMSIS/DSP/Src/DistanceFunctions/arm_dtw_distance_f32.c:133:1142
	muls	r2, r3, r2
	.loc	28 133 1120                     @ ../Middlewares/CMSIS/DSP/Src/DistanceFunctions/arm_dtw_distance_f32.c:133:1120
	add.w	r0, r0, r2, lsl #2
	.loc	28 133 1147                     @ ../Middlewares/CMSIS/DSP/Src/DistanceFunctions/arm_dtw_distance_f32.c:133:1147
	add.w	r0, r0, r1, lsl #2
	.loc	28 133 1099                     @ ../Middlewares/CMSIS/DSP/Src/DistanceFunctions/arm_dtw_distance_f32.c:133:1099
	vldr	s2, [r0]
	.loc	28 133 1096                     @ ../Middlewares/CMSIS/DSP/Src/DistanceFunctions/arm_dtw_distance_f32.c:133:1096
	vadd.f32	s0, s0, s2
	vstr	s0, [sp]                        @ 4-byte Spill
	.loc	28 133 710                      @ ../Middlewares/CMSIS/DSP/Src/DistanceFunctions/arm_dtw_distance_f32.c:133:710
	b	.LBB27_40
.LBB27_40:                              @   in Loop: Header=BB27_27 Depth=2
	vldr	s0, [sp]                        @ 4-byte Reload
	vstr	s0, [sp, #4]                    @ 4-byte Spill
	.loc	28 133 14                       @ ../Middlewares/CMSIS/DSP/Src/DistanceFunctions/arm_dtw_distance_f32.c:133:14
	b	.LBB27_41
.LBB27_41:                              @   in Loop: Header=BB27_27 Depth=2
	vldr	s0, [sp, #4]                    @ 4-byte Reload
	.loc	28 132 12 is_stmt 1             @ ../Middlewares/CMSIS/DSP/Src/DistanceFunctions/arm_dtw_distance_f32.c:132:12
	ldr	r1, [sp, #60]
	.loc	28 132 19 is_stmt 0             @ ../Middlewares/CMSIS/DSP/Src/DistanceFunctions/arm_dtw_distance_f32.c:132:19
	ldr	r0, [r1, #4]
	.loc	28 132 35                       @ ../Middlewares/CMSIS/DSP/Src/DistanceFunctions/arm_dtw_distance_f32.c:132:35
	ldrh	r1, [r1, #2]
	.loc	28 132 44                       @ ../Middlewares/CMSIS/DSP/Src/DistanceFunctions/arm_dtw_distance_f32.c:132:44
	ldr	r2, [sp, #20]
	.loc	28 132 42                       @ ../Middlewares/CMSIS/DSP/Src/DistanceFunctions/arm_dtw_distance_f32.c:132:42
	muls	r1, r2, r1
	.loc	28 132 25                       @ ../Middlewares/CMSIS/DSP/Src/DistanceFunctions/arm_dtw_distance_f32.c:132:25
	add.w	r0, r0, r1, lsl #2
	.loc	28 132 50                       @ ../Middlewares/CMSIS/DSP/Src/DistanceFunctions/arm_dtw_distance_f32.c:132:50
	ldr	r1, [sp, #16]
	.loc	28 132 47                       @ ../Middlewares/CMSIS/DSP/Src/DistanceFunctions/arm_dtw_distance_f32.c:132:47
	add.w	r0, r0, r1, lsl #2
	.loc	28 132 55                       @ ../Middlewares/CMSIS/DSP/Src/DistanceFunctions/arm_dtw_distance_f32.c:132:55
	vstr	s0, [r0]
	.loc	28 136 6 is_stmt 1              @ ../Middlewares/CMSIS/DSP/Src/DistanceFunctions/arm_dtw_distance_f32.c:136:6
	b	.LBB27_42
.Ltmp184:
.LBB27_42:                              @   in Loop: Header=BB27_27 Depth=2
	.loc	28 126 47                       @ ../Middlewares/CMSIS/DSP/Src/DistanceFunctions/arm_dtw_distance_f32.c:126:47
	ldr	r0, [sp, #16]
	adds	r0, #1
	str	r0, [sp, #16]
	.loc	28 126 6 is_stmt 0              @ ../Middlewares/CMSIS/DSP/Src/DistanceFunctions/arm_dtw_distance_f32.c:126:6
	b	.LBB27_27
.Ltmp185:
.LBB27_43:                              @   in Loop: Header=BB27_25 Depth=1
	.loc	28 137 4 is_stmt 1              @ ../Middlewares/CMSIS/DSP/Src/DistanceFunctions/arm_dtw_distance_f32.c:137:4
	b	.LBB27_44
.Ltmp186:
.LBB27_44:                              @   in Loop: Header=BB27_25 Depth=1
	.loc	28 124 42                       @ ../Middlewares/CMSIS/DSP/Src/DistanceFunctions/arm_dtw_distance_f32.c:124:42
	ldr	r0, [sp, #20]
	adds	r0, #1
	str	r0, [sp, #20]
	.loc	28 124 4 is_stmt 0              @ ../Middlewares/CMSIS/DSP/Src/DistanceFunctions/arm_dtw_distance_f32.c:124:4
	b	.LBB27_25
.Ltmp187:
.LBB27_45:
	.loc	28 139 12 is_stmt 1             @ ../Middlewares/CMSIS/DSP/Src/DistanceFunctions/arm_dtw_distance_f32.c:139:12
	ldr	r1, [sp, #60]
	.loc	28 139 19 is_stmt 0             @ ../Middlewares/CMSIS/DSP/Src/DistanceFunctions/arm_dtw_distance_f32.c:139:19
	ldr	r0, [r1, #4]
	.loc	28 139 35                       @ ../Middlewares/CMSIS/DSP/Src/DistanceFunctions/arm_dtw_distance_f32.c:139:35
	ldrh	r1, [r1, #2]
	.loc	28 139 44                       @ ../Middlewares/CMSIS/DSP/Src/DistanceFunctions/arm_dtw_distance_f32.c:139:44
	ldr	r2, [sp, #52]
	.loc	28 139 55                       @ ../Middlewares/CMSIS/DSP/Src/DistanceFunctions/arm_dtw_distance_f32.c:139:55
	subs	r2, #1
	.loc	28 139 42                       @ ../Middlewares/CMSIS/DSP/Src/DistanceFunctions/arm_dtw_distance_f32.c:139:42
	muls	r1, r2, r1
	.loc	28 139 25                       @ ../Middlewares/CMSIS/DSP/Src/DistanceFunctions/arm_dtw_distance_f32.c:139:25
	add.w	r0, r0, r1, lsl #2
	.loc	28 139 62                       @ ../Middlewares/CMSIS/DSP/Src/DistanceFunctions/arm_dtw_distance_f32.c:139:62
	ldr	r1, [sp, #48]
	.loc	28 139 59                       @ ../Middlewares/CMSIS/DSP/Src/DistanceFunctions/arm_dtw_distance_f32.c:139:59
	add.w	r0, r0, r1, lsl #2
	.loc	28 139 9                        @ ../Middlewares/CMSIS/DSP/Src/DistanceFunctions/arm_dtw_distance_f32.c:139:9
	vldr	s0, [r0, #-4]
	vldr	s2, .LCPI27_0
.Ltmp188:
	.loc	28 139 8                        @ ../Middlewares/CMSIS/DSP/Src/DistanceFunctions/arm_dtw_distance_f32.c:139:8
	vcmp.f32	s0, s2
	vmrs	APSR_nzcv, fpscr
	bne	.LBB27_47
	b	.LBB27_46
.LBB27_46:
	.loc	28 0 8                          @ ../Middlewares/CMSIS/DSP/Src/DistanceFunctions/arm_dtw_distance_f32.c:0:8
	movs	r0, #255
.Ltmp189:
	.loc	28 141 6 is_stmt 1              @ ../Middlewares/CMSIS/DSP/Src/DistanceFunctions/arm_dtw_distance_f32.c:141:6
	strb.w	r0, [sp, #75]
	b	.LBB27_48
.Ltmp190:
.LBB27_47:
	.loc	28 144 17                       @ ../Middlewares/CMSIS/DSP/Src/DistanceFunctions/arm_dtw_distance_f32.c:144:17
	ldr	r1, [sp, #60]
	.loc	28 144 24 is_stmt 0             @ ../Middlewares/CMSIS/DSP/Src/DistanceFunctions/arm_dtw_distance_f32.c:144:24
	ldr	r0, [r1, #4]
	.loc	28 144 40                       @ ../Middlewares/CMSIS/DSP/Src/DistanceFunctions/arm_dtw_distance_f32.c:144:40
	ldrh	r1, [r1, #2]
	.loc	28 144 49                       @ ../Middlewares/CMSIS/DSP/Src/DistanceFunctions/arm_dtw_distance_f32.c:144:49
	ldr	r2, [sp, #52]
	.loc	28 144 60                       @ ../Middlewares/CMSIS/DSP/Src/DistanceFunctions/arm_dtw_distance_f32.c:144:60
	subs	r2, #1
	.loc	28 144 47                       @ ../Middlewares/CMSIS/DSP/Src/DistanceFunctions/arm_dtw_distance_f32.c:144:47
	muls	r1, r2, r1
	.loc	28 144 30                       @ ../Middlewares/CMSIS/DSP/Src/DistanceFunctions/arm_dtw_distance_f32.c:144:30
	add.w	r0, r0, r1, lsl #2
	.loc	28 144 67                       @ ../Middlewares/CMSIS/DSP/Src/DistanceFunctions/arm_dtw_distance_f32.c:144:67
	ldr	r1, [sp, #48]
	.loc	28 144 64                       @ ../Middlewares/CMSIS/DSP/Src/DistanceFunctions/arm_dtw_distance_f32.c:144:64
	add.w	r0, r0, r1, lsl #2
	.loc	28 144 14                       @ ../Middlewares/CMSIS/DSP/Src/DistanceFunctions/arm_dtw_distance_f32.c:144:14
	ldr	r0, [r0, #-4]
	.loc	28 144 11                       @ ../Middlewares/CMSIS/DSP/Src/DistanceFunctions/arm_dtw_distance_f32.c:144:11
	str	r0, [sp, #44]
	.loc	28 145 13 is_stmt 1             @ ../Middlewares/CMSIS/DSP/Src/DistanceFunctions/arm_dtw_distance_f32.c:145:13
	vldr	s0, [sp, #44]
	.loc	28 145 23 is_stmt 0             @ ../Middlewares/CMSIS/DSP/Src/DistanceFunctions/arm_dtw_distance_f32.c:145:23
	ldr	r0, [sp, #52]
	.loc	28 145 37                       @ ../Middlewares/CMSIS/DSP/Src/DistanceFunctions/arm_dtw_distance_f32.c:145:37
	ldr	r1, [sp, #48]
	.loc	28 145 35                       @ ../Middlewares/CMSIS/DSP/Src/DistanceFunctions/arm_dtw_distance_f32.c:145:35
	add	r0, r1
	.loc	28 145 22                       @ ../Middlewares/CMSIS/DSP/Src/DistanceFunctions/arm_dtw_distance_f32.c:145:22
	vmov	s2, r0
	vcvt.f32.u32	s2, s2
	.loc	28 145 20                       @ ../Middlewares/CMSIS/DSP/Src/DistanceFunctions/arm_dtw_distance_f32.c:145:20
	vdiv.f32	s0, s0, s2
	.loc	28 145 11                       @ ../Middlewares/CMSIS/DSP/Src/DistanceFunctions/arm_dtw_distance_f32.c:145:11
	vstr	s0, [sp, #44]
	.loc	28 146 16 is_stmt 1             @ ../Middlewares/CMSIS/DSP/Src/DistanceFunctions/arm_dtw_distance_f32.c:146:16
	ldr	r0, [sp, #44]
	.loc	28 146 5 is_stmt 0              @ ../Middlewares/CMSIS/DSP/Src/DistanceFunctions/arm_dtw_distance_f32.c:146:5
	ldr	r1, [sp, #56]
	.loc	28 146 14                       @ ../Middlewares/CMSIS/DSP/Src/DistanceFunctions/arm_dtw_distance_f32.c:146:14
	str	r0, [r1]
	movs	r0, #0
	.loc	28 148 4 is_stmt 1              @ ../Middlewares/CMSIS/DSP/Src/DistanceFunctions/arm_dtw_distance_f32.c:148:4
	strb.w	r0, [sp, #75]
	b	.LBB27_48
.LBB27_48:
	.loc	28 149 1                        @ ../Middlewares/CMSIS/DSP/Src/DistanceFunctions/arm_dtw_distance_f32.c:149:1
	ldrsb.w	r0, [sp, #75]
	add	sp, #76
	pop	{r4, r5, r7, pc}
.Ltmp191:
	.p2align	2
@ %bb.49:
	.loc	28 0 1 is_stmt 0                @ ../Middlewares/CMSIS/DSP/Src/DistanceFunctions/arm_dtw_distance_f32.c:0:1
.LCPI27_0:
	.long	0x7f7fffff                      @ float 3.40282347E+38
.Lfunc_end27:
	.size	arm_dtw_distance_f32, .Lfunc_end27-arm_dtw_distance_f32
	.cfi_endproc
	.cantunwind
	.fnend
                                        @ -- End function
	.section	.text.arm_dtw_path_f32,"ax",%progbits
	.hidden	arm_dtw_path_f32                @ -- Begin function arm_dtw_path_f32
	.globl	arm_dtw_path_f32
	.p2align	2
	.type	arm_dtw_path_f32,%function
	.code	16                              @ @arm_dtw_path_f32
	.thumb_func
arm_dtw_path_f32:
.Lfunc_begin28:
	.file	29 "D:\\horizon\\Horizon_Infantry (2)\\MDK-ARM" "../Middlewares/CMSIS/DSP/Src/DistanceFunctions/arm_dtw_path_f32.c"
	.loc	29 70 0 is_stmt 1               @ ../Middlewares/CMSIS/DSP/Src/DistanceFunctions/arm_dtw_path_f32.c:70:0
	.fnstart
	.cfi_startproc
@ %bb.0:
	.pad	#56
	sub	sp, #56
	.cfi_def_cfa_offset 56
	str	r0, [sp, #52]
	str	r1, [sp, #48]
	str	r2, [sp, #44]
.Ltmp192:
	.loc	29 74 4 prologue_end            @ ../Middlewares/CMSIS/DSP/Src/DistanceFunctions/arm_dtw_path_f32.c:74:4
	ldr	r1, [sp, #44]
	movs	r0, #0
	.loc	29 74 15 is_stmt 0              @ ../Middlewares/CMSIS/DSP/Src/DistanceFunctions/arm_dtw_path_f32.c:74:15
	str	r0, [r1]
	.loc	29 75 5 is_stmt 1               @ ../Middlewares/CMSIS/DSP/Src/DistanceFunctions/arm_dtw_path_f32.c:75:5
	ldr	r0, [sp, #52]
	.loc	29 75 11 is_stmt 0              @ ../Middlewares/CMSIS/DSP/Src/DistanceFunctions/arm_dtw_path_f32.c:75:11
	ldrh	r0, [r0]
	.loc	29 75 18                        @ ../Middlewares/CMSIS/DSP/Src/DistanceFunctions/arm_dtw_path_f32.c:75:18
	subs	r0, #1
	.loc	29 75 4                         @ ../Middlewares/CMSIS/DSP/Src/DistanceFunctions/arm_dtw_path_f32.c:75:4
	str	r0, [sp, #40]
	.loc	29 76 5 is_stmt 1               @ ../Middlewares/CMSIS/DSP/Src/DistanceFunctions/arm_dtw_path_f32.c:76:5
	ldr	r0, [sp, #52]
	.loc	29 76 11 is_stmt 0              @ ../Middlewares/CMSIS/DSP/Src/DistanceFunctions/arm_dtw_path_f32.c:76:11
	ldrh	r0, [r0, #2]
	.loc	29 76 18                        @ ../Middlewares/CMSIS/DSP/Src/DistanceFunctions/arm_dtw_path_f32.c:76:18
	subs	r0, #1
	.loc	29 76 4                         @ ../Middlewares/CMSIS/DSP/Src/DistanceFunctions/arm_dtw_path_f32.c:76:4
	str	r0, [sp, #36]
	.loc	29 77 3 is_stmt 1               @ ../Middlewares/CMSIS/DSP/Src/DistanceFunctions/arm_dtw_path_f32.c:77:3
	b	.LBB28_1
.LBB28_1:                               @ =>This Inner Loop Header: Depth=1
	.loc	29 77 10 is_stmt 0              @ ../Middlewares/CMSIS/DSP/Src/DistanceFunctions/arm_dtw_path_f32.c:77:10
	ldr	r1, [sp, #40]
	movs	r0, #1
	.loc	29 77 15                        @ ../Middlewares/CMSIS/DSP/Src/DistanceFunctions/arm_dtw_path_f32.c:77:15
	cmp	r1, #0
	str	r0, [sp, #4]                    @ 4-byte Spill
	bgt	.LBB28_3
	b	.LBB28_2
.LBB28_2:                               @   in Loop: Header=BB28_1 Depth=1
	.loc	29 77 19                        @ ../Middlewares/CMSIS/DSP/Src/DistanceFunctions/arm_dtw_path_f32.c:77:19
	ldr	r1, [sp, #36]
	movs	r0, #0
	.loc	29 77 20                        @ ../Middlewares/CMSIS/DSP/Src/DistanceFunctions/arm_dtw_path_f32.c:77:20
	cmp	r1, #0
	it	gt
	movgt	r0, #1
	.loc	29 77 15                        @ ../Middlewares/CMSIS/DSP/Src/DistanceFunctions/arm_dtw_path_f32.c:77:15
	str	r0, [sp, #4]                    @ 4-byte Spill
	b	.LBB28_3
.LBB28_3:                               @   in Loop: Header=BB28_1 Depth=1
	.loc	29 0 15                         @ ../Middlewares/CMSIS/DSP/Src/DistanceFunctions/arm_dtw_path_f32.c:0:15
	ldr	r0, [sp, #4]                    @ 4-byte Reload
	.loc	29 77 3                         @ ../Middlewares/CMSIS/DSP/Src/DistanceFunctions/arm_dtw_path_f32.c:77:3
	lsls	r0, r0, #31
	cmp	r0, #0
	beq.w	.LBB28_24
	b	.LBB28_4
.LBB28_4:                               @   in Loop: Header=BB28_1 Depth=1
	.loc	29 0 3                          @ ../Middlewares/CMSIS/DSP/Src/DistanceFunctions/arm_dtw_path_f32.c:0:3
	mov.w	r0, #-1
.Ltmp193:
	.loc	29 79 9 is_stmt 1               @ ../Middlewares/CMSIS/DSP/Src/DistanceFunctions/arm_dtw_path_f32.c:79:9
	str	r0, [sp, #28]
	movw	r0, #65535
	movt	r0, #32639
	.loc	29 80 15                        @ ../Middlewares/CMSIS/DSP/Src/DistanceFunctions/arm_dtw_path_f32.c:80:15
	str	r0, [sp, #24]
.Ltmp194:
	.loc	29 82 9                         @ ../Middlewares/CMSIS/DSP/Src/DistanceFunctions/arm_dtw_path_f32.c:82:9
	ldr	r0, [sp, #40]
.Ltmp195:
	.loc	29 82 9 is_stmt 0               @ ../Middlewares/CMSIS/DSP/Src/DistanceFunctions/arm_dtw_path_f32.c:82:9
	cmp	r0, #1
	blt	.LBB28_8
	b	.LBB28_5
.LBB28_5:                               @   in Loop: Header=BB28_1 Depth=1
.Ltmp196:
	.loc	29 84 18 is_stmt 1              @ ../Middlewares/CMSIS/DSP/Src/DistanceFunctions/arm_dtw_path_f32.c:84:18
	ldr	r1, [sp, #52]
	.loc	29 84 25 is_stmt 0              @ ../Middlewares/CMSIS/DSP/Src/DistanceFunctions/arm_dtw_path_f32.c:84:25
	ldr	r0, [r1, #4]
