	.text
	.syntax unified
	.eabi_attribute	67, "2.09"	@ Tag_conformance
	.cpu	cortex-m4
	.eabi_attribute	6, 13	@ Tag_CPU_arch
	.eabi_attribute	7, 77	@ Tag_CPU_arch_profile
	.eabi_attribute	8, 0	@ Tag_ARM_ISA_use
	.eabi_attribute	9, 2	@ Tag_THUMB_ISA_use
	.fpu	fpv4-sp-d16
	.eabi_attribute	27, 1	@ Tag_ABI_HardFP_use
	.eabi_attribute	36, 1	@ Tag_FP_HP_extension
	.eabi_attribute	34, 1	@ Tag_CPU_unaligned_access
	.eabi_attribute	17, 1	@ Tag_ABI_PCS_GOT_use
	.eabi_attribute	20, 2	@ Tag_ABI_FP_denormal
	.eabi_attribute	21, 0	@ Tag_ABI_FP_exceptions
	.eabi_attribute	23, 3	@ Tag_ABI_FP_number_model
	.eabi_attribute	24, 1	@ Tag_ABI_align_needed
	.eabi_attribute	25, 1	@ Tag_ABI_align_preserved
	.eabi_attribute	28, 1	@ Tag_ABI_VFP_args
	.eabi_attribute	38, 1	@ Tag_ABI_FP_16bit_format
	.eabi_attribute	18, 2	@ Tag_ABI_PCS_wchar_t
	.eabi_attribute	26, 1	@ Tag_ABI_enum_size
	.eabi_attribute	14, 0	@ Tag_ABI_PCS_R9_use
	.file	"DJI_Motor.c"
	.file	1 "D:\\horizon\\Horizon_Infantry (2)\\MDK-ARM" "../User/Algorithm/inc\\controller.h"
	.file	2 "D:\\horizon\\Horizon_Infantry (2)\\MDK-ARM" "../Drivers/CMSIS/Device/ST/STM32F4xx/Include\\stm32f4xx.h"
	.file	3 "D:\\horizon\\Horizon_Infantry (2)\\MDK-ARM" "../Drivers/STM32F4xx_HAL_Driver/Inc\\stm32f4xx_hal_can.h"
	.file	4 "D:\\" "kevil\\ARM\\ARMCLANG\\Bin\\..\\include\\stdint.h"
	.section	.text.RUI_F_MOTOR_CAN_RX_3508RM,"ax",%progbits
	.hidden	RUI_F_MOTOR_CAN_RX_3508RM       @ -- Begin function RUI_F_MOTOR_CAN_RX_3508RM
	.globl	RUI_F_MOTOR_CAN_RX_3508RM
	.p2align	2
	.type	RUI_F_MOTOR_CAN_RX_3508RM,%function
	.code	16                              @ @RUI_F_MOTOR_CAN_RX_3508RM
	.thumb_func
RUI_F_MOTOR_CAN_RX_3508RM:
.Lfunc_begin0:
	.file	5 "D:\\horizon\\Horizon_Infantry (2)\\MDK-ARM" "../User/Bsp/DJI_Motor.c"
	.loc	5 36 0                          @ ../User/Bsp/DJI_Motor.c:36:0
	.fnstart
	.cfi_sections .debug_frame
	.cfi_startproc
@ %bb.0:
	.pad	#8
	sub	sp, #8
	.cfi_def_cfa_offset 8
	str	r0, [sp, #4]
	str	r1, [sp]
.Ltmp0:
	.loc	5 37 24 prologue_end            @ ../User/Bsp/DJI_Motor.c:37:24
	ldr	r1, [sp, #4]
	.loc	5 37 30 is_stmt 0               @ ../User/Bsp/DJI_Motor.c:37:30
	ldrh	r0, [r1, #4]
	.loc	5 37 22                         @ ../User/Bsp/DJI_Motor.c:37:22
	strh	r0, [r1, #2]
	.loc	5 39 36 is_stmt 1               @ ../User/Bsp/DJI_Motor.c:39:36
	ldr	r0, [sp]
	ldrb	r1, [r0]
	.loc	5 39 56 is_stmt 0               @ ../User/Bsp/DJI_Motor.c:39:56
	ldrb	r0, [r0, #1]
	.loc	5 39 54                         @ ../User/Bsp/DJI_Motor.c:39:54
	orr.w	r0, r0, r1, lsl #8
	.loc	5 39 5                          @ ../User/Bsp/DJI_Motor.c:39:5
	ldr	r1, [sp, #4]
	.loc	5 39 21                         @ ../User/Bsp/DJI_Motor.c:39:21
	strh	r0, [r1, #4]
	.loc	5 41 24 is_stmt 1               @ ../User/Bsp/DJI_Motor.c:41:24
	ldr	r1, [sp, #4]
	.loc	5 41 30 is_stmt 0               @ ../User/Bsp/DJI_Motor.c:41:30
	ldrh	r0, [r1, #8]
	.loc	5 41 22                         @ ../User/Bsp/DJI_Motor.c:41:22
	strh	r0, [r1, #6]
	.loc	5 43 36 is_stmt 1               @ ../User/Bsp/DJI_Motor.c:43:36
	ldr	r0, [sp]
	ldrb	r1, [r0, #2]
	.loc	5 43 56 is_stmt 0               @ ../User/Bsp/DJI_Motor.c:43:56
	ldrb	r0, [r0, #3]
	.loc	5 43 54                         @ ../User/Bsp/DJI_Motor.c:43:54
	orr.w	r0, r0, r1, lsl #8
	.loc	5 43 5                          @ ../User/Bsp/DJI_Motor.c:43:5
	ldr	r1, [sp, #4]
	.loc	5 43 21                         @ ../User/Bsp/DJI_Motor.c:43:21
	strh	r0, [r1, #8]
	.loc	5 45 34 is_stmt 1               @ ../User/Bsp/DJI_Motor.c:45:34
	ldr	r0, [sp]
	ldrb	r1, [r0, #4]
	.loc	5 45 54 is_stmt 0               @ ../User/Bsp/DJI_Motor.c:45:54
	ldrb	r0, [r0, #5]
	.loc	5 45 52                         @ ../User/Bsp/DJI_Motor.c:45:52
	orr.w	r0, r0, r1, lsl #8
	.loc	5 45 5                          @ ../User/Bsp/DJI_Motor.c:45:5
	ldr	r1, [sp, #4]
	.loc	5 45 19                         @ ../User/Bsp/DJI_Motor.c:45:19
	strh	r0, [r1, #10]
	.loc	5 47 25 is_stmt 1               @ ../User/Bsp/DJI_Motor.c:47:25
	ldr	r0, [sp]
	ldrb	r0, [r0, #6]
	.loc	5 47 5 is_stmt 0                @ ../User/Bsp/DJI_Motor.c:47:5
	ldr	r1, [sp, #4]
	.loc	5 47 23                         @ ../User/Bsp/DJI_Motor.c:47:23
	strb	r0, [r1, #12]
.Ltmp1:
	.loc	5 51 9 is_stmt 1                @ ../User/Bsp/DJI_Motor.c:51:9
	ldr	r0, [sp, #4]
	.loc	5 51 33 is_stmt 0               @ ../User/Bsp/DJI_Motor.c:51:33
	ldrsh.w	r1, [r0, #2]
	.loc	5 51 15                         @ ../User/Bsp/DJI_Motor.c:51:15
	ldrsh.w	r0, [r0, #4]
	.loc	5 51 25                         @ ../User/Bsp/DJI_Motor.c:51:25
	subs	r0, r0, r1
.Ltmp2:
	.loc	5 51 9                          @ ../User/Bsp/DJI_Motor.c:51:9
	cmn.w	r0, #4000
	bge	.LBB0_2
	b	.LBB0_1
.LBB0_1:
.Ltmp3:
	.loc	5 53 9 is_stmt 1                @ ../User/Bsp/DJI_Motor.c:53:9
	ldr	r1, [sp, #4]
	.loc	5 53 19 is_stmt 0               @ ../User/Bsp/DJI_Motor.c:53:19
	ldrh	r0, [r1, #36]
	adds	r0, #1
	strh	r0, [r1, #36]
	.loc	5 54 5 is_stmt 1                @ ../User/Bsp/DJI_Motor.c:54:5
	b	.LBB0_5
.Ltmp4:
.LBB0_2:
	.loc	5 55 14                         @ ../User/Bsp/DJI_Motor.c:55:14
	ldr	r0, [sp, #4]
	.loc	5 55 38 is_stmt 0               @ ../User/Bsp/DJI_Motor.c:55:38
	ldrsh.w	r1, [r0, #2]
	.loc	5 55 20                         @ ../User/Bsp/DJI_Motor.c:55:20
	ldrsh.w	r0, [r0, #4]
	.loc	5 55 30                         @ ../User/Bsp/DJI_Motor.c:55:30
	subs	r0, r0, r1
.Ltmp5:
	.loc	5 55 14                         @ ../User/Bsp/DJI_Motor.c:55:14
	cmp.w	r0, #4000
	ble	.LBB0_4
	b	.LBB0_3
.LBB0_3:
.Ltmp6:
	.loc	5 57 9 is_stmt 1                @ ../User/Bsp/DJI_Motor.c:57:9
	ldr	r1, [sp, #4]
	.loc	5 57 19 is_stmt 0               @ ../User/Bsp/DJI_Motor.c:57:19
	ldrh	r0, [r1, #36]
	subs	r0, #1
	strh	r0, [r1, #36]
	.loc	5 58 5 is_stmt 1                @ ../User/Bsp/DJI_Motor.c:58:5
	b	.LBB0_4
.Ltmp7:
.LBB0_4:
	.loc	5 0 5 is_stmt 0                 @ ../User/Bsp/DJI_Motor.c:0:5
	b	.LBB0_5
.LBB0_5:
.Ltmp8:
	.loc	5 60 10 is_stmt 1               @ ../User/Bsp/DJI_Motor.c:60:10
	ldr	r0, [sp, #4]
	.loc	5 60 16 is_stmt 0               @ ../User/Bsp/DJI_Motor.c:60:16
	ldrsh.w	r2, [r0, #36]
	movw	r0, #32500
	movs	r1, #0
	.loc	5 60 21                         @ ../User/Bsp/DJI_Motor.c:60:21
	cmp	r2, r0
	mov	r0, r1
	it	gt
	movgt	r0, #1
	movw	r3, #33036
	movt	r3, #65535
	.loc	5 60 44                         @ ../User/Bsp/DJI_Motor.c:60:44
	cmp	r2, r3
	it	lt
	movlt	r1, #1
	.loc	5 60 30                         @ ../User/Bsp/DJI_Motor.c:60:30
	orrs	r0, r1
.Ltmp9:
	.loc	5 60 9                          @ ../User/Bsp/DJI_Motor.c:60:9
	cbz	r0, .LBB0_7
	b	.LBB0_6
.LBB0_6:
.Ltmp10:
	.loc	5 62 9 is_stmt 1                @ ../User/Bsp/DJI_Motor.c:62:9
	ldr	r1, [sp, #4]
	movs	r0, #0
	.loc	5 62 20 is_stmt 0               @ ../User/Bsp/DJI_Motor.c:62:20
	strh	r0, [r1, #36]
	.loc	5 63 21 is_stmt 1               @ ../User/Bsp/DJI_Motor.c:63:21
	ldr	r0, [sp, #4]
	.loc	5 63 27 is_stmt 0               @ ../User/Bsp/DJI_Motor.c:63:27
	ldrsh.w	r1, [r0, #4]
	.loc	5 63 21                         @ ../User/Bsp/DJI_Motor.c:63:21
	vmov	s0, r1
	vcvt.f32.s32	s0, s0
	.loc	5 63 19                         @ ../User/Bsp/DJI_Motor.c:63:19
	vstr	s0, [r0, #44]
	.loc	5 64 5 is_stmt 1                @ ../User/Bsp/DJI_Motor.c:64:5
	b	.LBB0_7
.Ltmp11:
.LBB0_7:
	.loc	5 66 5                          @ ../User/Bsp/DJI_Motor.c:66:5
	ldr	r1, [sp, #4]
	movs	r0, #15
	.loc	5 66 29 is_stmt 0               @ ../User/Bsp/DJI_Motor.c:66:29
	strb	r0, [r1]
	.loc	5 68 40 is_stmt 1               @ ../User/Bsp/DJI_Motor.c:68:40
	ldr	r1, [sp, #4]
	.loc	5 68 65 is_stmt 0               @ ../User/Bsp/DJI_Motor.c:68:65
	ldrsh.w	r0, [r1, #4]
	.loc	5 68 46                         @ ../User/Bsp/DJI_Motor.c:68:46
	ldrsh.w	r2, [r1, #36]
	.loc	5 68 57                         @ ../User/Bsp/DJI_Motor.c:68:57
	add.w	r0, r0, r2, lsl #13
	.loc	5 68 26                         @ ../User/Bsp/DJI_Motor.c:68:26
	str	r0, [r1, #16]
	.loc	5 70 1 is_stmt 1                @ ../User/Bsp/DJI_Motor.c:70:1
	add	sp, #8
	bx	lr
.Ltmp12:
.Lfunc_end0:
	.size	RUI_F_MOTOR_CAN_RX_3508RM, .Lfunc_end0-RUI_F_MOTOR_CAN_RX_3508RM
	.cfi_endproc
	.cantunwind
	.fnend
                                        @ -- End function
	.section	.text.RUI_F_MOTOR_CAN_RX_3508RM_rc,"ax",%progbits
	.hidden	RUI_F_MOTOR_CAN_RX_3508RM_rc    @ -- Begin function RUI_F_MOTOR_CAN_RX_3508RM_rc
	.globl	RUI_F_MOTOR_CAN_RX_3508RM_rc
	.p2align	2
	.type	RUI_F_MOTOR_CAN_RX_3508RM_rc,%function
	.code	16                              @ @RUI_F_MOTOR_CAN_RX_3508RM_rc
	.thumb_func
RUI_F_MOTOR_CAN_RX_3508RM_rc:
.Lfunc_begin1:
	.loc	5 72 0                          @ ../User/Bsp/DJI_Motor.c:72:0
	.fnstart
	.cfi_startproc
@ %bb.0:
	.save	{r7, lr}
	push	{r7, lr}
	.cfi_def_cfa_offset 8
	.cfi_offset lr, -4
	.cfi_offset r7, -8
	.pad	#8
	sub	sp, #8
	.cfi_def_cfa_offset 16
	str	r0, [sp, #4]
	str	r1, [sp]
.Ltmp13:
	.loc	5 73 24 prologue_end            @ ../User/Bsp/DJI_Motor.c:73:24
	ldr	r1, [sp, #4]
	.loc	5 73 30 is_stmt 0               @ ../User/Bsp/DJI_Motor.c:73:30
	ldrh	r0, [r1, #4]
	.loc	5 73 22                         @ ../User/Bsp/DJI_Motor.c:73:22
	strh	r0, [r1, #2]
	.loc	5 75 36 is_stmt 1               @ ../User/Bsp/DJI_Motor.c:75:36
	ldr	r0, [sp]
	ldrb	r1, [r0]
	.loc	5 75 56 is_stmt 0               @ ../User/Bsp/DJI_Motor.c:75:56
	ldrb	r0, [r0, #1]
	.loc	5 75 54                         @ ../User/Bsp/DJI_Motor.c:75:54
	orr.w	r0, r0, r1, lsl #8
	.loc	5 75 5                          @ ../User/Bsp/DJI_Motor.c:75:5
	ldr	r1, [sp, #4]
	.loc	5 75 21                         @ ../User/Bsp/DJI_Motor.c:75:21
	strh	r0, [r1, #4]
	.loc	5 77 24 is_stmt 1               @ ../User/Bsp/DJI_Motor.c:77:24
	ldr	r1, [sp, #4]
	.loc	5 77 30 is_stmt 0               @ ../User/Bsp/DJI_Motor.c:77:30
	ldrh	r0, [r1, #8]
	.loc	5 77 22                         @ ../User/Bsp/DJI_Motor.c:77:22
	strh	r0, [r1, #6]
	.loc	5 79 36 is_stmt 1               @ ../User/Bsp/DJI_Motor.c:79:36
	ldr	r0, [sp]
	ldrb	r1, [r0, #2]
	.loc	5 79 56 is_stmt 0               @ ../User/Bsp/DJI_Motor.c:79:56
	ldrb	r0, [r0, #3]
	.loc	5 79 54                         @ ../User/Bsp/DJI_Motor.c:79:54
	orr.w	r0, r0, r1, lsl #8
	.loc	5 79 5                          @ ../User/Bsp/DJI_Motor.c:79:5
	ldr	r1, [sp, #4]
	.loc	5 79 21                         @ ../User/Bsp/DJI_Motor.c:79:21
	strh	r0, [r1, #8]
	.loc	5 81 34 is_stmt 1               @ ../User/Bsp/DJI_Motor.c:81:34
	ldr	r0, [sp]
	ldrb	r1, [r0, #4]
	.loc	5 81 54 is_stmt 0               @ ../User/Bsp/DJI_Motor.c:81:54
	ldrb	r0, [r0, #5]
	.loc	5 81 52                         @ ../User/Bsp/DJI_Motor.c:81:52
	orr.w	r0, r0, r1, lsl #8
	.loc	5 81 5                          @ ../User/Bsp/DJI_Motor.c:81:5
	ldr	r1, [sp, #4]
	.loc	5 81 19                         @ ../User/Bsp/DJI_Motor.c:81:19
	strh	r0, [r1, #10]
	.loc	5 83 25 is_stmt 1               @ ../User/Bsp/DJI_Motor.c:83:25
	ldr	r0, [sp]
	ldrb	r0, [r0, #6]
	.loc	5 83 5 is_stmt 0                @ ../User/Bsp/DJI_Motor.c:83:5
	ldr	r1, [sp, #4]
	.loc	5 83 23                         @ ../User/Bsp/DJI_Motor.c:83:23
	strb	r0, [r1, #12]
	.loc	5 85 33 is_stmt 1               @ ../User/Bsp/DJI_Motor.c:85:33
	ldr	r0, [sp, #4]
	.loc	5 85 56 is_stmt 0               @ ../User/Bsp/DJI_Motor.c:85:56
	ldrsh.w	r1, [r0, #6]
	.loc	5 85 39                         @ ../User/Bsp/DJI_Motor.c:85:39
	ldrsh.w	r0, [r0, #8]
	vldr	s0, .LCPI1_0
	vldr	s2, .LCPI1_1
	.loc	5 85 22                         @ ../User/Bsp/DJI_Motor.c:85:22
	vmov.f32	s1, s2
	bl	OneFilter1
	.loc	5 85 4                          @ ../User/Bsp/DJI_Motor.c:85:4
	ldr	r1, [sp, #4]
	.loc	5 85 20                         @ ../User/Bsp/DJI_Motor.c:85:20
	strh	r0, [r1, #8]
.Ltmp14:
	.loc	5 87 9 is_stmt 1                @ ../User/Bsp/DJI_Motor.c:87:9
	ldr	r0, [sp, #4]
	.loc	5 87 33 is_stmt 0               @ ../User/Bsp/DJI_Motor.c:87:33
	ldrsh.w	r1, [r0, #2]
	.loc	5 87 15                         @ ../User/Bsp/DJI_Motor.c:87:15
	ldrsh.w	r0, [r0, #4]
	.loc	5 87 25                         @ ../User/Bsp/DJI_Motor.c:87:25
	subs	r0, r0, r1
.Ltmp15:
	.loc	5 87 9                          @ ../User/Bsp/DJI_Motor.c:87:9
	cmn.w	r0, #4000
	bge	.LBB1_2
	b	.LBB1_1
.LBB1_1:
.Ltmp16:
	.loc	5 89 9 is_stmt 1                @ ../User/Bsp/DJI_Motor.c:89:9
	ldr	r1, [sp, #4]
	.loc	5 89 19 is_stmt 0               @ ../User/Bsp/DJI_Motor.c:89:19
	ldrh	r0, [r1, #36]
	adds	r0, #1
	strh	r0, [r1, #36]
	.loc	5 90 5 is_stmt 1                @ ../User/Bsp/DJI_Motor.c:90:5
	b	.LBB1_5
.Ltmp17:
.LBB1_2:
	.loc	5 91 14                         @ ../User/Bsp/DJI_Motor.c:91:14
	ldr	r0, [sp, #4]
	.loc	5 91 38 is_stmt 0               @ ../User/Bsp/DJI_Motor.c:91:38
	ldrsh.w	r1, [r0, #2]
	.loc	5 91 20                         @ ../User/Bsp/DJI_Motor.c:91:20
	ldrsh.w	r0, [r0, #4]
	.loc	5 91 30                         @ ../User/Bsp/DJI_Motor.c:91:30
	subs	r0, r0, r1
.Ltmp18:
	.loc	5 91 14                         @ ../User/Bsp/DJI_Motor.c:91:14
	cmp.w	r0, #4000
	ble	.LBB1_4
	b	.LBB1_3
.LBB1_3:
.Ltmp19:
	.loc	5 93 9 is_stmt 1                @ ../User/Bsp/DJI_Motor.c:93:9
	ldr	r1, [sp, #4]
	.loc	5 93 19 is_stmt 0               @ ../User/Bsp/DJI_Motor.c:93:19
	ldrh	r0, [r1, #36]
	subs	r0, #1
	strh	r0, [r1, #36]
	.loc	5 94 5 is_stmt 1                @ ../User/Bsp/DJI_Motor.c:94:5
	b	.LBB1_4
.Ltmp20:
.LBB1_4:
	.loc	5 0 5 is_stmt 0                 @ ../User/Bsp/DJI_Motor.c:0:5
	b	.LBB1_5
.LBB1_5:
.Ltmp21:
	.loc	5 96 10 is_stmt 1               @ ../User/Bsp/DJI_Motor.c:96:10
	ldr	r0, [sp, #4]
	.loc	5 96 16 is_stmt 0               @ ../User/Bsp/DJI_Motor.c:96:16
	ldrsh.w	r2, [r0, #36]
	movw	r0, #32500
	movs	r1, #0
	.loc	5 96 21                         @ ../User/Bsp/DJI_Motor.c:96:21
	cmp	r2, r0
	mov	r0, r1
	it	gt
	movgt	r0, #1
	movw	r3, #33036
	movt	r3, #65535
	.loc	5 96 44                         @ ../User/Bsp/DJI_Motor.c:96:44
	cmp	r2, r3
	it	lt
	movlt	r1, #1
	.loc	5 96 30                         @ ../User/Bsp/DJI_Motor.c:96:30
	orrs	r0, r1
.Ltmp22:
	.loc	5 96 9                          @ ../User/Bsp/DJI_Motor.c:96:9
	cbz	r0, .LBB1_7
	b	.LBB1_6
.LBB1_6:
.Ltmp23:
	.loc	5 98 9 is_stmt 1                @ ../User/Bsp/DJI_Motor.c:98:9
	ldr	r1, [sp, #4]
	movs	r0, #0
	.loc	5 98 20 is_stmt 0               @ ../User/Bsp/DJI_Motor.c:98:20
	strh	r0, [r1, #36]
	.loc	5 99 21 is_stmt 1               @ ../User/Bsp/DJI_Motor.c:99:21
	ldr	r0, [sp, #4]
	.loc	5 99 27 is_stmt 0               @ ../User/Bsp/DJI_Motor.c:99:27
	ldrsh.w	r1, [r0, #4]
	.loc	5 99 21                         @ ../User/Bsp/DJI_Motor.c:99:21
	vmov	s0, r1
	vcvt.f32.s32	s0, s0
	.loc	5 99 19                         @ ../User/Bsp/DJI_Motor.c:99:19
	vstr	s0, [r0, #44]
	.loc	5 100 5 is_stmt 1               @ ../User/Bsp/DJI_Motor.c:100:5
	b	.LBB1_7
.Ltmp24:
.LBB1_7:
	.loc	5 102 5                         @ ../User/Bsp/DJI_Motor.c:102:5
	ldr	r1, [sp, #4]
	movs	r0, #15
	.loc	5 102 29 is_stmt 0              @ ../User/Bsp/DJI_Motor.c:102:29
	strb	r0, [r1]
	.loc	5 104 40 is_stmt 1              @ ../User/Bsp/DJI_Motor.c:104:40
	ldr	r1, [sp, #4]
	.loc	5 104 65 is_stmt 0              @ ../User/Bsp/DJI_Motor.c:104:65
	ldrsh.w	r0, [r1, #4]
	.loc	5 104 46                        @ ../User/Bsp/DJI_Motor.c:104:46
	ldrsh.w	r2, [r1, #36]
	.loc	5 104 57                        @ ../User/Bsp/DJI_Motor.c:104:57
	add.w	r0, r0, r2, lsl #13
	.loc	5 104 26                        @ ../User/Bsp/DJI_Motor.c:104:26
	str	r0, [r1, #16]
	.loc	5 106 1 is_stmt 1               @ ../User/Bsp/DJI_Motor.c:106:1
	add	sp, #8
	pop	{r7, pc}
.Ltmp25:
	.p2align	2
@ %bb.8:
	.loc	5 0 1 is_stmt 0                 @ ../User/Bsp/DJI_Motor.c:0:1
.LCPI1_0:
	.long	0x43fa0000                      @ float 500
.LCPI1_1:
	.long	0x3f4ccccd                      @ float 0.800000011
.Lfunc_end1:
	.size	RUI_F_MOTOR_CAN_RX_3508RM_rc, .Lfunc_end1-RUI_F_MOTOR_CAN_RX_3508RM_rc
	.cfi_endproc
	.cantunwind
	.fnend
                                        @ -- End function
	.section	.text.RUI_F_MOTOR_CAN_RX_2006RM,"ax",%progbits
	.hidden	RUI_F_MOTOR_CAN_RX_2006RM       @ -- Begin function RUI_F_MOTOR_CAN_RX_2006RM
	.globl	RUI_F_MOTOR_CAN_RX_2006RM
	.p2align	2
	.type	RUI_F_MOTOR_CAN_RX_2006RM,%function
	.code	16                              @ @RUI_F_MOTOR_CAN_RX_2006RM
	.thumb_func
RUI_F_MOTOR_CAN_RX_2006RM:
.Lfunc_begin2:
	.loc	5 116 0 is_stmt 1               @ ../User/Bsp/DJI_Motor.c:116:0
	.fnstart
	.cfi_startproc
@ %bb.0:
	.pad	#8
	sub	sp, #8
	.cfi_def_cfa_offset 8
	str	r0, [sp, #4]
	str	r1, [sp]
.Ltmp26:
	.loc	5 117 24 prologue_end           @ ../User/Bsp/DJI_Motor.c:117:24
	ldr	r1, [sp, #4]
	.loc	5 117 30 is_stmt 0              @ ../User/Bsp/DJI_Motor.c:117:30
	ldrh	r0, [r1, #4]
	.loc	5 117 22                        @ ../User/Bsp/DJI_Motor.c:117:22
	strh	r0, [r1, #2]
	.loc	5 119 36 is_stmt 1              @ ../User/Bsp/DJI_Motor.c:119:36
	ldr	r0, [sp]
	ldrb	r1, [r0]
	.loc	5 119 56 is_stmt 0              @ ../User/Bsp/DJI_Motor.c:119:56
	ldrb	r0, [r0, #1]
	.loc	5 119 54                        @ ../User/Bsp/DJI_Motor.c:119:54
	orr.w	r0, r0, r1, lsl #8
	.loc	5 119 5                         @ ../User/Bsp/DJI_Motor.c:119:5
	ldr	r1, [sp, #4]
	.loc	5 119 21                        @ ../User/Bsp/DJI_Motor.c:119:21
	strh	r0, [r1, #4]
	.loc	5 121 24 is_stmt 1              @ ../User/Bsp/DJI_Motor.c:121:24
	ldr	r1, [sp, #4]
	.loc	5 121 30 is_stmt 0              @ ../User/Bsp/DJI_Motor.c:121:30
	ldrh	r0, [r1, #8]
	.loc	5 121 22                        @ ../User/Bsp/DJI_Motor.c:121:22
	strh	r0, [r1, #6]
	.loc	5 123 36 is_stmt 1              @ ../User/Bsp/DJI_Motor.c:123:36
	ldr	r0, [sp]
	ldrb	r1, [r0, #2]
	.loc	5 123 56 is_stmt 0              @ ../User/Bsp/DJI_Motor.c:123:56
	ldrb	r0, [r0, #3]
	.loc	5 123 54                        @ ../User/Bsp/DJI_Motor.c:123:54
	orr.w	r0, r0, r1, lsl #8
	.loc	5 123 5                         @ ../User/Bsp/DJI_Motor.c:123:5
	ldr	r1, [sp, #4]
	.loc	5 123 21                        @ ../User/Bsp/DJI_Motor.c:123:21
	strh	r0, [r1, #8]
	.loc	5 125 34 is_stmt 1              @ ../User/Bsp/DJI_Motor.c:125:34
	ldr	r0, [sp]
	ldrb	r1, [r0, #4]
	.loc	5 125 54 is_stmt 0              @ ../User/Bsp/DJI_Motor.c:125:54
	ldrb	r0, [r0, #5]
	.loc	5 125 52                        @ ../User/Bsp/DJI_Motor.c:125:52
	orr.w	r0, r0, r1, lsl #8
	.loc	5 125 5                         @ ../User/Bsp/DJI_Motor.c:125:5
	ldr	r1, [sp, #4]
	.loc	5 125 19                        @ ../User/Bsp/DJI_Motor.c:125:19
	strh	r0, [r1, #10]
.Ltmp27:
	.loc	5 127 9 is_stmt 1               @ ../User/Bsp/DJI_Motor.c:127:9
	ldr	r0, [sp, #4]
	.loc	5 127 33 is_stmt 0              @ ../User/Bsp/DJI_Motor.c:127:33
	ldrsh.w	r1, [r0, #2]
	.loc	5 127 15                        @ ../User/Bsp/DJI_Motor.c:127:15
	ldrsh.w	r0, [r0, #4]
	.loc	5 127 25                        @ ../User/Bsp/DJI_Motor.c:127:25
	subs	r0, r0, r1
.Ltmp28:
	.loc	5 127 9                         @ ../User/Bsp/DJI_Motor.c:127:9
	cmn.w	r0, #4000
	bge	.LBB2_2
	b	.LBB2_1
.LBB2_1:
.Ltmp29:
	.loc	5 129 9 is_stmt 1               @ ../User/Bsp/DJI_Motor.c:129:9
	ldr	r1, [sp, #4]
	.loc	5 129 19 is_stmt 0              @ ../User/Bsp/DJI_Motor.c:129:19
	ldrh	r0, [r1, #36]
	adds	r0, #1
	strh	r0, [r1, #36]
	.loc	5 130 5 is_stmt 1               @ ../User/Bsp/DJI_Motor.c:130:5
	b	.LBB2_5
.Ltmp30:
.LBB2_2:
	.loc	5 131 14                        @ ../User/Bsp/DJI_Motor.c:131:14
	ldr	r0, [sp, #4]
	.loc	5 131 38 is_stmt 0              @ ../User/Bsp/DJI_Motor.c:131:38
	ldrsh.w	r1, [r0, #2]
	.loc	5 131 20                        @ ../User/Bsp/DJI_Motor.c:131:20
	ldrsh.w	r0, [r0, #4]
	.loc	5 131 30                        @ ../User/Bsp/DJI_Motor.c:131:30
	subs	r0, r0, r1
.Ltmp31:
	.loc	5 131 14                        @ ../User/Bsp/DJI_Motor.c:131:14
	cmp.w	r0, #4000
	ble	.LBB2_4
	b	.LBB2_3
.LBB2_3:
.Ltmp32:
	.loc	5 133 9 is_stmt 1               @ ../User/Bsp/DJI_Motor.c:133:9
	ldr	r1, [sp, #4]
	.loc	5 133 19 is_stmt 0              @ ../User/Bsp/DJI_Motor.c:133:19
	ldrh	r0, [r1, #36]
	subs	r0, #1
	strh	r0, [r1, #36]
	.loc	5 134 5 is_stmt 1               @ ../User/Bsp/DJI_Motor.c:134:5
	b	.LBB2_4
.Ltmp33:
.LBB2_4:
	.loc	5 0 5 is_stmt 0                 @ ../User/Bsp/DJI_Motor.c:0:5
	b	.LBB2_5
.LBB2_5:
.Ltmp34:
	.loc	5 136 10 is_stmt 1              @ ../User/Bsp/DJI_Motor.c:136:10
	ldr	r0, [sp, #4]
	.loc	5 136 16 is_stmt 0              @ ../User/Bsp/DJI_Motor.c:136:16
	ldrsh.w	r2, [r0, #36]
	movw	r0, #32500
	movs	r1, #0
	.loc	5 136 21                        @ ../User/Bsp/DJI_Motor.c:136:21
	cmp	r2, r0
	mov	r0, r1
	it	gt
	movgt	r0, #1
	movw	r3, #33036
	movt	r3, #65535
	.loc	5 136 44                        @ ../User/Bsp/DJI_Motor.c:136:44
	cmp	r2, r3
	it	lt
	movlt	r1, #1
	.loc	5 136 30                        @ ../User/Bsp/DJI_Motor.c:136:30
	orrs	r0, r1
.Ltmp35:
	.loc	5 136 9                         @ ../User/Bsp/DJI_Motor.c:136:9
	cbz	r0, .LBB2_7
	b	.LBB2_6
.LBB2_6:
.Ltmp36:
	.loc	5 138 9 is_stmt 1               @ ../User/Bsp/DJI_Motor.c:138:9
	ldr	r1, [sp, #4]
	movs	r0, #0
	.loc	5 138 20 is_stmt 0              @ ../User/Bsp/DJI_Motor.c:138:20
	strh	r0, [r1, #36]
	.loc	5 139 21 is_stmt 1              @ ../User/Bsp/DJI_Motor.c:139:21
	ldr	r0, [sp, #4]
	.loc	5 139 27 is_stmt 0              @ ../User/Bsp/DJI_Motor.c:139:27
	ldrsh.w	r1, [r0, #4]
	.loc	5 139 21                        @ ../User/Bsp/DJI_Motor.c:139:21
	vmov	s0, r1
	vcvt.f32.s32	s0, s0
	.loc	5 139 19                        @ ../User/Bsp/DJI_Motor.c:139:19
	vstr	s0, [r0, #44]
	.loc	5 140 5 is_stmt 1               @ ../User/Bsp/DJI_Motor.c:140:5
	b	.LBB2_7
.Ltmp37:
.LBB2_7:
	.loc	5 142 40                        @ ../User/Bsp/DJI_Motor.c:142:40
	ldr	r1, [sp, #4]
	.loc	5 142 66 is_stmt 0              @ ../User/Bsp/DJI_Motor.c:142:66
	ldrsh.w	r0, [r1, #4]
	.loc	5 142 46                        @ ../User/Bsp/DJI_Motor.c:142:46
	ldrsh.w	r2, [r1, #36]
	.loc	5 142 58                        @ ../User/Bsp/DJI_Motor.c:142:58
	add.w	r0, r0, r2, lsl #13
	.loc	5 142 26                        @ ../User/Bsp/DJI_Motor.c:142:26
	str	r0, [r1, #16]
	.loc	5 143 5 is_stmt 1               @ ../User/Bsp/DJI_Motor.c:143:5
	ldr	r1, [sp, #4]
	movs	r0, #15
	.loc	5 143 29 is_stmt 0              @ ../User/Bsp/DJI_Motor.c:143:29
	strb	r0, [r1]
	.loc	5 144 1 is_stmt 1               @ ../User/Bsp/DJI_Motor.c:144:1
	add	sp, #8
	bx	lr
.Ltmp38:
.Lfunc_end2:
	.size	RUI_F_MOTOR_CAN_RX_2006RM, .Lfunc_end2-RUI_F_MOTOR_CAN_RX_2006RM
	.cfi_endproc
	.cantunwind
	.fnend
                                        @ -- End function
	.section	.text.WHW_F_MOTOR_CAN_RX_6020RM,"ax",%progbits
	.hidden	WHW_F_MOTOR_CAN_RX_6020RM       @ -- Begin function WHW_F_MOTOR_CAN_RX_6020RM
	.globl	WHW_F_MOTOR_CAN_RX_6020RM
	.p2align	2
	.type	WHW_F_MOTOR_CAN_RX_6020RM,%function
	.code	16                              @ @WHW_F_MOTOR_CAN_RX_6020RM
	.thumb_func
WHW_F_MOTOR_CAN_RX_6020RM:
.Lfunc_begin3:
	.loc	5 154 0                         @ ../User/Bsp/DJI_Motor.c:154:0
	.fnstart
	.cfi_startproc
@ %bb.0:
	.pad	#8
	sub	sp, #8
	.cfi_def_cfa_offset 8
	str	r0, [sp, #4]
	str	r1, [sp]
.Ltmp39:
	.loc	5 155 24 prologue_end           @ ../User/Bsp/DJI_Motor.c:155:24
	ldr	r1, [sp, #4]
	.loc	5 155 30 is_stmt 0              @ ../User/Bsp/DJI_Motor.c:155:30
	ldrh	r0, [r1, #4]
	.loc	5 155 22                        @ ../User/Bsp/DJI_Motor.c:155:22
	strh	r0, [r1, #2]
	.loc	5 157 36 is_stmt 1              @ ../User/Bsp/DJI_Motor.c:157:36
	ldr	r0, [sp]
	ldrb	r1, [r0]
	.loc	5 157 56 is_stmt 0              @ ../User/Bsp/DJI_Motor.c:157:56
	ldrb	r0, [r0, #1]
	.loc	5 157 54                        @ ../User/Bsp/DJI_Motor.c:157:54
	orr.w	r0, r0, r1, lsl #8
	.loc	5 157 5                         @ ../User/Bsp/DJI_Motor.c:157:5
	ldr	r1, [sp, #4]
	.loc	5 157 21                        @ ../User/Bsp/DJI_Motor.c:157:21
	strh	r0, [r1, #4]
	.loc	5 159 24 is_stmt 1              @ ../User/Bsp/DJI_Motor.c:159:24
	ldr	r1, [sp, #4]
	.loc	5 159 30 is_stmt 0              @ ../User/Bsp/DJI_Motor.c:159:30
	ldrh	r0, [r1, #8]
	.loc	5 159 22                        @ ../User/Bsp/DJI_Motor.c:159:22
	strh	r0, [r1, #6]
	.loc	5 161 36 is_stmt 1              @ ../User/Bsp/DJI_Motor.c:161:36
	ldr	r0, [sp]
	ldrb	r1, [r0, #2]
	.loc	5 161 56 is_stmt 0              @ ../User/Bsp/DJI_Motor.c:161:56
	ldrb	r0, [r0, #3]
	.loc	5 161 54                        @ ../User/Bsp/DJI_Motor.c:161:54
	orr.w	r0, r0, r1, lsl #8
	.loc	5 161 5                         @ ../User/Bsp/DJI_Motor.c:161:5
	ldr	r1, [sp, #4]
	.loc	5 161 21                        @ ../User/Bsp/DJI_Motor.c:161:21
	strh	r0, [r1, #8]
	.loc	5 163 34 is_stmt 1              @ ../User/Bsp/DJI_Motor.c:163:34
	ldr	r0, [sp]
	ldrb	r1, [r0, #4]
	.loc	5 163 54 is_stmt 0              @ ../User/Bsp/DJI_Motor.c:163:54
	ldrb	r0, [r0, #5]
	.loc	5 163 52                        @ ../User/Bsp/DJI_Motor.c:163:52
	orr.w	r0, r0, r1, lsl #8
	.loc	5 163 5                         @ ../User/Bsp/DJI_Motor.c:163:5
	ldr	r1, [sp, #4]
	.loc	5 163 19                        @ ../User/Bsp/DJI_Motor.c:163:19
	strh	r0, [r1, #10]
	.loc	5 165 25 is_stmt 1              @ ../User/Bsp/DJI_Motor.c:165:25
	ldr	r0, [sp]
	ldrb	r0, [r0, #6]
	.loc	5 165 5 is_stmt 0               @ ../User/Bsp/DJI_Motor.c:165:5
	ldr	r1, [sp, #4]
	.loc	5 165 23                        @ ../User/Bsp/DJI_Motor.c:165:23
	strb	r0, [r1, #12]
.Ltmp40:
	.loc	5 170 9 is_stmt 1               @ ../User/Bsp/DJI_Motor.c:170:9
	ldr	r0, [sp, #4]
	.loc	5 170 33 is_stmt 0              @ ../User/Bsp/DJI_Motor.c:170:33
	ldrsh.w	r1, [r0, #2]
	.loc	5 170 15                        @ ../User/Bsp/DJI_Motor.c:170:15
	ldrsh.w	r0, [r0, #4]
	.loc	5 170 25                        @ ../User/Bsp/DJI_Motor.c:170:25
	subs	r0, r0, r1
.Ltmp41:
	.loc	5 170 9                         @ ../User/Bsp/DJI_Motor.c:170:9
	cmn.w	r0, #4000
	bge	.LBB3_2
	b	.LBB3_1
.LBB3_1:
.Ltmp42:
	.loc	5 172 9 is_stmt 1               @ ../User/Bsp/DJI_Motor.c:172:9
	ldr	r1, [sp, #4]
	.loc	5 172 19 is_stmt 0              @ ../User/Bsp/DJI_Motor.c:172:19
	ldrh	r0, [r1, #36]
	adds	r0, #1
	strh	r0, [r1, #36]
	.loc	5 173 5 is_stmt 1               @ ../User/Bsp/DJI_Motor.c:173:5
	b	.LBB3_5
.Ltmp43:
.LBB3_2:
	.loc	5 174 14                        @ ../User/Bsp/DJI_Motor.c:174:14
	ldr	r0, [sp, #4]
	.loc	5 174 38 is_stmt 0              @ ../User/Bsp/DJI_Motor.c:174:38
	ldrsh.w	r1, [r0, #2]
	.loc	5 174 20                        @ ../User/Bsp/DJI_Motor.c:174:20
	ldrsh.w	r0, [r0, #4]
	.loc	5 174 30                        @ ../User/Bsp/DJI_Motor.c:174:30
	subs	r0, r0, r1
.Ltmp44:
	.loc	5 174 14                        @ ../User/Bsp/DJI_Motor.c:174:14
	cmp.w	r0, #4000
	ble	.LBB3_4
	b	.LBB3_3
.LBB3_3:
.Ltmp45:
	.loc	5 176 9 is_stmt 1               @ ../User/Bsp/DJI_Motor.c:176:9
	ldr	r1, [sp, #4]
	.loc	5 176 19 is_stmt 0              @ ../User/Bsp/DJI_Motor.c:176:19
	ldrh	r0, [r1, #36]
	subs	r0, #1
	strh	r0, [r1, #36]
	.loc	5 177 5 is_stmt 1               @ ../User/Bsp/DJI_Motor.c:177:5
	b	.LBB3_4
.Ltmp46:
.LBB3_4:
	.loc	5 0 5 is_stmt 0                 @ ../User/Bsp/DJI_Motor.c:0:5
	b	.LBB3_5
.LBB3_5:
.Ltmp47:
	.loc	5 179 10 is_stmt 1              @ ../User/Bsp/DJI_Motor.c:179:10
	ldr	r0, [sp, #4]
	.loc	5 179 16 is_stmt 0              @ ../User/Bsp/DJI_Motor.c:179:16
	ldrsh.w	r2, [r0, #36]
	movw	r0, #32500
	movs	r1, #0
	.loc	5 179 21                        @ ../User/Bsp/DJI_Motor.c:179:21
	cmp	r2, r0
	mov	r0, r1
	it	gt
	movgt	r0, #1
	movw	r3, #33036
	movt	r3, #65535
	.loc	5 179 44                        @ ../User/Bsp/DJI_Motor.c:179:44
	cmp	r2, r3
	it	lt
	movlt	r1, #1
	.loc	5 179 30                        @ ../User/Bsp/DJI_Motor.c:179:30
	orrs	r0, r1
.Ltmp48:
	.loc	5 179 9                         @ ../User/Bsp/DJI_Motor.c:179:9
	cbz	r0, .LBB3_7
	b	.LBB3_6
.LBB3_6:
.Ltmp49:
	.loc	5 181 9 is_stmt 1               @ ../User/Bsp/DJI_Motor.c:181:9
	ldr	r1, [sp, #4]
	movs	r0, #0
	.loc	5 181 20 is_stmt 0              @ ../User/Bsp/DJI_Motor.c:181:20
	strh	r0, [r1, #36]
	.loc	5 182 21 is_stmt 1              @ ../User/Bsp/DJI_Motor.c:182:21
	ldr	r0, [sp, #4]
	.loc	5 182 27 is_stmt 0              @ ../User/Bsp/DJI_Motor.c:182:27
	ldrsh.w	r1, [r0, #4]
	.loc	5 182 21                        @ ../User/Bsp/DJI_Motor.c:182:21
	vmov	s0, r1
	vcvt.f32.s32	s0, s0
	.loc	5 182 19                        @ ../User/Bsp/DJI_Motor.c:182:19
	vstr	s0, [r0, #44]
	.loc	5 183 5 is_stmt 1               @ ../User/Bsp/DJI_Motor.c:183:5
	b	.LBB3_7
.Ltmp50:
.LBB3_7:
	.loc	5 185 5                         @ ../User/Bsp/DJI_Motor.c:185:5
	ldr	r1, [sp, #4]
	movs	r0, #15
	.loc	5 185 29 is_stmt 0              @ ../User/Bsp/DJI_Motor.c:185:29
	strb	r0, [r1]
	.loc	5 187 40 is_stmt 1              @ ../User/Bsp/DJI_Motor.c:187:40
	ldr	r1, [sp, #4]
	.loc	5 187 65 is_stmt 0              @ ../User/Bsp/DJI_Motor.c:187:65
	ldrsh.w	r0, [r1, #4]
	.loc	5 187 46                        @ ../User/Bsp/DJI_Motor.c:187:46
	ldrsh.w	r2, [r1, #36]
	.loc	5 187 57                        @ ../User/Bsp/DJI_Motor.c:187:57
	add.w	r0, r0, r2, lsl #13
	.loc	5 187 26                        @ ../User/Bsp/DJI_Motor.c:187:26
	str	r0, [r1, #16]
	.loc	5 189 1 is_stmt 1               @ ../User/Bsp/DJI_Motor.c:189:1
	add	sp, #8
	bx	lr
.Ltmp51:
.Lfunc_end3:
	.size	WHW_F_MOTOR_CAN_RX_6020RM, .Lfunc_end3-WHW_F_MOTOR_CAN_RX_6020RM
	.cfi_endproc
	.cantunwind
	.fnend
                                        @ -- End function
	.section	.text.LK_MotorResolve,"ax",%progbits
	.hidden	LK_MotorResolve                 @ -- Begin function LK_MotorResolve
	.globl	LK_MotorResolve
	.p2align	2
	.type	LK_MotorResolve,%function
	.code	16                              @ @LK_MotorResolve
	.thumb_func
LK_MotorResolve:
.Lfunc_begin4:
	.loc	5 191 0                         @ ../User/Bsp/DJI_Motor.c:191:0
	.fnstart
	.cfi_startproc
@ %bb.0:
	.pad	#8
	sub	sp, #8
	.cfi_def_cfa_offset 8
	str	r0, [sp, #4]
	str	r1, [sp]
.Ltmp52:
	.loc	5 193 22 prologue_end           @ ../User/Bsp/DJI_Motor.c:193:22
	ldr	r0, [sp]
	ldrb	r0, [r0, #1]
	.loc	5 193 3 is_stmt 0               @ ../User/Bsp/DJI_Motor.c:193:3
	ldr	r1, [sp, #4]
	.loc	5 193 20                        @ ../User/Bsp/DJI_Motor.c:193:20
	strb	r0, [r1, #22]
	.loc	5 195 36 is_stmt 1              @ ../User/Bsp/DJI_Motor.c:195:36
	ldr	r1, [sp]
	.loc	5 195 66 is_stmt 0              @ ../User/Bsp/DJI_Motor.c:195:66
	ldrb	r0, [r1, #2]
	.loc	5 195 26                        @ ../User/Bsp/DJI_Motor.c:195:26
	ldrb	r1, [r1, #3]
	.loc	5 195 54                        @ ../User/Bsp/DJI_Motor.c:195:54
	orr.w	r0, r0, r1, lsl #8
	.loc	5 195 3                         @ ../User/Bsp/DJI_Motor.c:195:3
	ldr	r1, [sp, #4]
	.loc	5 195 23                        @ ../User/Bsp/DJI_Motor.c:195:23
	strh	r0, [r1, #20]
	.loc	5 197 30 is_stmt 1              @ ../User/Bsp/DJI_Motor.c:197:30
	ldr	r1, [sp, #4]
	.loc	5 197 42 is_stmt 0              @ ../User/Bsp/DJI_Motor.c:197:42
	ldrh	r0, [r1, #16]
	.loc	5 197 28                        @ ../User/Bsp/DJI_Motor.c:197:28
	strh	r0, [r1, #18]
	.loc	5 198 37 is_stmt 1              @ ../User/Bsp/DJI_Motor.c:198:37
	ldr	r1, [sp]
	.loc	5 198 67 is_stmt 0              @ ../User/Bsp/DJI_Motor.c:198:67
	ldrb	r0, [r1, #4]
	.loc	5 198 27                        @ ../User/Bsp/DJI_Motor.c:198:27
	ldrb	r1, [r1, #5]
	.loc	5 198 55                        @ ../User/Bsp/DJI_Motor.c:198:55
	orr.w	r0, r0, r1, lsl #8
	.loc	5 198 3                         @ ../User/Bsp/DJI_Motor.c:198:3
	ldr	r1, [sp, #4]
	.loc	5 198 24                        @ ../User/Bsp/DJI_Motor.c:198:24
	strh	r0, [r1, #16]
	.loc	5 200 31 is_stmt 1              @ ../User/Bsp/DJI_Motor.c:200:31
	ldr	r1, [sp, #4]
	.loc	5 200 43 is_stmt 0              @ ../User/Bsp/DJI_Motor.c:200:43
	ldrh	r0, [r1]
	.loc	5 200 29                        @ ../User/Bsp/DJI_Motor.c:200:29
	strh	r0, [r1, #2]
	.loc	5 201 38 is_stmt 1              @ ../User/Bsp/DJI_Motor.c:201:38
	ldr	r1, [sp]
	.loc	5 201 68 is_stmt 0              @ ../User/Bsp/DJI_Motor.c:201:68
	ldrb	r0, [r1, #6]
	.loc	5 201 28                        @ ../User/Bsp/DJI_Motor.c:201:28
	ldrb	r1, [r1, #7]
	.loc	5 201 56                        @ ../User/Bsp/DJI_Motor.c:201:56
	orr.w	r0, r0, r1, lsl #8
	.loc	5 201 3                         @ ../User/Bsp/DJI_Motor.c:201:3
	ldr	r1, [sp, #4]
	.loc	5 201 25                        @ ../User/Bsp/DJI_Motor.c:201:25
	strh	r0, [r1]
.Ltmp53:
	.loc	5 203 6 is_stmt 1               @ ../User/Bsp/DJI_Motor.c:203:6
	ldr	r0, [sp, #4]
	.loc	5 203 18 is_stmt 0              @ ../User/Bsp/DJI_Motor.c:203:18
	ldrb	r0, [r0, #28]
.Ltmp54:
	.loc	5 203 6                         @ ../User/Bsp/DJI_Motor.c:203:6
	cbz	r0, .LBB4_7
	b	.LBB4_1
.LBB4_1:
.Ltmp55:
	.loc	5 205 8 is_stmt 1               @ ../User/Bsp/DJI_Motor.c:205:8
	ldr	r1, [sp, #4]
	.loc	5 205 20 is_stmt 0              @ ../User/Bsp/DJI_Motor.c:205:20
	ldrh	r0, [r1]
	.loc	5 205 44                        @ ../User/Bsp/DJI_Motor.c:205:44
	ldrh	r1, [r1, #2]
	.loc	5 205 30                        @ ../User/Bsp/DJI_Motor.c:205:30
	subs	r0, r0, r1
	movw	r1, #25535
	movt	r1, #65535
.Ltmp56:
	.loc	5 205 8                         @ ../User/Bsp/DJI_Motor.c:205:8
	cmp	r0, r1
	bgt	.LBB4_3
	b	.LBB4_2
.LBB4_2:
.Ltmp57:
	.loc	5 207 5 is_stmt 1               @ ../User/Bsp/DJI_Motor.c:207:5
	ldr	r1, [sp, #4]
	.loc	5 207 22 is_stmt 0              @ ../User/Bsp/DJI_Motor.c:207:22
	ldr	r0, [r1, #4]
	adds	r0, #1
	str	r0, [r1, #4]
	.loc	5 208 4 is_stmt 1               @ ../User/Bsp/DJI_Motor.c:208:4
	b	.LBB4_6
.Ltmp58:
.LBB4_3:
	.loc	5 209 13                        @ ../User/Bsp/DJI_Motor.c:209:13
	ldr	r1, [sp, #4]
	.loc	5 209 25 is_stmt 0              @ ../User/Bsp/DJI_Motor.c:209:25
	ldrh	r0, [r1]
	.loc	5 209 49                        @ ../User/Bsp/DJI_Motor.c:209:49
	ldrh	r1, [r1, #2]
	.loc	5 209 35                        @ ../User/Bsp/DJI_Motor.c:209:35
	subs	r0, r0, r1
	movw	r1, #40001
.Ltmp59:
	.loc	5 209 13                        @ ../User/Bsp/DJI_Motor.c:209:13
	cmp	r0, r1
	blt	.LBB4_5
	b	.LBB4_4
.LBB4_4:
.Ltmp60:
	.loc	5 211 5 is_stmt 1               @ ../User/Bsp/DJI_Motor.c:211:5
	ldr	r1, [sp, #4]
	.loc	5 211 22 is_stmt 0              @ ../User/Bsp/DJI_Motor.c:211:22
	ldr	r0, [r1, #4]
	subs	r0, #1
	str	r0, [r1, #4]
	.loc	5 212 4 is_stmt 1               @ ../User/Bsp/DJI_Motor.c:212:4
	b	.LBB4_5
.Ltmp61:
.LBB4_5:
	.loc	5 0 4 is_stmt 0                 @ ../User/Bsp/DJI_Motor.c:0:4
	b	.LBB4_6
.LBB4_6:
	.loc	5 213 32 is_stmt 1              @ ../User/Bsp/DJI_Motor.c:213:32
	ldr	r1, [sp, #4]
	.loc	5 213 44 is_stmt 0              @ ../User/Bsp/DJI_Motor.c:213:44
	ldr	r0, [r1, #8]
	.loc	5 213 30                        @ ../User/Bsp/DJI_Motor.c:213:30
	str	r0, [r1, #12]
	.loc	5 214 36 is_stmt 1              @ ../User/Bsp/DJI_Motor.c:214:36
	ldr	r0, [sp, #4]
	.loc	5 214 28 is_stmt 0              @ ../User/Bsp/DJI_Motor.c:214:28
	vldr	s0, [r0, #4]
	vcvt.f32.s32	s0, s0
	.loc	5 214 81                        @ ../User/Bsp/DJI_Motor.c:214:81
	ldrh	r1, [r0]
	.loc	5 214 61                        @ ../User/Bsp/DJI_Motor.c:214:61
	vmov	s2, r1
	vcvt.f32.u32	s2, s2
	vldr	s4, .LCPI4_0
	.loc	5 214 91                        @ ../User/Bsp/DJI_Motor.c:214:91
	vmul.f32	s2, s2, s4
	vldr	s6, .LCPI4_1
	.loc	5 214 97                        @ ../User/Bsp/DJI_Motor.c:214:97
	vdiv.f32	s2, s2, s6
	.loc	5 214 59                        @ ../User/Bsp/DJI_Motor.c:214:59
	vmul.f32	s0, s0, s4
	vadd.f32	s0, s0, s2
	.loc	5 214 26                        @ ../User/Bsp/DJI_Motor.c:214:26
	vstr	s0, [r0, #8]
	.loc	5 215 3 is_stmt 1               @ ../User/Bsp/DJI_Motor.c:215:3
	b	.LBB4_8
.Ltmp62:
.LBB4_7:
	.loc	5 218 33                        @ ../User/Bsp/DJI_Motor.c:218:33
	ldr	r0, [sp, #4]
	.loc	5 218 45 is_stmt 0              @ ../User/Bsp/DJI_Motor.c:218:45
	ldrh	r1, [r0]
	.loc	5 218 26                        @ ../User/Bsp/DJI_Motor.c:218:26
	vmov	s0, r1
	vcvt.f32.u32	s0, s0
	vldr	s2, .LCPI4_0
	.loc	5 218 55                        @ ../User/Bsp/DJI_Motor.c:218:55
	vmul.f32	s0, s0, s2
	vldr	s2, .LCPI4_1
	.loc	5 218 61                        @ ../User/Bsp/DJI_Motor.c:218:61
	vdiv.f32	s0, s0, s2
	.loc	5 218 25                        @ ../User/Bsp/DJI_Motor.c:218:25
	vstr	s0, [r0, #8]
	b	.LBB4_8
.Ltmp63:
.LBB4_8:
	.loc	5 221 1 is_stmt 1               @ ../User/Bsp/DJI_Motor.c:221:1
	add	sp, #8
	bx	lr
.Ltmp64:
	.p2align	2
@ %bb.9:
	.loc	5 0 1 is_stmt 0                 @ ../User/Bsp/DJI_Motor.c:0:1
.LCPI4_0:
	.long	0x43b40000                      @ float 360
.LCPI4_1:
	.long	0x47800000                      @ float 65536
.Lfunc_end4:
	.size	LK_MotorResolve, .Lfunc_end4-LK_MotorResolve
	.cfi_endproc
	.cantunwind
	.fnend
                                        @ -- End function
	.section	.text.RUI_F_HEAD_MOTOR_CLEAR,"ax",%progbits
	.hidden	RUI_F_HEAD_MOTOR_CLEAR          @ -- Begin function RUI_F_HEAD_MOTOR_CLEAR
	.globl	RUI_F_HEAD_MOTOR_CLEAR
	.p2align	2
	.type	RUI_F_HEAD_MOTOR_CLEAR,%function
	.code	16                              @ @RUI_F_HEAD_MOTOR_CLEAR
	.thumb_func
RUI_F_HEAD_MOTOR_CLEAR:
.Lfunc_begin5:
	.loc	5 232 0 is_stmt 1               @ ../User/Bsp/DJI_Motor.c:232:0
	.fnstart
	.cfi_startproc
@ %bb.0:
	.pad	#8
	sub	sp, #8
	.cfi_def_cfa_offset 8
                                        @ kill: def $r2 killed $r1
	str	r0, [sp, #4]
	strb.w	r1, [sp, #3]
.Ltmp65:
	.loc	5 233 5 prologue_end            @ ../User/Bsp/DJI_Motor.c:233:5
	ldr	r1, [sp, #4]
	movs	r0, #0
	.loc	5 233 23 is_stmt 0              @ ../User/Bsp/DJI_Motor.c:233:23
	str.w	r0, [r1, #256]
	.loc	5 234 5 is_stmt 1               @ ../User/Bsp/DJI_Motor.c:234:5
	ldr	r1, [sp, #4]
	.loc	5 234 23 is_stmt 0              @ ../User/Bsp/DJI_Motor.c:234:23
	str.w	r0, [r1, #426]
	.loc	5 235 30 is_stmt 1              @ ../User/Bsp/DJI_Motor.c:235:30
	ldr	r0, [sp, #4]
	.loc	5 235 23 is_stmt 0              @ ../User/Bsp/DJI_Motor.c:235:23
	vldr	s0, [r0, #24]
	vcvt.f32.s32	s0, s0
	.loc	5 235 21                        @ ../User/Bsp/DJI_Motor.c:235:21
	vstr	s0, [r0, #52]
.Ltmp66:
	.loc	5 236 9 is_stmt 1               @ ../User/Bsp/DJI_Motor.c:236:9
	ldrb.w	r0, [sp, #3]
.Ltmp67:
	.loc	5 236 9 is_stmt 0               @ ../User/Bsp/DJI_Motor.c:236:9
	cbz	r0, .LBB5_2
	b	.LBB5_1
.LBB5_1:
.Ltmp68:
	.loc	5 236 15                        @ ../User/Bsp/DJI_Motor.c:236:15
	ldr	r1, [sp, #4]
	movs	r0, #0
	.loc	5 236 32                        @ ../User/Bsp/DJI_Motor.c:236:32
	strh	r0, [r1, #44]
	.loc	5 236 15                        @ ../User/Bsp/DJI_Motor.c:236:15
	b	.LBB5_2
.Ltmp69:
.LBB5_2:
	.loc	5 237 1 is_stmt 1               @ ../User/Bsp/DJI_Motor.c:237:1
	add	sp, #8
	bx	lr
.Ltmp70:
.Lfunc_end5:
	.size	RUI_F_HEAD_MOTOR_CLEAR, .Lfunc_end5-RUI_F_HEAD_MOTOR_CLEAR
	.cfi_endproc
	.cantunwind
	.fnend
                                        @ -- End function
	.section	.text.RUI_F_HEAD_MOTOR2006_STUCK,"ax",%progbits
	.hidden	RUI_F_HEAD_MOTOR2006_STUCK      @ -- Begin function RUI_F_HEAD_MOTOR2006_STUCK
	.globl	RUI_F_HEAD_MOTOR2006_STUCK
	.p2align	2
	.type	RUI_F_HEAD_MOTOR2006_STUCK,%function
	.code	16                              @ @RUI_F_HEAD_MOTOR2006_STUCK
	.thumb_func
RUI_F_HEAD_MOTOR2006_STUCK:
.Lfunc_begin6:
	.loc	5 249 0                         @ ../User/Bsp/DJI_Motor.c:249:0
	.fnstart
	.cfi_startproc
@ %bb.0:
	.save	{r7, lr}
	push	{r7, lr}
	.cfi_def_cfa_offset 8
	.cfi_offset lr, -4
	.cfi_offset r7, -8
	.pad	#24
	sub	sp, #24
	.cfi_def_cfa_offset 32
	add	r2, sp, #12
	str	r2, [sp, #4]                    @ 4-byte Spill
	mov	r2, r0
	ldr	r0, [sp, #4]                    @ 4-byte Reload
                                        @ kill: def $r3 killed $r1
	str	r2, [sp, #20]
	vstr	s0, [r0, #4]
	vstr	s1, [r0]
	strh.w	r1, [sp, #10]
.Ltmp71:
	.loc	5 251 30 prologue_end           @ ../User/Bsp/DJI_Motor.c:251:30
	ldr	r0, [sp, #20]
	.loc	5 251 43 is_stmt 0              @ ../User/Bsp/DJI_Motor.c:251:43
	vldr	s0, [r0, #240]
	.loc	5 251 9                         @ ../User/Bsp/DJI_Motor.c:251:9
	bl	RUI_F_MATH_ABS_float
	ldr	r0, [sp, #4]                    @ 4-byte Reload
	.loc	5 251 50                        @ ../User/Bsp/DJI_Motor.c:251:50
	vldr	s2, [r0, #4]
	.loc	5 251 62                        @ ../User/Bsp/DJI_Motor.c:251:62
	vcmp.f32	s0, s2
	vmrs	APSR_nzcv, fpscr
	ble	.LBB6_5
	b	.LBB6_1
.LBB6_1:
	.loc	5 251 86                        @ ../User/Bsp/DJI_Motor.c:251:86
	ldr	r0, [sp, #20]
	.loc	5 251 98                        @ ../User/Bsp/DJI_Motor.c:251:98
	ldrsh.w	r0, [r0, #16]
	.loc	5 251 86                        @ ../User/Bsp/DJI_Motor.c:251:86
	vmov	s0, r0
	vcvt.f32.s32	s0, s0
	.loc	5 251 65                        @ ../User/Bsp/DJI_Motor.c:251:65
	bl	RUI_F_MATH_ABS_float
	ldr	r0, [sp, #4]                    @ 4-byte Reload
	.loc	5 251 111                       @ ../User/Bsp/DJI_Motor.c:251:111
	vldr	s2, [r0]
.Ltmp72:
	.loc	5 251 9                         @ ../User/Bsp/DJI_Motor.c:251:9
	vcmp.f32	s0, s2
	vmrs	APSR_nzcv, fpscr
	bge	.LBB6_5
	b	.LBB6_2
.LBB6_2:
.Ltmp73:
	.loc	5 253 9 is_stmt 1               @ ../User/Bsp/DJI_Motor.c:253:9
	ldr	r1, [sp, #20]
	.loc	5 253 31 is_stmt 0              @ ../User/Bsp/DJI_Motor.c:253:31
	ldr	r2, [r1, #32]
	ldr	r0, [r1, #36]
	adds	r2, #1
	adc	r0, r0, #0
	str	r2, [r1, #32]
	str	r0, [r1, #36]
.Ltmp74:
	.loc	5 254 13 is_stmt 1              @ ../User/Bsp/DJI_Motor.c:254:13
	ldr	r0, [sp, #20]
	.loc	5 254 25 is_stmt 0              @ ../User/Bsp/DJI_Motor.c:254:25
	ldr	r2, [r0, #32]
	ldr	r1, [r0, #36]
	.loc	5 254 38                        @ ../User/Bsp/DJI_Motor.c:254:38
	ldrh.w	r0, [sp, #10]
	.loc	5 254 36                        @ ../User/Bsp/DJI_Motor.c:254:36
	subs	r0, r0, r2
	mov.w	r0, #0
	sbcs	r0, r1
.Ltmp75:
	.loc	5 254 13                        @ ../User/Bsp/DJI_Motor.c:254:13
	bge	.LBB6_4
	b	.LBB6_3
.LBB6_3:
.Ltmp76:
	.loc	5 256 36 is_stmt 1              @ ../User/Bsp/DJI_Motor.c:256:36
	ldr	r0, [sp, #20]
	movs	r1, #0
	.loc	5 256 13 is_stmt 0              @ ../User/Bsp/DJI_Motor.c:256:13
	str	r1, [sp]                        @ 4-byte Spill
	bl	RUI_F_HEAD_MOTOR_CLEAR
	ldr	r0, [sp]                        @ 4-byte Reload
	.loc	5 257 13 is_stmt 1              @ ../User/Bsp/DJI_Motor.c:257:13
	ldr	r1, [sp, #20]
	.loc	5 257 36 is_stmt 0              @ ../User/Bsp/DJI_Motor.c:257:36
	str	r0, [r1, #36]
	str	r0, [r1, #32]
	.loc	5 258 13 is_stmt 1              @ ../User/Bsp/DJI_Motor.c:258:13
	ldr	r1, [sp, #20]
	.loc	5 258 38 is_stmt 0              @ ../User/Bsp/DJI_Motor.c:258:38
	ldrh	r0, [r1, #40]
	adds	r0, #1
	strh	r0, [r1, #40]
	.loc	5 259 9 is_stmt 1               @ ../User/Bsp/DJI_Motor.c:259:9
	b	.LBB6_4
.Ltmp77:
.LBB6_4:
	.loc	5 260 5                         @ ../User/Bsp/DJI_Motor.c:260:5
	b	.LBB6_6
.Ltmp78:
.LBB6_5:
	.loc	5 263 9                         @ ../User/Bsp/DJI_Motor.c:263:9
	ldr	r1, [sp, #20]
	movs	r0, #0
	.loc	5 263 32 is_stmt 0              @ ../User/Bsp/DJI_Motor.c:263:32
	str	r0, [r1, #36]
	str	r0, [r1, #32]
	b	.LBB6_6
.Ltmp79:
.LBB6_6:
	.loc	5 265 28 is_stmt 1              @ ../User/Bsp/DJI_Motor.c:265:28
	ldr	r1, [sp, #20]
	.loc	5 265 40 is_stmt 0              @ ../User/Bsp/DJI_Motor.c:265:40
	ldr	r0, [r1, #52]
	.loc	5 265 26                        @ ../User/Bsp/DJI_Motor.c:265:26
	str	r0, [r1, #56]
	.loc	5 267 1 is_stmt 1               @ ../User/Bsp/DJI_Motor.c:267:1
	add	sp, #24
	pop	{r7, pc}
.Ltmp80:
.Lfunc_end6:
	.size	RUI_F_HEAD_MOTOR2006_STUCK, .Lfunc_end6-RUI_F_HEAD_MOTOR2006_STUCK
	.cfi_endproc
	.cantunwind
	.fnend
                                        @ -- End function
	.section	.text.RUI_F_HEAD_MOTOR3508_STUCK,"ax",%progbits
	.hidden	RUI_F_HEAD_MOTOR3508_STUCK      @ -- Begin function RUI_F_HEAD_MOTOR3508_STUCK
	.globl	RUI_F_HEAD_MOTOR3508_STUCK
	.p2align	2
	.type	RUI_F_HEAD_MOTOR3508_STUCK,%function
	.code	16                              @ @RUI_F_HEAD_MOTOR3508_STUCK
	.thumb_func
RUI_F_HEAD_MOTOR3508_STUCK:
.Lfunc_begin7:
	.loc	5 277 0                         @ ../User/Bsp/DJI_Motor.c:277:0
	.fnstart
	.cfi_startproc
@ %bb.0:
	.save	{r7, lr}
	push	{r7, lr}
	.cfi_def_cfa_offset 8
	.cfi_offset lr, -4
	.cfi_offset r7, -8
	.pad	#16
	sub	sp, #16
	.cfi_def_cfa_offset 24
	str	r0, [sp, #12]
	vstr	s0, [sp, #8]
	vstr	s1, [sp, #4]
.Ltmp81:
	.loc	5 278 30 prologue_end           @ ../User/Bsp/DJI_Motor.c:278:30
	ldr	r0, [sp, #12]
	.loc	5 278 42 is_stmt 0              @ ../User/Bsp/DJI_Motor.c:278:42
	ldrsh.w	r0, [r0, #16]
	.loc	5 278 30                        @ ../User/Bsp/DJI_Motor.c:278:30
	vmov	s0, r0
	vcvt.f32.s32	s0, s0
	.loc	5 278 9                         @ ../User/Bsp/DJI_Motor.c:278:9
	bl	RUI_F_MATH_ABS_float
	.loc	5 278 55                        @ ../User/Bsp/DJI_Motor.c:278:55
	vldr	s2, [sp, #4]
.Ltmp82:
	.loc	5 278 9                         @ ../User/Bsp/DJI_Motor.c:278:9
	vcmp.f32	s0, s2
	vmrs	APSR_nzcv, fpscr
	bge	.LBB7_4
	b	.LBB7_1
.LBB7_1:
.Ltmp83:
	.loc	5 280 34 is_stmt 1              @ ../User/Bsp/DJI_Motor.c:280:34
	ldr	r0, [sp, #12]
	.loc	5 280 46 is_stmt 0              @ ../User/Bsp/DJI_Motor.c:280:46
	ldrsh.w	r0, [r0, #18]
	.loc	5 280 34                        @ ../User/Bsp/DJI_Motor.c:280:34
	vmov	s0, r0
	vcvt.f32.s32	s0, s0
	.loc	5 280 13                        @ ../User/Bsp/DJI_Motor.c:280:13
	bl	RUI_F_MATH_ABS_float
	.loc	5 280 57                        @ ../User/Bsp/DJI_Motor.c:280:57
	vldr	s2, [sp, #8]
.Ltmp84:
	.loc	5 280 13                        @ ../User/Bsp/DJI_Motor.c:280:13
	vcmp.f32	s0, s2
	vmrs	APSR_nzcv, fpscr
	ble	.LBB7_3
	b	.LBB7_2
.LBB7_2:
.Ltmp85:
	.loc	5 282 36 is_stmt 1              @ ../User/Bsp/DJI_Motor.c:282:36
	ldr	r0, [sp, #12]
	movs	r1, #0
	.loc	5 282 13 is_stmt 0              @ ../User/Bsp/DJI_Motor.c:282:13
	bl	RUI_F_HEAD_MOTOR_CLEAR
	.loc	5 283 13 is_stmt 1              @ ../User/Bsp/DJI_Motor.c:283:13
	ldr	r1, [sp, #12]
	.loc	5 283 38 is_stmt 0              @ ../User/Bsp/DJI_Motor.c:283:38
	ldrh	r0, [r1, #40]
	adds	r0, #1
	strh	r0, [r1, #40]
	.loc	5 284 9 is_stmt 1               @ ../User/Bsp/DJI_Motor.c:284:9
	b	.LBB7_3
.Ltmp86:
.LBB7_3:
	.loc	5 285 5                         @ ../User/Bsp/DJI_Motor.c:285:5
	b	.LBB7_4
.Ltmp87:
.LBB7_4:
	.loc	5 286 1                         @ ../User/Bsp/DJI_Motor.c:286:1
	add	sp, #16
	pop	{r7, pc}
.Ltmp88:
.Lfunc_end7:
	.size	RUI_F_HEAD_MOTOR3508_STUCK, .Lfunc_end7-RUI_F_HEAD_MOTOR3508_STUCK
	.cfi_endproc
	.cantunwind
	.fnend
                                        @ -- End function
	.section	.text.DJI_Current_Ctrl,"ax",%progbits
	.hidden	DJI_Current_Ctrl                @ -- Begin function DJI_Current_Ctrl
	.globl	DJI_Current_Ctrl
	.p2align	2
	.type	DJI_Current_Ctrl,%function
	.code	16                              @ @DJI_Current_Ctrl
	.thumb_func
DJI_Current_Ctrl:
.Lfunc_begin8:
	.loc	5 289 0                         @ ../User/Bsp/DJI_Motor.c:289:0
	.fnstart
	.cfi_startproc
@ %bb.0:
	.save	{r4, lr}
	push	{r4, lr}
	.cfi_def_cfa_offset 8
	.cfi_offset lr, -4
	.cfi_offset r4, -8
	.pad	#24
	sub	sp, #24
	.cfi_def_cfa_offset 32
	mov	r12, r1
	mov	lr, r0
	ldr	r0, [sp, #36]
	ldr	r1, [sp, #32]
                                        @ kill: def $r4 killed $r3
                                        @ kill: def $r4 killed $r2
                                        @ kill: def $r4 killed $r12
	str.w	lr, [sp, #20]
	strh.w	r12, [sp, #18]
	strh.w	r2, [sp, #16]
	strh.w	r3, [sp, #14]
	strh.w	r1, [sp, #12]
	strh.w	r0, [sp, #10]
.Ltmp89:
	.loc	5 292 17 prologue_end           @ ../User/Bsp/DJI_Motor.c:292:17
	ldrb.w	r0, [sp, #17]
	.loc	5 292 13 is_stmt 0              @ ../User/Bsp/DJI_Motor.c:292:13
	strb.w	r0, [sp, #2]
	.loc	5 293 16 is_stmt 1              @ ../User/Bsp/DJI_Motor.c:293:16
	ldrb.w	r0, [sp, #16]
	.loc	5 293 13 is_stmt 0              @ ../User/Bsp/DJI_Motor.c:293:13
	strb.w	r0, [sp, #3]
	.loc	5 294 17 is_stmt 1              @ ../User/Bsp/DJI_Motor.c:294:17
	ldrb.w	r0, [sp, #15]
	.loc	5 294 13 is_stmt 0              @ ../User/Bsp/DJI_Motor.c:294:13
	strb.w	r0, [sp, #4]
	.loc	5 295 16 is_stmt 1              @ ../User/Bsp/DJI_Motor.c:295:16
	ldrb.w	r0, [sp, #14]
	.loc	5 295 13 is_stmt 0              @ ../User/Bsp/DJI_Motor.c:295:13
	strb.w	r0, [sp, #5]
	.loc	5 296 17 is_stmt 1              @ ../User/Bsp/DJI_Motor.c:296:17
	ldrb.w	r0, [sp, #13]
	.loc	5 296 13 is_stmt 0              @ ../User/Bsp/DJI_Motor.c:296:13
	strb.w	r0, [sp, #6]
	.loc	5 297 16 is_stmt 1              @ ../User/Bsp/DJI_Motor.c:297:16
	ldrb.w	r0, [sp, #12]
	.loc	5 297 13 is_stmt 0              @ ../User/Bsp/DJI_Motor.c:297:13
	strb.w	r0, [sp, #7]
	.loc	5 298 17 is_stmt 1              @ ../User/Bsp/DJI_Motor.c:298:17
	ldrb.w	r0, [sp, #11]
	.loc	5 298 13 is_stmt 0              @ ../User/Bsp/DJI_Motor.c:298:13
	strb.w	r0, [sp, #8]
	.loc	5 299 16 is_stmt 1              @ ../User/Bsp/DJI_Motor.c:299:16
	ldrb.w	r0, [sp, #10]
	.loc	5 299 13 is_stmt 0              @ ../User/Bsp/DJI_Motor.c:299:13
	strb.w	r0, [sp, #9]
	.loc	5 301 20 is_stmt 1              @ ../User/Bsp/DJI_Motor.c:301:20
	ldr	r0, [sp, #20]
	.loc	5 301 26 is_stmt 0              @ ../User/Bsp/DJI_Motor.c:301:26
	ldrh.w	r1, [sp, #18]
	add.w	r2, sp, #2
	.loc	5 301 5                         @ ../User/Bsp/DJI_Motor.c:301:5
	bl	canx_send_data
	.loc	5 302 1 is_stmt 1               @ ../User/Bsp/DJI_Motor.c:302:1
	add	sp, #24
	pop	{r4, pc}
.Ltmp90:
.Lfunc_end8:
	.size	DJI_Current_Ctrl, .Lfunc_end8-DJI_Current_Ctrl
	.cfi_endproc
	.cantunwind
	.fnend
                                        @ -- End function
	.section	.text.LKMF_iq_ctrl,"ax",%progbits
	.hidden	LKMF_iq_ctrl                    @ -- Begin function LKMF_iq_ctrl
	.globl	LKMF_iq_ctrl
	.p2align	2
	.type	LKMF_iq_ctrl,%function
	.code	16                              @ @LKMF_iq_ctrl
	.thumb_func
LKMF_iq_ctrl:
.Lfunc_begin9:
	.loc	5 304 0                         @ ../User/Bsp/DJI_Motor.c:304:0
	.fnstart
	.cfi_startproc
@ %bb.0:
	.save	{r7, lr}
	push	{r7, lr}
	.cfi_def_cfa_offset 8
	.cfi_offset lr, -4
	.cfi_offset r7, -8
	.pad	#48
	sub	sp, #48
	.cfi_def_cfa_offset 56
                                        @ kill: def $r3 killed $r1
	str	r0, [sp, #44]
	strh.w	r1, [sp, #42]
	str	r2, [sp, #36]
	movs	r0, #0
.Ltmp91:
	.loc	5 306 11 prologue_end           @ ../User/Bsp/DJI_Motor.c:306:11
	str	r0, [sp, #8]
	.loc	5 310 21                        @ ../User/Bsp/DJI_Motor.c:310:21
	ldrh.w	r1, [sp, #42]
	.loc	5 310 19 is_stmt 0              @ ../User/Bsp/DJI_Motor.c:310:19
	add.w	r1, r1, #320
	.loc	5 310 11                        @ ../User/Bsp/DJI_Motor.c:310:11
	str	r1, [sp, #12]
	.loc	5 311 9 is_stmt 1               @ ../User/Bsp/DJI_Motor.c:311:9
	str	r0, [sp, #20]
	.loc	5 312 9                         @ ../User/Bsp/DJI_Motor.c:312:9
	str	r0, [sp, #24]
	movs	r1, #8
	.loc	5 313 9                         @ ../User/Bsp/DJI_Motor.c:313:9
	str	r1, [sp, #28]
	movs	r1, #161
	.loc	5 315 10                        @ ../User/Bsp/DJI_Motor.c:315:10
	strb.w	r1, [sp]
	.loc	5 316 10                        @ ../User/Bsp/DJI_Motor.c:316:10
	strb.w	r0, [sp, #1]
	.loc	5 317 10                        @ ../User/Bsp/DJI_Motor.c:317:10
	strb.w	r0, [sp, #2]
	.loc	5 318 10                        @ ../User/Bsp/DJI_Motor.c:318:10
	strb.w	r0, [sp, #3]
	.loc	5 319 12                        @ ../User/Bsp/DJI_Motor.c:319:12
	ldrb.w	r1, [sp, #36]
	.loc	5 319 10 is_stmt 0              @ ../User/Bsp/DJI_Motor.c:319:10
	strb.w	r1, [sp, #4]
	.loc	5 320 12 is_stmt 1              @ ../User/Bsp/DJI_Motor.c:320:12
	ldrb.w	r1, [sp, #37]
	.loc	5 320 10 is_stmt 0              @ ../User/Bsp/DJI_Motor.c:320:10
	strb.w	r1, [sp, #5]
	.loc	5 321 10 is_stmt 1              @ ../User/Bsp/DJI_Motor.c:321:10
	strb.w	r0, [sp, #6]
	.loc	5 322 10                        @ ../User/Bsp/DJI_Motor.c:322:10
	strb.w	r0, [sp, #7]
	.loc	5 324 24                        @ ../User/Bsp/DJI_Motor.c:324:24
	ldr	r0, [sp, #44]
	add	r1, sp, #12
	mov	r2, sp
	add	r3, sp, #8
	.loc	5 324 3 is_stmt 0               @ ../User/Bsp/DJI_Motor.c:324:3
	bl	HAL_CAN_AddTxMessage
	.loc	5 325 1 is_stmt 1               @ ../User/Bsp/DJI_Motor.c:325:1
	add	sp, #48
	pop	{r7, pc}
.Ltmp92:
.Lfunc_end9:
	.size	LKMF_iq_ctrl, .Lfunc_end9-LKMF_iq_ctrl
	.cfi_endproc
	.cantunwind
	.fnend
                                        @ -- End function
	.section	.text.LKMF_Data_Read,"ax",%progbits
	.hidden	LKMF_Data_Read                  @ -- Begin function LKMF_Data_Read
	.globl	LKMF_Data_Read
	.p2align	2
	.type	LKMF_Data_Read,%function
	.code	16                              @ @LKMF_Data_Read
	.thumb_func
LKMF_Data_Read:
.Lfunc_begin10:
	.loc	5 328 0                         @ ../User/Bsp/DJI_Motor.c:328:0
	.fnstart
	.cfi_startproc
@ %bb.0:
	.save	{r7, lr}
	push	{r7, lr}
	.cfi_def_cfa_offset 8
	.cfi_offset lr, -4
	.cfi_offset r7, -8
	.pad	#48
	sub	sp, #48
	.cfi_def_cfa_offset 56
                                        @ kill: def $r2 killed $r1
	str	r0, [sp, #44]
	strh.w	r1, [sp, #42]
	movs	r0, #0
.Ltmp93:
	.loc	5 330 11 prologue_end           @ ../User/Bsp/DJI_Motor.c:330:11
	str	r0, [sp, #12]
	.loc	5 333 21                        @ ../User/Bsp/DJI_Motor.c:333:21
	ldrh.w	r1, [sp, #42]
	.loc	5 333 19 is_stmt 0              @ ../User/Bsp/DJI_Motor.c:333:19
	add.w	r1, r1, #320
	.loc	5 333 11                        @ ../User/Bsp/DJI_Motor.c:333:11
	str	r1, [sp, #16]
	.loc	5 334 9 is_stmt 1               @ ../User/Bsp/DJI_Motor.c:334:9
	str	r0, [sp, #24]
	.loc	5 335 9                         @ ../User/Bsp/DJI_Motor.c:335:9
	str	r0, [sp, #28]
	movs	r1, #8
	.loc	5 336 9                         @ ../User/Bsp/DJI_Motor.c:336:9
	str	r1, [sp, #32]
	movs	r1, #156
	.loc	5 338 10                        @ ../User/Bsp/DJI_Motor.c:338:10
	strb.w	r1, [sp, #4]
	.loc	5 339 10                        @ ../User/Bsp/DJI_Motor.c:339:10
	strb.w	r0, [sp, #5]
	.loc	5 340 10                        @ ../User/Bsp/DJI_Motor.c:340:10
	strb.w	r0, [sp, #6]
	.loc	5 341 10                        @ ../User/Bsp/DJI_Motor.c:341:10
	strb.w	r0, [sp, #7]
	.loc	5 342 10                        @ ../User/Bsp/DJI_Motor.c:342:10
	strb.w	r0, [sp, #8]
	.loc	5 343 10                        @ ../User/Bsp/DJI_Motor.c:343:10
	strb.w	r0, [sp, #9]
	.loc	5 344 10                        @ ../User/Bsp/DJI_Motor.c:344:10
	strb.w	r0, [sp, #10]
	.loc	5 345 10                        @ ../User/Bsp/DJI_Motor.c:345:10
	strb.w	r0, [sp, #11]
	.loc	5 347 24                        @ ../User/Bsp/DJI_Motor.c:347:24
	ldr	r0, [sp, #44]
	add	r1, sp, #16
	add	r2, sp, #4
	add	r3, sp, #12
	.loc	5 347 3 is_stmt 0               @ ../User/Bsp/DJI_Motor.c:347:3
	bl	HAL_CAN_AddTxMessage
	.loc	5 348 1 is_stmt 1               @ ../User/Bsp/DJI_Motor.c:348:1
	add	sp, #48
	pop	{r7, pc}
.Ltmp94:
.Lfunc_end10:
	.size	LKMF_Data_Read, .Lfunc_end10-LKMF_Data_Read
	.cfi_endproc
	.cantunwind
	.fnend
                                        @ -- End function
	.section	.text.Visual_can_ctrl,"ax",%progbits
	.hidden	Visual_can_ctrl                 @ -- Begin function Visual_can_ctrl
	.globl	Visual_can_ctrl
	.p2align	2
	.type	Visual_can_ctrl,%function
	.code	16                              @ @Visual_can_ctrl
	.thumb_func
Visual_can_ctrl:
.Lfunc_begin11:
	.loc	5 350 0                         @ ../User/Bsp/DJI_Motor.c:350:0
	.fnstart
	.cfi_startproc
@ %bb.0:
	.save	{r7, lr}
	push	{r7, lr}
	.cfi_def_cfa_offset 8
	.cfi_offset lr, -4
	.cfi_offset r7, -8
	.pad	#48
	sub	sp, #48
	.cfi_def_cfa_offset 56
                                        @ kill: def $r2 killed $r1
	str	r0, [sp, #44]
	strh.w	r1, [sp, #42]
	movs	r0, #0
.Ltmp95:
	.loc	5 352 11 prologue_end           @ ../User/Bsp/DJI_Motor.c:352:11
	str	r0, [sp, #12]
	.loc	5 356 13                        @ ../User/Bsp/DJI_Motor.c:356:13
	ldrh.w	r1, [sp, #42]
	.loc	5 356 11 is_stmt 0              @ ../User/Bsp/DJI_Motor.c:356:11
	str	r1, [sp, #16]
	.loc	5 357 9 is_stmt 1               @ ../User/Bsp/DJI_Motor.c:357:9
	str	r0, [sp, #24]
	.loc	5 358 9                         @ ../User/Bsp/DJI_Motor.c:358:9
	str	r0, [sp, #28]
	movs	r0, #8
	.loc	5 359 9                         @ ../User/Bsp/DJI_Motor.c:359:9
	str	r0, [sp, #32]
	movs	r0, #2
	.loc	5 370 11                        @ ../User/Bsp/DJI_Motor.c:370:11
	strb.w	r0, [sp, #4]
	movs	r0, #1
	.loc	5 371 10                        @ ../User/Bsp/DJI_Motor.c:371:10
	strb.w	r0, [sp, #5]
	movs	r0, #3
	.loc	5 372 10                        @ ../User/Bsp/DJI_Motor.c:372:10
	strb.w	r0, [sp, #6]
	movs	r0, #5
	.loc	5 373 10                        @ ../User/Bsp/DJI_Motor.c:373:10
	strb.w	r0, [sp, #7]
	.loc	5 374 32                        @ ../User/Bsp/DJI_Motor.c:374:32
	movw	r0, :lower16:QEKF_INS
	movt	r0, :upper16:QEKF_INS
	vldr	s0, [r0, #344]
	.loc	5 374 22 is_stmt 0              @ ../User/Bsp/DJI_Motor.c:374:22
	vcvt.s32.f32	s0, s0
	vmov	r1, s0
	lsrs	r1, r1, #8
	.loc	5 374 10                        @ ../User/Bsp/DJI_Motor.c:374:10
	strb.w	r1, [sp, #8]
	.loc	5 375 32 is_stmt 1              @ ../User/Bsp/DJI_Motor.c:375:32
	vldr	s0, [r0, #344]
	.loc	5 375 22 is_stmt 0              @ ../User/Bsp/DJI_Motor.c:375:22
	vcvt.s32.f32	s0, s0
	vmov	r1, s0
	.loc	5 375 10                        @ ../User/Bsp/DJI_Motor.c:375:10
	strb.w	r1, [sp, #9]
	.loc	5 376 32 is_stmt 1              @ ../User/Bsp/DJI_Motor.c:376:32
	vldr	s0, [r0, #348]
	.loc	5 376 22 is_stmt 0              @ ../User/Bsp/DJI_Motor.c:376:22
	vcvt.s32.f32	s0, s0
	vmov	r1, s0
	lsrs	r1, r1, #8
	.loc	5 376 10                        @ ../User/Bsp/DJI_Motor.c:376:10
	strb.w	r1, [sp, #10]
	.loc	5 377 32 is_stmt 1              @ ../User/Bsp/DJI_Motor.c:377:32
	vldr	s0, [r0, #348]
	.loc	5 377 22 is_stmt 0              @ ../User/Bsp/DJI_Motor.c:377:22
	vcvt.s32.f32	s0, s0
	vmov	r0, s0
	.loc	5 377 10                        @ ../User/Bsp/DJI_Motor.c:377:10
	strb.w	r0, [sp, #11]
	.loc	5 379 24 is_stmt 1              @ ../User/Bsp/DJI_Motor.c:379:24
	ldr	r0, [sp, #44]
	add	r1, sp, #16
	add	r2, sp, #4
	add	r3, sp, #12
	.loc	5 379 3 is_stmt 0               @ ../User/Bsp/DJI_Motor.c:379:3
	bl	HAL_CAN_AddTxMessage
	.loc	5 380 1 is_stmt 1               @ ../User/Bsp/DJI_Motor.c:380:1
	add	sp, #48
	pop	{r7, pc}
.Ltmp96:
.Lfunc_end11:
	.size	Visual_can_ctrl, .Lfunc_end11-Visual_can_ctrl
	.cfi_endproc
	.cantunwind
	.fnend
                                        @ -- End function
	.file	6 "D:\\horizon\\Horizon_Infantry (2)\\MDK-ARM" "../User/Bsp/inc\\DJI_Motor.h"
	.file	7 "D:\\horizon\\Horizon_Infantry (2)\\MDK-ARM" "../User/Algorithm/inc/user_lib.h"
	.file	8 "D:\\horizon\\Horizon_Infantry (2)\\MDK-ARM" "../Drivers/CMSIS/Device/ST/STM32F4xx/Include/stm32f407xx.h"
	.file	9 "D:\\horizon\\Horizon_Infantry (2)\\MDK-ARM" "../User/Bsp/inc/can_bsp.h"
	.section	".note.GNU-stack","",%progbits
	.eabi_attribute	30, 6	@ Tag_ABI_optimization_goals
	.ARM_attribute	16, 1	@ Tag_AV_eba