	.text
	.syntax unified
	.eabi_attribute	67, "2.09"	@ Tag_conformance
	.cpu	cortex-m4
	.eabi_attribute	6, 13	@ Tag_CPU_arch
	.eabi_attribute	7, 77	@ Tag_CPU_arch_profile
	.eabi_attribute	8, 0	@ Tag_ARM_ISA_use
	.eabi_attribute	9, 2	@ Tag_THUMB_ISA_use
	.fpu	fpv4-sp-d16
	.eabi_attribute	27, 1	@ Tag_ABI_HardFP_use
	.eabi_attribute	36, 1	@ Tag_FP_HP_extension
	.eabi_attribute	34, 1	@ Tag_CPU_unaligned_access
	.eabi_attribute	17, 1	@ Tag_ABI_PCS_GOT_use
	.eabi_attribute	20, 2	@ Tag_ABI_FP_denormal
	.eabi_attribute	21, 0	@ Tag_ABI_FP_exceptions
	.eabi_attribute	23, 3	@ Tag_ABI_FP_number_model
	.eabi_attribute	24, 1	@ Tag_ABI_align_needed
	.eabi_attribute	25, 1	@ Tag_ABI_align_preserved
	.eabi_attribute	28, 1	@ Tag_ABI_VFP_args
	.eabi_attribute	38, 1	@ Tag_ABI_FP_16bit_format
	.eabi_attribute	18, 2	@ Tag_ABI_PCS_wchar_t
	.eabi_attribute	26, 1	@ Tag_ABI_enum_size
	.eabi_attribute	14, 0	@ Tag_ABI_PCS_R9_use
	.file	"DM_Motor.c"
	.file	1 "D:\\" "kevil\\ARM\\ARMCLANG\\Bin\\..\\include\\stdint.h"
	.file	2 "D:\\horizon\\Horizon_Infantry (2)\\MDK-ARM" "../User/Bsp/DM_Motor.c"
	.file	3 "D:\\horizon\\Horizon_Infantry (2)\\MDK-ARM" "../User/Algorithm/inc\\controller.h"
	.file	4 "D:\\horizon\\Horizon_Infantry (2)\\MDK-ARM" "../Drivers/CMSIS/Device/ST/STM32F4xx/Include\\stm32f4xx.h"
	.file	5 "D:\\horizon\\Horizon_Infantry (2)\\MDK-ARM" "../Drivers/STM32F4xx_HAL_Driver/Inc\\stm32f4xx_hal_can.h"
	.file	6 "D:\\horizon\\Horizon_Infantry (2)\\MDK-ARM" "../User/Bsp/inc\\DM_Motor.h"
	.section	.text.dm4310_fbdata,"ax",%progbits
	.hidden	dm4310_fbdata                   @ -- Begin function dm4310_fbdata
	.globl	dm4310_fbdata
	.p2align	2
	.type	dm4310_fbdata,%function
	.code	16                              @ @dm4310_fbdata
	.thumb_func
dm4310_fbdata:
.Lfunc_begin0:
	.loc	2 15 0                          @ ../User/Bsp/DM_Motor.c:15:0
	.fnstart
	.cfi_sections .debug_frame
	.cfi_startproc
@ %bb.0:
	.save	{r7, lr}
	push	{r7, lr}
	.cfi_def_cfa_offset 8
	.cfi_offset lr, -4
	.cfi_offset r7, -8
	.pad	#16
	sub	sp, #16
	.cfi_def_cfa_offset 24
	str	r0, [sp, #12]
	str	r1, [sp, #8]
.Ltmp0:
	.loc	2 17 18 prologue_end            @ ../User/Bsp/DM_Motor.c:17:18
	ldr	r0, [sp, #8]
	.loc	2 17 17 is_stmt 0               @ ../User/Bsp/DM_Motor.c:17:17
	ldrb	r0, [r0]
	.loc	2 17 29                         @ ../User/Bsp/DM_Motor.c:17:29
	and	r0, r0, #15
	.loc	2 17 5                          @ ../User/Bsp/DM_Motor.c:17:5
	ldr	r1, [sp, #12]
	.loc	2 17 15                         @ ../User/Bsp/DM_Motor.c:17:15
	str	r0, [r1]
	.loc	2 18 21 is_stmt 1               @ ../User/Bsp/DM_Motor.c:18:21
	ldr	r0, [sp, #8]
	ldrb	r0, [r0]
	.loc	2 18 32 is_stmt 0               @ ../User/Bsp/DM_Motor.c:18:32
	lsrs	r0, r0, #4
	.loc	2 18 5                          @ ../User/Bsp/DM_Motor.c:18:5
	ldr	r1, [sp, #12]
	.loc	2 18 18                         @ ../User/Bsp/DM_Motor.c:18:18
	str	r0, [r1, #4]
	.loc	2 19 19 is_stmt 1               @ ../User/Bsp/DM_Motor.c:19:19
	ldr	r0, [sp, #8]
	.loc	2 19 33 is_stmt 0               @ ../User/Bsp/DM_Motor.c:19:33
	ldrh.w	r0, [r0, #1]
	lsls	r0, r0, #16
	rev	r0, r0
	.loc	2 19 5                          @ ../User/Bsp/DM_Motor.c:19:5
	ldr	r1, [sp, #12]
	.loc	2 19 17                         @ ../User/Bsp/DM_Motor.c:19:17
	str	r0, [r1, #8]
	.loc	2 20 19 is_stmt 1               @ ../User/Bsp/DM_Motor.c:20:19
	ldr	r1, [sp, #8]
	ldrb	r0, [r1, #3]
	.loc	2 20 35 is_stmt 0               @ ../User/Bsp/DM_Motor.c:20:35
	ldrb	r1, [r1, #4]
	.loc	2 20 29                         @ ../User/Bsp/DM_Motor.c:20:29
	lsls	r0, r0, #4
	.loc	2 20 33                         @ ../User/Bsp/DM_Motor.c:20:33
	orr.w	r0, r0, r1, lsr #4
	.loc	2 20 5                          @ ../User/Bsp/DM_Motor.c:20:5
	ldr	r1, [sp, #12]
	.loc	2 20 17                         @ ../User/Bsp/DM_Motor.c:20:17
	str	r0, [r1, #12]
	.loc	2 21 20 is_stmt 1               @ ../User/Bsp/DM_Motor.c:21:20
	ldr	r0, [sp, #8]
	ldrb	r1, [r0, #4]
	.loc	2 21 40 is_stmt 0               @ ../User/Bsp/DM_Motor.c:21:40
	ldrb	r0, [r0, #5]
	.loc	2 21 30                         @ ../User/Bsp/DM_Motor.c:21:30
	and	r1, r1, #15
	.loc	2 21 39                         @ ../User/Bsp/DM_Motor.c:21:39
	orr.w	r0, r0, r1, lsl #8
	.loc	2 21 5                          @ ../User/Bsp/DM_Motor.c:21:5
	ldr	r1, [sp, #12]
	.loc	2 21 17                         @ ../User/Bsp/DM_Motor.c:21:17
	str	r0, [r1, #16]
	.loc	2 22 32 is_stmt 1               @ ../User/Bsp/DM_Motor.c:22:32
	ldr	r0, [sp, #12]
	.loc	2 22 39 is_stmt 0               @ ../User/Bsp/DM_Motor.c:22:39
	ldr	r0, [r0, #8]
	vmov.f32	s0, #-1.250000e+01
	vmov.f32	s1, #1.250000e+01
	movs	r1, #16
	.loc	2 22 18                         @ ../User/Bsp/DM_Motor.c:22:18
	bl	uint_to_float
	.loc	2 22 5                          @ ../User/Bsp/DM_Motor.c:22:5
	ldr	r0, [sp, #12]
	.loc	2 22 16                         @ ../User/Bsp/DM_Motor.c:22:16
	vstr	s0, [r0, #28]
	.loc	2 23 32 is_stmt 1               @ ../User/Bsp/DM_Motor.c:23:32
	ldr	r0, [sp, #12]
	.loc	2 23 39 is_stmt 0               @ ../User/Bsp/DM_Motor.c:23:39
	ldr	r0, [r0, #12]
	vmov.f32	s0, #-3.000000e+01
	vmov.f32	s1, #3.000000e+01
	movs	r1, #12
	.loc	2 23 18                         @ ../User/Bsp/DM_Motor.c:23:18
	str	r1, [sp, #4]                    @ 4-byte Spill
	bl	uint_to_float
	ldr	r1, [sp, #4]                    @ 4-byte Reload
	.loc	2 23 5                          @ ../User/Bsp/DM_Motor.c:23:5
	ldr	r0, [sp, #12]
	.loc	2 23 16                         @ ../User/Bsp/DM_Motor.c:23:16
	vstr	s0, [r0, #32]
	.loc	2 24 32 is_stmt 1               @ ../User/Bsp/DM_Motor.c:24:32
	ldr	r0, [sp, #12]
	.loc	2 24 39 is_stmt 0               @ ../User/Bsp/DM_Motor.c:24:39
	ldr	r0, [r0, #16]
	vmov.f32	s0, #-1.000000e+01
	vmov.f32	s1, #1.000000e+01
	.loc	2 24 18                         @ ../User/Bsp/DM_Motor.c:24:18
	bl	uint_to_float
	.loc	2 24 5                          @ ../User/Bsp/DM_Motor.c:24:5
	ldr	r0, [sp, #12]
	.loc	2 24 16                         @ ../User/Bsp/DM_Motor.c:24:16
	vstr	s0, [r0, #36]
	.loc	2 25 27 is_stmt 1               @ ../User/Bsp/DM_Motor.c:25:27
	ldr	r0, [sp, #8]
	ldrb	r0, [r0, #6]
	.loc	2 25 19 is_stmt 0               @ ../User/Bsp/DM_Motor.c:25:19
	vmov	s0, r0
	vcvt.f32.u32	s0, s0
	.loc	2 25 5                          @ ../User/Bsp/DM_Motor.c:25:5
	ldr	r0, [sp, #12]
	.loc	2 25 17                         @ ../User/Bsp/DM_Motor.c:25:17
	vstr	s0, [r0, #48]
	.loc	2 26 28 is_stmt 1               @ ../User/Bsp/DM_Motor.c:26:28
	ldr	r0, [sp, #8]
	ldrb	r0, [r0, #7]
	.loc	2 26 20 is_stmt 0               @ ../User/Bsp/DM_Motor.c:26:20
	vmov	s0, r0
	vcvt.f32.u32	s0, s0
	.loc	2 26 5                          @ ../User/Bsp/DM_Motor.c:26:5
	ldr	r0, [sp, #12]
	.loc	2 26 18                         @ ../User/Bsp/DM_Motor.c:26:18
	vstr	s0, [r0, #52]
	.loc	2 27 5 is_stmt 1                @ ../User/Bsp/DM_Motor.c:27:5
	ldr	r1, [sp, #12]
	movs	r0, #15
	.loc	2 27 30 is_stmt 0               @ ../User/Bsp/DM_Motor.c:27:30
	strb.w	r0, [r1, #112]
	.loc	2 29 1 is_stmt 1                @ ../User/Bsp/DM_Motor.c:29:1
	add	sp, #16
	pop	{r7, pc}
.Ltmp1:
.Lfunc_end0:
	.size	dm4310_fbdata, .Lfunc_end0-dm4310_fbdata
	.cfi_endproc
	.cantunwind
	.fnend
                                        @ -- End function
	.section	.text.dm_RXdata,"ax",%progbits
	.hidden	dm_RXdata                       @ -- Begin function dm_RXdata
	.globl	dm_RXdata
	.p2align	2
	.type	dm_RXdata,%function
	.code	16                              @ @dm_RXdata
	.thumb_func
dm_RXdata:
.Lfunc_begin1:
	.loc	2 35 0                          @ ../User/Bsp/DM_Motor.c:35:0
	.fnstart
	.cfi_startproc
@ %bb.0:
	.save	{r7, lr}
	push	{r7, lr}
	.cfi_def_cfa_offset 8
	.cfi_offset lr, -4
	.cfi_offset r7, -8
	.pad	#8
	sub	sp, #8
	.cfi_def_cfa_offset 16
	str	r0, [sp, #4]
	str	r1, [sp]
.Ltmp2:
	.loc	2 37 28 prologue_end            @ ../User/Bsp/DM_Motor.c:37:28
	ldr	r1, [sp, #4]
	.loc	2 37 41 is_stmt 0               @ ../User/Bsp/DM_Motor.c:37:41
	ldrh.w	r0, [r1, #66]
	.loc	2 37 26                         @ ../User/Bsp/DM_Motor.c:37:26
	strh.w	r0, [r1, #64]
	.loc	2 38 29 is_stmt 1               @ ../User/Bsp/DM_Motor.c:38:29
	ldr	r0, [sp]
	ldrb	r1, [r0]
	.loc	2 38 47 is_stmt 0               @ ../User/Bsp/DM_Motor.c:38:47
	ldrb	r0, [r0, #1]
	.loc	2 38 45                         @ ../User/Bsp/DM_Motor.c:38:45
	orr.w	r0, r0, r1, lsl #8
	.loc	2 38 2                          @ ../User/Bsp/DM_Motor.c:38:2
	ldr	r1, [sp, #4]
	.loc	2 38 25                         @ ../User/Bsp/DM_Motor.c:38:25
	strh.w	r0, [r1, #66]
	.loc	2 39 16 is_stmt 1               @ ../User/Bsp/DM_Motor.c:39:16
	ldr	r0, [sp]
	ldrb	r1, [r0, #2]
	.loc	2 39 34 is_stmt 0               @ ../User/Bsp/DM_Motor.c:39:34
	ldrb	r0, [r0, #3]
	.loc	2 39 32                         @ ../User/Bsp/DM_Motor.c:39:32
	orr.w	r0, r0, r1, lsl #8
	.loc	2 39 12                         @ ../User/Bsp/DM_Motor.c:39:12
	movw	r1, :lower16:spd_int16
	movt	r1, :upper16:spd_int16
	strh	r0, [r1]
	.loc	2 40 16 is_stmt 1               @ ../User/Bsp/DM_Motor.c:40:16
	ldr	r0, [sp]
	ldrb	r1, [r0, #4]
	.loc	2 40 34 is_stmt 0               @ ../User/Bsp/DM_Motor.c:40:34
	ldrb	r0, [r0, #5]
	.loc	2 40 32                         @ ../User/Bsp/DM_Motor.c:40:32
	orr.w	r0, r0, r1, lsl #8
	.loc	2 40 13                         @ ../User/Bsp/DM_Motor.c:40:13
	movw	r1, :lower16:cur_int16
	movt	r1, :upper16:cur_int16
	strh	r0, [r1]
	.loc	2 41 2 is_stmt 1                @ ../User/Bsp/DM_Motor.c:41:2
	ldr	r1, [sp, #4]
	movw	r0, #6680
	.loc	2 41 27 is_stmt 0               @ ../User/Bsp/DM_Motor.c:41:27
	strh.w	r0, [r1, #122]
	.loc	2 42 15 is_stmt 1               @ ../User/Bsp/DM_Motor.c:42:15
	ldr	r1, [sp, #4]
	ldrh.w	r0, [r1, #66]
	.loc	2 42 39 is_stmt 0               @ ../User/Bsp/DM_Motor.c:42:39
	ldrh.w	r1, [r1, #122]
	.loc	2 42 38                         @ ../User/Bsp/DM_Motor.c:42:38
	subs	r1, r0, r1
	.loc	2 42 13                         @ ../User/Bsp/DM_Motor.c:42:13
	movw	r0, :lower16:angleError
	movt	r0, :upper16:angleError
	strh	r1, [r0]
.Ltmp3:
	.loc	2 43 5 is_stmt 1                @ ../User/Bsp/DM_Motor.c:43:5
	ldrsh.w	r0, [r0]
.Ltmp4:
	.loc	2 43 5 is_stmt 0                @ ../User/Bsp/DM_Motor.c:43:5
	cmp.w	r0, #4096
	ble	.LBB1_2
	b	.LBB1_1
.LBB1_1:
.Ltmp5:
	.loc	2 44 15 is_stmt 1               @ ../User/Bsp/DM_Motor.c:44:15
	movw	r1, :lower16:angleError
	movt	r1, :upper16:angleError
	ldrh	r0, [r1]
	sub.w	r0, r0, #8192
	strh	r0, [r1]
	.loc	2 45 2                          @ ../User/Bsp/DM_Motor.c:45:2
	b	.LBB1_5
.Ltmp6:
.LBB1_2:
	.loc	2 46 11                         @ ../User/Bsp/DM_Motor.c:46:11
	movw	r0, :lower16:angleError
	movt	r0, :upper16:angleError
	ldrsh.w	r0, [r0]
.Ltmp7:
	.loc	2 46 11 is_stmt 0               @ ../User/Bsp/DM_Motor.c:46:11
	cmn.w	r0, #4096
	bge	.LBB1_4
	b	.LBB1_3
.LBB1_3:
.Ltmp8:
	.loc	2 47 15 is_stmt 1               @ ../User/Bsp/DM_Motor.c:47:15
	movw	r1, :lower16:angleError
	movt	r1, :upper16:angleError
	ldrh	r0, [r1]
	add.w	r0, r0, #8192
	strh	r0, [r1]
	.loc	2 48 2                          @ ../User/Bsp/DM_Motor.c:48:2
	b	.LBB1_4
.Ltmp9:
.LBB1_4:
	.loc	2 0 2 is_stmt 0                 @ ../User/Bsp/DM_Motor.c:0:2
	b	.LBB1_5
.LBB1_5:
	.loc	2 49 30 is_stmt 1               @ ../User/Bsp/DM_Motor.c:49:30
	movw	r0, :lower16:angleError
	movt	r0, :upper16:angleError
	ldrsh.w	r0, [r0]
	vmov	s0, r0
	vcvt.f32.s32	s0, s0
	vldr	s2, .LCPI1_0
	.loc	2 49 41 is_stmt 0               @ ../User/Bsp/DM_Motor.c:49:41
	vmul.f32	s0, s0, s2
	.loc	2 49 2                          @ ../User/Bsp/DM_Motor.c:49:2
	ldr	r0, [sp, #4]
	.loc	2 49 28                         @ ../User/Bsp/DM_Motor.c:49:28
	vstr	s0, [r0, #124]
.Ltmp10:
	.loc	2 50 7 is_stmt 1                @ ../User/Bsp/DM_Motor.c:50:7
	ldr	r0, [sp, #4]
	.loc	2 50 45 is_stmt 0               @ ../User/Bsp/DM_Motor.c:50:45
	ldrsh.w	r1, [r0, #64]
	.loc	2 50 20                         @ ../User/Bsp/DM_Motor.c:50:20
	ldrsh.w	r0, [r0, #66]
	.loc	2 50 30                         @ ../User/Bsp/DM_Motor.c:50:30
	subs	r0, r0, r1
.Ltmp11:
	.loc	2 50 5                          @ ../User/Bsp/DM_Motor.c:50:5
	cmn.w	r0, #4096
	bge	.LBB1_7
	b	.LBB1_6
.LBB1_6:
.Ltmp12:
	.loc	2 52 3 is_stmt 1                @ ../User/Bsp/DM_Motor.c:52:3
	ldr	r1, [sp, #4]
	.loc	2 52 21 is_stmt 0               @ ../User/Bsp/DM_Motor.c:52:21
	ldrh.w	r0, [r1, #128]
	adds	r0, #1
	strh.w	r0, [r1, #128]
	.loc	2 53 2 is_stmt 1                @ ../User/Bsp/DM_Motor.c:53:2
	b	.LBB1_10
.Ltmp13:
.LBB1_7:
	.loc	2 54 12                         @ ../User/Bsp/DM_Motor.c:54:12
	ldr	r0, [sp, #4]
	.loc	2 54 50 is_stmt 0               @ ../User/Bsp/DM_Motor.c:54:50
	ldrsh.w	r1, [r0, #64]
	.loc	2 54 25                         @ ../User/Bsp/DM_Motor.c:54:25
	ldrsh.w	r0, [r0, #66]
	.loc	2 54 35                         @ ../User/Bsp/DM_Motor.c:54:35
	subs	r0, r0, r1
.Ltmp14:
	.loc	2 54 10                         @ ../User/Bsp/DM_Motor.c:54:10
	cmp.w	r0, #4096
	ble	.LBB1_9
	b	.LBB1_8
.LBB1_8:
.Ltmp15:
	.loc	2 56 4 is_stmt 1                @ ../User/Bsp/DM_Motor.c:56:4
	ldr	r1, [sp, #4]
	.loc	2 56 22 is_stmt 0               @ ../User/Bsp/DM_Motor.c:56:22
	ldrh.w	r0, [r1, #128]
	subs	r0, #1
	strh.w	r0, [r1, #128]
	.loc	2 57 2 is_stmt 1                @ ../User/Bsp/DM_Motor.c:57:2
	b	.LBB1_9
.Ltmp16:
.LBB1_9:
	.loc	2 0 2 is_stmt 0                 @ ../User/Bsp/DM_Motor.c:0:2
	b	.LBB1_10
.LBB1_10:
.Ltmp17:
	.loc	2 60 6 is_stmt 1                @ ../User/Bsp/DM_Motor.c:60:6
	ldr	r0, [sp, #4]
	.loc	2 60 19 is_stmt 0               @ ../User/Bsp/DM_Motor.c:60:19
	ldrsh.w	r2, [r0, #128]
	movs	r1, #0
	.loc	2 60 25                         @ ../User/Bsp/DM_Motor.c:60:25
	cmp.w	r2, #32000
	mov	r0, r1
	it	gt
	movgt	r0, #1
	.loc	2 60 56                         @ ../User/Bsp/DM_Motor.c:60:56
	cmn.w	r2, #32000
	it	lt
	movlt	r1, #1
	.loc	2 60 34                         @ ../User/Bsp/DM_Motor.c:60:34
	orrs	r0, r1
.Ltmp18:
	.loc	2 60 5                          @ ../User/Bsp/DM_Motor.c:60:5
	cbz	r0, .LBB1_12
	b	.LBB1_11
.LBB1_11:
.Ltmp19:
	.loc	2 62 5 is_stmt 1                @ ../User/Bsp/DM_Motor.c:62:5
	ldr	r1, [sp, #4]
	movs	r0, #0
	.loc	2 62 24 is_stmt 0               @ ../User/Bsp/DM_Motor.c:62:24
	strh.w	r0, [r1, #128]
	.loc	2 63 22 is_stmt 1               @ ../User/Bsp/DM_Motor.c:63:22
	ldr	r0, [sp, #4]
	.loc	2 63 34 is_stmt 0               @ ../User/Bsp/DM_Motor.c:63:34
	ldrsh.w	r1, [r0, #66]
	.loc	2 63 22                         @ ../User/Bsp/DM_Motor.c:63:22
	vmov	s0, r1
	vcvt.f32.s32	s0, s0
	.loc	2 63 20                         @ ../User/Bsp/DM_Motor.c:63:20
	vstr	s0, [r0, #108]
	.loc	2 64 2 is_stmt 1                @ ../User/Bsp/DM_Motor.c:64:2
	b	.LBB1_12
.Ltmp20:
.LBB1_12:
	.loc	2 65 28                         @ ../User/Bsp/DM_Motor.c:65:28
	ldr	r1, [sp, #4]
	.loc	2 65 41 is_stmt 0               @ ../User/Bsp/DM_Motor.c:65:41
	ldrh.w	r0, [r1, #70]
	.loc	2 65 26                         @ ../User/Bsp/DM_Motor.c:65:26
	strh.w	r0, [r1, #68]
	.loc	2 66 27 is_stmt 1               @ ../User/Bsp/DM_Motor.c:66:27
	movw	r0, :lower16:spd_int16
	movt	r0, :upper16:spd_int16
	ldrsh.w	r0, [r0]
	movw	r1, #34079
	movt	r1, #20971
	.loc	2 66 36 is_stmt 0               @ ../User/Bsp/DM_Motor.c:66:36
	smmul	r1, r0, r1
	lsrs	r0, r1, #5
	add.w	r0, r0, r1, lsr #31
	.loc	2 66 2                          @ ../User/Bsp/DM_Motor.c:66:2
	ldr	r1, [sp, #4]
	.loc	2 66 25                         @ ../User/Bsp/DM_Motor.c:66:25
	strh.w	r0, [r1, #70]
	.loc	2 68 38 is_stmt 1               @ ../User/Bsp/DM_Motor.c:68:38
	ldr	r0, [sp, #4]
	.loc	2 68 75 is_stmt 0               @ ../User/Bsp/DM_Motor.c:68:75
	ldrsh.w	r1, [r0, #68]
	.loc	2 68 51                         @ ../User/Bsp/DM_Motor.c:68:51
	ldrsh.w	r0, [r0, #70]
	vldr	s0, .LCPI1_1
	vldr	s2, .LCPI1_2
	.loc	2 68 27                         @ ../User/Bsp/DM_Motor.c:68:27
	vmov.f32	s1, s2
	bl	OneFilter1
	.loc	2 68 2                          @ ../User/Bsp/DM_Motor.c:68:2
	ldr	r1, [sp, #4]
	.loc	2 68 25                         @ ../User/Bsp/DM_Motor.c:68:25
	strh.w	r0, [r1, #70]
	.loc	2 69 33 is_stmt 1               @ ../User/Bsp/DM_Motor.c:69:33
	movw	r0, :lower16:cur_int16
	movt	r0, :upper16:cur_int16
	ldrsh.w	r0, [r0]
	.loc	2 69 26 is_stmt 0               @ ../User/Bsp/DM_Motor.c:69:26
	vmov	s0, r0
	vcvt.f32.s32	s0, s0
	vldr	s2, .LCPI1_3
	.loc	2 69 43                         @ ../User/Bsp/DM_Motor.c:69:43
	vdiv.f32	s0, s0, s2
	.loc	2 69 25                         @ ../User/Bsp/DM_Motor.c:69:25
	vcvt.s32.f32	s0, s0
	vmov	r0, s0
	.loc	2 69 2                          @ ../User/Bsp/DM_Motor.c:69:2
	ldr	r1, [sp, #4]
	.loc	2 69 23                         @ ../User/Bsp/DM_Motor.c:69:23
	strh.w	r0, [r1, #74]
	.loc	2 70 31 is_stmt 1               @ ../User/Bsp/DM_Motor.c:70:31
	ldr	r0, [sp]
	ldrb	r0, [r0, #6]
	.loc	2 70 23 is_stmt 0               @ ../User/Bsp/DM_Motor.c:70:23
	vmov	s0, r0
	vcvt.f32.u32	s0, s0
	.loc	2 70 2                          @ ../User/Bsp/DM_Motor.c:70:2
	ldr	r0, [sp, #4]
	.loc	2 70 21                         @ ../User/Bsp/DM_Motor.c:70:21
	vstr	s0, [r0, #60]
	.loc	2 71 30 is_stmt 1               @ ../User/Bsp/DM_Motor.c:71:30
	ldr	r0, [sp]
	ldrb	r0, [r0, #7]
	.loc	2 71 22 is_stmt 0               @ ../User/Bsp/DM_Motor.c:71:22
	vmov	s0, r0
	vcvt.f32.u32	s0, s0
	.loc	2 71 2                          @ ../User/Bsp/DM_Motor.c:71:2
	ldr	r0, [sp, #4]
	.loc	2 71 20                         @ ../User/Bsp/DM_Motor.c:71:20
	vstr	s0, [r0, #56]
	.loc	2 72 38 is_stmt 1               @ ../User/Bsp/DM_Motor.c:72:38
	ldr	r0, [sp, #4]
	.loc	2 72 86 is_stmt 0               @ ../User/Bsp/DM_Motor.c:72:86
	ldrsh.w	r1, [r0, #66]
	.loc	2 72 51                         @ ../User/Bsp/DM_Motor.c:72:51
	ldrsh.w	r2, [r0, #128]
	.loc	2 72 57                         @ ../User/Bsp/DM_Motor.c:72:57
	lsls	r2, r2, #13
	.loc	2 72 36                         @ ../User/Bsp/DM_Motor.c:72:36
	vmov	s0, r2
	vcvt.f32.s32	s0, s0
	.loc	2 72 65                         @ ../User/Bsp/DM_Motor.c:72:65
	vmov	s2, r1
	vcvt.f32.s32	s2, s2
	.loc	2 72 64                         @ ../User/Bsp/DM_Motor.c:72:64
	vadd.f32	s0, s0, s2
	.loc	2 72 24                         @ ../User/Bsp/DM_Motor.c:72:24
	vcvt.s32.f32	s0, s0
	vstr	s0, [r0, #132]
	.loc	2 74 1 is_stmt 1                @ ../User/Bsp/DM_Motor.c:74:1
	add	sp, #8
	pop	{r7, pc}
.Ltmp21:
	.p2align	2
@ %bb.13:
	.loc	2 0 1 is_stmt 0                 @ ../User/Bsp/DM_Motor.c:0:1
.LCPI1_0:
	.long	0x3d343958                      @ float 0.0439999998
.LCPI1_1:
	.long	0x43fa0000                      @ float 500
.LCPI1_2:
	.long	0x3f4ccccd                      @ float 0.800000011
.LCPI1_3:
	.long	0x444ccccd                      @ float 819.200012
.Lfunc_end1:
	.size	dm_RXdata, .Lfunc_end1-dm_RXdata
	.cfi_endproc
	.cantunwind
	.fnend
                                        @ -- End function
	.section	.text.motor_mode,"ax",%progbits
	.hidden	motor_mode                      @ -- Begin function motor_mode
	.globl	motor_mode
	.p2align	2
	.type	motor_mode,%function
	.code	16                              @ @motor_mode
	.thumb_func
motor_mode:
.Lfunc_begin2:
	.loc	2 80 0 is_stmt 1                @ ../User/Bsp/DM_Motor.c:80:0
	.fnstart
	.cfi_startproc
@ %bb.0:
	.save	{r7, lr}
	push	{r7, lr}
	.cfi_def_cfa_offset 8
	.cfi_offset lr, -4
	.cfi_offset r7, -8
	.pad	#24
	sub	sp, #24
	.cfi_def_cfa_offset 32
                                        @ kill: def $r12 killed $r3
                                        @ kill: def $r12 killed $r2
                                        @ kill: def $r12 killed $r1
	str	r0, [sp, #20]
	strh.w	r1, [sp, #18]
	strh.w	r2, [sp, #16]
	strb.w	r3, [sp, #15]
.Ltmp22:
	.loc	2 82 17 prologue_end            @ ../User/Bsp/DM_Motor.c:82:17
	ldrh.w	r0, [sp, #18]
	.loc	2 82 28 is_stmt 0               @ ../User/Bsp/DM_Motor.c:82:28
	ldrh.w	r1, [sp, #16]
	.loc	2 82 26                         @ ../User/Bsp/DM_Motor.c:82:26
	add	r0, r1
	.loc	2 82 12                         @ ../User/Bsp/DM_Motor.c:82:12
	strh.w	r0, [sp, #4]
	movs	r0, #255
	.loc	2 84 11 is_stmt 1               @ ../User/Bsp/DM_Motor.c:84:11
	strb.w	r0, [sp, #7]
	.loc	2 85 11                         @ ../User/Bsp/DM_Motor.c:85:11
	strb.w	r0, [sp, #8]
	.loc	2 86 11                         @ ../User/Bsp/DM_Motor.c:86:11
	strb.w	r0, [sp, #9]
	.loc	2 87 11                         @ ../User/Bsp/DM_Motor.c:87:11
	strb.w	r0, [sp, #10]
	.loc	2 88 11                         @ ../User/Bsp/DM_Motor.c:88:11
	strb.w	r0, [sp, #11]
	.loc	2 89 11                         @ ../User/Bsp/DM_Motor.c:89:11
	strb.w	r0, [sp, #12]
	.loc	2 90 11                         @ ../User/Bsp/DM_Motor.c:90:11
	strb.w	r0, [sp, #13]
	.loc	2 91 13                         @ ../User/Bsp/DM_Motor.c:91:13
	ldrb.w	r0, [sp, #15]
	.loc	2 91 11 is_stmt 0               @ ../User/Bsp/DM_Motor.c:91:11
	strb.w	r0, [sp, #14]
	.loc	2 93 18 is_stmt 1               @ ../User/Bsp/DM_Motor.c:93:18
	ldr	r0, [sp, #20]
	.loc	2 93 24 is_stmt 0               @ ../User/Bsp/DM_Motor.c:93:24
	ldrh.w	r1, [sp, #4]
	add.w	r2, sp, #7
	.loc	2 93 3                          @ ../User/Bsp/DM_Motor.c:93:3
	bl	canx_send_data
	.loc	2 94 1 is_stmt 1                @ ../User/Bsp/DM_Motor.c:94:1
	add	sp, #24
	pop	{r7, pc}
.Ltmp23:
.Lfunc_end2:
	.size	motor_mode, .Lfunc_end2-motor_mode
	.cfi_endproc
	.cantunwind
	.fnend
                                        @ -- End function
	.section	.text.mit_ctrl,"ax",%progbits
	.hidden	mit_ctrl                        @ -- Begin function mit_ctrl
	.globl	mit_ctrl
	.p2align	2
	.type	mit_ctrl,%function
	.code	16                              @ @mit_ctrl
	.thumb_func
mit_ctrl:
.Lfunc_begin3:
	.loc	2 111 0                         @ ../User/Bsp/DM_Motor.c:111:0
	.fnstart
	.cfi_startproc
@ %bb.0:
	.save	{r7, lr}
	push	{r7, lr}
	.cfi_def_cfa_offset 8
	.cfi_offset lr, -4
	.cfi_offset r7, -8
	.pad	#56
	sub	sp, #56
	.cfi_def_cfa_offset 64
                                        @ kill: def $r2 killed $r1
	str	r0, [sp, #52]
	strh.w	r1, [sp, #50]
	vstr	s0, [sp, #44]
	vstr	s1, [sp, #40]
	vstr	s2, [sp, #36]
	vstr	s3, [sp, #32]
	vstr	s4, [sp, #28]
.Ltmp24:
	.loc	2 114 17 prologue_end           @ ../User/Bsp/DM_Motor.c:114:17
	ldrh.w	r0, [sp, #50]
	.loc	2 114 12 is_stmt 0              @ ../User/Bsp/DM_Motor.c:114:12
	strh.w	r0, [sp, #8]
	.loc	2 116 27 is_stmt 1              @ ../User/Bsp/DM_Motor.c:116:27
	vldr	s0, [sp, #44]
	vmov.f32	s1, #-1.250000e+01
	vmov.f32	s2, #1.250000e+01
	movs	r0, #16
	.loc	2 116 13 is_stmt 0              @ ../User/Bsp/DM_Motor.c:116:13
	bl	float_to_uint
	.loc	2 116 11                        @ ../User/Bsp/DM_Motor.c:116:11
	strh.w	r0, [sp, #18]
	.loc	2 117 27 is_stmt 1              @ ../User/Bsp/DM_Motor.c:117:27
	vldr	s0, [sp, #40]
	vmov.f32	s1, #-3.000000e+01
	vmov.f32	s2, #3.000000e+01
	movs	r0, #12
	.loc	2 117 13 is_stmt 0              @ ../User/Bsp/DM_Motor.c:117:13
	str	r0, [sp, #4]                    @ 4-byte Spill
	bl	float_to_uint
	mov	r1, r0
	.loc	2 117 11                        @ ../User/Bsp/DM_Motor.c:117:11
	ldr	r0, [sp, #4]                    @ 4-byte Reload
	strh.w	r1, [sp, #16]
	.loc	2 118 26 is_stmt 1              @ ../User/Bsp/DM_Motor.c:118:26
	vldr	s0, [sp, #36]
	vldr	s1, .LCPI3_0
	vstr	s1, [sp]                        @ 4-byte Spill
	vldr	s2, .LCPI3_1
	.loc	2 118 12 is_stmt 0              @ ../User/Bsp/DM_Motor.c:118:12
	bl	float_to_uint
	vldr	s1, [sp]                        @ 4-byte Reload
	mov	r1, r0
	.loc	2 118 10                        @ ../User/Bsp/DM_Motor.c:118:10
	ldr	r0, [sp, #4]                    @ 4-byte Reload
	strh.w	r1, [sp, #14]
	.loc	2 119 26 is_stmt 1              @ ../User/Bsp/DM_Motor.c:119:26
	vldr	s0, [sp, #32]
	vmov.f32	s2, #5.000000e+00
	.loc	2 119 12 is_stmt 0              @ ../User/Bsp/DM_Motor.c:119:12
	bl	float_to_uint
	mov	r1, r0
	.loc	2 119 10                        @ ../User/Bsp/DM_Motor.c:119:10
	ldr	r0, [sp, #4]                    @ 4-byte Reload
	strh.w	r1, [sp, #12]
	.loc	2 120 27 is_stmt 1              @ ../User/Bsp/DM_Motor.c:120:27
	vldr	s0, [sp, #28]
	vmov.f32	s1, #-1.000000e+01
	vmov.f32	s2, #1.000000e+01
	.loc	2 120 13 is_stmt 0              @ ../User/Bsp/DM_Motor.c:120:13
	bl	float_to_uint
	.loc	2 120 11                        @ ../User/Bsp/DM_Motor.c:120:11
	strh.w	r0, [sp, #10]
	.loc	2 122 14 is_stmt 1              @ ../User/Bsp/DM_Motor.c:122:14
	ldrb.w	r0, [sp, #19]
	.loc	2 122 11 is_stmt 0              @ ../User/Bsp/DM_Motor.c:122:11
	strb.w	r0, [sp, #20]
	.loc	2 123 13 is_stmt 1              @ ../User/Bsp/DM_Motor.c:123:13
	ldrb.w	r0, [sp, #18]
	.loc	2 123 11 is_stmt 0              @ ../User/Bsp/DM_Motor.c:123:11
	strb.w	r0, [sp, #21]
	.loc	2 124 14 is_stmt 1              @ ../User/Bsp/DM_Motor.c:124:14
	ldrh.w	r0, [sp, #16]
	lsrs	r0, r0, #4
	.loc	2 124 11 is_stmt 0              @ ../User/Bsp/DM_Motor.c:124:11
	strb.w	r0, [sp, #22]
	.loc	2 125 15 is_stmt 1              @ ../User/Bsp/DM_Motor.c:125:15
	ldrh.w	r1, [sp, #16]
	.loc	2 125 33 is_stmt 0              @ ../User/Bsp/DM_Motor.c:125:33
	ldrb.w	r0, [sp, #15]
	.loc	2 125 31                        @ ../User/Bsp/DM_Motor.c:125:31
	orr.w	r0, r0, r1, lsl #4
	.loc	2 125 11                        @ ../User/Bsp/DM_Motor.c:125:11
	strb.w	r0, [sp, #23]
	.loc	2 126 13 is_stmt 1              @ ../User/Bsp/DM_Motor.c:126:13
	ldrb.w	r0, [sp, #14]
	.loc	2 126 11 is_stmt 0              @ ../User/Bsp/DM_Motor.c:126:11
	strb.w	r0, [sp, #24]
	.loc	2 127 14 is_stmt 1              @ ../User/Bsp/DM_Motor.c:127:14
	ldrh.w	r0, [sp, #12]
	lsrs	r0, r0, #4
	.loc	2 127 11 is_stmt 0              @ ../User/Bsp/DM_Motor.c:127:11
	strb.w	r0, [sp, #25]
	.loc	2 128 15 is_stmt 1              @ ../User/Bsp/DM_Motor.c:128:15
	ldrh.w	r1, [sp, #12]
	.loc	2 128 32 is_stmt 0              @ ../User/Bsp/DM_Motor.c:128:32
	ldrb.w	r0, [sp, #11]
	.loc	2 128 30                        @ ../User/Bsp/DM_Motor.c:128:30
	orr.w	r0, r0, r1, lsl #4
	.loc	2 128 11                        @ ../User/Bsp/DM_Motor.c:128:11
	strb.w	r0, [sp, #26]
	.loc	2 129 13 is_stmt 1              @ ../User/Bsp/DM_Motor.c:129:13
	ldrb.w	r0, [sp, #10]
	.loc	2 129 11 is_stmt 0              @ ../User/Bsp/DM_Motor.c:129:11
	strb.w	r0, [sp, #27]
	.loc	2 131 18 is_stmt 1              @ ../User/Bsp/DM_Motor.c:131:18
	ldr	r0, [sp, #52]
	.loc	2 131 24 is_stmt 0              @ ../User/Bsp/DM_Motor.c:131:24
	ldrh.w	r1, [sp, #8]
	add	r2, sp, #20
	.loc	2 131 3                         @ ../User/Bsp/DM_Motor.c:131:3
	bl	canx_send_data
	.loc	2 132 1 is_stmt 1               @ ../User/Bsp/DM_Motor.c:132:1
	add	sp, #56
	pop	{r7, pc}
.Ltmp25:
	.p2align	2
@ %bb.1:
	.loc	2 0 1 is_stmt 0                 @ ../User/Bsp/DM_Motor.c:0:1
.LCPI3_0:
	.long	0x00000000                      @ float 0
.LCPI3_1:
	.long	0x43fa0000                      @ float 500
.Lfunc_end3:
	.size	mit_ctrl, .Lfunc_end3-mit_ctrl
	.cfi_endproc
	.cantunwind
	.fnend
                                        @ -- End function
	.section	.text.pos_speed_ctrl,"ax",%progbits
	.hidden	pos_speed_ctrl                  @ -- Begin function pos_speed_ctrl
	.globl	pos_speed_ctrl
	.p2align	2
	.type	pos_speed_ctrl,%function
	.code	16                              @ @pos_speed_ctrl
	.thumb_func
pos_speed_ctrl:
.Lfunc_begin4:
	.loc	2 145 0 is_stmt 1               @ ../User/Bsp/DM_Motor.c:145:0
	.fnstart
	.cfi_startproc
@ %bb.0:
	.save	{r7, lr}
	push	{r7, lr}
	.cfi_def_cfa_offset 8
	.cfi_offset lr, -4
	.cfi_offset r7, -8
	.pad	#40
	sub	sp, #40
	.cfi_def_cfa_offset 48
                                        @ kill: def $r2 killed $r1
	str	r0, [sp, #36]
	strh.w	r1, [sp, #34]
	vstr	s0, [sp, #28]
	vstr	s1, [sp, #24]
.Ltmp26:
	.loc	2 150 8 prologue_end            @ ../User/Bsp/DM_Motor.c:150:8
	ldrh.w	r0, [sp, #34]
	.loc	2 150 17 is_stmt 0              @ ../User/Bsp/DM_Motor.c:150:17
	add.w	r0, r0, #256
	.loc	2 150 6                         @ ../User/Bsp/DM_Motor.c:150:6
	strh.w	r0, [sp, #22]
	add	r0, sp, #28
	.loc	2 151 7 is_stmt 1               @ ../User/Bsp/DM_Motor.c:151:7
	str	r0, [sp, #16]
	add	r0, sp, #24
	.loc	2 152 7                         @ ../User/Bsp/DM_Motor.c:152:7
	str	r0, [sp, #12]
	.loc	2 154 14                        @ ../User/Bsp/DM_Motor.c:154:14
	ldr	r0, [sp, #16]
	.loc	2 154 13 is_stmt 0              @ ../User/Bsp/DM_Motor.c:154:13
	ldrb	r0, [r0]
	.loc	2 154 11                        @ ../User/Bsp/DM_Motor.c:154:11
	strb.w	r0, [sp, #4]
	.loc	2 155 15 is_stmt 1              @ ../User/Bsp/DM_Motor.c:155:15
	ldr	r0, [sp, #16]
	.loc	2 155 13 is_stmt 0              @ ../User/Bsp/DM_Motor.c:155:13
	ldrb	r0, [r0, #1]
	.loc	2 155 11                        @ ../User/Bsp/DM_Motor.c:155:11
	strb.w	r0, [sp, #5]
	.loc	2 156 15 is_stmt 1              @ ../User/Bsp/DM_Motor.c:156:15
	ldr	r0, [sp, #16]
	.loc	2 156 13 is_stmt 0              @ ../User/Bsp/DM_Motor.c:156:13
	ldrb	r0, [r0, #2]
	.loc	2 156 11                        @ ../User/Bsp/DM_Motor.c:156:11
	strb.w	r0, [sp, #6]
	.loc	2 157 15 is_stmt 1              @ ../User/Bsp/DM_Motor.c:157:15
	ldr	r0, [sp, #16]
	.loc	2 157 13 is_stmt 0              @ ../User/Bsp/DM_Motor.c:157:13
	ldrb	r0, [r0, #3]
	.loc	2 157 11                        @ ../User/Bsp/DM_Motor.c:157:11
	strb.w	r0, [sp, #7]
	.loc	2 159 14 is_stmt 1              @ ../User/Bsp/DM_Motor.c:159:14
	ldr	r0, [sp, #12]
	.loc	2 159 13 is_stmt 0              @ ../User/Bsp/DM_Motor.c:159:13
	ldrb	r0, [r0]
	.loc	2 159 11                        @ ../User/Bsp/DM_Motor.c:159:11
	strb.w	r0, [sp, #8]
	.loc	2 160 15 is_stmt 1              @ ../User/Bsp/DM_Motor.c:160:15
	ldr	r0, [sp, #12]
	.loc	2 160 13 is_stmt 0              @ ../User/Bsp/DM_Motor.c:160:13
	ldrb	r0, [r0, #1]
	.loc	2 160 11                        @ ../User/Bsp/DM_Motor.c:160:11
	strb.w	r0, [sp, #9]
	.loc	2 161 15 is_stmt 1              @ ../User/Bsp/DM_Motor.c:161:15
	ldr	r0, [sp, #12]
	.loc	2 161 13 is_stmt 0              @ ../User/Bsp/DM_Motor.c:161:13
	ldrb	r0, [r0, #2]
	.loc	2 161 11                        @ ../User/Bsp/DM_Motor.c:161:11
	strb.w	r0, [sp, #10]
	.loc	2 162 15 is_stmt 1              @ ../User/Bsp/DM_Motor.c:162:15
	ldr	r0, [sp, #12]
	.loc	2 162 13 is_stmt 0              @ ../User/Bsp/DM_Motor.c:162:13
	ldrb	r0, [r0, #3]
	.loc	2 162 11                        @ ../User/Bsp/DM_Motor.c:162:11
	strb.w	r0, [sp, #11]
	.loc	2 164 18 is_stmt 1              @ ../User/Bsp/DM_Motor.c:164:18
	ldr	r0, [sp, #36]
	.loc	2 164 24 is_stmt 0              @ ../User/Bsp/DM_Motor.c:164:24
	ldrh.w	r1, [sp, #22]
	add	r2, sp, #4
	.loc	2 164 3                         @ ../User/Bsp/DM_Motor.c:164:3
	bl	canx_send_data
	.loc	2 165 1 is_stmt 1               @ ../User/Bsp/DM_Motor.c:165:1
	add	sp, #40
	pop	{r7, pc}
.Ltmp27:
.Lfunc_end4:
	.size	pos_speed_ctrl, .Lfunc_end4-pos_speed_ctrl
	.cfi_endproc
	.cantunwind
	.fnend
                                        @ -- End function
	.section	.text.speed_ctrl,"ax",%progbits
	.hidden	speed_ctrl                      @ -- Begin function speed_ctrl
	.globl	speed_ctrl
	.p2align	2
	.type	speed_ctrl,%function
	.code	16                              @ @speed_ctrl
	.thumb_func
speed_ctrl:
.Lfunc_begin5:
	.loc	2 178 0                         @ ../User/Bsp/DM_Motor.c:178:0
	.fnstart
	.cfi_startproc
@ %bb.0:
	.save	{r7, lr}
	push	{r7, lr}
	.cfi_def_cfa_offset 8
	.cfi_offset lr, -4
	.cfi_offset r7, -8
	.pad	#24
	sub	sp, #24
	.cfi_def_cfa_offset 32
                                        @ kill: def $r2 killed $r1
	str	r0, [sp, #20]
	strh.w	r1, [sp, #18]
	vstr	s0, [sp, #12]
.Ltmp28:
	.loc	2 183 8 prologue_end            @ ../User/Bsp/DM_Motor.c:183:8
	ldrh.w	r0, [sp, #18]
	.loc	2 183 17 is_stmt 0              @ ../User/Bsp/DM_Motor.c:183:17
	add.w	r0, r0, #512
	.loc	2 183 6                         @ ../User/Bsp/DM_Motor.c:183:6
	strh.w	r0, [sp, #10]
	add	r0, sp, #12
	.loc	2 184 7 is_stmt 1               @ ../User/Bsp/DM_Motor.c:184:7
	str	r0, [sp, #4]
	.loc	2 186 14                        @ ../User/Bsp/DM_Motor.c:186:14
	ldr	r0, [sp, #4]
	.loc	2 186 13 is_stmt 0              @ ../User/Bsp/DM_Motor.c:186:13
	ldrb	r0, [r0]
	.loc	2 186 11                        @ ../User/Bsp/DM_Motor.c:186:11
	strb.w	r0, [sp]
	.loc	2 187 15 is_stmt 1              @ ../User/Bsp/DM_Motor.c:187:15
	ldr	r0, [sp, #4]
	.loc	2 187 13 is_stmt 0              @ ../User/Bsp/DM_Motor.c:187:13
	ldrb	r0, [r0, #1]
	.loc	2 187 11                        @ ../User/Bsp/DM_Motor.c:187:11
	strb.w	r0, [sp, #1]
	.loc	2 188 15 is_stmt 1              @ ../User/Bsp/DM_Motor.c:188:15
	ldr	r0, [sp, #4]
	.loc	2 188 13 is_stmt 0              @ ../User/Bsp/DM_Motor.c:188:13
	ldrb	r0, [r0, #2]
	.loc	2 188 11                        @ ../User/Bsp/DM_Motor.c:188:11
	strb.w	r0, [sp, #2]
	.loc	2 189 15 is_stmt 1              @ ../User/Bsp/DM_Motor.c:189:15
	ldr	r0, [sp, #4]
	.loc	2 189 13 is_stmt 0              @ ../User/Bsp/DM_Motor.c:189:13
	ldrb	r0, [r0, #3]
	.loc	2 189 11                        @ ../User/Bsp/DM_Motor.c:189:11
	strb.w	r0, [sp, #3]
	.loc	2 191 18 is_stmt 1              @ ../User/Bsp/DM_Motor.c:191:18
	ldr	r0, [sp, #20]
	.loc	2 191 24 is_stmt 0              @ ../User/Bsp/DM_Motor.c:191:24
	ldrh.w	r1, [sp, #10]
	mov	r2, sp
	.loc	2 191 3                         @ ../User/Bsp/DM_Motor.c:191:3
	bl	canx_send_data
	.loc	2 192 1 is_stmt 1               @ ../User/Bsp/DM_Motor.c:192:1
	add	sp, #24
	pop	{r7, pc}
.Ltmp29:
.Lfunc_end5:
	.size	speed_ctrl, .Lfunc_end5-speed_ctrl
	.cfi_endproc
	.cantunwind
	.fnend
                                        @ -- End function
	.hidden	angleError                      @ @angleError
	.type	angleError,%object
	.section	.bss.angleError,"aw",%nobits
	.globl	angleError
	.p2align	1
angleError:
	.short	0                               @ 0x0
	.size	angleError, 2

	.hidden	spd_int16                       @ @spd_int16
	.type	spd_int16,%object
	.section	.bss.spd_int16,"aw",%nobits
	.globl	spd_int16
	.p2align	1
spd_int16:
	.short	0                               @ 0x0
	.size	spd_int16, 2

	.hidden	cur_int16                       @ @cur_int16
	.type	cur_int16,%object
	.section	.bss.cur_int16,"aw",%nobits
	.globl	cur_int16
	.p2align	1
cur_int16:
	.short	0                               @ 0x0
	.size	cur_int16, 2

	.file	7 "D:\\horizon\\Horizon_Infantry (2)\\MDK-ARM" "../User/Algorithm/inc/user_lib.h"
	.file	8 "D:\\horizon\\Horizon_Infantry (2)\\MDK-ARM" "../Drivers/CMSIS/Device/ST/STM32F4xx/Include/stm32f407xx.h"
	.file	9 "D:\\horizon\\Horizon_Infantry (2)\\MDK-ARM" "../User/Bsp/inc/can_bsp.h"
	.section	".note.GNU-stack","",%progbits
	.eabi_attribute	30, 6	@ Tag_ABI_optimization_goals
	.ARM_attribute	16, 1	@ Tag_AV_eba