	.text
	.syntax unified
	.eabi_attribute	67, "2.09"	@ Tag_conformance
	.cpu	cortex-m4
	.eabi_attribute	6, 13	@ Tag_CPU_arch
	.eabi_attribute	7, 77	@ Tag_CPU_arch_profile
	.eabi_attribute	8, 0	@ Tag_ARM_ISA_use
	.eabi_attribute	9, 2	@ Tag_THUMB_ISA_use
	.fpu	fpv4-sp-d16
	.eabi_attribute	27, 1	@ Tag_ABI_HardFP_use
	.eabi_attribute	36, 1	@ Tag_FP_HP_extension
	.eabi_attribute	34, 1	@ Tag_CPU_unaligned_access
	.eabi_attribute	17, 1	@ Tag_ABI_PCS_GOT_use
	.eabi_attribute	20, 2	@ Tag_ABI_FP_denormal
	.eabi_attribute	21, 0	@ Tag_ABI_FP_exceptions
	.eabi_attribute	23, 1	@ Tag_ABI_FP_number_model
	.eabi_attribute	24, 1	@ Tag_ABI_align_needed
	.eabi_attribute	25, 1	@ Tag_ABI_align_preserved
	.eabi_attribute	28, 1	@ Tag_ABI_VFP_args
	.eabi_attribute	38, 1	@ Tag_ABI_FP_16bit_format
	.eabi_attribute	18, 2	@ Tag_ABI_PCS_wchar_t
	.eabi_attribute	26, 1	@ Tag_ABI_enum_size
	.eabi_attribute	14, 0	@ Tag_ABI_PCS_R9_use
	.file	"FastMathFunctions.c"
	.file	1 "D:\\horizon\\Horizon_Infantry (2)\\MDK-ARM" "../Middlewares/CMSIS/DSP/Inc\\arm_math_types.h"
	.file	2 "D:\\horizon\\Horizon_Infantry (2)\\MDK-ARM" "../Middlewares/CMSIS/DSP/Src/FastMathFunctions/arm_atan2_f32.c"
	.file	3 "D:\\" "kevil\\ARM\\ARMCLANG\\Bin\\..\\include\\stdint.h"
	.file	4 "D:\\horizon\\Horizon_Infantry (2)\\MDK-ARM" "../Middlewares/CMSIS/DSP/Src/FastMathFunctions/arm_atan2_q31.c"
	.file	5 "D:\\horizon\\Horizon_Infantry (2)\\MDK-ARM" "../Middlewares/CMSIS/DSP/Src/FastMathFunctions/arm_atan2_q15.c"
	.section	.text.arm_cos_f32,"ax",%progbits
	.hidden	arm_cos_f32                     @ -- Begin function arm_cos_f32
	.globl	arm_cos_f32
	.p2align	2
	.type	arm_cos_f32,%function
	.code	16                              @ @arm_cos_f32
	.thumb_func
arm_cos_f32:
.Lfunc_begin0:
	.file	6 "D:\\horizon\\Horizon_Infantry (2)\\MDK-ARM" "../Middlewares/CMSIS/DSP/Src/FastMathFunctions/arm_cos_f32.c"
	.loc	6 72 0                          @ ../Middlewares/CMSIS/DSP/Src/FastMathFunctions/arm_cos_f32.c:72:0
	.fnstart
	.cfi_sections .debug_frame
	.cfi_startproc
@ %bb.0:
	.pad	#36
	sub	sp, #36
	.cfi_def_cfa_offset 36
	vstr	s0, [sp, #32]
.Ltmp0:
	.loc	6 81 8 prologue_end             @ ../Middlewares/CMSIS/DSP/Src/FastMathFunctions/arm_cos_f32.c:81:8
	vldr	s0, [sp, #32]
	vldr	s2, .LCPI0_0
	.loc	6 81 28 is_stmt 0               @ ../Middlewares/CMSIS/DSP/Src/FastMathFunctions/arm_cos_f32.c:81:28
	vmul.f32	s0, s0, s2
	vmov.f32	s2, #2.500000e-01
	vadd.f32	s0, s0, s2
	.loc	6 81 6                          @ ../Middlewares/CMSIS/DSP/Src/FastMathFunctions/arm_cos_f32.c:81:6
	vstr	s0, [sp, #20]
	.loc	6 84 17 is_stmt 1               @ ../Middlewares/CMSIS/DSP/Src/FastMathFunctions/arm_cos_f32.c:84:17
	vldr	s0, [sp, #20]
	.loc	6 84 5 is_stmt 0                @ ../Middlewares/CMSIS/DSP/Src/FastMathFunctions/arm_cos_f32.c:84:5
	vcvt.s32.f32	s0, s0
	vstr	s0, [sp, #4]
.Ltmp1:
	.loc	6 87 7 is_stmt 1                @ ../Middlewares/CMSIS/DSP/Src/FastMathFunctions/arm_cos_f32.c:87:7
	vldr	s0, [sp, #20]
.Ltmp2:
	.loc	6 87 7 is_stmt 0                @ ../Middlewares/CMSIS/DSP/Src/FastMathFunctions/arm_cos_f32.c:87:7
	vcmp.f32	s0, #0
	vmrs	APSR_nzcv, fpscr
	bge	.LBB0_2
	b	.LBB0_1
.LBB0_1:
.Ltmp3:
	.loc	6 89 6 is_stmt 1                @ ../Middlewares/CMSIS/DSP/Src/FastMathFunctions/arm_cos_f32.c:89:6
	ldr	r0, [sp, #4]
	subs	r0, #1
	str	r0, [sp, #4]
	.loc	6 90 3                          @ ../Middlewares/CMSIS/DSP/Src/FastMathFunctions/arm_cos_f32.c:90:3
	b	.LBB0_2
.Ltmp4:
.LBB0_2:
	.loc	6 93 8                          @ ../Middlewares/CMSIS/DSP/Src/FastMathFunctions/arm_cos_f32.c:93:8
	vldr	s0, [sp, #20]
	.loc	6 93 13 is_stmt 0               @ ../Middlewares/CMSIS/DSP/Src/FastMathFunctions/arm_cos_f32.c:93:13
	vldr	s2, [sp, #4]
	vcvt.f32.s32	s2, s2
	.loc	6 93 11                         @ ../Middlewares/CMSIS/DSP/Src/FastMathFunctions/arm_cos_f32.c:93:11
	vsub.f32	s0, s0, s2
	.loc	6 93 6                          @ ../Middlewares/CMSIS/DSP/Src/FastMathFunctions/arm_cos_f32.c:93:6
	vstr	s0, [sp, #20]
	.loc	6 96 29 is_stmt 1               @ ../Middlewares/CMSIS/DSP/Src/FastMathFunctions/arm_cos_f32.c:96:29
	vldr	s0, [sp, #20]
	vldr	s2, .LCPI0_1
	.loc	6 96 27 is_stmt 0               @ ../Middlewares/CMSIS/DSP/Src/FastMathFunctions/arm_cos_f32.c:96:27
	vmul.f32	s0, s0, s2
	.loc	6 96 10                         @ ../Middlewares/CMSIS/DSP/Src/FastMathFunctions/arm_cos_f32.c:96:10
	vstr	s0, [sp]
	.loc	6 97 21 is_stmt 1               @ ../Middlewares/CMSIS/DSP/Src/FastMathFunctions/arm_cos_f32.c:97:21
	vldr	s0, [sp]
	.loc	6 97 11 is_stmt 0               @ ../Middlewares/CMSIS/DSP/Src/FastMathFunctions/arm_cos_f32.c:97:11
	vcvt.s32.f32	s0, s0
	vmov	r0, s0
	.loc	6 97 9                          @ ../Middlewares/CMSIS/DSP/Src/FastMathFunctions/arm_cos_f32.c:97:9
	strh.w	r0, [sp, #18]
.Ltmp5:
	.loc	6 100 7 is_stmt 1               @ ../Middlewares/CMSIS/DSP/Src/FastMathFunctions/arm_cos_f32.c:100:7
	ldrh.w	r0, [sp, #18]
.Ltmp6:
	.loc	6 100 7 is_stmt 0               @ ../Middlewares/CMSIS/DSP/Src/FastMathFunctions/arm_cos_f32.c:100:7
	cmp.w	r0, #512
	blt	.LBB0_4
	b	.LBB0_3
.LBB0_3:
	.loc	6 0 7                           @ ../Middlewares/CMSIS/DSP/Src/FastMathFunctions/arm_cos_f32.c:0:7
	movs	r0, #0
.Ltmp7:
	.loc	6 101 11 is_stmt 1              @ ../Middlewares/CMSIS/DSP/Src/FastMathFunctions/arm_cos_f32.c:101:11
	strh.w	r0, [sp, #18]
	.loc	6 102 12                        @ ../Middlewares/CMSIS/DSP/Src/FastMathFunctions/arm_cos_f32.c:102:12
	vldr	s0, [sp]
	vldr	s2, .LCPI0_2
	vadd.f32	s0, s0, s2
	vstr	s0, [sp]
	.loc	6 103 3                         @ ../Middlewares/CMSIS/DSP/Src/FastMathFunctions/arm_cos_f32.c:103:3
	b	.LBB0_4
.Ltmp8:
.LBB0_4:
	.loc	6 106 11                        @ ../Middlewares/CMSIS/DSP/Src/FastMathFunctions/arm_cos_f32.c:106:11
	vldr	s0, [sp]
	.loc	6 106 32 is_stmt 0              @ ../Middlewares/CMSIS/DSP/Src/FastMathFunctions/arm_cos_f32.c:106:32
	ldrh.w	r0, [sp, #18]
	.loc	6 106 20                        @ ../Middlewares/CMSIS/DSP/Src/FastMathFunctions/arm_cos_f32.c:106:20
	vmov	s2, r0
	vcvt.f32.u32	s2, s2
	.loc	6 106 18                        @ ../Middlewares/CMSIS/DSP/Src/FastMathFunctions/arm_cos_f32.c:106:18
	vsub.f32	s0, s0, s2
	.loc	6 106 9                         @ ../Middlewares/CMSIS/DSP/Src/FastMathFunctions/arm_cos_f32.c:106:9
	vstr	s0, [sp, #24]
	.loc	6 109 20 is_stmt 1              @ ../Middlewares/CMSIS/DSP/Src/FastMathFunctions/arm_cos_f32.c:109:20
	ldrh.w	r1, [sp, #18]
	.loc	6 109 7 is_stmt 0               @ ../Middlewares/CMSIS/DSP/Src/FastMathFunctions/arm_cos_f32.c:109:7
	movw	r0, :lower16:sinTable_f32
	movt	r0, :upper16:sinTable_f32
	ldr.w	r1, [r0, r1, lsl #2]
	.loc	6 109 5                         @ ../Middlewares/CMSIS/DSP/Src/FastMathFunctions/arm_cos_f32.c:109:5
	str	r1, [sp, #12]
	.loc	6 110 20 is_stmt 1              @ ../Middlewares/CMSIS/DSP/Src/FastMathFunctions/arm_cos_f32.c:110:20
	ldrh.w	r1, [sp, #18]
	.loc	6 110 7 is_stmt 0               @ ../Middlewares/CMSIS/DSP/Src/FastMathFunctions/arm_cos_f32.c:110:7
	add.w	r0, r0, r1, lsl #2
	ldr	r0, [r0, #4]
	.loc	6 110 5                         @ ../Middlewares/CMSIS/DSP/Src/FastMathFunctions/arm_cos_f32.c:110:5
	str	r0, [sp, #8]
	.loc	6 113 20 is_stmt 1              @ ../Middlewares/CMSIS/DSP/Src/FastMathFunctions/arm_cos_f32.c:113:20
	vldr	s2, [sp, #24]
	vmov.f32	s0, #1.000000e+00
	.loc	6 113 18 is_stmt 0              @ ../Middlewares/CMSIS/DSP/Src/FastMathFunctions/arm_cos_f32.c:113:18
	vsub.f32	s0, s0, s2
	.loc	6 113 29                        @ ../Middlewares/CMSIS/DSP/Src/FastMathFunctions/arm_cos_f32.c:113:29
	vldr	s4, [sp, #12]
	.loc	6 113 41                        @ ../Middlewares/CMSIS/DSP/Src/FastMathFunctions/arm_cos_f32.c:113:41
	vldr	s6, [sp, #8]
	.loc	6 113 39                        @ ../Middlewares/CMSIS/DSP/Src/FastMathFunctions/arm_cos_f32.c:113:39
	vmul.f32	s2, s2, s6
	.loc	6 113 31                        @ ../Middlewares/CMSIS/DSP/Src/FastMathFunctions/arm_cos_f32.c:113:31
	vmul.f32	s0, s0, s4
	vadd.f32	s0, s0, s2
	.loc	6 113 10                        @ ../Middlewares/CMSIS/DSP/Src/FastMathFunctions/arm_cos_f32.c:113:10
	vstr	s0, [sp, #28]
	.loc	6 116 11 is_stmt 1              @ ../Middlewares/CMSIS/DSP/Src/FastMathFunctions/arm_cos_f32.c:116:11
	vldr	s0, [sp, #28]
	.loc	6 116 3 is_stmt 0               @ ../Middlewares/CMSIS/DSP/Src/FastMathFunctions/arm_cos_f32.c:116:3
	add	sp, #36
	bx	lr
.Ltmp9:
	.p2align	2
@ %bb.5:
	.loc	6 0 3                           @ ../Middlewares/CMSIS/DSP/Src/FastMathFunctions/arm_cos_f32.c:0:3
.LCPI0_0:
	.long	0x3e22f983                      @ float 0.159154937
.LCPI0_1:
	.long	0x44000000                      @ float 512
.LCPI0_2:
	.long	0xc4000000                      @ float -512
.Lfunc_end0:
	.size	arm_cos_f32, .Lfunc_end0-arm_cos_f32
	.cfi_endproc
	.cantunwind
	.fnend
                                        @ -- End function
	.section	.text.arm_cos_q15,"ax",%progbits
	.hidden	arm_cos_q15                     @ -- Begin function arm_cos_q15
	.globl	arm_cos_q15
	.p2align	2
	.type	arm_cos_q15,%function
	.code	16                              @ @arm_cos_q15
	.thumb_func
arm_cos_q15:
.Lfunc_begin1:
	.file	7 "D:\\horizon\\Horizon_Infantry (2)\\MDK-ARM" "../Middlewares/CMSIS/DSP/Src/FastMathFunctions/arm_cos_q15.c"
	.loc	7 51 0 is_stmt 1                @ ../Middlewares/CMSIS/DSP/Src/FastMathFunctions/arm_cos_q15.c:51:0
	.fnstart
	.cfi_startproc
@ %bb.0:
	.pad	#16
	sub	sp, #16
	.cfi_def_cfa_offset 16
                                        @ kill: def $r1 killed $r0
	strh.w	r0, [sp, #14]
.Ltmp10:
	.loc	7 58 7 prologue_end             @ ../Middlewares/CMSIS/DSP/Src/FastMathFunctions/arm_cos_q15.c:58:7
	ldrh.w	r0, [sp, #14]
	.loc	7 58 19 is_stmt 0               @ ../Middlewares/CMSIS/DSP/Src/FastMathFunctions/arm_cos_q15.c:58:19
	add.w	r0, r0, #8192
	.loc	7 58 5                          @ ../Middlewares/CMSIS/DSP/Src/FastMathFunctions/arm_cos_q15.c:58:5
	strh.w	r0, [sp, #14]
.Ltmp11:
	.loc	7 59 7 is_stmt 1                @ ../Middlewares/CMSIS/DSP/Src/FastMathFunctions/arm_cos_q15.c:59:7
	ldrsh.w	r0, [sp, #14]
.Ltmp12:
	.loc	7 59 7 is_stmt 0                @ ../Middlewares/CMSIS/DSP/Src/FastMathFunctions/arm_cos_q15.c:59:7
	cmp.w	r0, #-1
	bgt	.LBB1_2
	b	.LBB1_1
.LBB1_1:
.Ltmp13:
	.loc	7 61 9 is_stmt 1                @ ../Middlewares/CMSIS/DSP/Src/FastMathFunctions/arm_cos_q15.c:61:9
	ldrh.w	r0, [sp, #14]
	.loc	7 61 21 is_stmt 0               @ ../Middlewares/CMSIS/DSP/Src/FastMathFunctions/arm_cos_q15.c:61:21
	add.w	r0, r0, #32768
	.loc	7 61 7                          @ ../Middlewares/CMSIS/DSP/Src/FastMathFunctions/arm_cos_q15.c:61:7
	strh.w	r0, [sp, #14]
	.loc	7 62 3 is_stmt 1                @ ../Middlewares/CMSIS/DSP/Src/FastMathFunctions/arm_cos_q15.c:62:3
	b	.LBB1_2
.Ltmp14:
.LBB1_2:
	.loc	7 65 21                         @ ../Middlewares/CMSIS/DSP/Src/FastMathFunctions/arm_cos_q15.c:65:21
	ldrsh.w	r0, [sp, #14]
	.loc	7 65 23 is_stmt 0               @ ../Middlewares/CMSIS/DSP/Src/FastMathFunctions/arm_cos_q15.c:65:23
	lsrs	r0, r0, #6
	.loc	7 65 9                          @ ../Middlewares/CMSIS/DSP/Src/FastMathFunctions/arm_cos_q15.c:65:9
	str	r0, [sp, #8]
	.loc	7 68 12 is_stmt 1               @ ../Middlewares/CMSIS/DSP/Src/FastMathFunctions/arm_cos_q15.c:68:12
	ldrh.w	r0, [sp, #14]
	.loc	7 68 17 is_stmt 0               @ ../Middlewares/CMSIS/DSP/Src/FastMathFunctions/arm_cos_q15.c:68:17
	ldr	r1, [sp, #8]
	.loc	7 68 14                         @ ../Middlewares/CMSIS/DSP/Src/FastMathFunctions/arm_cos_q15.c:68:14
	sub.w	r0, r0, r1, lsl #6
	.loc	7 68 38                         @ ../Middlewares/CMSIS/DSP/Src/FastMathFunctions/arm_cos_q15.c:68:38
	lsls	r0, r0, #9
	.loc	7 68 9                          @ ../Middlewares/CMSIS/DSP/Src/FastMathFunctions/arm_cos_q15.c:68:9
	strh.w	r0, [sp, #2]
	.loc	7 71 20 is_stmt 1               @ ../Middlewares/CMSIS/DSP/Src/FastMathFunctions/arm_cos_q15.c:71:20
	ldr	r1, [sp, #8]
	.loc	7 71 7 is_stmt 0                @ ../Middlewares/CMSIS/DSP/Src/FastMathFunctions/arm_cos_q15.c:71:7
	movw	r0, :lower16:sinTable_q15
	movt	r0, :upper16:sinTable_q15
	ldrh.w	r1, [r0, r1, lsl #1]
	.loc	7 71 5                          @ ../Middlewares/CMSIS/DSP/Src/FastMathFunctions/arm_cos_q15.c:71:5
	strh.w	r1, [sp, #6]
	.loc	7 72 20 is_stmt 1               @ ../Middlewares/CMSIS/DSP/Src/FastMathFunctions/arm_cos_q15.c:72:20
	ldr	r1, [sp, #8]
	.loc	7 72 7 is_stmt 0                @ ../Middlewares/CMSIS/DSP/Src/FastMathFunctions/arm_cos_q15.c:72:7
	add.w	r0, r0, r1, lsl #1
	ldrh	r0, [r0, #2]
	.loc	7 72 5                          @ ../Middlewares/CMSIS/DSP/Src/FastMathFunctions/arm_cos_q15.c:72:5
	strh.w	r0, [sp, #4]
	.loc	7 75 30 is_stmt 1               @ ../Middlewares/CMSIS/DSP/Src/FastMathFunctions/arm_cos_q15.c:75:30
	ldrsh.w	r0, [sp, #2]
	.loc	7 75 28 is_stmt 0               @ ../Middlewares/CMSIS/DSP/Src/FastMathFunctions/arm_cos_q15.c:75:28
	rsb.w	r0, r0, #32768
	.loc	7 75 39                         @ ../Middlewares/CMSIS/DSP/Src/FastMathFunctions/arm_cos_q15.c:75:39
	ldrsh.w	r1, [sp, #6]
	.loc	7 75 37                         @ ../Middlewares/CMSIS/DSP/Src/FastMathFunctions/arm_cos_q15.c:75:37
	muls	r0, r1, r0
	.loc	7 75 41                         @ ../Middlewares/CMSIS/DSP/Src/FastMathFunctions/arm_cos_q15.c:75:41
	lsrs	r0, r0, #16
	.loc	7 75 10                         @ ../Middlewares/CMSIS/DSP/Src/FastMathFunctions/arm_cos_q15.c:75:10
	strh.w	r0, [sp, #12]
	.loc	7 76 23 is_stmt 1               @ ../Middlewares/CMSIS/DSP/Src/FastMathFunctions/arm_cos_q15.c:76:23
	ldrh.w	r1, [sp, #12]
	.loc	7 76 56 is_stmt 0               @ ../Middlewares/CMSIS/DSP/Src/FastMathFunctions/arm_cos_q15.c:76:56
	ldrsh.w	r0, [sp, #2]
	.loc	7 76 64                         @ ../Middlewares/CMSIS/DSP/Src/FastMathFunctions/arm_cos_q15.c:76:64
	ldrsh.w	r2, [sp, #4]
	.loc	7 76 62                         @ ../Middlewares/CMSIS/DSP/Src/FastMathFunctions/arm_cos_q15.c:76:62
	muls	r0, r2, r0
	.loc	7 76 45                         @ ../Middlewares/CMSIS/DSP/Src/FastMathFunctions/arm_cos_q15.c:76:45
	add.w	r0, r0, r1, lsl #16
	.loc	7 76 68                         @ ../Middlewares/CMSIS/DSP/Src/FastMathFunctions/arm_cos_q15.c:76:68
	lsrs	r0, r0, #16
	.loc	7 76 10                         @ ../Middlewares/CMSIS/DSP/Src/FastMathFunctions/arm_cos_q15.c:76:10
	strh.w	r0, [sp, #12]
	.loc	7 79 11 is_stmt 1               @ ../Middlewares/CMSIS/DSP/Src/FastMathFunctions/arm_cos_q15.c:79:11
	ldrh.w	r0, [sp, #12]
	.loc	7 79 18 is_stmt 0               @ ../Middlewares/CMSIS/DSP/Src/FastMathFunctions/arm_cos_q15.c:79:18
	lsls	r0, r0, #1
	.loc	7 79 3                          @ ../Middlewares/CMSIS/DSP/Src/FastMathFunctions/arm_cos_q15.c:79:3
	sxth	r0, r0
	add	sp, #16
	bx	lr
.Ltmp15:
.Lfunc_end1:
	.size	arm_cos_q15, .Lfunc_end1-arm_cos_q15
	.cfi_endproc
	.cantunwind
	.fnend
                                        @ -- End function
	.section	.text.arm_cos_q31,"ax",%progbits
	.hidden	arm_cos_q31                     @ -- Begin function arm_cos_q31
	.globl	arm_cos_q31
	.p2align	2
	.type	arm_cos_q31,%function
	.code	16                              @ @arm_cos_q31
	.thumb_func
arm_cos_q31:
.Lfunc_begin2:
	.file	8 "D:\\horizon\\Horizon_Infantry (2)\\MDK-ARM" "../Middlewares/CMSIS/DSP/Src/FastMathFunctions/arm_cos_q31.c"
	.loc	8 51 0 is_stmt 1                @ ../Middlewares/CMSIS/DSP/Src/FastMathFunctions/arm_cos_q31.c:51:0
	.fnstart
	.cfi_startproc
@ %bb.0:
	.pad	#24
	sub	sp, #24
	.cfi_def_cfa_offset 24
	str	r0, [sp, #20]
.Ltmp16:
	.loc	8 58 17 prologue_end            @ ../Middlewares/CMSIS/DSP/Src/FastMathFunctions/arm_cos_q31.c:58:17
	ldr	r0, [sp, #20]
	.loc	8 58 19 is_stmt 0               @ ../Middlewares/CMSIS/DSP/Src/FastMathFunctions/arm_cos_q31.c:58:19
	add.w	r0, r0, #536870912
	.loc	8 58 5                          @ ../Middlewares/CMSIS/DSP/Src/FastMathFunctions/arm_cos_q31.c:58:5
	str	r0, [sp, #20]
.Ltmp17:
	.loc	8 59 7 is_stmt 1                @ ../Middlewares/CMSIS/DSP/Src/FastMathFunctions/arm_cos_q31.c:59:7
	ldr	r0, [sp, #20]
.Ltmp18:
	.loc	8 59 7 is_stmt 0                @ ../Middlewares/CMSIS/DSP/Src/FastMathFunctions/arm_cos_q31.c:59:7
	cmp.w	r0, #-1
	bgt	.LBB2_2
	b	.LBB2_1
.LBB2_1:
.Ltmp19:
	.loc	8 61 19 is_stmt 1               @ ../Middlewares/CMSIS/DSP/Src/FastMathFunctions/arm_cos_q31.c:61:19
	ldr	r0, [sp, #20]
	.loc	8 61 21 is_stmt 0               @ ../Middlewares/CMSIS/DSP/Src/FastMathFunctions/arm_cos_q31.c:61:21
	add.w	r0, r0, #-2147483648
	.loc	8 61 7                          @ ../Middlewares/CMSIS/DSP/Src/FastMathFunctions/arm_cos_q31.c:61:7
	str	r0, [sp, #20]
	.loc	8 62 3 is_stmt 1                @ ../Middlewares/CMSIS/DSP/Src/FastMathFunctions/arm_cos_q31.c:62:3
	b	.LBB2_2
.Ltmp20:
.LBB2_2:
	.loc	8 65 21                         @ ../Middlewares/CMSIS/DSP/Src/FastMathFunctions/arm_cos_q31.c:65:21
	ldr	r0, [sp, #20]
	.loc	8 65 23 is_stmt 0               @ ../Middlewares/CMSIS/DSP/Src/FastMathFunctions/arm_cos_q31.c:65:23
	lsrs	r0, r0, #22
	.loc	8 65 9                          @ ../Middlewares/CMSIS/DSP/Src/FastMathFunctions/arm_cos_q31.c:65:9
	str	r0, [sp, #12]
	.loc	8 68 12 is_stmt 1               @ ../Middlewares/CMSIS/DSP/Src/FastMathFunctions/arm_cos_q31.c:68:12
	ldr	r0, [sp, #20]
	.loc	8 68 17 is_stmt 0               @ ../Middlewares/CMSIS/DSP/Src/FastMathFunctions/arm_cos_q31.c:68:17
	ldr	r1, [sp, #12]
	.loc	8 68 14                         @ ../Middlewares/CMSIS/DSP/Src/FastMathFunctions/arm_cos_q31.c:68:14
	sub.w	r0, r0, r1, lsl #22
	.loc	8 68 38                         @ ../Middlewares/CMSIS/DSP/Src/FastMathFunctions/arm_cos_q31.c:68:38
	lsls	r0, r0, #9
	.loc	8 68 9                          @ ../Middlewares/CMSIS/DSP/Src/FastMathFunctions/arm_cos_q31.c:68:9
	str	r0, [sp]
	.loc	8 71 20 is_stmt 1               @ ../Middlewares/CMSIS/DSP/Src/FastMathFunctions/arm_cos_q31.c:71:20
	ldr	r1, [sp, #12]
	.loc	8 71 7 is_stmt 0                @ ../Middlewares/CMSIS/DSP/Src/FastMathFunctions/arm_cos_q31.c:71:7
	movw	r0, :lower16:sinTable_q31
	movt	r0, :upper16:sinTable_q31
	ldr.w	r1, [r0, r1, lsl #2]
	.loc	8 71 5                          @ ../Middlewares/CMSIS/DSP/Src/FastMathFunctions/arm_cos_q31.c:71:5
	str	r1, [sp, #8]
	.loc	8 72 20 is_stmt 1               @ ../Middlewares/CMSIS/DSP/Src/FastMathFunctions/arm_cos_q31.c:72:20
	ldr	r1, [sp, #12]
	.loc	8 72 7 is_stmt 0                @ ../Middlewares/CMSIS/DSP/Src/FastMathFunctions/arm_cos_q31.c:72:7
	add.w	r0, r0, r1, lsl #2
	ldr	r0, [r0, #4]
	.loc	8 72 5                          @ ../Middlewares/CMSIS/DSP/Src/FastMathFunctions/arm_cos_q31.c:72:5
	str	r0, [sp, #4]
	.loc	8 75 34 is_stmt 1               @ ../Middlewares/CMSIS/DSP/Src/FastMathFunctions/arm_cos_q31.c:75:34
	ldr	r0, [sp]
	.loc	8 75 32 is_stmt 0               @ ../Middlewares/CMSIS/DSP/Src/FastMathFunctions/arm_cos_q31.c:75:32
	rsb.w	r0, r0, #-2147483648
	.loc	8 75 43                         @ ../Middlewares/CMSIS/DSP/Src/FastMathFunctions/arm_cos_q31.c:75:43
	ldr	r2, [sp, #8]
	asrs	r1, r2, #31
	.loc	8 75 41                         @ ../Middlewares/CMSIS/DSP/Src/FastMathFunctions/arm_cos_q31.c:75:41
	umull	r3, r2, r0, r2
	mla	r0, r0, r1, r2
	.loc	8 75 10                         @ ../Middlewares/CMSIS/DSP/Src/FastMathFunctions/arm_cos_q31.c:75:10
	str	r0, [sp, #16]
	.loc	8 76 23 is_stmt 1               @ ../Middlewares/CMSIS/DSP/Src/FastMathFunctions/arm_cos_q31.c:76:23
	ldr	r2, [sp, #16]
	.loc	8 76 56 is_stmt 0               @ ../Middlewares/CMSIS/DSP/Src/FastMathFunctions/arm_cos_q31.c:76:56
	ldr	r1, [sp]
	.loc	8 76 64                         @ ../Middlewares/CMSIS/DSP/Src/FastMathFunctions/arm_cos_q31.c:76:64
	ldr	r0, [sp, #4]
	.loc	8 76 45                         @ ../Middlewares/CMSIS/DSP/Src/FastMathFunctions/arm_cos_q31.c:76:45
	smmla	r0, r0, r1, r2
	.loc	8 76 10                         @ ../Middlewares/CMSIS/DSP/Src/FastMathFunctions/arm_cos_q31.c:76:10
	str	r0, [sp, #16]
	.loc	8 79 11 is_stmt 1               @ ../Middlewares/CMSIS/DSP/Src/FastMathFunctions/arm_cos_q31.c:79:11
	ldr	r0, [sp, #16]
	.loc	8 79 18 is_stmt 0               @ ../Middlewares/CMSIS/DSP/Src/FastMathFunctions/arm_cos_q31.c:79:18
	lsls	r0, r0, #1
	.loc	8 79 3                          @ ../Middlewares/CMSIS/DSP/Src/FastMathFunctions/arm_cos_q31.c:79:3
	add	sp, #24
	bx	lr
.Ltmp21:
.Lfunc_end2:
	.size	arm_cos_q31, .Lfunc_end2-arm_cos_q31
	.cfi_endproc
	.cantunwind
	.fnend
                                        @ -- End function
	.section	.text.arm_sin_f32,"ax",%progbits
	.hidden	arm_sin_f32                     @ -- Begin function arm_sin_f32
	.globl	arm_sin_f32
	.p2align	2
	.type	arm_sin_f32,%function
	.code	16                              @ @arm_sin_f32
	.thumb_func
arm_sin_f32:
.Lfunc_begin3:
	.file	9 "D:\\horizon\\Horizon_Infantry (2)\\MDK-ARM" "../Middlewares/CMSIS/DSP/Src/FastMathFunctions/arm_sin_f32.c"
	.loc	9 73 0 is_stmt 1                @ ../Middlewares/CMSIS/DSP/Src/FastMathFunctions/arm_sin_f32.c:73:0
	.fnstart
	.cfi_startproc
@ %bb.0:
	.pad	#36
	sub	sp, #36
	.cfi_def_cfa_offset 36
	vstr	s0, [sp, #32]
.Ltmp22:
	.loc	9 82 8 prologue_end             @ ../Middlewares/CMSIS/DSP/Src/FastMathFunctions/arm_sin_f32.c:82:8
	vldr	s0, [sp, #32]
	vldr	s2, .LCPI3_0
	.loc	9 82 10 is_stmt 0               @ ../Middlewares/CMSIS/DSP/Src/FastMathFunctions/arm_sin_f32.c:82:10
	vmul.f32	s0, s0, s2
	.loc	9 82 6                          @ ../Middlewares/CMSIS/DSP/Src/FastMathFunctions/arm_sin_f32.c:82:6
	vstr	s0, [sp, #20]
	.loc	9 85 17 is_stmt 1               @ ../Middlewares/CMSIS/DSP/Src/FastMathFunctions/arm_sin_f32.c:85:17
	vldr	s0, [sp, #20]
	.loc	9 85 5 is_stmt 0                @ ../Middlewares/CMSIS/DSP/Src/FastMathFunctions/arm_sin_f32.c:85:5
	vcvt.s32.f32	s0, s0
	vstr	s0, [sp, #4]
.Ltmp23:
	.loc	9 88 7 is_stmt 1                @ ../Middlewares/CMSIS/DSP/Src/FastMathFunctions/arm_sin_f32.c:88:7
	vldr	s0, [sp, #20]
.Ltmp24:
	.loc	9 88 7 is_stmt 0                @ ../Middlewares/CMSIS/DSP/Src/FastMathFunctions/arm_sin_f32.c:88:7
	vcmp.f32	s0, #0
	vmrs	APSR_nzcv, fpscr
	bge	.LBB3_2
	b	.LBB3_1
.LBB3_1:
.Ltmp25:
	.loc	9 90 6 is_stmt 1                @ ../Middlewares/CMSIS/DSP/Src/FastMathFunctions/arm_sin_f32.c:90:6
	ldr	r0, [sp, #4]
	subs	r0, #1
	str	r0, [sp, #4]
	.loc	9 91 3                          @ ../Middlewares/CMSIS/DSP/Src/FastMathFunctions/arm_sin_f32.c:91:3
	b	.LBB3_2
.Ltmp26:
.LBB3_2:
	.loc	9 94 8                          @ ../Middlewares/CMSIS/DSP/Src/FastMathFunctions/arm_sin_f32.c:94:8
	vldr	s0, [sp, #20]
	.loc	9 94 13 is_stmt 0               @ ../Middlewares/CMSIS/DSP/Src/FastMathFunctions/arm_sin_f32.c:94:13
	vldr	s2, [sp, #4]
	vcvt.f32.s32	s2, s2
	.loc	9 94 11                         @ ../Middlewares/CMSIS/DSP/Src/FastMathFunctions/arm_sin_f32.c:94:11
	vsub.f32	s0, s0, s2
	.loc	9 94 6                          @ ../Middlewares/CMSIS/DSP/Src/FastMathFunctions/arm_sin_f32.c:94:6
	vstr	s0, [sp, #20]
	.loc	9 97 29 is_stmt 1               @ ../Middlewares/CMSIS/DSP/Src/FastMathFunctions/arm_sin_f32.c:97:29
	vldr	s0, [sp, #20]
	vldr	s2, .LCPI3_1
	.loc	9 97 27 is_stmt 0               @ ../Middlewares/CMSIS/DSP/Src/FastMathFunctions/arm_sin_f32.c:97:27
	vmul.f32	s0, s0, s2
	.loc	9 97 10                         @ ../Middlewares/CMSIS/DSP/Src/FastMathFunctions/arm_sin_f32.c:97:10
	vstr	s0, [sp]
	.loc	9 98 21 is_stmt 1               @ ../Middlewares/CMSIS/DSP/Src/FastMathFunctions/arm_sin_f32.c:98:21
	vldr	s0, [sp]
	.loc	9 98 11 is_stmt 0               @ ../Middlewares/CMSIS/DSP/Src/FastMathFunctions/arm_sin_f32.c:98:11
	vcvt.s32.f32	s0, s0
	vmov	r0, s0
	.loc	9 98 9                          @ ../Middlewares/CMSIS/DSP/Src/FastMathFunctions/arm_sin_f32.c:98:9
	strh.w	r0, [sp, #18]
.Ltmp27:
	.loc	9 101 7 is_stmt 1               @ ../Middlewares/CMSIS/DSP/Src/FastMathFunctions/arm_sin_f32.c:101:7
	ldrh.w	r0, [sp, #18]
.Ltmp28:
	.loc	9 101 7 is_stmt 0               @ ../Middlewares/CMSIS/DSP/Src/FastMathFunctions/arm_sin_f32.c:101:7
	cmp.w	r0, #512
	blt	.LBB3_4
	b	.LBB3_3
.LBB3_3:
	.loc	9 0 7                           @ ../Middlewares/CMSIS/DSP/Src/FastMathFunctions/arm_sin_f32.c:0:7
	movs	r0, #0
.Ltmp29:
	.loc	9 102 11 is_stmt 1              @ ../Middlewares/CMSIS/DSP/Src/FastMathFunctions/arm_sin_f32.c:102:11
	strh.w	r0, [sp, #18]
	.loc	9 103 12                        @ ../Middlewares/CMSIS/DSP/Src/FastMathFunctions/arm_sin_f32.c:103:12
	vldr	s0, [sp]
	vldr	s2, .LCPI3_2
	vadd.f32	s0, s0, s2
	vstr	s0, [sp]
	.loc	9 104 3                         @ ../Middlewares/CMSIS/DSP/Src/FastMathFunctions/arm_sin_f32.c:104:3
	b	.LBB3_4
.Ltmp30:
.LBB3_4:
	.loc	9 107 11                        @ ../Middlewares/CMSIS/DSP/Src/FastMathFunctions/arm_sin_f32.c:107:11
	vldr	s0, [sp]
	.loc	9 107 32 is_stmt 0              @ ../Middlewares/CMSIS/DSP/Src/FastMathFunctions/arm_sin_f32.c:107:32
	ldrh.w	r0, [sp, #18]
	.loc	9 107 20                        @ ../Middlewares/CMSIS/DSP/Src/FastMathFunctions/arm_sin_f32.c:107:20
	vmov	s2, r0
	vcvt.f32.u32	s2, s2
	.loc	9 107 18                        @ ../Middlewares/CMSIS/DSP/Src/FastMathFunctions/arm_sin_f32.c:107:18
	vsub.f32	s0, s0, s2
	.loc	9 107 9                         @ ../Middlewares/CMSIS/DSP/Src/FastMathFunctions/arm_sin_f32.c:107:9
	vstr	s0, [sp, #24]
	.loc	9 110 20 is_stmt 1              @ ../Middlewares/CMSIS/DSP/Src/FastMathFunctions/arm_sin_f32.c:110:20
	ldrh.w	r1, [sp, #18]
	.loc	9 110 7 is_stmt 0               @ ../Middlewares/CMSIS/DSP/Src/FastMathFunctions/arm_sin_f32.c:110:7
	movw	r0, :lower16:sinTable_f32
	movt	r0, :upper16:sinTable_f32
	ldr.w	r1, [r0, r1, lsl #2]
	.loc	9 110 5                         @ ../Middlewares/CMSIS/DSP/Src/FastMathFunctions/arm_sin_f32.c:110:5
	str	r1, [sp, #12]
	.loc	9 111 20 is_stmt 1              @ ../Middlewares/CMSIS/DSP/Src/FastMathFunctions/arm_sin_f32.c:111:20
	ldrh.w	r1, [sp, #18]
	.loc	9 111 7 is_stmt 0               @ ../Middlewares/CMSIS/DSP/Src/FastMathFunctions/arm_sin_f32.c:111:7
	add.w	r0, r0, r1, lsl #2
	ldr	r0, [r0, #4]
	.loc	9 111 5                         @ ../Middlewares/CMSIS/DSP/Src/FastMathFunctions/arm_sin_f32.c:111:5
	str	r0, [sp, #8]
	.loc	9 114 20 is_stmt 1              @ ../Middlewares/CMSIS/DSP/Src/FastMathFunctions/arm_sin_f32.c:114:20
	vldr	s2, [sp, #24]
	vmov.f32	s0, #1.000000e+00
	.loc	9 114 18 is_stmt 0              @ ../Middlewares/CMSIS/DSP/Src/FastMathFunctions/arm_sin_f32.c:114:18
	vsub.f32	s0, s0, s2
	.loc	9 114 29                        @ ../Middlewares/CMSIS/DSP/Src/FastMathFunctions/arm_sin_f32.c:114:29
	vldr	s4, [sp, #12]
	.loc	9 114 41                        @ ../Middlewares/CMSIS/DSP/Src/FastMathFunctions/arm_sin_f32.c:114:41
	vldr	s6, [sp, #8]
	.loc	9 114 39                        @ ../Middlewares/CMSIS/DSP/Src/FastMathFunctions/arm_sin_f32.c:114:39
	vmul.f32	s2, s2, s6
	.loc	9 114 31                        @ ../Middlewares/CMSIS/DSP/Src/FastMathFunctions/arm_sin_f32.c:114:31
	vmul.f32	s0, s0, s4
	vadd.f32	s0, s0, s2
	.loc	9 114 10                        @ ../Middlewares/CMSIS/DSP/Src/FastMathFunctions/arm_sin_f32.c:114:10
	vstr	s0, [sp, #28]
	.loc	9 117 11 is_stmt 1              @ ../Middlewares/CMSIS/DSP/Src/FastMathFunctions/arm_sin_f32.c:117:11
	vldr	s0, [sp, #28]
	.loc	9 117 3 is_stmt 0               @ ../Middlewares/CMSIS/DSP/Src/FastMathFunctions/arm_sin_f32.c:117:3
	add	sp, #36
	bx	lr
.Ltmp31:
	.p2align	2
@ %bb.5:
	.loc	9 0 3                           @ ../Middlewares/CMSIS/DSP/Src/FastMathFunctions/arm_sin_f32.c:0:3
.LCPI3_0:
	.long	0x3e22f983                      @ float 0.159154937
.LCPI3_1:
	.long	0x44000000                      @ float 512
.LCPI3_2:
	.long	0xc4000000                      @ float -512
.Lfunc_end3:
	.size	arm_sin_f32, .Lfunc_end3-arm_sin_f32
	.cfi_endproc
	.cantunwind
	.fnend
                                        @ -- End function
	.section	.text.arm_sin_q15,"ax",%progbits
	.hidden	arm_sin_q15                     @ -- Begin function arm_sin_q15
	.globl	arm_sin_q15
	.p2align	2
	.type	arm_sin_q15,%function
	.code	16                              @ @arm_sin_q15
	.thumb_func
arm_sin_q15:
.Lfunc_begin4:
	.file	10 "D:\\horizon\\Horizon_Infantry (2)\\MDK-ARM" "../Middlewares/CMSIS/DSP/Src/FastMathFunctions/arm_sin_q15.c"
	.loc	10 51 0 is_stmt 1               @ ../Middlewares/CMSIS/DSP/Src/FastMathFunctions/arm_sin_q15.c:51:0
	.fnstart
	.cfi_startproc
@ %bb.0:
	.pad	#16
	sub	sp, #16
	.cfi_def_cfa_offset 16
                                        @ kill: def $r1 killed $r0
	strh.w	r0, [sp, #14]
.Ltmp32:
	.loc	10 58 7 prologue_end            @ ../Middlewares/CMSIS/DSP/Src/FastMathFunctions/arm_sin_q15.c:58:7
	ldrsh.w	r0, [sp, #14]
.Ltmp33:
	.loc	10 58 7 is_stmt 0               @ ../Middlewares/CMSIS/DSP/Src/FastMathFunctions/arm_sin_q15.c:58:7
	cmp.w	r0, #-1
	bgt	.LBB4_2
	b	.LBB4_1
.LBB4_1:
.Ltmp34:
	.loc	10 60 9 is_stmt 1               @ ../Middlewares/CMSIS/DSP/Src/FastMathFunctions/arm_sin_q15.c:60:9
	ldrh.w	r0, [sp, #14]
	.loc	10 60 21 is_stmt 0              @ ../Middlewares/CMSIS/DSP/Src/FastMathFunctions/arm_sin_q15.c:60:21
	add.w	r0, r0, #32768
	.loc	10 60 7                         @ ../Middlewares/CMSIS/DSP/Src/FastMathFunctions/arm_sin_q15.c:60:7
	strh.w	r0, [sp, #14]
	.loc	10 61 3 is_stmt 1               @ ../Middlewares/CMSIS/DSP/Src/FastMathFunctions/arm_sin_q15.c:61:3
	b	.LBB4_2
.Ltmp35:
.LBB4_2:
	.loc	10 64 21                        @ ../Middlewares/CMSIS/DSP/Src/FastMathFunctions/arm_sin_q15.c:64:21
	ldrsh.w	r0, [sp, #14]
	.loc	10 64 23 is_stmt 0              @ ../Middlewares/CMSIS/DSP/Src/FastMathFunctions/arm_sin_q15.c:64:23
	lsrs	r0, r0, #6
	.loc	10 64 9                         @ ../Middlewares/CMSIS/DSP/Src/FastMathFunctions/arm_sin_q15.c:64:9
	str	r0, [sp, #8]
	.loc	10 67 12 is_stmt 1              @ ../Middlewares/CMSIS/DSP/Src/FastMathFunctions/arm_sin_q15.c:67:12
	ldrh.w	r0, [sp, #14]
	.loc	10 67 17 is_stmt 0              @ ../Middlewares/CMSIS/DSP/Src/FastMathFunctions/arm_sin_q15.c:67:17
	ldr	r1, [sp, #8]
	.loc	10 67 14                        @ ../Middlewares/CMSIS/DSP/Src/FastMathFunctions/arm_sin_q15.c:67:14
	sub.w	r0, r0, r1, lsl #6
	.loc	10 67 38                        @ ../Middlewares/CMSIS/DSP/Src/FastMathFunctions/arm_sin_q15.c:67:38
	lsls	r0, r0, #9
	.loc	10 67 9                         @ ../Middlewares/CMSIS/DSP/Src/FastMathFunctions/arm_sin_q15.c:67:9
	strh.w	r0, [sp, #2]
	.loc	10 70 20 is_stmt 1              @ ../Middlewares/CMSIS/DSP/Src/FastMathFunctions/arm_sin_q15.c:70:20
	ldr	r1, [sp, #8]
	.loc	10 70 7 is_stmt 0               @ ../Middlewares/CMSIS/DSP/Src/FastMathFunctions/arm_sin_q15.c:70:7
	movw	r0, :lower16:sinTable_q15
	movt	r0, :upper16:sinTable_q15
	ldrh.w	r1, [r0, r1, lsl #1]
	.loc	10 70 5                         @ ../Middlewares/CMSIS/DSP/Src/FastMathFunctions/arm_sin_q15.c:70:5
	strh.w	r1, [sp, #6]
	.loc	10 71 20 is_stmt 1              @ ../Middlewares/CMSIS/DSP/Src/FastMathFunctions/arm_sin_q15.c:71:20
	ldr	r1, [sp, #8]
	.loc	10 71 7 is_stmt 0               @ ../Middlewares/CMSIS/DSP/Src/FastMathFunctions/arm_sin_q15.c:71:7
	add.w	r0, r0, r1, lsl #1
	ldrh	r0, [r0, #2]
	.loc	10 71 5                         @ ../Middlewares/CMSIS/DSP/Src/FastMathFunctions/arm_sin_q15.c:71:5
	strh.w	r0, [sp, #4]
	.loc	10 74 30 is_stmt 1              @ ../Middlewares/CMSIS/DSP/Src/FastMathFunctions/arm_sin_q15.c:74:30
	ldrsh.w	r0, [sp, #2]
	.loc	10 74 28 is_stmt 0              @ ../Middlewares/CMSIS/DSP/Src/FastMathFunctions/arm_sin_q15.c:74:28
	rsb.w	r0, r0, #32768
	.loc	10 74 39                        @ ../Middlewares/CMSIS/DSP/Src/FastMathFunctions/arm_sin_q15.c:74:39
	ldrsh.w	r1, [sp, #6]
	.loc	10 74 37                        @ ../Middlewares/CMSIS/DSP/Src/FastMathFunctions/arm_sin_q15.c:74:37
	muls	r0, r1, r0
	.loc	10 74 41                        @ ../Middlewares/CMSIS/DSP/Src/FastMathFunctions/arm_sin_q15.c:74:41
	lsrs	r0, r0, #16
	.loc	10 74 10                        @ ../Middlewares/CMSIS/DSP/Src/FastMathFunctions/arm_sin_q15.c:74:10
	strh.w	r0, [sp, #12]
	.loc	10 75 23 is_stmt 1              @ ../Middlewares/CMSIS/DSP/Src/FastMathFunctions/arm_sin_q15.c:75:23
	ldrh.w	r1, [sp, #12]
	.loc	10 75 56 is_stmt 0              @ ../Middlewares/CMSIS/DSP/Src/FastMathFunctions/arm_sin_q15.c:75:56
	ldrsh.w	r0, [sp, #2]
	.loc	10 75 64                        @ ../Middlewares/CMSIS/DSP/Src/FastMathFunctions/arm_sin_q15.c:75:64
	ldrsh.w	r2, [sp, #4]
	.loc	10 75 62                        @ ../Middlewares/CMSIS/DSP/Src/FastMathFunctions/arm_sin_q15.c:75:62
	muls	r0, r2, r0
	.loc	10 75 45                        @ ../Middlewares/CMSIS/DSP/Src/FastMathFunctions/arm_sin_q15.c:75:45
	add.w	r0, r0, r1, lsl #16
	.loc	10 75 68                        @ ../Middlewares/CMSIS/DSP/Src/FastMathFunctions/arm_sin_q15.c:75:68
	lsrs	r0, r0, #16
	.loc	10 75 10                        @ ../Middlewares/CMSIS/DSP/Src/FastMathFunctions/arm_sin_q15.c:75:10
	strh.w	r0, [sp, #12]
	.loc	10 78 11 is_stmt 1              @ ../Middlewares/CMSIS/DSP/Src/FastMathFunctions/arm_sin_q15.c:78:11
	ldrh.w	r0, [sp, #12]
	.loc	10 78 18 is_stmt 0              @ ../Middlewares/CMSIS/DSP/Src/FastMathFunctions/arm_sin_q15.c:78:18
	lsls	r0, r0, #1
	.loc	10 78 3                         @ ../Middlewares/CMSIS/DSP/Src/FastMathFunctions/arm_sin_q15.c:78:3
	sxth	r0, r0
	add	sp, #16
	bx	lr
.Ltmp36:
.Lfunc_end4:
	.size	arm_sin_q15, .Lfunc_end4-arm_sin_q15
	.cfi_endproc
	.cantunwind
	.fnend
                                        @ -- End function
	.section	.text.arm_sin_q31,"ax",%progbits
	.hidden	arm_sin_q31                     @ -- Begin function arm_sin_q31
	.globl	arm_sin_q31
	.p2align	2
	.type	arm_sin_q31,%function
	.code	16                              @ @arm_sin_q31
	.thumb_func
arm_sin_q31:
.Lfunc_begin5:
	.file	11 "D:\\horizon\\Horizon_Infantry (2)\\MDK-ARM" "../Middlewares/CMSIS/DSP/Src/FastMathFunctions/arm_sin_q31.c"
	.loc	11 51 0 is_stmt 1               @ ../Middlewares/CMSIS/DSP/Src/FastMathFunctions/arm_sin_q31.c:51:0
	.fnstart
	.cfi_startproc
@ %bb.0:
	.pad	#24
	sub	sp, #24
	.cfi_def_cfa_offset 24
	str	r0, [sp, #20]
.Ltmp37:
	.loc	11 57 7 prologue_end            @ ../Middlewares/CMSIS/DSP/Src/FastMathFunctions/arm_sin_q31.c:57:7
	ldr	r0, [sp, #20]
.Ltmp38:
	.loc	11 57 7 is_stmt 0               @ ../Middlewares/CMSIS/DSP/Src/FastMathFunctions/arm_sin_q31.c:57:7
	cmp.w	r0, #-1
	bgt	.LBB5_2
	b	.LBB5_1
.LBB5_1:
.Ltmp39:
	.loc	11 59 19 is_stmt 1              @ ../Middlewares/CMSIS/DSP/Src/FastMathFunctions/arm_sin_q31.c:59:19
	ldr	r0, [sp, #20]
	.loc	11 59 21 is_stmt 0              @ ../Middlewares/CMSIS/DSP/Src/FastMathFunctions/arm_sin_q31.c:59:21
	add.w	r0, r0, #-2147483648
	.loc	11 59 7                         @ ../Middlewares/CMSIS/DSP/Src/FastMathFunctions/arm_sin_q31.c:59:7
	str	r0, [sp, #20]
	.loc	11 60 3 is_stmt 1               @ ../Middlewares/CMSIS/DSP/Src/FastMathFunctions/arm_sin_q31.c:60:3
	b	.LBB5_2
.Ltmp40:
.LBB5_2:
	.loc	11 63 21                        @ ../Middlewares/CMSIS/DSP/Src/FastMathFunctions/arm_sin_q31.c:63:21
	ldr	r0, [sp, #20]
	.loc	11 63 23 is_stmt 0              @ ../Middlewares/CMSIS/DSP/Src/FastMathFunctions/arm_sin_q31.c:63:23
	lsrs	r0, r0, #22
	.loc	11 63 9                         @ ../Middlewares/CMSIS/DSP/Src/FastMathFunctions/arm_sin_q31.c:63:9
	str	r0, [sp, #12]
	.loc	11 66 12 is_stmt 1              @ ../Middlewares/CMSIS/DSP/Src/FastMathFunctions/arm_sin_q31.c:66:12
	ldr	r0, [sp, #20]
	.loc	11 66 17 is_stmt 0              @ ../Middlewares/CMSIS/DSP/Src/FastMathFunctions/arm_sin_q31.c:66:17
	ldr	r1, [sp, #12]
	.loc	11 66 14                        @ ../Middlewares/CMSIS/DSP/Src/FastMathFunctions/arm_sin_q31.c:66:14
	sub.w	r0, r0, r1, lsl #22
	.loc	11 66 38                        @ ../Middlewares/CMSIS/DSP/Src/FastMathFunctions/arm_sin_q31.c:66:38
	lsls	r0, r0, #9
	.loc	11 66 9                         @ ../Middlewares/CMSIS/DSP/Src/FastMathFunctions/arm_sin_q31.c:66:9
	str	r0, [sp]
	.loc	11 69 20 is_stmt 1              @ ../Middlewares/CMSIS/DSP/Src/FastMathFunctions/arm_sin_q31.c:69:20
	ldr	r1, [sp, #12]
	.loc	11 69 7 is_stmt 0               @ ../Middlewares/CMSIS/DSP/Src/FastMathFunctions/arm_sin_q31.c:69:7
	movw	r0, :lower16:sinTable_q31
	movt	r0, :upper16:sinTable_q31
	ldr.w	r1, [r0, r1, lsl #2]
	.loc	11 69 5                         @ ../Middlewares/CMSIS/DSP/Src/FastMathFunctions/arm_sin_q31.c:69:5
	str	r1, [sp, #8]
	.loc	11 70 20 is_stmt 1              @ ../Middlewares/CMSIS/DSP/Src/FastMathFunctions/arm_sin_q31.c:70:20
	ldr	r1, [sp, #12]
	.loc	11 70 7 is_stmt 0               @ ../Middlewares/CMSIS/DSP/Src/FastMathFunctions/arm_sin_q31.c:70:7
	add.w	r0, r0, r1, lsl #2
	ldr	r0, [r0, #4]
	.loc	11 70 5                         @ ../Middlewares/CMSIS/DSP/Src/FastMathFunctions/arm_sin_q31.c:70:5
	str	r0, [sp, #4]
	.loc	11 73 34 is_stmt 1              @ ../Middlewares/CMSIS/DSP/Src/FastMathFunctions/arm_sin_q31.c:73:34
	ldr	r0, [sp]
	.loc	11 73 32 is_stmt 0              @ ../Middlewares/CMSIS/DSP/Src/FastMathFunctions/arm_sin_q31.c:73:32
	rsb.w	r0, r0, #-2147483648
	.loc	11 73 43                        @ ../Middlewares/CMSIS/DSP/Src/FastMathFunctions/arm_sin_q31.c:73:43
	ldr	r2, [sp, #8]
	asrs	r1, r2, #31
	.loc	11 73 41                        @ ../Middlewares/CMSIS/DSP/Src/FastMathFunctions/arm_sin_q31.c:73:41
	umull	r3, r2, r0, r2
	mla	r0, r0, r1, r2
	.loc	11 73 10                        @ ../Middlewares/CMSIS/DSP/Src/FastMathFunctions/arm_sin_q31.c:73:10
	str	r0, [sp, #16]
	.loc	11 74 23 is_stmt 1              @ ../Middlewares/CMSIS/DSP/Src/FastMathFunctions/arm_sin_q31.c:74:23
	ldr	r2, [sp, #16]
	.loc	11 74 56 is_stmt 0              @ ../Middlewares/CMSIS/DSP/Src/FastMathFunctions/arm_sin_q31.c:74:56
	ldr	r1, [sp]
	.loc	11 74 64                        @ ../Middlewares/CMSIS/DSP/Src/FastMathFunctions/arm_sin_q31.c:74:64
	ldr	r0, [sp, #4]
	.loc	11 74 45                        @ ../Middlewares/CMSIS/DSP/Src/FastMathFunctions/arm_sin_q31.c:74:45
	smmla	r0, r0, r1, r2
	.loc	11 74 10                        @ ../Middlewares/CMSIS/DSP/Src/FastMathFunctions/arm_sin_q31.c:74:10
	str	r0, [sp, #16]
	.loc	11 77 11 is_stmt 1              @ ../Middlewares/CMSIS/DSP/Src/FastMathFunctions/arm_sin_q31.c:77:11
	ldr	r0, [sp, #16]
	.loc	11 77 18 is_stmt 0              @ ../Middlewares/CMSIS/DSP/Src/FastMathFunctions/arm_sin_q31.c:77:18
	lsls	r0, r0, #1
	.loc	11 77 3                         @ ../Middlewares/CMSIS/DSP/Src/FastMathFunctions/arm_sin_q31.c:77:3
	add	sp, #24
	bx	lr
.Ltmp41:
.Lfunc_end5:
	.size	arm_sin_q31, .Lfunc_end5-arm_sin_q31
	.cfi_endproc
	.cantunwind
	.fnend
                                        @ -- End function
	.section	.text.arm_sqrt_q31,"ax",%progbits
	.hidden	arm_sqrt_q31                    @ -- Begin function arm_sqrt_q31
	.globl	arm_sqrt_q31
	.p2align	2
	.type	arm_sqrt_q31,%function
	.code	16                              @ @arm_sqrt_q31
	.thumb_func
arm_sqrt_q31:
.Lfunc_begin6:
	.file	12 "D:\\horizon\\Horizon_Infantry (2)\\MDK-ARM" "../Middlewares/CMSIS/DSP/Src/FastMathFunctions/arm_sqrt_q31.c"
	.loc	12 55 0 is_stmt 1               @ ../Middlewares/CMSIS/DSP/Src/FastMathFunctions/arm_sqrt_q31.c:55:0
	.fnstart
	.cfi_startproc
@ %bb.0:
	.pad	#36
	sub	sp, #36
	.cfi_def_cfa_offset 36
	str	r0, [sp, #20]
	str	r1, [sp, #16]
.Ltmp42:
	.loc	12 58 12 prologue_end           @ ../Middlewares/CMSIS/DSP/Src/FastMathFunctions/arm_sqrt_q31.c:58:12
	ldr	r0, [sp, #20]
	.loc	12 58 10 is_stmt 0              @ ../Middlewares/CMSIS/DSP/Src/FastMathFunctions/arm_sqrt_q31.c:58:10
	str	r0, [sp, #12]
.Ltmp43:
	.loc	12 61 7 is_stmt 1               @ ../Middlewares/CMSIS/DSP/Src/FastMathFunctions/arm_sqrt_q31.c:61:7
	ldr	r0, [sp, #12]
.Ltmp44:
	.loc	12 61 7 is_stmt 0               @ ../Middlewares/CMSIS/DSP/Src/FastMathFunctions/arm_sqrt_q31.c:61:7
	cmp	r0, #1
	blt.w	.LBB6_11
	b	.LBB6_1
.LBB6_1:
.Ltmp45:
	.loc	12 63 23 is_stmt 1              @ ../Middlewares/CMSIS/DSP/Src/FastMathFunctions/arm_sqrt_q31.c:63:23
	ldr	r0, [sp, #12]
	str	r0, [sp, #28]
.Ltmp46:
	.file	13 "D:\\horizon\\Horizon_Infantry (2)\\MDK-ARM" "../Drivers/CMSIS/Include/cmsis_armclang.h"
	.loc	13 306 7                        @ ../Drivers/CMSIS/Include/cmsis_armclang.h:306:7
	ldr	r0, [sp, #28]
.Ltmp47:
	.loc	13 306 7 is_stmt 0              @ ../Drivers/CMSIS/Include/cmsis_armclang.h:306:7
	cbnz	r0, .LBB6_3
	b	.LBB6_2
.LBB6_2:
	.loc	13 0 7                          @ ../Drivers/CMSIS/Include/cmsis_armclang.h:0:7
	movs	r0, #32
.Ltmp48:
	.loc	13 308 5 is_stmt 1              @ ../Drivers/CMSIS/Include/cmsis_armclang.h:308:5
	strb.w	r0, [sp, #35]
	b	.LBB6_4
.Ltmp49:
.LBB6_3:
	.loc	13 310 24                       @ ../Drivers/CMSIS/Include/cmsis_armclang.h:310:24
	ldr	r0, [sp, #28]
	.loc	13 310 10 is_stmt 0             @ ../Drivers/CMSIS/Include/cmsis_armclang.h:310:10
	clz	r0, r0
	.loc	13 310 3                        @ ../Drivers/CMSIS/Include/cmsis_armclang.h:310:3
	strb.w	r0, [sp, #35]
	b	.LBB6_4
.LBB6_4:                                @ %__CLZ.exit
	.loc	13 311 1 is_stmt 1              @ ../Drivers/CMSIS/Include/cmsis_armclang.h:311:1
	ldrb.w	r0, [sp, #35]
.Ltmp50:
	.loc	12 63 31                        @ ../Middlewares/CMSIS/DSP/Src/FastMathFunctions/arm_sqrt_q31.c:63:31
	subs	r0, #1
	.loc	12 63 15 is_stmt 0              @ ../Middlewares/CMSIS/DSP/Src/FastMathFunctions/arm_sqrt_q31.c:63:15
	str	r0, [sp, #4]
.Ltmp51:
	.loc	12 66 10 is_stmt 1              @ ../Middlewares/CMSIS/DSP/Src/FastMathFunctions/arm_sqrt_q31.c:66:10
	ldr	r0, [sp, #4]
	.loc	12 66 20 is_stmt 0              @ ../Middlewares/CMSIS/DSP/Src/FastMathFunctions/arm_sqrt_q31.c:66:20
	add.w	r1, r0, r0, lsr #31
	bic	r1, r1, #1
	subs	r0, r0, r1
.Ltmp52:
	.loc	12 66 9                         @ ../Middlewares/CMSIS/DSP/Src/FastMathFunctions/arm_sqrt_q31.c:66:9
	cbnz	r0, .LBB6_6
	b	.LBB6_5
.LBB6_5:
.Ltmp53:
	.loc	12 68 16 is_stmt 1              @ ../Middlewares/CMSIS/DSP/Src/FastMathFunctions/arm_sqrt_q31.c:68:16
	ldr	r0, [sp, #12]
	.loc	12 68 26 is_stmt 0              @ ../Middlewares/CMSIS/DSP/Src/FastMathFunctions/arm_sqrt_q31.c:68:26
	ldr	r1, [sp, #4]
	.loc	12 68 23                        @ ../Middlewares/CMSIS/DSP/Src/FastMathFunctions/arm_sqrt_q31.c:68:23
	lsls	r0, r1
	.loc	12 68 14                        @ ../Middlewares/CMSIS/DSP/Src/FastMathFunctions/arm_sqrt_q31.c:68:14
	str	r0, [sp, #12]
	.loc	12 69 5 is_stmt 1               @ ../Middlewares/CMSIS/DSP/Src/FastMathFunctions/arm_sqrt_q31.c:69:5
	b	.LBB6_7
.Ltmp54:
.LBB6_6:
	.loc	12 72 16                        @ ../Middlewares/CMSIS/DSP/Src/FastMathFunctions/arm_sqrt_q31.c:72:16
	ldr	r0, [sp, #12]
	.loc	12 72 27 is_stmt 0              @ ../Middlewares/CMSIS/DSP/Src/FastMathFunctions/arm_sqrt_q31.c:72:27
	ldr	r1, [sp, #4]
	.loc	12 72 37                        @ ../Middlewares/CMSIS/DSP/Src/FastMathFunctions/arm_sqrt_q31.c:72:37
	subs	r1, #1
	.loc	12 72 23                        @ ../Middlewares/CMSIS/DSP/Src/FastMathFunctions/arm_sqrt_q31.c:72:23
	lsls	r0, r1
	.loc	12 72 14                        @ ../Middlewares/CMSIS/DSP/Src/FastMathFunctions/arm_sqrt_q31.c:72:14
	str	r0, [sp, #12]
	b	.LBB6_7
.Ltmp55:
.LBB6_7:
	.loc	12 76 34 is_stmt 1              @ ../Middlewares/CMSIS/DSP/Src/FastMathFunctions/arm_sqrt_q31.c:76:34
	ldr	r0, [sp, #12]
	.loc	12 76 40 is_stmt 0              @ ../Middlewares/CMSIS/DSP/Src/FastMathFunctions/arm_sqrt_q31.c:76:40
	asrs	r1, r0, #26
	.loc	12 76 12                        @ ../Middlewares/CMSIS/DSP/Src/FastMathFunctions/arm_sqrt_q31.c:76:12
	movw	r0, :lower16:sqrt_initial_lut_q31
	movt	r0, :upper16:sqrt_initial_lut_q31
	add.w	r0, r0, r1, lsl #2
	ldr	r0, [r0, #-32]
	.loc	12 76 10                        @ ../Middlewares/CMSIS/DSP/Src/FastMathFunctions/arm_sqrt_q31.c:76:10
	str	r0, [sp, #8]
	.loc	12 82 21 is_stmt 1              @ ../Middlewares/CMSIS/DSP/Src/FastMathFunctions/arm_sqrt_q31.c:82:21
	ldr	r0, [sp, #8]
	.loc	12 82 26 is_stmt 0              @ ../Middlewares/CMSIS/DSP/Src/FastMathFunctions/arm_sqrt_q31.c:82:26
	smull	r0, r1, r0, r0
	.loc	12 82 34                        @ ../Middlewares/CMSIS/DSP/Src/FastMathFunctions/arm_sqrt_q31.c:82:34
	lsrs	r0, r0, #28
	orr.w	r0, r0, r1, lsl #4
	.loc	12 82 10                        @ ../Middlewares/CMSIS/DSP/Src/FastMathFunctions/arm_sqrt_q31.c:82:10
	str	r0, [sp]
	.loc	12 83 21 is_stmt 1              @ ../Middlewares/CMSIS/DSP/Src/FastMathFunctions/arm_sqrt_q31.c:83:21
	ldr	r0, [sp, #12]
	.loc	12 83 30 is_stmt 0              @ ../Middlewares/CMSIS/DSP/Src/FastMathFunctions/arm_sqrt_q31.c:83:30
	ldr	r1, [sp]
	.loc	12 83 28                        @ ../Middlewares/CMSIS/DSP/Src/FastMathFunctions/arm_sqrt_q31.c:83:28
	smull	r0, r1, r0, r1
	.loc	12 83 36                        @ ../Middlewares/CMSIS/DSP/Src/FastMathFunctions/arm_sqrt_q31.c:83:36
	lsrs	r0, r0, #31
	orr.w	r0, r0, r1, lsl #1
	.loc	12 83 10                        @ ../Middlewares/CMSIS/DSP/Src/FastMathFunctions/arm_sqrt_q31.c:83:10
	str	r0, [sp]
	.loc	12 84 25 is_stmt 1              @ ../Middlewares/CMSIS/DSP/Src/FastMathFunctions/arm_sqrt_q31.c:84:25
	ldr	r0, [sp]
	.loc	12 84 23 is_stmt 0              @ ../Middlewares/CMSIS/DSP/Src/FastMathFunctions/arm_sqrt_q31.c:84:23
	rsb.w	r0, r0, #805306368
	.loc	12 84 10                        @ ../Middlewares/CMSIS/DSP/Src/FastMathFunctions/arm_sqrt_q31.c:84:10
	str	r0, [sp]
	.loc	12 85 21 is_stmt 1              @ ../Middlewares/CMSIS/DSP/Src/FastMathFunctions/arm_sqrt_q31.c:85:21
	ldr	r0, [sp, #8]
	.loc	12 85 28 is_stmt 0              @ ../Middlewares/CMSIS/DSP/Src/FastMathFunctions/arm_sqrt_q31.c:85:28
	ldr	r1, [sp]
	.loc	12 85 26                        @ ../Middlewares/CMSIS/DSP/Src/FastMathFunctions/arm_sqrt_q31.c:85:26
	smull	r0, r1, r0, r1
	.loc	12 85 34                        @ ../Middlewares/CMSIS/DSP/Src/FastMathFunctions/arm_sqrt_q31.c:85:34
	lsrs	r0, r0, #29
	orr.w	r0, r0, r1, lsl #3
	.loc	12 85 10                        @ ../Middlewares/CMSIS/DSP/Src/FastMathFunctions/arm_sqrt_q31.c:85:10
	str	r0, [sp, #8]
	.loc	12 89 21 is_stmt 1              @ ../Middlewares/CMSIS/DSP/Src/FastMathFunctions/arm_sqrt_q31.c:89:21
	ldr	r0, [sp, #8]
	.loc	12 89 26 is_stmt 0              @ ../Middlewares/CMSIS/DSP/Src/FastMathFunctions/arm_sqrt_q31.c:89:26
	smull	r0, r1, r0, r0
	.loc	12 89 34                        @ ../Middlewares/CMSIS/DSP/Src/FastMathFunctions/arm_sqrt_q31.c:89:34
	lsrs	r0, r0, #28
	orr.w	r0, r0, r1, lsl #4
	.loc	12 89 10                        @ ../Middlewares/CMSIS/DSP/Src/FastMathFunctions/arm_sqrt_q31.c:89:10
	str	r0, [sp]
	.loc	12 90 21 is_stmt 1              @ ../Middlewares/CMSIS/DSP/Src/FastMathFunctions/arm_sqrt_q31.c:90:21
	ldr	r0, [sp, #12]
	.loc	12 90 30 is_stmt 0              @ ../Middlewares/CMSIS/DSP/Src/FastMathFunctions/arm_sqrt_q31.c:90:30
	ldr	r1, [sp]
	.loc	12 90 28                        @ ../Middlewares/CMSIS/DSP/Src/FastMathFunctions/arm_sqrt_q31.c:90:28
	smull	r0, r1, r0, r1
	.loc	12 90 36                        @ ../Middlewares/CMSIS/DSP/Src/FastMathFunctions/arm_sqrt_q31.c:90:36
	lsrs	r0, r0, #31
	orr.w	r0, r0, r1, lsl #1
	.loc	12 90 10                        @ ../Middlewares/CMSIS/DSP/Src/FastMathFunctions/arm_sqrt_q31.c:90:10
	str	r0, [sp]
	.loc	12 91 25 is_stmt 1              @ ../Middlewares/CMSIS/DSP/Src/FastMathFunctions/arm_sqrt_q31.c:91:25
	ldr	r0, [sp]
	.loc	12 91 23 is_stmt 0              @ ../Middlewares/CMSIS/DSP/Src/FastMathFunctions/arm_sqrt_q31.c:91:23
	rsb.w	r0, r0, #805306368
	.loc	12 91 10                        @ ../Middlewares/CMSIS/DSP/Src/FastMathFunctions/arm_sqrt_q31.c:91:10
	str	r0, [sp]
	.loc	12 92 21 is_stmt 1              @ ../Middlewares/CMSIS/DSP/Src/FastMathFunctions/arm_sqrt_q31.c:92:21
	ldr	r0, [sp, #8]
	.loc	12 92 28 is_stmt 0              @ ../Middlewares/CMSIS/DSP/Src/FastMathFunctions/arm_sqrt_q31.c:92:28
	ldr	r1, [sp]
	.loc	12 92 26                        @ ../Middlewares/CMSIS/DSP/Src/FastMathFunctions/arm_sqrt_q31.c:92:26
	smull	r0, r1, r0, r1
	.loc	12 92 34                        @ ../Middlewares/CMSIS/DSP/Src/FastMathFunctions/arm_sqrt_q31.c:92:34
	lsrs	r0, r0, #29
	orr.w	r0, r0, r1, lsl #3
	.loc	12 92 10                        @ ../Middlewares/CMSIS/DSP/Src/FastMathFunctions/arm_sqrt_q31.c:92:10
	str	r0, [sp, #8]
	.loc	12 95 21 is_stmt 1              @ ../Middlewares/CMSIS/DSP/Src/FastMathFunctions/arm_sqrt_q31.c:95:21
	ldr	r0, [sp, #8]
	.loc	12 95 26 is_stmt 0              @ ../Middlewares/CMSIS/DSP/Src/FastMathFunctions/arm_sqrt_q31.c:95:26
	smull	r0, r1, r0, r0
	.loc	12 95 34                        @ ../Middlewares/CMSIS/DSP/Src/FastMathFunctions/arm_sqrt_q31.c:95:34
	lsrs	r0, r0, #28
	orr.w	r0, r0, r1, lsl #4
	.loc	12 95 10                        @ ../Middlewares/CMSIS/DSP/Src/FastMathFunctions/arm_sqrt_q31.c:95:10
	str	r0, [sp]
	.loc	12 96 21 is_stmt 1              @ ../Middlewares/CMSIS/DSP/Src/FastMathFunctions/arm_sqrt_q31.c:96:21
	ldr	r0, [sp, #12]
	.loc	12 96 30 is_stmt 0              @ ../Middlewares/CMSIS/DSP/Src/FastMathFunctions/arm_sqrt_q31.c:96:30
	ldr	r1, [sp]
	.loc	12 96 28                        @ ../Middlewares/CMSIS/DSP/Src/FastMathFunctions/arm_sqrt_q31.c:96:28
	smull	r0, r1, r0, r1
	.loc	12 96 36                        @ ../Middlewares/CMSIS/DSP/Src/FastMathFunctions/arm_sqrt_q31.c:96:36
	lsrs	r0, r0, #31
	orr.w	r0, r0, r1, lsl #1
	.loc	12 96 10                        @ ../Middlewares/CMSIS/DSP/Src/FastMathFunctions/arm_sqrt_q31.c:96:10
	str	r0, [sp]
	.loc	12 97 25 is_stmt 1              @ ../Middlewares/CMSIS/DSP/Src/FastMathFunctions/arm_sqrt_q31.c:97:25
	ldr	r0, [sp]
	.loc	12 97 23 is_stmt 0              @ ../Middlewares/CMSIS/DSP/Src/FastMathFunctions/arm_sqrt_q31.c:97:23
	rsb.w	r0, r0, #805306368
	.loc	12 97 10                        @ ../Middlewares/CMSIS/DSP/Src/FastMathFunctions/arm_sqrt_q31.c:97:10
	str	r0, [sp]
	.loc	12 98 21 is_stmt 1              @ ../Middlewares/CMSIS/DSP/Src/FastMathFunctions/arm_sqrt_q31.c:98:21
	ldr	r0, [sp, #8]
	.loc	12 98 28 is_stmt 0              @ ../Middlewares/CMSIS/DSP/Src/FastMathFunctions/arm_sqrt_q31.c:98:28
	ldr	r1, [sp]
	.loc	12 98 26                        @ ../Middlewares/CMSIS/DSP/Src/FastMathFunctions/arm_sqrt_q31.c:98:26
	smull	r0, r1, r0, r1
	.loc	12 98 34                        @ ../Middlewares/CMSIS/DSP/Src/FastMathFunctions/arm_sqrt_q31.c:98:34
	lsrs	r0, r0, #29
	orr.w	r0, r0, r1, lsl #3
	.loc	12 98 10                        @ ../Middlewares/CMSIS/DSP/Src/FastMathFunctions/arm_sqrt_q31.c:98:10
	str	r0, [sp, #8]
	.loc	12 101 31 is_stmt 1             @ ../Middlewares/CMSIS/DSP/Src/FastMathFunctions/arm_sqrt_q31.c:101:31
	ldr	r0, [sp, #12]
	.loc	12 101 40 is_stmt 0             @ ../Middlewares/CMSIS/DSP/Src/FastMathFunctions/arm_sqrt_q31.c:101:40
	ldr	r1, [sp, #8]
	.loc	12 101 38                       @ ../Middlewares/CMSIS/DSP/Src/FastMathFunctions/arm_sqrt_q31.c:101:38
	smull	r0, r1, r0, r1
	.loc	12 101 46                       @ ../Middlewares/CMSIS/DSP/Src/FastMathFunctions/arm_sqrt_q31.c:101:46
	lsrs	r0, r0, #28
	orr.w	r0, r0, r1, lsl #4
	.loc	12 101 10                       @ ../Middlewares/CMSIS/DSP/Src/FastMathFunctions/arm_sqrt_q31.c:101:10
	str	r0, [sp, #8]
.Ltmp56:
	.loc	12 104 10 is_stmt 1             @ ../Middlewares/CMSIS/DSP/Src/FastMathFunctions/arm_sqrt_q31.c:104:10
	ldr	r0, [sp, #4]
	.loc	12 104 20 is_stmt 0             @ ../Middlewares/CMSIS/DSP/Src/FastMathFunctions/arm_sqrt_q31.c:104:20
	add.w	r1, r0, r0, lsr #31
	bic	r1, r1, #1
	subs	r0, r0, r1
.Ltmp57:
	.loc	12 104 9                        @ ../Middlewares/CMSIS/DSP/Src/FastMathFunctions/arm_sqrt_q31.c:104:9
	cbnz	r0, .LBB6_9
	b	.LBB6_8
.LBB6_8:
.Ltmp58:
	.loc	12 106 14 is_stmt 1             @ ../Middlewares/CMSIS/DSP/Src/FastMathFunctions/arm_sqrt_q31.c:106:14
	ldr	r0, [sp, #8]
	.loc	12 106 23 is_stmt 0             @ ../Middlewares/CMSIS/DSP/Src/FastMathFunctions/arm_sqrt_q31.c:106:23
	ldr	r1, [sp, #4]
	.loc	12 106 33                       @ ../Middlewares/CMSIS/DSP/Src/FastMathFunctions/arm_sqrt_q31.c:106:33
	add.w	r1, r1, r1, lsr #31
	asrs	r1, r1, #1
	.loc	12 106 19                       @ ../Middlewares/CMSIS/DSP/Src/FastMathFunctions/arm_sqrt_q31.c:106:19
	asrs	r0, r1
	.loc	12 106 12                       @ ../Middlewares/CMSIS/DSP/Src/FastMathFunctions/arm_sqrt_q31.c:106:12
	str	r0, [sp, #8]
	.loc	12 107 5 is_stmt 1              @ ../Middlewares/CMSIS/DSP/Src/FastMathFunctions/arm_sqrt_q31.c:107:5
	b	.LBB6_10
.Ltmp59:
.LBB6_9:
	.loc	12 110 14                       @ ../Middlewares/CMSIS/DSP/Src/FastMathFunctions/arm_sqrt_q31.c:110:14
	ldr	r0, [sp, #8]
	.loc	12 110 24 is_stmt 0             @ ../Middlewares/CMSIS/DSP/Src/FastMathFunctions/arm_sqrt_q31.c:110:24
	ldr	r1, [sp, #4]
	.loc	12 110 34                       @ ../Middlewares/CMSIS/DSP/Src/FastMathFunctions/arm_sqrt_q31.c:110:34
	subs	r1, #1
	.loc	12 110 39                       @ ../Middlewares/CMSIS/DSP/Src/FastMathFunctions/arm_sqrt_q31.c:110:39
	add.w	r1, r1, r1, lsr #31
	asrs	r1, r1, #1
	.loc	12 110 19                       @ ../Middlewares/CMSIS/DSP/Src/FastMathFunctions/arm_sqrt_q31.c:110:19
	asrs	r0, r1
	.loc	12 110 12                       @ ../Middlewares/CMSIS/DSP/Src/FastMathFunctions/arm_sqrt_q31.c:110:12
	str	r0, [sp, #8]
	b	.LBB6_10
.Ltmp60:
.LBB6_10:
	.loc	12 112 13 is_stmt 1             @ ../Middlewares/CMSIS/DSP/Src/FastMathFunctions/arm_sqrt_q31.c:112:13
	ldr	r0, [sp, #8]
	.loc	12 112 6 is_stmt 0              @ ../Middlewares/CMSIS/DSP/Src/FastMathFunctions/arm_sqrt_q31.c:112:6
	ldr	r1, [sp, #16]
	.loc	12 112 11                       @ ../Middlewares/CMSIS/DSP/Src/FastMathFunctions/arm_sqrt_q31.c:112:11
	str	r0, [r1]
	movs	r0, #0
	.loc	12 114 5 is_stmt 1              @ ../Middlewares/CMSIS/DSP/Src/FastMathFunctions/arm_sqrt_q31.c:114:5
	strb.w	r0, [sp, #27]
	b	.LBB6_12
.Ltmp61:
.LBB6_11:
	.loc	12 119 6                        @ ../Middlewares/CMSIS/DSP/Src/FastMathFunctions/arm_sqrt_q31.c:119:6
	ldr	r1, [sp, #16]
	movs	r0, #0
	.loc	12 119 11 is_stmt 0             @ ../Middlewares/CMSIS/DSP/Src/FastMathFunctions/arm_sqrt_q31.c:119:11
	str	r0, [r1]
	movs	r0, #255
	.loc	12 121 5 is_stmt 1              @ ../Middlewares/CMSIS/DSP/Src/FastMathFunctions/arm_sqrt_q31.c:121:5
	strb.w	r0, [sp, #27]
	b	.LBB6_12
.Ltmp62:
.LBB6_12:
	.loc	12 123 1                        @ ../Middlewares/CMSIS/DSP/Src/FastMathFunctions/arm_sqrt_q31.c:123:1
	ldrsb.w	r0, [sp, #27]
	add	sp, #36
	bx	lr
.Ltmp63:
.Lfunc_end6:
	.size	arm_sqrt_q31, .Lfunc_end6-arm_sqrt_q31
	.cfi_endproc
	.cantunwind
	.fnend
                                        @ -- End function
	.section	.text.arm_sqrt_q15,"ax",%progbits
	.hidden	arm_sqrt_q15                    @ -- Begin function arm_sqrt_q15
	.globl	arm_sqrt_q15
	.p2align	2
	.type	arm_sqrt_q15,%function
	.code	16                              @ @arm_sqrt_q15
	.thumb_func
arm_sqrt_q15:
.Lfunc_begin7:
	.file	14 "D:\\horizon\\Horizon_Infantry (2)\\MDK-ARM" "../Middlewares/CMSIS/DSP/Src/FastMathFunctions/arm_sqrt_q15.c"
	.loc	14 55 0                         @ ../Middlewares/CMSIS/DSP/Src/FastMathFunctions/arm_sqrt_q15.c:55:0
	.fnstart
	.cfi_startproc
@ %bb.0:
	.pad	#24
	sub	sp, #24
	.cfi_def_cfa_offset 24
                                        @ kill: def $r2 killed $r0
	strh.w	r0, [sp, #12]
	str	r1, [sp, #8]
.Ltmp64:
	.loc	14 58 12 prologue_end           @ ../Middlewares/CMSIS/DSP/Src/FastMathFunctions/arm_sqrt_q15.c:58:12
	ldrh.w	r0, [sp, #12]
	.loc	14 58 10 is_stmt 0              @ ../Middlewares/CMSIS/DSP/Src/FastMathFunctions/arm_sqrt_q15.c:58:10
	strh.w	r0, [sp, #6]
.Ltmp65:
	.loc	14 61 7 is_stmt 1               @ ../Middlewares/CMSIS/DSP/Src/FastMathFunctions/arm_sqrt_q15.c:61:7
	ldrsh.w	r0, [sp, #6]
.Ltmp66:
	.loc	14 61 7 is_stmt 0               @ ../Middlewares/CMSIS/DSP/Src/FastMathFunctions/arm_sqrt_q15.c:61:7
	cmp	r0, #1
	blt.w	.LBB7_11
	b	.LBB7_1
.LBB7_1:
.Ltmp67:
	.loc	14 63 23 is_stmt 1              @ ../Middlewares/CMSIS/DSP/Src/FastMathFunctions/arm_sqrt_q15.c:63:23
	ldrsh.w	r0, [sp, #6]
	str	r0, [sp, #16]
.Ltmp68:
	.loc	13 306 7                        @ ../Drivers/CMSIS/Include/cmsis_armclang.h:306:7
	ldr	r0, [sp, #16]
.Ltmp69:
	.loc	13 306 7 is_stmt 0              @ ../Drivers/CMSIS/Include/cmsis_armclang.h:306:7
	cbnz	r0, .LBB7_3
	b	.LBB7_2
.LBB7_2:
	.loc	13 0 7                          @ ../Drivers/CMSIS/Include/cmsis_armclang.h:0:7
	movs	r0, #32
.Ltmp70:
	.loc	13 308 5 is_stmt 1              @ ../Drivers/CMSIS/Include/cmsis_armclang.h:308:5
	strb.w	r0, [sp, #23]
	b	.LBB7_4
.Ltmp71:
.LBB7_3:
	.loc	13 310 24                       @ ../Drivers/CMSIS/Include/cmsis_armclang.h:310:24
	ldr	r0, [sp, #16]
	.loc	13 310 10 is_stmt 0             @ ../Drivers/CMSIS/Include/cmsis_armclang.h:310:10
	clz	r0, r0
	.loc	13 310 3                        @ ../Drivers/CMSIS/Include/cmsis_armclang.h:310:3
	strb.w	r0, [sp, #23]
	b	.LBB7_4
.LBB7_4:                                @ %__CLZ.exit
	.loc	13 311 1 is_stmt 1              @ ../Drivers/CMSIS/Include/cmsis_armclang.h:311:1
	ldrb.w	r0, [sp, #23]
.Ltmp72:
	.loc	14 63 31                        @ ../Middlewares/CMSIS/DSP/Src/FastMathFunctions/arm_sqrt_q15.c:63:31
	subs	r0, #17
	.loc	14 63 15 is_stmt 0              @ ../Middlewares/CMSIS/DSP/Src/FastMathFunctions/arm_sqrt_q15.c:63:15
	strh.w	r0, [sp, #2]
.Ltmp73:
	.loc	14 66 10 is_stmt 1              @ ../Middlewares/CMSIS/DSP/Src/FastMathFunctions/arm_sqrt_q15.c:66:10
	ldrsh.w	r0, [sp, #2]
	.loc	14 66 20 is_stmt 0              @ ../Middlewares/CMSIS/DSP/Src/FastMathFunctions/arm_sqrt_q15.c:66:20
	add.w	r1, r0, r0, lsr #31
	bic	r1, r1, #1
	subs	r0, r0, r1
.Ltmp74:
	.loc	14 66 9                         @ ../Middlewares/CMSIS/DSP/Src/FastMathFunctions/arm_sqrt_q15.c:66:9
	cbnz	r0, .LBB7_6
	b	.LBB7_5
.LBB7_5:
.Ltmp75:
	.loc	14 68 16 is_stmt 1              @ ../Middlewares/CMSIS/DSP/Src/FastMathFunctions/arm_sqrt_q15.c:68:16
	ldrsh.w	r0, [sp, #6]
	.loc	14 68 26 is_stmt 0              @ ../Middlewares/CMSIS/DSP/Src/FastMathFunctions/arm_sqrt_q15.c:68:26
	ldrsh.w	r1, [sp, #2]
	.loc	14 68 23                        @ ../Middlewares/CMSIS/DSP/Src/FastMathFunctions/arm_sqrt_q15.c:68:23
	lsls	r0, r1
	.loc	14 68 14                        @ ../Middlewares/CMSIS/DSP/Src/FastMathFunctions/arm_sqrt_q15.c:68:14
	strh.w	r0, [sp, #6]
	.loc	14 69 5 is_stmt 1               @ ../Middlewares/CMSIS/DSP/Src/FastMathFunctions/arm_sqrt_q15.c:69:5
	b	.LBB7_7
.Ltmp76:
.LBB7_6:
	.loc	14 72 16                        @ ../Middlewares/CMSIS/DSP/Src/FastMathFunctions/arm_sqrt_q15.c:72:16
	ldrsh.w	r0, [sp, #6]
	.loc	14 72 27 is_stmt 0              @ ../Middlewares/CMSIS/DSP/Src/FastMathFunctions/arm_sqrt_q15.c:72:27
	ldrsh.w	r1, [sp, #2]
	.loc	14 72 37                        @ ../Middlewares/CMSIS/DSP/Src/FastMathFunctions/arm_sqrt_q15.c:72:37
	subs	r1, #1
	.loc	14 72 23                        @ ../Middlewares/CMSIS/DSP/Src/FastMathFunctions/arm_sqrt_q15.c:72:23
	lsls	r0, r1
	.loc	14 72 14                        @ ../Middlewares/CMSIS/DSP/Src/FastMathFunctions/arm_sqrt_q15.c:72:14
	strh.w	r0, [sp, #6]
	b	.LBB7_7
.Ltmp77:
.LBB7_7:
	.loc	14 75 34 is_stmt 1              @ ../Middlewares/CMSIS/DSP/Src/FastMathFunctions/arm_sqrt_q15.c:75:34
	ldrsh.w	r0, [sp, #6]
	.loc	14 75 40 is_stmt 0              @ ../Middlewares/CMSIS/DSP/Src/FastMathFunctions/arm_sqrt_q15.c:75:40
	asrs	r1, r0, #11
	.loc	14 75 12                        @ ../Middlewares/CMSIS/DSP/Src/FastMathFunctions/arm_sqrt_q15.c:75:12
	movw	r0, :lower16:sqrt_initial_lut_q15
	movt	r0, :upper16:sqrt_initial_lut_q15
	add.w	r0, r0, r1, lsl #1
	ldrh	r0, [r0, #-8]
	.loc	14 75 10                        @ ../Middlewares/CMSIS/DSP/Src/FastMathFunctions/arm_sqrt_q15.c:75:10
	strh.w	r0, [sp, #4]
	.loc	14 80 20 is_stmt 1              @ ../Middlewares/CMSIS/DSP/Src/FastMathFunctions/arm_sqrt_q15.c:80:20
	ldrsh.w	r0, [sp, #4]
	.loc	14 80 25 is_stmt 0              @ ../Middlewares/CMSIS/DSP/Src/FastMathFunctions/arm_sqrt_q15.c:80:25
	muls	r0, r0, r0
	.loc	14 80 33                        @ ../Middlewares/CMSIS/DSP/Src/FastMathFunctions/arm_sqrt_q15.c:80:33
	lsrs	r0, r0, #12
	.loc	14 80 9                         @ ../Middlewares/CMSIS/DSP/Src/FastMathFunctions/arm_sqrt_q15.c:80:9
	strh.w	r0, [sp]
	.loc	14 81 20 is_stmt 1              @ ../Middlewares/CMSIS/DSP/Src/FastMathFunctions/arm_sqrt_q15.c:81:20
	ldrsh.w	r0, [sp, #6]
	.loc	14 81 29 is_stmt 0              @ ../Middlewares/CMSIS/DSP/Src/FastMathFunctions/arm_sqrt_q15.c:81:29
	ldrsh.w	r1, [sp]
	.loc	14 81 27                        @ ../Middlewares/CMSIS/DSP/Src/FastMathFunctions/arm_sqrt_q15.c:81:27
	muls	r0, r1, r0
	.loc	14 81 35                        @ ../Middlewares/CMSIS/DSP/Src/FastMathFunctions/arm_sqrt_q15.c:81:35
	lsrs	r0, r0, #15
	.loc	14 81 9                         @ ../Middlewares/CMSIS/DSP/Src/FastMathFunctions/arm_sqrt_q15.c:81:9
	strh.w	r0, [sp]
	.loc	14 82 20 is_stmt 1              @ ../Middlewares/CMSIS/DSP/Src/FastMathFunctions/arm_sqrt_q15.c:82:20
	ldrh.w	r0, [sp]
	.loc	14 82 18 is_stmt 0              @ ../Middlewares/CMSIS/DSP/Src/FastMathFunctions/arm_sqrt_q15.c:82:18
	rsb.w	r0, r0, #12288
	.loc	14 82 9                         @ ../Middlewares/CMSIS/DSP/Src/FastMathFunctions/arm_sqrt_q15.c:82:9
	strh.w	r0, [sp]
	.loc	14 83 20 is_stmt 1              @ ../Middlewares/CMSIS/DSP/Src/FastMathFunctions/arm_sqrt_q15.c:83:20
	ldrsh.w	r0, [sp, #4]
	.loc	14 83 27 is_stmt 0              @ ../Middlewares/CMSIS/DSP/Src/FastMathFunctions/arm_sqrt_q15.c:83:27
	ldrsh.w	r1, [sp]
	.loc	14 83 25                        @ ../Middlewares/CMSIS/DSP/Src/FastMathFunctions/arm_sqrt_q15.c:83:25
	muls	r0, r1, r0
	.loc	14 83 33                        @ ../Middlewares/CMSIS/DSP/Src/FastMathFunctions/arm_sqrt_q15.c:83:33
	lsrs	r0, r0, #13
	.loc	14 83 9                         @ ../Middlewares/CMSIS/DSP/Src/FastMathFunctions/arm_sqrt_q15.c:83:9
	strh.w	r0, [sp, #4]
	.loc	14 85 20 is_stmt 1              @ ../Middlewares/CMSIS/DSP/Src/FastMathFunctions/arm_sqrt_q15.c:85:20
	ldrsh.w	r0, [sp, #4]
	.loc	14 85 25 is_stmt 0              @ ../Middlewares/CMSIS/DSP/Src/FastMathFunctions/arm_sqrt_q15.c:85:25
	muls	r0, r0, r0
	.loc	14 85 33                        @ ../Middlewares/CMSIS/DSP/Src/FastMathFunctions/arm_sqrt_q15.c:85:33
	lsrs	r0, r0, #12
	.loc	14 85 9                         @ ../Middlewares/CMSIS/DSP/Src/FastMathFunctions/arm_sqrt_q15.c:85:9
	strh.w	r0, [sp]
	.loc	14 86 20 is_stmt 1              @ ../Middlewares/CMSIS/DSP/Src/FastMathFunctions/arm_sqrt_q15.c:86:20
	ldrsh.w	r0, [sp, #6]
	.loc	14 86 29 is_stmt 0              @ ../Middlewares/CMSIS/DSP/Src/FastMathFunctions/arm_sqrt_q15.c:86:29
	ldrsh.w	r1, [sp]
	.loc	14 86 27                        @ ../Middlewares/CMSIS/DSP/Src/FastMathFunctions/arm_sqrt_q15.c:86:27
	muls	r0, r1, r0
	.loc	14 86 35                        @ ../Middlewares/CMSIS/DSP/Src/FastMathFunctions/arm_sqrt_q15.c:86:35
	lsrs	r0, r0, #15
	.loc	14 86 9                         @ ../Middlewares/CMSIS/DSP/Src/FastMathFunctions/arm_sqrt_q15.c:86:9
	strh.w	r0, [sp]
	.loc	14 87 20 is_stmt 1              @ ../Middlewares/CMSIS/DSP/Src/FastMathFunctions/arm_sqrt_q15.c:87:20
	ldrh.w	r0, [sp]
	.loc	14 87 18 is_stmt 0              @ ../Middlewares/CMSIS/DSP/Src/FastMathFunctions/arm_sqrt_q15.c:87:18
	rsb.w	r0, r0, #12288
	.loc	14 87 9                         @ ../Middlewares/CMSIS/DSP/Src/FastMathFunctions/arm_sqrt_q15.c:87:9
	strh.w	r0, [sp]
	.loc	14 88 20 is_stmt 1              @ ../Middlewares/CMSIS/DSP/Src/FastMathFunctions/arm_sqrt_q15.c:88:20
	ldrsh.w	r0, [sp, #4]
	.loc	14 88 27 is_stmt 0              @ ../Middlewares/CMSIS/DSP/Src/FastMathFunctions/arm_sqrt_q15.c:88:27
	ldrsh.w	r1, [sp]
	.loc	14 88 25                        @ ../Middlewares/CMSIS/DSP/Src/FastMathFunctions/arm_sqrt_q15.c:88:25
	muls	r0, r1, r0
	.loc	14 88 33                        @ ../Middlewares/CMSIS/DSP/Src/FastMathFunctions/arm_sqrt_q15.c:88:33
	lsrs	r0, r0, #13
	.loc	14 88 9                         @ ../Middlewares/CMSIS/DSP/Src/FastMathFunctions/arm_sqrt_q15.c:88:9
	strh.w	r0, [sp, #4]
	.loc	14 90 20 is_stmt 1              @ ../Middlewares/CMSIS/DSP/Src/FastMathFunctions/arm_sqrt_q15.c:90:20
	ldrsh.w	r0, [sp, #4]
	.loc	14 90 25 is_stmt 0              @ ../Middlewares/CMSIS/DSP/Src/FastMathFunctions/arm_sqrt_q15.c:90:25
	muls	r0, r0, r0
	.loc	14 90 33                        @ ../Middlewares/CMSIS/DSP/Src/FastMathFunctions/arm_sqrt_q15.c:90:33
	lsrs	r0, r0, #12
	.loc	14 90 9                         @ ../Middlewares/CMSIS/DSP/Src/FastMathFunctions/arm_sqrt_q15.c:90:9
	strh.w	r0, [sp]
	.loc	14 91 20 is_stmt 1              @ ../Middlewares/CMSIS/DSP/Src/FastMathFunctions/arm_sqrt_q15.c:91:20
	ldrsh.w	r0, [sp, #6]
	.loc	14 91 29 is_stmt 0              @ ../Middlewares/CMSIS/DSP/Src/FastMathFunctions/arm_sqrt_q15.c:91:29
	ldrsh.w	r1, [sp]
	.loc	14 91 27                        @ ../Middlewares/CMSIS/DSP/Src/FastMathFunctions/arm_sqrt_q15.c:91:27
	muls	r0, r1, r0
	.loc	14 91 35                        @ ../Middlewares/CMSIS/DSP/Src/FastMathFunctions/arm_sqrt_q15.c:91:35
	lsrs	r0, r0, #15
	.loc	14 91 9                         @ ../Middlewares/CMSIS/DSP/Src/FastMathFunctions/arm_sqrt_q15.c:91:9
	strh.w	r0, [sp]
	.loc	14 92 20 is_stmt 1              @ ../Middlewares/CMSIS/DSP/Src/FastMathFunctions/arm_sqrt_q15.c:92:20
	ldrh.w	r0, [sp]
	.loc	14 92 18 is_stmt 0              @ ../Middlewares/CMSIS/DSP/Src/FastMathFunctions/arm_sqrt_q15.c:92:18
	rsb.w	r0, r0, #12288
	.loc	14 92 9                         @ ../Middlewares/CMSIS/DSP/Src/FastMathFunctions/arm_sqrt_q15.c:92:9
	strh.w	r0, [sp]
	.loc	14 93 20 is_stmt 1              @ ../Middlewares/CMSIS/DSP/Src/FastMathFunctions/arm_sqrt_q15.c:93:20
	ldrsh.w	r0, [sp, #4]
	.loc	14 93 27 is_stmt 0              @ ../Middlewares/CMSIS/DSP/Src/FastMathFunctions/arm_sqrt_q15.c:93:27
	ldrsh.w	r1, [sp]
	.loc	14 93 25                        @ ../Middlewares/CMSIS/DSP/Src/FastMathFunctions/arm_sqrt_q15.c:93:25
	muls	r0, r1, r0
	.loc	14 93 33                        @ ../Middlewares/CMSIS/DSP/Src/FastMathFunctions/arm_sqrt_q15.c:93:33
	lsrs	r0, r0, #13
	.loc	14 93 9                         @ ../Middlewares/CMSIS/DSP/Src/FastMathFunctions/arm_sqrt_q15.c:93:9
	strh.w	r0, [sp, #4]
	.loc	14 97 31 is_stmt 1              @ ../Middlewares/CMSIS/DSP/Src/FastMathFunctions/arm_sqrt_q15.c:97:31
	ldrsh.w	r0, [sp, #6]
	.loc	14 97 40 is_stmt 0              @ ../Middlewares/CMSIS/DSP/Src/FastMathFunctions/arm_sqrt_q15.c:97:40
	ldrsh.w	r1, [sp, #4]
	.loc	14 97 38                        @ ../Middlewares/CMSIS/DSP/Src/FastMathFunctions/arm_sqrt_q15.c:97:38
	muls	r0, r1, r0
	.loc	14 97 46                        @ ../Middlewares/CMSIS/DSP/Src/FastMathFunctions/arm_sqrt_q15.c:97:46
	lsrs	r0, r0, #12
	.loc	14 97 10                        @ ../Middlewares/CMSIS/DSP/Src/FastMathFunctions/arm_sqrt_q15.c:97:10
	strh.w	r0, [sp, #4]
.Ltmp78:
	.loc	14 100 10 is_stmt 1             @ ../Middlewares/CMSIS/DSP/Src/FastMathFunctions/arm_sqrt_q15.c:100:10
	ldrsh.w	r0, [sp, #2]
	.loc	14 100 20 is_stmt 0             @ ../Middlewares/CMSIS/DSP/Src/FastMathFunctions/arm_sqrt_q15.c:100:20
	add.w	r1, r0, r0, lsr #31
	bic	r1, r1, #1
	subs	r0, r0, r1
.Ltmp79:
	.loc	14 100 9                        @ ../Middlewares/CMSIS/DSP/Src/FastMathFunctions/arm_sqrt_q15.c:100:9
	cbnz	r0, .LBB7_9
	b	.LBB7_8
.LBB7_8:
.Ltmp80:
	.loc	14 102 14 is_stmt 1             @ ../Middlewares/CMSIS/DSP/Src/FastMathFunctions/arm_sqrt_q15.c:102:14
	ldrsh.w	r0, [sp, #4]
	.loc	14 102 23 is_stmt 0             @ ../Middlewares/CMSIS/DSP/Src/FastMathFunctions/arm_sqrt_q15.c:102:23
	ldrsh.w	r1, [sp, #2]
	.loc	14 102 33                       @ ../Middlewares/CMSIS/DSP/Src/FastMathFunctions/arm_sqrt_q15.c:102:33
	add.w	r1, r1, r1, lsr #31
	asrs	r1, r1, #1
	.loc	14 102 19                       @ ../Middlewares/CMSIS/DSP/Src/FastMathFunctions/arm_sqrt_q15.c:102:19
	asrs	r0, r1
	.loc	14 102 12                       @ ../Middlewares/CMSIS/DSP/Src/FastMathFunctions/arm_sqrt_q15.c:102:12
	strh.w	r0, [sp, #4]
	.loc	14 103 5 is_stmt 1              @ ../Middlewares/CMSIS/DSP/Src/FastMathFunctions/arm_sqrt_q15.c:103:5
	b	.LBB7_10
.Ltmp81:
.LBB7_9:
	.loc	14 106 14                       @ ../Middlewares/CMSIS/DSP/Src/FastMathFunctions/arm_sqrt_q15.c:106:14
	ldrsh.w	r0, [sp, #4]
	.loc	14 106 24 is_stmt 0             @ ../Middlewares/CMSIS/DSP/Src/FastMathFunctions/arm_sqrt_q15.c:106:24
	ldrsh.w	r1, [sp, #2]
	.loc	14 106 34                       @ ../Middlewares/CMSIS/DSP/Src/FastMathFunctions/arm_sqrt_q15.c:106:34
	subs	r1, #1
	.loc	14 106 39                       @ ../Middlewares/CMSIS/DSP/Src/FastMathFunctions/arm_sqrt_q15.c:106:39
	add.w	r1, r1, r1, lsr #31
	asrs	r1, r1, #1
	.loc	14 106 19                       @ ../Middlewares/CMSIS/DSP/Src/FastMathFunctions/arm_sqrt_q15.c:106:19
	asrs	r0, r1
	.loc	14 106 12                       @ ../Middlewares/CMSIS/DSP/Src/FastMathFunctions/arm_sqrt_q15.c:106:12
	strh.w	r0, [sp, #4]
	b	.LBB7_10
.Ltmp82:
.LBB7_10:
	.loc	14 108 13 is_stmt 1             @ ../Middlewares/CMSIS/DSP/Src/FastMathFunctions/arm_sqrt_q15.c:108:13
	ldrh.w	r0, [sp, #4]
	.loc	14 108 6 is_stmt 0              @ ../Middlewares/CMSIS/DSP/Src/FastMathFunctions/arm_sqrt_q15.c:108:6
	ldr	r1, [sp, #8]
	.loc	14 108 11                       @ ../Middlewares/CMSIS/DSP/Src/FastMathFunctions/arm_sqrt_q15.c:108:11
	strh	r0, [r1]
	movs	r0, #0
	.loc	14 111 5 is_stmt 1              @ ../Middlewares/CMSIS/DSP/Src/FastMathFunctions/arm_sqrt_q15.c:111:5
	strb.w	r0, [sp, #15]
	b	.LBB7_12
.Ltmp83:
.LBB7_11:
	.loc	14 116 6                        @ ../Middlewares/CMSIS/DSP/Src/FastMathFunctions/arm_sqrt_q15.c:116:6
	ldr	r1, [sp, #8]
	movs	r0, #0
	.loc	14 116 11 is_stmt 0             @ ../Middlewares/CMSIS/DSP/Src/FastMathFunctions/arm_sqrt_q15.c:116:11
	strh	r0, [r1]
	movs	r0, #255
	.loc	14 118 5 is_stmt 1              @ ../Middlewares/CMSIS/DSP/Src/FastMathFunctions/arm_sqrt_q15.c:118:5
	strb.w	r0, [sp, #15]
	b	.LBB7_12
.Ltmp84:
.LBB7_12:
	.loc	14 120 1                        @ ../Middlewares/CMSIS/DSP/Src/FastMathFunctions/arm_sqrt_q15.c:120:1
	ldrsb.w	r0, [sp, #15]
	add	sp, #24
	bx	lr
.Ltmp85:
.Lfunc_end7:
	.size	arm_sqrt_q15, .Lfunc_end7-arm_sqrt_q15
	.cfi_endproc
	.cantunwind
	.fnend
                                        @ -- End function
	.section	.text.arm_vexp_f32,"ax",%progbits
	.hidden	arm_vexp_f32                    @ -- Begin function arm_vexp_f32
	.globl	arm_vexp_f32
	.p2align	2
	.type	arm_vexp_f32,%function
	.code	16                              @ @arm_vexp_f32
	.thumb_func
arm_vexp_f32:
.Lfunc_begin8:
	.file	15 "D:\\horizon\\Horizon_Infantry (2)\\MDK-ARM" "../Middlewares/CMSIS/DSP/Src/FastMathFunctions/arm_vexp_f32.c"
	.loc	15 62 0                         @ ../Middlewares/CMSIS/DSP/Src/FastMathFunctions/arm_vexp_f32.c:62:0
	.fnstart
	.cfi_startproc
@ %bb.0:
	.save	{r7, lr}
	push	{r7, lr}
	.cfi_def_cfa_offset 8
	.cfi_offset lr, -4
	.cfi_offset r7, -8
	.pad	#16
	sub	sp, #16
	.cfi_def_cfa_offset 24
	str	r0, [sp, #12]
	str	r1, [sp, #8]
	str	r2, [sp, #4]
.Ltmp86:
	.loc	15 105 13 prologue_end          @ ../Middlewares/CMSIS/DSP/Src/FastMathFunctions/arm_vexp_f32.c:105:13
	ldr	r0, [sp, #4]
	.loc	15 105 11 is_stmt 0             @ ../Middlewares/CMSIS/DSP/Src/FastMathFunctions/arm_vexp_f32.c:105:11
	str	r0, [sp]
	.loc	15 109 4 is_stmt 1              @ ../Middlewares/CMSIS/DSP/Src/FastMathFunctions/arm_vexp_f32.c:109:4
	b	.LBB8_1
.LBB8_1:                                @ =>This Inner Loop Header: Depth=1
	.loc	15 109 11 is_stmt 0             @ ../Middlewares/CMSIS/DSP/Src/FastMathFunctions/arm_vexp_f32.c:109:11
	ldr	r0, [sp]
	.loc	15 109 4                        @ ../Middlewares/CMSIS/DSP/Src/FastMathFunctions/arm_vexp_f32.c:109:4
	cbz	r0, .LBB8_3
	b	.LBB8_2
.LBB8_2:                                @   in Loop: Header=BB8_1 Depth=1
.Ltmp87:
	.loc	15 114 27 is_stmt 1             @ ../Middlewares/CMSIS/DSP/Src/FastMathFunctions/arm_vexp_f32.c:114:27
	ldr	r0, [sp, #12]
	adds	r1, r0, #4
	str	r1, [sp, #12]
	.loc	15 114 22 is_stmt 0             @ ../Middlewares/CMSIS/DSP/Src/FastMathFunctions/arm_vexp_f32.c:114:22
	vldr	s0, [r0]
	.loc	15 114 17                       @ ../Middlewares/CMSIS/DSP/Src/FastMathFunctions/arm_vexp_f32.c:114:17
	bl	__hardfp_expf
	.loc	15 114 12                       @ ../Middlewares/CMSIS/DSP/Src/FastMathFunctions/arm_vexp_f32.c:114:12
	ldr	r0, [sp, #8]
	adds	r1, r0, #4
	str	r1, [sp, #8]
	.loc	15 114 15                       @ ../Middlewares/CMSIS/DSP/Src/FastMathFunctions/arm_vexp_f32.c:114:15
	vstr	s0, [r0]
	.loc	15 117 13 is_stmt 1             @ ../Middlewares/CMSIS/DSP/Src/FastMathFunctions/arm_vexp_f32.c:117:13
	ldr	r0, [sp]
	subs	r0, #1
	str	r0, [sp]
.Ltmp88:
	.loc	15 109 4                        @ ../Middlewares/CMSIS/DSP/Src/FastMathFunctions/arm_vexp_f32.c:109:4
	b	.LBB8_1
.LBB8_3:
	.loc	15 119 1                        @ ../Middlewares/CMSIS/DSP/Src/FastMathFunctions/arm_vexp_f32.c:119:1
	add	sp, #16
	pop	{r7, pc}
.Ltmp89:
.Lfunc_end8:
	.size	arm_vexp_f32, .Lfunc_end8-arm_vexp_f32
	.cfi_endproc
	.cantunwind
	.fnend
                                        @ -- End function
	.section	.text.arm_vexp_f64,"ax",%progbits
	.hidden	arm_vexp_f64                    @ -- Begin function arm_vexp_f64
	.globl	arm_vexp_f64
	.p2align	2
	.type	arm_vexp_f64,%function
	.code	16                              @ @arm_vexp_f64
	.thumb_func
arm_vexp_f64:
.Lfunc_begin9:
	.file	16 "D:\\horizon\\Horizon_Infantry (2)\\MDK-ARM" "../Middlewares/CMSIS/DSP/Src/FastMathFunctions/arm_vexp_f64.c"
	.loc	16 37 0                         @ ../Middlewares/CMSIS/DSP/Src/FastMathFunctions/arm_vexp_f64.c:37:0
	.fnstart
	.cfi_startproc
@ %bb.0:
	.save	{r7, lr}
	push	{r7, lr}
	.cfi_def_cfa_offset 8
	.cfi_offset lr, -4
	.cfi_offset r7, -8
	.pad	#16
	sub	sp, #16
	.cfi_def_cfa_offset 24
	str	r0, [sp, #12]
	str	r1, [sp, #8]
	str	r2, [sp, #4]
.Ltmp90:
	.loc	16 40 14 prologue_end           @ ../Middlewares/CMSIS/DSP/Src/FastMathFunctions/arm_vexp_f64.c:40:14
	ldr	r0, [sp, #4]
	.loc	16 40 12 is_stmt 0              @ ../Middlewares/CMSIS/DSP/Src/FastMathFunctions/arm_vexp_f64.c:40:12
	str	r0, [sp]
	.loc	16 42 5 is_stmt 1               @ ../Middlewares/CMSIS/DSP/Src/FastMathFunctions/arm_vexp_f64.c:42:5
	b	.LBB9_1
.LBB9_1:                                @ =>This Inner Loop Header: Depth=1
	.loc	16 42 12 is_stmt 0              @ ../Middlewares/CMSIS/DSP/Src/FastMathFunctions/arm_vexp_f64.c:42:12
	ldr	r0, [sp]
	.loc	16 42 5                         @ ../Middlewares/CMSIS/DSP/Src/FastMathFunctions/arm_vexp_f64.c:42:5
	cbz	r0, .LBB9_3
	b	.LBB9_2
.LBB9_2:                                @   in Loop: Header=BB9_1 Depth=1
.Ltmp91:
	.loc	16 48 28 is_stmt 1              @ ../Middlewares/CMSIS/DSP/Src/FastMathFunctions/arm_vexp_f64.c:48:28
	ldr	r0, [sp, #12]
	add.w	r1, r0, #8
	str	r1, [sp, #12]
	.loc	16 48 23 is_stmt 0              @ ../Middlewares/CMSIS/DSP/Src/FastMathFunctions/arm_vexp_f64.c:48:23
	vldr	d0, [r0]
	.loc	16 48 19                        @ ../Middlewares/CMSIS/DSP/Src/FastMathFunctions/arm_vexp_f64.c:48:19
	bl	__hardfp_exp
	.loc	16 48 14                        @ ../Middlewares/CMSIS/DSP/Src/FastMathFunctions/arm_vexp_f64.c:48:14
	ldr	r0, [sp, #8]
	add.w	r1, r0, #8
	str	r1, [sp, #8]
	.loc	16 48 17                        @ ../Middlewares/CMSIS/DSP/Src/FastMathFunctions/arm_vexp_f64.c:48:17
	vstr	d0, [r0]
	.loc	16 51 15 is_stmt 1              @ ../Middlewares/CMSIS/DSP/Src/FastMathFunctions/arm_vexp_f64.c:51:15
	ldr	r0, [sp]
	subs	r0, #1
	str	r0, [sp]
.Ltmp92:
	.loc	16 42 5                         @ ../Middlewares/CMSIS/DSP/Src/FastMathFunctions/arm_vexp_f64.c:42:5
	b	.LBB9_1
.LBB9_3:
	.loc	16 53 1                         @ ../Middlewares/CMSIS/DSP/Src/FastMathFunctions/arm_vexp_f64.c:53:1
	add	sp, #16
	pop	{r7, pc}
.Ltmp93:
.Lfunc_end9:
	.size	arm_vexp_f64, .Lfunc_end9-arm_vexp_f64
	.cfi_endproc
	.cantunwind
	.fnend
                                        @ -- End function
	.section	.text.arm_vlog_f32,"ax",%progbits
	.hidden	arm_vlog_f32                    @ -- Begin function arm_vlog_f32
	.globl	arm_vlog_f32
	.p2align	2
	.type	arm_vlog_f32,%function
	.code	16                              @ @arm_vlog_f32
	.thumb_func
arm_vlog_f32:
.Lfunc_begin10:
	.file	17 "D:\\horizon\\Horizon_Infantry (2)\\MDK-ARM" "../Middlewares/CMSIS/DSP/Src/FastMathFunctions/arm_vlog_f32.c"
	.loc	17 58 0                         @ ../Middlewares/CMSIS/DSP/Src/FastMathFunctions/arm_vlog_f32.c:58:0
	.fnstart
	.cfi_startproc
@ %bb.0:
	.save	{r7, lr}
	push	{r7, lr}
	.cfi_def_cfa_offset 8
	.cfi_offset lr, -4
	.cfi_offset r7, -8
	.pad	#16
	sub	sp, #16
	.cfi_def_cfa_offset 24
	str	r0, [sp, #12]
	str	r1, [sp, #8]
	str	r2, [sp, #4]
.Ltmp94:
	.loc	17 101 13 prologue_end          @ ../Middlewares/CMSIS/DSP/Src/FastMathFunctions/arm_vlog_f32.c:101:13
	ldr	r0, [sp, #4]
	.loc	17 101 11 is_stmt 0             @ ../Middlewares/CMSIS/DSP/Src/FastMathFunctions/arm_vlog_f32.c:101:11
	str	r0, [sp]
	.loc	17 105 4 is_stmt 1              @ ../Middlewares/CMSIS/DSP/Src/FastMathFunctions/arm_vlog_f32.c:105:4
	b	.LBB10_1
.LBB10_1:                               @ =>This Inner Loop Header: Depth=1
	.loc	17 105 11 is_stmt 0             @ ../Middlewares/CMSIS/DSP/Src/FastMathFunctions/arm_vlog_f32.c:105:11
	ldr	r0, [sp]
	.loc	17 105 4                        @ ../Middlewares/CMSIS/DSP/Src/FastMathFunctions/arm_vlog_f32.c:105:4
	cbz	r0, .LBB10_3
	b	.LBB10_2
.LBB10_2:                               @   in Loop: Header=BB10_1 Depth=1
.Ltmp95:
	.loc	17 110 27 is_stmt 1             @ ../Middlewares/CMSIS/DSP/Src/FastMathFunctions/arm_vlog_f32.c:110:27
	ldr	r0, [sp, #12]
	adds	r1, r0, #4
	str	r1, [sp, #12]
	.loc	17 110 22 is_stmt 0             @ ../Middlewares/CMSIS/DSP/Src/FastMathFunctions/arm_vlog_f32.c:110:22
	vldr	s0, [r0]
	.loc	17 110 17                       @ ../Middlewares/CMSIS/DSP/Src/FastMathFunctions/arm_vlog_f32.c:110:17
	bl	__hardfp_logf
	.loc	17 110 12                       @ ../Middlewares/CMSIS/DSP/Src/FastMathFunctions/arm_vlog_f32.c:110:12
	ldr	r0, [sp, #8]
	adds	r1, r0, #4
	str	r1, [sp, #8]
	.loc	17 110 15                       @ ../Middlewares/CMSIS/DSP/Src/FastMathFunctions/arm_vlog_f32.c:110:15
	vstr	s0, [r0]
	.loc	17 113 13 is_stmt 1             @ ../Middlewares/CMSIS/DSP/Src/FastMathFunctions/arm_vlog_f32.c:113:13
	ldr	r0, [sp]
	subs	r0, #1
	str	r0, [sp]
.Ltmp96:
	.loc	17 105 4                        @ ../Middlewares/CMSIS/DSP/Src/FastMathFunctions/arm_vlog_f32.c:105:4
	b	.LBB10_1
.LBB10_3:
	.loc	17 115 1                        @ ../Middlewares/CMSIS/DSP/Src/FastMathFunctions/arm_vlog_f32.c:115:1
	add	sp, #16
	pop	{r7, pc}
.Ltmp97:
.Lfunc_end10:
	.size	arm_vlog_f32, .Lfunc_end10-arm_vlog_f32
	.cfi_endproc
	.cantunwind
	.fnend
                                        @ -- End function
	.section	.text.arm_vlog_f64,"ax",%progbits
	.hidden	arm_vlog_f64                    @ -- Begin function arm_vlog_f64
	.globl	arm_vlog_f64
	.p2align	2
	.type	arm_vlog_f64,%function
	.code	16                              @ @arm_vlog_f64
	.thumb_func
arm_vlog_f64:
.Lfunc_begin11:
	.file	18 "D:\\horizon\\Horizon_Infantry (2)\\MDK-ARM" "../Middlewares/CMSIS/DSP/Src/FastMathFunctions/arm_vlog_f64.c"
	.loc	18 36 0                         @ ../Middlewares/CMSIS/DSP/Src/FastMathFunctions/arm_vlog_f64.c:36:0
	.fnstart
	.cfi_startproc
@ %bb.0:
	.save	{r7, lr}
	push	{r7, lr}
	.cfi_def_cfa_offset 8
	.cfi_offset lr, -4
	.cfi_offset r7, -8
	.pad	#16
	sub	sp, #16
	.cfi_def_cfa_offset 24
	str	r0, [sp, #12]
	str	r1, [sp, #8]
	str	r2, [sp, #4]
.Ltmp98:
	.loc	18 39 14 prologue_end           @ ../Middlewares/CMSIS/DSP/Src/FastMathFunctions/arm_vlog_f64.c:39:14
	ldr	r0, [sp, #4]
	.loc	18 39 12 is_stmt 0              @ ../Middlewares/CMSIS/DSP/Src/FastMathFunctions/arm_vlog_f64.c:39:12
	str	r0, [sp]
	.loc	18 42 5 is_stmt 1               @ ../Middlewares/CMSIS/DSP/Src/FastMathFunctions/arm_vlog_f64.c:42:5
	b	.LBB11_1
.LBB11_1:                               @ =>This Inner Loop Header: Depth=1
	.loc	18 42 12 is_stmt 0              @ ../Middlewares/CMSIS/DSP/Src/FastMathFunctions/arm_vlog_f64.c:42:12
	ldr	r0, [sp]
	.loc	18 42 5                         @ ../Middlewares/CMSIS/DSP/Src/FastMathFunctions/arm_vlog_f64.c:42:5
	cbz	r0, .LBB11_3
	b	.LBB11_2
.LBB11_2:                               @   in Loop: Header=BB11_1 Depth=1
.Ltmp99:
	.loc	18 47 28 is_stmt 1              @ ../Middlewares/CMSIS/DSP/Src/FastMathFunctions/arm_vlog_f64.c:47:28
	ldr	r0, [sp, #12]
	add.w	r1, r0, #8
	str	r1, [sp, #12]
	.loc	18 47 23 is_stmt 0              @ ../Middlewares/CMSIS/DSP/Src/FastMathFunctions/arm_vlog_f64.c:47:23
	vldr	d0, [r0]
	.loc	18 47 19                        @ ../Middlewares/CMSIS/DSP/Src/FastMathFunctions/arm_vlog_f64.c:47:19
	bl	__hardfp_log
	.loc	18 47 14                        @ ../Middlewares/CMSIS/DSP/Src/FastMathFunctions/arm_vlog_f64.c:47:14
	ldr	r0, [sp, #8]
	add.w	r1, r0, #8
	str	r1, [sp, #8]
	.loc	18 47 17                        @ ../Middlewares/CMSIS/DSP/Src/FastMathFunctions/arm_vlog_f64.c:47:17
	vstr	d0, [r0]
	.loc	18 50 15 is_stmt 1              @ ../Middlewares/CMSIS/DSP/Src/FastMathFunctions/arm_vlog_f64.c:50:15
	ldr	r0, [sp]
	subs	r0, #1
	str	r0, [sp]
.Ltmp100:
	.loc	18 42 5                         @ ../Middlewares/CMSIS/DSP/Src/FastMathFunctions/arm_vlog_f64.c:42:5
	b	.LBB11_1
.LBB11_3:
	.loc	18 52 1                         @ ../Middlewares/CMSIS/DSP/Src/FastMathFunctions/arm_vlog_f64.c:52:1
	add	sp, #16
	pop	{r7, pc}
.Ltmp101:
.Lfunc_end11:
	.size	arm_vlog_f64, .Lfunc_end11-arm_vlog_f64
	.cfi_endproc
	.cantunwind
	.fnend
                                        @ -- End function
	.section	.text.arm_divide_q15,"ax",%progbits
	.hidden	arm_divide_q15                  @ -- Begin function arm_divide_q15
	.globl	arm_divide_q15
	.p2align	2
	.type	arm_divide_q15,%function
	.code	16                              @ @arm_divide_q15
	.thumb_func
arm_divide_q15:
.Lfunc_begin12:
	.file	19 "D:\\horizon\\Horizon_Infantry (2)\\MDK-ARM" "../Middlewares/CMSIS/DSP/Src/FastMathFunctions/arm_divide_q15.c"
	.loc	19 64 0                         @ ../Middlewares/CMSIS/DSP/Src/FastMathFunctions/arm_divide_q15.c:64:0
	.fnstart
	.cfi_startproc
@ %bb.0:
	.save	{r7, lr}
	push	{r7, lr}
	.cfi_def_cfa_offset 8
	.cfi_offset lr, -4
	.cfi_offset r7, -8
	.pad	#40
	sub	sp, #40
	.cfi_def_cfa_offset 48
                                        @ kill: def $r12 killed $r1
                                        @ kill: def $r12 killed $r0
	strh.w	r0, [sp, #28]
	strh.w	r1, [sp, #26]
	str	r2, [sp, #20]
	str	r3, [sp, #16]
	movs	r0, #0
.Ltmp102:
	.loc	19 65 11 prologue_end           @ ../Middlewares/CMSIS/DSP/Src/FastMathFunctions/arm_divide_q15.c:65:11
	strh.w	r0, [sp, #14]
	.loc	19 69 4                         @ ../Middlewares/CMSIS/DSP/Src/FastMathFunctions/arm_divide_q15.c:69:4
	ldr	r1, [sp, #16]
	.loc	19 69 10 is_stmt 0              @ ../Middlewares/CMSIS/DSP/Src/FastMathFunctions/arm_divide_q15.c:69:10
	strh	r0, [r1]
	.loc	19 71 11 is_stmt 1              @ ../Middlewares/CMSIS/DSP/Src/FastMathFunctions/arm_divide_q15.c:71:11
	ldrh.w	r0, [sp, #28]
	.loc	19 71 29 is_stmt 0              @ ../Middlewares/CMSIS/DSP/Src/FastMathFunctions/arm_divide_q15.c:71:29
	ldrh.w	r1, [sp, #26]
	.loc	19 71 26                        @ ../Middlewares/CMSIS/DSP/Src/FastMathFunctions/arm_divide_q15.c:71:26
	eors	r0, r1
	sxth	r0, r0
	lsrs	r0, r0, #15
	.loc	19 71 8                         @ ../Middlewares/CMSIS/DSP/Src/FastMathFunctions/arm_divide_q15.c:71:8
	strh.w	r0, [sp, #14]
.Ltmp103:
	.loc	19 73 7 is_stmt 1               @ ../Middlewares/CMSIS/DSP/Src/FastMathFunctions/arm_divide_q15.c:73:7
	ldrsh.w	r0, [sp, #26]
.Ltmp104:
	.loc	19 73 7 is_stmt 0               @ ../Middlewares/CMSIS/DSP/Src/FastMathFunctions/arm_divide_q15.c:73:7
	cbnz	r0, .LBB12_5
	b	.LBB12_1
.LBB12_1:
.Ltmp105:
	.loc	19 75 10 is_stmt 1              @ ../Middlewares/CMSIS/DSP/Src/FastMathFunctions/arm_divide_q15.c:75:10
	ldrh.w	r0, [sp, #14]
.Ltmp106:
	.loc	19 75 10 is_stmt 0              @ ../Middlewares/CMSIS/DSP/Src/FastMathFunctions/arm_divide_q15.c:75:10
	cbz	r0, .LBB12_3
	b	.LBB12_2
.LBB12_2:
.Ltmp107:
	.loc	19 77 10 is_stmt 1              @ ../Middlewares/CMSIS/DSP/Src/FastMathFunctions/arm_divide_q15.c:77:10
	ldr	r1, [sp, #20]
	mov.w	r0, #32768
	.loc	19 77 19 is_stmt 0              @ ../Middlewares/CMSIS/DSP/Src/FastMathFunctions/arm_divide_q15.c:77:19
	strh	r0, [r1]
	.loc	19 78 6 is_stmt 1               @ ../Middlewares/CMSIS/DSP/Src/FastMathFunctions/arm_divide_q15.c:78:6
	b	.LBB12_4
.Ltmp108:
.LBB12_3:
	.loc	19 81 10                        @ ../Middlewares/CMSIS/DSP/Src/FastMathFunctions/arm_divide_q15.c:81:10
	ldr	r1, [sp, #20]
	movw	r0, #32767
	.loc	19 81 19 is_stmt 0              @ ../Middlewares/CMSIS/DSP/Src/FastMathFunctions/arm_divide_q15.c:81:19
	strh	r0, [r1]
	b	.LBB12_4
.Ltmp109:
.LBB12_4:
	.loc	19 0 19                         @ ../Middlewares/CMSIS/DSP/Src/FastMathFunctions/arm_divide_q15.c:0:19
	movs	r0, #252
	.loc	19 83 6 is_stmt 1               @ ../Middlewares/CMSIS/DSP/Src/FastMathFunctions/arm_divide_q15.c:83:6
	strb.w	r0, [sp, #31]
	b	.LBB12_13
.Ltmp110:
.LBB12_5:
	.loc	19 0 6 is_stmt 0                @ ../Middlewares/CMSIS/DSP/Src/FastMathFunctions/arm_divide_q15.c:0:6
	add	r1, sp, #28
	movs	r2, #1
	.loc	19 86 3 is_stmt 1               @ ../Middlewares/CMSIS/DSP/Src/FastMathFunctions/arm_divide_q15.c:86:3
	str	r2, [sp]                        @ 4-byte Spill
	mov	r0, r1
	bl	arm_abs_q15
	ldr	r2, [sp]                        @ 4-byte Reload
	add.w	r1, sp, #26
	.loc	19 87 3                         @ ../Middlewares/CMSIS/DSP/Src/FastMathFunctions/arm_divide_q15.c:87:3
	mov	r0, r1
	bl	arm_abs_q15
	.loc	19 89 18                        @ ../Middlewares/CMSIS/DSP/Src/FastMathFunctions/arm_divide_q15.c:89:18
	ldrsh.w	r0, [sp, #28]
	.loc	19 89 28 is_stmt 0              @ ../Middlewares/CMSIS/DSP/Src/FastMathFunctions/arm_divide_q15.c:89:28
	lsls	r0, r0, #15
	.loc	19 89 45                        @ ../Middlewares/CMSIS/DSP/Src/FastMathFunctions/arm_divide_q15.c:89:45
	ldrsh.w	r1, [sp, #26]
	.loc	19 89 35                        @ ../Middlewares/CMSIS/DSP/Src/FastMathFunctions/arm_divide_q15.c:89:35
	sdiv	r0, r0, r1
	.loc	19 89 8                         @ ../Middlewares/CMSIS/DSP/Src/FastMathFunctions/arm_divide_q15.c:89:8
	str	r0, [sp, #8]
	.loc	19 91 35 is_stmt 1              @ ../Middlewares/CMSIS/DSP/Src/FastMathFunctions/arm_divide_q15.c:91:35
	ldr	r0, [sp, #8]
	str	r0, [sp, #32]
.Ltmp111:
	.loc	13 306 7                        @ ../Drivers/CMSIS/Include/cmsis_armclang.h:306:7
	ldr	r0, [sp, #32]
.Ltmp112:
	.loc	13 306 7 is_stmt 0              @ ../Drivers/CMSIS/Include/cmsis_armclang.h:306:7
	cbnz	r0, .LBB12_7
	b	.LBB12_6
.LBB12_6:
	.loc	13 0 7                          @ ../Drivers/CMSIS/Include/cmsis_armclang.h:0:7
	movs	r0, #32
.Ltmp113:
	.loc	13 308 5 is_stmt 1              @ ../Drivers/CMSIS/Include/cmsis_armclang.h:308:5
	strb.w	r0, [sp, #39]
	b	.LBB12_8
.Ltmp114:
.LBB12_7:
	.loc	13 310 24                       @ ../Drivers/CMSIS/Include/cmsis_armclang.h:310:24
	ldr	r0, [sp, #32]
	.loc	13 310 10 is_stmt 0             @ ../Drivers/CMSIS/Include/cmsis_armclang.h:310:10
	clz	r0, r0
	.loc	13 310 3                        @ ../Drivers/CMSIS/Include/cmsis_armclang.h:310:3
	strb.w	r0, [sp, #39]
	b	.LBB12_8
.LBB12_8:                               @ %__CLZ.exit
	.loc	13 311 1 is_stmt 1              @ ../Drivers/CMSIS/Include/cmsis_armclang.h:311:1
	ldrb.w	r0, [sp, #39]
.Ltmp115:
	.loc	19 91 27                        @ ../Middlewares/CMSIS/DSP/Src/FastMathFunctions/arm_divide_q15.c:91:27
	rsb.w	r0, r0, #17
	.loc	19 91 22 is_stmt 0              @ ../Middlewares/CMSIS/DSP/Src/FastMathFunctions/arm_divide_q15.c:91:22
	strh.w	r0, [sp, #6]
.Ltmp116:
	.loc	19 92 7 is_stmt 1               @ ../Middlewares/CMSIS/DSP/Src/FastMathFunctions/arm_divide_q15.c:92:7
	ldrsh.w	r0, [sp, #6]
.Ltmp117:
	.loc	19 92 7 is_stmt 0               @ ../Middlewares/CMSIS/DSP/Src/FastMathFunctions/arm_divide_q15.c:92:7
	cmp	r0, #1
	blt	.LBB12_10
	b	.LBB12_9
.LBB12_9:
.Ltmp118:
	.loc	19 94 15 is_stmt 1              @ ../Middlewares/CMSIS/DSP/Src/FastMathFunctions/arm_divide_q15.c:94:15
	ldrh.w	r0, [sp, #6]
	.loc	19 94 7 is_stmt 0               @ ../Middlewares/CMSIS/DSP/Src/FastMathFunctions/arm_divide_q15.c:94:7
	ldr	r1, [sp, #16]
	.loc	19 94 13                        @ ../Middlewares/CMSIS/DSP/Src/FastMathFunctions/arm_divide_q15.c:94:13
	strh	r0, [r1]
	.loc	19 95 13 is_stmt 1              @ ../Middlewares/CMSIS/DSP/Src/FastMathFunctions/arm_divide_q15.c:95:13
	ldr	r0, [sp, #8]
	.loc	19 95 21 is_stmt 0              @ ../Middlewares/CMSIS/DSP/Src/FastMathFunctions/arm_divide_q15.c:95:21
	ldrsh.w	r1, [sp, #6]
	.loc	19 95 18                        @ ../Middlewares/CMSIS/DSP/Src/FastMathFunctions/arm_divide_q15.c:95:18
	asrs	r0, r1
	.loc	19 95 11                        @ ../Middlewares/CMSIS/DSP/Src/FastMathFunctions/arm_divide_q15.c:95:11
	str	r0, [sp, #8]
	.loc	19 96 3 is_stmt 1               @ ../Middlewares/CMSIS/DSP/Src/FastMathFunctions/arm_divide_q15.c:96:3
	b	.LBB12_10
.Ltmp119:
.LBB12_10:
	.loc	19 98 7                         @ ../Middlewares/CMSIS/DSP/Src/FastMathFunctions/arm_divide_q15.c:98:7
	ldrh.w	r0, [sp, #14]
.Ltmp120:
	.loc	19 98 7 is_stmt 0               @ ../Middlewares/CMSIS/DSP/Src/FastMathFunctions/arm_divide_q15.c:98:7
	cbz	r0, .LBB12_12
	b	.LBB12_11
.LBB12_11:
.Ltmp121:
	.loc	19 100 13 is_stmt 1             @ ../Middlewares/CMSIS/DSP/Src/FastMathFunctions/arm_divide_q15.c:100:13
	ldr	r0, [sp, #8]
	.loc	19 100 12 is_stmt 0             @ ../Middlewares/CMSIS/DSP/Src/FastMathFunctions/arm_divide_q15.c:100:12
	rsbs	r0, r0, #0
	.loc	19 100 10                       @ ../Middlewares/CMSIS/DSP/Src/FastMathFunctions/arm_divide_q15.c:100:10
	str	r0, [sp, #8]
	.loc	19 101 3 is_stmt 1              @ ../Middlewares/CMSIS/DSP/Src/FastMathFunctions/arm_divide_q15.c:101:3
	b	.LBB12_12
.Ltmp122:
.LBB12_12:
	.loc	19 103 13                       @ ../Middlewares/CMSIS/DSP/Src/FastMathFunctions/arm_divide_q15.c:103:13
	ldr	r0, [sp, #8]
	.loc	19 103 4 is_stmt 0              @ ../Middlewares/CMSIS/DSP/Src/FastMathFunctions/arm_divide_q15.c:103:4
	ldr	r1, [sp, #20]
	.loc	19 103 12                       @ ../Middlewares/CMSIS/DSP/Src/FastMathFunctions/arm_divide_q15.c:103:12
	strh	r0, [r1]
	movs	r0, #0
	.loc	19 105 3 is_stmt 1              @ ../Middlewares/CMSIS/DSP/Src/FastMathFunctions/arm_divide_q15.c:105:3
	strb.w	r0, [sp, #31]
	b	.LBB12_13
.LBB12_13:
	.loc	19 106 1                        @ ../Middlewares/CMSIS/DSP/Src/FastMathFunctions/arm_divide_q15.c:106:1
	ldrsb.w	r0, [sp, #31]
	add	sp, #40
	pop	{r7, pc}
.Ltmp123:
.Lfunc_end12:
	.size	arm_divide_q15, .Lfunc_end12-arm_divide_q15
	.cfi_endproc
	.cantunwind
	.fnend
                                        @ -- End function
	.section	.text.arm_divide_q31,"ax",%progbits
	.hidden	arm_divide_q31                  @ -- Begin function arm_divide_q31
	.globl	arm_divide_q31
	.p2align	2
	.type	arm_divide_q31,%function
	.code	16                              @ @arm_divide_q31
	.thumb_func
arm_divide_q31:
.Lfunc_begin13:
	.file	20 "D:\\horizon\\Horizon_Infantry (2)\\MDK-ARM" "../Middlewares/CMSIS/DSP/Src/FastMathFunctions/arm_divide_q31.c"
	.loc	20 59 0                         @ ../Middlewares/CMSIS/DSP/Src/FastMathFunctions/arm_divide_q31.c:59:0
	.fnstart
	.cfi_startproc
@ %bb.0:
	.save	{r7, lr}
	push	{r7, lr}
	.cfi_def_cfa_offset 8
	.cfi_offset lr, -4
	.cfi_offset r7, -8
	.pad	#48
	sub	sp, #48
	.cfi_def_cfa_offset 56
	str	r0, [sp, #32]
	str	r1, [sp, #28]
	str	r2, [sp, #24]
	str	r3, [sp, #20]
	movs	r0, #0
.Ltmp124:
	.loc	20 60 11 prologue_end           @ ../Middlewares/CMSIS/DSP/Src/FastMathFunctions/arm_divide_q31.c:60:11
	strh.w	r0, [sp, #18]
	.loc	20 64 4                         @ ../Middlewares/CMSIS/DSP/Src/FastMathFunctions/arm_divide_q31.c:64:4
	ldr	r1, [sp, #20]
	.loc	20 64 10 is_stmt 0              @ ../Middlewares/CMSIS/DSP/Src/FastMathFunctions/arm_divide_q31.c:64:10
	strh	r0, [r1]
	.loc	20 66 11 is_stmt 1              @ ../Middlewares/CMSIS/DSP/Src/FastMathFunctions/arm_divide_q31.c:66:11
	ldr	r0, [sp, #32]
	.loc	20 66 29 is_stmt 0              @ ../Middlewares/CMSIS/DSP/Src/FastMathFunctions/arm_divide_q31.c:66:29
	ldr	r1, [sp, #28]
	.loc	20 66 26                        @ ../Middlewares/CMSIS/DSP/Src/FastMathFunctions/arm_divide_q31.c:66:26
	eors	r0, r1
	asrs	r0, r0, #31
	.loc	20 66 8                         @ ../Middlewares/CMSIS/DSP/Src/FastMathFunctions/arm_divide_q31.c:66:8
	strh.w	r0, [sp, #18]
.Ltmp125:
	.loc	20 68 7 is_stmt 1               @ ../Middlewares/CMSIS/DSP/Src/FastMathFunctions/arm_divide_q31.c:68:7
	ldr	r0, [sp, #28]
.Ltmp126:
	.loc	20 68 7 is_stmt 0               @ ../Middlewares/CMSIS/DSP/Src/FastMathFunctions/arm_divide_q31.c:68:7
	cbnz	r0, .LBB13_5
	b	.LBB13_1
.LBB13_1:
.Ltmp127:
	.loc	20 70 10 is_stmt 1              @ ../Middlewares/CMSIS/DSP/Src/FastMathFunctions/arm_divide_q31.c:70:10
	ldrh.w	r0, [sp, #18]
.Ltmp128:
	.loc	20 70 10 is_stmt 0              @ ../Middlewares/CMSIS/DSP/Src/FastMathFunctions/arm_divide_q31.c:70:10
	cbz	r0, .LBB13_3
	b	.LBB13_2
.LBB13_2:
.Ltmp129:
	.loc	20 72 10 is_stmt 1              @ ../Middlewares/CMSIS/DSP/Src/FastMathFunctions/arm_divide_q31.c:72:10
	ldr	r1, [sp, #24]
	mov.w	r0, #-2147483648
	.loc	20 72 19 is_stmt 0              @ ../Middlewares/CMSIS/DSP/Src/FastMathFunctions/arm_divide_q31.c:72:19
	str	r0, [r1]
	.loc	20 73 6 is_stmt 1               @ ../Middlewares/CMSIS/DSP/Src/FastMathFunctions/arm_divide_q31.c:73:6
	b	.LBB13_4
.Ltmp130:
.LBB13_3:
	.loc	20 76 10                        @ ../Middlewares/CMSIS/DSP/Src/FastMathFunctions/arm_divide_q31.c:76:10
	ldr	r1, [sp, #24]
	mvn	r0, #-2147483648
	.loc	20 76 19 is_stmt 0              @ ../Middlewares/CMSIS/DSP/Src/FastMathFunctions/arm_divide_q31.c:76:19
	str	r0, [r1]
	b	.LBB13_4
.Ltmp131:
.LBB13_4:
	.loc	20 0 19                         @ ../Middlewares/CMSIS/DSP/Src/FastMathFunctions/arm_divide_q31.c:0:19
	movs	r0, #252
	.loc	20 78 6 is_stmt 1               @ ../Middlewares/CMSIS/DSP/Src/FastMathFunctions/arm_divide_q31.c:78:6
	strb.w	r0, [sp, #39]
	b	.LBB13_13
.Ltmp132:
.LBB13_5:
	.loc	20 0 6 is_stmt 0                @ ../Middlewares/CMSIS/DSP/Src/FastMathFunctions/arm_divide_q31.c:0:6
	add	r1, sp, #32
	movs	r2, #1
	.loc	20 81 3 is_stmt 1               @ ../Middlewares/CMSIS/DSP/Src/FastMathFunctions/arm_divide_q31.c:81:3
	str	r2, [sp]                        @ 4-byte Spill
	mov	r0, r1
	bl	arm_abs_q31
	ldr	r2, [sp]                        @ 4-byte Reload
	add	r1, sp, #28
	.loc	20 82 3                         @ ../Middlewares/CMSIS/DSP/Src/FastMathFunctions/arm_divide_q31.c:82:3
	mov	r0, r1
	bl	arm_abs_q31
	.loc	20 84 18                        @ ../Middlewares/CMSIS/DSP/Src/FastMathFunctions/arm_divide_q31.c:84:18
	ldr	r0, [sp, #32]
	and	r1, r0, #-2147483648
	.loc	20 84 28 is_stmt 0              @ ../Middlewares/CMSIS/DSP/Src/FastMathFunctions/arm_divide_q31.c:84:28
	orr.w	r1, r1, r0, lsr #1
	lsls	r0, r0, #31
	.loc	20 84 45                        @ ../Middlewares/CMSIS/DSP/Src/FastMathFunctions/arm_divide_q31.c:84:45
	ldr	r2, [sp, #28]
	asrs	r3, r2, #31
	.loc	20 84 35                        @ ../Middlewares/CMSIS/DSP/Src/FastMathFunctions/arm_divide_q31.c:84:35
	bl	__aeabi_ldivmod
	.loc	20 84 8                         @ ../Middlewares/CMSIS/DSP/Src/FastMathFunctions/arm_divide_q31.c:84:8
	str	r1, [sp, #12]
	str	r0, [sp, #8]
	.loc	20 86 35 is_stmt 1              @ ../Middlewares/CMSIS/DSP/Src/FastMathFunctions/arm_divide_q31.c:86:35
	ldr	r0, [sp, #8]
	ldr	r1, [sp, #12]
	.loc	20 86 40 is_stmt 0              @ ../Middlewares/CMSIS/DSP/Src/FastMathFunctions/arm_divide_q31.c:86:40
	lsrs	r0, r0, #31
	orr.w	r0, r0, r1, lsl #1
	str	r0, [sp, #40]
.Ltmp133:
	.loc	13 306 7 is_stmt 1              @ ../Drivers/CMSIS/Include/cmsis_armclang.h:306:7
	ldr	r0, [sp, #40]
.Ltmp134:
	.loc	13 306 7 is_stmt 0              @ ../Drivers/CMSIS/Include/cmsis_armclang.h:306:7
	cbnz	r0, .LBB13_7
	b	.LBB13_6
.LBB13_6:
	.loc	13 0 7                          @ ../Drivers/CMSIS/Include/cmsis_armclang.h:0:7
	movs	r0, #32
.Ltmp135:
	.loc	13 308 5 is_stmt 1              @ ../Drivers/CMSIS/Include/cmsis_armclang.h:308:5
	strb.w	r0, [sp, #47]
	b	.LBB13_8
.Ltmp136:
.LBB13_7:
	.loc	13 310 24                       @ ../Drivers/CMSIS/Include/cmsis_armclang.h:310:24
	ldr	r0, [sp, #40]
	.loc	13 310 10 is_stmt 0             @ ../Drivers/CMSIS/Include/cmsis_armclang.h:310:10
	clz	r0, r0
	.loc	13 310 3                        @ ../Drivers/CMSIS/Include/cmsis_armclang.h:310:3
	strb.w	r0, [sp, #47]
	b	.LBB13_8
.LBB13_8:                               @ %__CLZ.exit
	.loc	13 311 1 is_stmt 1              @ ../Drivers/CMSIS/Include/cmsis_armclang.h:311:1
	ldrb.w	r0, [sp, #47]
.Ltmp137:
	.loc	20 86 27                        @ ../Middlewares/CMSIS/DSP/Src/FastMathFunctions/arm_divide_q31.c:86:27
	rsb.w	r0, r0, #32
	.loc	20 86 22 is_stmt 0              @ ../Middlewares/CMSIS/DSP/Src/FastMathFunctions/arm_divide_q31.c:86:22
	strh.w	r0, [sp, #6]
.Ltmp138:
	.loc	20 87 7 is_stmt 1               @ ../Middlewares/CMSIS/DSP/Src/FastMathFunctions/arm_divide_q31.c:87:7
	ldrsh.w	r0, [sp, #6]
.Ltmp139:
	.loc	20 87 7 is_stmt 0               @ ../Middlewares/CMSIS/DSP/Src/FastMathFunctions/arm_divide_q31.c:87:7
	cmp	r0, #1
	blt	.LBB13_10
	b	.LBB13_9
.LBB13_9:
.Ltmp140:
	.loc	20 89 15 is_stmt 1              @ ../Middlewares/CMSIS/DSP/Src/FastMathFunctions/arm_divide_q31.c:89:15
	ldrh.w	r0, [sp, #6]
	.loc	20 89 7 is_stmt 0               @ ../Middlewares/CMSIS/DSP/Src/FastMathFunctions/arm_divide_q31.c:89:7
	ldr	r1, [sp, #20]
	.loc	20 89 13                        @ ../Middlewares/CMSIS/DSP/Src/FastMathFunctions/arm_divide_q31.c:89:13
	strh	r0, [r1]
	.loc	20 90 13 is_stmt 1              @ ../Middlewares/CMSIS/DSP/Src/FastMathFunctions/arm_divide_q31.c:90:13
	ldr	r0, [sp, #8]
	ldr	r2, [sp, #12]
	.loc	20 90 21 is_stmt 0              @ ../Middlewares/CMSIS/DSP/Src/FastMathFunctions/arm_divide_q31.c:90:21
	ldrsh.w	r1, [sp, #6]
	.loc	20 90 18                        @ ../Middlewares/CMSIS/DSP/Src/FastMathFunctions/arm_divide_q31.c:90:18
	lsrs	r0, r1
	rsb.w	r3, r1, #32
	lsl.w	r3, r2, r3
	orrs	r0, r3
	sub.w	r3, r1, #32
	asr.w	r12, r2, r3
	cmp	r3, #0
	it	pl
	movpl	r0, r12
	asr.w	r1, r2, r1
	cmp	r3, #0
	it	pl
	asrpl	r1, r2, #31
	.loc	20 90 11                        @ ../Middlewares/CMSIS/DSP/Src/FastMathFunctions/arm_divide_q31.c:90:11
	str	r1, [sp, #12]
	str	r0, [sp, #8]
	.loc	20 91 3 is_stmt 1               @ ../Middlewares/CMSIS/DSP/Src/FastMathFunctions/arm_divide_q31.c:91:3
	b	.LBB13_10
.Ltmp141:
.LBB13_10:
	.loc	20 93 7                         @ ../Middlewares/CMSIS/DSP/Src/FastMathFunctions/arm_divide_q31.c:93:7
	ldrh.w	r0, [sp, #18]
.Ltmp142:
	.loc	20 93 7 is_stmt 0               @ ../Middlewares/CMSIS/DSP/Src/FastMathFunctions/arm_divide_q31.c:93:7
	cbz	r0, .LBB13_12
	b	.LBB13_11
.LBB13_11:
.Ltmp143:
	.loc	20 95 13 is_stmt 1              @ ../Middlewares/CMSIS/DSP/Src/FastMathFunctions/arm_divide_q31.c:95:13
	ldr	r0, [sp, #8]
	ldr	r2, [sp, #12]
	.loc	20 95 12 is_stmt 0              @ ../Middlewares/CMSIS/DSP/Src/FastMathFunctions/arm_divide_q31.c:95:12
	rsbs	r1, r0, #0
	mov.w	r0, #0
	sbcs	r0, r2
	.loc	20 95 10                        @ ../Middlewares/CMSIS/DSP/Src/FastMathFunctions/arm_divide_q31.c:95:10
	str	r1, [sp, #8]
	str	r0, [sp, #12]
	.loc	20 96 3 is_stmt 1               @ ../Middlewares/CMSIS/DSP/Src/FastMathFunctions/arm_divide_q31.c:96:3
	b	.LBB13_12
.Ltmp144:
.LBB13_12:
	.loc	20 98 20                        @ ../Middlewares/CMSIS/DSP/Src/FastMathFunctions/arm_divide_q31.c:98:20
	ldr	r0, [sp, #8]
	.loc	20 98 4 is_stmt 0               @ ../Middlewares/CMSIS/DSP/Src/FastMathFunctions/arm_divide_q31.c:98:4
	ldr	r1, [sp, #24]
	.loc	20 98 12                        @ ../Middlewares/CMSIS/DSP/Src/FastMathFunctions/arm_divide_q31.c:98:12
	str	r0, [r1]
	movs	r0, #0
	.loc	20 100 3 is_stmt 1              @ ../Middlewares/CMSIS/DSP/Src/FastMathFunctions/arm_divide_q31.c:100:3
	strb.w	r0, [sp, #39]
	b	.LBB13_13
.LBB13_13:
	.loc	20 101 1                        @ ../Middlewares/CMSIS/DSP/Src/FastMathFunctions/arm_divide_q31.c:101:1
	ldrsb.w	r0, [sp, #39]
	add	sp, #48
	pop	{r7, pc}
.Ltmp145:
.Lfunc_end13:
	.size	arm_divide_q31, .Lfunc_end13-arm_divide_q31
	.cfi_endproc
	.cantunwind
	.fnend
                                        @ -- End function
	.section	.text.arm_vlog_q31,"ax",%progbits
	.hidden	arm_vlog_q31                    @ -- Begin function arm_vlog_q31
	.globl	arm_vlog_q31
	.p2align	2
	.type	arm_vlog_q31,%function
	.code	16                              @ @arm_vlog_q31
	.thumb_func
arm_vlog_q31:
.Lfunc_begin14:
	.file	21 "D:\\horizon\\Horizon_Infantry (2)\\MDK-ARM" "../Middlewares/CMSIS/DSP/Src/FastMathFunctions/arm_vlog_q31.c"
	.loc	21 220 0                        @ ../Middlewares/CMSIS/DSP/Src/FastMathFunctions/arm_vlog_q31.c:220:0
	.fnstart
	.cfi_startproc
@ %bb.0:
	.save	{r7, lr}
	push	{r7, lr}
	.cfi_def_cfa_offset 8
	.cfi_offset lr, -4
	.cfi_offset r7, -8
	.pad	#16
	sub	sp, #16
	.cfi_def_cfa_offset 24
	str	r0, [sp, #12]
	str	r1, [sp, #8]
	str	r2, [sp, #4]
.Ltmp146:
	.loc	21 244 12 prologue_end          @ ../Middlewares/CMSIS/DSP/Src/FastMathFunctions/arm_vlog_q31.c:244:12
	ldr	r0, [sp, #4]
	.loc	21 244 10 is_stmt 0             @ ../Middlewares/CMSIS/DSP/Src/FastMathFunctions/arm_vlog_q31.c:244:10
	str	r0, [sp]
	.loc	21 247 3 is_stmt 1              @ ../Middlewares/CMSIS/DSP/Src/FastMathFunctions/arm_vlog_q31.c:247:3
	b	.LBB14_1
.LBB14_1:                               @ =>This Inner Loop Header: Depth=1
	.loc	21 247 10 is_stmt 0             @ ../Middlewares/CMSIS/DSP/Src/FastMathFunctions/arm_vlog_q31.c:247:10
	ldr	r0, [sp]
	.loc	21 247 3                        @ ../Middlewares/CMSIS/DSP/Src/FastMathFunctions/arm_vlog_q31.c:247:3
	cbz	r0, .LBB14_3
	b	.LBB14_2
.LBB14_2:                               @   in Loop: Header=BB14_1 Depth=1
.Ltmp147:
	.loc	21 249 38 is_stmt 1             @ ../Middlewares/CMSIS/DSP/Src/FastMathFunctions/arm_vlog_q31.c:249:38
	ldr	r0, [sp, #12]
	adds	r1, r0, #4
	str	r1, [sp, #12]
	.loc	21 249 33 is_stmt 0             @ ../Middlewares/CMSIS/DSP/Src/FastMathFunctions/arm_vlog_q31.c:249:33
	ldr	r0, [r0]
	.loc	21 249 14                       @ ../Middlewares/CMSIS/DSP/Src/FastMathFunctions/arm_vlog_q31.c:249:14
	bl	arm_scalar_log_q31
	.loc	21 249 11                       @ ../Middlewares/CMSIS/DSP/Src/FastMathFunctions/arm_vlog_q31.c:249:11
	ldr	r1, [sp, #8]
	adds	r2, r1, #4
	str	r2, [sp, #8]
	.loc	21 249 13                       @ ../Middlewares/CMSIS/DSP/Src/FastMathFunctions/arm_vlog_q31.c:249:13
	str	r0, [r1]
	.loc	21 251 12 is_stmt 1             @ ../Middlewares/CMSIS/DSP/Src/FastMathFunctions/arm_vlog_q31.c:251:12
	ldr	r0, [sp]
	subs	r0, #1
	str	r0, [sp]
.Ltmp148:
	.loc	21 247 3                        @ ../Middlewares/CMSIS/DSP/Src/FastMathFunctions/arm_vlog_q31.c:247:3
	b	.LBB14_1
.LBB14_3:
	.loc	21 254 1                        @ ../Middlewares/CMSIS/DSP/Src/FastMathFunctions/arm_vlog_q31.c:254:1
	add	sp, #16
	pop	{r7, pc}
.Ltmp149:
.Lfunc_end14:
	.size	arm_vlog_q31, .Lfunc_end14-arm_vlog_q31
	.cfi_endproc
	.cantunwind
	.fnend
                                        @ -- End function
	.section	.text.arm_scalar_log_q31,"ax",%progbits
	.p2align	2                               @ -- Begin function arm_scalar_log_q31
	.type	arm_scalar_log_q31,%function
	.code	16                              @ @arm_scalar_log_q31
	.thumb_func
arm_scalar_log_q31:
.Lfunc_begin15:
	.loc	21 56 0                         @ ../Middlewares/CMSIS/DSP/Src/FastMathFunctions/arm_vlog_q31.c:56:0
	.fnstart
	.cfi_startproc
@ %bb.0:
	.pad	#40
	sub	sp, #40
	.cfi_def_cfa_offset 40
	str	r0, [sp, #28]
.Ltmp150:
	.loc	21 59 22 prologue_end           @ ../Middlewares/CMSIS/DSP/Src/FastMathFunctions/arm_vlog_q31.c:59:22
	ldr	r0, [sp, #28]
	str	r0, [sp, #32]
.Ltmp151:
	.loc	13 306 7                        @ ../Drivers/CMSIS/Include/cmsis_armclang.h:306:7
	ldr	r0, [sp, #32]
.Ltmp152:
	.loc	13 306 7 is_stmt 0              @ ../Drivers/CMSIS/Include/cmsis_armclang.h:306:7
	cbnz	r0, .LBB15_2
	b	.LBB15_1
.LBB15_1:
	.loc	13 0 7                          @ ../Drivers/CMSIS/Include/cmsis_armclang.h:0:7
	movs	r0, #32
.Ltmp153:
	.loc	13 308 5 is_stmt 1              @ ../Drivers/CMSIS/Include/cmsis_armclang.h:308:5
	strb.w	r0, [sp, #39]
	b	.LBB15_3
.Ltmp154:
.LBB15_2:
	.loc	13 310 24                       @ ../Drivers/CMSIS/Include/cmsis_armclang.h:310:24
	ldr	r0, [sp, #32]
	.loc	13 310 10 is_stmt 0             @ ../Drivers/CMSIS/Include/cmsis_armclang.h:310:10
	clz	r0, r0
	.loc	13 310 3                        @ ../Drivers/CMSIS/Include/cmsis_armclang.h:310:3
	strb.w	r0, [sp, #39]
	b	.LBB15_3
.LBB15_3:                               @ %__CLZ.exit
	.loc	13 311 1 is_stmt 1              @ ../Drivers/CMSIS/Include/cmsis_armclang.h:311:1
	ldrb.w	r0, [sp, #39]
.Ltmp155:
	.loc	21 59 12                        @ ../Middlewares/CMSIS/DSP/Src/FastMathFunctions/arm_vlog_q31.c:59:12
	str	r0, [sp, #20]
	movs	r0, #0
	.loc	21 60 12                        @ ../Middlewares/CMSIS/DSP/Src/FastMathFunctions/arm_vlog_q31.c:60:12
	str	r0, [sp, #16]
	mov.w	r1, #33554432
	.loc	21 63 13                        @ ../Middlewares/CMSIS/DSP/Src/FastMathFunctions/arm_vlog_q31.c:63:13
	str	r1, [sp, #12]
	.loc	21 69 13                        @ ../Middlewares/CMSIS/DSP/Src/FastMathFunctions/arm_vlog_q31.c:69:13
	str	r0, [sp, #4]
	.loc	21 76 8                         @ ../Middlewares/CMSIS/DSP/Src/FastMathFunctions/arm_vlog_q31.c:76:8
	ldr	r0, [sp, #28]
	.loc	21 76 6 is_stmt 0               @ ../Middlewares/CMSIS/DSP/Src/FastMathFunctions/arm_vlog_q31.c:76:6
	str	r0, [sp, #8]
.Ltmp156:
	.loc	21 77 9 is_stmt 1               @ ../Middlewares/CMSIS/DSP/Src/FastMathFunctions/arm_vlog_q31.c:77:9
	ldr	r0, [sp, #20]
	.loc	21 77 10 is_stmt 0              @ ../Middlewares/CMSIS/DSP/Src/FastMathFunctions/arm_vlog_q31.c:77:10
	subs	r0, #1
.Ltmp157:
	.loc	21 77 8                         @ ../Middlewares/CMSIS/DSP/Src/FastMathFunctions/arm_vlog_q31.c:77:8
	cmp.w	r0, #-1
	bgt	.LBB15_5
	b	.LBB15_4
.LBB15_4:
.Ltmp158:
	.loc	21 79 10 is_stmt 1              @ ../Middlewares/CMSIS/DSP/Src/FastMathFunctions/arm_vlog_q31.c:79:10
	ldr	r0, [sp, #8]
	.loc	21 79 18 is_stmt 0              @ ../Middlewares/CMSIS/DSP/Src/FastMathFunctions/arm_vlog_q31.c:79:18
	ldr	r1, [sp, #20]
	.loc	21 79 17                        @ ../Middlewares/CMSIS/DSP/Src/FastMathFunctions/arm_vlog_q31.c:79:17
	rsb.w	r1, r1, #1
	.loc	21 79 12                        @ ../Middlewares/CMSIS/DSP/Src/FastMathFunctions/arm_vlog_q31.c:79:12
	lsrs	r0, r1
	.loc	21 79 8                         @ ../Middlewares/CMSIS/DSP/Src/FastMathFunctions/arm_vlog_q31.c:79:8
	str	r0, [sp, #8]
	.loc	21 80 4 is_stmt 1               @ ../Middlewares/CMSIS/DSP/Src/FastMathFunctions/arm_vlog_q31.c:80:4
	b	.LBB15_6
.Ltmp159:
.LBB15_5:
	.loc	21 83 10                        @ ../Middlewares/CMSIS/DSP/Src/FastMathFunctions/arm_vlog_q31.c:83:10
	ldr	r0, [sp, #8]
	.loc	21 83 16 is_stmt 0              @ ../Middlewares/CMSIS/DSP/Src/FastMathFunctions/arm_vlog_q31.c:83:16
	ldr	r1, [sp, #20]
	.loc	21 83 17                        @ ../Middlewares/CMSIS/DSP/Src/FastMathFunctions/arm_vlog_q31.c:83:17
	subs	r1, #1
	.loc	21 83 12                        @ ../Middlewares/CMSIS/DSP/Src/FastMathFunctions/arm_vlog_q31.c:83:12
	lsls	r0, r1
	.loc	21 83 8                         @ ../Middlewares/CMSIS/DSP/Src/FastMathFunctions/arm_vlog_q31.c:83:8
	str	r0, [sp, #8]
	b	.LBB15_6
.Ltmp160:
.LBB15_6:
	.loc	21 85 20 is_stmt 1              @ ../Middlewares/CMSIS/DSP/Src/FastMathFunctions/arm_vlog_q31.c:85:20
	ldr	r0, [sp, #20]
	.loc	21 85 18 is_stmt 0              @ ../Middlewares/CMSIS/DSP/Src/FastMathFunctions/arm_vlog_q31.c:85:18
	str	r0, [sp, #16]
	movs	r0, #0
.Ltmp161:
	.loc	21 92 10 is_stmt 1              @ ../Middlewares/CMSIS/DSP/Src/FastMathFunctions/arm_vlog_q31.c:92:10
	str	r0, [sp, #24]
	.loc	21 92 8 is_stmt 0               @ ../Middlewares/CMSIS/DSP/Src/FastMathFunctions/arm_vlog_q31.c:92:8
	b	.LBB15_7
.LBB15_7:                               @ =>This Inner Loop Header: Depth=1
.Ltmp162:
	.loc	21 92 15                        @ ../Middlewares/CMSIS/DSP/Src/FastMathFunctions/arm_vlog_q31.c:92:15
	ldr	r0, [sp, #24]
.Ltmp163:
	.loc	21 92 4                         @ ../Middlewares/CMSIS/DSP/Src/FastMathFunctions/arm_vlog_q31.c:92:4
	cmp	r0, #30
	bgt	.LBB15_12
	b	.LBB15_8
.LBB15_8:                               @   in Loop: Header=BB15_7 Depth=1
.Ltmp164:
	.loc	21 94 21 is_stmt 1              @ ../Middlewares/CMSIS/DSP/Src/FastMathFunctions/arm_vlog_q31.c:94:21
	ldr	r0, [sp, #8]
	.loc	21 94 22 is_stmt 0              @ ../Middlewares/CMSIS/DSP/Src/FastMathFunctions/arm_vlog_q31.c:94:22
	umull	r0, r1, r0, r0
	.loc	21 94 26                        @ ../Middlewares/CMSIS/DSP/Src/FastMathFunctions/arm_vlog_q31.c:94:26
	lsrs	r0, r0, #30
	orr.w	r0, r0, r1, lsl #2
	.loc	21 94 9                         @ ../Middlewares/CMSIS/DSP/Src/FastMathFunctions/arm_vlog_q31.c:94:9
	str	r0, [sp, #8]
.Ltmp165:
	.loc	21 96 11 is_stmt 1              @ ../Middlewares/CMSIS/DSP/Src/FastMathFunctions/arm_vlog_q31.c:96:11
	ldr	r0, [sp, #8]
.Ltmp166:
	.loc	21 96 11 is_stmt 0              @ ../Middlewares/CMSIS/DSP/Src/FastMathFunctions/arm_vlog_q31.c:96:11
	cmp.w	r0, #-1
	bgt	.LBB15_10
	b	.LBB15_9
.LBB15_9:                               @   in Loop: Header=BB15_7 Depth=1
.Ltmp167:
	.loc	21 98 15 is_stmt 1              @ ../Middlewares/CMSIS/DSP/Src/FastMathFunctions/arm_vlog_q31.c:98:15
	ldr	r1, [sp, #12]
	.loc	21 98 12 is_stmt 0              @ ../Middlewares/CMSIS/DSP/Src/FastMathFunctions/arm_vlog_q31.c:98:12
	ldr	r0, [sp, #4]
	add	r0, r1
	str	r0, [sp, #4]
	.loc	21 99 14 is_stmt 1              @ ../Middlewares/CMSIS/DSP/Src/FastMathFunctions/arm_vlog_q31.c:99:14
	ldr	r0, [sp, #8]
	.loc	21 99 16 is_stmt 0              @ ../Middlewares/CMSIS/DSP/Src/FastMathFunctions/arm_vlog_q31.c:99:16
	lsrs	r0, r0, #1
	.loc	21 99 12                        @ ../Middlewares/CMSIS/DSP/Src/FastMathFunctions/arm_vlog_q31.c:99:12
	str	r0, [sp, #8]
	.loc	21 100 7 is_stmt 1              @ ../Middlewares/CMSIS/DSP/Src/FastMathFunctions/arm_vlog_q31.c:100:7
	b	.LBB15_10
.Ltmp168:
.LBB15_10:                              @   in Loop: Header=BB15_7 Depth=1
	.loc	21 101 13                       @ ../Middlewares/CMSIS/DSP/Src/FastMathFunctions/arm_vlog_q31.c:101:13
	ldr	r0, [sp, #12]
	.loc	21 101 17 is_stmt 0             @ ../Middlewares/CMSIS/DSP/Src/FastMathFunctions/arm_vlog_q31.c:101:17
	lsrs	r0, r0, #1
	.loc	21 101 11                       @ ../Middlewares/CMSIS/DSP/Src/FastMathFunctions/arm_vlog_q31.c:101:11
	str	r0, [sp, #12]
	.loc	21 102 4 is_stmt 1              @ ../Middlewares/CMSIS/DSP/Src/FastMathFunctions/arm_vlog_q31.c:102:4
	b	.LBB15_11
.Ltmp169:
.LBB15_11:                              @   in Loop: Header=BB15_7 Depth=1
	.loc	21 92 25                        @ ../Middlewares/CMSIS/DSP/Src/FastMathFunctions/arm_vlog_q31.c:92:25
	ldr	r0, [sp, #24]
	adds	r0, #1
	str	r0, [sp, #24]
	.loc	21 92 4 is_stmt 0               @ ../Middlewares/CMSIS/DSP/Src/FastMathFunctions/arm_vlog_q31.c:92:4
	b	.LBB15_7
.Ltmp170:
.LBB15_12:
	.loc	21 111 19 is_stmt 1             @ ../Middlewares/CMSIS/DSP/Src/FastMathFunctions/arm_vlog_q31.c:111:19
	ldr	r0, [sp, #4]
	.loc	21 111 24 is_stmt 0             @ ../Middlewares/CMSIS/DSP/Src/FastMathFunctions/arm_vlog_q31.c:111:24
	ldr	r1, [sp, #16]
	.loc	21 111 21                       @ ../Middlewares/CMSIS/DSP/Src/FastMathFunctions/arm_vlog_q31.c:111:21
	sub.w	r0, r0, r1, lsl #26
	.loc	21 111 8                        @ ../Middlewares/CMSIS/DSP/Src/FastMathFunctions/arm_vlog_q31.c:111:8
	str	r0, [sp]
	.loc	21 115 18 is_stmt 1             @ ../Middlewares/CMSIS/DSP/Src/FastMathFunctions/arm_vlog_q31.c:115:18
	ldr	r0, [sp]
	movw	r1, #3067
	movt	r1, #22713
	.loc	21 115 22 is_stmt 0             @ ../Middlewares/CMSIS/DSP/Src/FastMathFunctions/arm_vlog_q31.c:115:22
	smull	r0, r1, r0, r1
	.loc	21 115 38                       @ ../Middlewares/CMSIS/DSP/Src/FastMathFunctions/arm_vlog_q31.c:115:38
	lsrs	r0, r0, #31
	orr.w	r0, r0, r1, lsl #1
	.loc	21 115 6                        @ ../Middlewares/CMSIS/DSP/Src/FastMathFunctions/arm_vlog_q31.c:115:6
	str	r0, [sp, #4]
	.loc	21 119 11 is_stmt 1             @ ../Middlewares/CMSIS/DSP/Src/FastMathFunctions/arm_vlog_q31.c:119:11
	ldr	r0, [sp, #4]
	.loc	21 119 4 is_stmt 0              @ ../Middlewares/CMSIS/DSP/Src/FastMathFunctions/arm_vlog_q31.c:119:4
	add	sp, #40
	bx	lr
.Ltmp171:
.Lfunc_end15:
	.size	arm_scalar_log_q31, .Lfunc_end15-arm_scalar_log_q31
	.cfi_endproc
	.cantunwind
	.fnend
                                        @ -- End function
	.section	.text.arm_vlog_q15,"ax",%progbits
	.hidden	arm_vlog_q15                    @ -- Begin function arm_vlog_q15
	.globl	arm_vlog_q15
	.p2align	2
	.type	arm_vlog_q15,%function
	.code	16                              @ @arm_vlog_q15
	.thumb_func
arm_vlog_q15:
.Lfunc_begin16:
	.file	22 "D:\\horizon\\Horizon_Infantry (2)\\MDK-ARM" "../Middlewares/CMSIS/DSP/Src/FastMathFunctions/arm_vlog_q15.c"
	.loc	22 227 0 is_stmt 1              @ ../Middlewares/CMSIS/DSP/Src/FastMathFunctions/arm_vlog_q15.c:227:0
	.fnstart
	.cfi_startproc
@ %bb.0:
	.save	{r7, lr}
	push	{r7, lr}
	.cfi_def_cfa_offset 8
	.cfi_offset lr, -4
	.cfi_offset r7, -8
	.pad	#16
	sub	sp, #16
	.cfi_def_cfa_offset 24
	str	r0, [sp, #12]
	str	r1, [sp, #8]
	str	r2, [sp, #4]
.Ltmp172:
	.loc	22 250 12 prologue_end          @ ../Middlewares/CMSIS/DSP/Src/FastMathFunctions/arm_vlog_q15.c:250:12
	ldr	r0, [sp, #4]
	.loc	22 250 10 is_stmt 0             @ ../Middlewares/CMSIS/DSP/Src/FastMathFunctions/arm_vlog_q15.c:250:10
	str	r0, [sp]
	.loc	22 253 3 is_stmt 1              @ ../Middlewares/CMSIS/DSP/Src/FastMathFunctions/arm_vlog_q15.c:253:3
	b	.LBB16_1
.LBB16_1:                               @ =>This Inner Loop Header: Depth=1
	.loc	22 253 10 is_stmt 0             @ ../Middlewares/CMSIS/DSP/Src/FastMathFunctions/arm_vlog_q15.c:253:10
	ldr	r0, [sp]
	.loc	22 253 3                        @ ../Middlewares/CMSIS/DSP/Src/FastMathFunctions/arm_vlog_q15.c:253:3
	cbz	r0, .LBB16_3
	b	.LBB16_2
.LBB16_2:                               @   in Loop: Header=BB16_1 Depth=1
.Ltmp173:
	.loc	22 255 40 is_stmt 1             @ ../Middlewares/CMSIS/DSP/Src/FastMathFunctions/arm_vlog_q15.c:255:40
	ldr	r0, [sp, #12]
	adds	r1, r0, #2
	str	r1, [sp, #12]
	.loc	22 255 35 is_stmt 0             @ ../Middlewares/CMSIS/DSP/Src/FastMathFunctions/arm_vlog_q15.c:255:35
	ldrh	r0, [r0]
	.loc	22 255 16                       @ ../Middlewares/CMSIS/DSP/Src/FastMathFunctions/arm_vlog_q15.c:255:16
	bl	arm_scalar_log_q15
	.loc	22 255 11                       @ ../Middlewares/CMSIS/DSP/Src/FastMathFunctions/arm_vlog_q15.c:255:11
	ldr	r1, [sp, #8]
	adds	r2, r1, #2
	str	r2, [sp, #8]
	.loc	22 255 14                       @ ../Middlewares/CMSIS/DSP/Src/FastMathFunctions/arm_vlog_q15.c:255:14
	strh	r0, [r1]
	.loc	22 258 12 is_stmt 1             @ ../Middlewares/CMSIS/DSP/Src/FastMathFunctions/arm_vlog_q15.c:258:12
	ldr	r0, [sp]
	subs	r0, #1
	str	r0, [sp]
.Ltmp174:
	.loc	22 253 3                        @ ../Middlewares/CMSIS/DSP/Src/FastMathFunctions/arm_vlog_q15.c:253:3
	b	.LBB16_1
.LBB16_3:
	.loc	22 260 1                        @ ../Middlewares/CMSIS/DSP/Src/FastMathFunctions/arm_vlog_q15.c:260:1
	add	sp, #16
	pop	{r7, pc}
.Ltmp175:
.Lfunc_end16:
	.size	arm_vlog_q15, .Lfunc_end16-arm_vlog_q15
	.cfi_endproc
	.cantunwind
	.fnend
                                        @ -- End function
	.section	.text.arm_scalar_log_q15,"ax",%progbits
	.p2align	2                               @ -- Begin function arm_scalar_log_q15
	.type	arm_scalar_log_q15,%function
	.code	16                              @ @arm_scalar_log_q15
	.thumb_func
arm_scalar_log_q15:
.Lfunc_begin17:
	.loc	22 59 0                         @ ../Middlewares/CMSIS/DSP/Src/FastMathFunctions/arm_vlog_q15.c:59:0
	.fnstart
	.cfi_startproc
@ %bb.0:
	.pad	#28
	sub	sp, #28
	.cfi_def_cfa_offset 28
                                        @ kill: def $r1 killed $r0
	strh.w	r0, [sp, #18]
.Ltmp176:
	.loc	22 62 22 prologue_end           @ ../Middlewares/CMSIS/DSP/Src/FastMathFunctions/arm_vlog_q15.c:62:22
	ldrh.w	r0, [sp, #18]
	str	r0, [sp, #20]
.Ltmp177:
	.loc	13 306 7                        @ ../Drivers/CMSIS/Include/cmsis_armclang.h:306:7
	ldr	r0, [sp, #20]
.Ltmp178:
	.loc	13 306 7 is_stmt 0              @ ../Drivers/CMSIS/Include/cmsis_armclang.h:306:7
	cbnz	r0, .LBB17_2
	b	.LBB17_1
.LBB17_1:
	.loc	13 0 7                          @ ../Drivers/CMSIS/Include/cmsis_armclang.h:0:7
	movs	r0, #32
.Ltmp179:
	.loc	13 308 5 is_stmt 1              @ ../Drivers/CMSIS/Include/cmsis_armclang.h:308:5
	strb.w	r0, [sp, #27]
	b	.LBB17_3
.Ltmp180:
.LBB17_2:
	.loc	13 310 24                       @ ../Drivers/CMSIS/Include/cmsis_armclang.h:310:24
	ldr	r0, [sp, #20]
	.loc	13 310 10 is_stmt 0             @ ../Drivers/CMSIS/Include/cmsis_armclang.h:310:10
	clz	r0, r0
	.loc	13 310 3                        @ ../Drivers/CMSIS/Include/cmsis_armclang.h:310:3
	strb.w	r0, [sp, #27]
	b	.LBB17_3
.LBB17_3:                               @ %__CLZ.exit
	.loc	13 311 1 is_stmt 1              @ ../Drivers/CMSIS/Include/cmsis_armclang.h:311:1
	ldrb.w	r0, [sp, #27]
.Ltmp181:
	.loc	22 62 26                        @ ../Middlewares/CMSIS/DSP/Src/FastMathFunctions/arm_vlog_q15.c:62:26
	subs	r0, #16
	.loc	22 62 12 is_stmt 0              @ ../Middlewares/CMSIS/DSP/Src/FastMathFunctions/arm_vlog_q15.c:62:12
	strh.w	r0, [sp, #10]
	movs	r0, #0
	.loc	22 63 12 is_stmt 1              @ ../Middlewares/CMSIS/DSP/Src/FastMathFunctions/arm_vlog_q15.c:63:12
	strh.w	r0, [sp, #8]
	mov.w	r1, #1024
	.loc	22 66 13                        @ ../Middlewares/CMSIS/DSP/Src/FastMathFunctions/arm_vlog_q15.c:66:13
	strh.w	r1, [sp, #6]
	.loc	22 72 13                        @ ../Middlewares/CMSIS/DSP/Src/FastMathFunctions/arm_vlog_q15.c:72:13
	strh.w	r0, [sp, #2]
	.loc	22 79 8                         @ ../Middlewares/CMSIS/DSP/Src/FastMathFunctions/arm_vlog_q15.c:79:8
	ldrh.w	r0, [sp, #18]
	.loc	22 79 6 is_stmt 0               @ ../Middlewares/CMSIS/DSP/Src/FastMathFunctions/arm_vlog_q15.c:79:6
	strh.w	r0, [sp, #4]
.Ltmp182:
	.loc	22 80 9 is_stmt 1               @ ../Middlewares/CMSIS/DSP/Src/FastMathFunctions/arm_vlog_q15.c:80:9
	ldrsh.w	r0, [sp, #10]
	.loc	22 80 10 is_stmt 0              @ ../Middlewares/CMSIS/DSP/Src/FastMathFunctions/arm_vlog_q15.c:80:10
	subs	r0, #1
.Ltmp183:
	.loc	22 80 8                         @ ../Middlewares/CMSIS/DSP/Src/FastMathFunctions/arm_vlog_q15.c:80:8
	cmp.w	r0, #-1
	bgt	.LBB17_5
	b	.LBB17_4
.LBB17_4:
.Ltmp184:
	.loc	22 82 10 is_stmt 1              @ ../Middlewares/CMSIS/DSP/Src/FastMathFunctions/arm_vlog_q15.c:82:10
	ldrh.w	r0, [sp, #4]
	.loc	22 82 18 is_stmt 0              @ ../Middlewares/CMSIS/DSP/Src/FastMathFunctions/arm_vlog_q15.c:82:18
	ldrsh.w	r1, [sp, #10]
	.loc	22 82 17                        @ ../Middlewares/CMSIS/DSP/Src/FastMathFunctions/arm_vlog_q15.c:82:17
	rsb.w	r1, r1, #1
	.loc	22 82 12                        @ ../Middlewares/CMSIS/DSP/Src/FastMathFunctions/arm_vlog_q15.c:82:12
	lsrs	r0, r1
	.loc	22 82 8                         @ ../Middlewares/CMSIS/DSP/Src/FastMathFunctions/arm_vlog_q15.c:82:8
	strh.w	r0, [sp, #4]
	.loc	22 83 4 is_stmt 1               @ ../Middlewares/CMSIS/DSP/Src/FastMathFunctions/arm_vlog_q15.c:83:4
	b	.LBB17_6
.Ltmp185:
.LBB17_5:
	.loc	22 86 10                        @ ../Middlewares/CMSIS/DSP/Src/FastMathFunctions/arm_vlog_q15.c:86:10
	ldrh.w	r0, [sp, #4]
	.loc	22 86 16 is_stmt 0              @ ../Middlewares/CMSIS/DSP/Src/FastMathFunctions/arm_vlog_q15.c:86:16
	ldrsh.w	r1, [sp, #10]
	.loc	22 86 17                        @ ../Middlewares/CMSIS/DSP/Src/FastMathFunctions/arm_vlog_q15.c:86:17
	subs	r1, #1
	.loc	22 86 12                        @ ../Middlewares/CMSIS/DSP/Src/FastMathFunctions/arm_vlog_q15.c:86:12
	lsls	r0, r1
	.loc	22 86 8                         @ ../Middlewares/CMSIS/DSP/Src/FastMathFunctions/arm_vlog_q15.c:86:8
	strh.w	r0, [sp, #4]
	b	.LBB17_6
.Ltmp186:
.LBB17_6:
	.loc	22 88 20 is_stmt 1              @ ../Middlewares/CMSIS/DSP/Src/FastMathFunctions/arm_vlog_q15.c:88:20
	ldrh.w	r0, [sp, #10]
	.loc	22 88 18 is_stmt 0              @ ../Middlewares/CMSIS/DSP/Src/FastMathFunctions/arm_vlog_q15.c:88:18
	strh.w	r0, [sp, #8]
	movs	r0, #0
.Ltmp187:
	.loc	22 98 10 is_stmt 1              @ ../Middlewares/CMSIS/DSP/Src/FastMathFunctions/arm_vlog_q15.c:98:10
	str	r0, [sp, #12]
	.loc	22 98 8 is_stmt 0               @ ../Middlewares/CMSIS/DSP/Src/FastMathFunctions/arm_vlog_q15.c:98:8
	b	.LBB17_7
.LBB17_7:                               @ =>This Inner Loop Header: Depth=1
.Ltmp188:
	.loc	22 98 15                        @ ../Middlewares/CMSIS/DSP/Src/FastMathFunctions/arm_vlog_q15.c:98:15
	ldr	r0, [sp, #12]
.Ltmp189:
	.loc	22 98 4                         @ ../Middlewares/CMSIS/DSP/Src/FastMathFunctions/arm_vlog_q15.c:98:4
	cmp	r0, #14
	bgt	.LBB17_12
	b	.LBB17_8
.LBB17_8:                               @   in Loop: Header=BB17_7 Depth=1
.Ltmp190:
	.loc	22 100 22 is_stmt 1             @ ../Middlewares/CMSIS/DSP/Src/FastMathFunctions/arm_vlog_q15.c:100:22
	ldrh.w	r0, [sp, #4]
	.loc	22 100 23 is_stmt 0             @ ../Middlewares/CMSIS/DSP/Src/FastMathFunctions/arm_vlog_q15.c:100:23
	muls	r0, r0, r0
	.loc	22 100 28                       @ ../Middlewares/CMSIS/DSP/Src/FastMathFunctions/arm_vlog_q15.c:100:28
	lsrs	r0, r0, #14
	.loc	22 100 9                        @ ../Middlewares/CMSIS/DSP/Src/FastMathFunctions/arm_vlog_q15.c:100:9
	strh.w	r0, [sp, #4]
.Ltmp191:
	.loc	22 102 11 is_stmt 1             @ ../Middlewares/CMSIS/DSP/Src/FastMathFunctions/arm_vlog_q15.c:102:11
	ldrsh.w	r0, [sp, #4]
.Ltmp192:
	.loc	22 102 11 is_stmt 0             @ ../Middlewares/CMSIS/DSP/Src/FastMathFunctions/arm_vlog_q15.c:102:11
	cmp.w	r0, #-1
	bgt	.LBB17_10
	b	.LBB17_9
.LBB17_9:                               @   in Loop: Header=BB17_7 Depth=1
.Ltmp193:
	.loc	22 104 15 is_stmt 1             @ ../Middlewares/CMSIS/DSP/Src/FastMathFunctions/arm_vlog_q15.c:104:15
	ldrh.w	r1, [sp, #6]
	.loc	22 104 12 is_stmt 0             @ ../Middlewares/CMSIS/DSP/Src/FastMathFunctions/arm_vlog_q15.c:104:12
	ldrh.w	r0, [sp, #2]
	add	r0, r1
	strh.w	r0, [sp, #2]
	.loc	22 105 14 is_stmt 1             @ ../Middlewares/CMSIS/DSP/Src/FastMathFunctions/arm_vlog_q15.c:105:14
	ldrh.w	r0, [sp, #4]
	.loc	22 105 16 is_stmt 0             @ ../Middlewares/CMSIS/DSP/Src/FastMathFunctions/arm_vlog_q15.c:105:16
	lsrs	r0, r0, #1
	.loc	22 105 12                       @ ../Middlewares/CMSIS/DSP/Src/FastMathFunctions/arm_vlog_q15.c:105:12
	strh.w	r0, [sp, #4]
	.loc	22 106 7 is_stmt 1              @ ../Middlewares/CMSIS/DSP/Src/FastMathFunctions/arm_vlog_q15.c:106:7
	b	.LBB17_10
.Ltmp194:
.LBB17_10:                              @   in Loop: Header=BB17_7 Depth=1
	.loc	22 107 13                       @ ../Middlewares/CMSIS/DSP/Src/FastMathFunctions/arm_vlog_q15.c:107:13
	ldrh.w	r0, [sp, #6]
	.loc	22 107 17 is_stmt 0             @ ../Middlewares/CMSIS/DSP/Src/FastMathFunctions/arm_vlog_q15.c:107:17
	lsrs	r0, r0, #1
	.loc	22 107 11                       @ ../Middlewares/CMSIS/DSP/Src/FastMathFunctions/arm_vlog_q15.c:107:11
	strh.w	r0, [sp, #6]
	.loc	22 108 4 is_stmt 1              @ ../Middlewares/CMSIS/DSP/Src/FastMathFunctions/arm_vlog_q15.c:108:4
	b	.LBB17_11
.Ltmp195:
.LBB17_11:                              @   in Loop: Header=BB17_7 Depth=1
	.loc	22 98 25                        @ ../Middlewares/CMSIS/DSP/Src/FastMathFunctions/arm_vlog_q15.c:98:25
	ldr	r0, [sp, #12]
	adds	r0, #1
	str	r0, [sp, #12]
	.loc	22 98 4 is_stmt 0               @ ../Middlewares/CMSIS/DSP/Src/FastMathFunctions/arm_vlog_q15.c:98:4
	b	.LBB17_7
.Ltmp196:
.LBB17_12:
	.loc	22 119 10 is_stmt 1             @ ../Middlewares/CMSIS/DSP/Src/FastMathFunctions/arm_vlog_q15.c:119:10
	ldrh.w	r0, [sp, #2]
	.loc	22 119 24 is_stmt 0             @ ../Middlewares/CMSIS/DSP/Src/FastMathFunctions/arm_vlog_q15.c:119:24
	ldrh.w	r1, [sp, #8]
	.loc	22 119 21                       @ ../Middlewares/CMSIS/DSP/Src/FastMathFunctions/arm_vlog_q15.c:119:21
	sub.w	r0, r0, r1, lsl #11
	.loc	22 119 8                        @ ../Middlewares/CMSIS/DSP/Src/FastMathFunctions/arm_vlog_q15.c:119:8
	strh.w	r0, [sp]
	.loc	22 122 18 is_stmt 1             @ ../Middlewares/CMSIS/DSP/Src/FastMathFunctions/arm_vlog_q15.c:122:18
	ldrsh.w	r0, [sp]
	movw	r1, #22713
	.loc	22 122 22 is_stmt 0             @ ../Middlewares/CMSIS/DSP/Src/FastMathFunctions/arm_vlog_q15.c:122:22
	muls	r0, r1, r0
	.loc	22 122 33                       @ ../Middlewares/CMSIS/DSP/Src/FastMathFunctions/arm_vlog_q15.c:122:33
	lsrs	r0, r0, #15
	.loc	22 122 6                        @ ../Middlewares/CMSIS/DSP/Src/FastMathFunctions/arm_vlog_q15.c:122:6
	strh.w	r0, [sp, #2]
	.loc	22 124 11 is_stmt 1             @ ../Middlewares/CMSIS/DSP/Src/FastMathFunctions/arm_vlog_q15.c:124:11
	ldrh.w	r0, [sp, #2]
	.loc	22 124 4 is_stmt 0              @ ../Middlewares/CMSIS/DSP/Src/FastMathFunctions/arm_vlog_q15.c:124:4
	add	sp, #28
	bx	lr
.Ltmp197:
.Lfunc_end17:
	.size	arm_scalar_log_q15, .Lfunc_end17-arm_scalar_log_q15
	.cfi_endproc
	.cantunwind
	.fnend
                                        @ -- End function
	.section	.text.arm_atan2_f32,"ax",%progbits
	.hidden	arm_atan2_f32                   @ -- Begin function arm_atan2_f32
	.globl	arm_atan2_f32
	.p2align	2
	.type	arm_atan2_f32,%function
	.code	16                              @ @arm_atan2_f32
	.thumb_func
arm_atan2_f32:
.Lfunc_begin18:
	.loc	2 133 0 is_stmt 1               @ ../Middlewares/CMSIS/DSP/Src/FastMathFunctions/arm_atan2_f32.c:133:0
	.fnstart
	.cfi_startproc
@ %bb.0:
	.save	{r7, lr}
	push	{r7, lr}
	.cfi_def_cfa_offset 8
	.cfi_offset lr, -4
	.cfi_offset r7, -8
	.pad	#128
	sub	sp, #128
	.cfi_def_cfa_offset 136
	vstr	s0, [sp, #12]
	vstr	s1, [sp, #8]
	str	r0, [sp, #4]
.Ltmp198:
	.loc	2 134 9 prologue_end            @ ../Middlewares/CMSIS/DSP/Src/FastMathFunctions/arm_atan2_f32.c:134:9
	vldr	s0, [sp, #8]
.Ltmp199:
	.loc	2 134 9 is_stmt 0               @ ../Middlewares/CMSIS/DSP/Src/FastMathFunctions/arm_atan2_f32.c:134:9
	vcmp.f32	s0, #0
	vmrs	APSR_nzcv, fpscr
	ble.w	.LBB18_15
	b	.LBB18_1
.LBB18_1:
.Ltmp200:
	.loc	2 136 30 is_stmt 1              @ ../Middlewares/CMSIS/DSP/Src/FastMathFunctions/arm_atan2_f32.c:136:30
	vldr	s0, [sp, #12]
	.loc	2 136 32 is_stmt 0              @ ../Middlewares/CMSIS/DSP/Src/FastMathFunctions/arm_atan2_f32.c:136:32
	vldr	s2, [sp, #8]
	.loc	2 136 31                        @ ../Middlewares/CMSIS/DSP/Src/FastMathFunctions/arm_atan2_f32.c:136:31
	vdiv.f32	s0, s0, s2
	vstr	s0, [sp, #52]
	movs	r0, #0
.Ltmp201:
	.loc	2 70 8 is_stmt 1                @ ../Middlewares/CMSIS/DSP/Src/FastMathFunctions/arm_atan2_f32.c:70:8
	str	r0, [sp, #48]
	.loc	2 71 14                         @ ../Middlewares/CMSIS/DSP/Src/FastMathFunctions/arm_atan2_f32.c:71:14
	str	r0, [sp, #44]
.Ltmp202:
	.loc	2 73 8                          @ ../Middlewares/CMSIS/DSP/Src/FastMathFunctions/arm_atan2_f32.c:73:8
	vldr	s0, [sp, #52]
.Ltmp203:
	.loc	2 73 8 is_stmt 0                @ ../Middlewares/CMSIS/DSP/Src/FastMathFunctions/arm_atan2_f32.c:73:8
	vcmp.f32	s0, #0
	vmrs	APSR_nzcv, fpscr
	bge	.LBB18_3
	b	.LBB18_2
.LBB18_2:
	.loc	2 0 8                           @ ../Middlewares/CMSIS/DSP/Src/FastMathFunctions/arm_atan2_f32.c:0:8
	movs	r0, #1
.Ltmp204:
	.loc	2 75 11 is_stmt 1               @ ../Middlewares/CMSIS/DSP/Src/FastMathFunctions/arm_atan2_f32.c:75:11
	str	r0, [sp, #48]
	.loc	2 76 10                         @ ../Middlewares/CMSIS/DSP/Src/FastMathFunctions/arm_atan2_f32.c:76:10
	vldr	s0, [sp, #52]
	.loc	2 76 9 is_stmt 0                @ ../Middlewares/CMSIS/DSP/Src/FastMathFunctions/arm_atan2_f32.c:76:9
	vneg.f32	s0, s0
	.loc	2 76 8                          @ ../Middlewares/CMSIS/DSP/Src/FastMathFunctions/arm_atan2_f32.c:76:8
	vstr	s0, [sp, #52]
	.loc	2 77 4 is_stmt 1                @ ../Middlewares/CMSIS/DSP/Src/FastMathFunctions/arm_atan2_f32.c:77:4
	b	.LBB18_3
.Ltmp205:
.LBB18_3:
	.loc	2 79 8                          @ ../Middlewares/CMSIS/DSP/Src/FastMathFunctions/arm_atan2_f32.c:79:8
	vldr	s0, [sp, #52]
	vmov.f32	s2, #1.000000e+00
.Ltmp206:
	.loc	2 79 8 is_stmt 0                @ ../Middlewares/CMSIS/DSP/Src/FastMathFunctions/arm_atan2_f32.c:79:8
	vcmp.f32	s0, s2
	vmrs	APSR_nzcv, fpscr
	ble	.LBB18_8
	b	.LBB18_4
.LBB18_4:
.Ltmp207:
	.loc	2 81 18 is_stmt 1               @ ../Middlewares/CMSIS/DSP/Src/FastMathFunctions/arm_atan2_f32.c:81:18
	vldr	s2, [sp, #52]
	vmov.f32	s0, #1.000000e+00
	.loc	2 81 16 is_stmt 0               @ ../Middlewares/CMSIS/DSP/Src/FastMathFunctions/arm_atan2_f32.c:81:16
	vdiv.f32	s0, s0, s2
	.loc	2 81 9                          @ ../Middlewares/CMSIS/DSP/Src/FastMathFunctions/arm_atan2_f32.c:81:9
	vstr	s0, [sp, #52]
	.loc	2 82 62 is_stmt 1               @ ../Middlewares/CMSIS/DSP/Src/FastMathFunctions/arm_atan2_f32.c:82:62
	ldr	r0, [sp, #52]
	str	r0, [sp, #64]
	movw	r0, #37541
	movt	r0, #48388
.Ltmp208:
	.loc	2 57 15                         @ ../Middlewares/CMSIS/DSP/Src/FastMathFunctions/arm_atan2_f32.c:57:15
	str	r0, [sp, #60]
	movs	r0, #1
	.loc	2 58 9                          @ ../Middlewares/CMSIS/DSP/Src/FastMathFunctions/arm_atan2_f32.c:58:9
	str	r0, [sp, #56]
.Ltmp209:
	.loc	2 59 10                         @ ../Middlewares/CMSIS/DSP/Src/FastMathFunctions/arm_atan2_f32.c:59:10
	str	r0, [sp, #56]
	.loc	2 59 9 is_stmt 0                @ ../Middlewares/CMSIS/DSP/Src/FastMathFunctions/arm_atan2_f32.c:59:9
	b	.LBB18_5
.LBB18_5:                               @ =>This Inner Loop Header: Depth=1
.Ltmp210:
	.loc	2 59 13                         @ ../Middlewares/CMSIS/DSP/Src/FastMathFunctions/arm_atan2_f32.c:59:13
	ldr	r0, [sp, #56]
.Ltmp211:
	.loc	2 59 5                          @ ../Middlewares/CMSIS/DSP/Src/FastMathFunctions/arm_atan2_f32.c:59:5
	cmp	r0, #9
	bgt	.LBB18_7
	b	.LBB18_6
.LBB18_6:                               @   in Loop: Header=BB18_5 Depth=1
.Ltmp212:
	.loc	2 61 15 is_stmt 1               @ ../Middlewares/CMSIS/DSP/Src/FastMathFunctions/arm_atan2_f32.c:61:15
	vldr	s0, [sp, #64]
	.loc	2 61 17 is_stmt 0               @ ../Middlewares/CMSIS/DSP/Src/FastMathFunctions/arm_atan2_f32.c:61:17
	vldr	s4, [sp, #60]
	.loc	2 61 45                         @ ../Middlewares/CMSIS/DSP/Src/FastMathFunctions/arm_atan2_f32.c:61:45
	ldr	r0, [sp, #56]
	.loc	2 61 44                         @ ../Middlewares/CMSIS/DSP/Src/FastMathFunctions/arm_atan2_f32.c:61:44
	rsb.w	r1, r0, #9
	.loc	2 61 23                         @ ../Middlewares/CMSIS/DSP/Src/FastMathFunctions/arm_atan2_f32.c:61:23
	movw	r0, :lower16:atan2_coefs_f32
	movt	r0, :upper16:atan2_coefs_f32
	add.w	r0, r0, r1, lsl #2
	vldr	s2, [r0]
	.loc	2 61 21                         @ ../Middlewares/CMSIS/DSP/Src/FastMathFunctions/arm_atan2_f32.c:61:21
	vmul.f32	s0, s0, s4
	vadd.f32	s0, s0, s2
	.loc	2 61 13                         @ ../Middlewares/CMSIS/DSP/Src/FastMathFunctions/arm_atan2_f32.c:61:13
	vstr	s0, [sp, #60]
.Ltmp213:
	.loc	2 59 19 is_stmt 1               @ ../Middlewares/CMSIS/DSP/Src/FastMathFunctions/arm_atan2_f32.c:59:19
	ldr	r0, [sp, #56]
	adds	r0, #1
	str	r0, [sp, #56]
	.loc	2 59 5 is_stmt 0                @ ../Middlewares/CMSIS/DSP/Src/FastMathFunctions/arm_atan2_f32.c:59:5
	b	.LBB18_5
.Ltmp214:
.LBB18_7:                               @ %arm_atan_limited_f32.exit
	.loc	2 65 12 is_stmt 1               @ ../Middlewares/CMSIS/DSP/Src/FastMathFunctions/arm_atan2_f32.c:65:12
	vldr	s2, [sp, #60]
	vldr	s0, .LCPI18_3
.Ltmp215:
	.loc	2 82 39                         @ ../Middlewares/CMSIS/DSP/Src/FastMathFunctions/arm_atan2_f32.c:82:39
	vsub.f32	s0, s0, s2
	.loc	2 82 11 is_stmt 0               @ ../Middlewares/CMSIS/DSP/Src/FastMathFunctions/arm_atan2_f32.c:82:11
	vstr	s0, [sp, #44]
	.loc	2 83 4 is_stmt 1                @ ../Middlewares/CMSIS/DSP/Src/FastMathFunctions/arm_atan2_f32.c:83:4
	b	.LBB18_12
.Ltmp216:
.LBB18_8:
	.loc	2 86 34                         @ ../Middlewares/CMSIS/DSP/Src/FastMathFunctions/arm_atan2_f32.c:86:34
	ldr	r0, [sp, #52]
	str	r0, [sp, #76]
	movw	r0, #37541
	movt	r0, #48388
.Ltmp217:
	.loc	2 57 15                         @ ../Middlewares/CMSIS/DSP/Src/FastMathFunctions/arm_atan2_f32.c:57:15
	str	r0, [sp, #72]
	movs	r0, #1
	.loc	2 58 9                          @ ../Middlewares/CMSIS/DSP/Src/FastMathFunctions/arm_atan2_f32.c:58:9
	str	r0, [sp, #68]
.Ltmp218:
	.loc	2 59 10                         @ ../Middlewares/CMSIS/DSP/Src/FastMathFunctions/arm_atan2_f32.c:59:10
	str	r0, [sp, #68]
	.loc	2 59 9 is_stmt 0                @ ../Middlewares/CMSIS/DSP/Src/FastMathFunctions/arm_atan2_f32.c:59:9
	b	.LBB18_9
.LBB18_9:                               @ =>This Inner Loop Header: Depth=1
.Ltmp219:
	.loc	2 59 13                         @ ../Middlewares/CMSIS/DSP/Src/FastMathFunctions/arm_atan2_f32.c:59:13
	ldr	r0, [sp, #68]
.Ltmp220:
	.loc	2 59 5                          @ ../Middlewares/CMSIS/DSP/Src/FastMathFunctions/arm_atan2_f32.c:59:5
	cmp	r0, #9
	bgt	.LBB18_11
	b	.LBB18_10
.LBB18_10:                              @   in Loop: Header=BB18_9 Depth=1
.Ltmp221:
	.loc	2 61 15 is_stmt 1               @ ../Middlewares/CMSIS/DSP/Src/FastMathFunctions/arm_atan2_f32.c:61:15
	vldr	s0, [sp, #76]
	.loc	2 61 17 is_stmt 0               @ ../Middlewares/CMSIS/DSP/Src/FastMathFunctions/arm_atan2_f32.c:61:17
	vldr	s4, [sp, #72]
	.loc	2 61 45                         @ ../Middlewares/CMSIS/DSP/Src/FastMathFunctions/arm_atan2_f32.c:61:45
	ldr	r0, [sp, #68]
	.loc	2 61 44                         @ ../Middlewares/CMSIS/DSP/Src/FastMathFunctions/arm_atan2_f32.c:61:44
	rsb.w	r1, r0, #9
	.loc	2 61 23                         @ ../Middlewares/CMSIS/DSP/Src/FastMathFunctions/arm_atan2_f32.c:61:23
	movw	r0, :lower16:atan2_coefs_f32
	movt	r0, :upper16:atan2_coefs_f32
	add.w	r0, r0, r1, lsl #2
	vldr	s2, [r0]
	.loc	2 61 21                         @ ../Middlewares/CMSIS/DSP/Src/FastMathFunctions/arm_atan2_f32.c:61:21
	vmul.f32	s0, s0, s4
	vadd.f32	s0, s0, s2
	.loc	2 61 13                         @ ../Middlewares/CMSIS/DSP/Src/FastMathFunctions/arm_atan2_f32.c:61:13
	vstr	s0, [sp, #72]
.Ltmp222:
	.loc	2 59 19 is_stmt 1               @ ../Middlewares/CMSIS/DSP/Src/FastMathFunctions/arm_atan2_f32.c:59:19
	ldr	r0, [sp, #68]
	adds	r0, #1
	str	r0, [sp, #68]
	.loc	2 59 5 is_stmt 0                @ ../Middlewares/CMSIS/DSP/Src/FastMathFunctions/arm_atan2_f32.c:59:5
	b	.LBB18_9
.Ltmp223:
.LBB18_11:                              @ %arm_atan_limited_f32.exit3
	.loc	2 65 12 is_stmt 1               @ ../Middlewares/CMSIS/DSP/Src/FastMathFunctions/arm_atan2_f32.c:65:12
	vldr	s2, [sp, #72]
.Ltmp224:
	.loc	2 86 10                         @ ../Middlewares/CMSIS/DSP/Src/FastMathFunctions/arm_atan2_f32.c:86:10
	vldr	s0, [sp, #44]
	vadd.f32	s0, s0, s2
	vstr	s0, [sp, #44]
	b	.LBB18_12
.Ltmp225:
.LBB18_12:
	.loc	2 90 8                          @ ../Middlewares/CMSIS/DSP/Src/FastMathFunctions/arm_atan2_f32.c:90:8
	ldr	r0, [sp, #48]
.Ltmp226:
	.loc	2 90 8 is_stmt 0                @ ../Middlewares/CMSIS/DSP/Src/FastMathFunctions/arm_atan2_f32.c:90:8
	cbz	r0, .LBB18_14
	b	.LBB18_13
.LBB18_13:
.Ltmp227:
	.loc	2 92 13 is_stmt 1               @ ../Middlewares/CMSIS/DSP/Src/FastMathFunctions/arm_atan2_f32.c:92:13
	vldr	s0, [sp, #44]
	.loc	2 92 12 is_stmt 0               @ ../Middlewares/CMSIS/DSP/Src/FastMathFunctions/arm_atan2_f32.c:92:12
	vneg.f32	s0, s0
	.loc	2 92 10                         @ ../Middlewares/CMSIS/DSP/Src/FastMathFunctions/arm_atan2_f32.c:92:10
	vstr	s0, [sp, #44]
	.loc	2 93 4 is_stmt 1                @ ../Middlewares/CMSIS/DSP/Src/FastMathFunctions/arm_atan2_f32.c:93:4
	b	.LBB18_14
.Ltmp228:
.LBB18_14:                              @ %arm_atan_f32.exit2
	.loc	2 95 11                         @ ../Middlewares/CMSIS/DSP/Src/FastMathFunctions/arm_atan2_f32.c:95:11
	ldr	r0, [sp, #44]
.Ltmp229:
	.loc	2 136 10                        @ ../Middlewares/CMSIS/DSP/Src/FastMathFunctions/arm_atan2_f32.c:136:10
	ldr	r1, [sp, #4]
	.loc	2 136 16 is_stmt 0              @ ../Middlewares/CMSIS/DSP/Src/FastMathFunctions/arm_atan2_f32.c:136:16
	str	r0, [r1]
	movs	r0, #0
	.loc	2 137 9 is_stmt 1               @ ../Middlewares/CMSIS/DSP/Src/FastMathFunctions/arm_atan2_f32.c:137:9
	strb.w	r0, [sp, #19]
	b	.LBB18_62
.Ltmp230:
.LBB18_15:
	.loc	2 139 9                         @ ../Middlewares/CMSIS/DSP/Src/FastMathFunctions/arm_atan2_f32.c:139:9
	vldr	s0, [sp, #8]
.Ltmp231:
	.loc	2 139 9 is_stmt 0               @ ../Middlewares/CMSIS/DSP/Src/FastMathFunctions/arm_atan2_f32.c:139:9
	vcmp.f32	s0, #0
	vmrs	APSR_nzcv, fpscr
	bge.w	.LBB18_55
	b	.LBB18_16
.LBB18_16:
.Ltmp232:
	.loc	2 141 13 is_stmt 1              @ ../Middlewares/CMSIS/DSP/Src/FastMathFunctions/arm_atan2_f32.c:141:13
	vldr	s0, [sp, #12]
.Ltmp233:
	.loc	2 141 13 is_stmt 0              @ ../Middlewares/CMSIS/DSP/Src/FastMathFunctions/arm_atan2_f32.c:141:13
	vcmp.f32	s0, #0
	vmrs	APSR_nzcv, fpscr
	ble.w	.LBB18_31
	b	.LBB18_17
.LBB18_17:
.Ltmp234:
	.loc	2 143 33 is_stmt 1              @ ../Middlewares/CMSIS/DSP/Src/FastMathFunctions/arm_atan2_f32.c:143:33
	vldr	s0, [sp, #12]
	.loc	2 143 35 is_stmt 0              @ ../Middlewares/CMSIS/DSP/Src/FastMathFunctions/arm_atan2_f32.c:143:35
	vldr	s2, [sp, #8]
	.loc	2 143 34                        @ ../Middlewares/CMSIS/DSP/Src/FastMathFunctions/arm_atan2_f32.c:143:34
	vdiv.f32	s0, s0, s2
	vstr	s0, [sp, #40]
	movs	r0, #0
.Ltmp235:
	.loc	2 70 8 is_stmt 1                @ ../Middlewares/CMSIS/DSP/Src/FastMathFunctions/arm_atan2_f32.c:70:8
	str	r0, [sp, #36]
	.loc	2 71 14                         @ ../Middlewares/CMSIS/DSP/Src/FastMathFunctions/arm_atan2_f32.c:71:14
	str	r0, [sp, #32]
.Ltmp236:
	.loc	2 73 8                          @ ../Middlewares/CMSIS/DSP/Src/FastMathFunctions/arm_atan2_f32.c:73:8
	vldr	s0, [sp, #40]
.Ltmp237:
	.loc	2 73 8 is_stmt 0                @ ../Middlewares/CMSIS/DSP/Src/FastMathFunctions/arm_atan2_f32.c:73:8
	vcmp.f32	s0, #0
	vmrs	APSR_nzcv, fpscr
	bge	.LBB18_19
	b	.LBB18_18
.LBB18_18:
	.loc	2 0 8                           @ ../Middlewares/CMSIS/DSP/Src/FastMathFunctions/arm_atan2_f32.c:0:8
	movs	r0, #1
.Ltmp238:
	.loc	2 75 11 is_stmt 1               @ ../Middlewares/CMSIS/DSP/Src/FastMathFunctions/arm_atan2_f32.c:75:11
	str	r0, [sp, #36]
	.loc	2 76 10                         @ ../Middlewares/CMSIS/DSP/Src/FastMathFunctions/arm_atan2_f32.c:76:10
	vldr	s0, [sp, #40]
	.loc	2 76 9 is_stmt 0                @ ../Middlewares/CMSIS/DSP/Src/FastMathFunctions/arm_atan2_f32.c:76:9
	vneg.f32	s0, s0
	.loc	2 76 8                          @ ../Middlewares/CMSIS/DSP/Src/FastMathFunctions/arm_atan2_f32.c:76:8
	vstr	s0, [sp, #40]
	.loc	2 77 4 is_stmt 1                @ ../Middlewares/CMSIS/DSP/Src/FastMathFunctions/arm_atan2_f32.c:77:4
	b	.LBB18_19
.Ltmp239:
.LBB18_19:
	.loc	2 79 8                          @ ../Middlewares/CMSIS/DSP/Src/FastMathFunctions/arm_atan2_f32.c:79:8
	vldr	s0, [sp, #40]
	vmov.f32	s2, #1.000000e+00
.Ltmp240:
	.loc	2 79 8 is_stmt 0                @ ../Middlewares/CMSIS/DSP/Src/FastMathFunctions/arm_atan2_f32.c:79:8
	vcmp.f32	s0, s2
	vmrs	APSR_nzcv, fpscr
	ble	.LBB18_24
	b	.LBB18_20
.LBB18_20:
.Ltmp241:
	.loc	2 81 18 is_stmt 1               @ ../Middlewares/CMSIS/DSP/Src/FastMathFunctions/arm_atan2_f32.c:81:18
	vldr	s2, [sp, #40]
	vmov.f32	s0, #1.000000e+00
	.loc	2 81 16 is_stmt 0               @ ../Middlewares/CMSIS/DSP/Src/FastMathFunctions/arm_atan2_f32.c:81:16
	vdiv.f32	s0, s0, s2
	.loc	2 81 9                          @ ../Middlewares/CMSIS/DSP/Src/FastMathFunctions/arm_atan2_f32.c:81:9
	vstr	s0, [sp, #40]
	.loc	2 82 62 is_stmt 1               @ ../Middlewares/CMSIS/DSP/Src/FastMathFunctions/arm_atan2_f32.c:82:62
	ldr	r0, [sp, #40]
	str	r0, [sp, #88]
	movw	r0, #37541
	movt	r0, #48388
.Ltmp242:
	.loc	2 57 15                         @ ../Middlewares/CMSIS/DSP/Src/FastMathFunctions/arm_atan2_f32.c:57:15
	str	r0, [sp, #84]
	movs	r0, #1
	.loc	2 58 9                          @ ../Middlewares/CMSIS/DSP/Src/FastMathFunctions/arm_atan2_f32.c:58:9
	str	r0, [sp, #80]
.Ltmp243:
	.loc	2 59 10                         @ ../Middlewares/CMSIS/DSP/Src/FastMathFunctions/arm_atan2_f32.c:59:10
	str	r0, [sp, #80]
	.loc	2 59 9 is_stmt 0                @ ../Middlewares/CMSIS/DSP/Src/FastMathFunctions/arm_atan2_f32.c:59:9
	b	.LBB18_21
.LBB18_21:                              @ =>This Inner Loop Header: Depth=1
.Ltmp244:
	.loc	2 59 13                         @ ../Middlewares/CMSIS/DSP/Src/FastMathFunctions/arm_atan2_f32.c:59:13
	ldr	r0, [sp, #80]
.Ltmp245:
	.loc	2 59 5                          @ ../Middlewares/CMSIS/DSP/Src/FastMathFunctions/arm_atan2_f32.c:59:5
	cmp	r0, #9
	bgt	.LBB18_23
	b	.LBB18_22
.LBB18_22:                              @   in Loop: Header=BB18_21 Depth=1
.Ltmp246:
	.loc	2 61 15 is_stmt 1               @ ../Middlewares/CMSIS/DSP/Src/FastMathFunctions/arm_atan2_f32.c:61:15
	vldr	s0, [sp, #88]
	.loc	2 61 17 is_stmt 0               @ ../Middlewares/CMSIS/DSP/Src/FastMathFunctions/arm_atan2_f32.c:61:17
	vldr	s4, [sp, #84]
	.loc	2 61 45                         @ ../Middlewares/CMSIS/DSP/Src/FastMathFunctions/arm_atan2_f32.c:61:45
	ldr	r0, [sp, #80]
	.loc	2 61 44                         @ ../Middlewares/CMSIS/DSP/Src/FastMathFunctions/arm_atan2_f32.c:61:44
	rsb.w	r1, r0, #9
	.loc	2 61 23                         @ ../Middlewares/CMSIS/DSP/Src/FastMathFunctions/arm_atan2_f32.c:61:23
	movw	r0, :lower16:atan2_coefs_f32
	movt	r0, :upper16:atan2_coefs_f32
	add.w	r0, r0, r1, lsl #2
	vldr	s2, [r0]
	.loc	2 61 21                         @ ../Middlewares/CMSIS/DSP/Src/FastMathFunctions/arm_atan2_f32.c:61:21
	vmul.f32	s0, s0, s4
	vadd.f32	s0, s0, s2
	.loc	2 61 13                         @ ../Middlewares/CMSIS/DSP/Src/FastMathFunctions/arm_atan2_f32.c:61:13
	vstr	s0, [sp, #84]
.Ltmp247:
	.loc	2 59 19 is_stmt 1               @ ../Middlewares/CMSIS/DSP/Src/FastMathFunctions/arm_atan2_f32.c:59:19
	ldr	r0, [sp, #80]
	adds	r0, #1
	str	r0, [sp, #80]
	.loc	2 59 5 is_stmt 0                @ ../Middlewares/CMSIS/DSP/Src/FastMathFunctions/arm_atan2_f32.c:59:5
	b	.LBB18_21
.Ltmp248:
.LBB18_23:                              @ %arm_atan_limited_f32.exit4
	.loc	2 65 12 is_stmt 1               @ ../Middlewares/CMSIS/DSP/Src/FastMathFunctions/arm_atan2_f32.c:65:12
	vldr	s2, [sp, #84]
	vldr	s0, .LCPI18_0
.Ltmp249:
	.loc	2 82 39                         @ ../Middlewares/CMSIS/DSP/Src/FastMathFunctions/arm_atan2_f32.c:82:39
	vsub.f32	s0, s0, s2
	.loc	2 82 11 is_stmt 0               @ ../Middlewares/CMSIS/DSP/Src/FastMathFunctions/arm_atan2_f32.c:82:11
	vstr	s0, [sp, #32]
	.loc	2 83 4 is_stmt 1                @ ../Middlewares/CMSIS/DSP/Src/FastMathFunctions/arm_atan2_f32.c:83:4
	b	.LBB18_28
.Ltmp250:
.LBB18_24:
	.loc	2 86 34                         @ ../Middlewares/CMSIS/DSP/Src/FastMathFunctions/arm_atan2_f32.c:86:34
	ldr	r0, [sp, #40]
	str	r0, [sp, #100]
	movw	r0, #37541
	movt	r0, #48388
.Ltmp251:
	.loc	2 57 15                         @ ../Middlewares/CMSIS/DSP/Src/FastMathFunctions/arm_atan2_f32.c:57:15
	str	r0, [sp, #96]
	movs	r0, #1
	.loc	2 58 9                          @ ../Middlewares/CMSIS/DSP/Src/FastMathFunctions/arm_atan2_f32.c:58:9
	str	r0, [sp, #92]
.Ltmp252:
	.loc	2 59 10                         @ ../Middlewares/CMSIS/DSP/Src/FastMathFunctions/arm_atan2_f32.c:59:10
	str	r0, [sp, #92]
	.loc	2 59 9 is_stmt 0                @ ../Middlewares/CMSIS/DSP/Src/FastMathFunctions/arm_atan2_f32.c:59:9
	b	.LBB18_25
.LBB18_25:                              @ =>This Inner Loop Header: Depth=1
.Ltmp253:
	.loc	2 59 13                         @ ../Middlewares/CMSIS/DSP/Src/FastMathFunctions/arm_atan2_f32.c:59:13
	ldr	r0, [sp, #92]
.Ltmp254:
	.loc	2 59 5                          @ ../Middlewares/CMSIS/DSP/Src/FastMathFunctions/arm_atan2_f32.c:59:5
	cmp	r0, #9
	bgt	.LBB18_27
	b	.LBB18_26
.LBB18_26:                              @   in Loop: Header=BB18_25 Depth=1
.Ltmp255:
	.loc	2 61 15 is_stmt 1               @ ../Middlewares/CMSIS/DSP/Src/FastMathFunctions/arm_atan2_f32.c:61:15
	vldr	s0, [sp, #100]
	.loc	2 61 17 is_stmt 0               @ ../Middlewares/CMSIS/DSP/Src/FastMathFunctions/arm_atan2_f32.c:61:17
	vldr	s4, [sp, #96]
	.loc	2 61 45                         @ ../Middlewares/CMSIS/DSP/Src/FastMathFunctions/arm_atan2_f32.c:61:45
	ldr	r0, [sp, #92]
	.loc	2 61 44                         @ ../Middlewares/CMSIS/DSP/Src/FastMathFunctions/arm_atan2_f32.c:61:44
	rsb.w	r1, r0, #9
	.loc	2 61 23                         @ ../Middlewares/CMSIS/DSP/Src/FastMathFunctions/arm_atan2_f32.c:61:23
	movw	r0, :lower16:atan2_coefs_f32
	movt	r0, :upper16:atan2_coefs_f32
	add.w	r0, r0, r1, lsl #2
	vldr	s2, [r0]
	.loc	2 61 21                         @ ../Middlewares/CMSIS/DSP/Src/FastMathFunctions/arm_atan2_f32.c:61:21
	vmul.f32	s0, s0, s4
	vadd.f32	s0, s0, s2
	.loc	2 61 13                         @ ../Middlewares/CMSIS/DSP/Src/FastMathFunctions/arm_atan2_f32.c:61:13
	vstr	s0, [sp, #96]
.Ltmp256:
	.loc	2 59 19 is_stmt 1               @ ../Middlewares/CMSIS/DSP/Src/FastMathFunctions/arm_atan2_f32.c:59:19
	ldr	r0, [sp, #92]
	adds	r0, #1
	str	r0, [sp, #92]
	.loc	2 59 5 is_stmt 0                @ ../Middlewares/CMSIS/DSP/Src/FastMathFunctions/arm_atan2_f32.c:59:5
	b	.LBB18_25
.Ltmp257:
.LBB18_27:                              @ %arm_atan_limited_f32.exit5
	.loc	2 65 12 is_stmt 1               @ ../Middlewares/CMSIS/DSP/Src/FastMathFunctions/arm_atan2_f32.c:65:12
	vldr	s2, [sp, #96]
.Ltmp258:
	.loc	2 86 10                         @ ../Middlewares/CMSIS/DSP/Src/FastMathFunctions/arm_atan2_f32.c:86:10
	vldr	s0, [sp, #32]
	vadd.f32	s0, s0, s2
	vstr	s0, [sp, #32]
	b	.LBB18_28
.Ltmp259:
.LBB18_28:
	.loc	2 90 8                          @ ../Middlewares/CMSIS/DSP/Src/FastMathFunctions/arm_atan2_f32.c:90:8
	ldr	r0, [sp, #36]
.Ltmp260:
	.loc	2 90 8 is_stmt 0                @ ../Middlewares/CMSIS/DSP/Src/FastMathFunctions/arm_atan2_f32.c:90:8
	cbz	r0, .LBB18_30
	b	.LBB18_29
.LBB18_29:
.Ltmp261:
	.loc	2 92 13 is_stmt 1               @ ../Middlewares/CMSIS/DSP/Src/FastMathFunctions/arm_atan2_f32.c:92:13
	vldr	s0, [sp, #32]
	.loc	2 92 12 is_stmt 0               @ ../Middlewares/CMSIS/DSP/Src/FastMathFunctions/arm_atan2_f32.c:92:12
	vneg.f32	s0, s0
	.loc	2 92 10                         @ ../Middlewares/CMSIS/DSP/Src/FastMathFunctions/arm_atan2_f32.c:92:10
	vstr	s0, [sp, #32]
	.loc	2 93 4 is_stmt 1                @ ../Middlewares/CMSIS/DSP/Src/FastMathFunctions/arm_atan2_f32.c:93:4
	b	.LBB18_30
.Ltmp262:
.LBB18_30:                              @ %arm_atan_f32.exit1
	.loc	2 95 11                         @ ../Middlewares/CMSIS/DSP/Src/FastMathFunctions/arm_atan2_f32.c:95:11
	vldr	s0, [sp, #32]
	vldr	s2, .LCPI18_2
.Ltmp263:
	.loc	2 143 38                        @ ../Middlewares/CMSIS/DSP/Src/FastMathFunctions/arm_atan2_f32.c:143:38
	vadd.f32	s0, s0, s2
	.loc	2 143 13 is_stmt 0              @ ../Middlewares/CMSIS/DSP/Src/FastMathFunctions/arm_atan2_f32.c:143:13
	ldr	r0, [sp, #4]
	.loc	2 143 19                        @ ../Middlewares/CMSIS/DSP/Src/FastMathFunctions/arm_atan2_f32.c:143:19
	vstr	s0, [r0]
	.loc	2 144 9 is_stmt 1               @ ../Middlewares/CMSIS/DSP/Src/FastMathFunctions/arm_atan2_f32.c:144:9
	b	.LBB18_54
.Ltmp264:
.LBB18_31:
	.loc	2 145 18                        @ ../Middlewares/CMSIS/DSP/Src/FastMathFunctions/arm_atan2_f32.c:145:18
	vldr	s0, [sp, #12]
.Ltmp265:
	.loc	2 145 18 is_stmt 0              @ ../Middlewares/CMSIS/DSP/Src/FastMathFunctions/arm_atan2_f32.c:145:18
	vcmp.f32	s0, #0
	vmrs	APSR_nzcv, fpscr
	bge.w	.LBB18_46
	b	.LBB18_32
.LBB18_32:
.Ltmp266:
	.loc	2 147 33 is_stmt 1              @ ../Middlewares/CMSIS/DSP/Src/FastMathFunctions/arm_atan2_f32.c:147:33
	vldr	s0, [sp, #12]
	.loc	2 147 35 is_stmt 0              @ ../Middlewares/CMSIS/DSP/Src/FastMathFunctions/arm_atan2_f32.c:147:35
	vldr	s2, [sp, #8]
	.loc	2 147 34                        @ ../Middlewares/CMSIS/DSP/Src/FastMathFunctions/arm_atan2_f32.c:147:34
	vdiv.f32	s0, s0, s2
	vstr	s0, [sp, #28]
	movs	r0, #0
.Ltmp267:
	.loc	2 70 8 is_stmt 1                @ ../Middlewares/CMSIS/DSP/Src/FastMathFunctions/arm_atan2_f32.c:70:8
	str	r0, [sp, #24]
	.loc	2 71 14                         @ ../Middlewares/CMSIS/DSP/Src/FastMathFunctions/arm_atan2_f32.c:71:14
	str	r0, [sp, #20]
.Ltmp268:
	.loc	2 73 8                          @ ../Middlewares/CMSIS/DSP/Src/FastMathFunctions/arm_atan2_f32.c:73:8
	vldr	s0, [sp, #28]
.Ltmp269:
	.loc	2 73 8 is_stmt 0                @ ../Middlewares/CMSIS/DSP/Src/FastMathFunctions/arm_atan2_f32.c:73:8
	vcmp.f32	s0, #0
	vmrs	APSR_nzcv, fpscr
	bge	.LBB18_34
	b	.LBB18_33
.LBB18_33:
	.loc	2 0 8                           @ ../Middlewares/CMSIS/DSP/Src/FastMathFunctions/arm_atan2_f32.c:0:8
	movs	r0, #1
.Ltmp270:
	.loc	2 75 11 is_stmt 1               @ ../Middlewares/CMSIS/DSP/Src/FastMathFunctions/arm_atan2_f32.c:75:11
	str	r0, [sp, #24]
	.loc	2 76 10                         @ ../Middlewares/CMSIS/DSP/Src/FastMathFunctions/arm_atan2_f32.c:76:10
	vldr	s0, [sp, #28]
	.loc	2 76 9 is_stmt 0                @ ../Middlewares/CMSIS/DSP/Src/FastMathFunctions/arm_atan2_f32.c:76:9
	vneg.f32	s0, s0
	.loc	2 76 8                          @ ../Middlewares/CMSIS/DSP/Src/FastMathFunctions/arm_atan2_f32.c:76:8
	vstr	s0, [sp, #28]
	.loc	2 77 4 is_stmt 1                @ ../Middlewares/CMSIS/DSP/Src/FastMathFunctions/arm_atan2_f32.c:77:4
	b	.LBB18_34
.Ltmp271:
.LBB18_34:
	.loc	2 79 8                          @ ../Middlewares/CMSIS/DSP/Src/FastMathFunctions/arm_atan2_f32.c:79:8
	vldr	s0, [sp, #28]
	vmov.f32	s2, #1.000000e+00
.Ltmp272:
	.loc	2 79 8 is_stmt 0                @ ../Middlewares/CMSIS/DSP/Src/FastMathFunctions/arm_atan2_f32.c:79:8
	vcmp.f32	s0, s2
	vmrs	APSR_nzcv, fpscr
	ble	.LBB18_39
	b	.LBB18_35
.LBB18_35:
.Ltmp273:
	.loc	2 81 18 is_stmt 1               @ ../Middlewares/CMSIS/DSP/Src/FastMathFunctions/arm_atan2_f32.c:81:18
	vldr	s2, [sp, #28]
	vmov.f32	s0, #1.000000e+00
	.loc	2 81 16 is_stmt 0               @ ../Middlewares/CMSIS/DSP/Src/FastMathFunctions/arm_atan2_f32.c:81:16
	vdiv.f32	s0, s0, s2
	.loc	2 81 9                          @ ../Middlewares/CMSIS/DSP/Src/FastMathFunctions/arm_atan2_f32.c:81:9
	vstr	s0, [sp, #28]
	.loc	2 82 62 is_stmt 1               @ ../Middlewares/CMSIS/DSP/Src/FastMathFunctions/arm_atan2_f32.c:82:62
	ldr	r0, [sp, #28]
	str	r0, [sp, #112]
	movw	r0, #37541
	movt	r0, #48388
.Ltmp274:
	.loc	2 57 15                         @ ../Middlewares/CMSIS/DSP/Src/FastMathFunctions/arm_atan2_f32.c:57:15
	str	r0, [sp, #108]
	movs	r0, #1
	.loc	2 58 9                          @ ../Middlewares/CMSIS/DSP/Src/FastMathFunctions/arm_atan2_f32.c:58:9
	str	r0, [sp, #104]
.Ltmp275:
	.loc	2 59 10                         @ ../Middlewares/CMSIS/DSP/Src/FastMathFunctions/arm_atan2_f32.c:59:10
	str	r0, [sp, #104]
	.loc	2 59 9 is_stmt 0                @ ../Middlewares/CMSIS/DSP/Src/FastMathFunctions/arm_atan2_f32.c:59:9
	b	.LBB18_36
.LBB18_36:                              @ =>This Inner Loop Header: Depth=1
.Ltmp276:
	.loc	2 59 13                         @ ../Middlewares/CMSIS/DSP/Src/FastMathFunctions/arm_atan2_f32.c:59:13
	ldr	r0, [sp, #104]
.Ltmp277:
	.loc	2 59 5                          @ ../Middlewares/CMSIS/DSP/Src/FastMathFunctions/arm_atan2_f32.c:59:5
	cmp	r0, #9
	bgt	.LBB18_38
	b	.LBB18_37
.LBB18_37:                              @   in Loop: Header=BB18_36 Depth=1
.Ltmp278:
	.loc	2 61 15 is_stmt 1               @ ../Middlewares/CMSIS/DSP/Src/FastMathFunctions/arm_atan2_f32.c:61:15
	vldr	s0, [sp, #112]
	.loc	2 61 17 is_stmt 0               @ ../Middlewares/CMSIS/DSP/Src/FastMathFunctions/arm_atan2_f32.c:61:17
	vldr	s4, [sp, #108]
	.loc	2 61 45                         @ ../Middlewares/CMSIS/DSP/Src/FastMathFunctions/arm_atan2_f32.c:61:45
	ldr	r0, [sp, #104]
	.loc	2 61 44                         @ ../Middlewares/CMSIS/DSP/Src/FastMathFunctions/arm_atan2_f32.c:61:44
	rsb.w	r1, r0, #9
	.loc	2 61 23                         @ ../Middlewares/CMSIS/DSP/Src/FastMathFunctions/arm_atan2_f32.c:61:23
	movw	r0, :lower16:atan2_coefs_f32
	movt	r0, :upper16:atan2_coefs_f32
	add.w	r0, r0, r1, lsl #2
	vldr	s2, [r0]
	.loc	2 61 21                         @ ../Middlewares/CMSIS/DSP/Src/FastMathFunctions/arm_atan2_f32.c:61:21
	vmul.f32	s0, s0, s4
	vadd.f32	s0, s0, s2
	.loc	2 61 13                         @ ../Middlewares/CMSIS/DSP/Src/FastMathFunctions/arm_atan2_f32.c:61:13
	vstr	s0, [sp, #108]
.Ltmp279:
	.loc	2 59 19 is_stmt 1               @ ../Middlewares/CMSIS/DSP/Src/FastMathFunctions/arm_atan2_f32.c:59:19
	ldr	r0, [sp, #104]
	adds	r0, #1
	str	r0, [sp, #104]
	.loc	2 59 5 is_stmt 0                @ ../Middlewares/CMSIS/DSP/Src/FastMathFunctions/arm_atan2_f32.c:59:5
	b	.LBB18_36
.Ltmp280:
.LBB18_38:                              @ %arm_atan_limited_f32.exit6
	.loc	2 65 12 is_stmt 1               @ ../Middlewares/CMSIS/DSP/Src/FastMathFunctions/arm_atan2_f32.c:65:12
	vldr	s2, [sp, #108]
	vldr	s0, .LCPI18_0
.Ltmp281:
	.loc	2 82 39                         @ ../Middlewares/CMSIS/DSP/Src/FastMathFunctions/arm_atan2_f32.c:82:39
	vsub.f32	s0, s0, s2
	.loc	2 82 11 is_stmt 0               @ ../Middlewares/CMSIS/DSP/Src/FastMathFunctions/arm_atan2_f32.c:82:11
	vstr	s0, [sp, #20]
	.loc	2 83 4 is_stmt 1                @ ../Middlewares/CMSIS/DSP/Src/FastMathFunctions/arm_atan2_f32.c:83:4
	b	.LBB18_43
.Ltmp282:
.LBB18_39:
	.loc	2 86 34                         @ ../Middlewares/CMSIS/DSP/Src/FastMathFunctions/arm_atan2_f32.c:86:34
	ldr	r0, [sp, #28]
	str	r0, [sp, #124]
	movw	r0, #37541
	movt	r0, #48388
.Ltmp283:
	.loc	2 57 15                         @ ../Middlewares/CMSIS/DSP/Src/FastMathFunctions/arm_atan2_f32.c:57:15
	str	r0, [sp, #120]
	movs	r0, #1
	.loc	2 58 9                          @ ../Middlewares/CMSIS/DSP/Src/FastMathFunctions/arm_atan2_f32.c:58:9
	str	r0, [sp, #116]
.Ltmp284:
	.loc	2 59 10                         @ ../Middlewares/CMSIS/DSP/Src/FastMathFunctions/arm_atan2_f32.c:59:10
	str	r0, [sp, #116]
	.loc	2 59 9 is_stmt 0                @ ../Middlewares/CMSIS/DSP/Src/FastMathFunctions/arm_atan2_f32.c:59:9
	b	.LBB18_40
.LBB18_40:                              @ =>This Inner Loop Header: Depth=1
.Ltmp285:
	.loc	2 59 13                         @ ../Middlewares/CMSIS/DSP/Src/FastMathFunctions/arm_atan2_f32.c:59:13
	ldr	r0, [sp, #116]
.Ltmp286:
	.loc	2 59 5                          @ ../Middlewares/CMSIS/DSP/Src/FastMathFunctions/arm_atan2_f32.c:59:5
	cmp	r0, #9
	bgt	.LBB18_42
	b	.LBB18_41
.LBB18_41:                              @   in Loop: Header=BB18_40 Depth=1
.Ltmp287:
	.loc	2 61 15 is_stmt 1               @ ../Middlewares/CMSIS/DSP/Src/FastMathFunctions/arm_atan2_f32.c:61:15
	vldr	s0, [sp, #124]
	.loc	2 61 17 is_stmt 0               @ ../Middlewares/CMSIS/DSP/Src/FastMathFunctions/arm_atan2_f32.c:61:17
	vldr	s4, [sp, #120]
	.loc	2 61 45                         @ ../Middlewares/CMSIS/DSP/Src/FastMathFunctions/arm_atan2_f32.c:61:45
	ldr	r0, [sp, #116]
	.loc	2 61 44                         @ ../Middlewares/CMSIS/DSP/Src/FastMathFunctions/arm_atan2_f32.c:61:44
	rsb.w	r1, r0, #9
	.loc	2 61 23                         @ ../Middlewares/CMSIS/DSP/Src/FastMathFunctions/arm_atan2_f32.c:61:23
	movw	r0, :lower16:atan2_coefs_f32
	movt	r0, :upper16:atan2_coefs_f32
	add.w	r0, r0, r1, lsl #2
	vldr	s2, [r0]
	.loc	2 61 21                         @ ../Middlewares/CMSIS/DSP/Src/FastMathFunctions/arm_atan2_f32.c:61:21
	vmul.f32	s0, s0, s4
	vadd.f32	s0, s0, s2
	.loc	2 61 13                         @ ../Middlewares/CMSIS/DSP/Src/FastMathFunctions/arm_atan2_f32.c:61:13
	vstr	s0, [sp, #120]
.Ltmp288:
	.loc	2 59 19 is_stmt 1               @ ../Middlewares/CMSIS/DSP/Src/FastMathFunctions/arm_atan2_f32.c:59:19
	ldr	r0, [sp, #116]
	adds	r0, #1
	str	r0, [sp, #116]
	.loc	2 59 5 is_stmt 0                @ ../Middlewares/CMSIS/DSP/Src/FastMathFunctions/arm_atan2_f32.c:59:5
	b	.LBB18_40
.Ltmp289:
.LBB18_42:                              @ %arm_atan_limited_f32.exit7
	.loc	2 65 12 is_stmt 1               @ ../Middlewares/CMSIS/DSP/Src/FastMathFunctions/arm_atan2_f32.c:65:12
	vldr	s2, [sp, #120]
.Ltmp290:
	.loc	2 86 10                         @ ../Middlewares/CMSIS/DSP/Src/FastMathFunctions/arm_atan2_f32.c:86:10
	vldr	s0, [sp, #20]
	vadd.f32	s0, s0, s2
	vstr	s0, [sp, #20]
	b	.LBB18_43
.Ltmp291:
.LBB18_43:
	.loc	2 90 8                          @ ../Middlewares/CMSIS/DSP/Src/FastMathFunctions/arm_atan2_f32.c:90:8
	ldr	r0, [sp, #24]
.Ltmp292:
	.loc	2 90 8 is_stmt 0                @ ../Middlewares/CMSIS/DSP/Src/FastMathFunctions/arm_atan2_f32.c:90:8
	cbz	r0, .LBB18_45
	b	.LBB18_44
.LBB18_44:
.Ltmp293:
	.loc	2 92 13 is_stmt 1               @ ../Middlewares/CMSIS/DSP/Src/FastMathFunctions/arm_atan2_f32.c:92:13
	vldr	s0, [sp, #20]
	.loc	2 92 12 is_stmt 0               @ ../Middlewares/CMSIS/DSP/Src/FastMathFunctions/arm_atan2_f32.c:92:12
	vneg.f32	s0, s0
	.loc	2 92 10                         @ ../Middlewares/CMSIS/DSP/Src/FastMathFunctions/arm_atan2_f32.c:92:10
	vstr	s0, [sp, #20]
	.loc	2 93 4 is_stmt 1                @ ../Middlewares/CMSIS/DSP/Src/FastMathFunctions/arm_atan2_f32.c:93:4
	b	.LBB18_45
.Ltmp294:
.LBB18_45:                              @ %arm_atan_f32.exit
	.loc	2 95 11                         @ ../Middlewares/CMSIS/DSP/Src/FastMathFunctions/arm_atan2_f32.c:95:11
	vldr	s0, [sp, #20]
	vldr	s2, .LCPI18_1
.Ltmp295:
	.loc	2 147 38                        @ ../Middlewares/CMSIS/DSP/Src/FastMathFunctions/arm_atan2_f32.c:147:38
	vadd.f32	s0, s0, s2
	.loc	2 147 13 is_stmt 0              @ ../Middlewares/CMSIS/DSP/Src/FastMathFunctions/arm_atan2_f32.c:147:13
	ldr	r0, [sp, #4]
	.loc	2 147 19                        @ ../Middlewares/CMSIS/DSP/Src/FastMathFunctions/arm_atan2_f32.c:147:19
	vstr	s0, [r0]
	.loc	2 148 9 is_stmt 1               @ ../Middlewares/CMSIS/DSP/Src/FastMathFunctions/arm_atan2_f32.c:148:9
	b	.LBB18_53
.Ltmp296:
.LBB18_46:
	.loc	2 0 9 is_stmt 0                 @ ../Middlewares/CMSIS/DSP/Src/FastMathFunctions/arm_atan2_f32.c:0:9
	movs	r0, #0
.Ltmp297:
	.loc	2 151 17 is_stmt 1              @ ../Middlewares/CMSIS/DSP/Src/FastMathFunctions/arm_atan2_f32.c:151:17
	cbnz	r0, .LBB18_49
	b	.LBB18_47
.LBB18_47:
.Ltmp298:
	.loc	2 151 49 is_stmt 0              @ ../Middlewares/CMSIS/DSP/Src/FastMathFunctions/arm_atan2_f32.c:151:49
	ldr	r0, [sp, #12]
	bl	__ARM_signbitf
	.loc	2 151 18                        @ ../Middlewares/CMSIS/DSP/Src/FastMathFunctions/arm_atan2_f32.c:151:18
	cbnz	r0, .LBB18_50
	b	.LBB18_51
	.p2align	2
@ %bb.48:
	.loc	2 0 18                          @ ../Middlewares/CMSIS/DSP/Src/FastMathFunctions/arm_atan2_f32.c:0:18
.LCPI18_3:
	.long	0x3fc90fdb                      @ float 1.57079637
	.p2align	1
.LBB18_49:
	.loc	2 151 83                        @ ../Middlewares/CMSIS/DSP/Src/FastMathFunctions/arm_atan2_f32.c:151:83
	ldr	r0, [sp, #12]
	bl	__aeabi_f2d
	vmov	d0, r0, r1
	.loc	2 151 69                        @ ../Middlewares/CMSIS/DSP/Src/FastMathFunctions/arm_atan2_f32.c:151:69
	vmov	r0, r1, d0
	bl	__ARM_signbit
.Ltmp299:
	.loc	2 151 17                        @ ../Middlewares/CMSIS/DSP/Src/FastMathFunctions/arm_atan2_f32.c:151:17
	cbz	r0, .LBB18_51
	b	.LBB18_50
.LBB18_50:
.Ltmp300:
	.loc	2 153 17 is_stmt 1              @ ../Middlewares/CMSIS/DSP/Src/FastMathFunctions/arm_atan2_f32.c:153:17
	ldr	r1, [sp, #4]
	movw	r0, #4059
	movt	r0, #49225
	.loc	2 153 23 is_stmt 0              @ ../Middlewares/CMSIS/DSP/Src/FastMathFunctions/arm_atan2_f32.c:153:23
	str	r0, [r1]
	.loc	2 154 13 is_stmt 1              @ ../Middlewares/CMSIS/DSP/Src/FastMathFunctions/arm_atan2_f32.c:154:13
	b	.LBB18_52
.Ltmp301:
.LBB18_51:
	.loc	2 157 17                        @ ../Middlewares/CMSIS/DSP/Src/FastMathFunctions/arm_atan2_f32.c:157:17
	ldr	r1, [sp, #4]
	movw	r0, #4059
	movt	r0, #16457
	.loc	2 157 23 is_stmt 0              @ ../Middlewares/CMSIS/DSP/Src/FastMathFunctions/arm_atan2_f32.c:157:23
	str	r0, [r1]
	b	.LBB18_52
.Ltmp302:
.LBB18_52:
	.loc	2 0 23                          @ ../Middlewares/CMSIS/DSP/Src/FastMathFunctions/arm_atan2_f32.c:0:23
	b	.LBB18_53
.LBB18_53:
	b	.LBB18_54
.LBB18_54:
	movs	r0, #0
	.loc	2 160 9 is_stmt 1               @ ../Middlewares/CMSIS/DSP/Src/FastMathFunctions/arm_atan2_f32.c:160:9
	strb.w	r0, [sp, #19]
	b	.LBB18_62
.Ltmp303:
.LBB18_55:
	.loc	2 162 9                         @ ../Middlewares/CMSIS/DSP/Src/FastMathFunctions/arm_atan2_f32.c:162:9
	vldr	s0, [sp, #8]
.Ltmp304:
	.loc	2 162 9 is_stmt 0               @ ../Middlewares/CMSIS/DSP/Src/FastMathFunctions/arm_atan2_f32.c:162:9
	vcmp.f32	s0, #0
	vmrs	APSR_nzcv, fpscr
	bne	.LBB18_61
	b	.LBB18_56
.LBB18_56:
.Ltmp305:
	.loc	2 164 13 is_stmt 1              @ ../Middlewares/CMSIS/DSP/Src/FastMathFunctions/arm_atan2_f32.c:164:13
	vldr	s0, [sp, #12]
.Ltmp306:
	.loc	2 164 13 is_stmt 0              @ ../Middlewares/CMSIS/DSP/Src/FastMathFunctions/arm_atan2_f32.c:164:13
	vcmp.f32	s0, #0
	vmrs	APSR_nzcv, fpscr
	ble	.LBB18_58
	b	.LBB18_57
.LBB18_57:
.Ltmp307:
	.loc	2 166 14 is_stmt 1              @ ../Middlewares/CMSIS/DSP/Src/FastMathFunctions/arm_atan2_f32.c:166:14
	ldr	r1, [sp, #4]
	movw	r0, #4059
	movt	r0, #16329
	.loc	2 166 20 is_stmt 0              @ ../Middlewares/CMSIS/DSP/Src/FastMathFunctions/arm_atan2_f32.c:166:20
	str	r0, [r1]
	movs	r0, #0
	.loc	2 167 13 is_stmt 1              @ ../Middlewares/CMSIS/DSP/Src/FastMathFunctions/arm_atan2_f32.c:167:13
	strb.w	r0, [sp, #19]
	b	.LBB18_62
.Ltmp308:
.LBB18_58:
	.loc	2 169 13                        @ ../Middlewares/CMSIS/DSP/Src/FastMathFunctions/arm_atan2_f32.c:169:13
	vldr	s0, [sp, #12]
.Ltmp309:
	.loc	2 169 13 is_stmt 0              @ ../Middlewares/CMSIS/DSP/Src/FastMathFunctions/arm_atan2_f32.c:169:13
	vcmp.f32	s0, #0
	vmrs	APSR_nzcv, fpscr
	bge	.LBB18_60
	b	.LBB18_59
.LBB18_59:
.Ltmp310:
	.loc	2 171 14 is_stmt 1              @ ../Middlewares/CMSIS/DSP/Src/FastMathFunctions/arm_atan2_f32.c:171:14
	ldr	r1, [sp, #4]
	movw	r0, #4059
	movt	r0, #49097
	.loc	2 171 20 is_stmt 0              @ ../Middlewares/CMSIS/DSP/Src/FastMathFunctions/arm_atan2_f32.c:171:20
	str	r0, [r1]
	movs	r0, #0
	.loc	2 172 13 is_stmt 1              @ ../Middlewares/CMSIS/DSP/Src/FastMathFunctions/arm_atan2_f32.c:172:13
	strb.w	r0, [sp, #19]
	b	.LBB18_62
.Ltmp311:
.LBB18_60:
	.loc	2 174 5                         @ ../Middlewares/CMSIS/DSP/Src/FastMathFunctions/arm_atan2_f32.c:174:5
	b	.LBB18_61
.Ltmp312:
.LBB18_61:
	.loc	2 0 5 is_stmt 0                 @ ../Middlewares/CMSIS/DSP/Src/FastMathFunctions/arm_atan2_f32.c:0:5
	movs	r0, #252
	.loc	2 177 5 is_stmt 1               @ ../Middlewares/CMSIS/DSP/Src/FastMathFunctions/arm_atan2_f32.c:177:5
	strb.w	r0, [sp, #19]
	b	.LBB18_62
.LBB18_62:
	.loc	2 179 1                         @ ../Middlewares/CMSIS/DSP/Src/FastMathFunctions/arm_atan2_f32.c:179:1
	ldrsb.w	r0, [sp, #19]
	add	sp, #128
	pop	{r7, pc}
.Ltmp313:
	.p2align	2
@ %bb.63:
	.loc	2 0 1 is_stmt 0                 @ ../Middlewares/CMSIS/DSP/Src/FastMathFunctions/arm_atan2_f32.c:0:1
.LCPI18_0:
	.long	0x3fc90fdb                      @ float 1.57079637
.LCPI18_1:
	.long	0xc0490fdb                      @ float -3.14159274
.LCPI18_2:
	.long	0x40490fdb                      @ float 3.14159274
.Lfunc_end18:
	.size	arm_atan2_f32, .Lfunc_end18-arm_atan2_f32
	.cfi_endproc
	.cantunwind
	.fnend
                                        @ -- End function
	.section	.text.__ARM_signbitf,"ax",%progbits
	.p2align	2                               @ -- Begin function __ARM_signbitf
	.type	__ARM_signbitf,%function
	.code	16                              @ @__ARM_signbitf
	.thumb_func
__ARM_signbitf:
.Lfunc_begin19:
	.file	23 "D:\\" "kevil\\ARM\\ARMCLANG\\Bin\\..\\include\\math.h"
	.loc	23 234 0 is_stmt 1              @ kevil\ARM\ARMCLANG\Bin\..\include\math.h:234:0
	.fnstart
	.cfi_startproc
@ %bb.0:
	.pad	#4
	sub	sp, #4
	.cfi_def_cfa_offset 4
	vmov	s0, r0
	str	r0, [sp]
.Ltmp314:
	.loc	23 235 13 prologue_end          @ kevil\ARM\ARMCLANG\Bin\..\include\math.h:235:13
	ldr	r0, [sp]
	.loc	23 235 34 is_stmt 0             @ kevil\ARM\ARMCLANG\Bin\..\include\math.h:235:34
	lsrs	r0, r0, #31
	.loc	23 235 5                        @ kevil\ARM\ARMCLANG\Bin\..\include\math.h:235:5
	add	sp, #4
	bx	lr
.Ltmp315:
.Lfunc_end19:
	.size	__ARM_signbitf, .Lfunc_end19-__ARM_signbitf
	.cfi_endproc
	.cantunwind
	.fnend
                                        @ -- End function
	.section	.text.__ARM_signbit,"ax",%progbits
	.p2align	2                               @ -- Begin function __ARM_signbit
	.type	__ARM_signbit,%function
	.code	16                              @ @__ARM_signbit
	.thumb_func
__ARM_signbit:
.Lfunc_begin20:
	.loc	23 238 0 is_stmt 1              @ kevil\ARM\ARMCLANG\Bin\..\include\math.h:238:0
	.fnstart
	.cfi_startproc
@ %bb.0:
	.pad	#8
	sub	sp, #8
	.cfi_def_cfa_offset 8
	vmov	d0, r0, r1
	vstr	d0, [sp]
.Ltmp316:
	.loc	23 239 13 prologue_end          @ kevil\ARM\ARMCLANG\Bin\..\include\math.h:239:13
	ldr	r0, [sp, #4]
	.loc	23 239 40 is_stmt 0             @ kevil\ARM\ARMCLANG\Bin\..\include\math.h:239:40
	lsrs	r0, r0, #31
	.loc	23 239 5                        @ kevil\ARM\ARMCLANG\Bin\..\include\math.h:239:5
	add	sp, #8
	bx	lr
.Ltmp317:
.Lfunc_end20:
	.size	__ARM_signbit, .Lfunc_end20-__ARM_signbit
	.cfi_endproc
	.cantunwind
	.fnend
                                        @ -- End function
	.section	.text.arm_atan2_q31,"ax",%progbits
	.hidden	arm_atan2_q31                   @ -- Begin function arm_atan2_q31
	.globl	arm_atan2_q31
	.p2align	2
	.type	arm_atan2_q31,%function
	.code	16                              @ @arm_atan2_q31
	.thumb_func
arm_atan2_q31:
.Lfunc_begin21:
	.loc	4 186 0 is_stmt 1               @ ../Middlewares/CMSIS/DSP/Src/FastMathFunctions/arm_atan2_q31.c:186:0
	.fnstart
	.cfi_startproc
@ %bb.0:
	.save	{r7, lr}
	push	{r7, lr}
	.cfi_def_cfa_offset 8
	.cfi_offset lr, -4
	.cfi_offset r7, -8
	.pad	#400
	sub	sp, #400
	.cfi_def_cfa_offset 408
	str	r0, [sp, #60]
	str	r1, [sp, #56]
	str	r2, [sp, #52]
.Ltmp318:
	.loc	4 187 9 prologue_end            @ ../Middlewares/CMSIS/DSP/Src/FastMathFunctions/arm_atan2_q31.c:187:9
	ldr	r0, [sp, #56]
.Ltmp319:
	.loc	4 187 9 is_stmt 0               @ ../Middlewares/CMSIS/DSP/Src/FastMathFunctions/arm_atan2_q31.c:187:9
	cmp	r0, #1
	blt.w	.LBB21_35
	b	.LBB21_1
.LBB21_1:
.Ltmp320:
	.loc	4 189 30 is_stmt 1              @ ../Middlewares/CMSIS/DSP/Src/FastMathFunctions/arm_atan2_q31.c:189:30
	ldr	r1, [sp, #60]
	.loc	4 189 32 is_stmt 0              @ ../Middlewares/CMSIS/DSP/Src/FastMathFunctions/arm_atan2_q31.c:189:32
	ldr	r0, [sp, #56]
	str	r1, [sp, #156]
	str	r0, [sp, #152]
	movs	r0, #0
.Ltmp321:
	.loc	4 78 8 is_stmt 1                @ ../Middlewares/CMSIS/DSP/Src/FastMathFunctions/arm_atan2_q31.c:78:8
	str	r0, [sp, #148]
	.loc	4 79 10                         @ ../Middlewares/CMSIS/DSP/Src/FastMathFunctions/arm_atan2_q31.c:79:10
	str	r0, [sp, #144]
.Ltmp322:
	.loc	4 81 8                          @ ../Middlewares/CMSIS/DSP/Src/FastMathFunctions/arm_atan2_q31.c:81:8
	ldr	r0, [sp, #156]
.Ltmp323:
	.loc	4 81 8 is_stmt 0                @ ../Middlewares/CMSIS/DSP/Src/FastMathFunctions/arm_atan2_q31.c:81:8
	cmp.w	r0, #-1
	bgt	.LBB21_3
	b	.LBB21_2
.LBB21_2:
.Ltmp324:
	.loc	4 85 31 is_stmt 1               @ ../Middlewares/CMSIS/DSP/Src/FastMathFunctions/arm_atan2_q31.c:85:31
	ldr	r1, [sp, #156]
	movs	r0, #0
	.loc	4 85 9 is_stmt 0                @ ../Middlewares/CMSIS/DSP/Src/FastMathFunctions/arm_atan2_q31.c:85:9
	qsub	r0, r0, r1
	.loc	4 85 7                          @ ../Middlewares/CMSIS/DSP/Src/FastMathFunctions/arm_atan2_q31.c:85:7
	str	r0, [sp, #156]
	.loc	4 90 13 is_stmt 1               @ ../Middlewares/CMSIS/DSP/Src/FastMathFunctions/arm_atan2_q31.c:90:13
	ldr	r0, [sp, #148]
	.loc	4 90 12 is_stmt 0               @ ../Middlewares/CMSIS/DSP/Src/FastMathFunctions/arm_atan2_q31.c:90:12
	rsb.w	r0, r0, #1
	.loc	4 90 10                         @ ../Middlewares/CMSIS/DSP/Src/FastMathFunctions/arm_atan2_q31.c:90:10
	str	r0, [sp, #148]
	.loc	4 91 4 is_stmt 1                @ ../Middlewares/CMSIS/DSP/Src/FastMathFunctions/arm_atan2_q31.c:91:4
	b	.LBB21_3
.Ltmp325:
.LBB21_3:
	.loc	4 93 8                          @ ../Middlewares/CMSIS/DSP/Src/FastMathFunctions/arm_atan2_q31.c:93:8
	ldr	r0, [sp, #152]
.Ltmp326:
	.loc	4 93 8 is_stmt 0                @ ../Middlewares/CMSIS/DSP/Src/FastMathFunctions/arm_atan2_q31.c:93:8
	cmp.w	r0, #-1
	bgt	.LBB21_5
	b	.LBB21_4
.LBB21_4:
.Ltmp327:
	.loc	4 95 16 is_stmt 1               @ ../Middlewares/CMSIS/DSP/Src/FastMathFunctions/arm_atan2_q31.c:95:16
	ldr	r0, [sp, #148]
	.loc	4 95 14 is_stmt 0               @ ../Middlewares/CMSIS/DSP/Src/FastMathFunctions/arm_atan2_q31.c:95:14
	rsb.w	r0, r0, #1
	.loc	4 95 11                         @ ../Middlewares/CMSIS/DSP/Src/FastMathFunctions/arm_atan2_q31.c:95:11
	str	r0, [sp, #148]
	.loc	4 99 31 is_stmt 1               @ ../Middlewares/CMSIS/DSP/Src/FastMathFunctions/arm_atan2_q31.c:99:31
	ldr	r1, [sp, #152]
	movs	r0, #0
	.loc	4 99 9 is_stmt 0                @ ../Middlewares/CMSIS/DSP/Src/FastMathFunctions/arm_atan2_q31.c:99:9
	qsub	r0, r0, r1
	.loc	4 99 7                          @ ../Middlewares/CMSIS/DSP/Src/FastMathFunctions/arm_atan2_q31.c:99:7
	str	r0, [sp, #152]
	.loc	4 103 4 is_stmt 1               @ ../Middlewares/CMSIS/DSP/Src/FastMathFunctions/arm_atan2_q31.c:103:4
	b	.LBB21_5
.Ltmp328:
.LBB21_5:
	.loc	4 105 8                         @ ../Middlewares/CMSIS/DSP/Src/FastMathFunctions/arm_atan2_q31.c:105:8
	ldr	r0, [sp, #156]
	.loc	4 105 12 is_stmt 0              @ ../Middlewares/CMSIS/DSP/Src/FastMathFunctions/arm_atan2_q31.c:105:12
	ldr	r1, [sp, #152]
.Ltmp329:
	.loc	4 105 8                         @ ../Middlewares/CMSIS/DSP/Src/FastMathFunctions/arm_atan2_q31.c:105:8
	cmp	r0, r1
	ble.w	.LBB21_19
	b	.LBB21_6
.LBB21_6:
.Ltmp330:
	.loc	4 110 20 is_stmt 1              @ ../Middlewares/CMSIS/DSP/Src/FastMathFunctions/arm_atan2_q31.c:110:20
	ldr	r0, [sp, #152]
	.loc	4 110 22 is_stmt 0              @ ../Middlewares/CMSIS/DSP/Src/FastMathFunctions/arm_atan2_q31.c:110:22
	ldr	r1, [sp, #156]
	add	r2, sp, #140
	add.w	r3, sp, #138
	.loc	4 110 5                         @ ../Middlewares/CMSIS/DSP/Src/FastMathFunctions/arm_atan2_q31.c:110:5
	bl	arm_divide_q31
.Ltmp331:
	.loc	4 113 9 is_stmt 1               @ ../Middlewares/CMSIS/DSP/Src/FastMathFunctions/arm_atan2_q31.c:113:9
	ldrsh.w	r0, [sp, #138]
.Ltmp332:
	.loc	4 113 9 is_stmt 0               @ ../Middlewares/CMSIS/DSP/Src/FastMathFunctions/arm_atan2_q31.c:113:9
	cmp	r0, #0
	bmi	.LBB21_11
	b	.LBB21_7
.LBB21_7:
.Ltmp333:
	.loc	4 115 42 is_stmt 1              @ ../Middlewares/CMSIS/DSP/Src/FastMathFunctions/arm_atan2_q31.c:115:42
	ldr	r1, [sp, #140]
	asrs	r0, r1, #31
	.loc	4 115 51 is_stmt 0              @ ../Middlewares/CMSIS/DSP/Src/FastMathFunctions/arm_atan2_q31.c:115:51
	ldrsh.w	r3, [sp, #138]
	.loc	4 115 48                        @ ../Middlewares/CMSIS/DSP/Src/FastMathFunctions/arm_atan2_q31.c:115:48
	lsl.w	r2, r0, r3
	rsb.w	r0, r3, #32
	lsr.w	r0, r1, r0
	orrs	r0, r2
	sub.w	r2, r3, #32
	lsl.w	r12, r1, r2
	cmp	r2, #0
	it	pl
	movpl	r0, r12
	lsls	r1, r3
	cmp	r2, #0
	it	pl
	movpl	r1, #0
	str	r1, [sp, #160]
	str	r0, [sp, #164]
.Ltmp334:
	.file	24 "D:\\horizon\\Horizon_Infantry (2)\\MDK-ARM" "../Middlewares/CMSIS/DSP/Inc\\dsp/none.h"
	.loc	24 139 22 is_stmt 1             @ ../Middlewares/CMSIS/DSP/Inc\dsp/none.h:139:22
	ldr	r1, [sp, #160]
	ldr	r0, [sp, #164]
	.loc	24 139 12 is_stmt 0             @ ../Middlewares/CMSIS/DSP/Inc\dsp/none.h:139:12
	cmp.w	r0, r1, asr #31
	beq	.LBB21_9
	b	.LBB21_8
.LBB21_8:
	.loc	24 140 32 is_stmt 1             @ ../Middlewares/CMSIS/DSP/Inc\dsp/none.h:140:32
	ldr	r1, [sp, #164]
	mvn	r0, #-2147483648
	.loc	24 140 20 is_stmt 0             @ ../Middlewares/CMSIS/DSP/Inc\dsp/none.h:140:20
	eor.w	r0, r0, r1, asr #31
	.loc	24 139 12 is_stmt 1             @ ../Middlewares/CMSIS/DSP/Inc\dsp/none.h:139:12
	str	r0, [sp, #48]                   @ 4-byte Spill
	b	.LBB21_10
.LBB21_9:
	.loc	24 140 54                       @ ../Middlewares/CMSIS/DSP/Inc\dsp/none.h:140:54
	ldr	r0, [sp, #160]
	.loc	24 139 12                       @ ../Middlewares/CMSIS/DSP/Inc\dsp/none.h:139:12
	str	r0, [sp, #48]                   @ 4-byte Spill
	b	.LBB21_10
.LBB21_10:                              @ %clip_q63_to_q31.exit
	ldr	r0, [sp, #48]                   @ 4-byte Reload
.Ltmp335:
	.loc	4 115 16                        @ ../Middlewares/CMSIS/DSP/Src/FastMathFunctions/arm_atan2_q31.c:115:16
	str	r0, [sp, #140]
	.loc	4 116 5                         @ ../Middlewares/CMSIS/DSP/Src/FastMathFunctions/arm_atan2_q31.c:116:5
	b	.LBB21_12
.Ltmp336:
.LBB21_11:
	.loc	4 119 19                        @ ../Middlewares/CMSIS/DSP/Src/FastMathFunctions/arm_atan2_q31.c:119:19
	ldr	r0, [sp, #140]
	.loc	4 119 29 is_stmt 0              @ ../Middlewares/CMSIS/DSP/Src/FastMathFunctions/arm_atan2_q31.c:119:29
	ldrsh.w	r1, [sp, #138]
	.loc	4 119 28                        @ ../Middlewares/CMSIS/DSP/Src/FastMathFunctions/arm_atan2_q31.c:119:28
	rsbs	r1, r1, #0
	.loc	4 119 25                        @ ../Middlewares/CMSIS/DSP/Src/FastMathFunctions/arm_atan2_q31.c:119:25
	asrs	r0, r1
	.loc	4 119 16                        @ ../Middlewares/CMSIS/DSP/Src/FastMathFunctions/arm_atan2_q31.c:119:16
	str	r0, [sp, #140]
	b	.LBB21_12
.Ltmp337:
.LBB21_12:
	.loc	4 122 45 is_stmt 1              @ ../Middlewares/CMSIS/DSP/Src/FastMathFunctions/arm_atan2_q31.c:122:45
	ldr	r0, [sp, #140]
	str	r0, [sp, #228]
	mov.w	r0, #-1
.Ltmp338:
	.loc	4 64 11                         @ ../Middlewares/CMSIS/DSP/Src/FastMathFunctions/arm_atan2_q31.c:64:11
	str	r0, [sp, #220]
	movw	r0, #49236
	movt	r0, #64987
	str	r0, [sp, #216]
	movs	r0, #1
	.loc	4 65 9                          @ ../Middlewares/CMSIS/DSP/Src/FastMathFunctions/arm_atan2_q31.c:65:9
	str	r0, [sp, #212]
.Ltmp339:
	.loc	4 66 10                         @ ../Middlewares/CMSIS/DSP/Src/FastMathFunctions/arm_atan2_q31.c:66:10
	str	r0, [sp, #212]
	.loc	4 66 9 is_stmt 0                @ ../Middlewares/CMSIS/DSP/Src/FastMathFunctions/arm_atan2_q31.c:66:9
	b	.LBB21_13
.LBB21_13:                              @ =>This Inner Loop Header: Depth=1
.Ltmp340:
	.loc	4 66 13                         @ ../Middlewares/CMSIS/DSP/Src/FastMathFunctions/arm_atan2_q31.c:66:13
	ldr	r0, [sp, #212]
.Ltmp341:
	.loc	4 66 5                          @ ../Middlewares/CMSIS/DSP/Src/FastMathFunctions/arm_atan2_q31.c:66:5
	cmp	r0, #12
	bgt	.LBB21_15
	b	.LBB21_14
.LBB21_14:                              @   in Loop: Header=BB21_13 Depth=1
.Ltmp342:
	.loc	4 68 24 is_stmt 1               @ ../Middlewares/CMSIS/DSP/Src/FastMathFunctions/arm_atan2_q31.c:68:24
	ldr	r3, [sp, #228]
	asrs	r1, r3, #31
	.loc	4 68 28 is_stmt 0               @ ../Middlewares/CMSIS/DSP/Src/FastMathFunctions/arm_atan2_q31.c:68:28
	ldr	r2, [sp, #216]
	ldr.w	r12, [sp, #220]
	.loc	4 68 26                         @ ../Middlewares/CMSIS/DSP/Src/FastMathFunctions/arm_atan2_q31.c:68:26
	umull	r0, lr, r3, r2
	mla	r3, r3, r12, lr
	mla	r1, r1, r2, r3
	.loc	4 68 33                         @ ../Middlewares/CMSIS/DSP/Src/FastMathFunctions/arm_atan2_q31.c:68:33
	lsrs	r0, r0, #31
	orr.w	r0, r0, r1, lsl #1
	asrs	r1, r1, #31
	.loc	4 68 13                         @ ../Middlewares/CMSIS/DSP/Src/FastMathFunctions/arm_atan2_q31.c:68:13
	str	r1, [sp, #220]
	str	r0, [sp, #216]
	.loc	4 69 15 is_stmt 1               @ ../Middlewares/CMSIS/DSP/Src/FastMathFunctions/arm_atan2_q31.c:69:15
	ldr	r1, [sp, #216]
	ldr	r0, [sp, #220]
	.loc	4 69 52 is_stmt 0               @ ../Middlewares/CMSIS/DSP/Src/FastMathFunctions/arm_atan2_q31.c:69:52
	ldr	r2, [sp, #212]
	.loc	4 69 51                         @ ../Middlewares/CMSIS/DSP/Src/FastMathFunctions/arm_atan2_q31.c:69:51
	rsb.w	r3, r2, #12
	.loc	4 69 30                         @ ../Middlewares/CMSIS/DSP/Src/FastMathFunctions/arm_atan2_q31.c:69:30
	movw	r2, :lower16:atan2_coefs_q31
	movt	r2, :upper16:atan2_coefs_q31
	ldr.w	r2, [r2, r3, lsl #2]
	.loc	4 69 19                         @ ../Middlewares/CMSIS/DSP/Src/FastMathFunctions/arm_atan2_q31.c:69:19
	adds	r1, r1, r2
	adc.w	r0, r0, r2, asr #31
	.loc	4 69 13                         @ ../Middlewares/CMSIS/DSP/Src/FastMathFunctions/arm_atan2_q31.c:69:13
	str	r1, [sp, #216]
	str	r0, [sp, #220]
.Ltmp343:
	.loc	4 66 19 is_stmt 1               @ ../Middlewares/CMSIS/DSP/Src/FastMathFunctions/arm_atan2_q31.c:66:19
	ldr	r0, [sp, #212]
	adds	r0, #1
	str	r0, [sp, #212]
	.loc	4 66 5 is_stmt 0                @ ../Middlewares/CMSIS/DSP/Src/FastMathFunctions/arm_atan2_q31.c:66:5
	b	.LBB21_13
.Ltmp344:
.LBB21_15:
	.loc	4 72 28 is_stmt 1               @ ../Middlewares/CMSIS/DSP/Src/FastMathFunctions/arm_atan2_q31.c:72:28
	ldr	r0, [sp, #216]
	ldr	r1, [sp, #220]
	.loc	4 72 31 is_stmt 0               @ ../Middlewares/CMSIS/DSP/Src/FastMathFunctions/arm_atan2_q31.c:72:31
	lsrs	r0, r0, #2
	orr.w	r0, r0, r1, lsl #30
	asrs	r1, r1, #2
	str	r1, [sp, #236]
	str	r0, [sp, #232]
.Ltmp345:
	.loc	24 139 22 is_stmt 1             @ ../Middlewares/CMSIS/DSP/Inc\dsp/none.h:139:22
	ldr	r1, [sp, #232]
	ldr	r0, [sp, #236]
	.loc	24 139 12 is_stmt 0             @ ../Middlewares/CMSIS/DSP/Inc\dsp/none.h:139:12
	cmp.w	r0, r1, asr #31
	beq	.LBB21_17
	b	.LBB21_16
.LBB21_16:
	.loc	24 140 32 is_stmt 1             @ ../Middlewares/CMSIS/DSP/Inc\dsp/none.h:140:32
	ldr	r1, [sp, #236]
	mvn	r0, #-2147483648
	.loc	24 140 20 is_stmt 0             @ ../Middlewares/CMSIS/DSP/Inc\dsp/none.h:140:20
	eor.w	r0, r0, r1, asr #31
	.loc	24 139 12 is_stmt 1             @ ../Middlewares/CMSIS/DSP/Inc\dsp/none.h:139:12
	str	r0, [sp, #44]                   @ 4-byte Spill
	b	.LBB21_18
.LBB21_17:
	.loc	24 140 54                       @ ../Middlewares/CMSIS/DSP/Inc\dsp/none.h:140:54
	ldr	r0, [sp, #232]
	.loc	24 139 12                       @ ../Middlewares/CMSIS/DSP/Inc\dsp/none.h:139:12
	str	r0, [sp, #44]                   @ 4-byte Spill
	b	.LBB21_18
.LBB21_18:                              @ %arm_atan_limited_q31.exit
	ldr	r1, [sp, #44]                   @ 4-byte Reload
	movw	r0, #63145
	movt	r0, #12867
.Ltmp346:
	.loc	4 122 22                        @ ../Middlewares/CMSIS/DSP/Src/FastMathFunctions/arm_atan2_q31.c:122:22
	subs	r0, r0, r1
	.loc	4 122 9 is_stmt 0               @ ../Middlewares/CMSIS/DSP/Src/FastMathFunctions/arm_atan2_q31.c:122:9
	str	r0, [sp, #144]
	.loc	4 124 4 is_stmt 1               @ ../Middlewares/CMSIS/DSP/Src/FastMathFunctions/arm_atan2_q31.c:124:4
	b	.LBB21_32
.Ltmp347:
.LBB21_19:
	.loc	4 130 20                        @ ../Middlewares/CMSIS/DSP/Src/FastMathFunctions/arm_atan2_q31.c:130:20
	ldr	r0, [sp, #156]
	.loc	4 130 22 is_stmt 0              @ ../Middlewares/CMSIS/DSP/Src/FastMathFunctions/arm_atan2_q31.c:130:22
	ldr	r1, [sp, #152]
	add	r2, sp, #132
	add.w	r3, sp, #130
	.loc	4 130 5                         @ ../Middlewares/CMSIS/DSP/Src/FastMathFunctions/arm_atan2_q31.c:130:5
	bl	arm_divide_q31
.Ltmp348:
	.loc	4 133 9 is_stmt 1               @ ../Middlewares/CMSIS/DSP/Src/FastMathFunctions/arm_atan2_q31.c:133:9
	ldrsh.w	r0, [sp, #130]
.Ltmp349:
	.loc	4 133 9 is_stmt 0               @ ../Middlewares/CMSIS/DSP/Src/FastMathFunctions/arm_atan2_q31.c:133:9
	cmp	r0, #0
	bmi	.LBB21_24
	b	.LBB21_20
.LBB21_20:
.Ltmp350:
	.loc	4 135 42 is_stmt 1              @ ../Middlewares/CMSIS/DSP/Src/FastMathFunctions/arm_atan2_q31.c:135:42
	ldr	r1, [sp, #132]
	asrs	r0, r1, #31
	.loc	4 135 51 is_stmt 0              @ ../Middlewares/CMSIS/DSP/Src/FastMathFunctions/arm_atan2_q31.c:135:51
	ldrsh.w	r3, [sp, #130]
	.loc	4 135 48                        @ ../Middlewares/CMSIS/DSP/Src/FastMathFunctions/arm_atan2_q31.c:135:48
	lsl.w	r2, r0, r3
	rsb.w	r0, r3, #32
	lsr.w	r0, r1, r0
	orrs	r0, r2
	sub.w	r2, r3, #32
	lsl.w	r12, r1, r2
	cmp	r2, #0
	it	pl
	movpl	r0, r12
	lsls	r1, r3
	cmp	r2, #0
	it	pl
	movpl	r1, #0
	str	r1, [sp, #168]
	str	r0, [sp, #172]
.Ltmp351:
	.loc	24 139 22 is_stmt 1             @ ../Middlewares/CMSIS/DSP/Inc\dsp/none.h:139:22
	ldr	r1, [sp, #168]
	ldr	r0, [sp, #172]
	.loc	24 139 12 is_stmt 0             @ ../Middlewares/CMSIS/DSP/Inc\dsp/none.h:139:12
	cmp.w	r0, r1, asr #31
	beq	.LBB21_22
	b	.LBB21_21
.LBB21_21:
	.loc	24 140 32 is_stmt 1             @ ../Middlewares/CMSIS/DSP/Inc\dsp/none.h:140:32
	ldr	r1, [sp, #172]
	mvn	r0, #-2147483648
	.loc	24 140 20 is_stmt 0             @ ../Middlewares/CMSIS/DSP/Inc\dsp/none.h:140:20
	eor.w	r0, r0, r1, asr #31
	.loc	24 139 12 is_stmt 1             @ ../Middlewares/CMSIS/DSP/Inc\dsp/none.h:139:12
	str	r0, [sp, #40]                   @ 4-byte Spill
	b	.LBB21_23
.LBB21_22:
	.loc	24 140 54                       @ ../Middlewares/CMSIS/DSP/Inc\dsp/none.h:140:54
	ldr	r0, [sp, #168]
	.loc	24 139 12                       @ ../Middlewares/CMSIS/DSP/Inc\dsp/none.h:139:12
	str	r0, [sp, #40]                   @ 4-byte Spill
	b	.LBB21_23
.LBB21_23:                              @ %clip_q63_to_q31.exit3
	ldr	r0, [sp, #40]                   @ 4-byte Reload
.Ltmp352:
	.loc	4 135 16                        @ ../Middlewares/CMSIS/DSP/Src/FastMathFunctions/arm_atan2_q31.c:135:16
	str	r0, [sp, #132]
	.loc	4 136 5                         @ ../Middlewares/CMSIS/DSP/Src/FastMathFunctions/arm_atan2_q31.c:136:5
	b	.LBB21_25
.Ltmp353:
.LBB21_24:
	.loc	4 139 19                        @ ../Middlewares/CMSIS/DSP/Src/FastMathFunctions/arm_atan2_q31.c:139:19
	ldr	r0, [sp, #132]
	.loc	4 139 29 is_stmt 0              @ ../Middlewares/CMSIS/DSP/Src/FastMathFunctions/arm_atan2_q31.c:139:29
	ldrsh.w	r1, [sp, #130]
	.loc	4 139 28                        @ ../Middlewares/CMSIS/DSP/Src/FastMathFunctions/arm_atan2_q31.c:139:28
	rsbs	r1, r1, #0
	.loc	4 139 25                        @ ../Middlewares/CMSIS/DSP/Src/FastMathFunctions/arm_atan2_q31.c:139:25
	asrs	r0, r1
	.loc	4 139 16                        @ ../Middlewares/CMSIS/DSP/Src/FastMathFunctions/arm_atan2_q31.c:139:16
	str	r0, [sp, #132]
	b	.LBB21_25
.Ltmp354:
.LBB21_25:
	.loc	4 143 32 is_stmt 1              @ ../Middlewares/CMSIS/DSP/Src/FastMathFunctions/arm_atan2_q31.c:143:32
	ldr	r0, [sp, #132]
	str	r0, [sp, #260]
	mov.w	r0, #-1
.Ltmp355:
	.loc	4 64 11                         @ ../Middlewares/CMSIS/DSP/Src/FastMathFunctions/arm_atan2_q31.c:64:11
	str	r0, [sp, #252]
	movw	r0, #49236
	movt	r0, #64987
	str	r0, [sp, #248]
	movs	r0, #1
	.loc	4 65 9                          @ ../Middlewares/CMSIS/DSP/Src/FastMathFunctions/arm_atan2_q31.c:65:9
	str	r0, [sp, #244]
.Ltmp356:
	.loc	4 66 10                         @ ../Middlewares/CMSIS/DSP/Src/FastMathFunctions/arm_atan2_q31.c:66:10
	str	r0, [sp, #244]
	.loc	4 66 9 is_stmt 0                @ ../Middlewares/CMSIS/DSP/Src/FastMathFunctions/arm_atan2_q31.c:66:9
	b	.LBB21_26
.LBB21_26:                              @ =>This Inner Loop Header: Depth=1
.Ltmp357:
	.loc	4 66 13                         @ ../Middlewares/CMSIS/DSP/Src/FastMathFunctions/arm_atan2_q31.c:66:13
	ldr	r0, [sp, #244]
.Ltmp358:
	.loc	4 66 5                          @ ../Middlewares/CMSIS/DSP/Src/FastMathFunctions/arm_atan2_q31.c:66:5
	cmp	r0, #12
	bgt	.LBB21_28
	b	.LBB21_27
.LBB21_27:                              @   in Loop: Header=BB21_26 Depth=1
.Ltmp359:
	.loc	4 68 24 is_stmt 1               @ ../Middlewares/CMSIS/DSP/Src/FastMathFunctions/arm_atan2_q31.c:68:24
	ldr	r3, [sp, #260]
	asrs	r1, r3, #31
	.loc	4 68 28 is_stmt 0               @ ../Middlewares/CMSIS/DSP/Src/FastMathFunctions/arm_atan2_q31.c:68:28
	ldr	r2, [sp, #248]
	ldr.w	r12, [sp, #252]
	.loc	4 68 26                         @ ../Middlewares/CMSIS/DSP/Src/FastMathFunctions/arm_atan2_q31.c:68:26
	umull	r0, lr, r3, r2
	mla	r3, r3, r12, lr
	mla	r1, r1, r2, r3
	.loc	4 68 33                         @ ../Middlewares/CMSIS/DSP/Src/FastMathFunctions/arm_atan2_q31.c:68:33
	lsrs	r0, r0, #31
	orr.w	r0, r0, r1, lsl #1
	asrs	r1, r1, #31
	.loc	4 68 13                         @ ../Middlewares/CMSIS/DSP/Src/FastMathFunctions/arm_atan2_q31.c:68:13
	str	r1, [sp, #252]
	str	r0, [sp, #248]
	.loc	4 69 15 is_stmt 1               @ ../Middlewares/CMSIS/DSP/Src/FastMathFunctions/arm_atan2_q31.c:69:15
	ldr	r1, [sp, #248]
	ldr	r0, [sp, #252]
	.loc	4 69 52 is_stmt 0               @ ../Middlewares/CMSIS/DSP/Src/FastMathFunctions/arm_atan2_q31.c:69:52
	ldr	r2, [sp, #244]
	.loc	4 69 51                         @ ../Middlewares/CMSIS/DSP/Src/FastMathFunctions/arm_atan2_q31.c:69:51
	rsb.w	r3, r2, #12
	.loc	4 69 30                         @ ../Middlewares/CMSIS/DSP/Src/FastMathFunctions/arm_atan2_q31.c:69:30
	movw	r2, :lower16:atan2_coefs_q31
	movt	r2, :upper16:atan2_coefs_q31
	ldr.w	r2, [r2, r3, lsl #2]
	.loc	4 69 19                         @ ../Middlewares/CMSIS/DSP/Src/FastMathFunctions/arm_atan2_q31.c:69:19
	adds	r1, r1, r2
	adc.w	r0, r0, r2, asr #31
	.loc	4 69 13                         @ ../Middlewares/CMSIS/DSP/Src/FastMathFunctions/arm_atan2_q31.c:69:13
	str	r1, [sp, #248]
	str	r0, [sp, #252]
.Ltmp360:
	.loc	4 66 19 is_stmt 1               @ ../Middlewares/CMSIS/DSP/Src/FastMathFunctions/arm_atan2_q31.c:66:19
	ldr	r0, [sp, #244]
	adds	r0, #1
	str	r0, [sp, #244]
	.loc	4 66 5 is_stmt 0                @ ../Middlewares/CMSIS/DSP/Src/FastMathFunctions/arm_atan2_q31.c:66:5
	b	.LBB21_26
.Ltmp361:
.LBB21_28:
	.loc	4 72 28 is_stmt 1               @ ../Middlewares/CMSIS/DSP/Src/FastMathFunctions/arm_atan2_q31.c:72:28
	ldr	r0, [sp, #248]
	ldr	r1, [sp, #252]
	.loc	4 72 31 is_stmt 0               @ ../Middlewares/CMSIS/DSP/Src/FastMathFunctions/arm_atan2_q31.c:72:31
	lsrs	r0, r0, #2
	orr.w	r0, r0, r1, lsl #30
	asrs	r1, r1, #2
	str	r1, [sp, #268]
	str	r0, [sp, #264]
.Ltmp362:
	.loc	24 139 22 is_stmt 1             @ ../Middlewares/CMSIS/DSP/Inc\dsp/none.h:139:22
	ldr	r1, [sp, #264]
	ldr	r0, [sp, #268]
	.loc	24 139 12 is_stmt 0             @ ../Middlewares/CMSIS/DSP/Inc\dsp/none.h:139:12
	cmp.w	r0, r1, asr #31
	beq	.LBB21_30
	b	.LBB21_29
.LBB21_29:
	.loc	24 140 32 is_stmt 1             @ ../Middlewares/CMSIS/DSP/Inc\dsp/none.h:140:32
	ldr	r1, [sp, #268]
	mvn	r0, #-2147483648
	.loc	24 140 20 is_stmt 0             @ ../Middlewares/CMSIS/DSP/Inc\dsp/none.h:140:20
	eor.w	r0, r0, r1, asr #31
	.loc	24 139 12 is_stmt 1             @ ../Middlewares/CMSIS/DSP/Inc\dsp/none.h:139:12
	str	r0, [sp, #36]                   @ 4-byte Spill
	b	.LBB21_31
.LBB21_30:
	.loc	24 140 54                       @ ../Middlewares/CMSIS/DSP/Inc\dsp/none.h:140:54
	ldr	r0, [sp, #264]
	.loc	24 139 12                       @ ../Middlewares/CMSIS/DSP/Inc\dsp/none.h:139:12
	str	r0, [sp, #36]                   @ 4-byte Spill
	b	.LBB21_31
.LBB21_31:                              @ %arm_atan_limited_q31.exit8
	ldr	r0, [sp, #36]                   @ 4-byte Reload
.Ltmp363:
	.loc	4 143 9                         @ ../Middlewares/CMSIS/DSP/Src/FastMathFunctions/arm_atan2_q31.c:143:9
	str	r0, [sp, #144]
	b	.LBB21_32
.Ltmp364:
.LBB21_32:
	.loc	4 148 8                         @ ../Middlewares/CMSIS/DSP/Src/FastMathFunctions/arm_atan2_q31.c:148:8
	ldr	r0, [sp, #148]
.Ltmp365:
	.loc	4 148 8 is_stmt 0               @ ../Middlewares/CMSIS/DSP/Src/FastMathFunctions/arm_atan2_q31.c:148:8
	cbz	r0, .LBB21_34
	b	.LBB21_33
.LBB21_33:
.Ltmp366:
	.loc	4 152 34 is_stmt 1              @ ../Middlewares/CMSIS/DSP/Src/FastMathFunctions/arm_atan2_q31.c:152:34
	ldr	r1, [sp, #144]
	movs	r0, #0
	.loc	4 152 12 is_stmt 0              @ ../Middlewares/CMSIS/DSP/Src/FastMathFunctions/arm_atan2_q31.c:152:12
	qsub	r0, r0, r1
	.loc	4 152 10                        @ ../Middlewares/CMSIS/DSP/Src/FastMathFunctions/arm_atan2_q31.c:152:10
	str	r0, [sp, #144]
	.loc	4 156 4 is_stmt 1               @ ../Middlewares/CMSIS/DSP/Src/FastMathFunctions/arm_atan2_q31.c:156:4
	b	.LBB21_34
.Ltmp367:
.LBB21_34:                              @ %arm_atan_q31.exit2
	.loc	4 158 11                        @ ../Middlewares/CMSIS/DSP/Src/FastMathFunctions/arm_atan2_q31.c:158:11
	ldr	r0, [sp, #144]
.Ltmp368:
	.loc	4 189 10                        @ ../Middlewares/CMSIS/DSP/Src/FastMathFunctions/arm_atan2_q31.c:189:10
	ldr	r1, [sp, #52]
	.loc	4 189 16 is_stmt 0              @ ../Middlewares/CMSIS/DSP/Src/FastMathFunctions/arm_atan2_q31.c:189:16
	str	r0, [r1]
	movs	r0, #0
	.loc	4 190 9 is_stmt 1               @ ../Middlewares/CMSIS/DSP/Src/FastMathFunctions/arm_atan2_q31.c:190:9
	strb.w	r0, [sp, #65]
	b	.LBB21_119
.Ltmp369:
.LBB21_35:
	.loc	4 192 9                         @ ../Middlewares/CMSIS/DSP/Src/FastMathFunctions/arm_atan2_q31.c:192:9
	ldr	r0, [sp, #56]
.Ltmp370:
	.loc	4 192 9 is_stmt 0               @ ../Middlewares/CMSIS/DSP/Src/FastMathFunctions/arm_atan2_q31.c:192:9
	cmp.w	r0, #-1
	bgt.w	.LBB21_112
	b	.LBB21_36
.LBB21_36:
.Ltmp371:
	.loc	4 194 13 is_stmt 1              @ ../Middlewares/CMSIS/DSP/Src/FastMathFunctions/arm_atan2_q31.c:194:13
	ldr	r0, [sp, #60]
.Ltmp372:
	.loc	4 194 13 is_stmt 0              @ ../Middlewares/CMSIS/DSP/Src/FastMathFunctions/arm_atan2_q31.c:194:13
	cmp	r0, #1
	blt.w	.LBB21_71
	b	.LBB21_37
.LBB21_37:
.Ltmp373:
	.loc	4 196 33 is_stmt 1              @ ../Middlewares/CMSIS/DSP/Src/FastMathFunctions/arm_atan2_q31.c:196:33
	ldr	r1, [sp, #60]
	.loc	4 196 35 is_stmt 0              @ ../Middlewares/CMSIS/DSP/Src/FastMathFunctions/arm_atan2_q31.c:196:35
	ldr	r0, [sp, #56]
	str	r1, [sp, #124]
	str	r0, [sp, #120]
	movs	r0, #0
.Ltmp374:
	.loc	4 78 8 is_stmt 1                @ ../Middlewares/CMSIS/DSP/Src/FastMathFunctions/arm_atan2_q31.c:78:8
	str	r0, [sp, #116]
	.loc	4 79 10                         @ ../Middlewares/CMSIS/DSP/Src/FastMathFunctions/arm_atan2_q31.c:79:10
	str	r0, [sp, #112]
.Ltmp375:
	.loc	4 81 8                          @ ../Middlewares/CMSIS/DSP/Src/FastMathFunctions/arm_atan2_q31.c:81:8
	ldr	r0, [sp, #124]
.Ltmp376:
	.loc	4 81 8 is_stmt 0                @ ../Middlewares/CMSIS/DSP/Src/FastMathFunctions/arm_atan2_q31.c:81:8
	cmp.w	r0, #-1
	bgt	.LBB21_39
	b	.LBB21_38
.LBB21_38:
.Ltmp377:
	.loc	4 85 31 is_stmt 1               @ ../Middlewares/CMSIS/DSP/Src/FastMathFunctions/arm_atan2_q31.c:85:31
	ldr	r1, [sp, #124]
	movs	r0, #0
	.loc	4 85 9 is_stmt 0                @ ../Middlewares/CMSIS/DSP/Src/FastMathFunctions/arm_atan2_q31.c:85:9
	qsub	r0, r0, r1
	.loc	4 85 7                          @ ../Middlewares/CMSIS/DSP/Src/FastMathFunctions/arm_atan2_q31.c:85:7
	str	r0, [sp, #124]
	.loc	4 90 13 is_stmt 1               @ ../Middlewares/CMSIS/DSP/Src/FastMathFunctions/arm_atan2_q31.c:90:13
	ldr	r0, [sp, #116]
	.loc	4 90 12 is_stmt 0               @ ../Middlewares/CMSIS/DSP/Src/FastMathFunctions/arm_atan2_q31.c:90:12
	rsb.w	r0, r0, #1
	.loc	4 90 10                         @ ../Middlewares/CMSIS/DSP/Src/FastMathFunctions/arm_atan2_q31.c:90:10
	str	r0, [sp, #116]
	.loc	4 91 4 is_stmt 1                @ ../Middlewares/CMSIS/DSP/Src/FastMathFunctions/arm_atan2_q31.c:91:4
	b	.LBB21_39
.Ltmp378:
.LBB21_39:
	.loc	4 93 8                          @ ../Middlewares/CMSIS/DSP/Src/FastMathFunctions/arm_atan2_q31.c:93:8
	ldr	r0, [sp, #120]
.Ltmp379:
	.loc	4 93 8 is_stmt 0                @ ../Middlewares/CMSIS/DSP/Src/FastMathFunctions/arm_atan2_q31.c:93:8
	cmp.w	r0, #-1
	bgt	.LBB21_41
	b	.LBB21_40
.LBB21_40:
.Ltmp380:
	.loc	4 95 16 is_stmt 1               @ ../Middlewares/CMSIS/DSP/Src/FastMathFunctions/arm_atan2_q31.c:95:16
	ldr	r0, [sp, #116]
	.loc	4 95 14 is_stmt 0               @ ../Middlewares/CMSIS/DSP/Src/FastMathFunctions/arm_atan2_q31.c:95:14
	rsb.w	r0, r0, #1
	.loc	4 95 11                         @ ../Middlewares/CMSIS/DSP/Src/FastMathFunctions/arm_atan2_q31.c:95:11
	str	r0, [sp, #116]
	.loc	4 99 31 is_stmt 1               @ ../Middlewares/CMSIS/DSP/Src/FastMathFunctions/arm_atan2_q31.c:99:31
	ldr	r1, [sp, #120]
	movs	r0, #0
	.loc	4 99 9 is_stmt 0                @ ../Middlewares/CMSIS/DSP/Src/FastMathFunctions/arm_atan2_q31.c:99:9
	qsub	r0, r0, r1
	.loc	4 99 7                          @ ../Middlewares/CMSIS/DSP/Src/FastMathFunctions/arm_atan2_q31.c:99:7
	str	r0, [sp, #120]
	.loc	4 103 4 is_stmt 1               @ ../Middlewares/CMSIS/DSP/Src/FastMathFunctions/arm_atan2_q31.c:103:4
	b	.LBB21_41
.Ltmp381:
.LBB21_41:
	.loc	4 105 8                         @ ../Middlewares/CMSIS/DSP/Src/FastMathFunctions/arm_atan2_q31.c:105:8
	ldr	r0, [sp, #124]
	.loc	4 105 12 is_stmt 0              @ ../Middlewares/CMSIS/DSP/Src/FastMathFunctions/arm_atan2_q31.c:105:12
	ldr	r1, [sp, #120]
.Ltmp382:
	.loc	4 105 8                         @ ../Middlewares/CMSIS/DSP/Src/FastMathFunctions/arm_atan2_q31.c:105:8
	cmp	r0, r1
	ble.w	.LBB21_55
	b	.LBB21_42
.LBB21_42:
.Ltmp383:
	.loc	4 110 20 is_stmt 1              @ ../Middlewares/CMSIS/DSP/Src/FastMathFunctions/arm_atan2_q31.c:110:20
	ldr	r0, [sp, #120]
	.loc	4 110 22 is_stmt 0              @ ../Middlewares/CMSIS/DSP/Src/FastMathFunctions/arm_atan2_q31.c:110:22
	ldr	r1, [sp, #124]
	add	r2, sp, #108
	add.w	r3, sp, #106
	.loc	4 110 5                         @ ../Middlewares/CMSIS/DSP/Src/FastMathFunctions/arm_atan2_q31.c:110:5
	bl	arm_divide_q31
.Ltmp384:
	.loc	4 113 9 is_stmt 1               @ ../Middlewares/CMSIS/DSP/Src/FastMathFunctions/arm_atan2_q31.c:113:9
	ldrsh.w	r0, [sp, #106]
.Ltmp385:
	.loc	4 113 9 is_stmt 0               @ ../Middlewares/CMSIS/DSP/Src/FastMathFunctions/arm_atan2_q31.c:113:9
	cmp	r0, #0
	bmi	.LBB21_47
	b	.LBB21_43
.LBB21_43:
.Ltmp386:
	.loc	4 115 42 is_stmt 1              @ ../Middlewares/CMSIS/DSP/Src/FastMathFunctions/arm_atan2_q31.c:115:42
	ldr	r1, [sp, #108]
	asrs	r0, r1, #31
	.loc	4 115 51 is_stmt 0              @ ../Middlewares/CMSIS/DSP/Src/FastMathFunctions/arm_atan2_q31.c:115:51
	ldrsh.w	r3, [sp, #106]
	.loc	4 115 48                        @ ../Middlewares/CMSIS/DSP/Src/FastMathFunctions/arm_atan2_q31.c:115:48
	lsl.w	r2, r0, r3
	rsb.w	r0, r3, #32
	lsr.w	r0, r1, r0
	orrs	r0, r2
	sub.w	r2, r3, #32
	lsl.w	r12, r1, r2
	cmp	r2, #0
	it	pl
	movpl	r0, r12
	lsls	r1, r3
	cmp	r2, #0
	it	pl
	movpl	r1, #0
	str	r1, [sp, #176]
	str	r0, [sp, #180]
.Ltmp387:
	.loc	24 139 22 is_stmt 1             @ ../Middlewares/CMSIS/DSP/Inc\dsp/none.h:139:22
	ldr	r1, [sp, #176]
	ldr	r0, [sp, #180]
	.loc	24 139 12 is_stmt 0             @ ../Middlewares/CMSIS/DSP/Inc\dsp/none.h:139:12
	cmp.w	r0, r1, asr #31
	beq	.LBB21_45
	b	.LBB21_44
.LBB21_44:
	.loc	24 140 32 is_stmt 1             @ ../Middlewares/CMSIS/DSP/Inc\dsp/none.h:140:32
	ldr	r1, [sp, #180]
	mvn	r0, #-2147483648
	.loc	24 140 20 is_stmt 0             @ ../Middlewares/CMSIS/DSP/Inc\dsp/none.h:140:20
	eor.w	r0, r0, r1, asr #31
	.loc	24 139 12 is_stmt 1             @ ../Middlewares/CMSIS/DSP/Inc\dsp/none.h:139:12
	str	r0, [sp, #32]                   @ 4-byte Spill
	b	.LBB21_46
.LBB21_45:
	.loc	24 140 54                       @ ../Middlewares/CMSIS/DSP/Inc\dsp/none.h:140:54
	ldr	r0, [sp, #176]
	.loc	24 139 12                       @ ../Middlewares/CMSIS/DSP/Inc\dsp/none.h:139:12
	str	r0, [sp, #32]                   @ 4-byte Spill
	b	.LBB21_46
.LBB21_46:                              @ %clip_q63_to_q31.exit4
	ldr	r0, [sp, #32]                   @ 4-byte Reload
.Ltmp388:
	.loc	4 115 16                        @ ../Middlewares/CMSIS/DSP/Src/FastMathFunctions/arm_atan2_q31.c:115:16
	str	r0, [sp, #108]
	.loc	4 116 5                         @ ../Middlewares/CMSIS/DSP/Src/FastMathFunctions/arm_atan2_q31.c:116:5
	b	.LBB21_48
.Ltmp389:
.LBB21_47:
	.loc	4 119 19                        @ ../Middlewares/CMSIS/DSP/Src/FastMathFunctions/arm_atan2_q31.c:119:19
	ldr	r0, [sp, #108]
	.loc	4 119 29 is_stmt 0              @ ../Middlewares/CMSIS/DSP/Src/FastMathFunctions/arm_atan2_q31.c:119:29
	ldrsh.w	r1, [sp, #106]
	.loc	4 119 28                        @ ../Middlewares/CMSIS/DSP/Src/FastMathFunctions/arm_atan2_q31.c:119:28
	rsbs	r1, r1, #0
	.loc	4 119 25                        @ ../Middlewares/CMSIS/DSP/Src/FastMathFunctions/arm_atan2_q31.c:119:25
	asrs	r0, r1
	.loc	4 119 16                        @ ../Middlewares/CMSIS/DSP/Src/FastMathFunctions/arm_atan2_q31.c:119:16
	str	r0, [sp, #108]
	b	.LBB21_48
.Ltmp390:
.LBB21_48:
	.loc	4 122 45 is_stmt 1              @ ../Middlewares/CMSIS/DSP/Src/FastMathFunctions/arm_atan2_q31.c:122:45
	ldr	r0, [sp, #108]
	str	r0, [sp, #292]
	mov.w	r0, #-1
.Ltmp391:
	.loc	4 64 11                         @ ../Middlewares/CMSIS/DSP/Src/FastMathFunctions/arm_atan2_q31.c:64:11
	str	r0, [sp, #284]
	movw	r0, #49236
	movt	r0, #64987
	str	r0, [sp, #280]
	movs	r0, #1
	.loc	4 65 9                          @ ../Middlewares/CMSIS/DSP/Src/FastMathFunctions/arm_atan2_q31.c:65:9
	str	r0, [sp, #276]
.Ltmp392:
	.loc	4 66 10                         @ ../Middlewares/CMSIS/DSP/Src/FastMathFunctions/arm_atan2_q31.c:66:10
	str	r0, [sp, #276]
	.loc	4 66 9 is_stmt 0                @ ../Middlewares/CMSIS/DSP/Src/FastMathFunctions/arm_atan2_q31.c:66:9
	b	.LBB21_49
.LBB21_49:                              @ =>This Inner Loop Header: Depth=1
.Ltmp393:
	.loc	4 66 13                         @ ../Middlewares/CMSIS/DSP/Src/FastMathFunctions/arm_atan2_q31.c:66:13
	ldr	r0, [sp, #276]
.Ltmp394:
	.loc	4 66 5                          @ ../Middlewares/CMSIS/DSP/Src/FastMathFunctions/arm_atan2_q31.c:66:5
	cmp	r0, #12
	bgt	.LBB21_51
	b	.LBB21_50
.LBB21_50:                              @   in Loop: Header=BB21_49 Depth=1
.Ltmp395:
	.loc	4 68 24 is_stmt 1               @ ../Middlewares/CMSIS/DSP/Src/FastMathFunctions/arm_atan2_q31.c:68:24
	ldr	r3, [sp, #292]
	asrs	r1, r3, #31
	.loc	4 68 28 is_stmt 0               @ ../Middlewares/CMSIS/DSP/Src/FastMathFunctions/arm_atan2_q31.c:68:28
	ldr	r2, [sp, #280]
	ldr.w	r12, [sp, #284]
	.loc	4 68 26                         @ ../Middlewares/CMSIS/DSP/Src/FastMathFunctions/arm_atan2_q31.c:68:26
	umull	r0, lr, r3, r2
	mla	r3, r3, r12, lr
	mla	r1, r1, r2, r3
	.loc	4 68 33                         @ ../Middlewares/CMSIS/DSP/Src/FastMathFunctions/arm_atan2_q31.c:68:33
	lsrs	r0, r0, #31
	orr.w	r0, r0, r1, lsl #1
	asrs	r1, r1, #31
	.loc	4 68 13                         @ ../Middlewares/CMSIS/DSP/Src/FastMathFunctions/arm_atan2_q31.c:68:13
	str	r1, [sp, #284]
	str	r0, [sp, #280]
	.loc	4 69 15 is_stmt 1               @ ../Middlewares/CMSIS/DSP/Src/FastMathFunctions/arm_atan2_q31.c:69:15
	ldr	r1, [sp, #280]
	ldr	r0, [sp, #284]
	.loc	4 69 52 is_stmt 0               @ ../Middlewares/CMSIS/DSP/Src/FastMathFunctions/arm_atan2_q31.c:69:52
	ldr	r2, [sp, #276]
	.loc	4 69 51                         @ ../Middlewares/CMSIS/DSP/Src/FastMathFunctions/arm_atan2_q31.c:69:51
	rsb.w	r3, r2, #12
	.loc	4 69 30                         @ ../Middlewares/CMSIS/DSP/Src/FastMathFunctions/arm_atan2_q31.c:69:30
	movw	r2, :lower16:atan2_coefs_q31
	movt	r2, :upper16:atan2_coefs_q31
	ldr.w	r2, [r2, r3, lsl #2]
	.loc	4 69 19                         @ ../Middlewares/CMSIS/DSP/Src/FastMathFunctions/arm_atan2_q31.c:69:19
	adds	r1, r1, r2
	adc.w	r0, r0, r2, asr #31
	.loc	4 69 13                         @ ../Middlewares/CMSIS/DSP/Src/FastMathFunctions/arm_atan2_q31.c:69:13
	str	r1, [sp, #280]
	str	r0, [sp, #284]
.Ltmp396:
	.loc	4 66 19 is_stmt 1               @ ../Middlewares/CMSIS/DSP/Src/FastMathFunctions/arm_atan2_q31.c:66:19
	ldr	r0, [sp, #276]
	adds	r0, #1
	str	r0, [sp, #276]
	.loc	4 66 5 is_stmt 0                @ ../Middlewares/CMSIS/DSP/Src/FastMathFunctions/arm_atan2_q31.c:66:5
	b	.LBB21_49
.Ltmp397:
.LBB21_51:
	.loc	4 72 28 is_stmt 1               @ ../Middlewares/CMSIS/DSP/Src/FastMathFunctions/arm_atan2_q31.c:72:28
	ldr	r0, [sp, #280]
	ldr	r1, [sp, #284]
	.loc	4 72 31 is_stmt 0               @ ../Middlewares/CMSIS/DSP/Src/FastMathFunctions/arm_atan2_q31.c:72:31
	lsrs	r0, r0, #2
	orr.w	r0, r0, r1, lsl #30
	asrs	r1, r1, #2
	str	r1, [sp, #300]
	str	r0, [sp, #296]
.Ltmp398:
	.loc	24 139 22 is_stmt 1             @ ../Middlewares/CMSIS/DSP/Inc\dsp/none.h:139:22
	ldr	r1, [sp, #296]
	ldr	r0, [sp, #300]
	.loc	24 139 12 is_stmt 0             @ ../Middlewares/CMSIS/DSP/Inc\dsp/none.h:139:12
	cmp.w	r0, r1, asr #31
	beq	.LBB21_53
	b	.LBB21_52
.LBB21_52:
	.loc	24 140 32 is_stmt 1             @ ../Middlewares/CMSIS/DSP/Inc\dsp/none.h:140:32
	ldr	r1, [sp, #300]
	mvn	r0, #-2147483648
	.loc	24 140 20 is_stmt 0             @ ../Middlewares/CMSIS/DSP/Inc\dsp/none.h:140:20
	eor.w	r0, r0, r1, asr #31
	.loc	24 139 12 is_stmt 1             @ ../Middlewares/CMSIS/DSP/Inc\dsp/none.h:139:12
	str	r0, [sp, #28]                   @ 4-byte Spill
	b	.LBB21_54
.LBB21_53:
	.loc	24 140 54                       @ ../Middlewares/CMSIS/DSP/Inc\dsp/none.h:140:54
	ldr	r0, [sp, #296]
	.loc	24 139 12                       @ ../Middlewares/CMSIS/DSP/Inc\dsp/none.h:139:12
	str	r0, [sp, #28]                   @ 4-byte Spill
	b	.LBB21_54
.LBB21_54:                              @ %arm_atan_limited_q31.exit9
	ldr	r1, [sp, #28]                   @ 4-byte Reload
	movw	r0, #63145
	movt	r0, #12867
.Ltmp399:
	.loc	4 122 22                        @ ../Middlewares/CMSIS/DSP/Src/FastMathFunctions/arm_atan2_q31.c:122:22
	subs	r0, r0, r1
	.loc	4 122 9 is_stmt 0               @ ../Middlewares/CMSIS/DSP/Src/FastMathFunctions/arm_atan2_q31.c:122:9
	str	r0, [sp, #112]
	.loc	4 124 4 is_stmt 1               @ ../Middlewares/CMSIS/DSP/Src/FastMathFunctions/arm_atan2_q31.c:124:4
	b	.LBB21_68
.Ltmp400:
.LBB21_55:
	.loc	4 130 20                        @ ../Middlewares/CMSIS/DSP/Src/FastMathFunctions/arm_atan2_q31.c:130:20
	ldr	r0, [sp, #124]
	.loc	4 130 22 is_stmt 0              @ ../Middlewares/CMSIS/DSP/Src/FastMathFunctions/arm_atan2_q31.c:130:22
	ldr	r1, [sp, #120]
	add	r2, sp, #100
	add.w	r3, sp, #98
	.loc	4 130 5                         @ ../Middlewares/CMSIS/DSP/Src/FastMathFunctions/arm_atan2_q31.c:130:5
	bl	arm_divide_q31
.Ltmp401:
	.loc	4 133 9 is_stmt 1               @ ../Middlewares/CMSIS/DSP/Src/FastMathFunctions/arm_atan2_q31.c:133:9
	ldrsh.w	r0, [sp, #98]
.Ltmp402:
	.loc	4 133 9 is_stmt 0               @ ../Middlewares/CMSIS/DSP/Src/FastMathFunctions/arm_atan2_q31.c:133:9
	cmp	r0, #0
	bmi	.LBB21_60
	b	.LBB21_56
.LBB21_56:
.Ltmp403:
	.loc	4 135 42 is_stmt 1              @ ../Middlewares/CMSIS/DSP/Src/FastMathFunctions/arm_atan2_q31.c:135:42
	ldr	r1, [sp, #100]
	asrs	r0, r1, #31
	.loc	4 135 51 is_stmt 0              @ ../Middlewares/CMSIS/DSP/Src/FastMathFunctions/arm_atan2_q31.c:135:51
	ldrsh.w	r3, [sp, #98]
	.loc	4 135 48                        @ ../Middlewares/CMSIS/DSP/Src/FastMathFunctions/arm_atan2_q31.c:135:48
	lsl.w	r2, r0, r3
	rsb.w	r0, r3, #32
	lsr.w	r0, r1, r0
	orrs	r0, r2
	sub.w	r2, r3, #32
	lsl.w	r12, r1, r2
	cmp	r2, #0
	it	pl
	movpl	r0, r12
	lsls	r1, r3
	cmp	r2, #0
	it	pl
	movpl	r1, #0
	str	r1, [sp, #184]
	str	r0, [sp, #188]
.Ltmp404:
	.loc	24 139 22 is_stmt 1             @ ../Middlewares/CMSIS/DSP/Inc\dsp/none.h:139:22
	ldr	r1, [sp, #184]
	ldr	r0, [sp, #188]
	.loc	24 139 12 is_stmt 0             @ ../Middlewares/CMSIS/DSP/Inc\dsp/none.h:139:12
	cmp.w	r0, r1, asr #31
	beq	.LBB21_58
	b	.LBB21_57
.LBB21_57:
	.loc	24 140 32 is_stmt 1             @ ../Middlewares/CMSIS/DSP/Inc\dsp/none.h:140:32
	ldr	r1, [sp, #188]
	mvn	r0, #-2147483648
	.loc	24 140 20 is_stmt 0             @ ../Middlewares/CMSIS/DSP/Inc\dsp/none.h:140:20
	eor.w	r0, r0, r1, asr #31
	.loc	24 139 12 is_stmt 1             @ ../Middlewares/CMSIS/DSP/Inc\dsp/none.h:139:12
	str	r0, [sp, #24]                   @ 4-byte Spill
	b	.LBB21_59
.LBB21_58:
	.loc	24 140 54                       @ ../Middlewares/CMSIS/DSP/Inc\dsp/none.h:140:54
	ldr	r0, [sp, #184]
	.loc	24 139 12                       @ ../Middlewares/CMSIS/DSP/Inc\dsp/none.h:139:12
	str	r0, [sp, #24]                   @ 4-byte Spill
	b	.LBB21_59
.LBB21_59:                              @ %clip_q63_to_q31.exit5
	ldr	r0, [sp, #24]                   @ 4-byte Reload
.Ltmp405:
	.loc	4 135 16                        @ ../Middlewares/CMSIS/DSP/Src/FastMathFunctions/arm_atan2_q31.c:135:16
	str	r0, [sp, #100]
	.loc	4 136 5                         @ ../Middlewares/CMSIS/DSP/Src/FastMathFunctions/arm_atan2_q31.c:136:5
	b	.LBB21_61
.Ltmp406:
.LBB21_60:
	.loc	4 139 19                        @ ../Middlewares/CMSIS/DSP/Src/FastMathFunctions/arm_atan2_q31.c:139:19
	ldr	r0, [sp, #100]
	.loc	4 139 29 is_stmt 0              @ ../Middlewares/CMSIS/DSP/Src/FastMathFunctions/arm_atan2_q31.c:139:29
	ldrsh.w	r1, [sp, #98]
	.loc	4 139 28                        @ ../Middlewares/CMSIS/DSP/Src/FastMathFunctions/arm_atan2_q31.c:139:28
	rsbs	r1, r1, #0
	.loc	4 139 25                        @ ../Middlewares/CMSIS/DSP/Src/FastMathFunctions/arm_atan2_q31.c:139:25
	asrs	r0, r1
	.loc	4 139 16                        @ ../Middlewares/CMSIS/DSP/Src/FastMathFunctions/arm_atan2_q31.c:139:16
	str	r0, [sp, #100]
	b	.LBB21_61
.Ltmp407:
.LBB21_61:
	.loc	4 143 32 is_stmt 1              @ ../Middlewares/CMSIS/DSP/Src/FastMathFunctions/arm_atan2_q31.c:143:32
	ldr	r0, [sp, #100]
	str	r0, [sp, #324]
	mov.w	r0, #-1
.Ltmp408:
	.loc	4 64 11                         @ ../Middlewares/CMSIS/DSP/Src/FastMathFunctions/arm_atan2_q31.c:64:11
	str	r0, [sp, #316]
	movw	r0, #49236
	movt	r0, #64987
	str	r0, [sp, #312]
	movs	r0, #1
	.loc	4 65 9                          @ ../Middlewares/CMSIS/DSP/Src/FastMathFunctions/arm_atan2_q31.c:65:9
	str	r0, [sp, #308]
.Ltmp409:
	.loc	4 66 10                         @ ../Middlewares/CMSIS/DSP/Src/FastMathFunctions/arm_atan2_q31.c:66:10
	str	r0, [sp, #308]
	.loc	4 66 9 is_stmt 0                @ ../Middlewares/CMSIS/DSP/Src/FastMathFunctions/arm_atan2_q31.c:66:9
	b	.LBB21_62
.LBB21_62:                              @ =>This Inner Loop Header: Depth=1
.Ltmp410:
	.loc	4 66 13                         @ ../Middlewares/CMSIS/DSP/Src/FastMathFunctions/arm_atan2_q31.c:66:13
	ldr	r0, [sp, #308]
.Ltmp411:
	.loc	4 66 5                          @ ../Middlewares/CMSIS/DSP/Src/FastMathFunctions/arm_atan2_q31.c:66:5
	cmp	r0, #12
	bgt	.LBB21_64
	b	.LBB21_63
.LBB21_63:                              @   in Loop: Header=BB21_62 Depth=1
.Ltmp412:
	.loc	4 68 24 is_stmt 1               @ ../Middlewares/CMSIS/DSP/Src/FastMathFunctions/arm_atan2_q31.c:68:24
	ldr	r3, [sp, #324]
	asrs	r1, r3, #31
	.loc	4 68 28 is_stmt 0               @ ../Middlewares/CMSIS/DSP/Src/FastMathFunctions/arm_atan2_q31.c:68:28
	ldr	r2, [sp, #312]
	ldr.w	r12, [sp, #316]
	.loc	4 68 26                         @ ../Middlewares/CMSIS/DSP/Src/FastMathFunctions/arm_atan2_q31.c:68:26
	umull	r0, lr, r3, r2
	mla	r3, r3, r12, lr
	mla	r1, r1, r2, r3
	.loc	4 68 33                         @ ../Middlewares/CMSIS/DSP/Src/FastMathFunctions/arm_atan2_q31.c:68:33
	lsrs	r0, r0, #31
	orr.w	r0, r0, r1, lsl #1
	asrs	r1, r1, #31
	.loc	4 68 13                         @ ../Middlewares/CMSIS/DSP/Src/FastMathFunctions/arm_atan2_q31.c:68:13
	str	r1, [sp, #316]
	str	r0, [sp, #312]
	.loc	4 69 15 is_stmt 1               @ ../Middlewares/CMSIS/DSP/Src/FastMathFunctions/arm_atan2_q31.c:69:15
	ldr	r1, [sp, #312]
	ldr	r0, [sp, #316]
	.loc	4 69 52 is_stmt 0               @ ../Middlewares/CMSIS/DSP/Src/FastMathFunctions/arm_atan2_q31.c:69:52
	ldr	r2, [sp, #308]
	.loc	4 69 51                         @ ../Middlewares/CMSIS/DSP/Src/FastMathFunctions/arm_atan2_q31.c:69:51
	rsb.w	r3, r2, #12
	.loc	4 69 30                         @ ../Middlewares/CMSIS/DSP/Src/FastMathFunctions/arm_atan2_q31.c:69:30
	movw	r2, :lower16:atan2_coefs_q31
	movt	r2, :upper16:atan2_coefs_q31
	ldr.w	r2, [r2, r3, lsl #2]
	.loc	4 69 19                         @ ../Middlewares/CMSIS/DSP/Src/FastMathFunctions/arm_atan2_q31.c:69:19
	adds	r1, r1, r2
	adc.w	r0, r0, r2, asr #31
	.loc	4 69 13                         @ ../Middlewares/CMSIS/DSP/Src/FastMathFunctions/arm_atan2_q31.c:69:13
	str	r1, [sp, #312]
	str	r0, [sp, #316]
.Ltmp413:
	.loc	4 66 19 is_stmt 1               @ ../Middlewares/CMSIS/DSP/Src/FastMathFunctions/arm_atan2_q31.c:66:19
	ldr	r0, [sp, #308]
	adds	r0, #1
	str	r0, [sp, #308]
	.loc	4 66 5 is_stmt 0                @ ../Middlewares/CMSIS/DSP/Src/FastMathFunctions/arm_atan2_q31.c:66:5
	b	.LBB21_62
.Ltmp414:
.LBB21_64:
	.loc	4 72 28 is_stmt 1               @ ../Middlewares/CMSIS/DSP/Src/FastMathFunctions/arm_atan2_q31.c:72:28
	ldr	r0, [sp, #312]
	ldr	r1, [sp, #316]
	.loc	4 72 31 is_stmt 0               @ ../Middlewares/CMSIS/DSP/Src/FastMathFunctions/arm_atan2_q31.c:72:31
	lsrs	r0, r0, #2
	orr.w	r0, r0, r1, lsl #30
	asrs	r1, r1, #2
	str	r1, [sp, #332]
	str	r0, [sp, #328]
.Ltmp415:
	.loc	24 139 22 is_stmt 1             @ ../Middlewares/CMSIS/DSP/Inc\dsp/none.h:139:22
	ldr	r1, [sp, #328]
	ldr	r0, [sp, #332]
	.loc	24 139 12 is_stmt 0             @ ../Middlewares/CMSIS/DSP/Inc\dsp/none.h:139:12
	cmp.w	r0, r1, asr #31
	beq	.LBB21_66
	b	.LBB21_65
.LBB21_65:
	.loc	24 140 32 is_stmt 1             @ ../Middlewares/CMSIS/DSP/Inc\dsp/none.h:140:32
	ldr	r1, [sp, #332]
	mvn	r0, #-2147483648
	.loc	24 140 20 is_stmt 0             @ ../Middlewares/CMSIS/DSP/Inc\dsp/none.h:140:20
	eor.w	r0, r0, r1, asr #31
	.loc	24 139 12 is_stmt 1             @ ../Middlewares/CMSIS/DSP/Inc\dsp/none.h:139:12
	str	r0, [sp, #20]                   @ 4-byte Spill
	b	.LBB21_67
.LBB21_66:
	.loc	24 140 54                       @ ../Middlewares/CMSIS/DSP/Inc\dsp/none.h:140:54
	ldr	r0, [sp, #328]
	.loc	24 139 12                       @ ../Middlewares/CMSIS/DSP/Inc\dsp/none.h:139:12
	str	r0, [sp, #20]                   @ 4-byte Spill
	b	.LBB21_67
.LBB21_67:                              @ %arm_atan_limited_q31.exit10
	ldr	r0, [sp, #20]                   @ 4-byte Reload
.Ltmp416:
	.loc	4 143 9                         @ ../Middlewares/CMSIS/DSP/Src/FastMathFunctions/arm_atan2_q31.c:143:9
	str	r0, [sp, #112]
	b	.LBB21_68
.Ltmp417:
.LBB21_68:
	.loc	4 148 8                         @ ../Middlewares/CMSIS/DSP/Src/FastMathFunctions/arm_atan2_q31.c:148:8
	ldr	r0, [sp, #116]
.Ltmp418:
	.loc	4 148 8 is_stmt 0               @ ../Middlewares/CMSIS/DSP/Src/FastMathFunctions/arm_atan2_q31.c:148:8
	cbz	r0, .LBB21_70
	b	.LBB21_69
.LBB21_69:
.Ltmp419:
	.loc	4 152 34 is_stmt 1              @ ../Middlewares/CMSIS/DSP/Src/FastMathFunctions/arm_atan2_q31.c:152:34
	ldr	r1, [sp, #112]
	movs	r0, #0
	.loc	4 152 12 is_stmt 0              @ ../Middlewares/CMSIS/DSP/Src/FastMathFunctions/arm_atan2_q31.c:152:12
	qsub	r0, r0, r1
	.loc	4 152 10                        @ ../Middlewares/CMSIS/DSP/Src/FastMathFunctions/arm_atan2_q31.c:152:10
	str	r0, [sp, #112]
	.loc	4 156 4 is_stmt 1               @ ../Middlewares/CMSIS/DSP/Src/FastMathFunctions/arm_atan2_q31.c:156:4
	b	.LBB21_70
.Ltmp420:
.LBB21_70:                              @ %arm_atan_q31.exit1
	.loc	4 158 11                        @ ../Middlewares/CMSIS/DSP/Src/FastMathFunctions/arm_atan2_q31.c:158:11
	ldr	r0, [sp, #112]
	movw	r1, #60753
	movt	r1, #25735
.Ltmp421:
	.loc	4 196 38                        @ ../Middlewares/CMSIS/DSP/Src/FastMathFunctions/arm_atan2_q31.c:196:38
	add	r0, r1
	.loc	4 196 13 is_stmt 0              @ ../Middlewares/CMSIS/DSP/Src/FastMathFunctions/arm_atan2_q31.c:196:13
	ldr	r1, [sp, #52]
	.loc	4 196 19                        @ ../Middlewares/CMSIS/DSP/Src/FastMathFunctions/arm_atan2_q31.c:196:19
	str	r0, [r1]
	.loc	4 197 9 is_stmt 1               @ ../Middlewares/CMSIS/DSP/Src/FastMathFunctions/arm_atan2_q31.c:197:9
	b	.LBB21_111
.Ltmp422:
.LBB21_71:
	.loc	4 198 18                        @ ../Middlewares/CMSIS/DSP/Src/FastMathFunctions/arm_atan2_q31.c:198:18
	ldr	r0, [sp, #60]
.Ltmp423:
	.loc	4 198 18 is_stmt 0              @ ../Middlewares/CMSIS/DSP/Src/FastMathFunctions/arm_atan2_q31.c:198:18
	cmp.w	r0, #-1
	bgt.w	.LBB21_106
	b	.LBB21_72
.LBB21_72:
.Ltmp424:
	.loc	4 200 33 is_stmt 1              @ ../Middlewares/CMSIS/DSP/Src/FastMathFunctions/arm_atan2_q31.c:200:33
	ldr	r1, [sp, #60]
	.loc	4 200 35 is_stmt 0              @ ../Middlewares/CMSIS/DSP/Src/FastMathFunctions/arm_atan2_q31.c:200:35
	ldr	r0, [sp, #56]
	str	r1, [sp, #92]
	str	r0, [sp, #88]
	movs	r0, #0
.Ltmp425:
	.loc	4 78 8 is_stmt 1                @ ../Middlewares/CMSIS/DSP/Src/FastMathFunctions/arm_atan2_q31.c:78:8
	str	r0, [sp, #84]
	.loc	4 79 10                         @ ../Middlewares/CMSIS/DSP/Src/FastMathFunctions/arm_atan2_q31.c:79:10
	str	r0, [sp, #80]
.Ltmp426:
	.loc	4 81 8                          @ ../Middlewares/CMSIS/DSP/Src/FastMathFunctions/arm_atan2_q31.c:81:8
	ldr	r0, [sp, #92]
.Ltmp427:
	.loc	4 81 8 is_stmt 0                @ ../Middlewares/CMSIS/DSP/Src/FastMathFunctions/arm_atan2_q31.c:81:8
	cmp.w	r0, #-1
	bgt	.LBB21_74
	b	.LBB21_73
.LBB21_73:
.Ltmp428:
	.loc	4 85 31 is_stmt 1               @ ../Middlewares/CMSIS/DSP/Src/FastMathFunctions/arm_atan2_q31.c:85:31
	ldr	r1, [sp, #92]
	movs	r0, #0
	.loc	4 85 9 is_stmt 0                @ ../Middlewares/CMSIS/DSP/Src/FastMathFunctions/arm_atan2_q31.c:85:9
	qsub	r0, r0, r1
	.loc	4 85 7                          @ ../Middlewares/CMSIS/DSP/Src/FastMathFunctions/arm_atan2_q31.c:85:7
	str	r0, [sp, #92]
	.loc	4 90 13 is_stmt 1               @ ../Middlewares/CMSIS/DSP/Src/FastMathFunctions/arm_atan2_q31.c:90:13
	ldr	r0, [sp, #84]
	.loc	4 90 12 is_stmt 0               @ ../Middlewares/CMSIS/DSP/Src/FastMathFunctions/arm_atan2_q31.c:90:12
	rsb.w	r0, r0, #1
	.loc	4 90 10                         @ ../Middlewares/CMSIS/DSP/Src/FastMathFunctions/arm_atan2_q31.c:90:10
	str	r0, [sp, #84]
	.loc	4 91 4 is_stmt 1                @ ../Middlewares/CMSIS/DSP/Src/FastMathFunctions/arm_atan2_q31.c:91:4
	b	.LBB21_74
.Ltmp429:
.LBB21_74:
	.loc	4 93 8                          @ ../Middlewares/CMSIS/DSP/Src/FastMathFunctions/arm_atan2_q31.c:93:8
	ldr	r0, [sp, #88]
.Ltmp430:
	.loc	4 93 8 is_stmt 0                @ ../Middlewares/CMSIS/DSP/Src/FastMathFunctions/arm_atan2_q31.c:93:8
	cmp.w	r0, #-1
	bgt	.LBB21_76
	b	.LBB21_75
.LBB21_75:
.Ltmp431:
	.loc	4 95 16 is_stmt 1               @ ../Middlewares/CMSIS/DSP/Src/FastMathFunctions/arm_atan2_q31.c:95:16
	ldr	r0, [sp, #84]
	.loc	4 95 14 is_stmt 0               @ ../Middlewares/CMSIS/DSP/Src/FastMathFunctions/arm_atan2_q31.c:95:14
	rsb.w	r0, r0, #1
	.loc	4 95 11                         @ ../Middlewares/CMSIS/DSP/Src/FastMathFunctions/arm_atan2_q31.c:95:11
	str	r0, [sp, #84]
	.loc	4 99 31 is_stmt 1               @ ../Middlewares/CMSIS/DSP/Src/FastMathFunctions/arm_atan2_q31.c:99:31
	ldr	r1, [sp, #88]
	movs	r0, #0
	.loc	4 99 9 is_stmt 0                @ ../Middlewares/CMSIS/DSP/Src/FastMathFunctions/arm_atan2_q31.c:99:9
	qsub	r0, r0, r1
	.loc	4 99 7                          @ ../Middlewares/CMSIS/DSP/Src/FastMathFunctions/arm_atan2_q31.c:99:7
	str	r0, [sp, #88]
	.loc	4 103 4 is_stmt 1               @ ../Middlewares/CMSIS/DSP/Src/FastMathFunctions/arm_atan2_q31.c:103:4
	b	.LBB21_76
.Ltmp432:
.LBB21_76:
	.loc	4 105 8                         @ ../Middlewares/CMSIS/DSP/Src/FastMathFunctions/arm_atan2_q31.c:105:8
	ldr	r0, [sp, #92]
	.loc	4 105 12 is_stmt 0              @ ../Middlewares/CMSIS/DSP/Src/FastMathFunctions/arm_atan2_q31.c:105:12
	ldr	r1, [sp, #88]
.Ltmp433:
	.loc	4 105 8                         @ ../Middlewares/CMSIS/DSP/Src/FastMathFunctions/arm_atan2_q31.c:105:8
	cmp	r0, r1
	ble.w	.LBB21_90
	b	.LBB21_77
.LBB21_77:
.Ltmp434:
	.loc	4 110 20 is_stmt 1              @ ../Middlewares/CMSIS/DSP/Src/FastMathFunctions/arm_atan2_q31.c:110:20
	ldr	r0, [sp, #88]
	.loc	4 110 22 is_stmt 0              @ ../Middlewares/CMSIS/DSP/Src/FastMathFunctions/arm_atan2_q31.c:110:22
	ldr	r1, [sp, #92]
	add	r2, sp, #76
	add.w	r3, sp, #74
	.loc	4 110 5                         @ ../Middlewares/CMSIS/DSP/Src/FastMathFunctions/arm_atan2_q31.c:110:5
	bl	arm_divide_q31
.Ltmp435:
	.loc	4 113 9 is_stmt 1               @ ../Middlewares/CMSIS/DSP/Src/FastMathFunctions/arm_atan2_q31.c:113:9
	ldrsh.w	r0, [sp, #74]
.Ltmp436:
	.loc	4 113 9 is_stmt 0               @ ../Middlewares/CMSIS/DSP/Src/FastMathFunctions/arm_atan2_q31.c:113:9
	cmp	r0, #0
	bmi	.LBB21_82
	b	.LBB21_78
.LBB21_78:
.Ltmp437:
	.loc	4 115 42 is_stmt 1              @ ../Middlewares/CMSIS/DSP/Src/FastMathFunctions/arm_atan2_q31.c:115:42
	ldr	r1, [sp, #76]
	asrs	r0, r1, #31
	.loc	4 115 51 is_stmt 0              @ ../Middlewares/CMSIS/DSP/Src/FastMathFunctions/arm_atan2_q31.c:115:51
	ldrsh.w	r3, [sp, #74]
	.loc	4 115 48                        @ ../Middlewares/CMSIS/DSP/Src/FastMathFunctions/arm_atan2_q31.c:115:48
	lsl.w	r2, r0, r3
	rsb.w	r0, r3, #32
	lsr.w	r0, r1, r0
	orrs	r0, r2
	sub.w	r2, r3, #32
	lsl.w	r12, r1, r2
	cmp	r2, #0
	it	pl
	movpl	r0, r12
	lsls	r1, r3
	cmp	r2, #0
	it	pl
	movpl	r1, #0
	str	r1, [sp, #192]
	str	r0, [sp, #196]
.Ltmp438:
	.loc	24 139 22 is_stmt 1             @ ../Middlewares/CMSIS/DSP/Inc\dsp/none.h:139:22
	ldr	r1, [sp, #192]
	ldr	r0, [sp, #196]
	.loc	24 139 12 is_stmt 0             @ ../Middlewares/CMSIS/DSP/Inc\dsp/none.h:139:12
	cmp.w	r0, r1, asr #31
	beq	.LBB21_80
	b	.LBB21_79
.LBB21_79:
	.loc	24 140 32 is_stmt 1             @ ../Middlewares/CMSIS/DSP/Inc\dsp/none.h:140:32
	ldr	r1, [sp, #196]
	mvn	r0, #-2147483648
	.loc	24 140 20 is_stmt 0             @ ../Middlewares/CMSIS/DSP/Inc\dsp/none.h:140:20
	eor.w	r0, r0, r1, asr #31
	.loc	24 139 12 is_stmt 1             @ ../Middlewares/CMSIS/DSP/Inc\dsp/none.h:139:12
	str	r0, [sp, #16]                   @ 4-byte Spill
	b	.LBB21_81
.LBB21_80:
	.loc	24 140 54                       @ ../Middlewares/CMSIS/DSP/Inc\dsp/none.h:140:54
	ldr	r0, [sp, #192]
	.loc	24 139 12                       @ ../Middlewares/CMSIS/DSP/Inc\dsp/none.h:139:12
	str	r0, [sp, #16]                   @ 4-byte Spill
	b	.LBB21_81
.LBB21_81:                              @ %clip_q63_to_q31.exit6
	ldr	r0, [sp, #16]                   @ 4-byte Reload
.Ltmp439:
	.loc	4 115 16                        @ ../Middlewares/CMSIS/DSP/Src/FastMathFunctions/arm_atan2_q31.c:115:16
	str	r0, [sp, #76]
	.loc	4 116 5                         @ ../Middlewares/CMSIS/DSP/Src/FastMathFunctions/arm_atan2_q31.c:116:5
	b	.LBB21_83
.Ltmp440:
.LBB21_82:
	.loc	4 119 19                        @ ../Middlewares/CMSIS/DSP/Src/FastMathFunctions/arm_atan2_q31.c:119:19
	ldr	r0, [sp, #76]
	.loc	4 119 29 is_stmt 0              @ ../Middlewares/CMSIS/DSP/Src/FastMathFunctions/arm_atan2_q31.c:119:29
	ldrsh.w	r1, [sp, #74]
	.loc	4 119 28                        @ ../Middlewares/CMSIS/DSP/Src/FastMathFunctions/arm_atan2_q31.c:119:28
	rsbs	r1, r1, #0
	.loc	4 119 25                        @ ../Middlewares/CMSIS/DSP/Src/FastMathFunctions/arm_atan2_q31.c:119:25
	asrs	r0, r1
	.loc	4 119 16                        @ ../Middlewares/CMSIS/DSP/Src/FastMathFunctions/arm_atan2_q31.c:119:16
	str	r0, [sp, #76]
	b	.LBB21_83
.Ltmp441:
.LBB21_83:
	.loc	4 122 45 is_stmt 1              @ ../Middlewares/CMSIS/DSP/Src/FastMathFunctions/arm_atan2_q31.c:122:45
	ldr	r0, [sp, #76]
	str	r0, [sp, #356]
	mov.w	r0, #-1
.Ltmp442:
	.loc	4 64 11                         @ ../Middlewares/CMSIS/DSP/Src/FastMathFunctions/arm_atan2_q31.c:64:11
	str	r0, [sp, #348]
	movw	r0, #49236
	movt	r0, #64987
	str	r0, [sp, #344]
	movs	r0, #1
	.loc	4 65 9                          @ ../Middlewares/CMSIS/DSP/Src/FastMathFunctions/arm_atan2_q31.c:65:9
	str	r0, [sp, #340]
.Ltmp443:
	.loc	4 66 10                         @ ../Middlewares/CMSIS/DSP/Src/FastMathFunctions/arm_atan2_q31.c:66:10
	str	r0, [sp, #340]
	.loc	4 66 9 is_stmt 0                @ ../Middlewares/CMSIS/DSP/Src/FastMathFunctions/arm_atan2_q31.c:66:9
	b	.LBB21_84
.LBB21_84:                              @ =>This Inner Loop Header: Depth=1
.Ltmp444:
	.loc	4 66 13                         @ ../Middlewares/CMSIS/DSP/Src/FastMathFunctions/arm_atan2_q31.c:66:13
	ldr	r0, [sp, #340]
.Ltmp445:
	.loc	4 66 5                          @ ../Middlewares/CMSIS/DSP/Src/FastMathFunctions/arm_atan2_q31.c:66:5
	cmp	r0, #12
	bgt	.LBB21_86
	b	.LBB21_85
.LBB21_85:                              @   in Loop: Header=BB21_84 Depth=1
.Ltmp446:
	.loc	4 68 24 is_stmt 1               @ ../Middlewares/CMSIS/DSP/Src/FastMathFunctions/arm_atan2_q31.c:68:24
	ldr	r3, [sp, #356]
	asrs	r1, r3, #31
	.loc	4 68 28 is_stmt 0               @ ../Middlewares/CMSIS/DSP/Src/FastMathFunctions/arm_atan2_q31.c:68:28
	ldr	r2, [sp, #344]
	ldr.w	r12, [sp, #348]
	.loc	4 68 26                         @ ../Middlewares/CMSIS/DSP/Src/FastMathFunctions/arm_atan2_q31.c:68:26
	umull	r0, lr, r3, r2
	mla	r3, r3, r12, lr
	mla	r1, r1, r2, r3
	.loc	4 68 33                         @ ../Middlewares/CMSIS/DSP/Src/FastMathFunctions/arm_atan2_q31.c:68:33
	lsrs	r0, r0, #31
	orr.w	r0, r0, r1, lsl #1
	asrs	r1, r1, #31
	.loc	4 68 13                         @ ../Middlewares/CMSIS/DSP/Src/FastMathFunctions/arm_atan2_q31.c:68:13
	str	r1, [sp, #348]
	str	r0, [sp, #344]
	.loc	4 69 15 is_stmt 1               @ ../Middlewares/CMSIS/DSP/Src/FastMathFunctions/arm_atan2_q31.c:69:15
	ldr	r1, [sp, #344]
	ldr	r0, [sp, #348]
	.loc	4 69 52 is_stmt 0               @ ../Middlewares/CMSIS/DSP/Src/FastMathFunctions/arm_atan2_q31.c:69:52
	ldr	r2, [sp, #340]
	.loc	4 69 51                         @ ../Middlewares/CMSIS/DSP/Src/FastMathFunctions/arm_atan2_q31.c:69:51
	rsb.w	r3, r2, #12
	.loc	4 69 30                         @ ../Middlewares/CMSIS/DSP/Src/FastMathFunctions/arm_atan2_q31.c:69:30
	movw	r2, :lower16:atan2_coefs_q31
	movt	r2, :upper16:atan2_coefs_q31
	ldr.w	r2, [r2, r3, lsl #2]
	.loc	4 69 19                         @ ../Middlewares/CMSIS/DSP/Src/FastMathFunctions/arm_atan2_q31.c:69:19
	adds	r1, r1, r2
	adc.w	r0, r0, r2, asr #31
	.loc	4 69 13                         @ ../Middlewares/CMSIS/DSP/Src/FastMathFunctions/arm_atan2_q31.c:69:13
	str	r1, [sp, #344]
	str	r0, [sp, #348]
.Ltmp447:
	.loc	4 66 19 is_stmt 1               @ ../Middlewares/CMSIS/DSP/Src/FastMathFunctions/arm_atan2_q31.c:66:19
	ldr	r0, [sp, #340]
	adds	r0, #1
	str	r0, [sp, #340]
	.loc	4 66 5 is_stmt 0                @ ../Middlewares/CMSIS/DSP/Src/FastMathFunctions/arm_atan2_q31.c:66:5
	b	.LBB21_84
.Ltmp448:
.LBB21_86:
	.loc	4 72 28 is_stmt 1               @ ../Middlewares/CMSIS/DSP/Src/FastMathFunctions/arm_atan2_q31.c:72:28
	ldr	r0, [sp, #344]
	ldr	r1, [sp, #348]
	.loc	4 72 31 is_stmt 0               @ ../Middlewares/CMSIS/DSP/Src/FastMathFunctions/arm_atan2_q31.c:72:31
	lsrs	r0, r0, #2
	orr.w	r0, r0, r1, lsl #30
	asrs	r1, r1, #2
	str	r1, [sp, #364]
	str	r0, [sp, #360]
.Ltmp449:
	.loc	24 139 22 is_stmt 1             @ ../Middlewares/CMSIS/DSP/Inc\dsp/none.h:139:22
	ldr	r1, [sp, #360]
	ldr	r0, [sp, #364]
	.loc	24 139 12 is_stmt 0             @ ../Middlewares/CMSIS/DSP/Inc\dsp/none.h:139:12
	cmp.w	r0, r1, asr #31
	beq	.LBB21_88
	b	.LBB21_87
.LBB21_87:
	.loc	24 140 32 is_stmt 1             @ ../Middlewares/CMSIS/DSP/Inc\dsp/none.h:140:32
	ldr	r1, [sp, #364]
	mvn	r0, #-2147483648
	.loc	24 140 20 is_stmt 0             @ ../Middlewares/CMSIS/DSP/Inc\dsp/none.h:140:20
	eor.w	r0, r0, r1, asr #31
	.loc	24 139 12 is_stmt 1             @ ../Middlewares/CMSIS/DSP/Inc\dsp/none.h:139:12
	str	r0, [sp, #12]                   @ 4-byte Spill
	b	.LBB21_89
.LBB21_88:
	.loc	24 140 54                       @ ../Middlewares/CMSIS/DSP/Inc\dsp/none.h:140:54
	ldr	r0, [sp, #360]
	.loc	24 139 12                       @ ../Middlewares/CMSIS/DSP/Inc\dsp/none.h:139:12
	str	r0, [sp, #12]                   @ 4-byte Spill
	b	.LBB21_89
.LBB21_89:                              @ %arm_atan_limited_q31.exit11
	ldr	r1, [sp, #12]                   @ 4-byte Reload
	movw	r0, #63145
	movt	r0, #12867
.Ltmp450:
	.loc	4 122 22                        @ ../Middlewares/CMSIS/DSP/Src/FastMathFunctions/arm_atan2_q31.c:122:22
	subs	r0, r0, r1
	.loc	4 122 9 is_stmt 0               @ ../Middlewares/CMSIS/DSP/Src/FastMathFunctions/arm_atan2_q31.c:122:9
	str	r0, [sp, #80]
	.loc	4 124 4 is_stmt 1               @ ../Middlewares/CMSIS/DSP/Src/FastMathFunctions/arm_atan2_q31.c:124:4
	b	.LBB21_103
.Ltmp451:
.LBB21_90:
	.loc	4 130 20                        @ ../Middlewares/CMSIS/DSP/Src/FastMathFunctions/arm_atan2_q31.c:130:20
	ldr	r0, [sp, #92]
	.loc	4 130 22 is_stmt 0              @ ../Middlewares/CMSIS/DSP/Src/FastMathFunctions/arm_atan2_q31.c:130:22
	ldr	r1, [sp, #88]
	add	r2, sp, #68
	add.w	r3, sp, #66
	.loc	4 130 5                         @ ../Middlewares/CMSIS/DSP/Src/FastMathFunctions/arm_atan2_q31.c:130:5
	bl	arm_divide_q31
.Ltmp452:
	.loc	4 133 9 is_stmt 1               @ ../Middlewares/CMSIS/DSP/Src/FastMathFunctions/arm_atan2_q31.c:133:9
	ldrsh.w	r0, [sp, #66]
.Ltmp453:
	.loc	4 133 9 is_stmt 0               @ ../Middlewares/CMSIS/DSP/Src/FastMathFunctions/arm_atan2_q31.c:133:9
	cmp	r0, #0
	bmi	.LBB21_95
	b	.LBB21_91
.LBB21_91:
.Ltmp454:
	.loc	4 135 42 is_stmt 1              @ ../Middlewares/CMSIS/DSP/Src/FastMathFunctions/arm_atan2_q31.c:135:42
	ldr	r1, [sp, #68]
	asrs	r0, r1, #31
	.loc	4 135 51 is_stmt 0              @ ../Middlewares/CMSIS/DSP/Src/FastMathFunctions/arm_atan2_q31.c:135:51
	ldrsh.w	r3, [sp, #66]
	.loc	4 135 48                        @ ../Middlewares/CMSIS/DSP/Src/FastMathFunctions/arm_atan2_q31.c:135:48
	lsl.w	r2, r0, r3
	rsb.w	r0, r3, #32
	lsr.w	r0, r1, r0
	orrs	r0, r2
	sub.w	r2, r3, #32
	lsl.w	r12, r1, r2
	cmp	r2, #0
	it	pl
	movpl	r0, r12
	lsls	r1, r3
	cmp	r2, #0
	it	pl
	movpl	r1, #0
	str	r1, [sp, #200]
	str	r0, [sp, #204]
.Ltmp455:
	.loc	24 139 22 is_stmt 1             @ ../Middlewares/CMSIS/DSP/Inc\dsp/none.h:139:22
	ldr	r1, [sp, #200]
	ldr	r0, [sp, #204]
	.loc	24 139 12 is_stmt 0             @ ../Middlewares/CMSIS/DSP/Inc\dsp/none.h:139:12
	cmp.w	r0, r1, asr #31
	beq	.LBB21_93
	b	.LBB21_92
.LBB21_92:
	.loc	24 140 32 is_stmt 1             @ ../Middlewares/CMSIS/DSP/Inc\dsp/none.h:140:32
	ldr	r1, [sp, #204]
	mvn	r0, #-2147483648
	.loc	24 140 20 is_stmt 0             @ ../Middlewares/CMSIS/DSP/Inc\dsp/none.h:140:20
	eor.w	r0, r0, r1, asr #31
	.loc	24 139 12 is_stmt 1             @ ../Middlewares/CMSIS/DSP/Inc\dsp/none.h:139:12
	str	r0, [sp, #8]                    @ 4-byte Spill
	b	.LBB21_94
.LBB21_93:
	.loc	24 140 54                       @ ../Middlewares/CMSIS/DSP/Inc\dsp/none.h:140:54
	ldr	r0, [sp, #200]
	.loc	24 139 12                       @ ../Middlewares/CMSIS/DSP/Inc\dsp/none.h:139:12
	str	r0, [sp, #8]                    @ 4-byte Spill
	b	.LBB21_94
.LBB21_94:                              @ %clip_q63_to_q31.exit7
	ldr	r0, [sp, #8]                    @ 4-byte Reload
.Ltmp456:
	.loc	4 135 16                        @ ../Middlewares/CMSIS/DSP/Src/FastMathFunctions/arm_atan2_q31.c:135:16
	str	r0, [sp, #68]
	.loc	4 136 5                         @ ../Middlewares/CMSIS/DSP/Src/FastMathFunctions/arm_atan2_q31.c:136:5
	b	.LBB21_96
.Ltmp457:
.LBB21_95:
	.loc	4 139 19                        @ ../Middlewares/CMSIS/DSP/Src/FastMathFunctions/arm_atan2_q31.c:139:19
	ldr	r0, [sp, #68]
	.loc	4 139 29 is_stmt 0              @ ../Middlewares/CMSIS/DSP/Src/FastMathFunctions/arm_atan2_q31.c:139:29
	ldrsh.w	r1, [sp, #66]
	.loc	4 139 28                        @ ../Middlewares/CMSIS/DSP/Src/FastMathFunctions/arm_atan2_q31.c:139:28
	rsbs	r1, r1, #0
	.loc	4 139 25                        @ ../Middlewares/CMSIS/DSP/Src/FastMathFunctions/arm_atan2_q31.c:139:25
	asrs	r0, r1
	.loc	4 139 16                        @ ../Middlewares/CMSIS/DSP/Src/FastMathFunctions/arm_atan2_q31.c:139:16
	str	r0, [sp, #68]
	b	.LBB21_96
.Ltmp458:
.LBB21_96:
	.loc	4 143 32 is_stmt 1              @ ../Middlewares/CMSIS/DSP/Src/FastMathFunctions/arm_atan2_q31.c:143:32
	ldr	r0, [sp, #68]
	str	r0, [sp, #388]
	mov.w	r0, #-1
.Ltmp459:
	.loc	4 64 11                         @ ../Middlewares/CMSIS/DSP/Src/FastMathFunctions/arm_atan2_q31.c:64:11
	str	r0, [sp, #380]
	movw	r0, #49236
	movt	r0, #64987
	str	r0, [sp, #376]
	movs	r0, #1
	.loc	4 65 9                          @ ../Middlewares/CMSIS/DSP/Src/FastMathFunctions/arm_atan2_q31.c:65:9
	str	r0, [sp, #372]
.Ltmp460:
	.loc	4 66 10                         @ ../Middlewares/CMSIS/DSP/Src/FastMathFunctions/arm_atan2_q31.c:66:10
	str	r0, [sp, #372]
	.loc	4 66 9 is_stmt 0                @ ../Middlewares/CMSIS/DSP/Src/FastMathFunctions/arm_atan2_q31.c:66:9
	b	.LBB21_97
.LBB21_97:                              @ =>This Inner Loop Header: Depth=1
.Ltmp461:
	.loc	4 66 13                         @ ../Middlewares/CMSIS/DSP/Src/FastMathFunctions/arm_atan2_q31.c:66:13
	ldr	r0, [sp, #372]
.Ltmp462:
	.loc	4 66 5                          @ ../Middlewares/CMSIS/DSP/Src/FastMathFunctions/arm_atan2_q31.c:66:5
	cmp	r0, #12
	bgt	.LBB21_99
	b	.LBB21_98
.LBB21_98:                              @   in Loop: Header=BB21_97 Depth=1
.Ltmp463:
	.loc	4 68 24 is_stmt 1               @ ../Middlewares/CMSIS/DSP/Src/FastMathFunctions/arm_atan2_q31.c:68:24
	ldr	r3, [sp, #388]
	asrs	r1, r3, #31
	.loc	4 68 28 is_stmt 0               @ ../Middlewares/CMSIS/DSP/Src/FastMathFunctions/arm_atan2_q31.c:68:28
	ldr	r2, [sp, #376]
	ldr.w	r12, [sp, #380]
	.loc	4 68 26                         @ ../Middlewares/CMSIS/DSP/Src/FastMathFunctions/arm_atan2_q31.c:68:26
	umull	r0, lr, r3, r2
	mla	r3, r3, r12, lr
	mla	r1, r1, r2, r3
	.loc	4 68 33                         @ ../Middlewares/CMSIS/DSP/Src/FastMathFunctions/arm_atan2_q31.c:68:33
	lsrs	r0, r0, #31
	orr.w	r0, r0, r1, lsl #1
	asrs	r1, r1, #31
	.loc	4 68 13                         @ ../Middlewares/CMSIS/DSP/Src/FastMathFunctions/arm_atan2_q31.c:68:13
	str	r1, [sp, #380]
	str	r0, [sp, #376]
	.loc	4 69 15 is_stmt 1               @ ../Middlewares/CMSIS/DSP/Src/FastMathFunctions/arm_atan2_q31.c:69:15
	ldr	r1, [sp, #376]
	ldr	r0, [sp, #380]
	.loc	4 69 52 is_stmt 0               @ ../Middlewares/CMSIS/DSP/Src/FastMathFunctions/arm_atan2_q31.c:69:52
	ldr	r2, [sp, #372]
	.loc	4 69 51                         @ ../Middlewares/CMSIS/DSP/Src/FastMathFunctions/arm_atan2_q31.c:69:51
	rsb.w	r3, r2, #12
	.loc	4 69 30                         @ ../Middlewares/CMSIS/DSP/Src/FastMathFunctions/arm_atan2_q31.c:69:30
	movw	r2, :lower16:atan2_coefs_q31
	movt	r2, :upper16:atan2_coefs_q31
	ldr.w	r2, [r2, r3, lsl #2]
	.loc	4 69 19                         @ ../Middlewares/CMSIS/DSP/Src/FastMathFunctions/arm_atan2_q31.c:69:19
	adds	r1, r1, r2
	adc.w	r0, r0, r2, asr #31
	.loc	4 69 13                         @ ../Middlewares/CMSIS/DSP/Src/FastMathFunctions/arm_atan2_q31.c:69:13
	str	r1, [sp, #376]
	str	r0, [sp, #380]
.Ltmp464:
	.loc	4 66 19 is_stmt 1               @ ../Middlewares/CMSIS/DSP/Src/FastMathFunctions/arm_atan2_q31.c:66:19
	ldr	r0, [sp, #372]
	adds	r0, #1
	str	r0, [sp, #372]
	.loc	4 66 5 is_stmt 0                @ ../Middlewares/CMSIS/DSP/Src/FastMathFunctions/arm_atan2_q31.c:66:5
	b	.LBB21_97
.Ltmp465:
.LBB21_99:
	.loc	4 72 28 is_stmt 1               @ ../Middlewares/CMSIS/DSP/Src/FastMathFunctions/arm_atan2_q31.c:72:28
	ldr	r0, [sp, #376]
	ldr	r1, [sp, #380]
	.loc	4 72 31 is_stmt 0               @ ../Middlewares/CMSIS/DSP/Src/FastMathFunctions/arm_atan2_q31.c:72:31
	lsrs	r0, r0, #2
	orr.w	r0, r0, r1, lsl #30
	asrs	r1, r1, #2
	str	r1, [sp, #396]
	str	r0, [sp, #392]
.Ltmp466:
	.loc	24 139 22 is_stmt 1             @ ../Middlewares/CMSIS/DSP/Inc\dsp/none.h:139:22
	ldr	r1, [sp, #392]
	ldr	r0, [sp, #396]
	.loc	24 139 12 is_stmt 0             @ ../Middlewares/CMSIS/DSP/Inc\dsp/none.h:139:12
	cmp.w	r0, r1, asr #31
	beq	.LBB21_101
	b	.LBB21_100
.LBB21_100:
	.loc	24 140 32 is_stmt 1             @ ../Middlewares/CMSIS/DSP/Inc\dsp/none.h:140:32
	ldr	r1, [sp, #396]
	mvn	r0, #-2147483648
	.loc	24 140 20 is_stmt 0             @ ../Middlewares/CMSIS/DSP/Inc\dsp/none.h:140:20
	eor.w	r0, r0, r1, asr #31
	.loc	24 139 12 is_stmt 1             @ ../Middlewares/CMSIS/DSP/Inc\dsp/none.h:139:12
	str	r0, [sp, #4]                    @ 4-byte Spill
	b	.LBB21_102
.LBB21_101:
	.loc	24 140 54                       @ ../Middlewares/CMSIS/DSP/Inc\dsp/none.h:140:54
	ldr	r0, [sp, #392]
	.loc	24 139 12                       @ ../Middlewares/CMSIS/DSP/Inc\dsp/none.h:139:12
	str	r0, [sp, #4]                    @ 4-byte Spill
	b	.LBB21_102
.LBB21_102:                             @ %arm_atan_limited_q31.exit12
	ldr	r0, [sp, #4]                    @ 4-byte Reload
.Ltmp467:
	.loc	4 143 9                         @ ../Middlewares/CMSIS/DSP/Src/FastMathFunctions/arm_atan2_q31.c:143:9
	str	r0, [sp, #80]
	b	.LBB21_103
.Ltmp468:
.LBB21_103:
	.loc	4 148 8                         @ ../Middlewares/CMSIS/DSP/Src/FastMathFunctions/arm_atan2_q31.c:148:8
	ldr	r0, [sp, #84]
.Ltmp469:
	.loc	4 148 8 is_stmt 0               @ ../Middlewares/CMSIS/DSP/Src/FastMathFunctions/arm_atan2_q31.c:148:8
	cbz	r0, .LBB21_105
	b	.LBB21_104
.LBB21_104:
.Ltmp470:
	.loc	4 152 34 is_stmt 1              @ ../Middlewares/CMSIS/DSP/Src/FastMathFunctions/arm_atan2_q31.c:152:34
	ldr	r1, [sp, #80]
	movs	r0, #0
	.loc	4 152 12 is_stmt 0              @ ../Middlewares/CMSIS/DSP/Src/FastMathFunctions/arm_atan2_q31.c:152:12
	qsub	r0, r0, r1
	.loc	4 152 10                        @ ../Middlewares/CMSIS/DSP/Src/FastMathFunctions/arm_atan2_q31.c:152:10
	str	r0, [sp, #80]
	.loc	4 156 4 is_stmt 1               @ ../Middlewares/CMSIS/DSP/Src/FastMathFunctions/arm_atan2_q31.c:156:4
	b	.LBB21_105
.Ltmp471:
.LBB21_105:                             @ %arm_atan_q31.exit
	.loc	4 158 11                        @ ../Middlewares/CMSIS/DSP/Src/FastMathFunctions/arm_atan2_q31.c:158:11
	ldr	r0, [sp, #80]
	movw	r1, #4783
	movt	r1, #39800
.Ltmp472:
	.loc	4 200 38                        @ ../Middlewares/CMSIS/DSP/Src/FastMathFunctions/arm_atan2_q31.c:200:38
	add	r0, r1
	.loc	4 200 13 is_stmt 0              @ ../Middlewares/CMSIS/DSP/Src/FastMathFunctions/arm_atan2_q31.c:200:13
	ldr	r1, [sp, #52]
	.loc	4 200 19                        @ ../Middlewares/CMSIS/DSP/Src/FastMathFunctions/arm_atan2_q31.c:200:19
	str	r0, [r1]
	.loc	4 201 9 is_stmt 1               @ ../Middlewares/CMSIS/DSP/Src/FastMathFunctions/arm_atan2_q31.c:201:9
	b	.LBB21_110
.Ltmp473:
.LBB21_106:
	.loc	4 204 17                        @ ../Middlewares/CMSIS/DSP/Src/FastMathFunctions/arm_atan2_q31.c:204:17
	ldr	r0, [sp, #60]
.Ltmp474:
	.loc	4 204 17 is_stmt 0              @ ../Middlewares/CMSIS/DSP/Src/FastMathFunctions/arm_atan2_q31.c:204:17
	cmp.w	r0, #-1
	bgt	.LBB21_108
	b	.LBB21_107
.LBB21_107:
.Ltmp475:
	.loc	4 206 17 is_stmt 1              @ ../Middlewares/CMSIS/DSP/Src/FastMathFunctions/arm_atan2_q31.c:206:17
	ldr	r1, [sp, #52]
	movw	r0, #4783
	movt	r0, #39800
	.loc	4 206 23 is_stmt 0              @ ../Middlewares/CMSIS/DSP/Src/FastMathFunctions/arm_atan2_q31.c:206:23
	str	r0, [r1]
	.loc	4 207 13 is_stmt 1              @ ../Middlewares/CMSIS/DSP/Src/FastMathFunctions/arm_atan2_q31.c:207:13
	b	.LBB21_109
.Ltmp476:
.LBB21_108:
	.loc	4 210 17                        @ ../Middlewares/CMSIS/DSP/Src/FastMathFunctions/arm_atan2_q31.c:210:17
	ldr	r1, [sp, #52]
	movw	r0, #60753
	movt	r0, #25735
	.loc	4 210 23 is_stmt 0              @ ../Middlewares/CMSIS/DSP/Src/FastMathFunctions/arm_atan2_q31.c:210:23
	str	r0, [r1]
	b	.LBB21_109
.Ltmp477:
.LBB21_109:
	.loc	4 0 23                          @ ../Middlewares/CMSIS/DSP/Src/FastMathFunctions/arm_atan2_q31.c:0:23
	b	.LBB21_110
.LBB21_110:
	b	.LBB21_111
.LBB21_111:
	movs	r0, #0
	.loc	4 213 9 is_stmt 1               @ ../Middlewares/CMSIS/DSP/Src/FastMathFunctions/arm_atan2_q31.c:213:9
	strb.w	r0, [sp, #65]
	b	.LBB21_119
.Ltmp478:
.LBB21_112:
	.loc	4 215 9                         @ ../Middlewares/CMSIS/DSP/Src/FastMathFunctions/arm_atan2_q31.c:215:9
	ldr	r0, [sp, #56]
.Ltmp479:
	.loc	4 215 9 is_stmt 0               @ ../Middlewares/CMSIS/DSP/Src/FastMathFunctions/arm_atan2_q31.c:215:9
	cbnz	r0, .LBB21_118
	b	.LBB21_113
.LBB21_113:
.Ltmp480:
	.loc	4 217 13 is_stmt 1              @ ../Middlewares/CMSIS/DSP/Src/FastMathFunctions/arm_atan2_q31.c:217:13
	ldr	r0, [sp, #60]
.Ltmp481:
	.loc	4 217 13 is_stmt 0              @ ../Middlewares/CMSIS/DSP/Src/FastMathFunctions/arm_atan2_q31.c:217:13
	cmp	r0, #1
	blt	.LBB21_115
	b	.LBB21_114
.LBB21_114:
.Ltmp482:
	.loc	4 219 14 is_stmt 1              @ ../Middlewares/CMSIS/DSP/Src/FastMathFunctions/arm_atan2_q31.c:219:14
	ldr	r1, [sp, #52]
	movw	r0, #63145
	movt	r0, #12867
	.loc	4 219 20 is_stmt 0              @ ../Middlewares/CMSIS/DSP/Src/FastMathFunctions/arm_atan2_q31.c:219:20
	str	r0, [r1]
	movs	r0, #0
	.loc	4 220 13 is_stmt 1              @ ../Middlewares/CMSIS/DSP/Src/FastMathFunctions/arm_atan2_q31.c:220:13
	strb.w	r0, [sp, #65]
	b	.LBB21_119
.Ltmp483:
.LBB21_115:
	.loc	4 222 13                        @ ../Middlewares/CMSIS/DSP/Src/FastMathFunctions/arm_atan2_q31.c:222:13
	ldr	r0, [sp, #60]
.Ltmp484:
	.loc	4 222 13 is_stmt 0              @ ../Middlewares/CMSIS/DSP/Src/FastMathFunctions/arm_atan2_q31.c:222:13
	cmp.w	r0, #-1
	bgt	.LBB21_117
	b	.LBB21_116
.LBB21_116:
.Ltmp485:
	.loc	4 224 14 is_stmt 1              @ ../Middlewares/CMSIS/DSP/Src/FastMathFunctions/arm_atan2_q31.c:224:14
	ldr	r1, [sp, #52]
	movw	r0, #2391
	movt	r0, #52668
	.loc	4 224 20 is_stmt 0              @ ../Middlewares/CMSIS/DSP/Src/FastMathFunctions/arm_atan2_q31.c:224:20
	str	r0, [r1]
	movs	r0, #0
	.loc	4 225 13 is_stmt 1              @ ../Middlewares/CMSIS/DSP/Src/FastMathFunctions/arm_atan2_q31.c:225:13
	strb.w	r0, [sp, #65]
	b	.LBB21_119
.Ltmp486:
.LBB21_117:
	.loc	4 227 5                         @ ../Middlewares/CMSIS/DSP/Src/FastMathFunctions/arm_atan2_q31.c:227:5
	b	.LBB21_118
.Ltmp487:
.LBB21_118:
	.loc	4 0 5 is_stmt 0                 @ ../Middlewares/CMSIS/DSP/Src/FastMathFunctions/arm_atan2_q31.c:0:5
	movs	r0, #252
	.loc	4 230 5 is_stmt 1               @ ../Middlewares/CMSIS/DSP/Src/FastMathFunctions/arm_atan2_q31.c:230:5
	strb.w	r0, [sp, #65]
	b	.LBB21_119
.LBB21_119:
	.loc	4 232 1                         @ ../Middlewares/CMSIS/DSP/Src/FastMathFunctions/arm_atan2_q31.c:232:1
	ldrsb.w	r0, [sp, #65]
	add	sp, #400
	pop	{r7, pc}
.Ltmp488:
.Lfunc_end21:
	.size	arm_atan2_q31, .Lfunc_end21-arm_atan2_q31
	.cfi_endproc
	.cantunwind
	.fnend
                                        @ -- End function
	.section	.text.arm_atan2_q15,"ax",%progbits
	.hidden	arm_atan2_q15                   @ -- Begin function arm_atan2_q15
	.globl	arm_atan2_q15
	.p2align	2
	.type	arm_atan2_q15,%function
	.code	16                              @ @arm_atan2_q15
	.thumb_func
arm_atan2_q15:
.Lfunc_begin22:
	.loc	5 186 0                         @ ../Middlewares/CMSIS/DSP/Src/FastMathFunctions/arm_atan2_q15.c:186:0
	.fnstart
	.cfi_startproc
@ %bb.0:
	.save	{r7, lr}
	push	{r7, lr}
	.cfi_def_cfa_offset 8
	.cfi_offset lr, -4
	.cfi_offset r7, -8
	.pad	#144
	sub	sp, #144
	.cfi_def_cfa_offset 152
                                        @ kill: def $r3 killed $r1
                                        @ kill: def $r3 killed $r0
	strh.w	r0, [sp, #10]
	strh.w	r1, [sp, #8]
	str	r2, [sp, #4]
.Ltmp489:
	.loc	5 187 9 prologue_end            @ ../Middlewares/CMSIS/DSP/Src/FastMathFunctions/arm_atan2_q15.c:187:9
	ldrsh.w	r0, [sp, #8]
.Ltmp490:
	.loc	5 187 9 is_stmt 0               @ ../Middlewares/CMSIS/DSP/Src/FastMathFunctions/arm_atan2_q15.c:187:9
	cmp	r0, #1
	blt.w	.LBB22_23
	b	.LBB22_1
.LBB22_1:
.Ltmp491:
	.loc	5 189 30 is_stmt 1              @ ../Middlewares/CMSIS/DSP/Src/FastMathFunctions/arm_atan2_q15.c:189:30
	ldrh.w	r1, [sp, #10]
	.loc	5 189 32 is_stmt 0              @ ../Middlewares/CMSIS/DSP/Src/FastMathFunctions/arm_atan2_q15.c:189:32
	ldrh.w	r0, [sp, #8]
	strh.w	r1, [sp, #70]
	strh.w	r0, [sp, #68]
	movs	r0, #0
.Ltmp492:
	.loc	5 78 8 is_stmt 1                @ ../Middlewares/CMSIS/DSP/Src/FastMathFunctions/arm_atan2_q15.c:78:8
	str	r0, [sp, #64]
	.loc	5 79 10                         @ ../Middlewares/CMSIS/DSP/Src/FastMathFunctions/arm_atan2_q15.c:79:10
	strh.w	r0, [sp, #62]
.Ltmp493:
	.loc	5 81 8                          @ ../Middlewares/CMSIS/DSP/Src/FastMathFunctions/arm_atan2_q15.c:81:8
	ldrsh.w	r0, [sp, #70]
.Ltmp494:
	.loc	5 81 8 is_stmt 0                @ ../Middlewares/CMSIS/DSP/Src/FastMathFunctions/arm_atan2_q15.c:81:8
	cmp.w	r0, #-1
	bgt	.LBB22_3
	b	.LBB22_2
.LBB22_2:
.Ltmp495:
	.loc	5 85 34 is_stmt 1               @ ../Middlewares/CMSIS/DSP/Src/FastMathFunctions/arm_atan2_q15.c:85:34
	ldrsh.w	r1, [sp, #70]
	movs	r0, #0
	.loc	5 85 10 is_stmt 0               @ ../Middlewares/CMSIS/DSP/Src/FastMathFunctions/arm_atan2_q15.c:85:10
	qsub16	r0, r0, r1
	.loc	5 85 8                          @ ../Middlewares/CMSIS/DSP/Src/FastMathFunctions/arm_atan2_q15.c:85:8
	strh.w	r0, [sp, #70]
	.loc	5 90 13 is_stmt 1               @ ../Middlewares/CMSIS/DSP/Src/FastMathFunctions/arm_atan2_q15.c:90:13
	ldr	r0, [sp, #64]
	.loc	5 90 12 is_stmt 0               @ ../Middlewares/CMSIS/DSP/Src/FastMathFunctions/arm_atan2_q15.c:90:12
	rsb.w	r0, r0, #1
	.loc	5 90 10                         @ ../Middlewares/CMSIS/DSP/Src/FastMathFunctions/arm_atan2_q15.c:90:10
	str	r0, [sp, #64]
	.loc	5 91 4 is_stmt 1                @ ../Middlewares/CMSIS/DSP/Src/FastMathFunctions/arm_atan2_q15.c:91:4
	b	.LBB22_3
.Ltmp496:
.LBB22_3:
	.loc	5 93 8                          @ ../Middlewares/CMSIS/DSP/Src/FastMathFunctions/arm_atan2_q15.c:93:8
	ldrsh.w	r0, [sp, #68]
.Ltmp497:
	.loc	5 93 8 is_stmt 0                @ ../Middlewares/CMSIS/DSP/Src/FastMathFunctions/arm_atan2_q15.c:93:8
	cmp.w	r0, #-1
	bgt	.LBB22_5
	b	.LBB22_4
.LBB22_4:
.Ltmp498:
	.loc	5 95 16 is_stmt 1               @ ../Middlewares/CMSIS/DSP/Src/FastMathFunctions/arm_atan2_q15.c:95:16
	ldr	r0, [sp, #64]
	.loc	5 95 14 is_stmt 0               @ ../Middlewares/CMSIS/DSP/Src/FastMathFunctions/arm_atan2_q15.c:95:14
	rsb.w	r0, r0, #1
	.loc	5 95 11                         @ ../Middlewares/CMSIS/DSP/Src/FastMathFunctions/arm_atan2_q15.c:95:11
	str	r0, [sp, #64]
	.loc	5 99 34 is_stmt 1               @ ../Middlewares/CMSIS/DSP/Src/FastMathFunctions/arm_atan2_q15.c:99:34
	ldrsh.w	r1, [sp, #68]
	movs	r0, #0
	.loc	5 99 10 is_stmt 0               @ ../Middlewares/CMSIS/DSP/Src/FastMathFunctions/arm_atan2_q15.c:99:10
	qsub16	r0, r0, r1
	.loc	5 99 8                          @ ../Middlewares/CMSIS/DSP/Src/FastMathFunctions/arm_atan2_q15.c:99:8
	strh.w	r0, [sp, #68]
	.loc	5 103 4 is_stmt 1               @ ../Middlewares/CMSIS/DSP/Src/FastMathFunctions/arm_atan2_q15.c:103:4
	b	.LBB22_5
.Ltmp499:
.LBB22_5:
	.loc	5 105 8                         @ ../Middlewares/CMSIS/DSP/Src/FastMathFunctions/arm_atan2_q15.c:105:8
	ldrsh.w	r0, [sp, #70]
	.loc	5 105 12 is_stmt 0              @ ../Middlewares/CMSIS/DSP/Src/FastMathFunctions/arm_atan2_q15.c:105:12
	ldrsh.w	r1, [sp, #68]
.Ltmp500:
	.loc	5 105 8                         @ ../Middlewares/CMSIS/DSP/Src/FastMathFunctions/arm_atan2_q15.c:105:8
	cmp	r0, r1
	ble	.LBB22_13
	b	.LBB22_6
.LBB22_6:
.Ltmp501:
	.loc	5 110 20 is_stmt 1              @ ../Middlewares/CMSIS/DSP/Src/FastMathFunctions/arm_atan2_q15.c:110:20
	ldrsh.w	r0, [sp, #68]
	.loc	5 110 22 is_stmt 0              @ ../Middlewares/CMSIS/DSP/Src/FastMathFunctions/arm_atan2_q15.c:110:22
	ldrsh.w	r1, [sp, #70]
	add	r2, sp, #60
	add.w	r3, sp, #58
	.loc	5 110 5                         @ ../Middlewares/CMSIS/DSP/Src/FastMathFunctions/arm_atan2_q15.c:110:5
	bl	arm_divide_q15
.Ltmp502:
	.loc	5 113 9 is_stmt 1               @ ../Middlewares/CMSIS/DSP/Src/FastMathFunctions/arm_atan2_q15.c:113:9
	ldrsh.w	r0, [sp, #58]
.Ltmp503:
	.loc	5 113 9 is_stmt 0               @ ../Middlewares/CMSIS/DSP/Src/FastMathFunctions/arm_atan2_q15.c:113:9
	cmp	r0, #0
	bmi	.LBB22_8
	b	.LBB22_7
.LBB22_7:
.Ltmp504:
	.loc	5 115 44 is_stmt 1              @ ../Middlewares/CMSIS/DSP/Src/FastMathFunctions/arm_atan2_q15.c:115:44
	ldrsh.w	r0, [sp, #60]
	.loc	5 115 53 is_stmt 0              @ ../Middlewares/CMSIS/DSP/Src/FastMathFunctions/arm_atan2_q15.c:115:53
	ldrsh.w	r1, [sp, #58]
	.loc	5 115 50                        @ ../Middlewares/CMSIS/DSP/Src/FastMathFunctions/arm_atan2_q15.c:115:50
	lsls	r0, r1
	.loc	5 115 16                        @ ../Middlewares/CMSIS/DSP/Src/FastMathFunctions/arm_atan2_q15.c:115:16
	ssat	r0, #16, r0
	.loc	5 115 14                        @ ../Middlewares/CMSIS/DSP/Src/FastMathFunctions/arm_atan2_q15.c:115:14
	strh.w	r0, [sp, #60]
	.loc	5 116 5 is_stmt 1               @ ../Middlewares/CMSIS/DSP/Src/FastMathFunctions/arm_atan2_q15.c:116:5
	b	.LBB22_9
.Ltmp505:
.LBB22_8:
	.loc	5 119 17                        @ ../Middlewares/CMSIS/DSP/Src/FastMathFunctions/arm_atan2_q15.c:119:17
	ldrsh.w	r0, [sp, #60]
	.loc	5 119 27 is_stmt 0              @ ../Middlewares/CMSIS/DSP/Src/FastMathFunctions/arm_atan2_q15.c:119:27
	ldrsh.w	r1, [sp, #58]
	.loc	5 119 26                        @ ../Middlewares/CMSIS/DSP/Src/FastMathFunctions/arm_atan2_q15.c:119:26
	rsbs	r1, r1, #0
	.loc	5 119 23                        @ ../Middlewares/CMSIS/DSP/Src/FastMathFunctions/arm_atan2_q15.c:119:23
	asrs	r0, r1
	.loc	5 119 14                        @ ../Middlewares/CMSIS/DSP/Src/FastMathFunctions/arm_atan2_q15.c:119:14
	strh.w	r0, [sp, #60]
	b	.LBB22_9
.Ltmp506:
.LBB22_9:
	.loc	5 122 41 is_stmt 1              @ ../Middlewares/CMSIS/DSP/Src/FastMathFunctions/arm_atan2_q15.c:122:41
	ldrh.w	r0, [sp, #60]
	strh.w	r0, [sp, #82]
	movw	r0, #64475
	movt	r0, #65535
.Ltmp507:
	.loc	5 61 11                         @ ../Middlewares/CMSIS/DSP/Src/FastMathFunctions/arm_atan2_q15.c:61:11
	str	r0, [sp, #76]
	movs	r0, #1
	.loc	5 62 9                          @ ../Middlewares/CMSIS/DSP/Src/FastMathFunctions/arm_atan2_q15.c:62:9
	str	r0, [sp, #72]
.Ltmp508:
	.loc	5 63 10                         @ ../Middlewares/CMSIS/DSP/Src/FastMathFunctions/arm_atan2_q15.c:63:10
	str	r0, [sp, #72]
	.loc	5 63 9 is_stmt 0                @ ../Middlewares/CMSIS/DSP/Src/FastMathFunctions/arm_atan2_q15.c:63:9
	b	.LBB22_10
.LBB22_10:                              @ =>This Inner Loop Header: Depth=1
.Ltmp509:
	.loc	5 63 13                         @ ../Middlewares/CMSIS/DSP/Src/FastMathFunctions/arm_atan2_q15.c:63:13
	ldr	r0, [sp, #72]
.Ltmp510:
	.loc	5 63 5                          @ ../Middlewares/CMSIS/DSP/Src/FastMathFunctions/arm_atan2_q15.c:63:5
	cmp	r0, #9
	bgt	.LBB22_12
	b	.LBB22_11
.LBB22_11:                              @   in Loop: Header=BB22_10 Depth=1
.Ltmp511:
	.loc	5 65 24 is_stmt 1               @ ../Middlewares/CMSIS/DSP/Src/FastMathFunctions/arm_atan2_q15.c:65:24
	ldrsh.w	r0, [sp, #82]
	.loc	5 65 28 is_stmt 0               @ ../Middlewares/CMSIS/DSP/Src/FastMathFunctions/arm_atan2_q15.c:65:28
	ldr	r1, [sp, #76]
	.loc	5 65 26                         @ ../Middlewares/CMSIS/DSP/Src/FastMathFunctions/arm_atan2_q15.c:65:26
	muls	r0, r1, r0
	.loc	5 65 33                         @ ../Middlewares/CMSIS/DSP/Src/FastMathFunctions/arm_atan2_q15.c:65:33
	asrs	r0, r0, #15
	.loc	5 65 13                         @ ../Middlewares/CMSIS/DSP/Src/FastMathFunctions/arm_atan2_q15.c:65:13
	str	r0, [sp, #76]
	.loc	5 66 15 is_stmt 1               @ ../Middlewares/CMSIS/DSP/Src/FastMathFunctions/arm_atan2_q15.c:66:15
	ldr	r0, [sp, #76]
	.loc	5 66 52 is_stmt 0               @ ../Middlewares/CMSIS/DSP/Src/FastMathFunctions/arm_atan2_q15.c:66:52
	ldr	r1, [sp, #72]
	.loc	5 66 51                         @ ../Middlewares/CMSIS/DSP/Src/FastMathFunctions/arm_atan2_q15.c:66:51
	rsb.w	r2, r1, #9
	.loc	5 66 30                         @ ../Middlewares/CMSIS/DSP/Src/FastMathFunctions/arm_atan2_q15.c:66:30
	movw	r1, :lower16:atan2_coefs_q15
	movt	r1, :upper16:atan2_coefs_q15
	ldrsh.w	r1, [r1, r2, lsl #1]
	.loc	5 66 19                         @ ../Middlewares/CMSIS/DSP/Src/FastMathFunctions/arm_atan2_q15.c:66:19
	add	r0, r1
	.loc	5 66 13                         @ ../Middlewares/CMSIS/DSP/Src/FastMathFunctions/arm_atan2_q15.c:66:13
	str	r0, [sp, #76]
.Ltmp512:
	.loc	5 63 19 is_stmt 1               @ ../Middlewares/CMSIS/DSP/Src/FastMathFunctions/arm_atan2_q15.c:63:19
	ldr	r0, [sp, #72]
	adds	r0, #1
	str	r0, [sp, #72]
	.loc	5 63 5 is_stmt 0                @ ../Middlewares/CMSIS/DSP/Src/FastMathFunctions/arm_atan2_q15.c:63:5
	b	.LBB22_10
.Ltmp513:
.LBB22_12:                              @ %arm_atan_limited_q15.exit
	.loc	5 69 30 is_stmt 1               @ ../Middlewares/CMSIS/DSP/Src/FastMathFunctions/arm_atan2_q15.c:69:30
	ldr	r0, [sp, #76]
	.loc	5 69 11 is_stmt 0               @ ../Middlewares/CMSIS/DSP/Src/FastMathFunctions/arm_atan2_q15.c:69:11
	ssat	r0, #16, r0, asr #2
	.loc	5 69 9                          @ ../Middlewares/CMSIS/DSP/Src/FastMathFunctions/arm_atan2_q15.c:69:9
	str	r0, [sp, #76]
	.loc	5 72 12 is_stmt 1               @ ../Middlewares/CMSIS/DSP/Src/FastMathFunctions/arm_atan2_q15.c:72:12
	ldr	r1, [sp, #76]
	movw	r0, #12868
.Ltmp514:
	.loc	5 122 18                        @ ../Middlewares/CMSIS/DSP/Src/FastMathFunctions/arm_atan2_q15.c:122:18
	subs	r0, r0, r1
	.loc	5 122 9 is_stmt 0               @ ../Middlewares/CMSIS/DSP/Src/FastMathFunctions/arm_atan2_q15.c:122:9
	strh.w	r0, [sp, #62]
	.loc	5 124 4 is_stmt 1               @ ../Middlewares/CMSIS/DSP/Src/FastMathFunctions/arm_atan2_q15.c:124:4
	b	.LBB22_20
.Ltmp515:
.LBB22_13:
	.loc	5 130 20                        @ ../Middlewares/CMSIS/DSP/Src/FastMathFunctions/arm_atan2_q15.c:130:20
	ldrsh.w	r0, [sp, #70]
	.loc	5 130 22 is_stmt 0              @ ../Middlewares/CMSIS/DSP/Src/FastMathFunctions/arm_atan2_q15.c:130:22
	ldrsh.w	r1, [sp, #68]
	add	r2, sp, #56
	add.w	r3, sp, #54
	.loc	5 130 5                         @ ../Middlewares/CMSIS/DSP/Src/FastMathFunctions/arm_atan2_q15.c:130:5
	bl	arm_divide_q15
.Ltmp516:
	.loc	5 133 9 is_stmt 1               @ ../Middlewares/CMSIS/DSP/Src/FastMathFunctions/arm_atan2_q15.c:133:9
	ldrsh.w	r0, [sp, #54]
.Ltmp517:
	.loc	5 133 9 is_stmt 0               @ ../Middlewares/CMSIS/DSP/Src/FastMathFunctions/arm_atan2_q15.c:133:9
	cmp	r0, #0
	bmi	.LBB22_15
	b	.LBB22_14
.LBB22_14:
.Ltmp518:
	.loc	5 135 44 is_stmt 1              @ ../Middlewares/CMSIS/DSP/Src/FastMathFunctions/arm_atan2_q15.c:135:44
	ldrsh.w	r0, [sp, #56]
	.loc	5 135 53 is_stmt 0              @ ../Middlewares/CMSIS/DSP/Src/FastMathFunctions/arm_atan2_q15.c:135:53
	ldrsh.w	r1, [sp, #54]
	.loc	5 135 50                        @ ../Middlewares/CMSIS/DSP/Src/FastMathFunctions/arm_atan2_q15.c:135:50
	lsls	r0, r1
	.loc	5 135 16                        @ ../Middlewares/CMSIS/DSP/Src/FastMathFunctions/arm_atan2_q15.c:135:16
	ssat	r0, #16, r0
	.loc	5 135 14                        @ ../Middlewares/CMSIS/DSP/Src/FastMathFunctions/arm_atan2_q15.c:135:14
	strh.w	r0, [sp, #56]
	.loc	5 136 5 is_stmt 1               @ ../Middlewares/CMSIS/DSP/Src/FastMathFunctions/arm_atan2_q15.c:136:5
	b	.LBB22_16
.Ltmp519:
.LBB22_15:
	.loc	5 139 17                        @ ../Middlewares/CMSIS/DSP/Src/FastMathFunctions/arm_atan2_q15.c:139:17
	ldrsh.w	r0, [sp, #56]
	.loc	5 139 27 is_stmt 0              @ ../Middlewares/CMSIS/DSP/Src/FastMathFunctions/arm_atan2_q15.c:139:27
	ldrsh.w	r1, [sp, #54]
	.loc	5 139 26                        @ ../Middlewares/CMSIS/DSP/Src/FastMathFunctions/arm_atan2_q15.c:139:26
	rsbs	r1, r1, #0
	.loc	5 139 23                        @ ../Middlewares/CMSIS/DSP/Src/FastMathFunctions/arm_atan2_q15.c:139:23
	asrs	r0, r1
	.loc	5 139 14                        @ ../Middlewares/CMSIS/DSP/Src/FastMathFunctions/arm_atan2_q15.c:139:14
	strh.w	r0, [sp, #56]
	b	.LBB22_16
.Ltmp520:
.LBB22_16:
	.loc	5 143 32 is_stmt 1              @ ../Middlewares/CMSIS/DSP/Src/FastMathFunctions/arm_atan2_q15.c:143:32
	ldrh.w	r0, [sp, #56]
	strh.w	r0, [sp, #94]
	movw	r0, #64475
	movt	r0, #65535
.Ltmp521:
	.loc	5 61 11                         @ ../Middlewares/CMSIS/DSP/Src/FastMathFunctions/arm_atan2_q15.c:61:11
	str	r0, [sp, #88]
	movs	r0, #1
	.loc	5 62 9                          @ ../Middlewares/CMSIS/DSP/Src/FastMathFunctions/arm_atan2_q15.c:62:9
	str	r0, [sp, #84]
.Ltmp522:
	.loc	5 63 10                         @ ../Middlewares/CMSIS/DSP/Src/FastMathFunctions/arm_atan2_q15.c:63:10
	str	r0, [sp, #84]
	.loc	5 63 9 is_stmt 0                @ ../Middlewares/CMSIS/DSP/Src/FastMathFunctions/arm_atan2_q15.c:63:9
	b	.LBB22_17
.LBB22_17:                              @ =>This Inner Loop Header: Depth=1
.Ltmp523:
	.loc	5 63 13                         @ ../Middlewares/CMSIS/DSP/Src/FastMathFunctions/arm_atan2_q15.c:63:13
	ldr	r0, [sp, #84]
.Ltmp524:
	.loc	5 63 5                          @ ../Middlewares/CMSIS/DSP/Src/FastMathFunctions/arm_atan2_q15.c:63:5
	cmp	r0, #9
	bgt	.LBB22_19
	b	.LBB22_18
.LBB22_18:                              @   in Loop: Header=BB22_17 Depth=1
.Ltmp525:
	.loc	5 65 24 is_stmt 1               @ ../Middlewares/CMSIS/DSP/Src/FastMathFunctions/arm_atan2_q15.c:65:24
	ldrsh.w	r0, [sp, #94]
	.loc	5 65 28 is_stmt 0               @ ../Middlewares/CMSIS/DSP/Src/FastMathFunctions/arm_atan2_q15.c:65:28
	ldr	r1, [sp, #88]
	.loc	5 65 26                         @ ../Middlewares/CMSIS/DSP/Src/FastMathFunctions/arm_atan2_q15.c:65:26
