	.text
	.syntax unified
	.eabi_attribute	67, "2.09"	@ Tag_conformance
	.cpu	cortex-m4
	.eabi_attribute	6, 13	@ Tag_CPU_arch
	.eabi_attribute	7, 77	@ Tag_CPU_arch_profile
	.eabi_attribute	8, 0	@ Tag_ARM_ISA_use
	.eabi_attribute	9, 2	@ Tag_THUMB_ISA_use
	.fpu	fpv4-sp-d16
	.eabi_attribute	27, 1	@ Tag_ABI_HardFP_use
	.eabi_attribute	36, 1	@ Tag_FP_HP_extension
	.eabi_attribute	34, 1	@ Tag_CPU_unaligned_access
	.eabi_attribute	17, 1	@ Tag_ABI_PCS_GOT_use
	.eabi_attribute	20, 2	@ Tag_ABI_FP_denormal
	.eabi_attribute	21, 0	@ Tag_ABI_FP_exceptions
	.eabi_attribute	23, 1	@ Tag_ABI_FP_number_model
	.eabi_attribute	24, 1	@ Tag_ABI_align_needed
	.eabi_attribute	25, 1	@ Tag_ABI_align_preserved
	.eabi_attribute	28, 1	@ Tag_ABI_VFP_args
	.eabi_attribute	38, 1	@ Tag_ABI_FP_16bit_format
	.eabi_attribute	18, 2	@ Tag_ABI_PCS_wchar_t
	.eabi_attribute	26, 1	@ Tag_ABI_enum_size
	.eabi_attribute	14, 0	@ Tag_ABI_PCS_R9_use
	.file	"FilteringFunctions.c"
	.file	1 "D:\\horizon\\Horizon_Infantry (2)\\MDK-ARM" "../Middlewares/CMSIS/DSP/Inc\\arm_math_types.h"
	.file	2 "D:\\" "kevil\\ARM\\ARMCLANG\\Bin\\..\\include\\stdint.h"
	.section	.text.arm_biquad_cas_df1_32x64_init_q31,"ax",%progbits
	.hidden	arm_biquad_cas_df1_32x64_init_q31 @ -- Begin function arm_biquad_cas_df1_32x64_init_q31
	.globl	arm_biquad_cas_df1_32x64_init_q31
	.p2align	2
	.type	arm_biquad_cas_df1_32x64_init_q31,%function
	.code	16                              @ @arm_biquad_cas_df1_32x64_init_q31
	.thumb_func
arm_biquad_cas_df1_32x64_init_q31:
.Lfunc_begin0:
	.file	3 "D:\\horizon\\Horizon_Infantry (2)\\MDK-ARM" "../Middlewares/CMSIS/DSP/Src/FilteringFunctions/arm_biquad_cascade_df1_32x64_init_q31.c"
	.loc	3 75 0                          @ ../Middlewares/CMSIS/DSP/Src/FilteringFunctions/arm_biquad_cascade_df1_32x64_init_q31.c:75:0
	.fnstart
	.cfi_sections .debug_frame
	.cfi_startproc
@ %bb.0:
	.save	{r7, lr}
	push	{r7, lr}
	.cfi_def_cfa_offset 8
	.cfi_offset lr, -4
	.cfi_offset r7, -8
	.pad	#24
	sub	sp, #24
	.cfi_def_cfa_offset 32
	mov	r12, r0
	ldr	r0, [sp, #32]
                                        @ kill: def $lr killed $r1
	str.w	r12, [sp, #20]
	strb.w	r1, [sp, #19]
	str	r2, [sp, #12]
	str	r3, [sp, #8]
	strb.w	r0, [sp, #7]
.Ltmp0:
	.loc	3 77 18 prologue_end            @ ../Middlewares/CMSIS/DSP/Src/FilteringFunctions/arm_biquad_cascade_df1_32x64_init_q31.c:77:18
	ldrb.w	r0, [sp, #19]
	.loc	3 77 3 is_stmt 0                @ ../Middlewares/CMSIS/DSP/Src/FilteringFunctions/arm_biquad_cascade_df1_32x64_init_q31.c:77:3
	ldr	r1, [sp, #20]
	.loc	3 77 16                         @ ../Middlewares/CMSIS/DSP/Src/FilteringFunctions/arm_biquad_cascade_df1_32x64_init_q31.c:77:16
	strb	r0, [r1]
	.loc	3 80 18 is_stmt 1               @ ../Middlewares/CMSIS/DSP/Src/FilteringFunctions/arm_biquad_cascade_df1_32x64_init_q31.c:80:18
	ldrb.w	r0, [sp, #7]
	.loc	3 80 3 is_stmt 0                @ ../Middlewares/CMSIS/DSP/Src/FilteringFunctions/arm_biquad_cascade_df1_32x64_init_q31.c:80:3
	ldr	r1, [sp, #20]
	.loc	3 80 16                         @ ../Middlewares/CMSIS/DSP/Src/FilteringFunctions/arm_biquad_cascade_df1_32x64_init_q31.c:80:16
	strb	r0, [r1, #12]
	.loc	3 83 16 is_stmt 1               @ ../Middlewares/CMSIS/DSP/Src/FilteringFunctions/arm_biquad_cascade_df1_32x64_init_q31.c:83:16
	ldr	r0, [sp, #12]
	.loc	3 83 3 is_stmt 0                @ ../Middlewares/CMSIS/DSP/Src/FilteringFunctions/arm_biquad_cascade_df1_32x64_init_q31.c:83:3
	ldr	r1, [sp, #20]
	.loc	3 83 14                         @ ../Middlewares/CMSIS/DSP/Src/FilteringFunctions/arm_biquad_cascade_df1_32x64_init_q31.c:83:14
	str	r0, [r1, #8]
	.loc	3 86 10 is_stmt 1               @ ../Middlewares/CMSIS/DSP/Src/FilteringFunctions/arm_biquad_cascade_df1_32x64_init_q31.c:86:10
	ldr	r0, [sp, #8]
	.loc	3 86 38 is_stmt 0               @ ../Middlewares/CMSIS/DSP/Src/FilteringFunctions/arm_biquad_cascade_df1_32x64_init_q31.c:86:38
	ldrb.w	r1, [sp, #19]
	.loc	3 86 49                         @ ../Middlewares/CMSIS/DSP/Src/FilteringFunctions/arm_biquad_cascade_df1_32x64_init_q31.c:86:49
	lsls	r1, r1, #5
	.loc	3 86 3                          @ ../Middlewares/CMSIS/DSP/Src/FilteringFunctions/arm_biquad_cascade_df1_32x64_init_q31.c:86:3
	bl	__aeabi_memclr8
	.loc	3 89 15 is_stmt 1               @ ../Middlewares/CMSIS/DSP/Src/FilteringFunctions/arm_biquad_cascade_df1_32x64_init_q31.c:89:15
	ldr	r0, [sp, #8]
	.loc	3 89 3 is_stmt 0                @ ../Middlewares/CMSIS/DSP/Src/FilteringFunctions/arm_biquad_cascade_df1_32x64_init_q31.c:89:3
	ldr	r1, [sp, #20]
	.loc	3 89 13                         @ ../Middlewares/CMSIS/DSP/Src/FilteringFunctions/arm_biquad_cascade_df1_32x64_init_q31.c:89:13
	str	r0, [r1, #4]
	.loc	3 90 1 is_stmt 1                @ ../Middlewares/CMSIS/DSP/Src/FilteringFunctions/arm_biquad_cascade_df1_32x64_init_q31.c:90:1
	add	sp, #24
	pop	{r7, pc}
.Ltmp1:
.Lfunc_end0:
	.size	arm_biquad_cas_df1_32x64_init_q31, .Lfunc_end0-arm_biquad_cas_df1_32x64_init_q31
	.cfi_endproc
	.cantunwind
	.fnend
                                        @ -- End function
	.section	.text.arm_biquad_cas_df1_32x64_q31,"ax",%progbits
	.hidden	arm_biquad_cas_df1_32x64_q31    @ -- Begin function arm_biquad_cas_df1_32x64_q31
	.globl	arm_biquad_cas_df1_32x64_q31
	.p2align	2
	.type	arm_biquad_cas_df1_32x64_q31,%function
	.code	16                              @ @arm_biquad_cas_df1_32x64_q31
	.thumb_func
arm_biquad_cas_df1_32x64_q31:
.Lfunc_begin1:
	.file	4 "D:\\horizon\\Horizon_Infantry (2)\\MDK-ARM" "../Middlewares/CMSIS/DSP/Src/FilteringFunctions/arm_biquad_cascade_df1_32x64_q31.c"
	.loc	4 528 0                         @ ../Middlewares/CMSIS/DSP/Src/FilteringFunctions/arm_biquad_cascade_df1_32x64_q31.c:528:0
	.fnstart
	.cfi_startproc
@ %bb.0:
	.save	{r7, lr}
	push	{r7, lr}
	.cfi_def_cfa_offset 8
	.cfi_offset lr, -4
	.cfi_offset r7, -8
	.pad	#152
	sub	sp, #152
	.cfi_def_cfa_offset 160
	str	r0, [sp, #120]
	str	r1, [sp, #116]
	str	r2, [sp, #112]
	str	r3, [sp, #108]
.Ltmp2:
	.loc	4 529 22 prologue_end           @ ../Middlewares/CMSIS/DSP/Src/FilteringFunctions/arm_biquad_cascade_df1_32x64_q31.c:529:22
	ldr	r0, [sp, #116]
	.loc	4 529 16 is_stmt 0              @ ../Middlewares/CMSIS/DSP/Src/FilteringFunctions/arm_biquad_cascade_df1_32x64_q31.c:529:16
	str	r0, [sp, #104]
	.loc	4 530 23 is_stmt 1              @ ../Middlewares/CMSIS/DSP/Src/FilteringFunctions/arm_biquad_cascade_df1_32x64_q31.c:530:23
	ldr	r0, [sp, #112]
	.loc	4 530 16 is_stmt 0              @ ../Middlewares/CMSIS/DSP/Src/FilteringFunctions/arm_biquad_cascade_df1_32x64_q31.c:530:16
	str	r0, [sp, #100]
	.loc	4 531 25 is_stmt 1              @ ../Middlewares/CMSIS/DSP/Src/FilteringFunctions/arm_biquad_cascade_df1_32x64_q31.c:531:25
	ldr	r0, [sp, #120]
	.loc	4 531 28 is_stmt 0              @ ../Middlewares/CMSIS/DSP/Src/FilteringFunctions/arm_biquad_cascade_df1_32x64_q31.c:531:28
	ldr	r0, [r0, #4]
	.loc	4 531 16                        @ ../Middlewares/CMSIS/DSP/Src/FilteringFunctions/arm_biquad_cascade_df1_32x64_q31.c:531:16
	str	r0, [sp, #96]
	.loc	4 532 26 is_stmt 1              @ ../Middlewares/CMSIS/DSP/Src/FilteringFunctions/arm_biquad_cascade_df1_32x64_q31.c:532:26
	ldr	r0, [sp, #120]
	.loc	4 532 29 is_stmt 0              @ ../Middlewares/CMSIS/DSP/Src/FilteringFunctions/arm_biquad_cascade_df1_32x64_q31.c:532:29
	ldr	r0, [r0, #8]
	.loc	4 532 16                        @ ../Middlewares/CMSIS/DSP/Src/FilteringFunctions/arm_biquad_cascade_df1_32x64_q31.c:532:16
	str	r0, [sp, #92]
	.loc	4 538 35 is_stmt 1              @ ../Middlewares/CMSIS/DSP/Src/FilteringFunctions/arm_biquad_cascade_df1_32x64_q31.c:538:35
	ldr	r0, [sp, #120]
	.loc	4 538 38 is_stmt 0              @ ../Middlewares/CMSIS/DSP/Src/FilteringFunctions/arm_biquad_cascade_df1_32x64_q31.c:538:38
	ldrb	r0, [r0, #12]
	.loc	4 538 48                        @ ../Middlewares/CMSIS/DSP/Src/FilteringFunctions/arm_biquad_cascade_df1_32x64_q31.c:538:48
	adds	r0, #1
	.loc	4 538 17                        @ ../Middlewares/CMSIS/DSP/Src/FilteringFunctions/arm_biquad_cascade_df1_32x64_q31.c:538:17
	str	r0, [sp, #28]
	.loc	4 539 34 is_stmt 1              @ ../Middlewares/CMSIS/DSP/Src/FilteringFunctions/arm_biquad_cascade_df1_32x64_q31.c:539:34
	ldr	r0, [sp, #120]
	.loc	4 539 37 is_stmt 0              @ ../Middlewares/CMSIS/DSP/Src/FilteringFunctions/arm_biquad_cascade_df1_32x64_q31.c:539:37
	ldrb	r0, [r0]
	.loc	4 539 26                        @ ../Middlewares/CMSIS/DSP/Src/FilteringFunctions/arm_biquad_cascade_df1_32x64_q31.c:539:26
	str	r0, [sp, #20]
	.loc	4 541 39 is_stmt 1              @ ../Middlewares/CMSIS/DSP/Src/FilteringFunctions/arm_biquad_cascade_df1_32x64_q31.c:541:39
	ldr	r0, [sp, #120]
	.loc	4 541 42 is_stmt 0              @ ../Middlewares/CMSIS/DSP/Src/FilteringFunctions/arm_biquad_cascade_df1_32x64_q31.c:541:42
	ldrb	r0, [r0, #12]
	.loc	4 541 52                        @ ../Middlewares/CMSIS/DSP/Src/FilteringFunctions/arm_biquad_cascade_df1_32x64_q31.c:541:52
	adds	r0, #1
	.loc	4 541 18                        @ ../Middlewares/CMSIS/DSP/Src/FilteringFunctions/arm_biquad_cascade_df1_32x64_q31.c:541:18
	str	r0, [sp, #8]
	.loc	4 542 33 is_stmt 1              @ ../Middlewares/CMSIS/DSP/Src/FilteringFunctions/arm_biquad_cascade_df1_32x64_q31.c:542:33
	ldr	r0, [sp, #8]
	.loc	4 542 31 is_stmt 0              @ ../Middlewares/CMSIS/DSP/Src/FilteringFunctions/arm_biquad_cascade_df1_32x64_q31.c:542:31
	rsb.w	r0, r0, #32
	.loc	4 542 18                        @ ../Middlewares/CMSIS/DSP/Src/FilteringFunctions/arm_biquad_cascade_df1_32x64_q31.c:542:18
	str	r0, [sp, #4]
	.loc	4 544 3 is_stmt 1               @ ../Middlewares/CMSIS/DSP/Src/FilteringFunctions/arm_biquad_cascade_df1_32x64_q31.c:544:3
	b	.LBB1_1
.LBB1_1:                                @ =>This Loop Header: Depth=1
                                        @     Child Loop BB1_2 Depth 2
.Ltmp3:
	.loc	4 547 18                        @ ../Middlewares/CMSIS/DSP/Src/FilteringFunctions/arm_biquad_cascade_df1_32x64_q31.c:547:18
	ldr	r0, [sp, #92]
	adds	r1, r0, #4
	str	r1, [sp, #92]
	.loc	4 547 10 is_stmt 0              @ ../Middlewares/CMSIS/DSP/Src/FilteringFunctions/arm_biquad_cascade_df1_32x64_q31.c:547:10
	ldr	r0, [r0]
	.loc	4 547 8                         @ ../Middlewares/CMSIS/DSP/Src/FilteringFunctions/arm_biquad_cascade_df1_32x64_q31.c:547:8
	str	r0, [sp, #52]
	.loc	4 548 18 is_stmt 1              @ ../Middlewares/CMSIS/DSP/Src/FilteringFunctions/arm_biquad_cascade_df1_32x64_q31.c:548:18
	ldr	r0, [sp, #92]
	adds	r1, r0, #4
	str	r1, [sp, #92]
	.loc	4 548 10 is_stmt 0              @ ../Middlewares/CMSIS/DSP/Src/FilteringFunctions/arm_biquad_cascade_df1_32x64_q31.c:548:10
	ldr	r0, [r0]
	.loc	4 548 8                         @ ../Middlewares/CMSIS/DSP/Src/FilteringFunctions/arm_biquad_cascade_df1_32x64_q31.c:548:8
	str	r0, [sp, #48]
	.loc	4 549 18 is_stmt 1              @ ../Middlewares/CMSIS/DSP/Src/FilteringFunctions/arm_biquad_cascade_df1_32x64_q31.c:549:18
	ldr	r0, [sp, #92]
	adds	r1, r0, #4
	str	r1, [sp, #92]
	.loc	4 549 10 is_stmt 0              @ ../Middlewares/CMSIS/DSP/Src/FilteringFunctions/arm_biquad_cascade_df1_32x64_q31.c:549:10
	ldr	r0, [r0]
	.loc	4 549 8                         @ ../Middlewares/CMSIS/DSP/Src/FilteringFunctions/arm_biquad_cascade_df1_32x64_q31.c:549:8
	str	r0, [sp, #44]
	.loc	4 550 18 is_stmt 1              @ ../Middlewares/CMSIS/DSP/Src/FilteringFunctions/arm_biquad_cascade_df1_32x64_q31.c:550:18
	ldr	r0, [sp, #92]
	adds	r1, r0, #4
	str	r1, [sp, #92]
	.loc	4 550 10 is_stmt 0              @ ../Middlewares/CMSIS/DSP/Src/FilteringFunctions/arm_biquad_cascade_df1_32x64_q31.c:550:10
	ldr	r0, [r0]
	.loc	4 550 8                         @ ../Middlewares/CMSIS/DSP/Src/FilteringFunctions/arm_biquad_cascade_df1_32x64_q31.c:550:8
	str	r0, [sp, #40]
	.loc	4 551 18 is_stmt 1              @ ../Middlewares/CMSIS/DSP/Src/FilteringFunctions/arm_biquad_cascade_df1_32x64_q31.c:551:18
	ldr	r0, [sp, #92]
	adds	r1, r0, #4
	str	r1, [sp, #92]
	.loc	4 551 10 is_stmt 0              @ ../Middlewares/CMSIS/DSP/Src/FilteringFunctions/arm_biquad_cascade_df1_32x64_q31.c:551:10
	ldr	r0, [r0]
	.loc	4 551 8                         @ ../Middlewares/CMSIS/DSP/Src/FilteringFunctions/arm_biquad_cascade_df1_32x64_q31.c:551:8
	str	r0, [sp, #36]
	.loc	4 554 20 is_stmt 1              @ ../Middlewares/CMSIS/DSP/Src/FilteringFunctions/arm_biquad_cascade_df1_32x64_q31.c:554:20
	ldr	r0, [sp, #96]
	ldr	r0, [r0]
	.loc	4 554 9 is_stmt 0               @ ../Middlewares/CMSIS/DSP/Src/FilteringFunctions/arm_biquad_cascade_df1_32x64_q31.c:554:9
	str	r0, [sp, #76]
	.loc	4 555 20 is_stmt 1              @ ../Middlewares/CMSIS/DSP/Src/FilteringFunctions/arm_biquad_cascade_df1_32x64_q31.c:555:20
	ldr	r0, [sp, #96]
	ldr	r0, [r0, #8]
	.loc	4 555 9 is_stmt 0               @ ../Middlewares/CMSIS/DSP/Src/FilteringFunctions/arm_biquad_cascade_df1_32x64_q31.c:555:9
	str	r0, [sp, #72]
	.loc	4 556 11 is_stmt 1              @ ../Middlewares/CMSIS/DSP/Src/FilteringFunctions/arm_biquad_cascade_df1_32x64_q31.c:556:11
	ldr	r1, [sp, #96]
	ldr	r0, [r1, #16]
	ldr	r1, [r1, #20]
	.loc	4 556 9 is_stmt 0               @ ../Middlewares/CMSIS/DSP/Src/FilteringFunctions/arm_biquad_cascade_df1_32x64_q31.c:556:9
	str	r1, [sp, #68]
	str	r0, [sp, #64]
	.loc	4 557 11 is_stmt 1              @ ../Middlewares/CMSIS/DSP/Src/FilteringFunctions/arm_biquad_cascade_df1_32x64_q31.c:557:11
	ldr	r1, [sp, #96]
	ldr	r0, [r1, #24]
	ldr	r1, [r1, #28]
	.loc	4 557 9 is_stmt 0               @ ../Middlewares/CMSIS/DSP/Src/FilteringFunctions/arm_biquad_cascade_df1_32x64_q31.c:557:9
	str	r1, [sp, #60]
	str	r0, [sp, #56]
	.loc	4 733 14 is_stmt 1              @ ../Middlewares/CMSIS/DSP/Src/FilteringFunctions/arm_biquad_cascade_df1_32x64_q31.c:733:14
	ldr	r0, [sp, #108]
	.loc	4 733 12 is_stmt 0              @ ../Middlewares/CMSIS/DSP/Src/FilteringFunctions/arm_biquad_cascade_df1_32x64_q31.c:733:12
	str	r0, [sp, #24]
	.loc	4 737 5 is_stmt 1               @ ../Middlewares/CMSIS/DSP/Src/FilteringFunctions/arm_biquad_cascade_df1_32x64_q31.c:737:5
	b	.LBB1_2
.LBB1_2:                                @   Parent Loop BB1_1 Depth=1
                                        @ =>  This Inner Loop Header: Depth=2
	.loc	4 737 12 is_stmt 0              @ ../Middlewares/CMSIS/DSP/Src/FilteringFunctions/arm_biquad_cascade_df1_32x64_q31.c:737:12
	ldr	r0, [sp, #24]
	.loc	4 737 5                         @ ../Middlewares/CMSIS/DSP/Src/FilteringFunctions/arm_biquad_cascade_df1_32x64_q31.c:737:5
	cmp	r0, #0
	beq	.LBB1_4
	b	.LBB1_3
.LBB1_3:                                @   in Loop: Header=BB1_2 Depth=2
.Ltmp4:
	.loc	4 740 16 is_stmt 1              @ ../Middlewares/CMSIS/DSP/Src/FilteringFunctions/arm_biquad_cascade_df1_32x64_q31.c:740:16
	ldr	r0, [sp, #104]
	adds	r1, r0, #4
	str	r1, [sp, #104]
	.loc	4 740 12 is_stmt 0              @ ../Middlewares/CMSIS/DSP/Src/FilteringFunctions/arm_biquad_cascade_df1_32x64_q31.c:740:12
	ldr	r0, [r0]
	.loc	4 740 10                        @ ../Middlewares/CMSIS/DSP/Src/FilteringFunctions/arm_biquad_cascade_df1_32x64_q31.c:740:10
	str	r0, [sp, #32]
	.loc	4 745 21 is_stmt 1              @ ../Middlewares/CMSIS/DSP/Src/FilteringFunctions/arm_biquad_cascade_df1_32x64_q31.c:745:21
	ldr	r0, [sp, #32]
	.loc	4 745 26 is_stmt 0              @ ../Middlewares/CMSIS/DSP/Src/FilteringFunctions/arm_biquad_cascade_df1_32x64_q31.c:745:26
	ldr	r1, [sp, #52]
	.loc	4 745 24                        @ ../Middlewares/CMSIS/DSP/Src/FilteringFunctions/arm_biquad_cascade_df1_32x64_q31.c:745:24
	smull	r0, r1, r0, r1
	.loc	4 745 11                        @ ../Middlewares/CMSIS/DSP/Src/FilteringFunctions/arm_biquad_cascade_df1_32x64_q31.c:745:11
	str	r1, [sp, #84]
	str	r0, [sp, #80]
	.loc	4 747 22 is_stmt 1              @ ../Middlewares/CMSIS/DSP/Src/FilteringFunctions/arm_biquad_cascade_df1_32x64_q31.c:747:22
	ldr	r2, [sp, #76]
	.loc	4 747 28 is_stmt 0              @ ../Middlewares/CMSIS/DSP/Src/FilteringFunctions/arm_biquad_cascade_df1_32x64_q31.c:747:28
	ldr	r3, [sp, #48]
	.loc	4 747 11                        @ ../Middlewares/CMSIS/DSP/Src/FilteringFunctions/arm_biquad_cascade_df1_32x64_q31.c:747:11
	ldr	r0, [sp, #80]
	ldr	r1, [sp, #84]
	smlal	r0, r1, r2, r3
	str	r1, [sp, #84]
	str	r0, [sp, #80]
	.loc	4 749 22 is_stmt 1              @ ../Middlewares/CMSIS/DSP/Src/FilteringFunctions/arm_biquad_cascade_df1_32x64_q31.c:749:22
	ldr	r2, [sp, #72]
	.loc	4 749 28 is_stmt 0              @ ../Middlewares/CMSIS/DSP/Src/FilteringFunctions/arm_biquad_cascade_df1_32x64_q31.c:749:28
	ldr	r3, [sp, #44]
	.loc	4 749 11                        @ ../Middlewares/CMSIS/DSP/Src/FilteringFunctions/arm_biquad_cascade_df1_32x64_q31.c:749:11
	ldr	r0, [sp, #80]
	ldr	r1, [sp, #84]
	smlal	r0, r1, r2, r3
	str	r1, [sp, #84]
	str	r0, [sp, #80]
	.loc	4 751 24 is_stmt 1              @ ../Middlewares/CMSIS/DSP/Src/FilteringFunctions/arm_biquad_cascade_df1_32x64_q31.c:751:24
	ldr	r1, [sp, #64]
	ldr	r2, [sp, #68]
	.loc	4 751 29 is_stmt 0              @ ../Middlewares/CMSIS/DSP/Src/FilteringFunctions/arm_biquad_cascade_df1_32x64_q31.c:751:29
	ldr	r0, [sp, #40]
	str	r2, [sp, #148]
	str	r1, [sp, #144]
	str	r0, [sp, #140]
.Ltmp5:
	.file	5 "D:\\horizon\\Horizon_Infantry (2)\\MDK-ARM" "../Middlewares/CMSIS/DSP/Inc\\dsp/none.h"
	.loc	5 180 24 is_stmt 1              @ ../Middlewares/CMSIS/DSP/Inc\dsp/none.h:180:24
	ldr	r2, [sp, #144]
	ldr	r0, [sp, #148]
	.loc	5 180 50 is_stmt 0              @ ../Middlewares/CMSIS/DSP/Inc\dsp/none.h:180:50
	ldr	r1, [sp, #140]
	asrs	r3, r1, #31
	.loc	5 180 48                        @ ../Middlewares/CMSIS/DSP/Inc\dsp/none.h:180:48
	umull	lr, r12, r2, r1
	mla	r3, r2, r3, r12
	.loc	5 180 53                        @ ../Middlewares/CMSIS/DSP/Inc\dsp/none.h:180:53
	asrs	r2, r3, #31
	.loc	5 180 60                        @ ../Middlewares/CMSIS/DSP/Inc\dsp/none.h:180:60
	smlal	r3, r2, r0, r1
.Ltmp6:
	.loc	4 751 11 is_stmt 1              @ ../Middlewares/CMSIS/DSP/Src/FilteringFunctions/arm_biquad_cascade_df1_32x64_q31.c:751:11
	ldr	r1, [sp, #80]
	ldr	r0, [sp, #84]
	adds	r1, r1, r3
	adcs	r0, r2
	str	r1, [sp, #80]
	str	r0, [sp, #84]
	.loc	4 753 24                        @ ../Middlewares/CMSIS/DSP/Src/FilteringFunctions/arm_biquad_cascade_df1_32x64_q31.c:753:24
	ldr	r1, [sp, #56]
	ldr	r2, [sp, #60]
	.loc	4 753 29 is_stmt 0              @ ../Middlewares/CMSIS/DSP/Src/FilteringFunctions/arm_biquad_cascade_df1_32x64_q31.c:753:29
	ldr	r0, [sp, #36]
	str	r2, [sp, #132]
	str	r1, [sp, #128]
	str	r0, [sp, #124]
.Ltmp7:
	.loc	5 180 24 is_stmt 1              @ ../Middlewares/CMSIS/DSP/Inc\dsp/none.h:180:24
	ldr	r2, [sp, #128]
	ldr	r0, [sp, #132]
	.loc	5 180 50 is_stmt 0              @ ../Middlewares/CMSIS/DSP/Inc\dsp/none.h:180:50
	ldr	r1, [sp, #124]
	asrs	r3, r1, #31
	.loc	5 180 48                        @ ../Middlewares/CMSIS/DSP/Inc\dsp/none.h:180:48
	umull	lr, r12, r2, r1
	mla	r3, r2, r3, r12
	.loc	5 180 53                        @ ../Middlewares/CMSIS/DSP/Inc\dsp/none.h:180:53
	asrs	r2, r3, #31
	.loc	5 180 60                        @ ../Middlewares/CMSIS/DSP/Inc\dsp/none.h:180:60
	smlal	r3, r2, r0, r1
.Ltmp8:
	.loc	4 753 11 is_stmt 1              @ ../Middlewares/CMSIS/DSP/Src/FilteringFunctions/arm_biquad_cascade_df1_32x64_q31.c:753:11
	ldr	r1, [sp, #80]
	ldr	r0, [sp, #84]
	adds	r1, r1, r3
	adcs	r0, r2
	str	r1, [sp, #80]
	str	r0, [sp, #84]
	.loc	4 761 13                        @ ../Middlewares/CMSIS/DSP/Src/FilteringFunctions/arm_biquad_cascade_df1_32x64_q31.c:761:13
	ldr	r0, [sp, #76]
	.loc	4 761 11 is_stmt 0              @ ../Middlewares/CMSIS/DSP/Src/FilteringFunctions/arm_biquad_cascade_df1_32x64_q31.c:761:11
	str	r0, [sp, #72]
	.loc	4 762 13 is_stmt 1              @ ../Middlewares/CMSIS/DSP/Src/FilteringFunctions/arm_biquad_cascade_df1_32x64_q31.c:762:13
	ldr	r0, [sp, #32]
	.loc	4 762 11 is_stmt 0              @ ../Middlewares/CMSIS/DSP/Src/FilteringFunctions/arm_biquad_cascade_df1_32x64_q31.c:762:11
	str	r0, [sp, #76]
	.loc	4 763 13 is_stmt 1              @ ../Middlewares/CMSIS/DSP/Src/FilteringFunctions/arm_biquad_cascade_df1_32x64_q31.c:763:13
	ldr	r0, [sp, #64]
	ldr	r1, [sp, #68]
	.loc	4 763 11 is_stmt 0              @ ../Middlewares/CMSIS/DSP/Src/FilteringFunctions/arm_biquad_cascade_df1_32x64_q31.c:763:11
	str	r1, [sp, #60]
	str	r0, [sp, #56]
	.loc	4 766 13 is_stmt 1              @ ../Middlewares/CMSIS/DSP/Src/FilteringFunctions/arm_biquad_cascade_df1_32x64_q31.c:766:13
	ldr	r1, [sp, #80]
	ldr	r0, [sp, #84]
	.loc	4 766 20 is_stmt 0              @ ../Middlewares/CMSIS/DSP/Src/FilteringFunctions/arm_biquad_cascade_df1_32x64_q31.c:766:20
	ldr	r3, [sp, #28]
	.loc	4 766 17                        @ ../Middlewares/CMSIS/DSP/Src/FilteringFunctions/arm_biquad_cascade_df1_32x64_q31.c:766:17
	lsl.w	r2, r0, r3
	rsb.w	r0, r3, #32
	lsr.w	r0, r1, r0
	orrs	r0, r2
	sub.w	r2, r3, #32
	lsl.w	r12, r1, r2
	cmp	r2, #0
	it	pl
	movpl	r0, r12
	lsls	r1, r3
	cmp	r2, #0
	it	pl
	movpl	r1, #0
	.loc	4 766 11                        @ ../Middlewares/CMSIS/DSP/Src/FilteringFunctions/arm_biquad_cascade_df1_32x64_q31.c:766:11
	str	r1, [sp, #64]
	str	r0, [sp, #68]
	.loc	4 769 15 is_stmt 1              @ ../Middlewares/CMSIS/DSP/Src/FilteringFunctions/arm_biquad_cascade_df1_32x64_q31.c:769:15
	ldr	r0, [sp, #80]
	.loc	4 769 13 is_stmt 0              @ ../Middlewares/CMSIS/DSP/Src/FilteringFunctions/arm_biquad_cascade_df1_32x64_q31.c:769:13
	str	r0, [sp, #16]
	.loc	4 772 16 is_stmt 1              @ ../Middlewares/CMSIS/DSP/Src/FilteringFunctions/arm_biquad_cascade_df1_32x64_q31.c:772:16
	ldr	r0, [sp, #84]
	.loc	4 772 13 is_stmt 0              @ ../Middlewares/CMSIS/DSP/Src/FilteringFunctions/arm_biquad_cascade_df1_32x64_q31.c:772:13
	str	r0, [sp, #12]
	.loc	4 775 26 is_stmt 1              @ ../Middlewares/CMSIS/DSP/Src/FilteringFunctions/arm_biquad_cascade_df1_32x64_q31.c:775:26
	ldr	r0, [sp, #16]
	.loc	4 775 35 is_stmt 0              @ ../Middlewares/CMSIS/DSP/Src/FilteringFunctions/arm_biquad_cascade_df1_32x64_q31.c:775:35
	ldr	r1, [sp, #4]
	.loc	4 775 32                        @ ../Middlewares/CMSIS/DSP/Src/FilteringFunctions/arm_biquad_cascade_df1_32x64_q31.c:775:32
	lsrs	r0, r1
	.loc	4 775 44                        @ ../Middlewares/CMSIS/DSP/Src/FilteringFunctions/arm_biquad_cascade_df1_32x64_q31.c:775:44
	ldr	r1, [sp, #12]
	.loc	4 775 53                        @ ../Middlewares/CMSIS/DSP/Src/FilteringFunctions/arm_biquad_cascade_df1_32x64_q31.c:775:53
	ldr	r2, [sp, #8]
	.loc	4 775 50                        @ ../Middlewares/CMSIS/DSP/Src/FilteringFunctions/arm_biquad_cascade_df1_32x64_q31.c:775:50
	lsls	r1, r2
	.loc	4 775 42                        @ ../Middlewares/CMSIS/DSP/Src/FilteringFunctions/arm_biquad_cascade_df1_32x64_q31.c:775:42
	orrs	r0, r1
	.loc	4 775 13                        @ ../Middlewares/CMSIS/DSP/Src/FilteringFunctions/arm_biquad_cascade_df1_32x64_q31.c:775:13
	str	r0, [sp, #12]
	.loc	4 778 17 is_stmt 1              @ ../Middlewares/CMSIS/DSP/Src/FilteringFunctions/arm_biquad_cascade_df1_32x64_q31.c:778:17
	ldr	r0, [sp, #12]
	.loc	4 778 12 is_stmt 0              @ ../Middlewares/CMSIS/DSP/Src/FilteringFunctions/arm_biquad_cascade_df1_32x64_q31.c:778:12
	ldr	r1, [sp, #100]
	adds	r2, r1, #4
	str	r2, [sp, #100]
	.loc	4 778 15                        @ ../Middlewares/CMSIS/DSP/Src/FilteringFunctions/arm_biquad_cascade_df1_32x64_q31.c:778:15
	str	r0, [r1]
	.loc	4 785 13 is_stmt 1              @ ../Middlewares/CMSIS/DSP/Src/FilteringFunctions/arm_biquad_cascade_df1_32x64_q31.c:785:13
	ldr	r0, [sp, #24]
	subs	r0, #1
	str	r0, [sp, #24]
.Ltmp9:
	.loc	4 737 5                         @ ../Middlewares/CMSIS/DSP/Src/FilteringFunctions/arm_biquad_cascade_df1_32x64_q31.c:737:5
	b	.LBB1_2
.LBB1_4:                                @   in Loop: Header=BB1_1 Depth=1
	.loc	4 789 11                        @ ../Middlewares/CMSIS/DSP/Src/FilteringFunctions/arm_biquad_cascade_df1_32x64_q31.c:789:11
	ldr	r0, [sp, #112]
	.loc	4 789 9 is_stmt 0               @ ../Middlewares/CMSIS/DSP/Src/FilteringFunctions/arm_biquad_cascade_df1_32x64_q31.c:789:9
	str	r0, [sp, #104]
	.loc	4 792 12 is_stmt 1              @ ../Middlewares/CMSIS/DSP/Src/FilteringFunctions/arm_biquad_cascade_df1_32x64_q31.c:792:12
	ldr	r0, [sp, #112]
	.loc	4 792 10 is_stmt 0              @ ../Middlewares/CMSIS/DSP/Src/FilteringFunctions/arm_biquad_cascade_df1_32x64_q31.c:792:10
	str	r0, [sp, #100]
	.loc	4 795 25 is_stmt 1              @ ../Middlewares/CMSIS/DSP/Src/FilteringFunctions/arm_biquad_cascade_df1_32x64_q31.c:795:25
	ldr	r0, [sp, #76]
	asrs	r2, r0, #31
	.loc	4 795 12 is_stmt 0              @ ../Middlewares/CMSIS/DSP/Src/FilteringFunctions/arm_biquad_cascade_df1_32x64_q31.c:795:12
	ldr	r1, [sp, #96]
	add.w	r3, r1, #8
	str	r3, [sp, #96]
	.loc	4 795 15                        @ ../Middlewares/CMSIS/DSP/Src/FilteringFunctions/arm_biquad_cascade_df1_32x64_q31.c:795:15
	str	r2, [r1, #4]
	str	r0, [r1]
	.loc	4 796 25 is_stmt 1              @ ../Middlewares/CMSIS/DSP/Src/FilteringFunctions/arm_biquad_cascade_df1_32x64_q31.c:796:25
	ldr	r0, [sp, #72]
	asrs	r2, r0, #31
	.loc	4 796 12 is_stmt 0              @ ../Middlewares/CMSIS/DSP/Src/FilteringFunctions/arm_biquad_cascade_df1_32x64_q31.c:796:12
	ldr	r1, [sp, #96]
	add.w	r3, r1, #8
	str	r3, [sp, #96]
	.loc	4 796 15                        @ ../Middlewares/CMSIS/DSP/Src/FilteringFunctions/arm_biquad_cascade_df1_32x64_q31.c:796:15
	str	r2, [r1, #4]
	str	r0, [r1]
	.loc	4 797 17 is_stmt 1              @ ../Middlewares/CMSIS/DSP/Src/FilteringFunctions/arm_biquad_cascade_df1_32x64_q31.c:797:17
	ldr	r0, [sp, #64]
	ldr	r2, [sp, #68]
	.loc	4 797 12 is_stmt 0              @ ../Middlewares/CMSIS/DSP/Src/FilteringFunctions/arm_biquad_cascade_df1_32x64_q31.c:797:12
	ldr	r1, [sp, #96]
	add.w	r3, r1, #8
	str	r3, [sp, #96]
	.loc	4 797 15                        @ ../Middlewares/CMSIS/DSP/Src/FilteringFunctions/arm_biquad_cascade_df1_32x64_q31.c:797:15
	str	r2, [r1, #4]
	str	r0, [r1]
	.loc	4 798 17 is_stmt 1              @ ../Middlewares/CMSIS/DSP/Src/FilteringFunctions/arm_biquad_cascade_df1_32x64_q31.c:798:17
	ldr	r0, [sp, #56]
	ldr	r2, [sp, #60]
	.loc	4 798 12 is_stmt 0              @ ../Middlewares/CMSIS/DSP/Src/FilteringFunctions/arm_biquad_cascade_df1_32x64_q31.c:798:12
	ldr	r1, [sp, #96]
	add.w	r3, r1, #8
	str	r3, [sp, #96]
	.loc	4 798 15                        @ ../Middlewares/CMSIS/DSP/Src/FilteringFunctions/arm_biquad_cascade_df1_32x64_q31.c:798:15
	str	r2, [r1, #4]
	str	r0, [r1]
	.loc	4 800 3 is_stmt 1               @ ../Middlewares/CMSIS/DSP/Src/FilteringFunctions/arm_biquad_cascade_df1_32x64_q31.c:800:3
	b	.LBB1_5
.Ltmp10:
.LBB1_5:                                @   in Loop: Header=BB1_1 Depth=1
	.loc	4 800 12 is_stmt 0              @ ../Middlewares/CMSIS/DSP/Src/FilteringFunctions/arm_biquad_cascade_df1_32x64_q31.c:800:12
	ldr	r0, [sp, #20]
	subs	r0, #1
	str	r0, [sp, #20]
.Ltmp11:
	.loc	4 800 3                         @ ../Middlewares/CMSIS/DSP/Src/FilteringFunctions/arm_biquad_cascade_df1_32x64_q31.c:800:3
	cmp	r0, #0
	bne.w	.LBB1_1
	b	.LBB1_6
.Ltmp12:
.LBB1_6:
	.loc	4 802 1 is_stmt 1               @ ../Middlewares/CMSIS/DSP/Src/FilteringFunctions/arm_biquad_cascade_df1_32x64_q31.c:802:1
	add	sp, #152
	pop	{r7, pc}
.Ltmp13:
.Lfunc_end1:
	.size	arm_biquad_cas_df1_32x64_q31, .Lfunc_end1-arm_biquad_cas_df1_32x64_q31
	.cfi_endproc
	.cantunwind
	.fnend
                                        @ -- End function
	.section	.text.arm_biquad_cascade_df1_f32,"ax",%progbits
	.hidden	arm_biquad_cascade_df1_f32      @ -- Begin function arm_biquad_cascade_df1_f32
	.globl	arm_biquad_cascade_df1_f32
	.p2align	2
	.type	arm_biquad_cascade_df1_f32,%function
	.code	16                              @ @arm_biquad_cascade_df1_f32
	.thumb_func
arm_biquad_cascade_df1_f32:
.Lfunc_begin2:
	.file	6 "D:\\horizon\\Horizon_Infantry (2)\\MDK-ARM" "../Middlewares/CMSIS/DSP/Src/FilteringFunctions/arm_biquad_cascade_df1_f32.c"
	.loc	6 511 0                         @ ../Middlewares/CMSIS/DSP/Src/FilteringFunctions/arm_biquad_cascade_df1_f32.c:511:0
	.fnstart
	.cfi_startproc
@ %bb.0:
	.pad	#84
	sub	sp, #84
	.cfi_def_cfa_offset 84
	str	r0, [sp, #80]
	str	r1, [sp, #76]
	str	r2, [sp, #72]
	str	r3, [sp, #68]
.Ltmp14:
	.loc	6 512 26 prologue_end           @ ../Middlewares/CMSIS/DSP/Src/FilteringFunctions/arm_biquad_cascade_df1_f32.c:512:26
	ldr	r0, [sp, #76]
	.loc	6 512 20 is_stmt 0              @ ../Middlewares/CMSIS/DSP/Src/FilteringFunctions/arm_biquad_cascade_df1_f32.c:512:20
	str	r0, [sp, #64]
	.loc	6 513 27 is_stmt 1              @ ../Middlewares/CMSIS/DSP/Src/FilteringFunctions/arm_biquad_cascade_df1_f32.c:513:27
	ldr	r0, [sp, #72]
	.loc	6 513 20 is_stmt 0              @ ../Middlewares/CMSIS/DSP/Src/FilteringFunctions/arm_biquad_cascade_df1_f32.c:513:20
	str	r0, [sp, #60]
	.loc	6 514 29 is_stmt 1              @ ../Middlewares/CMSIS/DSP/Src/FilteringFunctions/arm_biquad_cascade_df1_f32.c:514:29
	ldr	r0, [sp, #80]
	.loc	6 514 32 is_stmt 0              @ ../Middlewares/CMSIS/DSP/Src/FilteringFunctions/arm_biquad_cascade_df1_f32.c:514:32
	ldr	r0, [r0, #4]
	.loc	6 514 20                        @ ../Middlewares/CMSIS/DSP/Src/FilteringFunctions/arm_biquad_cascade_df1_f32.c:514:20
	str	r0, [sp, #56]
	.loc	6 515 30 is_stmt 1              @ ../Middlewares/CMSIS/DSP/Src/FilteringFunctions/arm_biquad_cascade_df1_f32.c:515:30
	ldr	r0, [sp, #80]
	.loc	6 515 33 is_stmt 0              @ ../Middlewares/CMSIS/DSP/Src/FilteringFunctions/arm_biquad_cascade_df1_f32.c:515:33
	ldr	r0, [r0, #8]
	.loc	6 515 20                        @ ../Middlewares/CMSIS/DSP/Src/FilteringFunctions/arm_biquad_cascade_df1_f32.c:515:20
	str	r0, [sp, #52]
	.loc	6 520 34 is_stmt 1              @ ../Middlewares/CMSIS/DSP/Src/FilteringFunctions/arm_biquad_cascade_df1_f32.c:520:34
	ldr	r0, [sp, #80]
	.loc	6 520 37 is_stmt 0              @ ../Middlewares/CMSIS/DSP/Src/FilteringFunctions/arm_biquad_cascade_df1_f32.c:520:37
	ldr	r0, [r0]
	.loc	6 520 26                        @ ../Middlewares/CMSIS/DSP/Src/FilteringFunctions/arm_biquad_cascade_df1_f32.c:520:26
	str	r0, [sp]
	.loc	6 522 3 is_stmt 1               @ ../Middlewares/CMSIS/DSP/Src/FilteringFunctions/arm_biquad_cascade_df1_f32.c:522:3
	b	.LBB2_1
.LBB2_1:                                @ =>This Loop Header: Depth=1
                                        @     Child Loop BB2_2 Depth 2
.Ltmp15:
	.loc	6 525 18                        @ ../Middlewares/CMSIS/DSP/Src/FilteringFunctions/arm_biquad_cascade_df1_f32.c:525:18
	ldr	r0, [sp, #52]
	adds	r1, r0, #4
	str	r1, [sp, #52]
	.loc	6 525 10 is_stmt 0              @ ../Middlewares/CMSIS/DSP/Src/FilteringFunctions/arm_biquad_cascade_df1_f32.c:525:10
	ldr	r0, [r0]
	.loc	6 525 8                         @ ../Middlewares/CMSIS/DSP/Src/FilteringFunctions/arm_biquad_cascade_df1_f32.c:525:8
	str	r0, [sp, #44]
	.loc	6 526 18 is_stmt 1              @ ../Middlewares/CMSIS/DSP/Src/FilteringFunctions/arm_biquad_cascade_df1_f32.c:526:18
	ldr	r0, [sp, #52]
	adds	r1, r0, #4
	str	r1, [sp, #52]
	.loc	6 526 10 is_stmt 0              @ ../Middlewares/CMSIS/DSP/Src/FilteringFunctions/arm_biquad_cascade_df1_f32.c:526:10
	ldr	r0, [r0]
	.loc	6 526 8                         @ ../Middlewares/CMSIS/DSP/Src/FilteringFunctions/arm_biquad_cascade_df1_f32.c:526:8
	str	r0, [sp, #40]
	.loc	6 527 18 is_stmt 1              @ ../Middlewares/CMSIS/DSP/Src/FilteringFunctions/arm_biquad_cascade_df1_f32.c:527:18
	ldr	r0, [sp, #52]
	adds	r1, r0, #4
	str	r1, [sp, #52]
	.loc	6 527 10 is_stmt 0              @ ../Middlewares/CMSIS/DSP/Src/FilteringFunctions/arm_biquad_cascade_df1_f32.c:527:10
	ldr	r0, [r0]
	.loc	6 527 8                         @ ../Middlewares/CMSIS/DSP/Src/FilteringFunctions/arm_biquad_cascade_df1_f32.c:527:8
	str	r0, [sp, #36]
	.loc	6 528 18 is_stmt 1              @ ../Middlewares/CMSIS/DSP/Src/FilteringFunctions/arm_biquad_cascade_df1_f32.c:528:18
	ldr	r0, [sp, #52]
	adds	r1, r0, #4
	str	r1, [sp, #52]
	.loc	6 528 10 is_stmt 0              @ ../Middlewares/CMSIS/DSP/Src/FilteringFunctions/arm_biquad_cascade_df1_f32.c:528:10
	ldr	r0, [r0]
	.loc	6 528 8                         @ ../Middlewares/CMSIS/DSP/Src/FilteringFunctions/arm_biquad_cascade_df1_f32.c:528:8
	str	r0, [sp, #32]
	.loc	6 529 18 is_stmt 1              @ ../Middlewares/CMSIS/DSP/Src/FilteringFunctions/arm_biquad_cascade_df1_f32.c:529:18
	ldr	r0, [sp, #52]
	adds	r1, r0, #4
	str	r1, [sp, #52]
	.loc	6 529 10 is_stmt 0              @ ../Middlewares/CMSIS/DSP/Src/FilteringFunctions/arm_biquad_cascade_df1_f32.c:529:10
	ldr	r0, [r0]
	.loc	6 529 8                         @ ../Middlewares/CMSIS/DSP/Src/FilteringFunctions/arm_biquad_cascade_df1_f32.c:529:8
	str	r0, [sp, #28]
	.loc	6 532 11 is_stmt 1              @ ../Middlewares/CMSIS/DSP/Src/FilteringFunctions/arm_biquad_cascade_df1_f32.c:532:11
	ldr	r0, [sp, #56]
	ldr	r0, [r0]
	.loc	6 532 9 is_stmt 0               @ ../Middlewares/CMSIS/DSP/Src/FilteringFunctions/arm_biquad_cascade_df1_f32.c:532:9
	str	r0, [sp, #24]
	.loc	6 533 11 is_stmt 1              @ ../Middlewares/CMSIS/DSP/Src/FilteringFunctions/arm_biquad_cascade_df1_f32.c:533:11
	ldr	r0, [sp, #56]
	ldr	r0, [r0, #4]
	.loc	6 533 9 is_stmt 0               @ ../Middlewares/CMSIS/DSP/Src/FilteringFunctions/arm_biquad_cascade_df1_f32.c:533:9
	str	r0, [sp, #20]
	.loc	6 534 11 is_stmt 1              @ ../Middlewares/CMSIS/DSP/Src/FilteringFunctions/arm_biquad_cascade_df1_f32.c:534:11
	ldr	r0, [sp, #56]
	ldr	r0, [r0, #8]
	.loc	6 534 9 is_stmt 0               @ ../Middlewares/CMSIS/DSP/Src/FilteringFunctions/arm_biquad_cascade_df1_f32.c:534:9
	str	r0, [sp, #16]
	.loc	6 535 11 is_stmt 1              @ ../Middlewares/CMSIS/DSP/Src/FilteringFunctions/arm_biquad_cascade_df1_f32.c:535:11
	ldr	r0, [sp, #56]
	ldr	r0, [r0, #12]
	.loc	6 535 9 is_stmt 0               @ ../Middlewares/CMSIS/DSP/Src/FilteringFunctions/arm_biquad_cascade_df1_f32.c:535:9
	str	r0, [sp, #12]
	.loc	6 629 14 is_stmt 1              @ ../Middlewares/CMSIS/DSP/Src/FilteringFunctions/arm_biquad_cascade_df1_f32.c:629:14
	ldr	r0, [sp, #68]
	.loc	6 629 12 is_stmt 0              @ ../Middlewares/CMSIS/DSP/Src/FilteringFunctions/arm_biquad_cascade_df1_f32.c:629:12
	str	r0, [sp, #4]
	.loc	6 633 5 is_stmt 1               @ ../Middlewares/CMSIS/DSP/Src/FilteringFunctions/arm_biquad_cascade_df1_f32.c:633:5
	b	.LBB2_2
.LBB2_2:                                @   Parent Loop BB2_1 Depth=1
                                        @ =>  This Inner Loop Header: Depth=2
	.loc	6 633 12 is_stmt 0              @ ../Middlewares/CMSIS/DSP/Src/FilteringFunctions/arm_biquad_cascade_df1_f32.c:633:12
	ldr	r0, [sp, #4]
	.loc	6 633 5                         @ ../Middlewares/CMSIS/DSP/Src/FilteringFunctions/arm_biquad_cascade_df1_f32.c:633:5
	cmp	r0, #0
	beq	.LBB2_4
	b	.LBB2_3
.LBB2_3:                                @   in Loop: Header=BB2_2 Depth=2
.Ltmp16:
	.loc	6 636 16 is_stmt 1              @ ../Middlewares/CMSIS/DSP/Src/FilteringFunctions/arm_biquad_cascade_df1_f32.c:636:16
	ldr	r0, [sp, #64]
	adds	r1, r0, #4
	str	r1, [sp, #64]
	.loc	6 636 12 is_stmt 0              @ ../Middlewares/CMSIS/DSP/Src/FilteringFunctions/arm_biquad_cascade_df1_f32.c:636:12
	ldr	r0, [r0]
	.loc	6 636 10                        @ ../Middlewares/CMSIS/DSP/Src/FilteringFunctions/arm_biquad_cascade_df1_f32.c:636:10
	str	r0, [sp, #8]
	.loc	6 639 14 is_stmt 1              @ ../Middlewares/CMSIS/DSP/Src/FilteringFunctions/arm_biquad_cascade_df1_f32.c:639:14
	vldr	s0, [sp, #44]
	.loc	6 639 19 is_stmt 0              @ ../Middlewares/CMSIS/DSP/Src/FilteringFunctions/arm_biquad_cascade_df1_f32.c:639:19
	vldr	s4, [sp, #8]
	.loc	6 639 26                        @ ../Middlewares/CMSIS/DSP/Src/FilteringFunctions/arm_biquad_cascade_df1_f32.c:639:26
	vldr	s2, [sp, #40]
	.loc	6 639 31                        @ ../Middlewares/CMSIS/DSP/Src/FilteringFunctions/arm_biquad_cascade_df1_f32.c:639:31
	vldr	s6, [sp, #24]
	.loc	6 639 29                        @ ../Middlewares/CMSIS/DSP/Src/FilteringFunctions/arm_biquad_cascade_df1_f32.c:639:29
	vmul.f32	s2, s2, s6
	.loc	6 639 23                        @ ../Middlewares/CMSIS/DSP/Src/FilteringFunctions/arm_biquad_cascade_df1_f32.c:639:23
	vmul.f32	s0, s0, s4
	vadd.f32	s2, s0, s2
	.loc	6 639 39                        @ ../Middlewares/CMSIS/DSP/Src/FilteringFunctions/arm_biquad_cascade_df1_f32.c:639:39
	vldr	s0, [sp, #36]
	.loc	6 639 44                        @ ../Middlewares/CMSIS/DSP/Src/FilteringFunctions/arm_biquad_cascade_df1_f32.c:639:44
	vldr	s4, [sp, #20]
	.loc	6 639 36                        @ ../Middlewares/CMSIS/DSP/Src/FilteringFunctions/arm_biquad_cascade_df1_f32.c:639:36
	vmul.f32	s0, s0, s4
	vadd.f32	s2, s0, s2
	.loc	6 639 52                        @ ../Middlewares/CMSIS/DSP/Src/FilteringFunctions/arm_biquad_cascade_df1_f32.c:639:52
	vldr	s0, [sp, #32]
	.loc	6 639 57                        @ ../Middlewares/CMSIS/DSP/Src/FilteringFunctions/arm_biquad_cascade_df1_f32.c:639:57
	vldr	s4, [sp, #16]
	.loc	6 639 49                        @ ../Middlewares/CMSIS/DSP/Src/FilteringFunctions/arm_biquad_cascade_df1_f32.c:639:49
	vmul.f32	s0, s0, s4
	vadd.f32	s2, s0, s2
	.loc	6 639 65                        @ ../Middlewares/CMSIS/DSP/Src/FilteringFunctions/arm_biquad_cascade_df1_f32.c:639:65
	vldr	s0, [sp, #28]
	.loc	6 639 70                        @ ../Middlewares/CMSIS/DSP/Src/FilteringFunctions/arm_biquad_cascade_df1_f32.c:639:70
	vldr	s4, [sp, #12]
	.loc	6 639 62                        @ ../Middlewares/CMSIS/DSP/Src/FilteringFunctions/arm_biquad_cascade_df1_f32.c:639:62
	vmul.f32	s0, s0, s4
	vadd.f32	s0, s0, s2
	.loc	6 639 11                        @ ../Middlewares/CMSIS/DSP/Src/FilteringFunctions/arm_biquad_cascade_df1_f32.c:639:11
	vstr	s0, [sp, #48]
	.loc	6 642 17 is_stmt 1              @ ../Middlewares/CMSIS/DSP/Src/FilteringFunctions/arm_biquad_cascade_df1_f32.c:642:17
	ldr	r0, [sp, #48]
	.loc	6 642 12 is_stmt 0              @ ../Middlewares/CMSIS/DSP/Src/FilteringFunctions/arm_biquad_cascade_df1_f32.c:642:12
	ldr	r1, [sp, #60]
	adds	r2, r1, #4
	str	r2, [sp, #60]
	.loc	6 642 15                        @ ../Middlewares/CMSIS/DSP/Src/FilteringFunctions/arm_biquad_cascade_df1_f32.c:642:15
	str	r0, [r1]
	.loc	6 650 13 is_stmt 1              @ ../Middlewares/CMSIS/DSP/Src/FilteringFunctions/arm_biquad_cascade_df1_f32.c:650:13
	ldr	r0, [sp, #24]
	.loc	6 650 11 is_stmt 0              @ ../Middlewares/CMSIS/DSP/Src/FilteringFunctions/arm_biquad_cascade_df1_f32.c:650:11
	str	r0, [sp, #20]
	.loc	6 651 13 is_stmt 1              @ ../Middlewares/CMSIS/DSP/Src/FilteringFunctions/arm_biquad_cascade_df1_f32.c:651:13
	ldr	r0, [sp, #8]
	.loc	6 651 11 is_stmt 0              @ ../Middlewares/CMSIS/DSP/Src/FilteringFunctions/arm_biquad_cascade_df1_f32.c:651:11
	str	r0, [sp, #24]
	.loc	6 652 13 is_stmt 1              @ ../Middlewares/CMSIS/DSP/Src/FilteringFunctions/arm_biquad_cascade_df1_f32.c:652:13
	ldr	r0, [sp, #16]
	.loc	6 652 11 is_stmt 0              @ ../Middlewares/CMSIS/DSP/Src/FilteringFunctions/arm_biquad_cascade_df1_f32.c:652:11
	str	r0, [sp, #12]
	.loc	6 653 13 is_stmt 1              @ ../Middlewares/CMSIS/DSP/Src/FilteringFunctions/arm_biquad_cascade_df1_f32.c:653:13
	ldr	r0, [sp, #48]
	.loc	6 653 11 is_stmt 0              @ ../Middlewares/CMSIS/DSP/Src/FilteringFunctions/arm_biquad_cascade_df1_f32.c:653:11
	str	r0, [sp, #16]
	.loc	6 656 13 is_stmt 1              @ ../Middlewares/CMSIS/DSP/Src/FilteringFunctions/arm_biquad_cascade_df1_f32.c:656:13
	ldr	r0, [sp, #4]
	subs	r0, #1
	str	r0, [sp, #4]
.Ltmp17:
	.loc	6 633 5                         @ ../Middlewares/CMSIS/DSP/Src/FilteringFunctions/arm_biquad_cascade_df1_f32.c:633:5
	b	.LBB2_2
.LBB2_4:                                @   in Loop: Header=BB2_1 Depth=1
	.loc	6 660 17                        @ ../Middlewares/CMSIS/DSP/Src/FilteringFunctions/arm_biquad_cascade_df1_f32.c:660:17
	ldr	r0, [sp, #24]
	.loc	6 660 12 is_stmt 0              @ ../Middlewares/CMSIS/DSP/Src/FilteringFunctions/arm_biquad_cascade_df1_f32.c:660:12
	ldr	r1, [sp, #56]
	adds	r2, r1, #4
	str	r2, [sp, #56]
	.loc	6 660 15                        @ ../Middlewares/CMSIS/DSP/Src/FilteringFunctions/arm_biquad_cascade_df1_f32.c:660:15
	str	r0, [r1]
	.loc	6 661 17 is_stmt 1              @ ../Middlewares/CMSIS/DSP/Src/FilteringFunctions/arm_biquad_cascade_df1_f32.c:661:17
	ldr	r0, [sp, #20]
	.loc	6 661 12 is_stmt 0              @ ../Middlewares/CMSIS/DSP/Src/FilteringFunctions/arm_biquad_cascade_df1_f32.c:661:12
	ldr	r1, [sp, #56]
	adds	r2, r1, #4
	str	r2, [sp, #56]
	.loc	6 661 15                        @ ../Middlewares/CMSIS/DSP/Src/FilteringFunctions/arm_biquad_cascade_df1_f32.c:661:15
	str	r0, [r1]
	.loc	6 662 17 is_stmt 1              @ ../Middlewares/CMSIS/DSP/Src/FilteringFunctions/arm_biquad_cascade_df1_f32.c:662:17
	ldr	r0, [sp, #16]
	.loc	6 662 12 is_stmt 0              @ ../Middlewares/CMSIS/DSP/Src/FilteringFunctions/arm_biquad_cascade_df1_f32.c:662:12
	ldr	r1, [sp, #56]
	adds	r2, r1, #4
	str	r2, [sp, #56]
	.loc	6 662 15                        @ ../Middlewares/CMSIS/DSP/Src/FilteringFunctions/arm_biquad_cascade_df1_f32.c:662:15
	str	r0, [r1]
	.loc	6 663 17 is_stmt 1              @ ../Middlewares/CMSIS/DSP/Src/FilteringFunctions/arm_biquad_cascade_df1_f32.c:663:17
	ldr	r0, [sp, #12]
	.loc	6 663 12 is_stmt 0              @ ../Middlewares/CMSIS/DSP/Src/FilteringFunctions/arm_biquad_cascade_df1_f32.c:663:12
	ldr	r1, [sp, #56]
	adds	r2, r1, #4
	str	r2, [sp, #56]
	.loc	6 663 15                        @ ../Middlewares/CMSIS/DSP/Src/FilteringFunctions/arm_biquad_cascade_df1_f32.c:663:15
	str	r0, [r1]
	.loc	6 667 11 is_stmt 1              @ ../Middlewares/CMSIS/DSP/Src/FilteringFunctions/arm_biquad_cascade_df1_f32.c:667:11
	ldr	r0, [sp, #72]
	.loc	6 667 9 is_stmt 0               @ ../Middlewares/CMSIS/DSP/Src/FilteringFunctions/arm_biquad_cascade_df1_f32.c:667:9
	str	r0, [sp, #64]
	.loc	6 670 12 is_stmt 1              @ ../Middlewares/CMSIS/DSP/Src/FilteringFunctions/arm_biquad_cascade_df1_f32.c:670:12
	ldr	r0, [sp, #72]
	.loc	6 670 10 is_stmt 0              @ ../Middlewares/CMSIS/DSP/Src/FilteringFunctions/arm_biquad_cascade_df1_f32.c:670:10
	str	r0, [sp, #60]
	.loc	6 673 10 is_stmt 1              @ ../Middlewares/CMSIS/DSP/Src/FilteringFunctions/arm_biquad_cascade_df1_f32.c:673:10
	ldr	r0, [sp]
	subs	r0, #1
	str	r0, [sp]
	.loc	6 675 3                         @ ../Middlewares/CMSIS/DSP/Src/FilteringFunctions/arm_biquad_cascade_df1_f32.c:675:3
	b	.LBB2_5
.Ltmp18:
.LBB2_5:                                @   in Loop: Header=BB2_1 Depth=1
	.loc	6 675 12 is_stmt 0              @ ../Middlewares/CMSIS/DSP/Src/FilteringFunctions/arm_biquad_cascade_df1_f32.c:675:12
	ldr	r0, [sp]
.Ltmp19:
	.loc	6 675 3                         @ ../Middlewares/CMSIS/DSP/Src/FilteringFunctions/arm_biquad_cascade_df1_f32.c:675:3
	cmp	r0, #0
	bne.w	.LBB2_1
	b	.LBB2_6
.Ltmp20:
.LBB2_6:
	.loc	6 677 1 is_stmt 1               @ ../Middlewares/CMSIS/DSP/Src/FilteringFunctions/arm_biquad_cascade_df1_f32.c:677:1
	add	sp, #84
	bx	lr
.Ltmp21:
.Lfunc_end2:
	.size	arm_biquad_cascade_df1_f32, .Lfunc_end2-arm_biquad_cascade_df1_f32
	.cfi_endproc
	.cantunwind
	.fnend
                                        @ -- End function
	.section	.text.arm_biquad_cascade_df1_fast_q15,"ax",%progbits
	.hidden	arm_biquad_cascade_df1_fast_q15 @ -- Begin function arm_biquad_cascade_df1_fast_q15
	.globl	arm_biquad_cascade_df1_fast_q15
	.p2align	2
	.type	arm_biquad_cascade_df1_fast_q15,%function
	.code	16                              @ @arm_biquad_cascade_df1_fast_q15
	.thumb_func
arm_biquad_cascade_df1_fast_q15:
.Lfunc_begin3:
	.file	7 "D:\\horizon\\Horizon_Infantry (2)\\MDK-ARM" "../Middlewares/CMSIS/DSP/Src/FilteringFunctions/arm_biquad_cascade_df1_fast_q15.c"
	.loc	7 65 0                          @ ../Middlewares/CMSIS/DSP/Src/FilteringFunctions/arm_biquad_cascade_df1_fast_q15.c:65:0
	.fnstart
	.cfi_startproc
@ %bb.0:
	.pad	#140
	sub	sp, #140
	.cfi_def_cfa_offset 140
	str	r0, [sp, #72]
	str	r1, [sp, #68]
	str	r2, [sp, #64]
	str	r3, [sp, #60]
.Ltmp22:
	.loc	7 66 22 prologue_end            @ ../Middlewares/CMSIS/DSP/Src/FilteringFunctions/arm_biquad_cascade_df1_fast_q15.c:66:22
	ldr	r0, [sp, #68]
	.loc	7 66 16 is_stmt 0               @ ../Middlewares/CMSIS/DSP/Src/FilteringFunctions/arm_biquad_cascade_df1_fast_q15.c:66:16
	str	r0, [sp, #56]
	.loc	7 67 23 is_stmt 1               @ ../Middlewares/CMSIS/DSP/Src/FilteringFunctions/arm_biquad_cascade_df1_fast_q15.c:67:23
	ldr	r0, [sp, #64]
	.loc	7 67 16 is_stmt 0               @ ../Middlewares/CMSIS/DSP/Src/FilteringFunctions/arm_biquad_cascade_df1_fast_q15.c:67:16
	str	r0, [sp, #52]
	.loc	7 68 25 is_stmt 1               @ ../Middlewares/CMSIS/DSP/Src/FilteringFunctions/arm_biquad_cascade_df1_fast_q15.c:68:25
	ldr	r0, [sp, #72]
	.loc	7 68 28 is_stmt 0               @ ../Middlewares/CMSIS/DSP/Src/FilteringFunctions/arm_biquad_cascade_df1_fast_q15.c:68:28
	ldr	r0, [r0, #4]
	.loc	7 68 16                         @ ../Middlewares/CMSIS/DSP/Src/FilteringFunctions/arm_biquad_cascade_df1_fast_q15.c:68:16
	str	r0, [sp, #48]
	.loc	7 69 26 is_stmt 1               @ ../Middlewares/CMSIS/DSP/Src/FilteringFunctions/arm_biquad_cascade_df1_fast_q15.c:69:26
	ldr	r0, [sp, #72]
	.loc	7 69 29 is_stmt 0               @ ../Middlewares/CMSIS/DSP/Src/FilteringFunctions/arm_biquad_cascade_df1_fast_q15.c:69:29
	ldr	r0, [r0, #8]
	.loc	7 69 16                         @ ../Middlewares/CMSIS/DSP/Src/FilteringFunctions/arm_biquad_cascade_df1_fast_q15.c:69:16
	str	r0, [sp, #44]
	.loc	7 76 41 is_stmt 1               @ ../Middlewares/CMSIS/DSP/Src/FilteringFunctions/arm_biquad_cascade_df1_fast_q15.c:76:41
	ldr	r0, [sp, #72]
	.loc	7 76 44 is_stmt 0               @ ../Middlewares/CMSIS/DSP/Src/FilteringFunctions/arm_biquad_cascade_df1_fast_q15.c:76:44
	ldrsb.w	r0, [r0, #12]
	.loc	7 76 39                         @ ../Middlewares/CMSIS/DSP/Src/FilteringFunctions/arm_biquad_cascade_df1_fast_q15.c:76:39
	rsb.w	r0, r0, #15
	.loc	7 76 17                         @ ../Middlewares/CMSIS/DSP/Src/FilteringFunctions/arm_biquad_cascade_df1_fast_q15.c:76:17
	str	r0, [sp, #8]
	.loc	7 77 34 is_stmt 1               @ ../Middlewares/CMSIS/DSP/Src/FilteringFunctions/arm_biquad_cascade_df1_fast_q15.c:77:34
	ldr	r0, [sp, #72]
	.loc	7 77 37 is_stmt 0               @ ../Middlewares/CMSIS/DSP/Src/FilteringFunctions/arm_biquad_cascade_df1_fast_q15.c:77:37
	ldrsb.w	r0, [r0]
	.loc	7 77 26                         @ ../Middlewares/CMSIS/DSP/Src/FilteringFunctions/arm_biquad_cascade_df1_fast_q15.c:77:26
	str	r0, [sp]
	.loc	7 79 3 is_stmt 1                @ ../Middlewares/CMSIS/DSP/Src/FilteringFunctions/arm_biquad_cascade_df1_fast_q15.c:79:3
	b	.LBB3_1
.LBB3_1:                                @ =>This Loop Header: Depth=1
                                        @     Child Loop BB3_2 Depth 2
.Ltmp23:
	.loc	7 82 34                         @ ../Middlewares/CMSIS/DSP/Src/FilteringFunctions/arm_biquad_cascade_df1_fast_q15.c:82:34
	ldr	r0, [sp, #44]
	adds	r1, r0, #4
	str	r1, [sp, #44]
	str	r0, [sp, #112]
.Ltmp24:
	.file	8 "D:\\horizon\\Horizon_Infantry (2)\\MDK-ARM" "../Middlewares/CMSIS/DSP/Inc\\arm_math_memory.h"
	.loc	8 82 17 is_stmt 0               @ ../Middlewares/CMSIS/DSP/Inc\arm_math_memory.h:82:17
	ldr	r0, [sp, #112]
	.loc	8 82 3                          @ ../Middlewares/CMSIS/DSP/Inc\arm_math_memory.h:82:3
	ldr	r0, [r0]
	str	r0, [sp, #108]
	.loc	8 87 11 is_stmt 1               @ ../Middlewares/CMSIS/DSP/Inc\arm_math_memory.h:87:11
	ldr	r0, [sp, #108]
.Ltmp25:
	.loc	7 82 8                          @ ../Middlewares/CMSIS/DSP/Src/FilteringFunctions/arm_biquad_cascade_df1_fast_q15.c:82:8
	str	r0, [sp, #28]
	.loc	7 85 34                         @ ../Middlewares/CMSIS/DSP/Src/FilteringFunctions/arm_biquad_cascade_df1_fast_q15.c:85:34
	ldr	r0, [sp, #44]
	adds	r1, r0, #4
	str	r1, [sp, #44]
	str	r0, [sp, #104]
.Ltmp26:
	.loc	8 82 17                         @ ../Middlewares/CMSIS/DSP/Inc\arm_math_memory.h:82:17
	ldr	r0, [sp, #104]
	.loc	8 82 3 is_stmt 0                @ ../Middlewares/CMSIS/DSP/Inc\arm_math_memory.h:82:3
	ldr	r0, [r0]
	str	r0, [sp, #100]
	.loc	8 87 11 is_stmt 1               @ ../Middlewares/CMSIS/DSP/Inc\arm_math_memory.h:87:11
	ldr	r0, [sp, #100]
.Ltmp27:
	.loc	7 85 8                          @ ../Middlewares/CMSIS/DSP/Src/FilteringFunctions/arm_biquad_cascade_df1_fast_q15.c:85:8
	str	r0, [sp, #24]
	.loc	7 88 34                         @ ../Middlewares/CMSIS/DSP/Src/FilteringFunctions/arm_biquad_cascade_df1_fast_q15.c:88:34
	ldr	r0, [sp, #44]
	adds	r1, r0, #4
	str	r1, [sp, #44]
	str	r0, [sp, #96]
.Ltmp28:
	.loc	8 82 17                         @ ../Middlewares/CMSIS/DSP/Inc\arm_math_memory.h:82:17
	ldr	r0, [sp, #96]
	.loc	8 82 3 is_stmt 0                @ ../Middlewares/CMSIS/DSP/Inc\arm_math_memory.h:82:3
	ldr	r0, [r0]
	str	r0, [sp, #92]
	.loc	8 87 11 is_stmt 1               @ ../Middlewares/CMSIS/DSP/Inc\arm_math_memory.h:87:11
	ldr	r0, [sp, #92]
.Ltmp29:
	.loc	7 88 8                          @ ../Middlewares/CMSIS/DSP/Src/FilteringFunctions/arm_biquad_cascade_df1_fast_q15.c:88:8
	str	r0, [sp, #20]
	.loc	7 91 39                         @ ../Middlewares/CMSIS/DSP/Src/FilteringFunctions/arm_biquad_cascade_df1_fast_q15.c:91:39
	ldr	r0, [sp, #48]
	adds	r1, r0, #4
	str	r1, [sp, #48]
	str	r0, [sp, #88]
.Ltmp30:
	.loc	8 82 17                         @ ../Middlewares/CMSIS/DSP/Inc\arm_math_memory.h:82:17
	ldr	r0, [sp, #88]
	.loc	8 82 3 is_stmt 0                @ ../Middlewares/CMSIS/DSP/Inc\arm_math_memory.h:82:3
	ldr	r0, [r0]
	str	r0, [sp, #84]
	.loc	8 87 11 is_stmt 1               @ ../Middlewares/CMSIS/DSP/Inc\arm_math_memory.h:87:11
	ldr	r0, [sp, #84]
.Ltmp31:
	.loc	7 91 14                         @ ../Middlewares/CMSIS/DSP/Src/FilteringFunctions/arm_biquad_cascade_df1_fast_q15.c:91:14
	str	r0, [sp, #16]
	.loc	7 94 40                         @ ../Middlewares/CMSIS/DSP/Src/FilteringFunctions/arm_biquad_cascade_df1_fast_q15.c:94:40
	ldr	r0, [sp, #48]
	subs	r1, r0, #4
	str	r1, [sp, #48]
	str	r0, [sp, #80]
.Ltmp32:
	.loc	8 82 17                         @ ../Middlewares/CMSIS/DSP/Inc\arm_math_memory.h:82:17
	ldr	r0, [sp, #80]
	.loc	8 82 3 is_stmt 0                @ ../Middlewares/CMSIS/DSP/Inc\arm_math_memory.h:82:3
	ldr	r0, [r0]
	str	r0, [sp, #76]
	.loc	8 87 11 is_stmt 1               @ ../Middlewares/CMSIS/DSP/Inc\arm_math_memory.h:87:11
	ldr	r0, [sp, #76]
.Ltmp33:
	.loc	7 94 15                         @ ../Middlewares/CMSIS/DSP/Src/FilteringFunctions/arm_biquad_cascade_df1_fast_q15.c:94:15
	str	r0, [sp, #12]
	.loc	7 184 14                        @ ../Middlewares/CMSIS/DSP/Src/FilteringFunctions/arm_biquad_cascade_df1_fast_q15.c:184:14
	ldr	r0, [sp, #60]
	.loc	7 184 12 is_stmt 0              @ ../Middlewares/CMSIS/DSP/Src/FilteringFunctions/arm_biquad_cascade_df1_fast_q15.c:184:12
	str	r0, [sp, #4]
	.loc	7 188 5 is_stmt 1               @ ../Middlewares/CMSIS/DSP/Src/FilteringFunctions/arm_biquad_cascade_df1_fast_q15.c:188:5
	b	.LBB3_2
.LBB3_2:                                @   Parent Loop BB3_1 Depth=1
                                        @ =>  This Inner Loop Header: Depth=2
	.loc	7 188 12 is_stmt 0              @ ../Middlewares/CMSIS/DSP/Src/FilteringFunctions/arm_biquad_cascade_df1_fast_q15.c:188:12
	ldr	r0, [sp, #4]
	.loc	7 188 5                         @ ../Middlewares/CMSIS/DSP/Src/FilteringFunctions/arm_biquad_cascade_df1_fast_q15.c:188:5
	cbz	r0, .LBB3_4
	b	.LBB3_3
.LBB3_3:                                @   in Loop: Header=BB3_2 Depth=2
.Ltmp34:
	.loc	7 191 16 is_stmt 1              @ ../Middlewares/CMSIS/DSP/Src/FilteringFunctions/arm_biquad_cascade_df1_fast_q15.c:191:16
	ldr	r0, [sp, #56]
	adds	r1, r0, #2
	str	r1, [sp, #56]
	.loc	7 191 12 is_stmt 0              @ ../Middlewares/CMSIS/DSP/Src/FilteringFunctions/arm_biquad_cascade_df1_fast_q15.c:191:12
	ldrsh.w	r0, [r0]
	.loc	7 191 10                        @ ../Middlewares/CMSIS/DSP/Src/FilteringFunctions/arm_biquad_cascade_df1_fast_q15.c:191:10
	str	r0, [sp, #36]
	.loc	7 195 33 is_stmt 1              @ ../Middlewares/CMSIS/DSP/Src/FilteringFunctions/arm_biquad_cascade_df1_fast_q15.c:195:33
	ldr	r0, [sp, #28]
	.loc	7 195 37 is_stmt 0              @ ../Middlewares/CMSIS/DSP/Src/FilteringFunctions/arm_biquad_cascade_df1_fast_q15.c:195:37
	ldr	r1, [sp, #36]
	.loc	7 195 13                        @ ../Middlewares/CMSIS/DSP/Src/FilteringFunctions/arm_biquad_cascade_df1_fast_q15.c:195:13
	smuad	r0, r0, r1
	.loc	7 195 11                        @ ../Middlewares/CMSIS/DSP/Src/FilteringFunctions/arm_biquad_cascade_df1_fast_q15.c:195:11
	str	r0, [sp, #32]
	.loc	7 201 33 is_stmt 1              @ ../Middlewares/CMSIS/DSP/Src/FilteringFunctions/arm_biquad_cascade_df1_fast_q15.c:201:33
	ldr	r0, [sp, #24]
	.loc	7 201 37 is_stmt 0              @ ../Middlewares/CMSIS/DSP/Src/FilteringFunctions/arm_biquad_cascade_df1_fast_q15.c:201:37
	ldr	r1, [sp, #16]
	.loc	7 201 47                        @ ../Middlewares/CMSIS/DSP/Src/FilteringFunctions/arm_biquad_cascade_df1_fast_q15.c:201:47
	ldr	r2, [sp, #32]
	.loc	7 201 13                        @ ../Middlewares/CMSIS/DSP/Src/FilteringFunctions/arm_biquad_cascade_df1_fast_q15.c:201:13
	smlad	r0, r0, r1, r2
	.loc	7 201 11                        @ ../Middlewares/CMSIS/DSP/Src/FilteringFunctions/arm_biquad_cascade_df1_fast_q15.c:201:11
	str	r0, [sp, #40]
	.loc	7 203 33 is_stmt 1              @ ../Middlewares/CMSIS/DSP/Src/FilteringFunctions/arm_biquad_cascade_df1_fast_q15.c:203:33
	ldr	r0, [sp, #20]
	.loc	7 203 37 is_stmt 0              @ ../Middlewares/CMSIS/DSP/Src/FilteringFunctions/arm_biquad_cascade_df1_fast_q15.c:203:37
	ldr	r1, [sp, #12]
	.loc	7 203 48                        @ ../Middlewares/CMSIS/DSP/Src/FilteringFunctions/arm_biquad_cascade_df1_fast_q15.c:203:48
	ldr	r2, [sp, #40]
	.loc	7 203 13                        @ ../Middlewares/CMSIS/DSP/Src/FilteringFunctions/arm_biquad_cascade_df1_fast_q15.c:203:13
	smlad	r0, r0, r1, r2
	.loc	7 203 11                        @ ../Middlewares/CMSIS/DSP/Src/FilteringFunctions/arm_biquad_cascade_df1_fast_q15.c:203:11
	str	r0, [sp, #40]
	.loc	7 206 33 is_stmt 1              @ ../Middlewares/CMSIS/DSP/Src/FilteringFunctions/arm_biquad_cascade_df1_fast_q15.c:206:33
	ldr	r0, [sp, #40]
	.loc	7 206 40 is_stmt 0              @ ../Middlewares/CMSIS/DSP/Src/FilteringFunctions/arm_biquad_cascade_df1_fast_q15.c:206:40
	ldr	r1, [sp, #8]
	.loc	7 206 37                        @ ../Middlewares/CMSIS/DSP/Src/FilteringFunctions/arm_biquad_cascade_df1_fast_q15.c:206:37
	asrs	r0, r1
	.loc	7 206 13                        @ ../Middlewares/CMSIS/DSP/Src/FilteringFunctions/arm_biquad_cascade_df1_fast_q15.c:206:13
	ssat	r0, #16, r0
	.loc	7 206 11                        @ ../Middlewares/CMSIS/DSP/Src/FilteringFunctions/arm_biquad_cascade_df1_fast_q15.c:206:11
	str	r0, [sp, #32]
	.loc	7 209 25 is_stmt 1              @ ../Middlewares/CMSIS/DSP/Src/FilteringFunctions/arm_biquad_cascade_df1_fast_q15.c:209:25
	ldr	r0, [sp, #32]
	.loc	7 209 12 is_stmt 0              @ ../Middlewares/CMSIS/DSP/Src/FilteringFunctions/arm_biquad_cascade_df1_fast_q15.c:209:12
	ldr	r1, [sp, #52]
	adds	r2, r1, #2
	str	r2, [sp, #52]
	.loc	7 209 15                        @ ../Middlewares/CMSIS/DSP/Src/FilteringFunctions/arm_biquad_cascade_df1_fast_q15.c:209:15
	strh	r0, [r1]
	.loc	7 220 34 is_stmt 1              @ ../Middlewares/CMSIS/DSP/Src/FilteringFunctions/arm_biquad_cascade_df1_fast_q15.c:220:34
	ldrh.w	r0, [sp, #36]
	.loc	7 220 73 is_stmt 0              @ ../Middlewares/CMSIS/DSP/Src/FilteringFunctions/arm_biquad_cascade_df1_fast_q15.c:220:73
	ldr	r1, [sp, #16]
	.loc	7 220 57                        @ ../Middlewares/CMSIS/DSP/Src/FilteringFunctions/arm_biquad_cascade_df1_fast_q15.c:220:57
	orr.w	r0, r0, r1, lsl #16
	.loc	7 220 16                        @ ../Middlewares/CMSIS/DSP/Src/FilteringFunctions/arm_biquad_cascade_df1_fast_q15.c:220:16
	str	r0, [sp, #16]
	.loc	7 221 35 is_stmt 1              @ ../Middlewares/CMSIS/DSP/Src/FilteringFunctions/arm_biquad_cascade_df1_fast_q15.c:221:35
	ldrh.w	r0, [sp, #32]
	.loc	7 221 75 is_stmt 0              @ ../Middlewares/CMSIS/DSP/Src/FilteringFunctions/arm_biquad_cascade_df1_fast_q15.c:221:75
	ldr	r1, [sp, #12]
	.loc	7 221 59                        @ ../Middlewares/CMSIS/DSP/Src/FilteringFunctions/arm_biquad_cascade_df1_fast_q15.c:221:59
	orr.w	r0, r0, r1, lsl #16
	.loc	7 221 17                        @ ../Middlewares/CMSIS/DSP/Src/FilteringFunctions/arm_biquad_cascade_df1_fast_q15.c:221:17
	str	r0, [sp, #12]
	.loc	7 228 13 is_stmt 1              @ ../Middlewares/CMSIS/DSP/Src/FilteringFunctions/arm_biquad_cascade_df1_fast_q15.c:228:13
	ldr	r0, [sp, #4]
	subs	r0, #1
	str	r0, [sp, #4]
.Ltmp35:
	.loc	7 188 5                         @ ../Middlewares/CMSIS/DSP/Src/FilteringFunctions/arm_biquad_cascade_df1_fast_q15.c:188:5
	b	.LBB3_2
.LBB3_4:                                @   in Loop: Header=BB3_1 Depth=1
	.loc	7 233 11                        @ ../Middlewares/CMSIS/DSP/Src/FilteringFunctions/arm_biquad_cascade_df1_fast_q15.c:233:11
	ldr	r0, [sp, #64]
	.loc	7 233 9 is_stmt 0               @ ../Middlewares/CMSIS/DSP/Src/FilteringFunctions/arm_biquad_cascade_df1_fast_q15.c:233:9
	str	r0, [sp, #56]
	.loc	7 236 12 is_stmt 1              @ ../Middlewares/CMSIS/DSP/Src/FilteringFunctions/arm_biquad_cascade_df1_fast_q15.c:236:12
	ldr	r0, [sp, #64]
	.loc	7 236 10 is_stmt 0              @ ../Middlewares/CMSIS/DSP/Src/FilteringFunctions/arm_biquad_cascade_df1_fast_q15.c:236:10
	str	r0, [sp, #52]
	.loc	7 239 29 is_stmt 1              @ ../Middlewares/CMSIS/DSP/Src/FilteringFunctions/arm_biquad_cascade_df1_fast_q15.c:239:29
	ldr	r0, [sp, #16]
	add	r1, sp, #48
	str	r1, [sp, #136]
	str	r0, [sp, #132]
.Ltmp36:
	.loc	8 114 15                        @ ../Middlewares/CMSIS/DSP/Inc\arm_math_memory.h:114:15
	ldr	r0, [sp, #132]
	.loc	8 114 9 is_stmt 0               @ ../Middlewares/CMSIS/DSP/Inc\arm_math_memory.h:114:9
	str	r0, [sp, #128]
	.loc	8 116 12 is_stmt 1              @ ../Middlewares/CMSIS/DSP/Inc\arm_math_memory.h:116:12
	ldr	r0, [sp, #136]
	.loc	8 116 11 is_stmt 0              @ ../Middlewares/CMSIS/DSP/Inc\arm_math_memory.h:116:11
	ldr	r2, [r0]
	.loc	8 116 3                         @ ../Middlewares/CMSIS/DSP/Inc\arm_math_memory.h:116:3
	ldr	r0, [sp, #128]
	str	r0, [r2]
	.loc	8 122 3 is_stmt 1               @ ../Middlewares/CMSIS/DSP/Inc\arm_math_memory.h:122:3
	ldr	r2, [sp, #136]
	.loc	8 122 8 is_stmt 0               @ ../Middlewares/CMSIS/DSP/Inc\arm_math_memory.h:122:8
	ldr	r0, [r2]
	adds	r0, #4
	str	r0, [r2]
.Ltmp37:
	.loc	7 240 29 is_stmt 1              @ ../Middlewares/CMSIS/DSP/Src/FilteringFunctions/arm_biquad_cascade_df1_fast_q15.c:240:29
	ldr	r0, [sp, #12]
	str	r1, [sp, #124]
	str	r0, [sp, #120]
.Ltmp38:
	.loc	8 114 15                        @ ../Middlewares/CMSIS/DSP/Inc\arm_math_memory.h:114:15
	ldr	r0, [sp, #120]
	.loc	8 114 9 is_stmt 0               @ ../Middlewares/CMSIS/DSP/Inc\arm_math_memory.h:114:9
	str	r0, [sp, #116]
	.loc	8 116 12 is_stmt 1              @ ../Middlewares/CMSIS/DSP/Inc\arm_math_memory.h:116:12
	ldr	r0, [sp, #124]
	.loc	8 116 11 is_stmt 0              @ ../Middlewares/CMSIS/DSP/Inc\arm_math_memory.h:116:11
	ldr	r1, [r0]
	.loc	8 116 3                         @ ../Middlewares/CMSIS/DSP/Inc\arm_math_memory.h:116:3
	ldr	r0, [sp, #116]
	str	r0, [r1]
	.loc	8 122 3 is_stmt 1               @ ../Middlewares/CMSIS/DSP/Inc\arm_math_memory.h:122:3
	ldr	r1, [sp, #124]
	.loc	8 122 8 is_stmt 0               @ ../Middlewares/CMSIS/DSP/Inc\arm_math_memory.h:122:8
	ldr	r0, [r1]
	adds	r0, #4
	str	r0, [r1]
.Ltmp39:
	.loc	7 243 10 is_stmt 1              @ ../Middlewares/CMSIS/DSP/Src/FilteringFunctions/arm_biquad_cascade_df1_fast_q15.c:243:10
	ldr	r0, [sp]
	subs	r0, #1
	str	r0, [sp]
	.loc	7 245 3                         @ ../Middlewares/CMSIS/DSP/Src/FilteringFunctions/arm_biquad_cascade_df1_fast_q15.c:245:3
	b	.LBB3_5
.Ltmp40:
.LBB3_5:                                @   in Loop: Header=BB3_1 Depth=1
	.loc	7 245 12 is_stmt 0              @ ../Middlewares/CMSIS/DSP/Src/FilteringFunctions/arm_biquad_cascade_df1_fast_q15.c:245:12
	ldr	r0, [sp]
.Ltmp41:
	.loc	7 245 3                         @ ../Middlewares/CMSIS/DSP/Src/FilteringFunctions/arm_biquad_cascade_df1_fast_q15.c:245:3
	cmp	r0, #0
	bne.w	.LBB3_1
	b	.LBB3_6
.Ltmp42:
.LBB3_6:
	.loc	7 246 1 is_stmt 1               @ ../Middlewares/CMSIS/DSP/Src/FilteringFunctions/arm_biquad_cascade_df1_fast_q15.c:246:1
	add	sp, #140
	bx	lr
.Ltmp43:
.Lfunc_end3:
	.size	arm_biquad_cascade_df1_fast_q15, .Lfunc_end3-arm_biquad_cascade_df1_fast_q15
	.cfi_endproc
	.cantunwind
	.fnend
                                        @ -- End function
	.section	.text.arm_biquad_cascade_df1_fast_q31,"ax",%progbits
	.hidden	arm_biquad_cascade_df1_fast_q31 @ -- Begin function arm_biquad_cascade_df1_fast_q31
	.globl	arm_biquad_cascade_df1_fast_q31
	.p2align	2
	.type	arm_biquad_cascade_df1_fast_q31,%function
	.code	16                              @ @arm_biquad_cascade_df1_fast_q31
	.thumb_func
arm_biquad_cascade_df1_fast_q31:
.Lfunc_begin4:
	.file	9 "D:\\horizon\\Horizon_Infantry (2)\\MDK-ARM" "../Middlewares/CMSIS/DSP/Src/FilteringFunctions/arm_biquad_cascade_df1_fast_q31.c"
	.loc	9 67 0                          @ ../Middlewares/CMSIS/DSP/Src/FilteringFunctions/arm_biquad_cascade_df1_fast_q31.c:67:0
	.fnstart
	.cfi_startproc
@ %bb.0:
	.pad	#88
	sub	sp, #88
	.cfi_def_cfa_offset 88
	str	r0, [sp, #84]
	str	r1, [sp, #80]
	str	r2, [sp, #76]
	str	r3, [sp, #72]
.Ltmp44:
	.loc	9 68 22 prologue_end            @ ../Middlewares/CMSIS/DSP/Src/FilteringFunctions/arm_biquad_cascade_df1_fast_q31.c:68:22
	ldr	r0, [sp, #80]
	.loc	9 68 16 is_stmt 0               @ ../Middlewares/CMSIS/DSP/Src/FilteringFunctions/arm_biquad_cascade_df1_fast_q31.c:68:16
	str	r0, [sp, #68]
	.loc	9 69 23 is_stmt 1               @ ../Middlewares/CMSIS/DSP/Src/FilteringFunctions/arm_biquad_cascade_df1_fast_q31.c:69:23
	ldr	r0, [sp, #76]
	.loc	9 69 16 is_stmt 0               @ ../Middlewares/CMSIS/DSP/Src/FilteringFunctions/arm_biquad_cascade_df1_fast_q31.c:69:16
	str	r0, [sp, #64]
	.loc	9 70 25 is_stmt 1               @ ../Middlewares/CMSIS/DSP/Src/FilteringFunctions/arm_biquad_cascade_df1_fast_q31.c:70:25
	ldr	r0, [sp, #84]
	.loc	9 70 28 is_stmt 0               @ ../Middlewares/CMSIS/DSP/Src/FilteringFunctions/arm_biquad_cascade_df1_fast_q31.c:70:28
	ldr	r0, [r0, #4]
	.loc	9 70 16                         @ ../Middlewares/CMSIS/DSP/Src/FilteringFunctions/arm_biquad_cascade_df1_fast_q31.c:70:16
	str	r0, [sp, #60]
	.loc	9 71 26 is_stmt 1               @ ../Middlewares/CMSIS/DSP/Src/FilteringFunctions/arm_biquad_cascade_df1_fast_q31.c:71:26
	ldr	r0, [sp, #84]
	.loc	9 71 29 is_stmt 0               @ ../Middlewares/CMSIS/DSP/Src/FilteringFunctions/arm_biquad_cascade_df1_fast_q31.c:71:29
	ldr	r0, [r0, #8]
	.loc	9 71 16                         @ ../Middlewares/CMSIS/DSP/Src/FilteringFunctions/arm_biquad_cascade_df1_fast_q31.c:71:16
	str	r0, [sp, #56]
	movs	r0, #0
	.loc	9 72 15 is_stmt 1               @ ../Middlewares/CMSIS/DSP/Src/FilteringFunctions/arm_biquad_cascade_df1_fast_q31.c:72:15
	str	r0, [sp, #52]
	.loc	9 76 35                         @ ../Middlewares/CMSIS/DSP/Src/FilteringFunctions/arm_biquad_cascade_df1_fast_q31.c:76:35
	ldr	r0, [sp, #84]
	.loc	9 76 38 is_stmt 0               @ ../Middlewares/CMSIS/DSP/Src/FilteringFunctions/arm_biquad_cascade_df1_fast_q31.c:76:38
	ldrb	r0, [r0, #12]
	.loc	9 76 48                         @ ../Middlewares/CMSIS/DSP/Src/FilteringFunctions/arm_biquad_cascade_df1_fast_q31.c:76:48
	adds	r0, #1
	.loc	9 76 17                         @ ../Middlewares/CMSIS/DSP/Src/FilteringFunctions/arm_biquad_cascade_df1_fast_q31.c:76:17
	str	r0, [sp, #8]
	.loc	9 77 34 is_stmt 1               @ ../Middlewares/CMSIS/DSP/Src/FilteringFunctions/arm_biquad_cascade_df1_fast_q31.c:77:34
	ldr	r0, [sp, #84]
	.loc	9 77 37 is_stmt 0               @ ../Middlewares/CMSIS/DSP/Src/FilteringFunctions/arm_biquad_cascade_df1_fast_q31.c:77:37
	ldr	r0, [r0]
	.loc	9 77 26                         @ ../Middlewares/CMSIS/DSP/Src/FilteringFunctions/arm_biquad_cascade_df1_fast_q31.c:77:26
	str	r0, [sp]
	.loc	9 79 3 is_stmt 1                @ ../Middlewares/CMSIS/DSP/Src/FilteringFunctions/arm_biquad_cascade_df1_fast_q31.c:79:3
	b	.LBB4_1
.LBB4_1:                                @ =>This Loop Header: Depth=1
                                        @     Child Loop BB4_2 Depth 2
.Ltmp45:
	.loc	9 82 18                         @ ../Middlewares/CMSIS/DSP/Src/FilteringFunctions/arm_biquad_cascade_df1_fast_q31.c:82:18
	ldr	r0, [sp, #56]
	adds	r1, r0, #4
	str	r1, [sp, #56]
	.loc	9 82 10 is_stmt 0               @ ../Middlewares/CMSIS/DSP/Src/FilteringFunctions/arm_biquad_cascade_df1_fast_q31.c:82:10
	ldr	r0, [r0]
	.loc	9 82 8                          @ ../Middlewares/CMSIS/DSP/Src/FilteringFunctions/arm_biquad_cascade_df1_fast_q31.c:82:8
	str	r0, [sp, #48]
	.loc	9 83 18 is_stmt 1               @ ../Middlewares/CMSIS/DSP/Src/FilteringFunctions/arm_biquad_cascade_df1_fast_q31.c:83:18
	ldr	r0, [sp, #56]
	adds	r1, r0, #4
	str	r1, [sp, #56]
	.loc	9 83 10 is_stmt 0               @ ../Middlewares/CMSIS/DSP/Src/FilteringFunctions/arm_biquad_cascade_df1_fast_q31.c:83:10
	ldr	r0, [r0]
	.loc	9 83 8                          @ ../Middlewares/CMSIS/DSP/Src/FilteringFunctions/arm_biquad_cascade_df1_fast_q31.c:83:8
	str	r0, [sp, #44]
	.loc	9 84 18 is_stmt 1               @ ../Middlewares/CMSIS/DSP/Src/FilteringFunctions/arm_biquad_cascade_df1_fast_q31.c:84:18
	ldr	r0, [sp, #56]
	adds	r1, r0, #4
	str	r1, [sp, #56]
	.loc	9 84 10 is_stmt 0               @ ../Middlewares/CMSIS/DSP/Src/FilteringFunctions/arm_biquad_cascade_df1_fast_q31.c:84:10
	ldr	r0, [r0]
	.loc	9 84 8                          @ ../Middlewares/CMSIS/DSP/Src/FilteringFunctions/arm_biquad_cascade_df1_fast_q31.c:84:8
	str	r0, [sp, #40]
	.loc	9 85 18 is_stmt 1               @ ../Middlewares/CMSIS/DSP/Src/FilteringFunctions/arm_biquad_cascade_df1_fast_q31.c:85:18
	ldr	r0, [sp, #56]
	adds	r1, r0, #4
	str	r1, [sp, #56]
	.loc	9 85 10 is_stmt 0               @ ../Middlewares/CMSIS/DSP/Src/FilteringFunctions/arm_biquad_cascade_df1_fast_q31.c:85:10
	ldr	r0, [r0]
	.loc	9 85 8                          @ ../Middlewares/CMSIS/DSP/Src/FilteringFunctions/arm_biquad_cascade_df1_fast_q31.c:85:8
	str	r0, [sp, #36]
	.loc	9 86 18 is_stmt 1               @ ../Middlewares/CMSIS/DSP/Src/FilteringFunctions/arm_biquad_cascade_df1_fast_q31.c:86:18
	ldr	r0, [sp, #56]
	adds	r1, r0, #4
	str	r1, [sp, #56]
	.loc	9 86 10 is_stmt 0               @ ../Middlewares/CMSIS/DSP/Src/FilteringFunctions/arm_biquad_cascade_df1_fast_q31.c:86:10
	ldr	r0, [r0]
	.loc	9 86 8                          @ ../Middlewares/CMSIS/DSP/Src/FilteringFunctions/arm_biquad_cascade_df1_fast_q31.c:86:8
	str	r0, [sp, #32]
	.loc	9 89 11 is_stmt 1               @ ../Middlewares/CMSIS/DSP/Src/FilteringFunctions/arm_biquad_cascade_df1_fast_q31.c:89:11
	ldr	r0, [sp, #60]
	ldr	r0, [r0]
	.loc	9 89 9 is_stmt 0                @ ../Middlewares/CMSIS/DSP/Src/FilteringFunctions/arm_biquad_cascade_df1_fast_q31.c:89:9
	str	r0, [sp, #28]
	.loc	9 90 11 is_stmt 1               @ ../Middlewares/CMSIS/DSP/Src/FilteringFunctions/arm_biquad_cascade_df1_fast_q31.c:90:11
	ldr	r0, [sp, #60]
	ldr	r0, [r0, #4]
	.loc	9 90 9 is_stmt 0                @ ../Middlewares/CMSIS/DSP/Src/FilteringFunctions/arm_biquad_cascade_df1_fast_q31.c:90:9
	str	r0, [sp, #24]
	.loc	9 91 11 is_stmt 1               @ ../Middlewares/CMSIS/DSP/Src/FilteringFunctions/arm_biquad_cascade_df1_fast_q31.c:91:11
	ldr	r0, [sp, #60]
	ldr	r0, [r0, #8]
	.loc	9 91 9 is_stmt 0                @ ../Middlewares/CMSIS/DSP/Src/FilteringFunctions/arm_biquad_cascade_df1_fast_q31.c:91:9
	str	r0, [sp, #20]
	.loc	9 92 11 is_stmt 1               @ ../Middlewares/CMSIS/DSP/Src/FilteringFunctions/arm_biquad_cascade_df1_fast_q31.c:92:11
	ldr	r0, [sp, #60]
	ldr	r0, [r0, #12]
	.loc	9 92 9 is_stmt 0                @ ../Middlewares/CMSIS/DSP/Src/FilteringFunctions/arm_biquad_cascade_df1_fast_q31.c:92:9
	str	r0, [sp, #16]
	.loc	9 231 14 is_stmt 1              @ ../Middlewares/CMSIS/DSP/Src/FilteringFunctions/arm_biquad_cascade_df1_fast_q31.c:231:14
	ldr	r0, [sp, #72]
	.loc	9 231 12 is_stmt 0              @ ../Middlewares/CMSIS/DSP/Src/FilteringFunctions/arm_biquad_cascade_df1_fast_q31.c:231:12
	str	r0, [sp, #4]
	.loc	9 235 5 is_stmt 1               @ ../Middlewares/CMSIS/DSP/Src/FilteringFunctions/arm_biquad_cascade_df1_fast_q31.c:235:5
	b	.LBB4_2
.LBB4_2:                                @   Parent Loop BB4_1 Depth=1
                                        @ =>  This Inner Loop Header: Depth=2
	.loc	9 235 12 is_stmt 0              @ ../Middlewares/CMSIS/DSP/Src/FilteringFunctions/arm_biquad_cascade_df1_fast_q31.c:235:12
	ldr	r0, [sp, #4]
	.loc	9 235 5                         @ ../Middlewares/CMSIS/DSP/Src/FilteringFunctions/arm_biquad_cascade_df1_fast_q31.c:235:5
	cbz	r0, .LBB4_4
	b	.LBB4_3
.LBB4_3:                                @   in Loop: Header=BB4_2 Depth=2
.Ltmp46:
	.loc	9 238 16 is_stmt 1              @ ../Middlewares/CMSIS/DSP/Src/FilteringFunctions/arm_biquad_cascade_df1_fast_q31.c:238:16
	ldr	r0, [sp, #68]
	adds	r1, r0, #4
	str	r1, [sp, #68]
	.loc	9 238 12 is_stmt 0              @ ../Middlewares/CMSIS/DSP/Src/FilteringFunctions/arm_biquad_cascade_df1_fast_q31.c:238:12
	ldr	r0, [r0]
	.loc	9 238 10                        @ ../Middlewares/CMSIS/DSP/Src/FilteringFunctions/arm_biquad_cascade_df1_fast_q31.c:238:10
	str	r0, [sp, #12]
	.loc	9 243 31 is_stmt 1              @ ../Middlewares/CMSIS/DSP/Src/FilteringFunctions/arm_biquad_cascade_df1_fast_q31.c:243:31
	ldr	r0, [sp, #48]
	.loc	9 243 36 is_stmt 0              @ ../Middlewares/CMSIS/DSP/Src/FilteringFunctions/arm_biquad_cascade_df1_fast_q31.c:243:36
	ldr	r1, [sp, #12]
	.loc	9 243 39                        @ ../Middlewares/CMSIS/DSP/Src/FilteringFunctions/arm_biquad_cascade_df1_fast_q31.c:243:39
	smmulr	r0, r0, r1
	.loc	9 243 11                        @ ../Middlewares/CMSIS/DSP/Src/FilteringFunctions/arm_biquad_cascade_df1_fast_q31.c:243:11
	str	r0, [sp, #52]
	.loc	9 246 25 is_stmt 1              @ ../Middlewares/CMSIS/DSP/Src/FilteringFunctions/arm_biquad_cascade_df1_fast_q31.c:246:25
	ldr	r2, [sp, #52]
	.loc	9 246 56 is_stmt 0              @ ../Middlewares/CMSIS/DSP/Src/FilteringFunctions/arm_biquad_cascade_df1_fast_q31.c:246:56
	ldr	r0, [sp, #44]
	.loc	9 246 61                        @ ../Middlewares/CMSIS/DSP/Src/FilteringFunctions/arm_biquad_cascade_df1_fast_q31.c:246:61
	ldr	r1, [sp, #28]
	.loc	9 246 66                        @ ../Middlewares/CMSIS/DSP/Src/FilteringFunctions/arm_biquad_cascade_df1_fast_q31.c:246:66
	smmlar	r0, r0, r1, r2
	.loc	9 246 11                        @ ../Middlewares/CMSIS/DSP/Src/FilteringFunctions/arm_biquad_cascade_df1_fast_q31.c:246:11
	str	r0, [sp, #52]
	.loc	9 249 25 is_stmt 1              @ ../Middlewares/CMSIS/DSP/Src/FilteringFunctions/arm_biquad_cascade_df1_fast_q31.c:249:25
	ldr	r2, [sp, #52]
	.loc	9 249 56 is_stmt 0              @ ../Middlewares/CMSIS/DSP/Src/FilteringFunctions/arm_biquad_cascade_df1_fast_q31.c:249:56
	ldr	r0, [sp, #40]
	.loc	9 249 61                        @ ../Middlewares/CMSIS/DSP/Src/FilteringFunctions/arm_biquad_cascade_df1_fast_q31.c:249:61
	ldr	r1, [sp, #24]
	.loc	9 249 66                        @ ../Middlewares/CMSIS/DSP/Src/FilteringFunctions/arm_biquad_cascade_df1_fast_q31.c:249:66
	smmlar	r0, r0, r1, r2
	.loc	9 249 11                        @ ../Middlewares/CMSIS/DSP/Src/FilteringFunctions/arm_biquad_cascade_df1_fast_q31.c:249:11
	str	r0, [sp, #52]
	.loc	9 252 25 is_stmt 1              @ ../Middlewares/CMSIS/DSP/Src/FilteringFunctions/arm_biquad_cascade_df1_fast_q31.c:252:25
	ldr	r2, [sp, #52]
	.loc	9 252 56 is_stmt 0              @ ../Middlewares/CMSIS/DSP/Src/FilteringFunctions/arm_biquad_cascade_df1_fast_q31.c:252:56
	ldr	r0, [sp, #36]
	.loc	9 252 61                        @ ../Middlewares/CMSIS/DSP/Src/FilteringFunctions/arm_biquad_cascade_df1_fast_q31.c:252:61
	ldr	r1, [sp, #20]
	.loc	9 252 66                        @ ../Middlewares/CMSIS/DSP/Src/FilteringFunctions/arm_biquad_cascade_df1_fast_q31.c:252:66
	smmlar	r0, r0, r1, r2
	.loc	9 252 11                        @ ../Middlewares/CMSIS/DSP/Src/FilteringFunctions/arm_biquad_cascade_df1_fast_q31.c:252:11
	str	r0, [sp, #52]
	.loc	9 255 25 is_stmt 1              @ ../Middlewares/CMSIS/DSP/Src/FilteringFunctions/arm_biquad_cascade_df1_fast_q31.c:255:25
	ldr	r2, [sp, #52]
	.loc	9 255 56 is_stmt 0              @ ../Middlewares/CMSIS/DSP/Src/FilteringFunctions/arm_biquad_cascade_df1_fast_q31.c:255:56
	ldr	r0, [sp, #32]
	.loc	9 255 61                        @ ../Middlewares/CMSIS/DSP/Src/FilteringFunctions/arm_biquad_cascade_df1_fast_q31.c:255:61
	ldr	r1, [sp, #16]
	.loc	9 255 66                        @ ../Middlewares/CMSIS/DSP/Src/FilteringFunctions/arm_biquad_cascade_df1_fast_q31.c:255:66
	smmlar	r0, r0, r1, r2
	.loc	9 255 11                        @ ../Middlewares/CMSIS/DSP/Src/FilteringFunctions/arm_biquad_cascade_df1_fast_q31.c:255:11
	str	r0, [sp, #52]
	.loc	9 258 13 is_stmt 1              @ ../Middlewares/CMSIS/DSP/Src/FilteringFunctions/arm_biquad_cascade_df1_fast_q31.c:258:13
	ldr	r0, [sp, #52]
	.loc	9 258 20 is_stmt 0              @ ../Middlewares/CMSIS/DSP/Src/FilteringFunctions/arm_biquad_cascade_df1_fast_q31.c:258:20
	ldr	r1, [sp, #8]
	.loc	9 258 17                        @ ../Middlewares/CMSIS/DSP/Src/FilteringFunctions/arm_biquad_cascade_df1_fast_q31.c:258:17
	lsls	r0, r1
	.loc	9 258 11                        @ ../Middlewares/CMSIS/DSP/Src/FilteringFunctions/arm_biquad_cascade_df1_fast_q31.c:258:11
	str	r0, [sp, #52]
	.loc	9 266 13 is_stmt 1              @ ../Middlewares/CMSIS/DSP/Src/FilteringFunctions/arm_biquad_cascade_df1_fast_q31.c:266:13
	ldr	r0, [sp, #28]
	.loc	9 266 11 is_stmt 0              @ ../Middlewares/CMSIS/DSP/Src/FilteringFunctions/arm_biquad_cascade_df1_fast_q31.c:266:11
	str	r0, [sp, #24]
	.loc	9 267 13 is_stmt 1              @ ../Middlewares/CMSIS/DSP/Src/FilteringFunctions/arm_biquad_cascade_df1_fast_q31.c:267:13
	ldr	r0, [sp, #12]
	.loc	9 267 11 is_stmt 0              @ ../Middlewares/CMSIS/DSP/Src/FilteringFunctions/arm_biquad_cascade_df1_fast_q31.c:267:11
	str	r0, [sp, #28]
	.loc	9 268 13 is_stmt 1              @ ../Middlewares/CMSIS/DSP/Src/FilteringFunctions/arm_biquad_cascade_df1_fast_q31.c:268:13
	ldr	r0, [sp, #20]
	.loc	9 268 11 is_stmt 0              @ ../Middlewares/CMSIS/DSP/Src/FilteringFunctions/arm_biquad_cascade_df1_fast_q31.c:268:11
	str	r0, [sp, #16]
	.loc	9 269 13 is_stmt 1              @ ../Middlewares/CMSIS/DSP/Src/FilteringFunctions/arm_biquad_cascade_df1_fast_q31.c:269:13
	ldr	r0, [sp, #52]
	.loc	9 269 11 is_stmt 0              @ ../Middlewares/CMSIS/DSP/Src/FilteringFunctions/arm_biquad_cascade_df1_fast_q31.c:269:11
	str	r0, [sp, #20]
	.loc	9 272 17 is_stmt 1              @ ../Middlewares/CMSIS/DSP/Src/FilteringFunctions/arm_biquad_cascade_df1_fast_q31.c:272:17
	ldr	r0, [sp, #52]
	.loc	9 272 12 is_stmt 0              @ ../Middlewares/CMSIS/DSP/Src/FilteringFunctions/arm_biquad_cascade_df1_fast_q31.c:272:12
	ldr	r1, [sp, #64]
	adds	r2, r1, #4
	str	r2, [sp, #64]
	.loc	9 272 15                        @ ../Middlewares/CMSIS/DSP/Src/FilteringFunctions/arm_biquad_cascade_df1_fast_q31.c:272:15
	str	r0, [r1]
	.loc	9 275 13 is_stmt 1              @ ../Middlewares/CMSIS/DSP/Src/FilteringFunctions/arm_biquad_cascade_df1_fast_q31.c:275:13
	ldr	r0, [sp, #4]
	subs	r0, #1
	str	r0, [sp, #4]
.Ltmp47:
	.loc	9 235 5                         @ ../Middlewares/CMSIS/DSP/Src/FilteringFunctions/arm_biquad_cascade_df1_fast_q31.c:235:5
	b	.LBB4_2
.LBB4_4:                                @   in Loop: Header=BB4_1 Depth=1
	.loc	9 280 11                        @ ../Middlewares/CMSIS/DSP/Src/FilteringFunctions/arm_biquad_cascade_df1_fast_q31.c:280:11
	ldr	r0, [sp, #76]
	.loc	9 280 9 is_stmt 0               @ ../Middlewares/CMSIS/DSP/Src/FilteringFunctions/arm_biquad_cascade_df1_fast_q31.c:280:9
	str	r0, [sp, #68]
	.loc	9 283 12 is_stmt 1              @ ../Middlewares/CMSIS/DSP/Src/FilteringFunctions/arm_biquad_cascade_df1_fast_q31.c:283:12
	ldr	r0, [sp, #76]
	.loc	9 283 10 is_stmt 0              @ ../Middlewares/CMSIS/DSP/Src/FilteringFunctions/arm_biquad_cascade_df1_fast_q31.c:283:10
	str	r0, [sp, #64]
	.loc	9 286 17 is_stmt 1              @ ../Middlewares/CMSIS/DSP/Src/FilteringFunctions/arm_biquad_cascade_df1_fast_q31.c:286:17
	ldr	r0, [sp, #28]
	.loc	9 286 12 is_stmt 0              @ ../Middlewares/CMSIS/DSP/Src/FilteringFunctions/arm_biquad_cascade_df1_fast_q31.c:286:12
	ldr	r1, [sp, #60]
	adds	r2, r1, #4
	str	r2, [sp, #60]
	.loc	9 286 15                        @ ../Middlewares/CMSIS/DSP/Src/FilteringFunctions/arm_biquad_cascade_df1_fast_q31.c:286:15
	str	r0, [r1]
	.loc	9 287 17 is_stmt 1              @ ../Middlewares/CMSIS/DSP/Src/FilteringFunctions/arm_biquad_cascade_df1_fast_q31.c:287:17
	ldr	r0, [sp, #24]
	.loc	9 287 12 is_stmt 0              @ ../Middlewares/CMSIS/DSP/Src/FilteringFunctions/arm_biquad_cascade_df1_fast_q31.c:287:12
	ldr	r1, [sp, #60]
	adds	r2, r1, #4
	str	r2, [sp, #60]
	.loc	9 287 15                        @ ../Middlewares/CMSIS/DSP/Src/FilteringFunctions/arm_biquad_cascade_df1_fast_q31.c:287:15
	str	r0, [r1]
	.loc	9 288 17 is_stmt 1              @ ../Middlewares/CMSIS/DSP/Src/FilteringFunctions/arm_biquad_cascade_df1_fast_q31.c:288:17
	ldr	r0, [sp, #20]
	.loc	9 288 12 is_stmt 0              @ ../Middlewares/CMSIS/DSP/Src/FilteringFunctions/arm_biquad_cascade_df1_fast_q31.c:288:12
	ldr	r1, [sp, #60]
	adds	r2, r1, #4
	str	r2, [sp, #60]
	.loc	9 288 15                        @ ../Middlewares/CMSIS/DSP/Src/FilteringFunctions/arm_biquad_cascade_df1_fast_q31.c:288:15
	str	r0, [r1]
	.loc	9 289 17 is_stmt 1              @ ../Middlewares/CMSIS/DSP/Src/FilteringFunctions/arm_biquad_cascade_df1_fast_q31.c:289:17
	ldr	r0, [sp, #16]
	.loc	9 289 12 is_stmt 0              @ ../Middlewares/CMSIS/DSP/Src/FilteringFunctions/arm_biquad_cascade_df1_fast_q31.c:289:12
	ldr	r1, [sp, #60]
	adds	r2, r1, #4
	str	r2, [sp, #60]
	.loc	9 289 15                        @ ../Middlewares/CMSIS/DSP/Src/FilteringFunctions/arm_biquad_cascade_df1_fast_q31.c:289:15
	str	r0, [r1]
	.loc	9 291 3 is_stmt 1               @ ../Middlewares/CMSIS/DSP/Src/FilteringFunctions/arm_biquad_cascade_df1_fast_q31.c:291:3
	b	.LBB4_5
.Ltmp48:
.LBB4_5:                                @   in Loop: Header=BB4_1 Depth=1
	.loc	9 291 12 is_stmt 0              @ ../Middlewares/CMSIS/DSP/Src/FilteringFunctions/arm_biquad_cascade_df1_fast_q31.c:291:12
	ldr	r0, [sp]
	subs	r0, #1
	str	r0, [sp]
.Ltmp49:
	.loc	9 291 3                         @ ../Middlewares/CMSIS/DSP/Src/FilteringFunctions/arm_biquad_cascade_df1_fast_q31.c:291:3
	cmp	r0, #0
	bne.w	.LBB4_1
	b	.LBB4_6
.Ltmp50:
.LBB4_6:
	.loc	9 292 1 is_stmt 1               @ ../Middlewares/CMSIS/DSP/Src/FilteringFunctions/arm_biquad_cascade_df1_fast_q31.c:292:1
	add	sp, #88
	bx	lr
.Ltmp51:
.Lfunc_end4:
	.size	arm_biquad_cascade_df1_fast_q31, .Lfunc_end4-arm_biquad_cascade_df1_fast_q31
	.cfi_endproc
	.cantunwind
	.fnend
                                        @ -- End function
	.section	.text.arm_biquad_cascade_df1_init_f32,"ax",%progbits
	.hidden	arm_biquad_cascade_df1_init_f32 @ -- Begin function arm_biquad_cascade_df1_init_f32
	.globl	arm_biquad_cascade_df1_init_f32
	.p2align	2
	.type	arm_biquad_cascade_df1_init_f32,%function
	.code	16                              @ @arm_biquad_cascade_df1_init_f32
	.thumb_func
arm_biquad_cascade_df1_init_f32:
.Lfunc_begin5:
	.file	10 "D:\\horizon\\Horizon_Infantry (2)\\MDK-ARM" "../Middlewares/CMSIS/DSP/Src/FilteringFunctions/arm_biquad_cascade_df1_init_f32.c"
	.loc	10 82 0                         @ ../Middlewares/CMSIS/DSP/Src/FilteringFunctions/arm_biquad_cascade_df1_init_f32.c:82:0
	.fnstart
	.cfi_startproc
@ %bb.0:
	.save	{r7, lr}
	push	{r7, lr}
	.cfi_def_cfa_offset 8
	.cfi_offset lr, -4
	.cfi_offset r7, -8
	.pad	#16
	sub	sp, #16
	.cfi_def_cfa_offset 24
                                        @ kill: def $r12 killed $r1
	str	r0, [sp, #12]
	strb.w	r1, [sp, #11]
	str	r2, [sp, #4]
	str	r3, [sp]
.Ltmp52:
	.loc	10 84 18 prologue_end           @ ../Middlewares/CMSIS/DSP/Src/FilteringFunctions/arm_biquad_cascade_df1_init_f32.c:84:18
	ldrb.w	r0, [sp, #11]
	.loc	10 84 3 is_stmt 0               @ ../Middlewares/CMSIS/DSP/Src/FilteringFunctions/arm_biquad_cascade_df1_init_f32.c:84:3
	ldr	r1, [sp, #12]
	.loc	10 84 16                        @ ../Middlewares/CMSIS/DSP/Src/FilteringFunctions/arm_biquad_cascade_df1_init_f32.c:84:16
	str	r0, [r1]
	.loc	10 87 16 is_stmt 1              @ ../Middlewares/CMSIS/DSP/Src/FilteringFunctions/arm_biquad_cascade_df1_init_f32.c:87:16
	ldr	r0, [sp, #4]
	.loc	10 87 3 is_stmt 0               @ ../Middlewares/CMSIS/DSP/Src/FilteringFunctions/arm_biquad_cascade_df1_init_f32.c:87:3
	ldr	r1, [sp, #12]
	.loc	10 87 14                        @ ../Middlewares/CMSIS/DSP/Src/FilteringFunctions/arm_biquad_cascade_df1_init_f32.c:87:14
	str	r0, [r1, #8]
	.loc	10 90 10 is_stmt 1              @ ../Middlewares/CMSIS/DSP/Src/FilteringFunctions/arm_biquad_cascade_df1_init_f32.c:90:10
	ldr	r0, [sp]
	.loc	10 90 38 is_stmt 0              @ ../Middlewares/CMSIS/DSP/Src/FilteringFunctions/arm_biquad_cascade_df1_init_f32.c:90:38
	ldrb.w	r1, [sp, #11]
	.loc	10 90 49                        @ ../Middlewares/CMSIS/DSP/Src/FilteringFunctions/arm_biquad_cascade_df1_init_f32.c:90:49
	lsls	r1, r1, #4
	.loc	10 90 3                         @ ../Middlewares/CMSIS/DSP/Src/FilteringFunctions/arm_biquad_cascade_df1_init_f32.c:90:3
	bl	__aeabi_memclr4
	.loc	10 93 15 is_stmt 1              @ ../Middlewares/CMSIS/DSP/Src/FilteringFunctions/arm_biquad_cascade_df1_init_f32.c:93:15
	ldr	r0, [sp]
	.loc	10 93 3 is_stmt 0               @ ../Middlewares/CMSIS/DSP/Src/FilteringFunctions/arm_biquad_cascade_df1_init_f32.c:93:3
	ldr	r1, [sp, #12]
	.loc	10 93 13                        @ ../Middlewares/CMSIS/DSP/Src/FilteringFunctions/arm_biquad_cascade_df1_init_f32.c:93:13
	str	r0, [r1, #4]
	.loc	10 94 1 is_stmt 1               @ ../Middlewares/CMSIS/DSP/Src/FilteringFunctions/arm_biquad_cascade_df1_init_f32.c:94:1
	add	sp, #16
	pop	{r7, pc}
.Ltmp53:
.Lfunc_end5:
	.size	arm_biquad_cascade_df1_init_f32, .Lfunc_end5-arm_biquad_cascade_df1_init_f32
	.cfi_endproc
	.cantunwind
	.fnend
                                        @ -- End function
	.section	.text.arm_biquad_cascade_df1_init_q15,"ax",%progbits
	.hidden	arm_biquad_cascade_df1_init_q15 @ -- Begin function arm_biquad_cascade_df1_init_q15
	.globl	arm_biquad_cascade_df1_init_q15
	.p2align	2
	.type	arm_biquad_cascade_df1_init_q15,%function
	.code	16                              @ @arm_biquad_cascade_df1_init_q15
	.thumb_func
arm_biquad_cascade_df1_init_q15:
.Lfunc_begin6:
	.file	11 "D:\\horizon\\Horizon_Infantry (2)\\MDK-ARM" "../Middlewares/CMSIS/DSP/Src/FilteringFunctions/arm_biquad_cascade_df1_init_q15.c"
	.loc	11 77 0                         @ ../Middlewares/CMSIS/DSP/Src/FilteringFunctions/arm_biquad_cascade_df1_init_q15.c:77:0
	.fnstart
	.cfi_startproc
@ %bb.0:
	.save	{r7, lr}
	push	{r7, lr}
	.cfi_def_cfa_offset 8
	.cfi_offset lr, -4
	.cfi_offset r7, -8
	.pad	#24
	sub	sp, #24
	.cfi_def_cfa_offset 32
	mov	r12, r0
	ldr	r0, [sp, #32]
                                        @ kill: def $lr killed $r1
	str.w	r12, [sp, #20]
	strb.w	r1, [sp, #19]
	str	r2, [sp, #12]
	str	r3, [sp, #8]
	strb.w	r0, [sp, #7]
.Ltmp54:
	.loc	11 79 18 prologue_end           @ ../Middlewares/CMSIS/DSP/Src/FilteringFunctions/arm_biquad_cascade_df1_init_q15.c:79:18
	ldrb.w	r0, [sp, #19]
	.loc	11 79 3 is_stmt 0               @ ../Middlewares/CMSIS/DSP/Src/FilteringFunctions/arm_biquad_cascade_df1_init_q15.c:79:3
	ldr	r1, [sp, #20]
	.loc	11 79 16                        @ ../Middlewares/CMSIS/DSP/Src/FilteringFunctions/arm_biquad_cascade_df1_init_q15.c:79:16
	strb	r0, [r1]
	.loc	11 82 18 is_stmt 1              @ ../Middlewares/CMSIS/DSP/Src/FilteringFunctions/arm_biquad_cascade_df1_init_q15.c:82:18
	ldrb.w	r0, [sp, #7]
	.loc	11 82 3 is_stmt 0               @ ../Middlewares/CMSIS/DSP/Src/FilteringFunctions/arm_biquad_cascade_df1_init_q15.c:82:3
	ldr	r1, [sp, #20]
	.loc	11 82 16                        @ ../Middlewares/CMSIS/DSP/Src/FilteringFunctions/arm_biquad_cascade_df1_init_q15.c:82:16
	strb	r0, [r1, #12]
	.loc	11 85 16 is_stmt 1              @ ../Middlewares/CMSIS/DSP/Src/FilteringFunctions/arm_biquad_cascade_df1_init_q15.c:85:16
	ldr	r0, [sp, #12]
	.loc	11 85 3 is_stmt 0               @ ../Middlewares/CMSIS/DSP/Src/FilteringFunctions/arm_biquad_cascade_df1_init_q15.c:85:3
	ldr	r1, [sp, #20]
	.loc	11 85 14                        @ ../Middlewares/CMSIS/DSP/Src/FilteringFunctions/arm_biquad_cascade_df1_init_q15.c:85:14
	str	r0, [r1, #8]
	.loc	11 88 10 is_stmt 1              @ ../Middlewares/CMSIS/DSP/Src/FilteringFunctions/arm_biquad_cascade_df1_init_q15.c:88:10
	ldr	r0, [sp, #8]
	.loc	11 88 38 is_stmt 0              @ ../Middlewares/CMSIS/DSP/Src/FilteringFunctions/arm_biquad_cascade_df1_init_q15.c:88:38
	ldrb.w	r1, [sp, #19]
	.loc	11 88 49                        @ ../Middlewares/CMSIS/DSP/Src/FilteringFunctions/arm_biquad_cascade_df1_init_q15.c:88:49
	lsls	r1, r1, #3
	.loc	11 88 3                         @ ../Middlewares/CMSIS/DSP/Src/FilteringFunctions/arm_biquad_cascade_df1_init_q15.c:88:3
	bl	__aeabi_memclr
	.loc	11 91 15 is_stmt 1              @ ../Middlewares/CMSIS/DSP/Src/FilteringFunctions/arm_biquad_cascade_df1_init_q15.c:91:15
	ldr	r0, [sp, #8]
	.loc	11 91 3 is_stmt 0               @ ../Middlewares/CMSIS/DSP/Src/FilteringFunctions/arm_biquad_cascade_df1_init_q15.c:91:3
	ldr	r1, [sp, #20]
	.loc	11 91 13                        @ ../Middlewares/CMSIS/DSP/Src/FilteringFunctions/arm_biquad_cascade_df1_init_q15.c:91:13
	str	r0, [r1, #4]
	.loc	11 92 1 is_stmt 1               @ ../Middlewares/CMSIS/DSP/Src/FilteringFunctions/arm_biquad_cascade_df1_init_q15.c:92:1
	add	sp, #24
	pop	{r7, pc}
.Ltmp55:
.Lfunc_end6:
	.size	arm_biquad_cascade_df1_init_q15, .Lfunc_end6-arm_biquad_cascade_df1_init_q15
	.cfi_endproc
	.cantunwind
	.fnend
                                        @ -- End function
	.section	.text.arm_biquad_cascade_df1_init_q31,"ax",%progbits
	.hidden	arm_biquad_cascade_df1_init_q31 @ -- Begin function arm_biquad_cascade_df1_init_q31
	.globl	arm_biquad_cascade_df1_init_q31
	.p2align	2
	.type	arm_biquad_cascade_df1_init_q31,%function
	.code	16                              @ @arm_biquad_cascade_df1_init_q31
	.thumb_func
arm_biquad_cascade_df1_init_q31:
.Lfunc_begin7:
	.file	12 "D:\\horizon\\Horizon_Infantry (2)\\MDK-ARM" "../Middlewares/CMSIS/DSP/Src/FilteringFunctions/arm_biquad_cascade_df1_init_q31.c"
	.loc	12 76 0                         @ ../Middlewares/CMSIS/DSP/Src/FilteringFunctions/arm_biquad_cascade_df1_init_q31.c:76:0
	.fnstart
	.cfi_startproc
@ %bb.0:
	.save	{r7, lr}
	push	{r7, lr}
	.cfi_def_cfa_offset 8
	.cfi_offset lr, -4
	.cfi_offset r7, -8
	.pad	#24
	sub	sp, #24
	.cfi_def_cfa_offset 32
	mov	r12, r0
	ldr	r0, [sp, #32]
                                        @ kill: def $lr killed $r1
	str.w	r12, [sp, #20]
	strb.w	r1, [sp, #19]
	str	r2, [sp, #12]
	str	r3, [sp, #8]
	strb.w	r0, [sp, #7]
.Ltmp56:
	.loc	12 78 18 prologue_end           @ ../Middlewares/CMSIS/DSP/Src/FilteringFunctions/arm_biquad_cascade_df1_init_q31.c:78:18
	ldrb.w	r0, [sp, #19]
	.loc	12 78 3 is_stmt 0               @ ../Middlewares/CMSIS/DSP/Src/FilteringFunctions/arm_biquad_cascade_df1_init_q31.c:78:3
	ldr	r1, [sp, #20]
	.loc	12 78 16                        @ ../Middlewares/CMSIS/DSP/Src/FilteringFunctions/arm_biquad_cascade_df1_init_q31.c:78:16
	str	r0, [r1]
	.loc	12 81 18 is_stmt 1              @ ../Middlewares/CMSIS/DSP/Src/FilteringFunctions/arm_biquad_cascade_df1_init_q31.c:81:18
	ldrb.w	r0, [sp, #7]
	.loc	12 81 3 is_stmt 0               @ ../Middlewares/CMSIS/DSP/Src/FilteringFunctions/arm_biquad_cascade_df1_init_q31.c:81:3
	ldr	r1, [sp, #20]
	.loc	12 81 16                        @ ../Middlewares/CMSIS/DSP/Src/FilteringFunctions/arm_biquad_cascade_df1_init_q31.c:81:16
	strb	r0, [r1, #12]
	.loc	12 84 16 is_stmt 1              @ ../Middlewares/CMSIS/DSP/Src/FilteringFunctions/arm_biquad_cascade_df1_init_q31.c:84:16
	ldr	r0, [sp, #12]
	.loc	12 84 3 is_stmt 0               @ ../Middlewares/CMSIS/DSP/Src/FilteringFunctions/arm_biquad_cascade_df1_init_q31.c:84:3
	ldr	r1, [sp, #20]
	.loc	12 84 14                        @ ../Middlewares/CMSIS/DSP/Src/FilteringFunctions/arm_biquad_cascade_df1_init_q31.c:84:14
	str	r0, [r1, #8]
	.loc	12 87 10 is_stmt 1              @ ../Middlewares/CMSIS/DSP/Src/FilteringFunctions/arm_biquad_cascade_df1_init_q31.c:87:10
	ldr	r0, [sp, #8]
	.loc	12 87 38 is_stmt 0              @ ../Middlewares/CMSIS/DSP/Src/FilteringFunctions/arm_biquad_cascade_df1_init_q31.c:87:38
	ldrb.w	r1, [sp, #19]
	.loc	12 87 49                        @ ../Middlewares/CMSIS/DSP/Src/FilteringFunctions/arm_biquad_cascade_df1_init_q31.c:87:49
	lsls	r1, r1, #4
	.loc	12 87 3                         @ ../Middlewares/CMSIS/DSP/Src/FilteringFunctions/arm_biquad_cascade_df1_init_q31.c:87:3
	bl	__aeabi_memclr4
	.loc	12 90 15 is_stmt 1              @ ../Middlewares/CMSIS/DSP/Src/FilteringFunctions/arm_biquad_cascade_df1_init_q31.c:90:15
	ldr	r0, [sp, #8]
	.loc	12 90 3 is_stmt 0               @ ../Middlewares/CMSIS/DSP/Src/FilteringFunctions/arm_biquad_cascade_df1_init_q31.c:90:3
	ldr	r1, [sp, #20]
	.loc	12 90 13                        @ ../Middlewares/CMSIS/DSP/Src/FilteringFunctions/arm_biquad_cascade_df1_init_q31.c:90:13
	str	r0, [r1, #4]
	.loc	12 91 1 is_stmt 1               @ ../Middlewares/CMSIS/DSP/Src/FilteringFunctions/arm_biquad_cascade_df1_init_q31.c:91:1
	add	sp, #24
	pop	{r7, pc}
.Ltmp57:
.Lfunc_end7:
	.size	arm_biquad_cascade_df1_init_q31, .Lfunc_end7-arm_biquad_cascade_df1_init_q31
	.cfi_endproc
	.cantunwind
	.fnend
                                        @ -- End function
	.section	.text.arm_biquad_cascade_df1_q15,"ax",%progbits
	.hidden	arm_biquad_cascade_df1_q15      @ -- Begin function arm_biquad_cascade_df1_q15
	.globl	arm_biquad_cascade_df1_q15
	.p2align	2
	.type	arm_biquad_cascade_df1_q15,%function
	.code	16                              @ @arm_biquad_cascade_df1_q15
	.thumb_func
arm_biquad_cascade_df1_q15:
.Lfunc_begin8:
	.file	13 "D:\\horizon\\Horizon_Infantry (2)\\MDK-ARM" "../Middlewares/CMSIS/DSP/Src/FilteringFunctions/arm_biquad_cascade_df1_q15.c"
	.loc	13 318 0                        @ ../Middlewares/CMSIS/DSP/Src/FilteringFunctions/arm_biquad_cascade_df1_q15.c:318:0
	.fnstart
	.cfi_startproc
@ %bb.0:
	.pad	#176
	sub	sp, #176
	.cfi_def_cfa_offset 176
	str	r0, [sp, #88]
	str	r1, [sp, #84]
	str	r2, [sp, #80]
	str	r3, [sp, #76]
.Ltmp58:
	.loc	13 323 22 prologue_end          @ ../Middlewares/CMSIS/DSP/Src/FilteringFunctions/arm_biquad_cascade_df1_q15.c:323:22
	ldr	r0, [sp, #84]
	.loc	13 323 16 is_stmt 0             @ ../Middlewares/CMSIS/DSP/Src/FilteringFunctions/arm_biquad_cascade_df1_q15.c:323:16
	str	r0, [sp, #72]
	.loc	13 324 23 is_stmt 1             @ ../Middlewares/CMSIS/DSP/Src/FilteringFunctions/arm_biquad_cascade_df1_q15.c:324:23
	ldr	r0, [sp, #80]
	.loc	13 324 16 is_stmt 0             @ ../Middlewares/CMSIS/DSP/Src/FilteringFunctions/arm_biquad_cascade_df1_q15.c:324:16
	str	r0, [sp, #68]
	.loc	13 332 25 is_stmt 1             @ ../Middlewares/CMSIS/DSP/Src/FilteringFunctions/arm_biquad_cascade_df1_q15.c:332:25
	ldr	r0, [sp, #88]
	.loc	13 332 28 is_stmt 0             @ ../Middlewares/CMSIS/DSP/Src/FilteringFunctions/arm_biquad_cascade_df1_q15.c:332:28
	ldr	r0, [r0, #4]
	.loc	13 332 16                       @ ../Middlewares/CMSIS/DSP/Src/FilteringFunctions/arm_biquad_cascade_df1_q15.c:332:16
	str	r0, [sp, #20]
	.loc	13 333 26 is_stmt 1             @ ../Middlewares/CMSIS/DSP/Src/FilteringFunctions/arm_biquad_cascade_df1_q15.c:333:26
	ldr	r0, [sp, #88]
	.loc	13 333 29 is_stmt 0             @ ../Middlewares/CMSIS/DSP/Src/FilteringFunctions/arm_biquad_cascade_df1_q15.c:333:29
	ldr	r0, [r0, #8]
	.loc	13 333 16                       @ ../Middlewares/CMSIS/DSP/Src/FilteringFunctions/arm_biquad_cascade_df1_q15.c:333:16
	str	r0, [sp, #16]
	.loc	13 334 42 is_stmt 1             @ ../Middlewares/CMSIS/DSP/Src/FilteringFunctions/arm_biquad_cascade_df1_q15.c:334:42
	ldr	r0, [sp, #88]
	.loc	13 334 45 is_stmt 0             @ ../Middlewares/CMSIS/DSP/Src/FilteringFunctions/arm_biquad_cascade_df1_q15.c:334:45
	ldrsb.w	r0, [r0, #12]
	.loc	13 334 30                       @ ../Middlewares/CMSIS/DSP/Src/FilteringFunctions/arm_biquad_cascade_df1_q15.c:334:30
	rsb.w	r0, r0, #15
	.loc	13 334 17                       @ ../Middlewares/CMSIS/DSP/Src/FilteringFunctions/arm_biquad_cascade_df1_q15.c:334:17
	str	r0, [sp, #12]
	.loc	13 335 45 is_stmt 1             @ ../Middlewares/CMSIS/DSP/Src/FilteringFunctions/arm_biquad_cascade_df1_q15.c:335:45
	ldr	r0, [sp, #88]
	.loc	13 335 48 is_stmt 0             @ ../Middlewares/CMSIS/DSP/Src/FilteringFunctions/arm_biquad_cascade_df1_q15.c:335:48
	ldrsb.w	r0, [r0]
	.loc	13 335 26                       @ ../Middlewares/CMSIS/DSP/Src/FilteringFunctions/arm_biquad_cascade_df1_q15.c:335:26
	str	r0, [sp, #4]
	.loc	13 336 32 is_stmt 1             @ ../Middlewares/CMSIS/DSP/Src/FilteringFunctions/arm_biquad_cascade_df1_q15.c:336:32
	ldr	r0, [sp, #12]
	.loc	13 336 30 is_stmt 0             @ ../Middlewares/CMSIS/DSP/Src/FilteringFunctions/arm_biquad_cascade_df1_q15.c:336:30
	rsb.w	r0, r0, #32
	.loc	13 336 17                       @ ../Middlewares/CMSIS/DSP/Src/FilteringFunctions/arm_biquad_cascade_df1_q15.c:336:17
	str	r0, [sp]
	.loc	13 338 3 is_stmt 1              @ ../Middlewares/CMSIS/DSP/Src/FilteringFunctions/arm_biquad_cascade_df1_q15.c:338:3
	b	.LBB8_1
.LBB8_1:                                @ =>This Loop Header: Depth=1
                                        @     Child Loop BB8_2 Depth 2
.Ltmp59:
	.loc	13 341 45                       @ ../Middlewares/CMSIS/DSP/Src/FilteringFunctions/arm_biquad_cascade_df1_q15.c:341:45
	ldr	r0, [sp, #16]
	adds	r1, r0, #4
	str	r1, [sp, #16]
	str	r0, [sp, #136]
.Ltmp60:
	.loc	8 82 17                         @ ../Middlewares/CMSIS/DSP/Inc\arm_math_memory.h:82:17
	ldr	r0, [sp, #136]
	.loc	8 82 3 is_stmt 0                @ ../Middlewares/CMSIS/DSP/Inc\arm_math_memory.h:82:3
	ldr	r0, [r0]
	str	r0, [sp, #132]
	.loc	8 87 11 is_stmt 1               @ ../Middlewares/CMSIS/DSP/Inc\arm_math_memory.h:87:11
	ldr	r0, [sp, #132]
.Ltmp61:
	.loc	13 341 8                        @ ../Middlewares/CMSIS/DSP/Src/FilteringFunctions/arm_biquad_cascade_df1_q15.c:341:8
	str	r0, [sp, #56]
	.loc	13 344 45                       @ ../Middlewares/CMSIS/DSP/Src/FilteringFunctions/arm_biquad_cascade_df1_q15.c:344:45
	ldr	r0, [sp, #16]
	adds	r1, r0, #4
	str	r1, [sp, #16]
	str	r0, [sp, #128]
.Ltmp62:
	.loc	8 82 17                         @ ../Middlewares/CMSIS/DSP/Inc\arm_math_memory.h:82:17
	ldr	r0, [sp, #128]
	.loc	8 82 3 is_stmt 0                @ ../Middlewares/CMSIS/DSP/Inc\arm_math_memory.h:82:3
	ldr	r0, [r0]
	str	r0, [sp, #124]
	.loc	8 87 11 is_stmt 1               @ ../Middlewares/CMSIS/DSP/Inc\arm_math_memory.h:87:11
	ldr	r0, [sp, #124]
.Ltmp63:
	.loc	13 344 8                        @ ../Middlewares/CMSIS/DSP/Src/FilteringFunctions/arm_biquad_cascade_df1_q15.c:344:8
	str	r0, [sp, #52]
	.loc	13 347 45                       @ ../Middlewares/CMSIS/DSP/Src/FilteringFunctions/arm_biquad_cascade_df1_q15.c:347:45
	ldr	r0, [sp, #16]
	adds	r1, r0, #4
	str	r1, [sp, #16]
	str	r0, [sp, #120]
.Ltmp64:
	.loc	8 82 17                         @ ../Middlewares/CMSIS/DSP/Inc\arm_math_memory.h:82:17
	ldr	r0, [sp, #120]
	.loc	8 82 3 is_stmt 0                @ ../Middlewares/CMSIS/DSP/Inc\arm_math_memory.h:82:3
	ldr	r0, [r0]
	str	r0, [sp, #116]
	.loc	8 87 11 is_stmt 1               @ ../Middlewares/CMSIS/DSP/Inc\arm_math_memory.h:87:11
	ldr	r0, [sp, #116]
.Ltmp65:
	.loc	13 347 8                        @ ../Middlewares/CMSIS/DSP/Src/FilteringFunctions/arm_biquad_cascade_df1_q15.c:347:8
	str	r0, [sp, #48]
	.loc	13 350 39                       @ ../Middlewares/CMSIS/DSP/Src/FilteringFunctions/arm_biquad_cascade_df1_q15.c:350:39
	ldr	r0, [sp, #20]
	adds	r1, r0, #4
	str	r1, [sp, #20]
	str	r0, [sp, #112]
.Ltmp66:
	.loc	8 82 17                         @ ../Middlewares/CMSIS/DSP/Inc\arm_math_memory.h:82:17
	ldr	r0, [sp, #112]
	.loc	8 82 3 is_stmt 0                @ ../Middlewares/CMSIS/DSP/Inc\arm_math_memory.h:82:3
	ldr	r0, [r0]
	str	r0, [sp, #108]
	.loc	8 87 11 is_stmt 1               @ ../Middlewares/CMSIS/DSP/Inc\arm_math_memory.h:87:11
	ldr	r0, [sp, #108]
.Ltmp67:
	.loc	13 350 14                       @ ../Middlewares/CMSIS/DSP/Src/FilteringFunctions/arm_biquad_cascade_df1_q15.c:350:14
	str	r0, [sp, #44]
	.loc	13 353 40                       @ ../Middlewares/CMSIS/DSP/Src/FilteringFunctions/arm_biquad_cascade_df1_q15.c:353:40
	ldr	r0, [sp, #20]
	subs	r1, r0, #4
	str	r1, [sp, #20]
	str	r0, [sp, #104]
.Ltmp68:
	.loc	8 82 17                         @ ../Middlewares/CMSIS/DSP/Inc\arm_math_memory.h:82:17
	ldr	r0, [sp, #104]
	.loc	8 82 3 is_stmt 0                @ ../Middlewares/CMSIS/DSP/Inc\arm_math_memory.h:82:3
	ldr	r0, [r0]
	str	r0, [sp, #100]
	.loc	8 87 11 is_stmt 1               @ ../Middlewares/CMSIS/DSP/Inc\arm_math_memory.h:87:11
	ldr	r0, [sp, #100]
.Ltmp69:
	.loc	13 353 15                       @ ../Middlewares/CMSIS/DSP/Src/FilteringFunctions/arm_biquad_cascade_df1_q15.c:353:15
	str	r0, [sp, #40]
	.loc	13 361 14                       @ ../Middlewares/CMSIS/DSP/Src/FilteringFunctions/arm_biquad_cascade_df1_q15.c:361:14
	ldr	r0, [sp, #76]
	.loc	13 361 24 is_stmt 0             @ ../Middlewares/CMSIS/DSP/Src/FilteringFunctions/arm_biquad_cascade_df1_q15.c:361:24
	lsrs	r0, r0, #1
	.loc	13 361 12                       @ ../Middlewares/CMSIS/DSP/Src/FilteringFunctions/arm_biquad_cascade_df1_q15.c:361:12
	str	r0, [sp, #8]
	.loc	13 365 5 is_stmt 1              @ ../Middlewares/CMSIS/DSP/Src/FilteringFunctions/arm_biquad_cascade_df1_q15.c:365:5
	b	.LBB8_2
.LBB8_2:                                @   Parent Loop BB8_1 Depth=1
                                        @ =>  This Inner Loop Header: Depth=2
	.loc	13 365 12 is_stmt 0             @ ../Middlewares/CMSIS/DSP/Src/FilteringFunctions/arm_biquad_cascade_df1_q15.c:365:12
	ldr	r0, [sp, #8]
	.loc	13 365 5                        @ ../Middlewares/CMSIS/DSP/Src/FilteringFunctions/arm_biquad_cascade_df1_q15.c:365:5
	cmp	r0, #0
	beq.w	.LBB8_4
	b	.LBB8_3
.LBB8_3:                                @   in Loop: Header=BB8_2 Depth=2
.Ltmp70:
	.loc	13 369 43 is_stmt 1             @ ../Middlewares/CMSIS/DSP/Src/FilteringFunctions/arm_biquad_cascade_df1_q15.c:369:43
	ldr	r0, [sp, #72]
	adds	r1, r0, #4
	str	r1, [sp, #72]
	str	r0, [sp, #96]
.Ltmp71:
	.loc	8 82 17                         @ ../Middlewares/CMSIS/DSP/Inc\arm_math_memory.h:82:17
	ldr	r0, [sp, #96]
	.loc	8 82 3 is_stmt 0                @ ../Middlewares/CMSIS/DSP/Inc\arm_math_memory.h:82:3
	ldr	r0, [r0]
	str	r0, [sp, #92]
	.loc	8 87 11 is_stmt 1               @ ../Middlewares/CMSIS/DSP/Inc\arm_math_memory.h:87:11
	ldr	r0, [sp, #92]
.Ltmp72:
	.loc	13 369 10                       @ ../Middlewares/CMSIS/DSP/Src/FilteringFunctions/arm_biquad_cascade_df1_q15.c:369:10
	str	r0, [sp, #64]
	.loc	13 372 33                       @ ../Middlewares/CMSIS/DSP/Src/FilteringFunctions/arm_biquad_cascade_df1_q15.c:372:33
	ldr	r0, [sp, #56]
	.loc	13 372 37 is_stmt 0             @ ../Middlewares/CMSIS/DSP/Src/FilteringFunctions/arm_biquad_cascade_df1_q15.c:372:37
	ldr	r1, [sp, #64]
	.loc	13 372 13                       @ ../Middlewares/CMSIS/DSP/Src/FilteringFunctions/arm_biquad_cascade_df1_q15.c:372:13
	smuad	r0, r0, r1
	.loc	13 372 11                       @ ../Middlewares/CMSIS/DSP/Src/FilteringFunctions/arm_biquad_cascade_df1_q15.c:372:11
	str	r0, [sp, #60]
	.loc	13 375 34 is_stmt 1             @ ../Middlewares/CMSIS/DSP/Src/FilteringFunctions/arm_biquad_cascade_df1_q15.c:375:34
	ldr	r2, [sp, #52]
	.loc	13 375 38 is_stmt 0             @ ../Middlewares/CMSIS/DSP/Src/FilteringFunctions/arm_biquad_cascade_df1_q15.c:375:38
	ldr	r3, [sp, #44]
	.loc	13 375 48                       @ ../Middlewares/CMSIS/DSP/Src/FilteringFunctions/arm_biquad_cascade_df1_q15.c:375:48
	ldr	r0, [sp, #60]
	asrs	r1, r0, #31
	.loc	13 375 13                       @ ../Middlewares/CMSIS/DSP/Src/FilteringFunctions/arm_biquad_cascade_df1_q15.c:375:13
	smlald	r0, r1, r2, r3
	.loc	13 375 11                       @ ../Middlewares/CMSIS/DSP/Src/FilteringFunctions/arm_biquad_cascade_df1_q15.c:375:11
	str	r1, [sp, #28]
	str	r0, [sp, #24]
	.loc	13 377 34 is_stmt 1             @ ../Middlewares/CMSIS/DSP/Src/FilteringFunctions/arm_biquad_cascade_df1_q15.c:377:34
	ldr	r2, [sp, #48]
	.loc	13 377 38 is_stmt 0             @ ../Middlewares/CMSIS/DSP/Src/FilteringFunctions/arm_biquad_cascade_df1_q15.c:377:38
	ldr	r3, [sp, #40]
	.loc	13 377 49                       @ ../Middlewares/CMSIS/DSP/Src/FilteringFunctions/arm_biquad_cascade_df1_q15.c:377:49
	ldr	r0, [sp, #24]
	ldr	r1, [sp, #28]
	.loc	13 377 13                       @ ../Middlewares/CMSIS/DSP/Src/FilteringFunctions/arm_biquad_cascade_df1_q15.c:377:13
	smlald	r0, r1, r2, r3
	.loc	13 377 11                       @ ../Middlewares/CMSIS/DSP/Src/FilteringFunctions/arm_biquad_cascade_df1_q15.c:377:11
	str	r1, [sp, #28]
	str	r0, [sp, #24]
	.loc	13 381 15 is_stmt 1             @ ../Middlewares/CMSIS/DSP/Src/FilteringFunctions/arm_biquad_cascade_df1_q15.c:381:15
	ldr	r0, [sp, #24]
	.loc	13 381 13 is_stmt 0             @ ../Middlewares/CMSIS/DSP/Src/FilteringFunctions/arm_biquad_cascade_df1_q15.c:381:13
	str	r0, [sp, #36]
	.loc	13 384 16 is_stmt 1             @ ../Middlewares/CMSIS/DSP/Src/FilteringFunctions/arm_biquad_cascade_df1_q15.c:384:16
	ldr	r0, [sp, #28]
	.loc	13 384 13 is_stmt 0             @ ../Middlewares/CMSIS/DSP/Src/FilteringFunctions/arm_biquad_cascade_df1_q15.c:384:13
	str	r0, [sp, #32]
	.loc	13 387 24 is_stmt 1             @ ../Middlewares/CMSIS/DSP/Src/FilteringFunctions/arm_biquad_cascade_df1_q15.c:387:24
	ldr	r0, [sp, #36]
	.loc	13 387 33 is_stmt 0             @ ../Middlewares/CMSIS/DSP/Src/FilteringFunctions/arm_biquad_cascade_df1_q15.c:387:33
	ldr	r1, [sp, #12]
	.loc	13 387 30                       @ ../Middlewares/CMSIS/DSP/Src/FilteringFunctions/arm_biquad_cascade_df1_q15.c:387:30
	lsrs	r0, r1
	.loc	13 387 42                       @ ../Middlewares/CMSIS/DSP/Src/FilteringFunctions/arm_biquad_cascade_df1_q15.c:387:42
	ldr	r1, [sp, #32]
	.loc	13 387 51                       @ ../Middlewares/CMSIS/DSP/Src/FilteringFunctions/arm_biquad_cascade_df1_q15.c:387:51
	ldr	r2, [sp]
	.loc	13 387 48                       @ ../Middlewares/CMSIS/DSP/Src/FilteringFunctions/arm_biquad_cascade_df1_q15.c:387:48
	lsls	r1, r2
	.loc	13 387 40                       @ ../Middlewares/CMSIS/DSP/Src/FilteringFunctions/arm_biquad_cascade_df1_q15.c:387:40
	orrs	r0, r1
	.loc	13 387 11                       @ ../Middlewares/CMSIS/DSP/Src/FilteringFunctions/arm_biquad_cascade_df1_q15.c:387:11
	str	r0, [sp, #60]
	.loc	13 389 32 is_stmt 1             @ ../Middlewares/CMSIS/DSP/Src/FilteringFunctions/arm_biquad_cascade_df1_q15.c:389:32
	ldr	r0, [sp, #60]
	.loc	13 389 13 is_stmt 0             @ ../Middlewares/CMSIS/DSP/Src/FilteringFunctions/arm_biquad_cascade_df1_q15.c:389:13
	ssat	r0, #16, r0
	.loc	13 389 11                       @ ../Middlewares/CMSIS/DSP/Src/FilteringFunctions/arm_biquad_cascade_df1_q15.c:389:11
	str	r0, [sp, #60]
	.loc	13 401 34 is_stmt 1             @ ../Middlewares/CMSIS/DSP/Src/FilteringFunctions/arm_biquad_cascade_df1_q15.c:401:34
	ldrh.w	r0, [sp, #64]
	.loc	13 401 73 is_stmt 0             @ ../Middlewares/CMSIS/DSP/Src/FilteringFunctions/arm_biquad_cascade_df1_q15.c:401:73
	ldr	r1, [sp, #44]
	.loc	13 401 57                       @ ../Middlewares/CMSIS/DSP/Src/FilteringFunctions/arm_biquad_cascade_df1_q15.c:401:57
	orr.w	r0, r0, r1, lsl #16
	.loc	13 401 16                       @ ../Middlewares/CMSIS/DSP/Src/FilteringFunctions/arm_biquad_cascade_df1_q15.c:401:16
	str	r0, [sp, #44]
	.loc	13 402 35 is_stmt 1             @ ../Middlewares/CMSIS/DSP/Src/FilteringFunctions/arm_biquad_cascade_df1_q15.c:402:35
	ldrh.w	r0, [sp, #60]
	.loc	13 402 75 is_stmt 0             @ ../Middlewares/CMSIS/DSP/Src/FilteringFunctions/arm_biquad_cascade_df1_q15.c:402:75
	ldr	r1, [sp, #40]
	.loc	13 402 59                       @ ../Middlewares/CMSIS/DSP/Src/FilteringFunctions/arm_biquad_cascade_df1_q15.c:402:59
	orr.w	r0, r0, r1, lsl #16
	.loc	13 402 17                       @ ../Middlewares/CMSIS/DSP/Src/FilteringFunctions/arm_biquad_cascade_df1_q15.c:402:17
	str	r0, [sp, #40]
	.loc	13 409 34 is_stmt 1             @ ../Middlewares/CMSIS/DSP/Src/FilteringFunctions/arm_biquad_cascade_df1_q15.c:409:34
	ldr	r0, [sp, #56]
	.loc	13 409 38 is_stmt 0             @ ../Middlewares/CMSIS/DSP/Src/FilteringFunctions/arm_biquad_cascade_df1_q15.c:409:38
	ldr	r1, [sp, #64]
	.loc	13 409 13                       @ ../Middlewares/CMSIS/DSP/Src/FilteringFunctions/arm_biquad_cascade_df1_q15.c:409:13
	smuadx	r0, r0, r1
	.loc	13 409 11                       @ ../Middlewares/CMSIS/DSP/Src/FilteringFunctions/arm_biquad_cascade_df1_q15.c:409:11
	str	r0, [sp, #60]
	.loc	13 411 34 is_stmt 1             @ ../Middlewares/CMSIS/DSP/Src/FilteringFunctions/arm_biquad_cascade_df1_q15.c:411:34
	ldr	r2, [sp, #52]
	.loc	13 411 38 is_stmt 0             @ ../Middlewares/CMSIS/DSP/Src/FilteringFunctions/arm_biquad_cascade_df1_q15.c:411:38
	ldr	r3, [sp, #44]
	.loc	13 411 48                       @ ../Middlewares/CMSIS/DSP/Src/FilteringFunctions/arm_biquad_cascade_df1_q15.c:411:48
	ldr	r0, [sp, #60]
	asrs	r1, r0, #31
	.loc	13 411 13                       @ ../Middlewares/CMSIS/DSP/Src/FilteringFunctions/arm_biquad_cascade_df1_q15.c:411:13
	smlald	r0, r1, r2, r3
	.loc	13 411 11                       @ ../Middlewares/CMSIS/DSP/Src/FilteringFunctions/arm_biquad_cascade_df1_q15.c:411:11
	str	r1, [sp, #28]
	str	r0, [sp, #24]
	.loc	13 413 34 is_stmt 1             @ ../Middlewares/CMSIS/DSP/Src/FilteringFunctions/arm_biquad_cascade_df1_q15.c:413:34
	ldr	r2, [sp, #48]
	.loc	13 413 38 is_stmt 0             @ ../Middlewares/CMSIS/DSP/Src/FilteringFunctions/arm_biquad_cascade_df1_q15.c:413:38
	ldr	r3, [sp, #40]
	.loc	13 413 49                       @ ../Middlewares/CMSIS/DSP/Src/FilteringFunctions/arm_biquad_cascade_df1_q15.c:413:49
	ldr	r0, [sp, #24]
	ldr	r1, [sp, #28]
	.loc	13 413 13                       @ ../Middlewares/CMSIS/DSP/Src/FilteringFunctions/arm_biquad_cascade_df1_q15.c:413:13
	smlald	r0, r1, r2, r3
	.loc	13 413 11                       @ ../Middlewares/CMSIS/DSP/Src/FilteringFunctions/arm_biquad_cascade_df1_q15.c:413:11
	str	r1, [sp, #28]
	str	r0, [sp, #24]
	.loc	13 417 15 is_stmt 1             @ ../Middlewares/CMSIS/DSP/Src/FilteringFunctions/arm_biquad_cascade_df1_q15.c:417:15
	ldr	r0, [sp, #24]
	.loc	13 417 13 is_stmt 0             @ ../Middlewares/CMSIS/DSP/Src/FilteringFunctions/arm_biquad_cascade_df1_q15.c:417:13
	str	r0, [sp, #36]
	.loc	13 420 16 is_stmt 1             @ ../Middlewares/CMSIS/DSP/Src/FilteringFunctions/arm_biquad_cascade_df1_q15.c:420:16
	ldr	r0, [sp, #28]
	.loc	13 420 13 is_stmt 0             @ ../Middlewares/CMSIS/DSP/Src/FilteringFunctions/arm_biquad_cascade_df1_q15.c:420:13
	str	r0, [sp, #32]
	.loc	13 423 24 is_stmt 1             @ ../Middlewares/CMSIS/DSP/Src/FilteringFunctions/arm_biquad_cascade_df1_q15.c:423:24
	ldr	r0, [sp, #36]
	.loc	13 423 33 is_stmt 0             @ ../Middlewares/CMSIS/DSP/Src/FilteringFunctions/arm_biquad_cascade_df1_q15.c:423:33
	ldr	r1, [sp, #12]
	.loc	13 423 30                       @ ../Middlewares/CMSIS/DSP/Src/FilteringFunctions/arm_biquad_cascade_df1_q15.c:423:30
	lsrs	r0, r1
	.loc	13 423 42                       @ ../Middlewares/CMSIS/DSP/Src/FilteringFunctions/arm_biquad_cascade_df1_q15.c:423:42
	ldr	r1, [sp, #32]
	.loc	13 423 51                       @ ../Middlewares/CMSIS/DSP/Src/FilteringFunctions/arm_biquad_cascade_df1_q15.c:423:51
	ldr	r2, [sp]
	.loc	13 423 48                       @ ../Middlewares/CMSIS/DSP/Src/FilteringFunctions/arm_biquad_cascade_df1_q15.c:423:48
	lsls	r1, r2
	.loc	13 423 40                       @ ../Middlewares/CMSIS/DSP/Src/FilteringFunctions/arm_biquad_cascade_df1_q15.c:423:40
	orrs	r0, r1
	.loc	13 423 11                       @ ../Middlewares/CMSIS/DSP/Src/FilteringFunctions/arm_biquad_cascade_df1_q15.c:423:11
	str	r0, [sp, #60]
	.loc	13 425 32 is_stmt 1             @ ../Middlewares/CMSIS/DSP/Src/FilteringFunctions/arm_biquad_cascade_df1_q15.c:425:32
	ldr	r0, [sp, #60]
	.loc	13 425 13 is_stmt 0             @ ../Middlewares/CMSIS/DSP/Src/FilteringFunctions/arm_biquad_cascade_df1_q15.c:425:13
	ssat	r0, #16, r0
	.loc	13 425 11                       @ ../Middlewares/CMSIS/DSP/Src/FilteringFunctions/arm_biquad_cascade_df1_q15.c:425:11
	str	r0, [sp, #60]
	.loc	13 429 46 is_stmt 1             @ ../Middlewares/CMSIS/DSP/Src/FilteringFunctions/arm_biquad_cascade_df1_q15.c:429:46
	ldrh.w	r0, [sp, #40]
	.loc	13 429 92 is_stmt 0             @ ../Middlewares/CMSIS/DSP/Src/FilteringFunctions/arm_biquad_cascade_df1_q15.c:429:92
	ldr	r1, [sp, #60]
	.loc	13 429 76                       @ ../Middlewares/CMSIS/DSP/Src/FilteringFunctions/arm_biquad_cascade_df1_q15.c:429:76
	orr.w	r0, r0, r1, lsl #16
	add	r1, sp, #68
	str	r1, [sp, #172]
	str	r0, [sp, #168]
.Ltmp73:
	.loc	8 114 15 is_stmt 1              @ ../Middlewares/CMSIS/DSP/Inc\arm_math_memory.h:114:15
	ldr	r0, [sp, #168]
	.loc	8 114 9 is_stmt 0               @ ../Middlewares/CMSIS/DSP/Inc\arm_math_memory.h:114:9
	str	r0, [sp, #164]
	.loc	8 116 12 is_stmt 1              @ ../Middlewares/CMSIS/DSP/Inc\arm_math_memory.h:116:12
	ldr	r0, [sp, #172]
	.loc	8 116 11 is_stmt 0              @ ../Middlewares/CMSIS/DSP/Inc\arm_math_memory.h:116:11
	ldr	r1, [r0]
	.loc	8 116 3                         @ ../Middlewares/CMSIS/DSP/Inc\arm_math_memory.h:116:3
	ldr	r0, [sp, #164]
	str	r0, [r1]
	.loc	8 122 3 is_stmt 1               @ ../Middlewares/CMSIS/DSP/Inc\arm_math_memory.h:122:3
	ldr	r1, [sp, #172]
	.loc	8 122 8 is_stmt 0               @ ../Middlewares/CMSIS/DSP/Inc\arm_math_memory.h:122:8
	ldr	r0, [r1]
	adds	r0, #4
	str	r0, [r1]
.Ltmp74:
	.loc	13 443 34 is_stmt 1             @ ../Middlewares/CMSIS/DSP/Src/FilteringFunctions/arm_biquad_cascade_df1_q15.c:443:34
	ldrh.w	r0, [sp, #66]
	.loc	13 443 79 is_stmt 0             @ ../Middlewares/CMSIS/DSP/Src/FilteringFunctions/arm_biquad_cascade_df1_q15.c:443:79
	ldr	r1, [sp, #44]
	.loc	13 443 63                       @ ../Middlewares/CMSIS/DSP/Src/FilteringFunctions/arm_biquad_cascade_df1_q15.c:443:63
	orr.w	r0, r0, r1, lsl #16
	.loc	13 443 16                       @ ../Middlewares/CMSIS/DSP/Src/FilteringFunctions/arm_biquad_cascade_df1_q15.c:443:16
	str	r0, [sp, #44]
	.loc	13 444 35 is_stmt 1             @ ../Middlewares/CMSIS/DSP/Src/FilteringFunctions/arm_biquad_cascade_df1_q15.c:444:35
	ldrh.w	r0, [sp, #60]
	.loc	13 444 75 is_stmt 0             @ ../Middlewares/CMSIS/DSP/Src/FilteringFunctions/arm_biquad_cascade_df1_q15.c:444:75
	ldr	r1, [sp, #40]
	.loc	13 444 59                       @ ../Middlewares/CMSIS/DSP/Src/FilteringFunctions/arm_biquad_cascade_df1_q15.c:444:59
	orr.w	r0, r0, r1, lsl #16
	.loc	13 444 17                       @ ../Middlewares/CMSIS/DSP/Src/FilteringFunctions/arm_biquad_cascade_df1_q15.c:444:17
	str	r0, [sp, #40]
	.loc	13 451 13 is_stmt 1             @ ../Middlewares/CMSIS/DSP/Src/FilteringFunctions/arm_biquad_cascade_df1_q15.c:451:13
	ldr	r0, [sp, #8]
	subs	r0, #1
	str	r0, [sp, #8]
.Ltmp75:
	.loc	13 365 5                        @ ../Middlewares/CMSIS/DSP/Src/FilteringFunctions/arm_biquad_cascade_df1_q15.c:365:5
	b	.LBB8_2
.LBB8_4:                                @   in Loop: Header=BB8_1 Depth=1
	.loc	13 457 9                        @ ../Middlewares/CMSIS/DSP/Src/FilteringFunctions/arm_biquad_cascade_df1_q15.c:457:9
	ldrb.w	r0, [sp, #76]
	lsls	r0, r0, #31
	cbz	r0, .LBB8_6
	b	.LBB8_5
.LBB8_5:                                @   in Loop: Header=BB8_1 Depth=1
.Ltmp76:
	.loc	13 460 16                       @ ../Middlewares/CMSIS/DSP/Src/FilteringFunctions/arm_biquad_cascade_df1_q15.c:460:16
	ldr	r0, [sp, #72]
	adds	r1, r0, #2
	str	r1, [sp, #72]
	.loc	13 460 12 is_stmt 0             @ ../Middlewares/CMSIS/DSP/Src/FilteringFunctions/arm_biquad_cascade_df1_q15.c:460:12
	ldrsh.w	r0, [r0]
	.loc	13 460 10                       @ ../Middlewares/CMSIS/DSP/Src/FilteringFunctions/arm_biquad_cascade_df1_q15.c:460:10
	str	r0, [sp, #64]
	.loc	13 464 33 is_stmt 1             @ ../Middlewares/CMSIS/DSP/Src/FilteringFunctions/arm_biquad_cascade_df1_q15.c:464:33
	ldr	r0, [sp, #56]
	.loc	13 464 37 is_stmt 0             @ ../Middlewares/CMSIS/DSP/Src/FilteringFunctions/arm_biquad_cascade_df1_q15.c:464:37
	ldr	r1, [sp, #64]
	.loc	13 464 13                       @ ../Middlewares/CMSIS/DSP/Src/FilteringFunctions/arm_biquad_cascade_df1_q15.c:464:13
	smuad	r0, r0, r1
	.loc	13 464 11                       @ ../Middlewares/CMSIS/DSP/Src/FilteringFunctions/arm_biquad_cascade_df1_q15.c:464:11
	str	r0, [sp, #60]
	.loc	13 470 34 is_stmt 1             @ ../Middlewares/CMSIS/DSP/Src/FilteringFunctions/arm_biquad_cascade_df1_q15.c:470:34
	ldr	r2, [sp, #52]
	.loc	13 470 38 is_stmt 0             @ ../Middlewares/CMSIS/DSP/Src/FilteringFunctions/arm_biquad_cascade_df1_q15.c:470:38
	ldr	r3, [sp, #44]
	.loc	13 470 48                       @ ../Middlewares/CMSIS/DSP/Src/FilteringFunctions/arm_biquad_cascade_df1_q15.c:470:48
	ldr	r0, [sp, #60]
	asrs	r1, r0, #31
	.loc	13 470 13                       @ ../Middlewares/CMSIS/DSP/Src/FilteringFunctions/arm_biquad_cascade_df1_q15.c:470:13
	smlald	r0, r1, r2, r3
	.loc	13 470 11                       @ ../Middlewares/CMSIS/DSP/Src/FilteringFunctions/arm_biquad_cascade_df1_q15.c:470:11
	str	r1, [sp, #28]
	str	r0, [sp, #24]
	.loc	13 472 34 is_stmt 1             @ ../Middlewares/CMSIS/DSP/Src/FilteringFunctions/arm_biquad_cascade_df1_q15.c:472:34
	ldr	r2, [sp, #48]
	.loc	13 472 38 is_stmt 0             @ ../Middlewares/CMSIS/DSP/Src/FilteringFunctions/arm_biquad_cascade_df1_q15.c:472:38
	ldr	r3, [sp, #40]
	.loc	13 472 49                       @ ../Middlewares/CMSIS/DSP/Src/FilteringFunctions/arm_biquad_cascade_df1_q15.c:472:49
	ldr	r0, [sp, #24]
	ldr	r1, [sp, #28]
	.loc	13 472 13                       @ ../Middlewares/CMSIS/DSP/Src/FilteringFunctions/arm_biquad_cascade_df1_q15.c:472:13
	smlald	r0, r1, r2, r3
	.loc	13 472 11                       @ ../Middlewares/CMSIS/DSP/Src/FilteringFunctions/arm_biquad_cascade_df1_q15.c:472:11
	str	r1, [sp, #28]
	str	r0, [sp, #24]
	.loc	13 476 15 is_stmt 1             @ ../Middlewares/CMSIS/DSP/Src/FilteringFunctions/arm_biquad_cascade_df1_q15.c:476:15
	ldr	r0, [sp, #24]
	.loc	13 476 13 is_stmt 0             @ ../Middlewares/CMSIS/DSP/Src/FilteringFunctions/arm_biquad_cascade_df1_q15.c:476:13
	str	r0, [sp, #36]
	.loc	13 479 16 is_stmt 1             @ ../Middlewares/CMSIS/DSP/Src/FilteringFunctions/arm_biquad_cascade_df1_q15.c:479:16
	ldr	r0, [sp, #28]
	.loc	13 479 13 is_stmt 0             @ ../Middlewares/CMSIS/DSP/Src/FilteringFunctions/arm_biquad_cascade_df1_q15.c:479:13
	str	r0, [sp, #32]
	.loc	13 482 24 is_stmt 1             @ ../Middlewares/CMSIS/DSP/Src/FilteringFunctions/arm_biquad_cascade_df1_q15.c:482:24
	ldr	r0, [sp, #36]
	.loc	13 482 33 is_stmt 0             @ ../Middlewares/CMSIS/DSP/Src/FilteringFunctions/arm_biquad_cascade_df1_q15.c:482:33
	ldr	r1, [sp, #12]
	.loc	13 482 30                       @ ../Middlewares/CMSIS/DSP/Src/FilteringFunctions/arm_biquad_cascade_df1_q15.c:482:30
	lsrs	r0, r1
	.loc	13 482 42                       @ ../Middlewares/CMSIS/DSP/Src/FilteringFunctions/arm_biquad_cascade_df1_q15.c:482:42
	ldr	r1, [sp, #32]
	.loc	13 482 51                       @ ../Middlewares/CMSIS/DSP/Src/FilteringFunctions/arm_biquad_cascade_df1_q15.c:482:51
	ldr	r2, [sp]
	.loc	13 482 48                       @ ../Middlewares/CMSIS/DSP/Src/FilteringFunctions/arm_biquad_cascade_df1_q15.c:482:48
	lsls	r1, r2
	.loc	13 482 40                       @ ../Middlewares/CMSIS/DSP/Src/FilteringFunctions/arm_biquad_cascade_df1_q15.c:482:40
	orrs	r0, r1
	.loc	13 482 11                       @ ../Middlewares/CMSIS/DSP/Src/FilteringFunctions/arm_biquad_cascade_df1_q15.c:482:11
	str	r0, [sp, #60]
	.loc	13 484 32 is_stmt 1             @ ../Middlewares/CMSIS/DSP/Src/FilteringFunctions/arm_biquad_cascade_df1_q15.c:484:32
	ldr	r0, [sp, #60]
	.loc	13 484 13 is_stmt 0             @ ../Middlewares/CMSIS/DSP/Src/FilteringFunctions/arm_biquad_cascade_df1_q15.c:484:13
	ssat	r0, #16, r0
	.loc	13 484 11                       @ ../Middlewares/CMSIS/DSP/Src/FilteringFunctions/arm_biquad_cascade_df1_q15.c:484:11
	str	r0, [sp, #60]
	.loc	13 487 25 is_stmt 1             @ ../Middlewares/CMSIS/DSP/Src/FilteringFunctions/arm_biquad_cascade_df1_q15.c:487:25
	ldr	r0, [sp, #60]
	.loc	13 487 12 is_stmt 0             @ ../Middlewares/CMSIS/DSP/Src/FilteringFunctions/arm_biquad_cascade_df1_q15.c:487:12
	ldr	r1, [sp, #68]
	adds	r2, r1, #2
	str	r2, [sp, #68]
	.loc	13 487 15                       @ ../Middlewares/CMSIS/DSP/Src/FilteringFunctions/arm_biquad_cascade_df1_q15.c:487:15
	strh	r0, [r1]
	.loc	13 498 34 is_stmt 1             @ ../Middlewares/CMSIS/DSP/Src/FilteringFunctions/arm_biquad_cascade_df1_q15.c:498:34
	ldrh.w	r0, [sp, #64]
	.loc	13 498 73 is_stmt 0             @ ../Middlewares/CMSIS/DSP/Src/FilteringFunctions/arm_biquad_cascade_df1_q15.c:498:73
	ldr	r1, [sp, #44]
	.loc	13 498 57                       @ ../Middlewares/CMSIS/DSP/Src/FilteringFunctions/arm_biquad_cascade_df1_q15.c:498:57
	orr.w	r0, r0, r1, lsl #16
	.loc	13 498 16                       @ ../Middlewares/CMSIS/DSP/Src/FilteringFunctions/arm_biquad_cascade_df1_q15.c:498:16
	str	r0, [sp, #44]
	.loc	13 499 35 is_stmt 1             @ ../Middlewares/CMSIS/DSP/Src/FilteringFunctions/arm_biquad_cascade_df1_q15.c:499:35
	ldrh.w	r0, [sp, #60]
	.loc	13 499 75 is_stmt 0             @ ../Middlewares/CMSIS/DSP/Src/FilteringFunctions/arm_biquad_cascade_df1_q15.c:499:75
	ldr	r1, [sp, #40]
	.loc	13 499 59                       @ ../Middlewares/CMSIS/DSP/Src/FilteringFunctions/arm_biquad_cascade_df1_q15.c:499:59
	orr.w	r0, r0, r1, lsl #16
	.loc	13 499 17                       @ ../Middlewares/CMSIS/DSP/Src/FilteringFunctions/arm_biquad_cascade_df1_q15.c:499:17
	str	r0, [sp, #40]
	.loc	13 504 5 is_stmt 1              @ ../Middlewares/CMSIS/DSP/Src/FilteringFunctions/arm_biquad_cascade_df1_q15.c:504:5
	b	.LBB8_6
.Ltmp77:
.LBB8_6:                                @   in Loop: Header=BB8_1 Depth=1
	.loc	13 508 11                       @ ../Middlewares/CMSIS/DSP/Src/FilteringFunctions/arm_biquad_cascade_df1_q15.c:508:11
	ldr	r0, [sp, #80]
	.loc	13 508 9 is_stmt 0              @ ../Middlewares/CMSIS/DSP/Src/FilteringFunctions/arm_biquad_cascade_df1_q15.c:508:9
	str	r0, [sp, #72]
	.loc	13 511 12 is_stmt 1             @ ../Middlewares/CMSIS/DSP/Src/FilteringFunctions/arm_biquad_cascade_df1_q15.c:511:12
	ldr	r0, [sp, #80]
	.loc	13 511 10 is_stmt 0             @ ../Middlewares/CMSIS/DSP/Src/FilteringFunctions/arm_biquad_cascade_df1_q15.c:511:10
	str	r0, [sp, #68]
	.loc	13 514 30 is_stmt 1             @ ../Middlewares/CMSIS/DSP/Src/FilteringFunctions/arm_biquad_cascade_df1_q15.c:514:30
	ldr	r0, [sp, #44]
	add	r1, sp, #20
	str	r1, [sp, #160]
	str	r0, [sp, #156]
.Ltmp78:
	.loc	8 114 15                        @ ../Middlewares/CMSIS/DSP/Inc\arm_math_memory.h:114:15
	ldr	r0, [sp, #156]
	.loc	8 114 9 is_stmt 0               @ ../Middlewares/CMSIS/DSP/Inc\arm_math_memory.h:114:9
	str	r0, [sp, #152]
	.loc	8 116 12 is_stmt 1              @ ../Middlewares/CMSIS/DSP/Inc\arm_math_memory.h:116:12
	ldr	r0, [sp, #160]
	.loc	8 116 11 is_stmt 0              @ ../Middlewares/CMSIS/DSP/Inc\arm_math_memory.h:116:11
	ldr	r2, [r0]
	.loc	8 116 3                         @ ../Middlewares/CMSIS/DSP/Inc\arm_math_memory.h:116:3
	ldr	r0, [sp, #152]
	str	r0, [r2]
	.loc	8 122 3 is_stmt 1               @ ../Middlewares/CMSIS/DSP/Inc\arm_math_memory.h:122:3
	ldr	r2, [sp, #160]
	.loc	8 122 8 is_stmt 0               @ ../Middlewares/CMSIS/DSP/Inc\arm_math_memory.h:122:8
	ldr	r0, [r2]
	adds	r0, #4
	str	r0, [r2]
.Ltmp79:
	.loc	13 515 30 is_stmt 1             @ ../Middlewares/CMSIS/DSP/Src/FilteringFunctions/arm_biquad_cascade_df1_q15.c:515:30
	ldr	r0, [sp, #40]
	str	r1, [sp, #148]
	str	r0, [sp, #144]
.Ltmp80:
	.loc	8 114 15                        @ ../Middlewares/CMSIS/DSP/Inc\arm_math_memory.h:114:15
	ldr	r0, [sp, #144]
	.loc	8 114 9 is_stmt 0               @ ../Middlewares/CMSIS/DSP/Inc\arm_math_memory.h:114:9
	str	r0, [sp, #140]
	.loc	8 116 12 is_stmt 1              @ ../Middlewares/CMSIS/DSP/Inc\arm_math_memory.h:116:12
	ldr	r0, [sp, #148]
	.loc	8 116 11 is_stmt 0              @ ../Middlewares/CMSIS/DSP/Inc\arm_math_memory.h:116:11
	ldr	r1, [r0]
	.loc	8 116 3                         @ ../Middlewares/CMSIS/DSP/Inc\arm_math_memory.h:116:3
	ldr	r0, [sp, #140]
	str	r0, [r1]
	.loc	8 122 3 is_stmt 1               @ ../Middlewares/CMSIS/DSP/Inc\arm_math_memory.h:122:3
	ldr	r1, [sp, #148]
	.loc	8 122 8 is_stmt 0               @ ../Middlewares/CMSIS/DSP/Inc\arm_math_memory.h:122:8
	ldr	r0, [r1]
	adds	r0, #4
	str	r0, [r1]
.Ltmp81:
	.loc	13 518 10 is_stmt 1             @ ../Middlewares/CMSIS/DSP/Src/FilteringFunctions/arm_biquad_cascade_df1_q15.c:518:10
	ldr	r0, [sp, #4]
	subs	r0, #1
	str	r0, [sp, #4]
	.loc	13 520 3                        @ ../Middlewares/CMSIS/DSP/Src/FilteringFunctions/arm_biquad_cascade_df1_q15.c:520:3
	b	.LBB8_7
.Ltmp82:
.LBB8_7:                                @   in Loop: Header=BB8_1 Depth=1
	.loc	13 520 12 is_stmt 0             @ ../Middlewares/CMSIS/DSP/Src/FilteringFunctions/arm_biquad_cascade_df1_q15.c:520:12
	ldr	r0, [sp, #4]
.Ltmp83:
	.loc	13 520 3                        @ ../Middlewares/CMSIS/DSP/Src/FilteringFunctions/arm_biquad_cascade_df1_q15.c:520:3
	cmp	r0, #0
	bne.w	.LBB8_1
	b	.LBB8_8
.Ltmp84:
.LBB8_8:
	.loc	13 613 1 is_stmt 1              @ ../Middlewares/CMSIS/DSP/Src/FilteringFunctions/arm_biquad_cascade_df1_q15.c:613:1
	add	sp, #176
	bx	lr
.Ltmp85:
.Lfunc_end8:
	.size	arm_biquad_cascade_df1_q15, .Lfunc_end8-arm_biquad_cascade_df1_q15
	.cfi_endproc
	.cantunwind
	.fnend
                                        @ -- End function
	.section	.text.arm_biquad_cascade_df1_q31,"ax",%progbits
	.hidden	arm_biquad_cascade_df1_q31      @ -- Begin function arm_biquad_cascade_df1_q31
	.globl	arm_biquad_cascade_df1_q31
	.p2align	2
	.type	arm_biquad_cascade_df1_q31,%function
	.code	16                              @ @arm_biquad_cascade_df1_q31
	.thumb_func
arm_biquad_cascade_df1_q31:
.Lfunc_begin9:
	.file	14 "D:\\horizon\\Horizon_Infantry (2)\\MDK-ARM" "../Middlewares/CMSIS/DSP/Src/FilteringFunctions/arm_biquad_cascade_df1_q31.c"
	.loc	14 326 0                        @ ../Middlewares/CMSIS/DSP/Src/FilteringFunctions/arm_biquad_cascade_df1_q31.c:326:0
	.fnstart
	.cfi_startproc
@ %bb.0:
	.pad	#96
	sub	sp, #96
	.cfi_def_cfa_offset 96
	str	r0, [sp, #92]
	str	r1, [sp, #88]
	str	r2, [sp, #84]
	str	r3, [sp, #80]
.Ltmp86:
	.loc	14 327 22 prologue_end          @ ../Middlewares/CMSIS/DSP/Src/FilteringFunctions/arm_biquad_cascade_df1_q31.c:327:22
	ldr	r0, [sp, #88]
	.loc	14 327 16 is_stmt 0             @ ../Middlewares/CMSIS/DSP/Src/FilteringFunctions/arm_biquad_cascade_df1_q31.c:327:16
	str	r0, [sp, #76]
	.loc	14 328 23 is_stmt 1             @ ../Middlewares/CMSIS/DSP/Src/FilteringFunctions/arm_biquad_cascade_df1_q31.c:328:23
	ldr	r0, [sp, #84]
	.loc	14 328 16 is_stmt 0             @ ../Middlewares/CMSIS/DSP/Src/FilteringFunctions/arm_biquad_cascade_df1_q31.c:328:16
	str	r0, [sp, #72]
	.loc	14 329 25 is_stmt 1             @ ../Middlewares/CMSIS/DSP/Src/FilteringFunctions/arm_biquad_cascade_df1_q31.c:329:25
	ldr	r0, [sp, #92]
	.loc	14 329 28 is_stmt 0             @ ../Middlewares/CMSIS/DSP/Src/FilteringFunctions/arm_biquad_cascade_df1_q31.c:329:28
	ldr	r0, [r0, #4]
	.loc	14 329 16                       @ ../Middlewares/CMSIS/DSP/Src/FilteringFunctions/arm_biquad_cascade_df1_q31.c:329:16
	str	r0, [sp, #68]
	.loc	14 330 26 is_stmt 1             @ ../Middlewares/CMSIS/DSP/Src/FilteringFunctions/arm_biquad_cascade_df1_q31.c:330:26
	ldr	r0, [sp, #92]
	.loc	14 330 29 is_stmt 0             @ ../Middlewares/CMSIS/DSP/Src/FilteringFunctions/arm_biquad_cascade_df1_q31.c:330:29
	ldr	r0, [r0, #8]
	.loc	14 330 16                       @ ../Middlewares/CMSIS/DSP/Src/FilteringFunctions/arm_biquad_cascade_df1_q31.c:330:16
	str	r0, [sp, #64]
	.loc	14 335 39 is_stmt 1             @ ../Middlewares/CMSIS/DSP/Src/FilteringFunctions/arm_biquad_cascade_df1_q31.c:335:39
	ldr	r0, [sp, #92]
	.loc	14 335 42 is_stmt 0             @ ../Middlewares/CMSIS/DSP/Src/FilteringFunctions/arm_biquad_cascade_df1_q31.c:335:42
	ldrb	r0, [r0, #12]
	.loc	14 335 52                       @ ../Middlewares/CMSIS/DSP/Src/FilteringFunctions/arm_biquad_cascade_df1_q31.c:335:52
	adds	r0, #1
	.loc	14 335 18                       @ ../Middlewares/CMSIS/DSP/Src/FilteringFunctions/arm_biquad_cascade_df1_q31.c:335:18
	str	r0, [sp, #12]
	.loc	14 336 33 is_stmt 1             @ ../Middlewares/CMSIS/DSP/Src/FilteringFunctions/arm_biquad_cascade_df1_q31.c:336:33
	ldr	r0, [sp, #12]
	.loc	14 336 31 is_stmt 0             @ ../Middlewares/CMSIS/DSP/Src/FilteringFunctions/arm_biquad_cascade_df1_q31.c:336:31
	rsb.w	r0, r0, #32
	.loc	14 336 18                       @ ../Middlewares/CMSIS/DSP/Src/FilteringFunctions/arm_biquad_cascade_df1_q31.c:336:18
	str	r0, [sp, #8]
	.loc	14 337 34 is_stmt 1             @ ../Middlewares/CMSIS/DSP/Src/FilteringFunctions/arm_biquad_cascade_df1_q31.c:337:34
	ldr	r0, [sp, #92]
	.loc	14 337 37 is_stmt 0             @ ../Middlewares/CMSIS/DSP/Src/FilteringFunctions/arm_biquad_cascade_df1_q31.c:337:37
	ldr	r0, [r0]
	.loc	14 337 26                       @ ../Middlewares/CMSIS/DSP/Src/FilteringFunctions/arm_biquad_cascade_df1_q31.c:337:26
	str	r0, [sp]
	.loc	14 343 3 is_stmt 1              @ ../Middlewares/CMSIS/DSP/Src/FilteringFunctions/arm_biquad_cascade_df1_q31.c:343:3
	b	.LBB9_1
.LBB9_1:                                @ =>This Loop Header: Depth=1
                                        @     Child Loop BB9_2 Depth 2
.Ltmp87:
	.loc	14 346 18                       @ ../Middlewares/CMSIS/DSP/Src/FilteringFunctions/arm_biquad_cascade_df1_q31.c:346:18
	ldr	r0, [sp, #64]
	adds	r1, r0, #4
	str	r1, [sp, #64]
	.loc	14 346 10 is_stmt 0             @ ../Middlewares/CMSIS/DSP/Src/FilteringFunctions/arm_biquad_cascade_df1_q31.c:346:10
	ldr	r0, [r0]
	.loc	14 346 8                        @ ../Middlewares/CMSIS/DSP/Src/FilteringFunctions/arm_biquad_cascade_df1_q31.c:346:8
	str	r0, [sp, #52]
	.loc	14 347 18 is_stmt 1             @ ../Middlewares/CMSIS/DSP/Src/FilteringFunctions/arm_biquad_cascade_df1_q31.c:347:18
	ldr	r0, [sp, #64]
	adds	r1, r0, #4
	str	r1, [sp, #64]
	.loc	14 347 10 is_stmt 0             @ ../Middlewares/CMSIS/DSP/Src/FilteringFunctions/arm_biquad_cascade_df1_q31.c:347:10
	ldr	r0, [r0]
	.loc	14 347 8                        @ ../Middlewares/CMSIS/DSP/Src/FilteringFunctions/arm_biquad_cascade_df1_q31.c:347:8
	str	r0, [sp, #48]
	.loc	14 348 18 is_stmt 1             @ ../Middlewares/CMSIS/DSP/Src/FilteringFunctions/arm_biquad_cascade_df1_q31.c:348:18
	ldr	r0, [sp, #64]
	adds	r1, r0, #4
	str	r1, [sp, #64]
	.loc	14 348 10 is_stmt 0             @ ../Middlewares/CMSIS/DSP/Src/FilteringFunctions/arm_biquad_cascade_df1_q31.c:348:10
	ldr	r0, [r0]
	.loc	14 348 8                        @ ../Middlewares/CMSIS/DSP/Src/FilteringFunctions/arm_biquad_cascade_df1_q31.c:348:8
	str	r0, [sp, #44]
	.loc	14 349 18 is_stmt 1             @ ../Middlewares/CMSIS/DSP/Src/FilteringFunctions/arm_biquad_cascade_df1_q31.c:349:18
	ldr	r0, [sp, #64]
	adds	r1, r0, #4
	str	r1, [sp, #64]
	.loc	14 349 10 is_stmt 0             @ ../Middlewares/CMSIS/DSP/Src/FilteringFunctions/arm_biquad_cascade_df1_q31.c:349:10
	ldr	r0, [r0]
	.loc	14 349 8                        @ ../Middlewares/CMSIS/DSP/Src/FilteringFunctions/arm_biquad_cascade_df1_q31.c:349:8
	str	r0, [sp, #40]
	.loc	14 350 18 is_stmt 1             @ ../Middlewares/CMSIS/DSP/Src/FilteringFunctions/arm_biquad_cascade_df1_q31.c:350:18
	ldr	r0, [sp, #64]
	adds	r1, r0, #4
	str	r1, [sp, #64]
	.loc	14 350 10 is_stmt 0             @ ../Middlewares/CMSIS/DSP/Src/FilteringFunctions/arm_biquad_cascade_df1_q31.c:350:10
	ldr	r0, [r0]
	.loc	14 350 8                        @ ../Middlewares/CMSIS/DSP/Src/FilteringFunctions/arm_biquad_cascade_df1_q31.c:350:8
	str	r0, [sp, #36]
	.loc	14 353 11 is_stmt 1             @ ../Middlewares/CMSIS/DSP/Src/FilteringFunctions/arm_biquad_cascade_df1_q31.c:353:11
	ldr	r0, [sp, #68]
	ldr	r0, [r0]
	.loc	14 353 9 is_stmt 0              @ ../Middlewares/CMSIS/DSP/Src/FilteringFunctions/arm_biquad_cascade_df1_q31.c:353:9
	str	r0, [sp, #32]
	.loc	14 354 11 is_stmt 1             @ ../Middlewares/CMSIS/DSP/Src/FilteringFunctions/arm_biquad_cascade_df1_q31.c:354:11
	ldr	r0, [sp, #68]
	ldr	r0, [r0, #4]
	.loc	14 354 9 is_stmt 0              @ ../Middlewares/CMSIS/DSP/Src/FilteringFunctions/arm_biquad_cascade_df1_q31.c:354:9
	str	r0, [sp, #28]
	.loc	14 355 11 is_stmt 1             @ ../Middlewares/CMSIS/DSP/Src/FilteringFunctions/arm_biquad_cascade_df1_q31.c:355:11
	ldr	r0, [sp, #68]
	ldr	r0, [r0, #8]
	.loc	14 355 9 is_stmt 0              @ ../Middlewares/CMSIS/DSP/Src/FilteringFunctions/arm_biquad_cascade_df1_q31.c:355:9
	str	r0, [sp, #24]
	.loc	14 356 11 is_stmt 1             @ ../Middlewares/CMSIS/DSP/Src/FilteringFunctions/arm_biquad_cascade_df1_q31.c:356:11
	ldr	r0, [sp, #68]
	ldr	r0, [r0, #12]
	.loc	14 356 9 is_stmt 0              @ ../Middlewares/CMSIS/DSP/Src/FilteringFunctions/arm_biquad_cascade_df1_q31.c:356:9
	str	r0, [sp, #20]
	.loc	14 454 14 is_stmt 1             @ ../Middlewares/CMSIS/DSP/Src/FilteringFunctions/arm_biquad_cascade_df1_q31.c:454:14
	ldr	r0, [sp, #80]
	.loc	14 454 12 is_stmt 0             @ ../Middlewares/CMSIS/DSP/Src/FilteringFunctions/arm_biquad_cascade_df1_q31.c:454:12
	str	r0, [sp, #4]
	.loc	14 458 5 is_stmt 1              @ ../Middlewares/CMSIS/DSP/Src/FilteringFunctions/arm_biquad_cascade_df1_q31.c:458:5
	b	.LBB9_2
.LBB9_2:                                @   Parent Loop BB9_1 Depth=1
                                        @ =>  This Inner Loop Header: Depth=2
	.loc	14 458 12 is_stmt 0             @ ../Middlewares/CMSIS/DSP/Src/FilteringFunctions/arm_biquad_cascade_df1_q31.c:458:12
	ldr	r0, [sp, #4]
	.loc	14 458 5                        @ ../Middlewares/CMSIS/DSP/Src/FilteringFunctions/arm_biquad_cascade_df1_q31.c:458:5
	cmp	r0, #0
	beq	.LBB9_4
	b	.LBB9_3
.LBB9_3:                                @   in Loop: Header=BB9_2 Depth=2
.Ltmp88:
	.loc	14 461 16 is_stmt 1             @ ../Middlewares/CMSIS/DSP/Src/FilteringFunctions/arm_biquad_cascade_df1_q31.c:461:16
	ldr	r0, [sp, #76]
	adds	r1, r0, #4
	str	r1, [sp, #76]
	.loc	14 461 12 is_stmt 0             @ ../Middlewares/CMSIS/DSP/Src/FilteringFunctions/arm_biquad_cascade_df1_q31.c:461:12
	ldr	r0, [r0]
	.loc	14 461 10                       @ ../Middlewares/CMSIS/DSP/Src/FilteringFunctions/arm_biquad_cascade_df1_q31.c:461:10
	str	r0, [sp, #16]
	.loc	14 464 22 is_stmt 1             @ ../Middlewares/CMSIS/DSP/Src/FilteringFunctions/arm_biquad_cascade_df1_q31.c:464:22
	ldr	r2, [sp, #52]
	.loc	14 464 27 is_stmt 0             @ ../Middlewares/CMSIS/DSP/Src/FilteringFunctions/arm_biquad_cascade_df1_q31.c:464:27
	ldr	r3, [sp, #16]
	.loc	14 464 42                       @ ../Middlewares/CMSIS/DSP/Src/FilteringFunctions/arm_biquad_cascade_df1_q31.c:464:42
	ldr	r0, [sp, #48]
	.loc	14 464 47                       @ ../Middlewares/CMSIS/DSP/Src/FilteringFunctions/arm_biquad_cascade_df1_q31.c:464:47
	ldr	r1, [sp, #32]
	.loc	14 464 45                       @ ../Middlewares/CMSIS/DSP/Src/FilteringFunctions/arm_biquad_cascade_df1_q31.c:464:45
	smull	r0, r1, r0, r1
	.loc	14 464 31                       @ ../Middlewares/CMSIS/DSP/Src/FilteringFunctions/arm_biquad_cascade_df1_q31.c:464:31
	smlal	r0, r1, r2, r3
	.loc	14 464 63                       @ ../Middlewares/CMSIS/DSP/Src/FilteringFunctions/arm_biquad_cascade_df1_q31.c:464:63
	ldr	r2, [sp, #44]
	.loc	14 464 68                       @ ../Middlewares/CMSIS/DSP/Src/FilteringFunctions/arm_biquad_cascade_df1_q31.c:464:68
	ldr	r3, [sp, #28]
	.loc	14 464 52                       @ ../Middlewares/CMSIS/DSP/Src/FilteringFunctions/arm_biquad_cascade_df1_q31.c:464:52
	smlal	r0, r1, r2, r3
	.loc	14 464 84                       @ ../Middlewares/CMSIS/DSP/Src/FilteringFunctions/arm_biquad_cascade_df1_q31.c:464:84
	ldr	r2, [sp, #40]
	.loc	14 464 89                       @ ../Middlewares/CMSIS/DSP/Src/FilteringFunctions/arm_biquad_cascade_df1_q31.c:464:89
	ldr	r3, [sp, #24]
	.loc	14 464 73                       @ ../Middlewares/CMSIS/DSP/Src/FilteringFunctions/arm_biquad_cascade_df1_q31.c:464:73
	smlal	r0, r1, r2, r3
	.loc	14 464 105                      @ ../Middlewares/CMSIS/DSP/Src/FilteringFunctions/arm_biquad_cascade_df1_q31.c:464:105
	ldr	r2, [sp, #36]
	.loc	14 464 110                      @ ../Middlewares/CMSIS/DSP/Src/FilteringFunctions/arm_biquad_cascade_df1_q31.c:464:110
	ldr	r3, [sp, #20]
	.loc	14 464 94                       @ ../Middlewares/CMSIS/DSP/Src/FilteringFunctions/arm_biquad_cascade_df1_q31.c:464:94
	smlal	r0, r1, r2, r3
	.loc	14 464 11                       @ ../Middlewares/CMSIS/DSP/Src/FilteringFunctions/arm_biquad_cascade_df1_q31.c:464:11
	str	r1, [sp, #60]
	str	r0, [sp, #56]
	.loc	14 467 13 is_stmt 1             @ ../Middlewares/CMSIS/DSP/Src/FilteringFunctions/arm_biquad_cascade_df1_q31.c:467:13
	ldr	r0, [sp, #56]
	ldr	r2, [sp, #60]
	.loc	14 467 20 is_stmt 0             @ ../Middlewares/CMSIS/DSP/Src/FilteringFunctions/arm_biquad_cascade_df1_q31.c:467:20
	ldr	r1, [sp, #8]
	.loc	14 467 17                       @ ../Middlewares/CMSIS/DSP/Src/FilteringFunctions/arm_biquad_cascade_df1_q31.c:467:17
	lsrs	r0, r1
	rsb.w	r3, r1, #32
	lsl.w	r3, r2, r3
	orrs	r0, r3
	sub.w	r3, r1, #32
	asr.w	r12, r2, r3
	cmp	r3, #0
	it	pl
	movpl	r0, r12
	asr.w	r1, r2, r1
	cmp	r3, #0
	it	pl
	asrpl	r1, r2, #31
	.loc	14 467 11                       @ ../Middlewares/CMSIS/DSP/Src/FilteringFunctions/arm_biquad_cascade_df1_q31.c:467:11
	str	r1, [sp, #60]
	str	r0, [sp, #56]
	.loc	14 470 25 is_stmt 1             @ ../Middlewares/CMSIS/DSP/Src/FilteringFunctions/arm_biquad_cascade_df1_q31.c:470:25
	ldr	r0, [sp, #56]
	.loc	14 470 12 is_stmt 0             @ ../Middlewares/CMSIS/DSP/Src/FilteringFunctions/arm_biquad_cascade_df1_q31.c:470:12
	ldr	r1, [sp, #72]
	adds	r2, r1, #4
	str	r2, [sp, #72]
	.loc	14 470 15                       @ ../Middlewares/CMSIS/DSP/Src/FilteringFunctions/arm_biquad_cascade_df1_q31.c:470:15
	str	r0, [r1]
	.loc	14 478 13 is_stmt 1             @ ../Middlewares/CMSIS/DSP/Src/FilteringFunctions/arm_biquad_cascade_df1_q31.c:478:13
	ldr	r0, [sp, #32]
	.loc	14 478 11 is_stmt 0             @ ../Middlewares/CMSIS/DSP/Src/FilteringFunctions/arm_biquad_cascade_df1_q31.c:478:11
	str	r0, [sp, #28]
	.loc	14 479 13 is_stmt 1             @ ../Middlewares/CMSIS/DSP/Src/FilteringFunctions/arm_biquad_cascade_df1_q31.c:479:13
	ldr	r0, [sp, #16]
	.loc	14 479 11 is_stmt 0             @ ../Middlewares/CMSIS/DSP/Src/FilteringFunctions/arm_biquad_cascade_df1_q31.c:479:11
	str	r0, [sp, #32]
	.loc	14 480 13 is_stmt 1             @ ../Middlewares/CMSIS/DSP/Src/FilteringFunctions/arm_biquad_cascade_df1_q31.c:480:13
	ldr	r0, [sp, #24]
	.loc	14 480 11 is_stmt 0             @ ../Middlewares/CMSIS/DSP/Src/FilteringFunctions/arm_biquad_cascade_df1_q31.c:480:11
	str	r0, [sp, #20]
	.loc	14 481 21 is_stmt 1             @ ../Middlewares/CMSIS/DSP/Src/FilteringFunctions/arm_biquad_cascade_df1_q31.c:481:21
	ldr	r0, [sp, #56]
	.loc	14 481 11 is_stmt 0             @ ../Middlewares/CMSIS/DSP/Src/FilteringFunctions/arm_biquad_cascade_df1_q31.c:481:11
	str	r0, [sp, #24]
	.loc	14 484 13 is_stmt 1             @ ../Middlewares/CMSIS/DSP/Src/FilteringFunctions/arm_biquad_cascade_df1_q31.c:484:13
	ldr	r0, [sp, #4]
	subs	r0, #1
	str	r0, [sp, #4]
.Ltmp89:
	.loc	14 458 5                        @ ../Middlewares/CMSIS/DSP/Src/FilteringFunctions/arm_biquad_cascade_df1_q31.c:458:5
	b	.LBB9_2
.LBB9_4:                                @   in Loop: Header=BB9_1 Depth=1
	.loc	14 488 17                       @ ../Middlewares/CMSIS/DSP/Src/FilteringFunctions/arm_biquad_cascade_df1_q31.c:488:17
	ldr	r0, [sp, #32]
	.loc	14 488 12 is_stmt 0             @ ../Middlewares/CMSIS/DSP/Src/FilteringFunctions/arm_biquad_cascade_df1_q31.c:488:12
	ldr	r1, [sp, #68]
	adds	r2, r1, #4
	str	r2, [sp, #68]
	.loc	14 488 15                       @ ../Middlewares/CMSIS/DSP/Src/FilteringFunctions/arm_biquad_cascade_df1_q31.c:488:15
	str	r0, [r1]
	.loc	14 489 17 is_stmt 1             @ ../Middlewares/CMSIS/DSP/Src/FilteringFunctions/arm_biquad_cascade_df1_q31.c:489:17
	ldr	r0, [sp, #28]
	.loc	14 489 12 is_stmt 0             @ ../Middlewares/CMSIS/DSP/Src/FilteringFunctions/arm_biquad_cascade_df1_q31.c:489:12
	ldr	r1, [sp, #68]
	adds	r2, r1, #4
	str	r2, [sp, #68]
	.loc	14 489 15                       @ ../Middlewares/CMSIS/DSP/Src/FilteringFunctions/arm_biquad_cascade_df1_q31.c:489:15
	str	r0, [r1]
	.loc	14 490 17 is_stmt 1             @ ../Middlewares/CMSIS/DSP/Src/FilteringFunctions/arm_biquad_cascade_df1_q31.c:490:17
	ldr	r0, [sp, #24]
	.loc	14 490 12 is_stmt 0             @ ../Middlewares/CMSIS/DSP/Src/FilteringFunctions/arm_biquad_cascade_df1_q31.c:490:12
	ldr	r1, [sp, #68]
	adds	r2, r1, #4
	str	r2, [sp, #68]
	.loc	14 490 15                       @ ../Middlewares/CMSIS/DSP/Src/FilteringFunctions/arm_biquad_cascade_df1_q31.c:490:15
	str	r0, [r1]
	.loc	14 491 17 is_stmt 1             @ ../Middlewares/CMSIS/DSP/Src/FilteringFunctions/arm_biquad_cascade_df1_q31.c:491:17
	ldr	r0, [sp, #20]
	.loc	14 491 12 is_stmt 0             @ ../Middlewares/CMSIS/DSP/Src/FilteringFunctions/arm_biquad_cascade_df1_q31.c:491:12
	ldr	r1, [sp, #68]
	adds	r2, r1, #4
	str	r2, [sp, #68]
	.loc	14 491 15                       @ ../Middlewares/CMSIS/DSP/Src/FilteringFunctions/arm_biquad_cascade_df1_q31.c:491:15
	str	r0, [r1]
	.loc	14 495 11 is_stmt 1             @ ../Middlewares/CMSIS/DSP/Src/FilteringFunctions/arm_biquad_cascade_df1_q31.c:495:11
	ldr	r0, [sp, #84]
	.loc	14 495 9 is_stmt 0              @ ../Middlewares/CMSIS/DSP/Src/FilteringFunctions/arm_biquad_cascade_df1_q31.c:495:9
	str	r0, [sp, #76]
	.loc	14 498 12 is_stmt 1             @ ../Middlewares/CMSIS/DSP/Src/FilteringFunctions/arm_biquad_cascade_df1_q31.c:498:12
	ldr	r0, [sp, #84]
	.loc	14 498 10 is_stmt 0             @ ../Middlewares/CMSIS/DSP/Src/FilteringFunctions/arm_biquad_cascade_df1_q31.c:498:10
	str	r0, [sp, #72]
	.loc	14 501 10 is_stmt 1             @ ../Middlewares/CMSIS/DSP/Src/FilteringFunctions/arm_biquad_cascade_df1_q31.c:501:10
	ldr	r0, [sp]
	subs	r0, #1
	str	r0, [sp]
	.loc	14 503 3                        @ ../Middlewares/CMSIS/DSP/Src/FilteringFunctions/arm_biquad_cascade_df1_q31.c:503:3
	b	.LBB9_5
.Ltmp90:
.LBB9_5:                                @   in Loop: Header=BB9_1 Depth=1
	.loc	14 503 12 is_stmt 0             @ ../Middlewares/CMSIS/DSP/Src/FilteringFunctions/arm_biquad_cascade_df1_q31.c:503:12
	ldr	r0, [sp]
.Ltmp91:
	.loc	14 503 3                        @ ../Middlewares/CMSIS/DSP/Src/FilteringFunctions/arm_biquad_cascade_df1_q31.c:503:3
	cmp	r0, #0
	bne.w	.LBB9_1
	b	.LBB9_6
.Ltmp92:
.LBB9_6:
	.loc	14 505 1 is_stmt 1              @ ../Middlewares/CMSIS/DSP/Src/FilteringFunctions/arm_biquad_cascade_df1_q31.c:505:1
	add	sp, #96
	bx	lr
.Ltmp93:
.Lfunc_end9:
	.size	arm_biquad_cascade_df1_q31, .Lfunc_end9-arm_biquad_cascade_df1_q31
	.cfi_endproc
	.cantunwind
	.fnend
                                        @ -- End function
	.section	.text.arm_biquad_cascade_df2T_f32,"ax",%progbits
	.hidden	arm_biquad_cascade_df2T_f32     @ -- Begin function arm_biquad_cascade_df2T_f32
	.globl	arm_biquad_cascade_df2T_f32
	.p2align	2
	.type	arm_biquad_cascade_df2T_f32,%function
	.code	16                              @ @arm_biquad_cascade_df2T_f32
	.thumb_func
arm_biquad_cascade_df2T_f32:
.Lfunc_begin10:
	.file	15 "D:\\horizon\\Horizon_Infantry (2)\\MDK-ARM" "../Middlewares/CMSIS/DSP/Src/FilteringFunctions/arm_biquad_cascade_df2T_f32.c"
	.loc	15 352 0                        @ ../Middlewares/CMSIS/DSP/Src/FilteringFunctions/arm_biquad_cascade_df2T_f32.c:352:0
	.fnstart
	.cfi_startproc
@ %bb.0:
	.pad	#76
	sub	sp, #76
	.cfi_def_cfa_offset 76
	str	r0, [sp, #72]
	str	r1, [sp, #68]
	str	r2, [sp, #64]
	str	r3, [sp, #60]
.Ltmp94:
	.loc	15 353 26 prologue_end          @ ../Middlewares/CMSIS/DSP/Src/FilteringFunctions/arm_biquad_cascade_df2T_f32.c:353:26
	ldr	r0, [sp, #68]
	.loc	15 353 20 is_stmt 0             @ ../Middlewares/CMSIS/DSP/Src/FilteringFunctions/arm_biquad_cascade_df2T_f32.c:353:20
	str	r0, [sp, #56]
	.loc	15 354 27 is_stmt 1             @ ../Middlewares/CMSIS/DSP/Src/FilteringFunctions/arm_biquad_cascade_df2T_f32.c:354:27
	ldr	r0, [sp, #64]
	.loc	15 354 20 is_stmt 0             @ ../Middlewares/CMSIS/DSP/Src/FilteringFunctions/arm_biquad_cascade_df2T_f32.c:354:20
	str	r0, [sp, #52]
	.loc	15 355 29 is_stmt 1             @ ../Middlewares/CMSIS/DSP/Src/FilteringFunctions/arm_biquad_cascade_df2T_f32.c:355:29
	ldr	r0, [sp, #72]
	.loc	15 355 32 is_stmt 0             @ ../Middlewares/CMSIS/DSP/Src/FilteringFunctions/arm_biquad_cascade_df2T_f32.c:355:32
	ldr	r0, [r0, #4]
	.loc	15 355 20                       @ ../Middlewares/CMSIS/DSP/Src/FilteringFunctions/arm_biquad_cascade_df2T_f32.c:355:20
	str	r0, [sp, #48]
	.loc	15 356 30 is_stmt 1             @ ../Middlewares/CMSIS/DSP/Src/FilteringFunctions/arm_biquad_cascade_df2T_f32.c:356:30
	ldr	r0, [sp, #72]
	.loc	15 356 33 is_stmt 0             @ ../Middlewares/CMSIS/DSP/Src/FilteringFunctions/arm_biquad_cascade_df2T_f32.c:356:33
	ldr	r0, [r0, #8]
	.loc	15 356 20                       @ ../Middlewares/CMSIS/DSP/Src/FilteringFunctions/arm_biquad_cascade_df2T_f32.c:356:20
	str	r0, [sp, #44]
	.loc	15 361 34 is_stmt 1             @ ../Middlewares/CMSIS/DSP/Src/FilteringFunctions/arm_biquad_cascade_df2T_f32.c:361:34
	ldr	r0, [sp, #72]
	.loc	15 361 37 is_stmt 0             @ ../Middlewares/CMSIS/DSP/Src/FilteringFunctions/arm_biquad_cascade_df2T_f32.c:361:37
	ldrb	r0, [r0]
	.loc	15 361 26                       @ ../Middlewares/CMSIS/DSP/Src/FilteringFunctions/arm_biquad_cascade_df2T_f32.c:361:26
	str	r0, [sp]
	.loc	15 363 3 is_stmt 1              @ ../Middlewares/CMSIS/DSP/Src/FilteringFunctions/arm_biquad_cascade_df2T_f32.c:363:3
	b	.LBB10_1
.LBB10_1:                               @ =>This Loop Header: Depth=1
                                        @     Child Loop BB10_2 Depth 2
.Ltmp95:
	.loc	15 366 11                       @ ../Middlewares/CMSIS/DSP/Src/FilteringFunctions/arm_biquad_cascade_df2T_f32.c:366:11
	ldr	r0, [sp, #44]
	ldr	r0, [r0]
	.loc	15 366 9 is_stmt 0              @ ../Middlewares/CMSIS/DSP/Src/FilteringFunctions/arm_biquad_cascade_df2T_f32.c:366:9
	str	r0, [sp, #36]
	.loc	15 367 11 is_stmt 1             @ ../Middlewares/CMSIS/DSP/Src/FilteringFunctions/arm_biquad_cascade_df2T_f32.c:367:11
	ldr	r0, [sp, #44]
	ldr	r0, [r0, #4]
	.loc	15 367 9 is_stmt 0              @ ../Middlewares/CMSIS/DSP/Src/FilteringFunctions/arm_biquad_cascade_df2T_f32.c:367:9
	str	r0, [sp, #32]
	.loc	15 368 11 is_stmt 1             @ ../Middlewares/CMSIS/DSP/Src/FilteringFunctions/arm_biquad_cascade_df2T_f32.c:368:11
	ldr	r0, [sp, #44]
	ldr	r0, [r0, #8]
	.loc	15 368 9 is_stmt 0              @ ../Middlewares/CMSIS/DSP/Src/FilteringFunctions/arm_biquad_cascade_df2T_f32.c:368:9
	str	r0, [sp, #28]
	.loc	15 369 11 is_stmt 1             @ ../Middlewares/CMSIS/DSP/Src/FilteringFunctions/arm_biquad_cascade_df2T_f32.c:369:11
	ldr	r0, [sp, #44]
	ldr	r0, [r0, #12]
	.loc	15 369 9 is_stmt 0              @ ../Middlewares/CMSIS/DSP/Src/FilteringFunctions/arm_biquad_cascade_df2T_f32.c:369:9
	str	r0, [sp, #24]
	.loc	15 370 11 is_stmt 1             @ ../Middlewares/CMSIS/DSP/Src/FilteringFunctions/arm_biquad_cascade_df2T_f32.c:370:11
	ldr	r0, [sp, #44]
	ldr	r0, [r0, #16]
	.loc	15 370 9 is_stmt 0              @ ../Middlewares/CMSIS/DSP/Src/FilteringFunctions/arm_biquad_cascade_df2T_f32.c:370:9
	str	r0, [sp, #20]
	.loc	15 373 11 is_stmt 1             @ ../Middlewares/CMSIS/DSP/Src/FilteringFunctions/arm_biquad_cascade_df2T_f32.c:373:11
	ldr	r0, [sp, #48]
	ldr	r0, [r0]
	.loc	15 373 9 is_stmt 0              @ ../Middlewares/CMSIS/DSP/Src/FilteringFunctions/arm_biquad_cascade_df2T_f32.c:373:9
	str	r0, [sp, #12]
	.loc	15 374 11 is_stmt 1             @ ../Middlewares/CMSIS/DSP/Src/FilteringFunctions/arm_biquad_cascade_df2T_f32.c:374:11
	ldr	r0, [sp, #48]
	ldr	r0, [r0, #4]
	.loc	15 374 9 is_stmt 0              @ ../Middlewares/CMSIS/DSP/Src/FilteringFunctions/arm_biquad_cascade_df2T_f32.c:374:9
	str	r0, [sp, #8]
	.loc	15 376 14 is_stmt 1             @ ../Middlewares/CMSIS/DSP/Src/FilteringFunctions/arm_biquad_cascade_df2T_f32.c:376:14
	ldr	r0, [sp, #44]
	adds	r0, #20
	str	r0, [sp, #44]
	.loc	15 607 16                       @ ../Middlewares/CMSIS/DSP/Src/FilteringFunctions/arm_biquad_cascade_df2T_f32.c:607:16
	ldr	r0, [sp, #60]
	.loc	15 607 14 is_stmt 0             @ ../Middlewares/CMSIS/DSP/Src/FilteringFunctions/arm_biquad_cascade_df2T_f32.c:607:14
	str	r0, [sp, #4]
	.loc	15 611 7 is_stmt 1              @ ../Middlewares/CMSIS/DSP/Src/FilteringFunctions/arm_biquad_cascade_df2T_f32.c:611:7
	b	.LBB10_2
.LBB10_2:                               @   Parent Loop BB10_1 Depth=1
                                        @ =>  This Inner Loop Header: Depth=2
	.loc	15 611 14 is_stmt 0             @ ../Middlewares/CMSIS/DSP/Src/FilteringFunctions/arm_biquad_cascade_df2T_f32.c:611:14
	ldr	r0, [sp, #4]
	.loc	15 611 7                        @ ../Middlewares/CMSIS/DSP/Src/FilteringFunctions/arm_biquad_cascade_df2T_f32.c:611:7
	cmp	r0, #0
	beq	.LBB10_4
	b	.LBB10_3
.LBB10_3:                               @   in Loop: Header=BB10_2 Depth=2
.Ltmp96:
	.loc	15 612 19 is_stmt 1             @ ../Middlewares/CMSIS/DSP/Src/FilteringFunctions/arm_biquad_cascade_df2T_f32.c:612:19
	ldr	r0, [sp, #56]
	adds	r1, r0, #4
	str	r1, [sp, #56]
	.loc	15 612 15 is_stmt 0             @ ../Middlewares/CMSIS/DSP/Src/FilteringFunctions/arm_biquad_cascade_df2T_f32.c:612:15
	ldr	r0, [r0]
	.loc	15 612 13                       @ ../Middlewares/CMSIS/DSP/Src/FilteringFunctions/arm_biquad_cascade_df2T_f32.c:612:13
	str	r0, [sp, #16]
	.loc	15 614 16 is_stmt 1             @ ../Middlewares/CMSIS/DSP/Src/FilteringFunctions/arm_biquad_cascade_df2T_f32.c:614:16
	vldr	s0, [sp, #36]
	.loc	15 614 21 is_stmt 0             @ ../Middlewares/CMSIS/DSP/Src/FilteringFunctions/arm_biquad_cascade_df2T_f32.c:614:21
	vldr	s4, [sp, #16]
	.loc	15 614 27                       @ ../Middlewares/CMSIS/DSP/Src/FilteringFunctions/arm_biquad_cascade_df2T_f32.c:614:27
	vldr	s2, [sp, #12]
	.loc	15 614 25                       @ ../Middlewares/CMSIS/DSP/Src/FilteringFunctions/arm_biquad_cascade_df2T_f32.c:614:25
	vmul.f32	s0, s0, s4
	vadd.f32	s0, s0, s2
	.loc	15 614 14                       @ ../Middlewares/CMSIS/DSP/Src/FilteringFunctions/arm_biquad_cascade_df2T_f32.c:614:14
	vstr	s0, [sp, #40]
	.loc	15 616 14 is_stmt 1             @ ../Middlewares/CMSIS/DSP/Src/FilteringFunctions/arm_biquad_cascade_df2T_f32.c:616:14
	vldr	s0, [sp, #32]
	.loc	15 616 19 is_stmt 0             @ ../Middlewares/CMSIS/DSP/Src/FilteringFunctions/arm_biquad_cascade_df2T_f32.c:616:19
	vldr	s4, [sp, #16]
	.loc	15 616 25                       @ ../Middlewares/CMSIS/DSP/Src/FilteringFunctions/arm_biquad_cascade_df2T_f32.c:616:25
	vldr	s2, [sp, #8]
	.loc	15 616 23                       @ ../Middlewares/CMSIS/DSP/Src/FilteringFunctions/arm_biquad_cascade_df2T_f32.c:616:23
	vmul.f32	s0, s0, s4
	vadd.f32	s0, s0, s2
	.loc	15 616 12                       @ ../Middlewares/CMSIS/DSP/Src/FilteringFunctions/arm_biquad_cascade_df2T_f32.c:616:12
	vstr	s0, [sp, #12]
	.loc	15 617 15 is_stmt 1             @ ../Middlewares/CMSIS/DSP/Src/FilteringFunctions/arm_biquad_cascade_df2T_f32.c:617:15
	vldr	s0, [sp, #24]
	.loc	15 617 20 is_stmt 0             @ ../Middlewares/CMSIS/DSP/Src/FilteringFunctions/arm_biquad_cascade_df2T_f32.c:617:20
	vldr	s4, [sp, #40]
	.loc	15 617 12                       @ ../Middlewares/CMSIS/DSP/Src/FilteringFunctions/arm_biquad_cascade_df2T_f32.c:617:12
	vldr	s2, [sp, #12]
	vmul.f32	s0, s0, s4
	vadd.f32	s0, s0, s2
	vstr	s0, [sp, #12]
	.loc	15 619 14 is_stmt 1             @ ../Middlewares/CMSIS/DSP/Src/FilteringFunctions/arm_biquad_cascade_df2T_f32.c:619:14
	vldr	s0, [sp, #28]
	.loc	15 619 19 is_stmt 0             @ ../Middlewares/CMSIS/DSP/Src/FilteringFunctions/arm_biquad_cascade_df2T_f32.c:619:19
	vldr	s2, [sp, #16]
	.loc	15 619 17                       @ ../Middlewares/CMSIS/DSP/Src/FilteringFunctions/arm_biquad_cascade_df2T_f32.c:619:17
	vmul.f32	s0, s0, s2
	.loc	15 619 12                       @ ../Middlewares/CMSIS/DSP/Src/FilteringFunctions/arm_biquad_cascade_df2T_f32.c:619:12
	vstr	s0, [sp, #8]
	.loc	15 620 15 is_stmt 1             @ ../Middlewares/CMSIS/DSP/Src/FilteringFunctions/arm_biquad_cascade_df2T_f32.c:620:15
	vldr	s0, [sp, #20]
	.loc	15 620 20 is_stmt 0             @ ../Middlewares/CMSIS/DSP/Src/FilteringFunctions/arm_biquad_cascade_df2T_f32.c:620:20
	vldr	s4, [sp, #40]
	.loc	15 620 12                       @ ../Middlewares/CMSIS/DSP/Src/FilteringFunctions/arm_biquad_cascade_df2T_f32.c:620:12
	vldr	s2, [sp, #8]
	vmul.f32	s0, s0, s4
	vadd.f32	s0, s0, s2
	vstr	s0, [sp, #8]
	.loc	15 622 19 is_stmt 1             @ ../Middlewares/CMSIS/DSP/Src/FilteringFunctions/arm_biquad_cascade_df2T_f32.c:622:19
	ldr	r0, [sp, #40]
	.loc	15 622 14 is_stmt 0             @ ../Middlewares/CMSIS/DSP/Src/FilteringFunctions/arm_biquad_cascade_df2T_f32.c:622:14
	ldr	r1, [sp, #52]
	adds	r2, r1, #4
	str	r2, [sp, #52]
	.loc	15 622 17                       @ ../Middlewares/CMSIS/DSP/Src/FilteringFunctions/arm_biquad_cascade_df2T_f32.c:622:17
	str	r0, [r1]
	.loc	15 625 15 is_stmt 1             @ ../Middlewares/CMSIS/DSP/Src/FilteringFunctions/arm_biquad_cascade_df2T_f32.c:625:15
	ldr	r0, [sp, #4]
	subs	r0, #1
	str	r0, [sp, #4]
.Ltmp97:
	.loc	15 611 7                        @ ../Middlewares/CMSIS/DSP/Src/FilteringFunctions/arm_biquad_cascade_df2T_f32.c:611:7
	b	.LBB10_2
.LBB10_4:                               @   in Loop: Header=BB10_1 Depth=1
	.loc	15 629 19                       @ ../Middlewares/CMSIS/DSP/Src/FilteringFunctions/arm_biquad_cascade_df2T_f32.c:629:19
	ldr	r0, [sp, #12]
	.loc	15 629 7 is_stmt 0              @ ../Middlewares/CMSIS/DSP/Src/FilteringFunctions/arm_biquad_cascade_df2T_f32.c:629:7
	ldr	r1, [sp, #48]
	.loc	15 629 17                       @ ../Middlewares/CMSIS/DSP/Src/FilteringFunctions/arm_biquad_cascade_df2T_f32.c:629:17
	str	r0, [r1]
	.loc	15 630 19 is_stmt 1             @ ../Middlewares/CMSIS/DSP/Src/FilteringFunctions/arm_biquad_cascade_df2T_f32.c:630:19
	ldr	r0, [sp, #8]
	.loc	15 630 7 is_stmt 0              @ ../Middlewares/CMSIS/DSP/Src/FilteringFunctions/arm_biquad_cascade_df2T_f32.c:630:7
	ldr	r1, [sp, #48]
	.loc	15 630 17                       @ ../Middlewares/CMSIS/DSP/Src/FilteringFunctions/arm_biquad_cascade_df2T_f32.c:630:17
	str	r0, [r1, #4]
	.loc	15 632 14 is_stmt 1             @ ../Middlewares/CMSIS/DSP/Src/FilteringFunctions/arm_biquad_cascade_df2T_f32.c:632:14
	ldr	r0, [sp, #48]
	adds	r0, #8
	str	r0, [sp, #48]
	.loc	15 635 13                       @ ../Middlewares/CMSIS/DSP/Src/FilteringFunctions/arm_biquad_cascade_df2T_f32.c:635:13
	ldr	r0, [sp, #64]
	.loc	15 635 11 is_stmt 0             @ ../Middlewares/CMSIS/DSP/Src/FilteringFunctions/arm_biquad_cascade_df2T_f32.c:635:11
	str	r0, [sp, #56]
	.loc	15 638 14 is_stmt 1             @ ../Middlewares/CMSIS/DSP/Src/FilteringFunctions/arm_biquad_cascade_df2T_f32.c:638:14
	ldr	r0, [sp, #64]
	.loc	15 638 12 is_stmt 0             @ ../Middlewares/CMSIS/DSP/Src/FilteringFunctions/arm_biquad_cascade_df2T_f32.c:638:12
	str	r0, [sp, #52]
	.loc	15 641 12 is_stmt 1             @ ../Middlewares/CMSIS/DSP/Src/FilteringFunctions/arm_biquad_cascade_df2T_f32.c:641:12
	ldr	r0, [sp]
	subs	r0, #1
	str	r0, [sp]
	.loc	15 643 4                        @ ../Middlewares/CMSIS/DSP/Src/FilteringFunctions/arm_biquad_cascade_df2T_f32.c:643:4
	b	.LBB10_5
.Ltmp98:
.LBB10_5:                               @   in Loop: Header=BB10_1 Depth=1
	.loc	15 643 13 is_stmt 0             @ ../Middlewares/CMSIS/DSP/Src/FilteringFunctions/arm_biquad_cascade_df2T_f32.c:643:13
	ldr	r0, [sp]
.Ltmp99:
	.loc	15 643 4                        @ ../Middlewares/CMSIS/DSP/Src/FilteringFunctions/arm_biquad_cascade_df2T_f32.c:643:4
	cmp	r0, #0
	bne	.LBB10_1
	b	.LBB10_6
.Ltmp100:
.LBB10_6:
	.loc	15 645 1 is_stmt 1              @ ../Middlewares/CMSIS/DSP/Src/FilteringFunctions/arm_biquad_cascade_df2T_f32.c:645:1
	add	sp, #76
	bx	lr
.Ltmp101:
.Lfunc_end10:
	.size	arm_biquad_cascade_df2T_f32, .Lfunc_end10-arm_biquad_cascade_df2T_f32
	.cfi_endproc
	.cantunwind
	.fnend
                                        @ -- End function
	.section	.text.arm_biquad_cascade_df2T_f64,"ax",%progbits
	.hidden	arm_biquad_cascade_df2T_f64     @ -- Begin function arm_biquad_cascade_df2T_f64
	.globl	arm_biquad_cascade_df2T_f64
	.p2align	2
	.type	arm_biquad_cascade_df2T_f64,%function
	.code	16                              @ @arm_biquad_cascade_df2T_f64
	.thumb_func
arm_biquad_cascade_df2T_f64:
.Lfunc_begin11:
	.file	16 "D:\\horizon\\Horizon_Infantry (2)\\MDK-ARM" "../Middlewares/CMSIS/DSP/Src/FilteringFunctions/arm_biquad_cascade_df2T_f64.c"
	.loc	16 308 0                        @ ../Middlewares/CMSIS/DSP/Src/FilteringFunctions/arm_biquad_cascade_df2T_f64.c:308:0
	.fnstart
	.cfi_startproc
@ %bb.0:
	.save	{r7, lr}
	push	{r7, lr}
	.cfi_def_cfa_offset 8
	.cfi_offset lr, -4
	.cfi_offset r7, -8
	.pad	#144
	sub	sp, #144
	.cfi_def_cfa_offset 152
	str	r0, [sp, #140]
	str	r1, [sp, #136]
	str	r2, [sp, #132]
	str	r3, [sp, #128]
.Ltmp102:
	.loc	16 310 28 prologue_end          @ ../Middlewares/CMSIS/DSP/Src/FilteringFunctions/arm_biquad_cascade_df2T_f64.c:310:28
	ldr	r0, [sp, #136]
	.loc	16 310 22 is_stmt 0             @ ../Middlewares/CMSIS/DSP/Src/FilteringFunctions/arm_biquad_cascade_df2T_f64.c:310:22
	str	r0, [sp, #124]
	.loc	16 311 23 is_stmt 1             @ ../Middlewares/CMSIS/DSP/Src/FilteringFunctions/arm_biquad_cascade_df2T_f64.c:311:23
	ldr	r0, [sp, #132]
	.loc	16 311 16 is_stmt 0             @ ../Middlewares/CMSIS/DSP/Src/FilteringFunctions/arm_biquad_cascade_df2T_f64.c:311:16
	str	r0, [sp, #120]
	.loc	16 312 25 is_stmt 1             @ ../Middlewares/CMSIS/DSP/Src/FilteringFunctions/arm_biquad_cascade_df2T_f64.c:312:25
	ldr	r0, [sp, #140]
	.loc	16 312 28 is_stmt 0             @ ../Middlewares/CMSIS/DSP/Src/FilteringFunctions/arm_biquad_cascade_df2T_f64.c:312:28
	ldr	r0, [r0, #4]
	.loc	16 312 16                       @ ../Middlewares/CMSIS/DSP/Src/FilteringFunctions/arm_biquad_cascade_df2T_f64.c:312:16
	str	r0, [sp, #116]
	.loc	16 313 32 is_stmt 1             @ ../Middlewares/CMSIS/DSP/Src/FilteringFunctions/arm_biquad_cascade_df2T_f64.c:313:32
	ldr	r0, [sp, #140]
	.loc	16 313 35 is_stmt 0             @ ../Middlewares/CMSIS/DSP/Src/FilteringFunctions/arm_biquad_cascade_df2T_f64.c:313:35
	ldr	r0, [r0, #8]
	.loc	16 313 22                       @ ../Middlewares/CMSIS/DSP/Src/FilteringFunctions/arm_biquad_cascade_df2T_f64.c:313:22
	str	r0, [sp, #112]
	.loc	16 318 30 is_stmt 1             @ ../Middlewares/CMSIS/DSP/Src/FilteringFunctions/arm_biquad_cascade_df2T_f64.c:318:30
	ldr	r0, [sp, #140]
	.loc	16 318 33 is_stmt 0             @ ../Middlewares/CMSIS/DSP/Src/FilteringFunctions/arm_biquad_cascade_df2T_f64.c:318:33
	ldrb	r0, [r0]
	.loc	16 318 22                       @ ../Middlewares/CMSIS/DSP/Src/FilteringFunctions/arm_biquad_cascade_df2T_f64.c:318:22
	str	r0, [sp, #32]
	.loc	16 321 5 is_stmt 1              @ ../Middlewares/CMSIS/DSP/Src/FilteringFunctions/arm_biquad_cascade_df2T_f64.c:321:5
	b	.LBB11_1
.LBB11_1:                               @ =>This Loop Header: Depth=1
                                        @     Child Loop BB11_2 Depth 2
.Ltmp103:
	.loc	16 324 14                       @ ../Middlewares/CMSIS/DSP/Src/FilteringFunctions/arm_biquad_cascade_df2T_f64.c:324:14
	ldr	r0, [sp, #112]
	vldr	d0, [r0]
	.loc	16 324 12 is_stmt 0             @ ../Middlewares/CMSIS/DSP/Src/FilteringFunctions/arm_biquad_cascade_df2T_f64.c:324:12
	vstr	d0, [sp, #96]
	.loc	16 325 14 is_stmt 1             @ ../Middlewares/CMSIS/DSP/Src/FilteringFunctions/arm_biquad_cascade_df2T_f64.c:325:14
	ldr	r0, [sp, #112]
	vldr	d0, [r0, #8]
	.loc	16 325 12 is_stmt 0             @ ../Middlewares/CMSIS/DSP/Src/FilteringFunctions/arm_biquad_cascade_df2T_f64.c:325:12
	vstr	d0, [sp, #88]
	.loc	16 326 14 is_stmt 1             @ ../Middlewares/CMSIS/DSP/Src/FilteringFunctions/arm_biquad_cascade_df2T_f64.c:326:14
	ldr	r0, [sp, #112]
	vldr	d0, [r0, #16]
	.loc	16 326 12 is_stmt 0             @ ../Middlewares/CMSIS/DSP/Src/FilteringFunctions/arm_biquad_cascade_df2T_f64.c:326:12
	vstr	d0, [sp, #80]
	.loc	16 327 14 is_stmt 1             @ ../Middlewares/CMSIS/DSP/Src/FilteringFunctions/arm_biquad_cascade_df2T_f64.c:327:14
	ldr	r0, [sp, #112]
	vldr	d0, [r0, #24]
	.loc	16 327 12 is_stmt 0             @ ../Middlewares/CMSIS/DSP/Src/FilteringFunctions/arm_biquad_cascade_df2T_f64.c:327:12
	vstr	d0, [sp, #72]
	.loc	16 328 14 is_stmt 1             @ ../Middlewares/CMSIS/DSP/Src/FilteringFunctions/arm_biquad_cascade_df2T_f64.c:328:14
	ldr	r0, [sp, #112]
	vldr	d0, [r0, #32]
	.loc	16 328 12 is_stmt 0             @ ../Middlewares/CMSIS/DSP/Src/FilteringFunctions/arm_biquad_cascade_df2T_f64.c:328:12
	vstr	d0, [sp, #64]
	.loc	16 331 14 is_stmt 1             @ ../Middlewares/CMSIS/DSP/Src/FilteringFunctions/arm_biquad_cascade_df2T_f64.c:331:14
	ldr	r0, [sp, #116]
	vldr	d0, [r0]
	.loc	16 331 12 is_stmt 0             @ ../Middlewares/CMSIS/DSP/Src/FilteringFunctions/arm_biquad_cascade_df2T_f64.c:331:12
	vstr	d0, [sp, #48]
	.loc	16 332 14 is_stmt 1             @ ../Middlewares/CMSIS/DSP/Src/FilteringFunctions/arm_biquad_cascade_df2T_f64.c:332:14
	ldr	r0, [sp, #116]
	vldr	d0, [r0, #8]
	.loc	16 332 12 is_stmt 0             @ ../Middlewares/CMSIS/DSP/Src/FilteringFunctions/arm_biquad_cascade_df2T_f64.c:332:12
	vstr	d0, [sp, #40]
	.loc	16 334 17 is_stmt 1             @ ../Middlewares/CMSIS/DSP/Src/FilteringFunctions/arm_biquad_cascade_df2T_f64.c:334:17
	ldr	r0, [sp, #112]
	adds	r0, #40
	str	r0, [sp, #112]
	.loc	16 566 18                       @ ../Middlewares/CMSIS/DSP/Src/FilteringFunctions/arm_biquad_cascade_df2T_f64.c:566:18
	ldr	r0, [sp, #128]
	.loc	16 566 16 is_stmt 0             @ ../Middlewares/CMSIS/DSP/Src/FilteringFunctions/arm_biquad_cascade_df2T_f64.c:566:16
	str	r0, [sp, #36]
	.loc	16 570 9 is_stmt 1              @ ../Middlewares/CMSIS/DSP/Src/FilteringFunctions/arm_biquad_cascade_df2T_f64.c:570:9
	b	.LBB11_2
.LBB11_2:                               @   Parent Loop BB11_1 Depth=1
                                        @ =>  This Inner Loop Header: Depth=2
	.loc	16 570 16 is_stmt 0             @ ../Middlewares/CMSIS/DSP/Src/FilteringFunctions/arm_biquad_cascade_df2T_f64.c:570:16
	ldr	r0, [sp, #36]
	.loc	16 570 9                        @ ../Middlewares/CMSIS/DSP/Src/FilteringFunctions/arm_biquad_cascade_df2T_f64.c:570:9
	cmp	r0, #0
	beq.w	.LBB11_4
	b	.LBB11_3
.LBB11_3:                               @   in Loop: Header=BB11_2 Depth=2
.Ltmp104:
	.loc	16 571 23 is_stmt 1             @ ../Middlewares/CMSIS/DSP/Src/FilteringFunctions/arm_biquad_cascade_df2T_f64.c:571:23
	ldr	r0, [sp, #124]
	add.w	r1, r0, #8
	str	r1, [sp, #124]
	.loc	16 571 19 is_stmt 0             @ ../Middlewares/CMSIS/DSP/Src/FilteringFunctions/arm_biquad_cascade_df2T_f64.c:571:19
	vldr	d0, [r0]
	.loc	16 571 17                       @ ../Middlewares/CMSIS/DSP/Src/FilteringFunctions/arm_biquad_cascade_df2T_f64.c:571:17
	vstr	d0, [sp, #56]
	.loc	16 573 20 is_stmt 1             @ ../Middlewares/CMSIS/DSP/Src/FilteringFunctions/arm_biquad_cascade_df2T_f64.c:573:20
	vldr	d1, [sp, #96]
	.loc	16 573 25 is_stmt 0             @ ../Middlewares/CMSIS/DSP/Src/FilteringFunctions/arm_biquad_cascade_df2T_f64.c:573:25
	vldr	d0, [sp, #56]
	.loc	16 573 31                       @ ../Middlewares/CMSIS/DSP/Src/FilteringFunctions/arm_biquad_cascade_df2T_f64.c:573:31
	vldr	d2, [sp, #48]
	vstr	d2, [sp]                        @ 8-byte Spill
	.loc	16 573 29                       @ ../Middlewares/CMSIS/DSP/Src/FilteringFunctions/arm_biquad_cascade_df2T_f64.c:573:29
	vmov	r0, r1, d1
	vmov	r2, r3, d0
	bl	__aeabi_dmul
	vldr	d0, [sp]                        @ 8-byte Reload
	vmov	d1, r0, r1
	vmov	r0, r1, d1
	vmov	r2, r3, d0
	bl	__aeabi_dadd
	vmov	d0, r0, r1
	.loc	16 573 18                       @ ../Middlewares/CMSIS/DSP/Src/FilteringFunctions/arm_biquad_cascade_df2T_f64.c:573:18
	vstr	d0, [sp, #104]
	.loc	16 575 18 is_stmt 1             @ ../Middlewares/CMSIS/DSP/Src/FilteringFunctions/arm_biquad_cascade_df2T_f64.c:575:18
	vldr	d1, [sp, #88]
	.loc	16 575 23 is_stmt 0             @ ../Middlewares/CMSIS/DSP/Src/FilteringFunctions/arm_biquad_cascade_df2T_f64.c:575:23
	vldr	d0, [sp, #56]
	.loc	16 575 29                       @ ../Middlewares/CMSIS/DSP/Src/FilteringFunctions/arm_biquad_cascade_df2T_f64.c:575:29
	vldr	d2, [sp, #40]
	vstr	d2, [sp, #8]                    @ 8-byte Spill
	.loc	16 575 27                       @ ../Middlewares/CMSIS/DSP/Src/FilteringFunctions/arm_biquad_cascade_df2T_f64.c:575:27
	vmov	r0, r1, d1
	vmov	r2, r3, d0
	bl	__aeabi_dmul
	vldr	d0, [sp, #8]                    @ 8-byte Reload
	vmov	d1, r0, r1
	vmov	r0, r1, d1
	vmov	r2, r3, d0
	bl	__aeabi_dadd
	vmov	d0, r0, r1
	.loc	16 575 16                       @ ../Middlewares/CMSIS/DSP/Src/FilteringFunctions/arm_biquad_cascade_df2T_f64.c:575:16
	vstr	d0, [sp, #48]
	.loc	16 576 19 is_stmt 1             @ ../Middlewares/CMSIS/DSP/Src/FilteringFunctions/arm_biquad_cascade_df2T_f64.c:576:19
	vldr	d1, [sp, #72]
	.loc	16 576 24 is_stmt 0             @ ../Middlewares/CMSIS/DSP/Src/FilteringFunctions/arm_biquad_cascade_df2T_f64.c:576:24
	vldr	d0, [sp, #104]
	.loc	16 576 16                       @ ../Middlewares/CMSIS/DSP/Src/FilteringFunctions/arm_biquad_cascade_df2T_f64.c:576:16
	vldr	d2, [sp, #48]
	vstr	d2, [sp, #16]                   @ 8-byte Spill
	vmov	r0, r1, d1
	vmov	r2, r3, d0
	bl	__aeabi_dmul
	vldr	d0, [sp, #16]                   @ 8-byte Reload
	vmov	d1, r0, r1
	vmov	r0, r1, d1
	vmov	r2, r3, d0
	bl	__aeabi_dadd
	vmov	d0, r0, r1
	vstr	d0, [sp, #48]
	.loc	16 578 18 is_stmt 1             @ ../Middlewares/CMSIS/DSP/Src/FilteringFunctions/arm_biquad_cascade_df2T_f64.c:578:18
	vldr	d1, [sp, #80]
	.loc	16 578 23 is_stmt 0             @ ../Middlewares/CMSIS/DSP/Src/FilteringFunctions/arm_biquad_cascade_df2T_f64.c:578:23
	vldr	d0, [sp, #56]
	.loc	16 578 21                       @ ../Middlewares/CMSIS/DSP/Src/FilteringFunctions/arm_biquad_cascade_df2T_f64.c:578:21
	vmov	r0, r1, d1
	vmov	r2, r3, d0
	bl	__aeabi_dmul
	vmov	d0, r0, r1
	.loc	16 578 16                       @ ../Middlewares/CMSIS/DSP/Src/FilteringFunctions/arm_biquad_cascade_df2T_f64.c:578:16
	vstr	d0, [sp, #40]
	.loc	16 579 19 is_stmt 1             @ ../Middlewares/CMSIS/DSP/Src/FilteringFunctions/arm_biquad_cascade_df2T_f64.c:579:19
	vldr	d1, [sp, #64]
	.loc	16 579 24 is_stmt 0             @ ../Middlewares/CMSIS/DSP/Src/FilteringFunctions/arm_biquad_cascade_df2T_f64.c:579:24
	vldr	d0, [sp, #104]
	.loc	16 579 16                       @ ../Middlewares/CMSIS/DSP/Src/FilteringFunctions/arm_biquad_cascade_df2T_f64.c:579:16
	vldr	d2, [sp, #40]
	vstr	d2, [sp, #24]                   @ 8-byte Spill
	vmov	r0, r1, d1
	vmov	r2, r3, d0
	bl	__aeabi_dmul
	vldr	d0, [sp, #24]                   @ 8-byte Reload
	vmov	d1, r0, r1
	vmov	r0, r1, d1
	vmov	r2, r3, d0
	bl	__aeabi_dadd
	vmov	d0, r0, r1
	vstr	d0, [sp, #40]
	.loc	16 581 23 is_stmt 1             @ ../Middlewares/CMSIS/DSP/Src/FilteringFunctions/arm_biquad_cascade_df2T_f64.c:581:23
	vldr	d0, [sp, #104]
	.loc	16 581 18 is_stmt 0             @ ../Middlewares/CMSIS/DSP/Src/FilteringFunctions/arm_biquad_cascade_df2T_f64.c:581:18
	ldr	r0, [sp, #120]
	add.w	r1, r0, #8
	str	r1, [sp, #120]
	.loc	16 581 21                       @ ../Middlewares/CMSIS/DSP/Src/FilteringFunctions/arm_biquad_cascade_df2T_f64.c:581:21
	vstr	d0, [r0]
	.loc	16 584 19 is_stmt 1             @ ../Middlewares/CMSIS/DSP/Src/FilteringFunctions/arm_biquad_cascade_df2T_f64.c:584:19
	ldr	r0, [sp, #36]
	subs	r0, #1
	str	r0, [sp, #36]
.Ltmp105:
	.loc	16 570 9                        @ ../Middlewares/CMSIS/DSP/Src/FilteringFunctions/arm_biquad_cascade_df2T_f64.c:570:9
	b	.LBB11_2
.LBB11_4:                               @   in Loop: Header=BB11_1 Depth=1
	.loc	16 588 21                       @ ../Middlewares/CMSIS/DSP/Src/FilteringFunctions/arm_biquad_cascade_df2T_f64.c:588:21
	vldr	d0, [sp, #48]
	.loc	16 588 9 is_stmt 0              @ ../Middlewares/CMSIS/DSP/Src/FilteringFunctions/arm_biquad_cascade_df2T_f64.c:588:9
	ldr	r0, [sp, #116]
	.loc	16 588 19                       @ ../Middlewares/CMSIS/DSP/Src/FilteringFunctions/arm_biquad_cascade_df2T_f64.c:588:19
	vstr	d0, [r0]
	.loc	16 589 21 is_stmt 1             @ ../Middlewares/CMSIS/DSP/Src/FilteringFunctions/arm_biquad_cascade_df2T_f64.c:589:21
	vldr	d0, [sp, #40]
	.loc	16 589 9 is_stmt 0              @ ../Middlewares/CMSIS/DSP/Src/FilteringFunctions/arm_biquad_cascade_df2T_f64.c:589:9
	ldr	r0, [sp, #116]
	.loc	16 589 19                       @ ../Middlewares/CMSIS/DSP/Src/FilteringFunctions/arm_biquad_cascade_df2T_f64.c:589:19
	vstr	d0, [r0, #8]
	.loc	16 591 16 is_stmt 1             @ ../Middlewares/CMSIS/DSP/Src/FilteringFunctions/arm_biquad_cascade_df2T_f64.c:591:16
	ldr	r0, [sp, #116]
	adds	r0, #16
	str	r0, [sp, #116]
	.loc	16 594 15                       @ ../Middlewares/CMSIS/DSP/Src/FilteringFunctions/arm_biquad_cascade_df2T_f64.c:594:15
	ldr	r0, [sp, #132]
	.loc	16 594 13 is_stmt 0             @ ../Middlewares/CMSIS/DSP/Src/FilteringFunctions/arm_biquad_cascade_df2T_f64.c:594:13
	str	r0, [sp, #124]
	.loc	16 597 16 is_stmt 1             @ ../Middlewares/CMSIS/DSP/Src/FilteringFunctions/arm_biquad_cascade_df2T_f64.c:597:16
	ldr	r0, [sp, #132]
	.loc	16 597 14 is_stmt 0             @ ../Middlewares/CMSIS/DSP/Src/FilteringFunctions/arm_biquad_cascade_df2T_f64.c:597:14
	str	r0, [sp, #120]
	.loc	16 600 14 is_stmt 1             @ ../Middlewares/CMSIS/DSP/Src/FilteringFunctions/arm_biquad_cascade_df2T_f64.c:600:14
	ldr	r0, [sp, #32]
	subs	r0, #1
	str	r0, [sp, #32]
	.loc	16 602 5                        @ ../Middlewares/CMSIS/DSP/Src/FilteringFunctions/arm_biquad_cascade_df2T_f64.c:602:5
	b	.LBB11_5
.Ltmp106:
.LBB11_5:                               @   in Loop: Header=BB11_1 Depth=1
	.loc	16 602 14 is_stmt 0             @ ../Middlewares/CMSIS/DSP/Src/FilteringFunctions/arm_biquad_cascade_df2T_f64.c:602:14
	ldr	r0, [sp, #32]
.Ltmp107:
	.loc	16 602 5                        @ ../Middlewares/CMSIS/DSP/Src/FilteringFunctions/arm_biquad_cascade_df2T_f64.c:602:5
	cmp	r0, #0
	bne.w	.LBB11_1
	b	.LBB11_6
.Ltmp108:
.LBB11_6:
	.loc	16 604 1 is_stmt 1              @ ../Middlewares/CMSIS/DSP/Src/FilteringFunctions/arm_biquad_cascade_df2T_f64.c:604:1
	add	sp, #144
	pop	{r7, pc}
.Ltmp109:
.Lfunc_end11:
	.size	arm_biquad_cascade_df2T_f64, .Lfunc_end11-arm_biquad_cascade_df2T_f64
	.cfi_endproc
	.cantunwind
	.fnend
                                        @ -- End function
	.section	.text.arm_biquad_cascade_df2T_init_f32,"ax",%progbits
	.hidden	arm_biquad_cascade_df2T_init_f32 @ -- Begin function arm_biquad_cascade_df2T_init_f32
	.globl	arm_biquad_cascade_df2T_init_f32
	.p2align	2
	.type	arm_biquad_cascade_df2T_init_f32,%function
	.code	16                              @ @arm_biquad_cascade_df2T_init_f32
	.thumb_func
arm_biquad_cascade_df2T_init_f32:
.Lfunc_begin12:
	.file	17 "D:\\horizon\\Horizon_Infantry (2)\\MDK-ARM" "../Middlewares/CMSIS/DSP/Src/FilteringFunctions/arm_biquad_cascade_df2T_init_f32.c"
	.loc	17 198 0                        @ ../Middlewares/CMSIS/DSP/Src/FilteringFunctions/arm_biquad_cascade_df2T_init_f32.c:198:0
	.fnstart
	.cfi_startproc
@ %bb.0:
	.save	{r7, lr}
	push	{r7, lr}
	.cfi_def_cfa_offset 8
	.cfi_offset lr, -4
	.cfi_offset r7, -8
	.pad	#16
	sub	sp, #16
	.cfi_def_cfa_offset 24
                                        @ kill: def $r12 killed $r1
	str	r0, [sp, #12]
	strb.w	r1, [sp, #11]
	str	r2, [sp, #4]
	str	r3, [sp]
.Ltmp110:
	.loc	17 200 18 prologue_end          @ ../Middlewares/CMSIS/DSP/Src/FilteringFunctions/arm_biquad_cascade_df2T_init_f32.c:200:18
	ldrb.w	r0, [sp, #11]
	.loc	17 200 3 is_stmt 0              @ ../Middlewares/CMSIS/DSP/Src/FilteringFunctions/arm_biquad_cascade_df2T_init_f32.c:200:3
	ldr	r1, [sp, #12]
	.loc	17 200 16                       @ ../Middlewares/CMSIS/DSP/Src/FilteringFunctions/arm_biquad_cascade_df2T_init_f32.c:200:16
	strb	r0, [r1]
	.loc	17 203 16 is_stmt 1             @ ../Middlewares/CMSIS/DSP/Src/FilteringFunctions/arm_biquad_cascade_df2T_init_f32.c:203:16
	ldr	r0, [sp, #4]
	.loc	17 203 3 is_stmt 0              @ ../Middlewares/CMSIS/DSP/Src/FilteringFunctions/arm_biquad_cascade_df2T_init_f32.c:203:3
	ldr	r1, [sp, #12]
	.loc	17 203 14                       @ ../Middlewares/CMSIS/DSP/Src/FilteringFunctions/arm_biquad_cascade_df2T_init_f32.c:203:14
	str	r0, [r1, #8]
	.loc	17 206 10 is_stmt 1             @ ../Middlewares/CMSIS/DSP/Src/FilteringFunctions/arm_biquad_cascade_df2T_init_f32.c:206:10
	ldr	r0, [sp]
	.loc	17 206 38 is_stmt 0             @ ../Middlewares/CMSIS/DSP/Src/FilteringFunctions/arm_biquad_cascade_df2T_init_f32.c:206:38
	ldrb.w	r1, [sp, #11]
	.loc	17 206 49                       @ ../Middlewares/CMSIS/DSP/Src/FilteringFunctions/arm_biquad_cascade_df2T_init_f32.c:206:49
	lsls	r1, r1, #3
	.loc	17 206 3                        @ ../Middlewares/CMSIS/DSP/Src/FilteringFunctions/arm_biquad_cascade_df2T_init_f32.c:206:3
	bl	__aeabi_memclr4
	.loc	17 209 15 is_stmt 1             @ ../Middlewares/CMSIS/DSP/Src/FilteringFunctions/arm_biquad_cascade_df2T_init_f32.c:209:15
	ldr	r0, [sp]
	.loc	17 209 3 is_stmt 0              @ ../Middlewares/CMSIS/DSP/Src/FilteringFunctions/arm_biquad_cascade_df2T_init_f32.c:209:3
	ldr	r1, [sp, #12]
	.loc	17 209 13                       @ ../Middlewares/CMSIS/DSP/Src/FilteringFunctions/arm_biquad_cascade_df2T_init_f32.c:209:13
	str	r0, [r1, #4]
	.loc	17 210 1 is_stmt 1              @ ../Middlewares/CMSIS/DSP/Src/FilteringFunctions/arm_biquad_cascade_df2T_init_f32.c:210:1
	add	sp, #16
	pop	{r7, pc}
.Ltmp111:
.Lfunc_end12:
	.size	arm_biquad_cascade_df2T_init_f32, .Lfunc_end12-arm_biquad_cascade_df2T_init_f32
	.cfi_endproc
	.cantunwind
	.fnend
                                        @ -- End function
	.section	.text.arm_biquad_cascade_df2T_init_f64,"ax",%progbits
	.hidden	arm_biquad_cascade_df2T_init_f64 @ -- Begin function arm_biquad_cascade_df2T_init_f64
	.globl	arm_biquad_cascade_df2T_init_f64
	.p2align	2
	.type	arm_biquad_cascade_df2T_init_f64,%function
	.code	16                              @ @arm_biquad_cascade_df2T_init_f64
	.thumb_func
arm_biquad_cascade_df2T_init_f64:
.Lfunc_begin13:
	.file	18 "D:\\horizon\\Horizon_Infantry (2)\\MDK-ARM" "../Middlewares/CMSIS/DSP/Src/FilteringFunctions/arm_biquad_cascade_df2T_init_f64.c"
	.loc	18 70 0                         @ ../Middlewares/CMSIS/DSP/Src/FilteringFunctions/arm_biquad_cascade_df2T_init_f64.c:70:0
	.fnstart
	.cfi_startproc
@ %bb.0:
	.save	{r7, lr}
	push	{r7, lr}
	.cfi_def_cfa_offset 8
	.cfi_offset lr, -4
	.cfi_offset r7, -8
	.pad	#16
	sub	sp, #16
	.cfi_def_cfa_offset 24
                                        @ kill: def $r12 killed $r1
	str	r0, [sp, #12]
	strb.w	r1, [sp, #11]
	str	r2, [sp, #4]
	str	r3, [sp]
.Ltmp112:
	.loc	18 72 20 prologue_end           @ ../Middlewares/CMSIS/DSP/Src/FilteringFunctions/arm_biquad_cascade_df2T_init_f64.c:72:20
	ldrb.w	r0, [sp, #11]
	.loc	18 72 5 is_stmt 0               @ ../Middlewares/CMSIS/DSP/Src/FilteringFunctions/arm_biquad_cascade_df2T_init_f64.c:72:5
	ldr	r1, [sp, #12]
	.loc	18 72 18                        @ ../Middlewares/CMSIS/DSP/Src/FilteringFunctions/arm_biquad_cascade_df2T_init_f64.c:72:18
	strb	r0, [r1]
	.loc	18 75 18 is_stmt 1              @ ../Middlewares/CMSIS/DSP/Src/FilteringFunctions/arm_biquad_cascade_df2T_init_f64.c:75:18
	ldr	r0, [sp, #4]
	.loc	18 75 5 is_stmt 0               @ ../Middlewares/CMSIS/DSP/Src/FilteringFunctions/arm_biquad_cascade_df2T_init_f64.c:75:5
	ldr	r1, [sp, #12]
	.loc	18 75 16                        @ ../Middlewares/CMSIS/DSP/Src/FilteringFunctions/arm_biquad_cascade_df2T_init_f64.c:75:16
	str	r0, [r1, #8]
	.loc	18 78 12 is_stmt 1              @ ../Middlewares/CMSIS/DSP/Src/FilteringFunctions/arm_biquad_cascade_df2T_init_f64.c:78:12
	ldr	r0, [sp]
	.loc	18 78 40 is_stmt 0              @ ../Middlewares/CMSIS/DSP/Src/FilteringFunctions/arm_biquad_cascade_df2T_init_f64.c:78:40
	ldrb.w	r1, [sp, #11]
	.loc	18 78 51                        @ ../Middlewares/CMSIS/DSP/Src/FilteringFunctions/arm_biquad_cascade_df2T_init_f64.c:78:51
	lsls	r1, r1, #4
	.loc	18 78 5                         @ ../Middlewares/CMSIS/DSP/Src/FilteringFunctions/arm_biquad_cascade_df2T_init_f64.c:78:5
	bl	__aeabi_memclr8
	.loc	18 81 17 is_stmt 1              @ ../Middlewares/CMSIS/DSP/Src/FilteringFunctions/arm_biquad_cascade_df2T_init_f64.c:81:17
	ldr	r0, [sp]
	.loc	18 81 5 is_stmt 0               @ ../Middlewares/CMSIS/DSP/Src/FilteringFunctions/arm_biquad_cascade_df2T_init_f64.c:81:5
	ldr	r1, [sp, #12]
	.loc	18 81 15                        @ ../Middlewares/CMSIS/DSP/Src/FilteringFunctions/arm_biquad_cascade_df2T_init_f64.c:81:15
	str	r0, [r1, #4]
	.loc	18 82 1 is_stmt 1               @ ../Middlewares/CMSIS/DSP/Src/FilteringFunctions/arm_biquad_cascade_df2T_init_f64.c:82:1
	add	sp, #16
	pop	{r7, pc}
.Ltmp113:
.Lfunc_end13:
	.size	arm_biquad_cascade_df2T_init_f64, .Lfunc_end13-arm_biquad_cascade_df2T_init_f64
	.cfi_endproc
	.cantunwind
	.fnend
                                        @ -- End function
	.section	.text.arm_biquad_cascade_stereo_df2T_f32,"ax",%progbits
	.hidden	arm_biquad_cascade_stereo_df2T_f32 @ -- Begin function arm_biquad_cascade_stereo_df2T_f32
	.globl	arm_biquad_cascade_stereo_df2T_f32
	.p2align	2
	.type	arm_biquad_cascade_stereo_df2T_f32,%function
	.code	16                              @ @arm_biquad_cascade_stereo_df2T_f32
	.thumb_func
arm_biquad_cascade_stereo_df2T_f32:
.Lfunc_begin14:
	.file	19 "D:\\horizon\\Horizon_Infantry (2)\\MDK-ARM" "../Middlewares/CMSIS/DSP/Src/FilteringFunctions/arm_biquad_cascade_stereo_df2T_f32.c"
	.loc	19 188 0                        @ ../Middlewares/CMSIS/DSP/Src/FilteringFunctions/arm_biquad_cascade_stereo_df2T_f32.c:188:0
	.fnstart
	.cfi_startproc
@ %bb.0:
	.pad	#92
	sub	sp, #92
	.cfi_def_cfa_offset 92
	str	r0, [sp, #88]
	str	r1, [sp, #84]
	str	r2, [sp, #80]
	str	r3, [sp, #76]
.Ltmp114:
	.loc	19 189 26 prologue_end          @ ../Middlewares/CMSIS/DSP/Src/FilteringFunctions/arm_biquad_cascade_stereo_df2T_f32.c:189:26
	ldr	r0, [sp, #84]
	.loc	19 189 20 is_stmt 0             @ ../Middlewares/CMSIS/DSP/Src/FilteringFunctions/arm_biquad_cascade_stereo_df2T_f32.c:189:20
	str	r0, [sp, #72]
	.loc	19 190 27 is_stmt 1             @ ../Middlewares/CMSIS/DSP/Src/FilteringFunctions/arm_biquad_cascade_stereo_df2T_f32.c:190:27
	ldr	r0, [sp, #80]
	.loc	19 190 20 is_stmt 0             @ ../Middlewares/CMSIS/DSP/Src/FilteringFunctions/arm_biquad_cascade_stereo_df2T_f32.c:190:20
	str	r0, [sp, #68]
	.loc	19 191 29 is_stmt 1             @ ../Middlewares/CMSIS/DSP/Src/FilteringFunctions/arm_biquad_cascade_stereo_df2T_f32.c:191:29
	ldr	r0, [sp, #88]
	.loc	19 191 32 is_stmt 0             @ ../Middlewares/CMSIS/DSP/Src/FilteringFunctions/arm_biquad_cascade_stereo_df2T_f32.c:191:32
	ldr	r0, [r0, #4]
	.loc	19 191 20                       @ ../Middlewares/CMSIS/DSP/Src/FilteringFunctions/arm_biquad_cascade_stereo_df2T_f32.c:191:20
	str	r0, [sp, #64]
	.loc	19 192 30 is_stmt 1             @ ../Middlewares/CMSIS/DSP/Src/FilteringFunctions/arm_biquad_cascade_stereo_df2T_f32.c:192:30
	ldr	r0, [sp, #88]
	.loc	19 192 33 is_stmt 0             @ ../Middlewares/CMSIS/DSP/Src/FilteringFunctions/arm_biquad_cascade_stereo_df2T_f32.c:192:33
	ldr	r0, [r0, #8]
	.loc	19 192 20                       @ ../Middlewares/CMSIS/DSP/Src/FilteringFunctions/arm_biquad_cascade_stereo_df2T_f32.c:192:20
	str	r0, [sp, #60]
	.loc	19 197 34 is_stmt 1             @ ../Middlewares/CMSIS/DSP/Src/FilteringFunctions/arm_biquad_cascade_stereo_df2T_f32.c:197:34
	ldr	r0, [sp, #88]
	.loc	19 197 37 is_stmt 0             @ ../Middlewares/CMSIS/DSP/Src/FilteringFunctions/arm_biquad_cascade_stereo_df2T_f32.c:197:37
	ldrb	r0, [r0]
	.loc	19 197 26                       @ ../Middlewares/CMSIS/DSP/Src/FilteringFunctions/arm_biquad_cascade_stereo_df2T_f32.c:197:26
	str	r0, [sp]
	.loc	19 199 5 is_stmt 1              @ ../Middlewares/CMSIS/DSP/Src/FilteringFunctions/arm_biquad_cascade_stereo_df2T_f32.c:199:5
	b	.LBB14_1
.LBB14_1:                               @ =>This Loop Header: Depth=1
                                        @     Child Loop BB14_2 Depth 2
.Ltmp115:
	.loc	19 202 14                       @ ../Middlewares/CMSIS/DSP/Src/FilteringFunctions/arm_biquad_cascade_stereo_df2T_f32.c:202:14
	ldr	r0, [sp, #60]
	ldr	r0, [r0]
	.loc	19 202 12 is_stmt 0             @ ../Middlewares/CMSIS/DSP/Src/FilteringFunctions/arm_biquad_cascade_stereo_df2T_f32.c:202:12
	str	r0, [sp, #48]
	.loc	19 203 14 is_stmt 1             @ ../Middlewares/CMSIS/DSP/Src/FilteringFunctions/arm_biquad_cascade_stereo_df2T_f32.c:203:14
	ldr	r0, [sp, #60]
	ldr	r0, [r0, #4]
	.loc	19 203 12 is_stmt 0             @ ../Middlewares/CMSIS/DSP/Src/FilteringFunctions/arm_biquad_cascade_stereo_df2T_f32.c:203:12
	str	r0, [sp, #44]
	.loc	19 204 14 is_stmt 1             @ ../Middlewares/CMSIS/DSP/Src/FilteringFunctions/arm_biquad_cascade_stereo_df2T_f32.c:204:14
	ldr	r0, [sp, #60]
	ldr	r0, [r0, #8]
	.loc	19 204 12 is_stmt 0             @ ../Middlewares/CMSIS/DSP/Src/FilteringFunctions/arm_biquad_cascade_stereo_df2T_f32.c:204:12
	str	r0, [sp, #40]
	.loc	19 205 14 is_stmt 1             @ ../Middlewares/CMSIS/DSP/Src/FilteringFunctions/arm_biquad_cascade_stereo_df2T_f32.c:205:14
	ldr	r0, [sp, #60]
	ldr	r0, [r0, #12]
	.loc	19 205 12 is_stmt 0             @ ../Middlewares/CMSIS/DSP/Src/FilteringFunctions/arm_biquad_cascade_stereo_df2T_f32.c:205:12
	str	r0, [sp, #36]
	.loc	19 206 14 is_stmt 1             @ ../Middlewares/CMSIS/DSP/Src/FilteringFunctions/arm_biquad_cascade_stereo_df2T_f32.c:206:14
	ldr	r0, [sp, #60]
	ldr	r0, [r0, #16]
	.loc	19 206 12 is_stmt 0             @ ../Middlewares/CMSIS/DSP/Src/FilteringFunctions/arm_biquad_cascade_stereo_df2T_f32.c:206:12
	str	r0, [sp, #32]
	.loc	19 209 15 is_stmt 1             @ ../Middlewares/CMSIS/DSP/Src/FilteringFunctions/arm_biquad_cascade_stereo_df2T_f32.c:209:15
	ldr	r0, [sp, #64]
	ldr	r0, [r0]
	.loc	19 209 13 is_stmt 0             @ ../Middlewares/CMSIS/DSP/Src/FilteringFunctions/arm_biquad_cascade_stereo_df2T_f32.c:209:13
	str	r0, [sp, #20]
	.loc	19 210 15 is_stmt 1             @ ../Middlewares/CMSIS/DSP/Src/FilteringFunctions/arm_biquad_cascade_stereo_df2T_f32.c:210:15
	ldr	r0, [sp, #64]
	ldr	r0, [r0, #4]
	.loc	19 210 13 is_stmt 0             @ ../Middlewares/CMSIS/DSP/Src/FilteringFunctions/arm_biquad_cascade_stereo_df2T_f32.c:210:13
	str	r0, [sp, #16]
	.loc	19 211 15 is_stmt 1             @ ../Middlewares/CMSIS/DSP/Src/FilteringFunctions/arm_biquad_cascade_stereo_df2T_f32.c:211:15
	ldr	r0, [sp, #64]
	ldr	r0, [r0, #8]
	.loc	19 211 13 is_stmt 0             @ ../Middlewares/CMSIS/DSP/Src/FilteringFunctions/arm_biquad_cascade_stereo_df2T_f32.c:211:13
	str	r0, [sp, #12]
	.loc	19 212 15 is_stmt 1             @ ../Middlewares/CMSIS/DSP/Src/FilteringFunctions/arm_biquad_cascade_stereo_df2T_f32.c:212:15
	ldr	r0, [sp, #64]
	ldr	r0, [r0, #12]
	.loc	19 212 13 is_stmt 0             @ ../Middlewares/CMSIS/DSP/Src/FilteringFunctions/arm_biquad_cascade_stereo_df2T_f32.c:212:13
	str	r0, [sp, #8]
	.loc	19 214 17 is_stmt 1             @ ../Middlewares/CMSIS/DSP/Src/FilteringFunctions/arm_biquad_cascade_stereo_df2T_f32.c:214:17
	ldr	r0, [sp, #60]
	adds	r0, #20
	str	r0, [sp, #60]
	.loc	19 364 18                       @ ../Middlewares/CMSIS/DSP/Src/FilteringFunctions/arm_biquad_cascade_stereo_df2T_f32.c:364:18
	ldr	r0, [sp, #76]
	.loc	19 364 16 is_stmt 0             @ ../Middlewares/CMSIS/DSP/Src/FilteringFunctions/arm_biquad_cascade_stereo_df2T_f32.c:364:16
	str	r0, [sp, #4]
	.loc	19 368 9 is_stmt 1              @ ../Middlewares/CMSIS/DSP/Src/FilteringFunctions/arm_biquad_cascade_stereo_df2T_f32.c:368:9
	b	.LBB14_2
.LBB14_2:                               @   Parent Loop BB14_1 Depth=1
                                        @ =>  This Inner Loop Header: Depth=2
	.loc	19 368 16 is_stmt 0             @ ../Middlewares/CMSIS/DSP/Src/FilteringFunctions/arm_biquad_cascade_stereo_df2T_f32.c:368:16
	ldr	r0, [sp, #4]
	.loc	19 368 9                        @ ../Middlewares/CMSIS/DSP/Src/FilteringFunctions/arm_biquad_cascade_stereo_df2T_f32.c:368:9
	cmp	r0, #0
	beq	.LBB14_4
	b	.LBB14_3
.LBB14_3:                               @   in Loop: Header=BB14_2 Depth=2
.Ltmp116:
	.loc	19 370 22 is_stmt 1             @ ../Middlewares/CMSIS/DSP/Src/FilteringFunctions/arm_biquad_cascade_stereo_df2T_f32.c:370:22
	ldr	r0, [sp, #72]
	adds	r1, r0, #4
	str	r1, [sp, #72]
	.loc	19 370 18 is_stmt 0             @ ../Middlewares/CMSIS/DSP/Src/FilteringFunctions/arm_biquad_cascade_stereo_df2T_f32.c:370:18
	ldr	r0, [r0]
	.loc	19 370 16                       @ ../Middlewares/CMSIS/DSP/Src/FilteringFunctions/arm_biquad_cascade_stereo_df2T_f32.c:370:16
	str	r0, [sp, #28]
	.loc	19 371 22 is_stmt 1             @ ../Middlewares/CMSIS/DSP/Src/FilteringFunctions/arm_biquad_cascade_stereo_df2T_f32.c:371:22
	ldr	r0, [sp, #72]
	adds	r1, r0, #4
	str	r1, [sp, #72]
	.loc	19 371 18 is_stmt 0             @ ../Middlewares/CMSIS/DSP/Src/FilteringFunctions/arm_biquad_cascade_stereo_df2T_f32.c:371:18
	ldr	r0, [r0]
	.loc	19 371 16                       @ ../Middlewares/CMSIS/DSP/Src/FilteringFunctions/arm_biquad_cascade_stereo_df2T_f32.c:371:16
	str	r0, [sp, #24]
	.loc	19 374 20 is_stmt 1             @ ../Middlewares/CMSIS/DSP/Src/FilteringFunctions/arm_biquad_cascade_stereo_df2T_f32.c:374:20
	vldr	s0, [sp, #48]
	.loc	19 374 25 is_stmt 0             @ ../Middlewares/CMSIS/DSP/Src/FilteringFunctions/arm_biquad_cascade_stereo_df2T_f32.c:374:25
	vldr	s4, [sp, #28]
	.loc	19 374 33                       @ ../Middlewares/CMSIS/DSP/Src/FilteringFunctions/arm_biquad_cascade_stereo_df2T_f32.c:374:33
	vldr	s2, [sp, #20]
	.loc	19 374 31                       @ ../Middlewares/CMSIS/DSP/Src/FilteringFunctions/arm_biquad_cascade_stereo_df2T_f32.c:374:31
	vmul.f32	s0, s0, s4
	vadd.f32	s0, s0, s2
	.loc	19 374 17                       @ ../Middlewares/CMSIS/DSP/Src/FilteringFunctions/arm_biquad_cascade_stereo_df2T_f32.c:374:17
	vstr	s0, [sp, #56]
	.loc	19 375 20 is_stmt 1             @ ../Middlewares/CMSIS/DSP/Src/FilteringFunctions/arm_biquad_cascade_stereo_df2T_f32.c:375:20
	vldr	s0, [sp, #48]
	.loc	19 375 25 is_stmt 0             @ ../Middlewares/CMSIS/DSP/Src/FilteringFunctions/arm_biquad_cascade_stereo_df2T_f32.c:375:25
	vldr	s4, [sp, #24]
	.loc	19 375 33                       @ ../Middlewares/CMSIS/DSP/Src/FilteringFunctions/arm_biquad_cascade_stereo_df2T_f32.c:375:33
	vldr	s2, [sp, #12]
	.loc	19 375 31                       @ ../Middlewares/CMSIS/DSP/Src/FilteringFunctions/arm_biquad_cascade_stereo_df2T_f32.c:375:31
	vmul.f32	s0, s0, s4
	vadd.f32	s0, s0, s2
	.loc	19 375 17                       @ ../Middlewares/CMSIS/DSP/Src/FilteringFunctions/arm_biquad_cascade_stereo_df2T_f32.c:375:17
	vstr	s0, [sp, #52]
	.loc	19 378 21 is_stmt 1             @ ../Middlewares/CMSIS/DSP/Src/FilteringFunctions/arm_biquad_cascade_stereo_df2T_f32.c:378:21
	ldr	r0, [sp, #56]
	.loc	19 378 16 is_stmt 0             @ ../Middlewares/CMSIS/DSP/Src/FilteringFunctions/arm_biquad_cascade_stereo_df2T_f32.c:378:16
	ldr	r1, [sp, #68]
	adds	r2, r1, #4
	str	r2, [sp, #68]
	.loc	19 378 19                       @ ../Middlewares/CMSIS/DSP/Src/FilteringFunctions/arm_biquad_cascade_stereo_df2T_f32.c:378:19
	str	r0, [r1]
	.loc	19 379 21 is_stmt 1             @ ../Middlewares/CMSIS/DSP/Src/FilteringFunctions/arm_biquad_cascade_stereo_df2T_f32.c:379:21
	ldr	r0, [sp, #52]
	.loc	19 379 16 is_stmt 0             @ ../Middlewares/CMSIS/DSP/Src/FilteringFunctions/arm_biquad_cascade_stereo_df2T_f32.c:379:16
	ldr	r1, [sp, #68]
	adds	r2, r1, #4
	str	r2, [sp, #68]
	.loc	19 379 19                       @ ../Middlewares/CMSIS/DSP/Src/FilteringFunctions/arm_biquad_cascade_stereo_df2T_f32.c:379:19
	str	r0, [r1]
	.loc	19 383 19 is_stmt 1             @ ../Middlewares/CMSIS/DSP/Src/FilteringFunctions/arm_biquad_cascade_stereo_df2T_f32.c:383:19
	vldr	s0, [sp, #44]
	.loc	19 383 24 is_stmt 0             @ ../Middlewares/CMSIS/DSP/Src/FilteringFunctions/arm_biquad_cascade_stereo_df2T_f32.c:383:24
	vldr	s4, [sp, #28]
	.loc	19 383 33                       @ ../Middlewares/CMSIS/DSP/Src/FilteringFunctions/arm_biquad_cascade_stereo_df2T_f32.c:383:33
	vldr	s2, [sp, #36]
	.loc	19 383 38                       @ ../Middlewares/CMSIS/DSP/Src/FilteringFunctions/arm_biquad_cascade_stereo_df2T_f32.c:383:38
	vldr	s6, [sp, #56]
	.loc	19 383 36                       @ ../Middlewares/CMSIS/DSP/Src/FilteringFunctions/arm_biquad_cascade_stereo_df2T_f32.c:383:36
	vmul.f32	s2, s2, s6
	.loc	19 383 30                       @ ../Middlewares/CMSIS/DSP/Src/FilteringFunctions/arm_biquad_cascade_stereo_df2T_f32.c:383:30
	vmul.f32	s0, s0, s4
	vadd.f32	s0, s0, s2
	.loc	19 383 48                       @ ../Middlewares/CMSIS/DSP/Src/FilteringFunctions/arm_biquad_cascade_stereo_df2T_f32.c:383:48
	vldr	s2, [sp, #16]
	.loc	19 383 46                       @ ../Middlewares/CMSIS/DSP/Src/FilteringFunctions/arm_biquad_cascade_stereo_df2T_f32.c:383:46
	vadd.f32	s0, s0, s2
	.loc	19 383 15                       @ ../Middlewares/CMSIS/DSP/Src/FilteringFunctions/arm_biquad_cascade_stereo_df2T_f32.c:383:15
	vstr	s0, [sp, #20]
	.loc	19 384 19 is_stmt 1             @ ../Middlewares/CMSIS/DSP/Src/FilteringFunctions/arm_biquad_cascade_stereo_df2T_f32.c:384:19
	vldr	s0, [sp, #44]
	.loc	19 384 24 is_stmt 0             @ ../Middlewares/CMSIS/DSP/Src/FilteringFunctions/arm_biquad_cascade_stereo_df2T_f32.c:384:24
	vldr	s4, [sp, #24]
	.loc	19 384 33                       @ ../Middlewares/CMSIS/DSP/Src/FilteringFunctions/arm_biquad_cascade_stereo_df2T_f32.c:384:33
	vldr	s2, [sp, #36]
	.loc	19 384 38                       @ ../Middlewares/CMSIS/DSP/Src/FilteringFunctions/arm_biquad_cascade_stereo_df2T_f32.c:384:38
	vldr	s6, [sp, #52]
	.loc	19 384 36                       @ ../Middlewares/CMSIS/DSP/Src/FilteringFunctions/arm_biquad_cascade_stereo_df2T_f32.c:384:36
	vmul.f32	s2, s2, s6
	.loc	19 384 30                       @ ../Middlewares/CMSIS/DSP/Src/FilteringFunctions/arm_biquad_cascade_stereo_df2T_f32.c:384:30
	vmul.f32	s0, s0, s4
	vadd.f32	s0, s0, s2
	.loc	19 384 48                       @ ../Middlewares/CMSIS/DSP/Src/FilteringFunctions/arm_biquad_cascade_stereo_df2T_f32.c:384:48
	vldr	s2, [sp, #8]
	.loc	19 384 46                       @ ../Middlewares/CMSIS/DSP/Src/FilteringFunctions/arm_biquad_cascade_stereo_df2T_f32.c:384:46
	vadd.f32	s0, s0, s2
	.loc	19 384 15                       @ ../Middlewares/CMSIS/DSP/Src/FilteringFunctions/arm_biquad_cascade_stereo_df2T_f32.c:384:15
	vstr	s0, [sp, #12]
	.loc	19 387 18 is_stmt 1             @ ../Middlewares/CMSIS/DSP/Src/FilteringFunctions/arm_biquad_cascade_stereo_df2T_f32.c:387:18
	vldr	s0, [sp, #40]
	.loc	19 387 23 is_stmt 0             @ ../Middlewares/CMSIS/DSP/Src/FilteringFunctions/arm_biquad_cascade_stereo_df2T_f32.c:387:23
	vldr	s4, [sp, #28]
	.loc	19 387 32                       @ ../Middlewares/CMSIS/DSP/Src/FilteringFunctions/arm_biquad_cascade_stereo_df2T_f32.c:387:32
	vldr	s2, [sp, #32]
	.loc	19 387 37                       @ ../Middlewares/CMSIS/DSP/Src/FilteringFunctions/arm_biquad_cascade_stereo_df2T_f32.c:387:37
	vldr	s6, [sp, #56]
	.loc	19 387 35                       @ ../Middlewares/CMSIS/DSP/Src/FilteringFunctions/arm_biquad_cascade_stereo_df2T_f32.c:387:35
	vmul.f32	s2, s2, s6
	.loc	19 387 29                       @ ../Middlewares/CMSIS/DSP/Src/FilteringFunctions/arm_biquad_cascade_stereo_df2T_f32.c:387:29
	vmul.f32	s0, s0, s4
	vadd.f32	s0, s0, s2
	.loc	19 387 15                       @ ../Middlewares/CMSIS/DSP/Src/FilteringFunctions/arm_biquad_cascade_stereo_df2T_f32.c:387:15
	vstr	s0, [sp, #16]
	.loc	19 388 18 is_stmt 1             @ ../Middlewares/CMSIS/DSP/Src/FilteringFunctions/arm_biquad_cascade_stereo_df2T_f32.c:388:18
	vldr	s0, [sp, #40]
	.loc	19 388 23 is_stmt 0             @ ../Middlewares/CMSIS/DSP/Src/FilteringFunctions/arm_biquad_cascade_stereo_df2T_f32.c:388:23
	vldr	s4, [sp, #24]
	.loc	19 388 32                       @ ../Middlewares/CMSIS/DSP/Src/FilteringFunctions/arm_biquad_cascade_stereo_df2T_f32.c:388:32
	vldr	s2, [sp, #32]
	.loc	19 388 37                       @ ../Middlewares/CMSIS/DSP/Src/FilteringFunctions/arm_biquad_cascade_stereo_df2T_f32.c:388:37
	vldr	s6, [sp, #52]
	.loc	19 388 35                       @ ../Middlewares/CMSIS/DSP/Src/FilteringFunctions/arm_biquad_cascade_stereo_df2T_f32.c:388:35
	vmul.f32	s2, s2, s6
	.loc	19 388 29                       @ ../Middlewares/CMSIS/DSP/Src/FilteringFunctions/arm_biquad_cascade_stereo_df2T_f32.c:388:29
	vmul.f32	s0, s0, s4
	vadd.f32	s0, s0, s2
	.loc	19 388 15                       @ ../Middlewares/CMSIS/DSP/Src/FilteringFunctions/arm_biquad_cascade_stereo_df2T_f32.c:388:15
	vstr	s0, [sp, #8]
	.loc	19 391 17 is_stmt 1             @ ../Middlewares/CMSIS/DSP/Src/FilteringFunctions/arm_biquad_cascade_stereo_df2T_f32.c:391:17
	ldr	r0, [sp, #4]
	subs	r0, #1
	str	r0, [sp, #4]
.Ltmp117:
	.loc	19 368 9                        @ ../Middlewares/CMSIS/DSP/Src/FilteringFunctions/arm_biquad_cascade_stereo_df2T_f32.c:368:9
	b	.LBB14_2
.LBB14_4:                               @   in Loop: Header=BB14_1 Depth=1
	.loc	19 395 21                       @ ../Middlewares/CMSIS/DSP/Src/FilteringFunctions/arm_biquad_cascade_stereo_df2T_f32.c:395:21
	ldr	r0, [sp, #20]
	.loc	19 395 9 is_stmt 0              @ ../Middlewares/CMSIS/DSP/Src/FilteringFunctions/arm_biquad_cascade_stereo_df2T_f32.c:395:9
	ldr	r1, [sp, #64]
	.loc	19 395 19                       @ ../Middlewares/CMSIS/DSP/Src/FilteringFunctions/arm_biquad_cascade_stereo_df2T_f32.c:395:19
	str	r0, [r1]
	.loc	19 396 21 is_stmt 1             @ ../Middlewares/CMSIS/DSP/Src/FilteringFunctions/arm_biquad_cascade_stereo_df2T_f32.c:396:21
	ldr	r0, [sp, #16]
	.loc	19 396 9 is_stmt 0              @ ../Middlewares/CMSIS/DSP/Src/FilteringFunctions/arm_biquad_cascade_stereo_df2T_f32.c:396:9
	ldr	r1, [sp, #64]
	.loc	19 396 19                       @ ../Middlewares/CMSIS/DSP/Src/FilteringFunctions/arm_biquad_cascade_stereo_df2T_f32.c:396:19
	str	r0, [r1, #4]
	.loc	19 398 21 is_stmt 1             @ ../Middlewares/CMSIS/DSP/Src/FilteringFunctions/arm_biquad_cascade_stereo_df2T_f32.c:398:21
	ldr	r0, [sp, #12]
	.loc	19 398 9 is_stmt 0              @ ../Middlewares/CMSIS/DSP/Src/FilteringFunctions/arm_biquad_cascade_stereo_df2T_f32.c:398:9
	ldr	r1, [sp, #64]
	.loc	19 398 19                       @ ../Middlewares/CMSIS/DSP/Src/FilteringFunctions/arm_biquad_cascade_stereo_df2T_f32.c:398:19
	str	r0, [r1, #8]
	.loc	19 399 21 is_stmt 1             @ ../Middlewares/CMSIS/DSP/Src/FilteringFunctions/arm_biquad_cascade_stereo_df2T_f32.c:399:21
	ldr	r0, [sp, #8]
	.loc	19 399 9 is_stmt 0              @ ../Middlewares/CMSIS/DSP/Src/FilteringFunctions/arm_biquad_cascade_stereo_df2T_f32.c:399:9
	ldr	r1, [sp, #64]
	.loc	19 399 19                       @ ../Middlewares/CMSIS/DSP/Src/FilteringFunctions/arm_biquad_cascade_stereo_df2T_f32.c:399:19
	str	r0, [r1, #12]
	.loc	19 401 16 is_stmt 1             @ ../Middlewares/CMSIS/DSP/Src/FilteringFunctions/arm_biquad_cascade_stereo_df2T_f32.c:401:16
	ldr	r0, [sp, #64]
	adds	r0, #16
	str	r0, [sp, #64]
	.loc	19 404 15                       @ ../Middlewares/CMSIS/DSP/Src/FilteringFunctions/arm_biquad_cascade_stereo_df2T_f32.c:404:15
	ldr	r0, [sp, #80]
	.loc	19 404 13 is_stmt 0             @ ../Middlewares/CMSIS/DSP/Src/FilteringFunctions/arm_biquad_cascade_stereo_df2T_f32.c:404:13
	str	r0, [sp, #72]
	.loc	19 407 16 is_stmt 1             @ ../Middlewares/CMSIS/DSP/Src/FilteringFunctions/arm_biquad_cascade_stereo_df2T_f32.c:407:16
	ldr	r0, [sp, #80]
	.loc	19 407 14 is_stmt 0             @ ../Middlewares/CMSIS/DSP/Src/FilteringFunctions/arm_biquad_cascade_stereo_df2T_f32.c:407:14
	str	r0, [sp, #68]
	.loc	19 410 14 is_stmt 1             @ ../Middlewares/CMSIS/DSP/Src/FilteringFunctions/arm_biquad_cascade_stereo_df2T_f32.c:410:14
	ldr	r0, [sp]
	subs	r0, #1
	str	r0, [sp]
	.loc	19 412 5                        @ ../Middlewares/CMSIS/DSP/Src/FilteringFunctions/arm_biquad_cascade_stereo_df2T_f32.c:412:5
	b	.LBB14_5
.Ltmp118:
.LBB14_5:                               @   in Loop: Header=BB14_1 Depth=1
	.loc	19 412 14 is_stmt 0             @ ../Middlewares/CMSIS/DSP/Src/FilteringFunctions/arm_biquad_cascade_stereo_df2T_f32.c:412:14
	ldr	r0, [sp]
.Ltmp119:
	.loc	19 412 5                        @ ../Middlewares/CMSIS/DSP/Src/FilteringFunctions/arm_biquad_cascade_stereo_df2T_f32.c:412:5
	cmp	r0, #0
	bne.w	.LBB14_1
	b	.LBB14_6
.Ltmp120:
.LBB14_6:
	.loc	19 414 1 is_stmt 1              @ ../Middlewares/CMSIS/DSP/Src/FilteringFunctions/arm_biquad_cascade_stereo_df2T_f32.c:414:1
	add	sp, #92
	bx	lr
.Ltmp121:
.Lfunc_end14:
	.size	arm_biquad_cascade_stereo_df2T_f32, .Lfunc_end14-arm_biquad_cascade_stereo_df2T_f32
	.cfi_endproc
	.cantunwind
	.fnend
                                        @ -- End function
	.section	.text.arm_biquad_cascade_stereo_df2T_init_f32,"ax",%progbits
	.hidden	arm_biquad_cascade_stereo_df2T_init_f32 @ -- Begin function arm_biquad_cascade_stereo_df2T_init_f32
	.globl	arm_biquad_cascade_stereo_df2T_init_f32
	.p2align	2
	.type	arm_biquad_cascade_stereo_df2T_init_f32,%function
	.code	16                              @ @arm_biquad_cascade_stereo_df2T_init_f32
	.thumb_func
arm_biquad_cascade_stereo_df2T_init_f32:
.Lfunc_begin15:
	.file	20 "D:\\horizon\\Horizon_Infantry (2)\\MDK-ARM" "../Middlewares/CMSIS/DSP/Src/FilteringFunctions/arm_biquad_cascade_stereo_df2T_init_f32.c"
	.loc	20 70 0                         @ ../Middlewares/CMSIS/DSP/Src/FilteringFunctions/arm_biquad_cascade_stereo_df2T_init_f32.c:70:0
	.fnstart
	.cfi_startproc
@ %bb.0:
	.save	{r7, lr}
	push	{r7, lr}
	.cfi_def_cfa_offset 8
	.cfi_offset lr, -4
	.cfi_offset r7, -8
	.pad	#16
	sub	sp, #16
	.cfi_def_cfa_offset 24
                                        @ kill: def $r12 killed $r1
	str	r0, [sp, #12]
	strb.w	r1, [sp, #11]
	str	r2, [sp, #4]
	str	r3, [sp]
.Ltmp122:
	.loc	20 72 18 prologue_end           @ ../Middlewares/CMSIS/DSP/Src/FilteringFunctions/arm_biquad_cascade_stereo_df2T_init_f32.c:72:18
	ldrb.w	r0, [sp, #11]
	.loc	20 72 3 is_stmt 0               @ ../Middlewares/CMSIS/DSP/Src/FilteringFunctions/arm_biquad_cascade_stereo_df2T_init_f32.c:72:3
	ldr	r1, [sp, #12]
	.loc	20 72 16                        @ ../Middlewares/CMSIS/DSP/Src/FilteringFunctions/arm_biquad_cascade_stereo_df2T_init_f32.c:72:16
	strb	r0, [r1]
	.loc	20 75 16 is_stmt 1              @ ../Middlewares/CMSIS/DSP/Src/FilteringFunctions/arm_biquad_cascade_stereo_df2T_init_f32.c:75:16
	ldr	r0, [sp, #4]
	.loc	20 75 3 is_stmt 0               @ ../Middlewares/CMSIS/DSP/Src/FilteringFunctions/arm_biquad_cascade_stereo_df2T_init_f32.c:75:3
	ldr	r1, [sp, #12]
	.loc	20 75 14                        @ ../Middlewares/CMSIS/DSP/Src/FilteringFunctions/arm_biquad_cascade_stereo_df2T_init_f32.c:75:14
	str	r0, [r1, #8]
	.loc	20 78 10 is_stmt 1              @ ../Middlewares/CMSIS/DSP/Src/FilteringFunctions/arm_biquad_cascade_stereo_df2T_init_f32.c:78:10
	ldr	r0, [sp]
	.loc	20 78 38 is_stmt 0              @ ../Middlewares/CMSIS/DSP/Src/FilteringFunctions/arm_biquad_cascade_stereo_df2T_init_f32.c:78:38
	ldrb.w	r1, [sp, #11]
	.loc	20 78 49                        @ ../Middlewares/CMSIS/DSP/Src/FilteringFunctions/arm_biquad_cascade_stereo_df2T_init_f32.c:78:49
	lsls	r1, r1, #4
	.loc	20 78 3                         @ ../Middlewares/CMSIS/DSP/Src/FilteringFunctions/arm_biquad_cascade_stereo_df2T_init_f32.c:78:3
	bl	__aeabi_memclr4
	.loc	20 81 15 is_stmt 1              @ ../Middlewares/CMSIS/DSP/Src/FilteringFunctions/arm_biquad_cascade_stereo_df2T_init_f32.c:81:15
	ldr	r0, [sp]
	.loc	20 81 3 is_stmt 0               @ ../Middlewares/CMSIS/DSP/Src/FilteringFunctions/arm_biquad_cascade_stereo_df2T_init_f32.c:81:3
	ldr	r1, [sp, #12]
	.loc	20 81 13                        @ ../Middlewares/CMSIS/DSP/Src/FilteringFunctions/arm_biquad_cascade_stereo_df2T_init_f32.c:81:13
	str	r0, [r1, #4]
	.loc	20 82 1 is_stmt 1               @ ../Middlewares/CMSIS/DSP/Src/FilteringFunctions/arm_biquad_cascade_stereo_df2T_init_f32.c:82:1
	add	sp, #16
	pop	{r7, pc}
.Ltmp123:
.Lfunc_end15:
	.size	arm_biquad_cascade_stereo_df2T_init_f32, .Lfunc_end15-arm_biquad_cascade_stereo_df2T_init_f32
	.cfi_endproc
	.cantunwind
	.fnend
                                        @ -- End function
	.section	.text.arm_conv_f32,"ax",%progbits
	.hidden	arm_conv_f32                    @ -- Begin function arm_conv_f32
	.globl	arm_conv_f32
	.p2align	2
	.type	arm_conv_f32,%function
	.code	16                              @ @arm_conv_f32
	.thumb_func
arm_conv_f32:
.Lfunc_begin16:
	.file	21 "D:\\horizon\\Horizon_Infantry (2)\\MDK-ARM" "../Middlewares/CMSIS/DSP/Src/FilteringFunctions/arm_conv_f32.c"
	.loc	21 260 0                        @ ../Middlewares/CMSIS/DSP/Src/FilteringFunctions/arm_conv_f32.c:260:0
	.fnstart
	.cfi_startproc
@ %bb.0:
	.pad	#76
	sub	sp, #76
	.cfi_def_cfa_offset 76
	ldr.w	r12, [sp, #76]
	str	r0, [sp, #72]
	str	r1, [sp, #68]
	str	r2, [sp, #64]
	str	r3, [sp, #60]
.Ltmp124:
	.loc	21 266 27 prologue_end          @ ../Middlewares/CMSIS/DSP/Src/FilteringFunctions/arm_conv_f32.c:266:27
	ldr	r0, [sp, #76]
	.loc	21 266 20 is_stmt 0             @ ../Middlewares/CMSIS/DSP/Src/FilteringFunctions/arm_conv_f32.c:266:20
	str	r0, [sp, #48]
.Ltmp125:
	.loc	21 285 7 is_stmt 1              @ ../Middlewares/CMSIS/DSP/Src/FilteringFunctions/arm_conv_f32.c:285:7
	ldr	r0, [sp, #68]
	.loc	21 285 18 is_stmt 0             @ ../Middlewares/CMSIS/DSP/Src/FilteringFunctions/arm_conv_f32.c:285:18
	ldr	r1, [sp, #60]
.Ltmp126:
	.loc	21 285 7                        @ ../Middlewares/CMSIS/DSP/Src/FilteringFunctions/arm_conv_f32.c:285:7
	cmp	r0, r1
	blo	.LBB16_2
	b	.LBB16_1
.LBB16_1:
.Ltmp127:
	.loc	21 288 12 is_stmt 1             @ ../Middlewares/CMSIS/DSP/Src/FilteringFunctions/arm_conv_f32.c:288:12
	ldr	r0, [sp, #72]
	.loc	21 288 10 is_stmt 0             @ ../Middlewares/CMSIS/DSP/Src/FilteringFunctions/arm_conv_f32.c:288:10
	str	r0, [sp, #56]
	.loc	21 291 12 is_stmt 1             @ ../Middlewares/CMSIS/DSP/Src/FilteringFunctions/arm_conv_f32.c:291:12
	ldr	r0, [sp, #64]
	.loc	21 291 10 is_stmt 0             @ ../Middlewares/CMSIS/DSP/Src/FilteringFunctions/arm_conv_f32.c:291:10
	str	r0, [sp, #52]
	.loc	21 292 3 is_stmt 1              @ ../Middlewares/CMSIS/DSP/Src/FilteringFunctions/arm_conv_f32.c:292:3
	b	.LBB16_3
.Ltmp128:
.LBB16_2:
	.loc	21 296 12                       @ ../Middlewares/CMSIS/DSP/Src/FilteringFunctions/arm_conv_f32.c:296:12
	ldr	r0, [sp, #64]
	.loc	21 296 10 is_stmt 0             @ ../Middlewares/CMSIS/DSP/Src/FilteringFunctions/arm_conv_f32.c:296:10
	str	r0, [sp, #56]
	.loc	21 299 12 is_stmt 1             @ ../Middlewares/CMSIS/DSP/Src/FilteringFunctions/arm_conv_f32.c:299:12
	ldr	r0, [sp, #72]
	.loc	21 299 10 is_stmt 0             @ ../Middlewares/CMSIS/DSP/Src/FilteringFunctions/arm_conv_f32.c:299:10
	str	r0, [sp, #52]
	.loc	21 302 9 is_stmt 1              @ ../Middlewares/CMSIS/DSP/Src/FilteringFunctions/arm_conv_f32.c:302:9
	ldr	r0, [sp, #60]
	.loc	21 302 7 is_stmt 0              @ ../Middlewares/CMSIS/DSP/Src/FilteringFunctions/arm_conv_f32.c:302:7
	str	r0, [sp, #12]
	.loc	21 303 15 is_stmt 1             @ ../Middlewares/CMSIS/DSP/Src/FilteringFunctions/arm_conv_f32.c:303:15
	ldr	r0, [sp, #68]
	.loc	21 303 13 is_stmt 0             @ ../Middlewares/CMSIS/DSP/Src/FilteringFunctions/arm_conv_f32.c:303:13
	str	r0, [sp, #60]
	.loc	21 304 15 is_stmt 1             @ ../Middlewares/CMSIS/DSP/Src/FilteringFunctions/arm_conv_f32.c:304:15
	ldr	r0, [sp, #12]
	.loc	21 304 13 is_stmt 0             @ ../Middlewares/CMSIS/DSP/Src/FilteringFunctions/arm_conv_f32.c:304:13
	str	r0, [sp, #68]
	b	.LBB16_3
.Ltmp129:
.LBB16_3:
	.loc	21 318 16 is_stmt 1             @ ../Middlewares/CMSIS/DSP/Src/FilteringFunctions/arm_conv_f32.c:318:16
	ldr	r0, [sp, #60]
	.loc	21 318 24 is_stmt 0             @ ../Middlewares/CMSIS/DSP/Src/FilteringFunctions/arm_conv_f32.c:318:24
	subs	r0, #1
	.loc	21 318 14                       @ ../Middlewares/CMSIS/DSP/Src/FilteringFunctions/arm_conv_f32.c:318:14
	str	r0, [sp, #24]
	.loc	21 319 16 is_stmt 1             @ ../Middlewares/CMSIS/DSP/Src/FilteringFunctions/arm_conv_f32.c:319:16
	ldr	r0, [sp, #68]
	.loc	21 319 27 is_stmt 0             @ ../Middlewares/CMSIS/DSP/Src/FilteringFunctions/arm_conv_f32.c:319:27
	ldr	r1, [sp, #60]
	.loc	21 319 24                       @ ../Middlewares/CMSIS/DSP/Src/FilteringFunctions/arm_conv_f32.c:319:24
	subs	r0, r0, r1
	adds	r0, #1
	.loc	21 319 14                       @ ../Middlewares/CMSIS/DSP/Src/FilteringFunctions/arm_conv_f32.c:319:14
	str	r0, [sp, #20]
	.loc	21 320 16 is_stmt 1             @ ../Middlewares/CMSIS/DSP/Src/FilteringFunctions/arm_conv_f32.c:320:16
	ldr	r0, [sp, #24]
	.loc	21 320 14 is_stmt 0             @ ../Middlewares/CMSIS/DSP/Src/FilteringFunctions/arm_conv_f32.c:320:14
	str	r0, [sp, #16]
	movs	r0, #1
	.loc	21 334 9 is_stmt 1              @ ../Middlewares/CMSIS/DSP/Src/FilteringFunctions/arm_conv_f32.c:334:9
	str	r0, [sp, #4]
	.loc	21 337 8                        @ ../Middlewares/CMSIS/DSP/Src/FilteringFunctions/arm_conv_f32.c:337:8
	ldr	r0, [sp, #56]
	.loc	21 337 6 is_stmt 0              @ ../Middlewares/CMSIS/DSP/Src/FilteringFunctions/arm_conv_f32.c:337:6
	str	r0, [sp, #44]
	.loc	21 340 8 is_stmt 1              @ ../Middlewares/CMSIS/DSP/Src/FilteringFunctions/arm_conv_f32.c:340:8
	ldr	r0, [sp, #52]
	.loc	21 340 6 is_stmt 0              @ ../Middlewares/CMSIS/DSP/Src/FilteringFunctions/arm_conv_f32.c:340:6
	str	r0, [sp, #40]
	.loc	21 354 3 is_stmt 1              @ ../Middlewares/CMSIS/DSP/Src/FilteringFunctions/arm_conv_f32.c:354:3
	b	.LBB16_4
.LBB16_4:                               @ =>This Loop Header: Depth=1
                                        @     Child Loop BB16_6 Depth 2
	.loc	21 354 10 is_stmt 0             @ ../Middlewares/CMSIS/DSP/Src/FilteringFunctions/arm_conv_f32.c:354:10
	ldr	r0, [sp, #24]
	.loc	21 354 3                        @ ../Middlewares/CMSIS/DSP/Src/FilteringFunctions/arm_conv_f32.c:354:3
	cbz	r0, .LBB16_9
	b	.LBB16_5
.LBB16_5:                               @   in Loop: Header=BB16_4 Depth=1
	.loc	21 0 3                          @ ../Middlewares/CMSIS/DSP/Src/FilteringFunctions/arm_conv_f32.c:0:3
	movs	r0, #0
.Ltmp130:
	.loc	21 357 9 is_stmt 1              @ ../Middlewares/CMSIS/DSP/Src/FilteringFunctions/arm_conv_f32.c:357:9
	str	r0, [sp, #28]
	.loc	21 422 9                        @ ../Middlewares/CMSIS/DSP/Src/FilteringFunctions/arm_conv_f32.c:422:9
	ldr	r0, [sp, #4]
	.loc	21 422 7 is_stmt 0              @ ../Middlewares/CMSIS/DSP/Src/FilteringFunctions/arm_conv_f32.c:422:7
	str	r0, [sp, #8]
	.loc	21 426 5 is_stmt 1              @ ../Middlewares/CMSIS/DSP/Src/FilteringFunctions/arm_conv_f32.c:426:5
	b	.LBB16_6
.LBB16_6:                               @   Parent Loop BB16_4 Depth=1
                                        @ =>  This Inner Loop Header: Depth=2
	.loc	21 426 12 is_stmt 0             @ ../Middlewares/CMSIS/DSP/Src/FilteringFunctions/arm_conv_f32.c:426:12
	ldr	r0, [sp, #8]
	.loc	21 426 5                        @ ../Middlewares/CMSIS/DSP/Src/FilteringFunctions/arm_conv_f32.c:426:5
	cbz	r0, .LBB16_8
	b	.LBB16_7
.LBB16_7:                               @   in Loop: Header=BB16_6 Depth=2
.Ltmp131:
	.loc	21 429 17 is_stmt 1             @ ../Middlewares/CMSIS/DSP/Src/FilteringFunctions/arm_conv_f32.c:429:17
	ldr	r0, [sp, #44]
	adds	r1, r0, #4
	str	r1, [sp, #44]
	.loc	21 429 14 is_stmt 0             @ ../Middlewares/CMSIS/DSP/Src/FilteringFunctions/arm_conv_f32.c:429:14
	vldr	s0, [r0]
	.loc	21 429 25                       @ ../Middlewares/CMSIS/DSP/Src/FilteringFunctions/arm_conv_f32.c:429:25
	ldr	r0, [sp, #40]
	subs	r1, r0, #4
	str	r1, [sp, #40]
	.loc	21 429 22                       @ ../Middlewares/CMSIS/DSP/Src/FilteringFunctions/arm_conv_f32.c:429:22
	vldr	s4, [r0]
	.loc	21 429 11                       @ ../Middlewares/CMSIS/DSP/Src/FilteringFunctions/arm_conv_f32.c:429:11
	vldr	s2, [sp, #28]
	vmul.f32	s0, s0, s4
	vadd.f32	s0, s0, s2
	vstr	s0, [sp, #28]
	.loc	21 432 8 is_stmt 1              @ ../Middlewares/CMSIS/DSP/Src/FilteringFunctions/arm_conv_f32.c:432:8
	ldr	r0, [sp, #8]
	subs	r0, #1
	str	r0, [sp, #8]
.Ltmp132:
	.loc	21 426 5                        @ ../Middlewares/CMSIS/DSP/Src/FilteringFunctions/arm_conv_f32.c:426:5
	b	.LBB16_6
.LBB16_8:                               @   in Loop: Header=BB16_4 Depth=1
	.loc	21 436 15                       @ ../Middlewares/CMSIS/DSP/Src/FilteringFunctions/arm_conv_f32.c:436:15
	ldr	r0, [sp, #28]
	.loc	21 436 10 is_stmt 0             @ ../Middlewares/CMSIS/DSP/Src/FilteringFunctions/arm_conv_f32.c:436:10
	ldr	r1, [sp, #48]
	adds	r2, r1, #4
	str	r2, [sp, #48]
	.loc	21 436 13                       @ ../Middlewares/CMSIS/DSP/Src/FilteringFunctions/arm_conv_f32.c:436:13
	str	r0, [r1]
	.loc	21 439 10 is_stmt 1             @ ../Middlewares/CMSIS/DSP/Src/FilteringFunctions/arm_conv_f32.c:439:10
	ldr	r0, [sp, #52]
	.loc	21 439 17 is_stmt 0             @ ../Middlewares/CMSIS/DSP/Src/FilteringFunctions/arm_conv_f32.c:439:17
	ldr	r1, [sp, #4]
	.loc	21 439 15                       @ ../Middlewares/CMSIS/DSP/Src/FilteringFunctions/arm_conv_f32.c:439:15
	add.w	r0, r0, r1, lsl #2
	.loc	21 439 8                        @ ../Middlewares/CMSIS/DSP/Src/FilteringFunctions/arm_conv_f32.c:439:8
	str	r0, [sp, #40]
	.loc	21 440 10 is_stmt 1             @ ../Middlewares/CMSIS/DSP/Src/FilteringFunctions/arm_conv_f32.c:440:10
	ldr	r0, [sp, #56]
	.loc	21 440 8 is_stmt 0              @ ../Middlewares/CMSIS/DSP/Src/FilteringFunctions/arm_conv_f32.c:440:8
	str	r0, [sp, #44]
	.loc	21 443 10 is_stmt 1             @ ../Middlewares/CMSIS/DSP/Src/FilteringFunctions/arm_conv_f32.c:443:10
	ldr	r0, [sp, #4]
	adds	r0, #1
	str	r0, [sp, #4]
	.loc	21 446 15                       @ ../Middlewares/CMSIS/DSP/Src/FilteringFunctions/arm_conv_f32.c:446:15
	ldr	r0, [sp, #24]
	subs	r0, #1
	str	r0, [sp, #24]
.Ltmp133:
	.loc	21 354 3                        @ ../Middlewares/CMSIS/DSP/Src/FilteringFunctions/arm_conv_f32.c:354:3
	b	.LBB16_4
.LBB16_9:
	.loc	21 460 8                        @ ../Middlewares/CMSIS/DSP/Src/FilteringFunctions/arm_conv_f32.c:460:8
	ldr	r0, [sp, #56]
	.loc	21 460 6 is_stmt 0              @ ../Middlewares/CMSIS/DSP/Src/FilteringFunctions/arm_conv_f32.c:460:6
	str	r0, [sp, #44]
	.loc	21 463 11 is_stmt 1             @ ../Middlewares/CMSIS/DSP/Src/FilteringFunctions/arm_conv_f32.c:463:11
	ldr	r0, [sp, #52]
	.loc	21 463 19 is_stmt 0             @ ../Middlewares/CMSIS/DSP/Src/FilteringFunctions/arm_conv_f32.c:463:19
	ldr	r1, [sp, #60]
	.loc	21 463 16                       @ ../Middlewares/CMSIS/DSP/Src/FilteringFunctions/arm_conv_f32.c:463:16
	add.w	r0, r0, r1, lsl #2
	subs	r0, #4
	.loc	21 463 9                        @ ../Middlewares/CMSIS/DSP/Src/FilteringFunctions/arm_conv_f32.c:463:9
	str	r0, [sp, #32]
	.loc	21 464 8 is_stmt 1              @ ../Middlewares/CMSIS/DSP/Src/FilteringFunctions/arm_conv_f32.c:464:8
	ldr	r0, [sp, #32]
	.loc	21 464 6 is_stmt 0              @ ../Middlewares/CMSIS/DSP/Src/FilteringFunctions/arm_conv_f32.c:464:6
	str	r0, [sp, #40]
	movs	r0, #0
	.loc	21 467 9 is_stmt 1              @ ../Middlewares/CMSIS/DSP/Src/FilteringFunctions/arm_conv_f32.c:467:9
	str	r0, [sp, #4]
.Ltmp134:
	.loc	21 476 7                        @ ../Middlewares/CMSIS/DSP/Src/FilteringFunctions/arm_conv_f32.c:476:7
	ldr	r0, [sp, #60]
.Ltmp135:
	.loc	21 476 7 is_stmt 0              @ ../Middlewares/CMSIS/DSP/Src/FilteringFunctions/arm_conv_f32.c:476:7
	cmp	r0, #4
	blo	.LBB16_17
	b	.LBB16_10
.LBB16_10:
.Ltmp136:
	.loc	21 695 14 is_stmt 1             @ ../Middlewares/CMSIS/DSP/Src/FilteringFunctions/arm_conv_f32.c:695:14
	ldr	r0, [sp, #20]
	.loc	21 695 12 is_stmt 0             @ ../Middlewares/CMSIS/DSP/Src/FilteringFunctions/arm_conv_f32.c:695:12
	str	r0, [sp]
	.loc	21 699 5 is_stmt 1              @ ../Middlewares/CMSIS/DSP/Src/FilteringFunctions/arm_conv_f32.c:699:5
	b	.LBB16_11
.LBB16_11:                              @ =>This Loop Header: Depth=1
                                        @     Child Loop BB16_13 Depth 2
	.loc	21 699 12 is_stmt 0             @ ../Middlewares/CMSIS/DSP/Src/FilteringFunctions/arm_conv_f32.c:699:12
	ldr	r0, [sp]
	.loc	21 699 5                        @ ../Middlewares/CMSIS/DSP/Src/FilteringFunctions/arm_conv_f32.c:699:5
	cbz	r0, .LBB16_16
	b	.LBB16_12
.LBB16_12:                              @   in Loop: Header=BB16_11 Depth=1
	.loc	21 0 5                          @ ../Middlewares/CMSIS/DSP/Src/FilteringFunctions/arm_conv_f32.c:0:5
	movs	r0, #0
.Ltmp137:
	.loc	21 702 11 is_stmt 1             @ ../Middlewares/CMSIS/DSP/Src/FilteringFunctions/arm_conv_f32.c:702:11
	str	r0, [sp, #28]
	.loc	21 759 11                       @ ../Middlewares/CMSIS/DSP/Src/FilteringFunctions/arm_conv_f32.c:759:11
	ldr	r0, [sp, #60]
	.loc	21 759 9 is_stmt 0              @ ../Middlewares/CMSIS/DSP/Src/FilteringFunctions/arm_conv_f32.c:759:9
	str	r0, [sp, #8]
	.loc	21 763 7 is_stmt 1              @ ../Middlewares/CMSIS/DSP/Src/FilteringFunctions/arm_conv_f32.c:763:7
	b	.LBB16_13
.LBB16_13:                              @   Parent Loop BB16_11 Depth=1
                                        @ =>  This Inner Loop Header: Depth=2
	.loc	21 763 14 is_stmt 0             @ ../Middlewares/CMSIS/DSP/Src/FilteringFunctions/arm_conv_f32.c:763:14
	ldr	r0, [sp, #8]
	.loc	21 763 7                        @ ../Middlewares/CMSIS/DSP/Src/FilteringFunctions/arm_conv_f32.c:763:7
	cbz	r0, .LBB16_15
	b	.LBB16_14
.LBB16_14:                              @   in Loop: Header=BB16_13 Depth=2
.Ltmp138:
	.loc	21 766 19 is_stmt 1             @ ../Middlewares/CMSIS/DSP/Src/FilteringFunctions/arm_conv_f32.c:766:19
	ldr	r0, [sp, #44]
	adds	r1, r0, #4
	str	r1, [sp, #44]
	.loc	21 766 16 is_stmt 0             @ ../Middlewares/CMSIS/DSP/Src/FilteringFunctions/arm_conv_f32.c:766:16
	vldr	s0, [r0]
	.loc	21 766 27                       @ ../Middlewares/CMSIS/DSP/Src/FilteringFunctions/arm_conv_f32.c:766:27
	ldr	r0, [sp, #40]
	subs	r1, r0, #4
	str	r1, [sp, #40]
	.loc	21 766 24                       @ ../Middlewares/CMSIS/DSP/Src/FilteringFunctions/arm_conv_f32.c:766:24
	vldr	s4, [r0]
	.loc	21 766 13                       @ ../Middlewares/CMSIS/DSP/Src/FilteringFunctions/arm_conv_f32.c:766:13
	vldr	s2, [sp, #28]
	vmul.f32	s0, s0, s4
	vadd.f32	s0, s0, s2
	vstr	s0, [sp, #28]
	.loc	21 769 10 is_stmt 1             @ ../Middlewares/CMSIS/DSP/Src/FilteringFunctions/arm_conv_f32.c:769:10
	ldr	r0, [sp, #8]
	subs	r0, #1
	str	r0, [sp, #8]
.Ltmp139:
	.loc	21 763 7                        @ ../Middlewares/CMSIS/DSP/Src/FilteringFunctions/arm_conv_f32.c:763:7
	b	.LBB16_13
.LBB16_15:                              @   in Loop: Header=BB16_11 Depth=1
	.loc	21 773 17                       @ ../Middlewares/CMSIS/DSP/Src/FilteringFunctions/arm_conv_f32.c:773:17
	ldr	r0, [sp, #28]
	.loc	21 773 12 is_stmt 0             @ ../Middlewares/CMSIS/DSP/Src/FilteringFunctions/arm_conv_f32.c:773:12
	ldr	r1, [sp, #48]
	adds	r2, r1, #4
	str	r2, [sp, #48]
	.loc	21 773 15                       @ ../Middlewares/CMSIS/DSP/Src/FilteringFunctions/arm_conv_f32.c:773:15
	str	r0, [r1]
	.loc	21 776 12 is_stmt 1             @ ../Middlewares/CMSIS/DSP/Src/FilteringFunctions/arm_conv_f32.c:776:12
	ldr	r0, [sp, #4]
	adds	r0, #1
	str	r0, [sp, #4]
	.loc	21 779 12                       @ ../Middlewares/CMSIS/DSP/Src/FilteringFunctions/arm_conv_f32.c:779:12
	ldr	r0, [sp, #56]
	.loc	21 779 19 is_stmt 0             @ ../Middlewares/CMSIS/DSP/Src/FilteringFunctions/arm_conv_f32.c:779:19
	ldr	r1, [sp, #4]
	.loc	21 779 17                       @ ../Middlewares/CMSIS/DSP/Src/FilteringFunctions/arm_conv_f32.c:779:17
	add.w	r0, r0, r1, lsl #2
	.loc	21 779 10                       @ ../Middlewares/CMSIS/DSP/Src/FilteringFunctions/arm_conv_f32.c:779:10
	str	r0, [sp, #44]
	.loc	21 780 12 is_stmt 1             @ ../Middlewares/CMSIS/DSP/Src/FilteringFunctions/arm_conv_f32.c:780:12
	ldr	r0, [sp, #32]
	.loc	21 780 10 is_stmt 0             @ ../Middlewares/CMSIS/DSP/Src/FilteringFunctions/arm_conv_f32.c:780:10
	str	r0, [sp, #40]
	.loc	21 783 13 is_stmt 1             @ ../Middlewares/CMSIS/DSP/Src/FilteringFunctions/arm_conv_f32.c:783:13
	ldr	r0, [sp]
	subs	r0, #1
	str	r0, [sp]
.Ltmp140:
	.loc	21 699 5                        @ ../Middlewares/CMSIS/DSP/Src/FilteringFunctions/arm_conv_f32.c:699:5
	b	.LBB16_11
.LBB16_16:
	.loc	21 785 3                        @ ../Middlewares/CMSIS/DSP/Src/FilteringFunctions/arm_conv_f32.c:785:3
	b	.LBB16_24
.Ltmp141:
.LBB16_17:
	.loc	21 790 14                       @ ../Middlewares/CMSIS/DSP/Src/FilteringFunctions/arm_conv_f32.c:790:14
	ldr	r0, [sp, #20]
	.loc	21 790 12 is_stmt 0             @ ../Middlewares/CMSIS/DSP/Src/FilteringFunctions/arm_conv_f32.c:790:12
	str	r0, [sp]
	.loc	21 792 5 is_stmt 1              @ ../Middlewares/CMSIS/DSP/Src/FilteringFunctions/arm_conv_f32.c:792:5
	b	.LBB16_18
.LBB16_18:                              @ =>This Loop Header: Depth=1
                                        @     Child Loop BB16_20 Depth 2
	.loc	21 792 12 is_stmt 0             @ ../Middlewares/CMSIS/DSP/Src/FilteringFunctions/arm_conv_f32.c:792:12
	ldr	r0, [sp]
	.loc	21 792 5                        @ ../Middlewares/CMSIS/DSP/Src/FilteringFunctions/arm_conv_f32.c:792:5
	cbz	r0, .LBB16_23
	b	.LBB16_19
.LBB16_19:                              @   in Loop: Header=BB16_18 Depth=1
	.loc	21 0 5                          @ ../Middlewares/CMSIS/DSP/Src/FilteringFunctions/arm_conv_f32.c:0:5
	movs	r0, #0
.Ltmp142:
	.loc	21 795 11 is_stmt 1             @ ../Middlewares/CMSIS/DSP/Src/FilteringFunctions/arm_conv_f32.c:795:11
	str	r0, [sp, #28]
	.loc	21 798 11                       @ ../Middlewares/CMSIS/DSP/Src/FilteringFunctions/arm_conv_f32.c:798:11
	ldr	r0, [sp, #60]
	.loc	21 798 9 is_stmt 0              @ ../Middlewares/CMSIS/DSP/Src/FilteringFunctions/arm_conv_f32.c:798:9
	str	r0, [sp, #8]
	.loc	21 800 7 is_stmt 1              @ ../Middlewares/CMSIS/DSP/Src/FilteringFunctions/arm_conv_f32.c:800:7
	b	.LBB16_20
.LBB16_20:                              @   Parent Loop BB16_18 Depth=1
                                        @ =>  This Inner Loop Header: Depth=2
	.loc	21 800 14 is_stmt 0             @ ../Middlewares/CMSIS/DSP/Src/FilteringFunctions/arm_conv_f32.c:800:14
	ldr	r0, [sp, #8]
	.loc	21 800 7                        @ ../Middlewares/CMSIS/DSP/Src/FilteringFunctions/arm_conv_f32.c:800:7
	cbz	r0, .LBB16_22
	b	.LBB16_21
.LBB16_21:                              @   in Loop: Header=BB16_20 Depth=2
.Ltmp143:
	.loc	21 803 19 is_stmt 1             @ ../Middlewares/CMSIS/DSP/Src/FilteringFunctions/arm_conv_f32.c:803:19
	ldr	r0, [sp, #44]
	adds	r1, r0, #4
	str	r1, [sp, #44]
	.loc	21 803 16 is_stmt 0             @ ../Middlewares/CMSIS/DSP/Src/FilteringFunctions/arm_conv_f32.c:803:16
	vldr	s0, [r0]
	.loc	21 803 27                       @ ../Middlewares/CMSIS/DSP/Src/FilteringFunctions/arm_conv_f32.c:803:27
	ldr	r0, [sp, #40]
	subs	r1, r0, #4
	str	r1, [sp, #40]
	.loc	21 803 24                       @ ../Middlewares/CMSIS/DSP/Src/FilteringFunctions/arm_conv_f32.c:803:24
	vldr	s4, [r0]
	.loc	21 803 13                       @ ../Middlewares/CMSIS/DSP/Src/FilteringFunctions/arm_conv_f32.c:803:13
	vldr	s2, [sp, #28]
	vmul.f32	s0, s0, s4
	vadd.f32	s0, s0, s2
	vstr	s0, [sp, #28]
	.loc	21 806 10 is_stmt 1             @ ../Middlewares/CMSIS/DSP/Src/FilteringFunctions/arm_conv_f32.c:806:10
	ldr	r0, [sp, #8]
	subs	r0, #1
	str	r0, [sp, #8]
.Ltmp144:
	.loc	21 800 7                        @ ../Middlewares/CMSIS/DSP/Src/FilteringFunctions/arm_conv_f32.c:800:7
	b	.LBB16_20
.LBB16_22:                              @   in Loop: Header=BB16_18 Depth=1
	.loc	21 810 17                       @ ../Middlewares/CMSIS/DSP/Src/FilteringFunctions/arm_conv_f32.c:810:17
	ldr	r0, [sp, #28]
	.loc	21 810 12 is_stmt 0             @ ../Middlewares/CMSIS/DSP/Src/FilteringFunctions/arm_conv_f32.c:810:12
	ldr	r1, [sp, #48]
	adds	r2, r1, #4
	str	r2, [sp, #48]
	.loc	21 810 15                       @ ../Middlewares/CMSIS/DSP/Src/FilteringFunctions/arm_conv_f32.c:810:15
	str	r0, [r1]
	.loc	21 813 12 is_stmt 1             @ ../Middlewares/CMSIS/DSP/Src/FilteringFunctions/arm_conv_f32.c:813:12
	ldr	r0, [sp, #4]
	adds	r0, #1
	str	r0, [sp, #4]
	.loc	21 816 12                       @ ../Middlewares/CMSIS/DSP/Src/FilteringFunctions/arm_conv_f32.c:816:12
	ldr	r0, [sp, #56]
	.loc	21 816 19 is_stmt 0             @ ../Middlewares/CMSIS/DSP/Src/FilteringFunctions/arm_conv_f32.c:816:19
	ldr	r1, [sp, #4]
	.loc	21 816 17                       @ ../Middlewares/CMSIS/DSP/Src/FilteringFunctions/arm_conv_f32.c:816:17
	add.w	r0, r0, r1, lsl #2
	.loc	21 816 10                       @ ../Middlewares/CMSIS/DSP/Src/FilteringFunctions/arm_conv_f32.c:816:10
	str	r0, [sp, #44]
	.loc	21 817 12 is_stmt 1             @ ../Middlewares/CMSIS/DSP/Src/FilteringFunctions/arm_conv_f32.c:817:12
	ldr	r0, [sp, #32]
	.loc	21 817 10 is_stmt 0             @ ../Middlewares/CMSIS/DSP/Src/FilteringFunctions/arm_conv_f32.c:817:10
	str	r0, [sp, #40]
	.loc	21 820 13 is_stmt 1             @ ../Middlewares/CMSIS/DSP/Src/FilteringFunctions/arm_conv_f32.c:820:13
	ldr	r0, [sp]
	subs	r0, #1
	str	r0, [sp]
.Ltmp145:
	.loc	21 792 5                        @ ../Middlewares/CMSIS/DSP/Src/FilteringFunctions/arm_conv_f32.c:792:5
	b	.LBB16_18
.Ltmp146:
.LBB16_23:
	.loc	21 0 5 is_stmt 0                @ ../Middlewares/CMSIS/DSP/Src/FilteringFunctions/arm_conv_f32.c:0:5
	b	.LBB16_24
.LBB16_24:
	.loc	21 840 11 is_stmt 1             @ ../Middlewares/CMSIS/DSP/Src/FilteringFunctions/arm_conv_f32.c:840:11
	ldr	r0, [sp, #56]
	.loc	21 840 19 is_stmt 0             @ ../Middlewares/CMSIS/DSP/Src/FilteringFunctions/arm_conv_f32.c:840:19
	ldr	r1, [sp, #68]
	.loc	21 840 30                       @ ../Middlewares/CMSIS/DSP/Src/FilteringFunctions/arm_conv_f32.c:840:30
	ldr	r2, [sp, #60]
	.loc	21 840 27                       @ ../Middlewares/CMSIS/DSP/Src/FilteringFunctions/arm_conv_f32.c:840:27
	subs	r1, r1, r2
	.loc	21 840 16                       @ ../Middlewares/CMSIS/DSP/Src/FilteringFunctions/arm_conv_f32.c:840:16
	add.w	r0, r0, r1, lsl #2
	adds	r0, #4
	.loc	21 840 9                        @ ../Middlewares/CMSIS/DSP/Src/FilteringFunctions/arm_conv_f32.c:840:9
	str	r0, [sp, #36]
	.loc	21 841 8 is_stmt 1              @ ../Middlewares/CMSIS/DSP/Src/FilteringFunctions/arm_conv_f32.c:841:8
	ldr	r0, [sp, #36]
	.loc	21 841 6 is_stmt 0              @ ../Middlewares/CMSIS/DSP/Src/FilteringFunctions/arm_conv_f32.c:841:6
	str	r0, [sp, #44]
	.loc	21 844 11 is_stmt 1             @ ../Middlewares/CMSIS/DSP/Src/FilteringFunctions/arm_conv_f32.c:844:11
	ldr	r0, [sp, #52]
	.loc	21 844 19 is_stmt 0             @ ../Middlewares/CMSIS/DSP/Src/FilteringFunctions/arm_conv_f32.c:844:19
	ldr	r1, [sp, #60]
	.loc	21 844 16                       @ ../Middlewares/CMSIS/DSP/Src/FilteringFunctions/arm_conv_f32.c:844:16
	add.w	r0, r0, r1, lsl #2
	subs	r0, #4
	.loc	21 844 9                        @ ../Middlewares/CMSIS/DSP/Src/FilteringFunctions/arm_conv_f32.c:844:9
	str	r0, [sp, #32]
	.loc	21 845 8 is_stmt 1              @ ../Middlewares/CMSIS/DSP/Src/FilteringFunctions/arm_conv_f32.c:845:8
	ldr	r0, [sp, #32]
	.loc	21 845 6 is_stmt 0              @ ../Middlewares/CMSIS/DSP/Src/FilteringFunctions/arm_conv_f32.c:845:6
	str	r0, [sp, #40]
	.loc	21 850 3 is_stmt 1              @ ../Middlewares/CMSIS/DSP/Src/FilteringFunctions/arm_conv_f32.c:850:3
	b	.LBB16_25
.LBB16_25:                              @ =>This Loop Header: Depth=1
                                        @     Child Loop BB16_27 Depth 2
	.loc	21 850 10 is_stmt 0             @ ../Middlewares/CMSIS/DSP/Src/FilteringFunctions/arm_conv_f32.c:850:10
	ldr	r0, [sp, #16]
	.loc	21 850 3                        @ ../Middlewares/CMSIS/DSP/Src/FilteringFunctions/arm_conv_f32.c:850:3
	cbz	r0, .LBB16_30
	b	.LBB16_26
.LBB16_26:                              @   in Loop: Header=BB16_25 Depth=1
	.loc	21 0 3                          @ ../Middlewares/CMSIS/DSP/Src/FilteringFunctions/arm_conv_f32.c:0:3
	movs	r0, #0
.Ltmp147:
	.loc	21 853 9 is_stmt 1              @ ../Middlewares/CMSIS/DSP/Src/FilteringFunctions/arm_conv_f32.c:853:9
	str	r0, [sp, #28]
	.loc	21 911 9                        @ ../Middlewares/CMSIS/DSP/Src/FilteringFunctions/arm_conv_f32.c:911:9
	ldr	r0, [sp, #16]
	.loc	21 911 7 is_stmt 0              @ ../Middlewares/CMSIS/DSP/Src/FilteringFunctions/arm_conv_f32.c:911:7
	str	r0, [sp, #8]
	.loc	21 915 5 is_stmt 1              @ ../Middlewares/CMSIS/DSP/Src/FilteringFunctions/arm_conv_f32.c:915:5
	b	.LBB16_27
.LBB16_27:                              @   Parent Loop BB16_25 Depth=1
                                        @ =>  This Inner Loop Header: Depth=2
	.loc	21 915 12 is_stmt 0             @ ../Middlewares/CMSIS/DSP/Src/FilteringFunctions/arm_conv_f32.c:915:12
	ldr	r0, [sp, #8]
	.loc	21 915 5                        @ ../Middlewares/CMSIS/DSP/Src/FilteringFunctions/arm_conv_f32.c:915:5
	cbz	r0, .LBB16_29
	b	.LBB16_28
.LBB16_28:                              @   in Loop: Header=BB16_27 Depth=2
.Ltmp148:
	.loc	21 919 17 is_stmt 1             @ ../Middlewares/CMSIS/DSP/Src/FilteringFunctions/arm_conv_f32.c:919:17
	ldr	r0, [sp, #44]
	adds	r1, r0, #4
	str	r1, [sp, #44]
	.loc	21 919 14 is_stmt 0             @ ../Middlewares/CMSIS/DSP/Src/FilteringFunctions/arm_conv_f32.c:919:14
	vldr	s0, [r0]
	.loc	21 919 25                       @ ../Middlewares/CMSIS/DSP/Src/FilteringFunctions/arm_conv_f32.c:919:25
	ldr	r0, [sp, #40]
	subs	r1, r0, #4
	str	r1, [sp, #40]
	.loc	21 919 22                       @ ../Middlewares/CMSIS/DSP/Src/FilteringFunctions/arm_conv_f32.c:919:22
	vldr	s4, [r0]
	.loc	21 919 11                       @ ../Middlewares/CMSIS/DSP/Src/FilteringFunctions/arm_conv_f32.c:919:11
	vldr	s2, [sp, #28]
	vmul.f32	s0, s0, s4
	vadd.f32	s0, s0, s2
	vstr	s0, [sp, #28]
	.loc	21 922 8 is_stmt 1              @ ../Middlewares/CMSIS/DSP/Src/FilteringFunctions/arm_conv_f32.c:922:8
	ldr	r0, [sp, #8]
	subs	r0, #1
	str	r0, [sp, #8]
.Ltmp149:
	.loc	21 915 5                        @ ../Middlewares/CMSIS/DSP/Src/FilteringFunctions/arm_conv_f32.c:915:5
	b	.LBB16_27
.LBB16_29:                              @   in Loop: Header=BB16_25 Depth=1
	.loc	21 926 15                       @ ../Middlewares/CMSIS/DSP/Src/FilteringFunctions/arm_conv_f32.c:926:15
	ldr	r0, [sp, #28]
	.loc	21 926 10 is_stmt 0             @ ../Middlewares/CMSIS/DSP/Src/FilteringFunctions/arm_conv_f32.c:926:10
	ldr	r1, [sp, #48]
	adds	r2, r1, #4
	str	r2, [sp, #48]
	.loc	21 926 13                       @ ../Middlewares/CMSIS/DSP/Src/FilteringFunctions/arm_conv_f32.c:926:13
	str	r0, [r1]
	.loc	21 929 10 is_stmt 1             @ ../Middlewares/CMSIS/DSP/Src/FilteringFunctions/arm_conv_f32.c:929:10
	ldr	r0, [sp, #36]
	adds	r0, #4
	str	r0, [sp, #36]
	.loc	21 929 8 is_stmt 0              @ ../Middlewares/CMSIS/DSP/Src/FilteringFunctions/arm_conv_f32.c:929:8
	str	r0, [sp, #44]
	.loc	21 930 10 is_stmt 1             @ ../Middlewares/CMSIS/DSP/Src/FilteringFunctions/arm_conv_f32.c:930:10
	ldr	r0, [sp, #32]
	.loc	21 930 8 is_stmt 0              @ ../Middlewares/CMSIS/DSP/Src/FilteringFunctions/arm_conv_f32.c:930:8
	str	r0, [sp, #40]
	.loc	21 933 15 is_stmt 1             @ ../Middlewares/CMSIS/DSP/Src/FilteringFunctions/arm_conv_f32.c:933:15
	ldr	r0, [sp, #16]
	subs	r0, #1
	str	r0, [sp, #16]
.Ltmp150:
	.loc	21 850 3                        @ ../Middlewares/CMSIS/DSP/Src/FilteringFunctions/arm_conv_f32.c:850:3
	b	.LBB16_25
.LBB16_30:
	.loc	21 967 1                        @ ../Middlewares/CMSIS/DSP/Src/FilteringFunctions/arm_conv_f32.c:967:1
	add	sp, #76
	bx	lr
.Ltmp151:
.Lfunc_end16:
	.size	arm_conv_f32, .Lfunc_end16-arm_conv_f32
	.cfi_endproc
	.cantunwind
	.fnend
                                        @ -- End function
	.section	.text.arm_conv_fast_opt_q15,"ax",%progbits
	.hidden	arm_conv_fast_opt_q15           @ -- Begin function arm_conv_fast_opt_q15
	.globl	arm_conv_fast_opt_q15
	.p2align	2
	.type	arm_conv_fast_opt_q15,%function
	.code	16                              @ @arm_conv_fast_opt_q15
	.thumb_func
arm_conv_fast_opt_q15:
.Lfunc_begin17:
	.file	22 "D:\\horizon\\Horizon_Infantry (2)\\MDK-ARM" "../Middlewares/CMSIS/DSP/Src/FilteringFunctions/arm_conv_fast_opt_q15.c"
	.loc	22 73 0                         @ ../Middlewares/CMSIS/DSP/Src/FilteringFunctions/arm_conv_fast_opt_q15.c:73:0
	.fnstart
	.cfi_startproc
@ %bb.0:
	.save	{r7, lr}
	push	{r7, lr}
	.cfi_def_cfa_offset 8
	.cfi_offset lr, -4
	.cfi_offset r7, -8
	.pad	#72
	sub	sp, #72
	.cfi_def_cfa_offset 80
	ldr.w	r12, [sp, #88]
	ldr.w	r12, [sp, #84]
	ldr.w	r12, [sp, #80]
	str	r0, [sp, #68]
	str	r1, [sp, #64]
	str	r2, [sp, #60]
	str	r3, [sp, #56]
.Ltmp152:
	.loc	22 77 23 prologue_end           @ ../Middlewares/CMSIS/DSP/Src/FilteringFunctions/arm_conv_fast_opt_q15.c:77:23
	ldr	r0, [sp, #80]
	.loc	22 77 16 is_stmt 0              @ ../Middlewares/CMSIS/DSP/Src/FilteringFunctions/arm_conv_fast_opt_q15.c:77:16
	str	r0, [sp, #40]
	.loc	22 78 24 is_stmt 1              @ ../Middlewares/CMSIS/DSP/Src/FilteringFunctions/arm_conv_fast_opt_q15.c:78:24
	ldr	r0, [sp, #84]
	.loc	22 78 16 is_stmt 0              @ ../Middlewares/CMSIS/DSP/Src/FilteringFunctions/arm_conv_fast_opt_q15.c:78:16
	str	r0, [sp, #36]
	.loc	22 79 24 is_stmt 1              @ ../Middlewares/CMSIS/DSP/Src/FilteringFunctions/arm_conv_fast_opt_q15.c:79:24
	ldr	r0, [sp, #88]
	.loc	22 79 16 is_stmt 0              @ ../Middlewares/CMSIS/DSP/Src/FilteringFunctions/arm_conv_fast_opt_q15.c:79:16
	str	r0, [sp, #32]
.Ltmp153:
	.loc	22 95 7 is_stmt 1               @ ../Middlewares/CMSIS/DSP/Src/FilteringFunctions/arm_conv_fast_opt_q15.c:95:7
	ldr	r0, [sp, #64]
	.loc	22 95 18 is_stmt 0              @ ../Middlewares/CMSIS/DSP/Src/FilteringFunctions/arm_conv_fast_opt_q15.c:95:18
	ldr	r1, [sp, #56]
.Ltmp154:
	.loc	22 95 7                         @ ../Middlewares/CMSIS/DSP/Src/FilteringFunctions/arm_conv_fast_opt_q15.c:95:7
	cmp	r0, r1
	blo	.LBB17_2
	b	.LBB17_1
.LBB17_1:
.Ltmp155:
	.loc	22 98 12 is_stmt 1              @ ../Middlewares/CMSIS/DSP/Src/FilteringFunctions/arm_conv_fast_opt_q15.c:98:12
	ldr	r0, [sp, #68]
	.loc	22 98 10 is_stmt 0              @ ../Middlewares/CMSIS/DSP/Src/FilteringFunctions/arm_conv_fast_opt_q15.c:98:10
	str	r0, [sp, #48]
	.loc	22 101 12 is_stmt 1             @ ../Middlewares/CMSIS/DSP/Src/FilteringFunctions/arm_conv_fast_opt_q15.c:101:12
	ldr	r0, [sp, #60]
	.loc	22 101 10 is_stmt 0             @ ../Middlewares/CMSIS/DSP/Src/FilteringFunctions/arm_conv_fast_opt_q15.c:101:10
	str	r0, [sp, #44]
	.loc	22 102 3 is_stmt 1              @ ../Middlewares/CMSIS/DSP/Src/FilteringFunctions/arm_conv_fast_opt_q15.c:102:3
	b	.LBB17_3
.Ltmp156:
.LBB17_2:
	.loc	22 106 12                       @ ../Middlewares/CMSIS/DSP/Src/FilteringFunctions/arm_conv_fast_opt_q15.c:106:12
	ldr	r0, [sp, #60]
	.loc	22 106 10 is_stmt 0             @ ../Middlewares/CMSIS/DSP/Src/FilteringFunctions/arm_conv_fast_opt_q15.c:106:10
	str	r0, [sp, #48]
	.loc	22 109 12 is_stmt 1             @ ../Middlewares/CMSIS/DSP/Src/FilteringFunctions/arm_conv_fast_opt_q15.c:109:12
	ldr	r0, [sp, #68]
	.loc	22 109 10 is_stmt 0             @ ../Middlewares/CMSIS/DSP/Src/FilteringFunctions/arm_conv_fast_opt_q15.c:109:10
	str	r0, [sp, #44]
	.loc	22 112 9 is_stmt 1              @ ../Middlewares/CMSIS/DSP/Src/FilteringFunctions/arm_conv_fast_opt_q15.c:112:9
	ldr	r0, [sp, #56]
	.loc	22 112 7 is_stmt 0              @ ../Middlewares/CMSIS/DSP/Src/FilteringFunctions/arm_conv_fast_opt_q15.c:112:7
	str	r0, [sp, #20]
	.loc	22 113 15 is_stmt 1             @ ../Middlewares/CMSIS/DSP/Src/FilteringFunctions/arm_conv_fast_opt_q15.c:113:15
	ldr	r0, [sp, #64]
	.loc	22 113 13 is_stmt 0             @ ../Middlewares/CMSIS/DSP/Src/FilteringFunctions/arm_conv_fast_opt_q15.c:113:13
	str	r0, [sp, #56]
	.loc	22 114 15 is_stmt 1             @ ../Middlewares/CMSIS/DSP/Src/FilteringFunctions/arm_conv_fast_opt_q15.c:114:15
	ldr	r0, [sp, #20]
	.loc	22 114 13 is_stmt 0             @ ../Middlewares/CMSIS/DSP/Src/FilteringFunctions/arm_conv_fast_opt_q15.c:114:13
	str	r0, [sp, #64]
	b	.LBB17_3
.Ltmp157:
.LBB17_3:
	.loc	22 118 11 is_stmt 1             @ ../Middlewares/CMSIS/DSP/Src/FilteringFunctions/arm_conv_fast_opt_q15.c:118:11
	ldr	r0, [sp, #88]
	.loc	22 118 23 is_stmt 0             @ ../Middlewares/CMSIS/DSP/Src/FilteringFunctions/arm_conv_fast_opt_q15.c:118:23
	ldr	r1, [sp, #56]
	.loc	22 118 21                       @ ../Middlewares/CMSIS/DSP/Src/FilteringFunctions/arm_conv_fast_opt_q15.c:118:21
	add.w	r0, r0, r1, lsl #1
	.loc	22 118 31                       @ ../Middlewares/CMSIS/DSP/Src/FilteringFunctions/arm_conv_fast_opt_q15.c:118:31
	subs	r0, #2
	.loc	22 118 9                        @ ../Middlewares/CMSIS/DSP/Src/FilteringFunctions/arm_conv_fast_opt_q15.c:118:9
	str	r0, [sp, #32]
	.loc	22 121 8 is_stmt 1              @ ../Middlewares/CMSIS/DSP/Src/FilteringFunctions/arm_conv_fast_opt_q15.c:121:8
	ldr	r0, [sp, #44]
	.loc	22 121 6 is_stmt 0              @ ../Middlewares/CMSIS/DSP/Src/FilteringFunctions/arm_conv_fast_opt_q15.c:121:6
	str	r0, [sp, #28]
	.loc	22 147 7 is_stmt 1              @ ../Middlewares/CMSIS/DSP/Src/FilteringFunctions/arm_conv_fast_opt_q15.c:147:7
	ldr	r0, [sp, #56]
	.loc	22 147 5 is_stmt 0              @ ../Middlewares/CMSIS/DSP/Src/FilteringFunctions/arm_conv_fast_opt_q15.c:147:5
	str	r0, [sp, #16]
	.loc	22 151 3 is_stmt 1              @ ../Middlewares/CMSIS/DSP/Src/FilteringFunctions/arm_conv_fast_opt_q15.c:151:3
	b	.LBB17_4
.LBB17_4:                               @ =>This Inner Loop Header: Depth=1
	.loc	22 151 10 is_stmt 0             @ ../Middlewares/CMSIS/DSP/Src/FilteringFunctions/arm_conv_fast_opt_q15.c:151:10
	ldr	r0, [sp, #16]
	.loc	22 151 3                        @ ../Middlewares/CMSIS/DSP/Src/FilteringFunctions/arm_conv_fast_opt_q15.c:151:3
	cbz	r0, .LBB17_6
	b	.LBB17_5
.LBB17_5:                               @   in Loop: Header=BB17_4 Depth=1
.Ltmp158:
	.loc	22 154 19 is_stmt 1             @ ../Middlewares/CMSIS/DSP/Src/FilteringFunctions/arm_conv_fast_opt_q15.c:154:19
	ldr	r0, [sp, #28]
	adds	r1, r0, #2
	str	r1, [sp, #28]
	.loc	22 154 16 is_stmt 0             @ ../Middlewares/CMSIS/DSP/Src/FilteringFunctions/arm_conv_fast_opt_q15.c:154:16
	ldrh	r0, [r0]
	.loc	22 154 11                       @ ../Middlewares/CMSIS/DSP/Src/FilteringFunctions/arm_conv_fast_opt_q15.c:154:11
	ldr	r1, [sp, #32]
	subs	r2, r1, #2
	str	r2, [sp, #32]
	.loc	22 154 14                       @ ../Middlewares/CMSIS/DSP/Src/FilteringFunctions/arm_conv_fast_opt_q15.c:154:14
	strh	r0, [r1]
	.loc	22 157 6 is_stmt 1              @ ../Middlewares/CMSIS/DSP/Src/FilteringFunctions/arm_conv_fast_opt_q15.c:157:6
	ldr	r0, [sp, #16]
	subs	r0, #1
	str	r0, [sp, #16]
.Ltmp159:
	.loc	22 151 3                        @ ../Middlewares/CMSIS/DSP/Src/FilteringFunctions/arm_conv_fast_opt_q15.c:151:3
	b	.LBB17_4
.LBB17_6:
	.loc	22 161 11                       @ ../Middlewares/CMSIS/DSP/Src/FilteringFunctions/arm_conv_fast_opt_q15.c:161:11
	ldr	r0, [sp, #84]
	.loc	22 161 9 is_stmt 0              @ ../Middlewares/CMSIS/DSP/Src/FilteringFunctions/arm_conv_fast_opt_q15.c:161:9
	str	r0, [sp, #36]
	.loc	22 165 19 is_stmt 1             @ ../Middlewares/CMSIS/DSP/Src/FilteringFunctions/arm_conv_fast_opt_q15.c:165:19
	ldr	r1, [sp, #36]
	.loc	22 165 27 is_stmt 0             @ ../Middlewares/CMSIS/DSP/Src/FilteringFunctions/arm_conv_fast_opt_q15.c:165:27
	ldr	r0, [sp, #56]
	.loc	22 165 35                       @ ../Middlewares/CMSIS/DSP/Src/FilteringFunctions/arm_conv_fast_opt_q15.c:165:35
	subs	r2, r0, #1
	movs	r0, #0
	.loc	22 165 3                        @ ../Middlewares/CMSIS/DSP/Src/FilteringFunctions/arm_conv_fast_opt_q15.c:165:3
	str	r0, [sp, #4]                    @ 4-byte Spill
	bl	arm_fill_q15
	.loc	22 168 13 is_stmt 1             @ ../Middlewares/CMSIS/DSP/Src/FilteringFunctions/arm_conv_fast_opt_q15.c:168:13
	ldr	r1, [sp, #56]
	.loc	22 168 9 is_stmt 0              @ ../Middlewares/CMSIS/DSP/Src/FilteringFunctions/arm_conv_fast_opt_q15.c:168:9
	ldr	r0, [sp, #36]
	add.w	r0, r0, r1, lsl #1
	subs	r0, #2
	str	r0, [sp, #36]
	.loc	22 173 16 is_stmt 1             @ ../Middlewares/CMSIS/DSP/Src/FilteringFunctions/arm_conv_fast_opt_q15.c:173:16
	ldr	r0, [sp, #48]
	.loc	22 173 22 is_stmt 0             @ ../Middlewares/CMSIS/DSP/Src/FilteringFunctions/arm_conv_fast_opt_q15.c:173:22
	ldr	r1, [sp, #36]
	.loc	22 173 29                       @ ../Middlewares/CMSIS/DSP/Src/FilteringFunctions/arm_conv_fast_opt_q15.c:173:29
	ldr	r2, [sp, #64]
	.loc	22 173 3                        @ ../Middlewares/CMSIS/DSP/Src/FilteringFunctions/arm_conv_fast_opt_q15.c:173:3
	bl	arm_copy_q15
	ldr	r0, [sp, #4]                    @ 4-byte Reload
	.loc	22 176 12 is_stmt 1             @ ../Middlewares/CMSIS/DSP/Src/FilteringFunctions/arm_conv_fast_opt_q15.c:176:12
	ldr	r2, [sp, #64]
	.loc	22 176 9 is_stmt 0              @ ../Middlewares/CMSIS/DSP/Src/FilteringFunctions/arm_conv_fast_opt_q15.c:176:9
	ldr	r1, [sp, #36]
	add.w	r1, r1, r2, lsl #1
	str	r1, [sp, #36]
	.loc	22 180 19 is_stmt 1             @ ../Middlewares/CMSIS/DSP/Src/FilteringFunctions/arm_conv_fast_opt_q15.c:180:19
	ldr	r1, [sp, #36]
	.loc	22 180 27 is_stmt 0             @ ../Middlewares/CMSIS/DSP/Src/FilteringFunctions/arm_conv_fast_opt_q15.c:180:27
	ldr	r2, [sp, #56]
	.loc	22 180 35                       @ ../Middlewares/CMSIS/DSP/Src/FilteringFunctions/arm_conv_fast_opt_q15.c:180:35
	subs	r2, #1
	.loc	22 180 3                        @ ../Middlewares/CMSIS/DSP/Src/FilteringFunctions/arm_conv_fast_opt_q15.c:180:3
	bl	arm_fill_q15
	.loc	22 183 13 is_stmt 1             @ ../Middlewares/CMSIS/DSP/Src/FilteringFunctions/arm_conv_fast_opt_q15.c:183:13
	ldr	r1, [sp, #56]
	.loc	22 183 9 is_stmt 0              @ ../Middlewares/CMSIS/DSP/Src/FilteringFunctions/arm_conv_fast_opt_q15.c:183:9
	ldr	r0, [sp, #36]
	add.w	r0, r0, r1, lsl #1
	subs	r0, #2
	str	r0, [sp, #36]
	.loc	22 186 8 is_stmt 1              @ ../Middlewares/CMSIS/DSP/Src/FilteringFunctions/arm_conv_fast_opt_q15.c:186:8
	ldr	r0, [sp, #88]
	.loc	22 186 6 is_stmt 0              @ ../Middlewares/CMSIS/DSP/Src/FilteringFunctions/arm_conv_fast_opt_q15.c:186:6
	str	r0, [sp, #24]
	.loc	22 190 10 is_stmt 1             @ ../Middlewares/CMSIS/DSP/Src/FilteringFunctions/arm_conv_fast_opt_q15.c:190:10
	ldr	r0, [sp, #24]
	.loc	22 190 8 is_stmt 0              @ ../Middlewares/CMSIS/DSP/Src/FilteringFunctions/arm_conv_fast_opt_q15.c:190:8
	str	r0, [sp, #44]
	.loc	22 311 13 is_stmt 1             @ ../Middlewares/CMSIS/DSP/Src/FilteringFunctions/arm_conv_fast_opt_q15.c:311:13
	ldr	r0, [sp, #64]
	.loc	22 311 23 is_stmt 0             @ ../Middlewares/CMSIS/DSP/Src/FilteringFunctions/arm_conv_fast_opt_q15.c:311:23
	ldr	r1, [sp, #56]
	.loc	22 311 21                       @ ../Middlewares/CMSIS/DSP/Src/FilteringFunctions/arm_conv_fast_opt_q15.c:311:21
	add	r0, r1
	.loc	22 311 31                       @ ../Middlewares/CMSIS/DSP/Src/FilteringFunctions/arm_conv_fast_opt_q15.c:311:31
	subs	r0, #1
	.loc	22 311 10                       @ ../Middlewares/CMSIS/DSP/Src/FilteringFunctions/arm_conv_fast_opt_q15.c:311:10
	str	r0, [sp, #12]
	.loc	22 316 3 is_stmt 1              @ ../Middlewares/CMSIS/DSP/Src/FilteringFunctions/arm_conv_fast_opt_q15.c:316:3
	b	.LBB17_7
.LBB17_7:                               @ =>This Loop Header: Depth=1
                                        @     Child Loop BB17_9 Depth 2
                                        @     Child Loop BB17_12 Depth 2
	.loc	22 316 10 is_stmt 0             @ ../Middlewares/CMSIS/DSP/Src/FilteringFunctions/arm_conv_fast_opt_q15.c:316:10
	ldr	r0, [sp, #12]
	.loc	22 316 3                        @ ../Middlewares/CMSIS/DSP/Src/FilteringFunctions/arm_conv_fast_opt_q15.c:316:3
	cmp	r0, #0
	beq	.LBB17_15
	b	.LBB17_8
.LBB17_8:                               @   in Loop: Header=BB17_7 Depth=1
.Ltmp160:
	.loc	22 319 13 is_stmt 1             @ ../Middlewares/CMSIS/DSP/Src/FilteringFunctions/arm_conv_fast_opt_q15.c:319:13
	ldr	r0, [sp, #84]
	.loc	22 319 11 is_stmt 0             @ ../Middlewares/CMSIS/DSP/Src/FilteringFunctions/arm_conv_fast_opt_q15.c:319:11
	str	r0, [sp, #36]
	movs	r0, #0
	.loc	22 322 10 is_stmt 1             @ ../Middlewares/CMSIS/DSP/Src/FilteringFunctions/arm_conv_fast_opt_q15.c:322:10
	str	r0, [sp, #52]
	.loc	22 324 15                       @ ../Middlewares/CMSIS/DSP/Src/FilteringFunctions/arm_conv_fast_opt_q15.c:324:15
	ldr	r0, [sp, #56]
	.loc	22 324 24 is_stmt 0             @ ../Middlewares/CMSIS/DSP/Src/FilteringFunctions/arm_conv_fast_opt_q15.c:324:24
	lsrs	r0, r0, #1
	.loc	22 324 12                       @ ../Middlewares/CMSIS/DSP/Src/FilteringFunctions/arm_conv_fast_opt_q15.c:324:12
	str	r0, [sp, #8]
	.loc	22 326 5 is_stmt 1              @ ../Middlewares/CMSIS/DSP/Src/FilteringFunctions/arm_conv_fast_opt_q15.c:326:5
	b	.LBB17_9
.LBB17_9:                               @   Parent Loop BB17_7 Depth=1
                                        @ =>  This Inner Loop Header: Depth=2
	.loc	22 326 12 is_stmt 0             @ ../Middlewares/CMSIS/DSP/Src/FilteringFunctions/arm_conv_fast_opt_q15.c:326:12
	ldr	r0, [sp, #8]
	.loc	22 326 5                        @ ../Middlewares/CMSIS/DSP/Src/FilteringFunctions/arm_conv_fast_opt_q15.c:326:5
	cbz	r0, .LBB17_11
	b	.LBB17_10
.LBB17_10:                              @   in Loop: Header=BB17_9 Depth=2
.Ltmp161:
	.loc	22 330 22 is_stmt 1             @ ../Middlewares/CMSIS/DSP/Src/FilteringFunctions/arm_conv_fast_opt_q15.c:330:22
	ldr	r0, [sp, #36]
	adds	r1, r0, #2
	str	r1, [sp, #36]
	.loc	22 330 16 is_stmt 0             @ ../Middlewares/CMSIS/DSP/Src/FilteringFunctions/arm_conv_fast_opt_q15.c:330:16
	ldrsh.w	r0, [r0]
	.loc	22 330 32                       @ ../Middlewares/CMSIS/DSP/Src/FilteringFunctions/arm_conv_fast_opt_q15.c:330:32
	ldr	r1, [sp, #44]
	adds	r2, r1, #2
	str	r2, [sp, #44]
	.loc	22 330 27                       @ ../Middlewares/CMSIS/DSP/Src/FilteringFunctions/arm_conv_fast_opt_q15.c:330:27
	ldrsh.w	r1, [r1]
	.loc	22 330 12                       @ ../Middlewares/CMSIS/DSP/Src/FilteringFunctions/arm_conv_fast_opt_q15.c:330:12
	ldr	r2, [sp, #52]
	smlabb	r0, r0, r1, r2
	str	r0, [sp, #52]
	.loc	22 331 22 is_stmt 1             @ ../Middlewares/CMSIS/DSP/Src/FilteringFunctions/arm_conv_fast_opt_q15.c:331:22
	ldr	r0, [sp, #36]
	adds	r1, r0, #2
	str	r1, [sp, #36]
	.loc	22 331 16 is_stmt 0             @ ../Middlewares/CMSIS/DSP/Src/FilteringFunctions/arm_conv_fast_opt_q15.c:331:16
	ldrsh.w	r0, [r0]
	.loc	22 331 32                       @ ../Middlewares/CMSIS/DSP/Src/FilteringFunctions/arm_conv_fast_opt_q15.c:331:32
	ldr	r1, [sp, #44]
	adds	r2, r1, #2
	str	r2, [sp, #44]
	.loc	22 331 27                       @ ../Middlewares/CMSIS/DSP/Src/FilteringFunctions/arm_conv_fast_opt_q15.c:331:27
	ldrsh.w	r1, [r1]
	.loc	22 331 12                       @ ../Middlewares/CMSIS/DSP/Src/FilteringFunctions/arm_conv_fast_opt_q15.c:331:12
	ldr	r2, [sp, #52]
	smlabb	r0, r0, r1, r2
	str	r0, [sp, #52]
	.loc	22 334 13 is_stmt 1             @ ../Middlewares/CMSIS/DSP/Src/FilteringFunctions/arm_conv_fast_opt_q15.c:334:13
	ldr	r0, [sp, #8]
	subs	r0, #1
	str	r0, [sp, #8]
.Ltmp162:
	.loc	22 326 5                        @ ../Middlewares/CMSIS/DSP/Src/FilteringFunctions/arm_conv_fast_opt_q15.c:326:5
	b	.LBB17_9
.LBB17_11:                              @   in Loop: Header=BB17_7 Depth=1
	.loc	22 337 15                       @ ../Middlewares/CMSIS/DSP/Src/FilteringFunctions/arm_conv_fast_opt_q15.c:337:15
	ldr	r0, [sp, #56]
	.loc	22 337 24 is_stmt 0             @ ../Middlewares/CMSIS/DSP/Src/FilteringFunctions/arm_conv_fast_opt_q15.c:337:24
	and	r0, r0, #1
	.loc	22 337 12                       @ ../Middlewares/CMSIS/DSP/Src/FilteringFunctions/arm_conv_fast_opt_q15.c:337:12
	str	r0, [sp, #8]
	.loc	22 340 5 is_stmt 1              @ ../Middlewares/CMSIS/DSP/Src/FilteringFunctions/arm_conv_fast_opt_q15.c:340:5
	b	.LBB17_12
.LBB17_12:                              @   Parent Loop BB17_7 Depth=1
                                        @ =>  This Inner Loop Header: Depth=2
	.loc	22 340 12 is_stmt 0             @ ../Middlewares/CMSIS/DSP/Src/FilteringFunctions/arm_conv_fast_opt_q15.c:340:12
	ldr	r0, [sp, #8]
	.loc	22 340 5                        @ ../Middlewares/CMSIS/DSP/Src/FilteringFunctions/arm_conv_fast_opt_q15.c:340:5
	cbz	r0, .LBB17_14
	b	.LBB17_13
.LBB17_13:                              @   in Loop: Header=BB17_12 Depth=2
.Ltmp163:
	.loc	22 344 22 is_stmt 1             @ ../Middlewares/CMSIS/DSP/Src/FilteringFunctions/arm_conv_fast_opt_q15.c:344:22
	ldr	r0, [sp, #36]
	adds	r1, r0, #2
	str	r1, [sp, #36]
	.loc	22 344 16 is_stmt 0             @ ../Middlewares/CMSIS/DSP/Src/FilteringFunctions/arm_conv_fast_opt_q15.c:344:16
	ldrsh.w	r0, [r0]
	.loc	22 344 32                       @ ../Middlewares/CMSIS/DSP/Src/FilteringFunctions/arm_conv_fast_opt_q15.c:344:32
	ldr	r1, [sp, #44]
	adds	r2, r1, #2
	str	r2, [sp, #44]
	.loc	22 344 27                       @ ../Middlewares/CMSIS/DSP/Src/FilteringFunctions/arm_conv_fast_opt_q15.c:344:27
	ldrsh.w	r1, [r1]
	.loc	22 344 12                       @ ../Middlewares/CMSIS/DSP/Src/FilteringFunctions/arm_conv_fast_opt_q15.c:344:12
	ldr	r2, [sp, #52]
	smlabb	r0, r0, r1, r2
	str	r0, [sp, #52]
	.loc	22 347 13 is_stmt 1             @ ../Middlewares/CMSIS/DSP/Src/FilteringFunctions/arm_conv_fast_opt_q15.c:347:13
	ldr	r0, [sp, #8]
	subs	r0, #1
	str	r0, [sp, #8]
.Ltmp164:
	.loc	22 340 5                        @ ../Middlewares/CMSIS/DSP/Src/FilteringFunctions/arm_conv_fast_opt_q15.c:340:5
	b	.LBB17_12
.LBB17_14:                              @   in Loop: Header=BB17_7 Depth=1
	.loc	22 350 11                       @ ../Middlewares/CMSIS/DSP/Src/FilteringFunctions/arm_conv_fast_opt_q15.c:350:11
	ldr	r0, [sp, #12]
	subs	r0, #1
	str	r0, [sp, #12]
	.loc	22 354 44                       @ ../Middlewares/CMSIS/DSP/Src/FilteringFunctions/arm_conv_fast_opt_q15.c:354:44
	ldr	r0, [sp, #52]
	.loc	22 354 24 is_stmt 0             @ ../Middlewares/CMSIS/DSP/Src/FilteringFunctions/arm_conv_fast_opt_q15.c:354:24
	ssat	r0, #16, r0, asr #15
	.loc	22 354 10                       @ ../Middlewares/CMSIS/DSP/Src/FilteringFunctions/arm_conv_fast_opt_q15.c:354:10
	ldr	r1, [sp, #40]
	adds	r2, r1, #2
	str	r2, [sp, #40]
	.loc	22 354 13                       @ ../Middlewares/CMSIS/DSP/Src/FilteringFunctions/arm_conv_fast_opt_q15.c:354:13
	strh	r0, [r1]
	.loc	22 357 12 is_stmt 1             @ ../Middlewares/CMSIS/DSP/Src/FilteringFunctions/arm_conv_fast_opt_q15.c:357:12
	ldr	r0, [sp, #24]
	.loc	22 357 10 is_stmt 0             @ ../Middlewares/CMSIS/DSP/Src/FilteringFunctions/arm_conv_fast_opt_q15.c:357:10
	str	r0, [sp, #44]
	.loc	22 359 15 is_stmt 1             @ ../Middlewares/CMSIS/DSP/Src/FilteringFunctions/arm_conv_fast_opt_q15.c:359:15
	ldr	r0, [sp, #84]
	adds	r0, #2
	str	r0, [sp, #84]
.Ltmp165:
	.loc	22 316 3                        @ ../Middlewares/CMSIS/DSP/Src/FilteringFunctions/arm_conv_fast_opt_q15.c:316:3
	b	.LBB17_7
.LBB17_15:
	.loc	22 362 1                        @ ../Middlewares/CMSIS/DSP/Src/FilteringFunctions/arm_conv_fast_opt_q15.c:362:1
	add	sp, #72
	pop	{r7, pc}
.Ltmp166:
.Lfunc_end17:
	.size	arm_conv_fast_opt_q15, .Lfunc_end17-arm_conv_fast_opt_q15
	.cfi_endproc
	.cantunwind
	.fnend
                                        @ -- End function
	.section	.text.arm_conv_fast_q15,"ax",%progbits
	.hidden	arm_conv_fast_q15               @ -- Begin function arm_conv_fast_q15
	.globl	arm_conv_fast_q15
	.p2align	2
	.type	arm_conv_fast_q15,%function
	.code	16                              @ @arm_conv_fast_q15
	.thumb_func
arm_conv_fast_q15:
.Lfunc_begin18:
	.file	23 "D:\\horizon\\Horizon_Infantry (2)\\MDK-ARM" "../Middlewares/CMSIS/DSP/Src/FilteringFunctions/arm_conv_fast_q15.c"
	.loc	23 69 0                         @ ../Middlewares/CMSIS/DSP/Src/FilteringFunctions/arm_conv_fast_q15.c:69:0
	.fnstart
	.cfi_startproc
@ %bb.0:
	.pad	#336
	sub	sp, #336
	.cfi_def_cfa_offset 336
	ldr.w	r12, [sp, #336]
	str	r0, [sp, #116]
	str	r1, [sp, #112]
	str	r2, [sp, #108]
	str	r3, [sp, #104]
.Ltmp167:
	.loc	23 72 23 prologue_end           @ ../Middlewares/CMSIS/DSP/Src/FilteringFunctions/arm_conv_fast_q15.c:72:23
	ldr	r0, [sp, #336]
	.loc	23 72 16 is_stmt 0              @ ../Middlewares/CMSIS/DSP/Src/FilteringFunctions/arm_conv_fast_q15.c:72:16
	str	r0, [sp, #92]
.Ltmp168:
	.loc	23 84 7 is_stmt 1               @ ../Middlewares/CMSIS/DSP/Src/FilteringFunctions/arm_conv_fast_q15.c:84:7
	ldr	r0, [sp, #112]
	.loc	23 84 18 is_stmt 0              @ ../Middlewares/CMSIS/DSP/Src/FilteringFunctions/arm_conv_fast_q15.c:84:18
	ldr	r1, [sp, #104]
.Ltmp169:
	.loc	23 84 7                         @ ../Middlewares/CMSIS/DSP/Src/FilteringFunctions/arm_conv_fast_q15.c:84:7
	cmp	r0, r1
	blo	.LBB18_2
	b	.LBB18_1
.LBB18_1:
.Ltmp170:
	.loc	23 87 12 is_stmt 1              @ ../Middlewares/CMSIS/DSP/Src/FilteringFunctions/arm_conv_fast_q15.c:87:12
	ldr	r0, [sp, #116]
	.loc	23 87 10 is_stmt 0              @ ../Middlewares/CMSIS/DSP/Src/FilteringFunctions/arm_conv_fast_q15.c:87:10
	str	r0, [sp, #100]
	.loc	23 90 12 is_stmt 1              @ ../Middlewares/CMSIS/DSP/Src/FilteringFunctions/arm_conv_fast_q15.c:90:12
	ldr	r0, [sp, #108]
	.loc	23 90 10 is_stmt 0              @ ../Middlewares/CMSIS/DSP/Src/FilteringFunctions/arm_conv_fast_q15.c:90:10
	str	r0, [sp, #96]
	.loc	23 91 3 is_stmt 1               @ ../Middlewares/CMSIS/DSP/Src/FilteringFunctions/arm_conv_fast_q15.c:91:3
	b	.LBB18_3
.Ltmp171:
.LBB18_2:
	.loc	23 95 12                        @ ../Middlewares/CMSIS/DSP/Src/FilteringFunctions/arm_conv_fast_q15.c:95:12
	ldr	r0, [sp, #108]
	.loc	23 95 10 is_stmt 0              @ ../Middlewares/CMSIS/DSP/Src/FilteringFunctions/arm_conv_fast_q15.c:95:10
	str	r0, [sp, #100]
	.loc	23 98 12 is_stmt 1              @ ../Middlewares/CMSIS/DSP/Src/FilteringFunctions/arm_conv_fast_q15.c:98:12
	ldr	r0, [sp, #116]
	.loc	23 98 10 is_stmt 0              @ ../Middlewares/CMSIS/DSP/Src/FilteringFunctions/arm_conv_fast_q15.c:98:10
	str	r0, [sp, #96]
	.loc	23 101 9 is_stmt 1              @ ../Middlewares/CMSIS/DSP/Src/FilteringFunctions/arm_conv_fast_q15.c:101:9
	ldr	r0, [sp, #104]
	.loc	23 101 7 is_stmt 0              @ ../Middlewares/CMSIS/DSP/Src/FilteringFunctions/arm_conv_fast_q15.c:101:7
	str	r0, [sp, #20]
	.loc	23 102 15 is_stmt 1             @ ../Middlewares/CMSIS/DSP/Src/FilteringFunctions/arm_conv_fast_q15.c:102:15
	ldr	r0, [sp, #112]
	.loc	23 102 13 is_stmt 0             @ ../Middlewares/CMSIS/DSP/Src/FilteringFunctions/arm_conv_fast_q15.c:102:13
	str	r0, [sp, #104]
	.loc	23 103 15 is_stmt 1             @ ../Middlewares/CMSIS/DSP/Src/FilteringFunctions/arm_conv_fast_q15.c:103:15
	ldr	r0, [sp, #20]
	.loc	23 103 13 is_stmt 0             @ ../Middlewares/CMSIS/DSP/Src/FilteringFunctions/arm_conv_fast_q15.c:103:13
	str	r0, [sp, #112]
	b	.LBB18_3
.Ltmp172:
.LBB18_3:
	.loc	23 117 16 is_stmt 1             @ ../Middlewares/CMSIS/DSP/Src/FilteringFunctions/arm_conv_fast_q15.c:117:16
	ldr	r0, [sp, #104]
	.loc	23 117 24 is_stmt 0             @ ../Middlewares/CMSIS/DSP/Src/FilteringFunctions/arm_conv_fast_q15.c:117:24
	subs	r0, #1
	.loc	23 117 14                       @ ../Middlewares/CMSIS/DSP/Src/FilteringFunctions/arm_conv_fast_q15.c:117:14
	str	r0, [sp, #32]
	.loc	23 118 16 is_stmt 1             @ ../Middlewares/CMSIS/DSP/Src/FilteringFunctions/arm_conv_fast_q15.c:118:16
	ldr	r0, [sp, #112]
	.loc	23 118 27 is_stmt 0             @ ../Middlewares/CMSIS/DSP/Src/FilteringFunctions/arm_conv_fast_q15.c:118:27
	ldr	r1, [sp, #104]
	.loc	23 118 24                       @ ../Middlewares/CMSIS/DSP/Src/FilteringFunctions/arm_conv_fast_q15.c:118:24
	subs	r0, r0, r1
	adds	r0, #1
	.loc	23 118 14                       @ ../Middlewares/CMSIS/DSP/Src/FilteringFunctions/arm_conv_fast_q15.c:118:14
	str	r0, [sp, #28]
	.loc	23 119 16 is_stmt 1             @ ../Middlewares/CMSIS/DSP/Src/FilteringFunctions/arm_conv_fast_q15.c:119:16
	ldr	r0, [sp, #32]
	.loc	23 119 14 is_stmt 0             @ ../Middlewares/CMSIS/DSP/Src/FilteringFunctions/arm_conv_fast_q15.c:119:14
	str	r0, [sp, #24]
	movs	r0, #1
	.loc	23 133 9 is_stmt 1              @ ../Middlewares/CMSIS/DSP/Src/FilteringFunctions/arm_conv_fast_q15.c:133:9
	str	r0, [sp, #12]
	.loc	23 136 8                        @ ../Middlewares/CMSIS/DSP/Src/FilteringFunctions/arm_conv_fast_q15.c:136:8
	ldr	r0, [sp, #100]
	.loc	23 136 6 is_stmt 0              @ ../Middlewares/CMSIS/DSP/Src/FilteringFunctions/arm_conv_fast_q15.c:136:6
	str	r0, [sp, #68]
	.loc	23 139 8 is_stmt 1              @ ../Middlewares/CMSIS/DSP/Src/FilteringFunctions/arm_conv_fast_q15.c:139:8
	ldr	r0, [sp, #96]
	.loc	23 139 6 is_stmt 0              @ ../Middlewares/CMSIS/DSP/Src/FilteringFunctions/arm_conv_fast_q15.c:139:6
	str	r0, [sp, #64]
	.loc	23 151 3 is_stmt 1              @ ../Middlewares/CMSIS/DSP/Src/FilteringFunctions/arm_conv_fast_q15.c:151:3
	b	.LBB18_4
.LBB18_4:                               @ =>This Loop Header: Depth=1
                                        @     Child Loop BB18_8 Depth 2
	.loc	23 151 11 is_stmt 0             @ ../Middlewares/CMSIS/DSP/Src/FilteringFunctions/arm_conv_fast_q15.c:151:11
	ldr	r1, [sp, #12]
	movs	r0, #0
	.loc	23 151 23                       @ ../Middlewares/CMSIS/DSP/Src/FilteringFunctions/arm_conv_fast_q15.c:151:23
	cmp	r1, #3
	str	r0, [sp, #4]                    @ 4-byte Spill
	bhi	.LBB18_6
	b	.LBB18_5
.LBB18_5:                               @   in Loop: Header=BB18_4 Depth=1
	.loc	23 151 27                       @ ../Middlewares/CMSIS/DSP/Src/FilteringFunctions/arm_conv_fast_q15.c:151:27
	ldr	r0, [sp, #32]
	.loc	23 151 38                       @ ../Middlewares/CMSIS/DSP/Src/FilteringFunctions/arm_conv_fast_q15.c:151:38
	cmp	r0, #0
	it	ne
	movne	r0, #1
	str	r0, [sp, #4]                    @ 4-byte Spill
	b	.LBB18_6
.LBB18_6:                               @   in Loop: Header=BB18_4 Depth=1
	.loc	23 0 0                          @ ../Middlewares/CMSIS/DSP/Src/FilteringFunctions/arm_conv_fast_q15.c:0:0
	ldr	r0, [sp, #4]                    @ 4-byte Reload
	.loc	23 151 3                        @ ../Middlewares/CMSIS/DSP/Src/FilteringFunctions/arm_conv_fast_q15.c:151:3
	lsls	r0, r0, #31
	cbz	r0, .LBB18_11
	b	.LBB18_7
