	.text
	.syntax unified
	.eabi_attribute	67, "2.09"	@ Tag_conformance
	.cpu	cortex-m4
	.eabi_attribute	6, 13	@ Tag_CPU_arch
	.eabi_attribute	7, 77	@ Tag_CPU_arch_profile
	.eabi_attribute	8, 0	@ Tag_ARM_ISA_use
	.eabi_attribute	9, 2	@ Tag_THUMB_ISA_use
	.fpu	fpv4-sp-d16
	.eabi_attribute	27, 1	@ Tag_ABI_HardFP_use
	.eabi_attribute	36, 1	@ Tag_FP_HP_extension
	.eabi_attribute	34, 1	@ Tag_CPU_unaligned_access
	.eabi_attribute	17, 1	@ Tag_ABI_PCS_GOT_use
	.eabi_attribute	20, 2	@ Tag_ABI_FP_denormal
	.eabi_attribute	21, 0	@ Tag_ABI_FP_exceptions
	.eabi_attribute	23, 3	@ Tag_ABI_FP_number_model
	.eabi_attribute	24, 1	@ Tag_ABI_align_needed
	.eabi_attribute	25, 1	@ Tag_ABI_align_preserved
	.eabi_attribute	28, 1	@ Tag_ABI_VFP_args
	.eabi_attribute	38, 1	@ Tag_ABI_FP_16bit_format
	.eabi_attribute	18, 2	@ Tag_ABI_PCS_wchar_t
	.eabi_attribute	26, 1	@ Tag_ABI_enum_size
	.eabi_attribute	14, 0	@ Tag_ABI_PCS_R9_use
	.file	"freertos.c"
	.file	1 "D:\\horizon\\Horizon_Infantry (2)\\MDK-ARM" "../Middlewares/Third_Party/FreeRTOS/Source/include\\task.h"
	.file	2 "D:\\horizon\\Horizon_Infantry (2)\\MDK-ARM" "../Middlewares/Third_Party/FreeRTOS/Source/CMSIS_RTOS\\cmsis_os.h"
	.file	3 "D:\\horizon\\Horizon_Infantry (2)\\MDK-ARM" "../Core/Src/freertos.c"
	.file	4 "D:\\horizon\\Horizon_Infantry (2)\\MDK-ARM" "../Middlewares/Third_Party/FreeRTOS/Source/include\\FreeRTOS.h"
	.file	5 "D:\\" "kevil\\ARM\\ARMCLANG\\Bin\\..\\include\\stdint.h"
	.file	6 "D:\\horizon\\Horizon_Infantry (2)\\MDK-ARM" "../Middlewares/Third_Party/FreeRTOS/Source/portable/RVDS/ARM_CM4F\\portmacro.h"
	.section	.text.vApplicationGetIdleTaskMemory,"ax",%progbits
	.hidden	vApplicationGetIdleTaskMemory   @ -- Begin function vApplicationGetIdleTaskMemory
	.globl	vApplicationGetIdleTaskMemory
	.p2align	2
	.type	vApplicationGetIdleTaskMemory,%function
	.code	16                              @ @vApplicationGetIdleTaskMemory
	.thumb_func
vApplicationGetIdleTaskMemory:
.Lfunc_begin0:
	.loc	3 83 0                          @ ../Core/Src/freertos.c:83:0
	.fnstart
	.cfi_sections .debug_frame
	.cfi_startproc
@ %bb.0:
	.pad	#12
	sub	sp, #12
	.cfi_def_cfa_offset 12
	str	r0, [sp, #8]
	str	r1, [sp, #4]
	str	r2, [sp]
.Ltmp0:
	.loc	3 84 4 prologue_end             @ ../Core/Src/freertos.c:84:4
	ldr	r1, [sp, #8]
	.loc	3 84 25 is_stmt 0               @ ../Core/Src/freertos.c:84:25
	movw	r0, :lower16:xIdleTaskTCBBuffer
	movt	r0, :upper16:xIdleTaskTCBBuffer
	str	r0, [r1]
	.loc	3 85 4 is_stmt 1                @ ../Core/Src/freertos.c:85:4
	ldr	r1, [sp, #4]
	.loc	3 85 27 is_stmt 0               @ ../Core/Src/freertos.c:85:27
	movw	r0, :lower16:xIdleStack
	movt	r0, :upper16:xIdleStack
	str	r0, [r1]
	.loc	3 86 4 is_stmt 1                @ ../Core/Src/freertos.c:86:4
	ldr	r1, [sp]
	movs	r0, #128
	.loc	3 86 25 is_stmt 0               @ ../Core/Src/freertos.c:86:25
	str	r0, [r1]
	.loc	3 88 1 is_stmt 1                @ ../Core/Src/freertos.c:88:1
	add	sp, #12
	bx	lr
.Ltmp1:
.Lfunc_end0:
	.size	vApplicationGetIdleTaskMemory, .Lfunc_end0-vApplicationGetIdleTaskMemory
	.cfi_endproc
	.cantunwind
	.fnend
                                        @ -- End function
	.section	.text.vApplicationGetTimerTaskMemory,"ax",%progbits
	.hidden	vApplicationGetTimerTaskMemory  @ -- Begin function vApplicationGetTimerTaskMemory
	.globl	vApplicationGetTimerTaskMemory
	.p2align	2
	.type	vApplicationGetTimerTaskMemory,%function
	.code	16                              @ @vApplicationGetTimerTaskMemory
	.thumb_func
vApplicationGetTimerTaskMemory:
.Lfunc_begin1:
	.loc	3 96 0                          @ ../Core/Src/freertos.c:96:0
	.fnstart
	.cfi_startproc
@ %bb.0:
	.pad	#12
	sub	sp, #12
	.cfi_def_cfa_offset 12
	str	r0, [sp, #8]
	str	r1, [sp, #4]
	str	r2, [sp]
.Ltmp2:
	.loc	3 97 4 prologue_end             @ ../Core/Src/freertos.c:97:4
	ldr	r1, [sp, #8]
	.loc	3 97 26 is_stmt 0               @ ../Core/Src/freertos.c:97:26
	movw	r0, :lower16:xTimerTaskTCBBuffer
	movt	r0, :upper16:xTimerTaskTCBBuffer
	str	r0, [r1]
	.loc	3 98 4 is_stmt 1                @ ../Core/Src/freertos.c:98:4
	ldr	r1, [sp, #4]
	.loc	3 98 28 is_stmt 0               @ ../Core/Src/freertos.c:98:28
	movw	r0, :lower16:xTimerStack
	movt	r0, :upper16:xTimerStack
	str	r0, [r1]
	.loc	3 99 4 is_stmt 1                @ ../Core/Src/freertos.c:99:4
	ldr	r1, [sp]
	mov.w	r0, #256
	.loc	3 99 26 is_stmt 0               @ ../Core/Src/freertos.c:99:26
	str	r0, [r1]
	.loc	3 101 1 is_stmt 1               @ ../Core/Src/freertos.c:101:1
	add	sp, #12
	bx	lr
.Ltmp3:
.Lfunc_end1:
	.size	vApplicationGetTimerTaskMemory, .Lfunc_end1-vApplicationGetTimerTaskMemory
	.cfi_endproc
	.cantunwind
	.fnend
                                        @ -- End function
	.section	.text.MX_FREERTOS_Init,"ax",%progbits
	.hidden	MX_FREERTOS_Init                @ -- Begin function MX_FREERTOS_Init
	.globl	MX_FREERTOS_Init
	.p2align	2
	.type	MX_FREERTOS_Init,%function
	.code	16                              @ @MX_FREERTOS_Init
	.thumb_func
MX_FREERTOS_Init:
.Lfunc_begin2:
	.loc	3 109 0                         @ ../Core/Src/freertos.c:109:0
	.fnstart
	.cfi_startproc
@ %bb.0:
	.save	{r4, r5, r7, lr}
	push	{r4, r5, r7, lr}
	.cfi_def_cfa_offset 16
	.cfi_offset lr, -4
	.cfi_offset r7, -8
	.cfi_offset r5, -12
	.cfi_offset r4, -16
	.pad	#176
	sub	sp, #176
	.cfi_def_cfa_offset 192
.Ltmp4:
	.loc	3 132 23 prologue_end           @ ../Core/Src/freertos.c:132:23
	movw	r0, :lower16:.L__const.MX_FREERTOS_Init.os_thread_def_defaultTask
	movt	r0, :upper16:.L__const.MX_FREERTOS_Init.os_thread_def_defaultTask
	ldr	r1, [r0]
	ldr	r2, [r0, #4]
	ldr	r3, [r0, #8]
	ldr.w	r12, [r0, #12]
	ldr.w	lr, [r0, #16]
	ldr	r4, [r0, #20]
	str	r4, [sp, #168]
	str.w	lr, [sp, #164]
	str.w	r12, [sp, #160]
	str	r3, [sp, #156]
	str	r2, [sp, #152]
	str	r1, [sp, #148]
	ldr	r0, [r0, #24]
	str	r0, [sp, #172]
	add	r0, sp, #148
	movs	r1, #0
	.loc	3 133 23                        @ ../Core/Src/freertos.c:133:23
	str	r1, [sp, #4]                    @ 4-byte Spill
	bl	osThreadCreate
	ldr	r1, [sp, #4]                    @ 4-byte Reload
	.loc	3 133 21 is_stmt 0              @ ../Core/Src/freertos.c:133:21
	movw	r2, :lower16:defaultTaskHandle
	movt	r2, :upper16:defaultTaskHandle
	str	r0, [r2]
	.loc	3 136 23 is_stmt 1              @ ../Core/Src/freertos.c:136:23
	movw	r0, :lower16:.L__const.MX_FREERTOS_Init.os_thread_def_RobotUITask
	movt	r0, :upper16:.L__const.MX_FREERTOS_Init.os_thread_def_RobotUITask
	ldr	r2, [r0]
	ldr	r3, [r0, #4]
	ldr.w	r12, [r0, #8]
	ldr.w	lr, [r0, #12]
	ldr	r4, [r0, #16]
	ldr	r5, [r0, #20]
	str	r5, [sp, #140]
	str	r4, [sp, #136]
	str.w	lr, [sp, #132]
	str.w	r12, [sp, #128]
	str	r3, [sp, #124]
	str	r2, [sp, #120]
	ldr	r0, [r0, #24]
	str	r0, [sp, #144]
	add	r0, sp, #120
	.loc	3 137 23                        @ ../Core/Src/freertos.c:137:23
	bl	osThreadCreate
	ldr	r1, [sp, #4]                    @ 4-byte Reload
	.loc	3 137 21 is_stmt 0              @ ../Core/Src/freertos.c:137:21
	movw	r2, :lower16:RobotUITaskHandle
	movt	r2, :upper16:RobotUITaskHandle
	str	r0, [r2]
	.loc	3 140 23 is_stmt 1              @ ../Core/Src/freertos.c:140:23
	movw	r0, :lower16:.L__const.MX_FREERTOS_Init.os_thread_def_MoveTask
	movt	r0, :upper16:.L__const.MX_FREERTOS_Init.os_thread_def_MoveTask
	ldr	r2, [r0]
	ldr	r3, [r0, #4]
	ldr.w	r12, [r0, #8]
	ldr.w	lr, [r0, #12]
	ldr	r4, [r0, #16]
	ldr	r5, [r0, #20]
	str	r5, [sp, #112]
	str	r4, [sp, #108]
	str.w	lr, [sp, #104]
	str.w	r12, [sp, #100]
	str	r3, [sp, #96]
	str	r2, [sp, #92]
	ldr	r0, [r0, #24]
	str	r0, [sp, #116]
	add	r0, sp, #92
	.loc	3 141 20                        @ ../Core/Src/freertos.c:141:20
	bl	osThreadCreate
	ldr	r1, [sp, #4]                    @ 4-byte Reload
	.loc	3 141 18 is_stmt 0              @ ../Core/Src/freertos.c:141:18
	movw	r2, :lower16:MoveTaskHandle
	movt	r2, :upper16:MoveTaskHandle
	str	r0, [r2]
	.loc	3 144 23 is_stmt 1              @ ../Core/Src/freertos.c:144:23
	movw	r0, :lower16:.L__const.MX_FREERTOS_Init.os_thread_def_DefiantTask
	movt	r0, :upper16:.L__const.MX_FREERTOS_Init.os_thread_def_DefiantTask
	ldr	r2, [r0]
	ldr	r3, [r0, #4]
	ldr.w	r12, [r0, #8]
	ldr.w	lr, [r0, #12]
	ldr	r4, [r0, #16]
	ldr	r5, [r0, #20]
	str	r5, [sp, #84]
	str	r4, [sp, #80]
	str.w	lr, [sp, #76]
	str.w	r12, [sp, #72]
	str	r3, [sp, #68]
	str	r2, [sp, #64]
	ldr	r0, [r0, #24]
	str	r0, [sp, #88]
	add	r0, sp, #64
	.loc	3 145 23                        @ ../Core/Src/freertos.c:145:23
	bl	osThreadCreate
	ldr	r1, [sp, #4]                    @ 4-byte Reload
	.loc	3 145 21 is_stmt 0              @ ../Core/Src/freertos.c:145:21
	movw	r2, :lower16:DefiantTaskHandle
	movt	r2, :upper16:DefiantTaskHandle
	str	r0, [r2]
	.loc	3 148 23 is_stmt 1              @ ../Core/Src/freertos.c:148:23
	movw	r0, :lower16:.L__const.MX_FREERTOS_Init.os_thread_def_IMUTask
	movt	r0, :upper16:.L__const.MX_FREERTOS_Init.os_thread_def_IMUTask
	ldr	r2, [r0]
	ldr	r3, [r0, #4]
	ldr.w	r12, [r0, #8]
	ldr.w	lr, [r0, #12]
	ldr	r4, [r0, #16]
	ldr	r5, [r0, #20]
	str	r5, [sp, #56]
	str	r4, [sp, #52]
	str.w	lr, [sp, #48]
	str.w	r12, [sp, #44]
	str	r3, [sp, #40]
	str	r2, [sp, #36]
	ldr	r0, [r0, #24]
	str	r0, [sp, #60]
	add	r0, sp, #36
	.loc	3 149 19                        @ ../Core/Src/freertos.c:149:19
	bl	osThreadCreate
	ldr	r1, [sp, #4]                    @ 4-byte Reload
	.loc	3 149 17 is_stmt 0              @ ../Core/Src/freertos.c:149:17
	movw	r2, :lower16:IMUTaskHandle
	movt	r2, :upper16:IMUTaskHandle
	str	r0, [r2]
	.loc	3 152 23 is_stmt 1              @ ../Core/Src/freertos.c:152:23
	movw	r0, :lower16:.L__const.MX_FREERTOS_Init.os_thread_def_RootTask
	movt	r0, :upper16:.L__const.MX_FREERTOS_Init.os_thread_def_RootTask
	ldr	r2, [r0]
	ldr	r3, [r0, #4]
	ldr.w	r12, [r0, #8]
	ldr.w	lr, [r0, #12]
	ldr	r4, [r0, #16]
	ldr	r5, [r0, #20]
	str	r5, [sp, #28]
	str	r4, [sp, #24]
	str.w	lr, [sp, #20]
	str.w	r12, [sp, #16]
	str	r3, [sp, #12]
	str	r2, [sp, #8]
	ldr	r0, [r0, #24]
	str	r0, [sp, #32]
	add	r0, sp, #8
	.loc	3 153 20                        @ ../Core/Src/freertos.c:153:20
	bl	osThreadCreate
	.loc	3 153 18 is_stmt 0              @ ../Core/Src/freertos.c:153:18
	movw	r1, :lower16:RootTaskHandle
	movt	r1, :upper16:RootTaskHandle
	str	r0, [r1]
	.loc	3 159 1 is_stmt 1               @ ../Core/Src/freertos.c:159:1
	add	sp, #176
	pop	{r4, r5, r7, pc}
.Ltmp5:
.Lfunc_end2:
	.size	MX_FREERTOS_Init, .Lfunc_end2-MX_FREERTOS_Init
	.cfi_endproc
	.cantunwind
	.fnend
                                        @ -- End function
	.section	.text.StartDefaultTask,"ax",%progbits
	.hidden	StartDefaultTask                @ -- Begin function StartDefaultTask
	.weak	StartDefaultTask
	.p2align	2
	.type	StartDefaultTask,%function
	.code	16                              @ @StartDefaultTask
	.thumb_func
StartDefaultTask:
.Lfunc_begin3:
	.loc	3 169 0                         @ ../Core/Src/freertos.c:169:0
	.fnstart
	.cfi_startproc
@ %bb.0:
	.save	{r7, lr}
	push	{r7, lr}
	.cfi_def_cfa_offset 8
	.cfi_offset lr, -4
	.cfi_offset r7, -8
	.pad	#8
	sub	sp, #8
	.cfi_def_cfa_offset 16
	str	r0, [sp, #4]
.Ltmp6:
	.loc	3 171 3 prologue_end            @ ../Core/Src/freertos.c:171:3
	bl	MX_USB_DEVICE_Init
	.loc	3 174 3                         @ ../Core/Src/freertos.c:174:3
	b	.LBB3_1
.LBB3_1:                                @ =>This Inner Loop Header: Depth=1
	.loc	3 0 3 is_stmt 0                 @ ../Core/Src/freertos.c:0:3
	movs	r0, #1
.Ltmp7:
	.loc	3 176 5 is_stmt 1               @ ../Core/Src/freertos.c:176:5
	bl	osDelay
.Ltmp8:
	.loc	3 174 3                         @ ../Core/Src/freertos.c:174:3
	b	.LBB3_1
.Ltmp9:
.Lfunc_end3:
	.size	StartDefaultTask, .Lfunc_end3-StartDefaultTask
	.cfi_endproc
	.cantunwind
	.fnend
                                        @ -- End function
	.section	.text.StartRobotUITask,"ax",%progbits
	.hidden	StartRobotUITask                @ -- Begin function StartRobotUITask
	.weak	StartRobotUITask
	.p2align	2
	.type	StartRobotUITask,%function
	.code	16                              @ @StartRobotUITask
	.thumb_func
StartRobotUITask:
.Lfunc_begin4:
	.loc	3 189 0                         @ ../Core/Src/freertos.c:189:0
	.fnstart
	.cfi_startproc
@ %bb.0:
	.save	{r7, lr}
	push	{r7, lr}
	.cfi_def_cfa_offset 8
	.cfi_offset lr, -4
	.cfi_offset r7, -8
	.pad	#8
	sub	sp, #8
	.cfi_def_cfa_offset 16
	str	r0, [sp, #4]
.Ltmp10:
	.loc	3 192 3 prologue_end            @ ../Core/Src/freertos.c:192:3
	b	.LBB4_1
.LBB4_1:                                @ =>This Inner Loop Header: Depth=1
	.loc	3 0 3 is_stmt 0                 @ ../Core/Src/freertos.c:0:3
	movs	r0, #1
.Ltmp11:
	.loc	3 194 5 is_stmt 1               @ ../Core/Src/freertos.c:194:5
	bl	osDelay
.Ltmp12:
	.loc	3 192 3                         @ ../Core/Src/freertos.c:192:3
	b	.LBB4_1
.Ltmp13:
.Lfunc_end4:
	.size	StartRobotUITask, .Lfunc_end4-StartRobotUITask
	.cfi_endproc
	.cantunwind
	.fnend
                                        @ -- End function
	.section	.text.StartMoveTask,"ax",%progbits
	.hidden	StartMoveTask                   @ -- Begin function StartMoveTask
	.weak	StartMoveTask
	.p2align	2
	.type	StartMoveTask,%function
	.code	16                              @ @StartMoveTask
	.thumb_func
StartMoveTask:
.Lfunc_begin5:
	.loc	3 207 0                         @ ../Core/Src/freertos.c:207:0
	.fnstart
	.cfi_startproc
@ %bb.0:
	.save	{r7, lr}
	push	{r7, lr}
	.cfi_def_cfa_offset 8
	.cfi_offset lr, -4
	.cfi_offset r7, -8
	.pad	#8
	sub	sp, #8
	.cfi_def_cfa_offset 16
	str	r0, [sp, #4]
.Ltmp14:
	.loc	3 210 3 prologue_end            @ ../Core/Src/freertos.c:210:3
	b	.LBB5_1
.LBB5_1:                                @ =>This Inner Loop Header: Depth=1
	.loc	3 0 3 is_stmt 0                 @ ../Core/Src/freertos.c:0:3
	movs	r0, #1
.Ltmp15:
	.loc	3 212 5 is_stmt 1               @ ../Core/Src/freertos.c:212:5
	bl	osDelay
.Ltmp16:
	.loc	3 210 3                         @ ../Core/Src/freertos.c:210:3
	b	.LBB5_1
.Ltmp17:
.Lfunc_end5:
	.size	StartMoveTask, .Lfunc_end5-StartMoveTask
	.cfi_endproc
	.cantunwind
	.fnend
                                        @ -- End function
	.section	.text.StartDefiantTask,"ax",%progbits
	.hidden	StartDefiantTask                @ -- Begin function StartDefiantTask
	.weak	StartDefiantTask
	.p2align	2
	.type	StartDefiantTask,%function
	.code	16                              @ @StartDefiantTask
	.thumb_func
StartDefiantTask:
.Lfunc_begin6:
	.loc	3 225 0                         @ ../Core/Src/freertos.c:225:0
	.fnstart
	.cfi_startproc
@ %bb.0:
	.save	{r7, lr}
	push	{r7, lr}
	.cfi_def_cfa_offset 8
	.cfi_offset lr, -4
	.cfi_offset r7, -8
	.pad	#8
	sub	sp, #8
	.cfi_def_cfa_offset 16
	str	r0, [sp, #4]
.Ltmp18:
	.loc	3 228 3 prologue_end            @ ../Core/Src/freertos.c:228:3
	b	.LBB6_1
.LBB6_1:                                @ =>This Inner Loop Header: Depth=1
	.loc	3 0 3 is_stmt 0                 @ ../Core/Src/freertos.c:0:3
	movs	r0, #1
.Ltmp19:
	.loc	3 230 5 is_stmt 1               @ ../Core/Src/freertos.c:230:5
	bl	osDelay
.Ltmp20:
	.loc	3 228 3                         @ ../Core/Src/freertos.c:228:3
	b	.LBB6_1
.Ltmp21:
.Lfunc_end6:
	.size	StartDefiantTask, .Lfunc_end6-StartDefiantTask
	.cfi_endproc
	.cantunwind
	.fnend
                                        @ -- End function
	.section	.text.StartIMUTask,"ax",%progbits
	.hidden	StartIMUTask                    @ -- Begin function StartIMUTask
	.weak	StartIMUTask
	.p2align	2
	.type	StartIMUTask,%function
	.code	16                              @ @StartIMUTask
	.thumb_func
StartIMUTask:
.Lfunc_begin7:
	.loc	3 243 0                         @ ../Core/Src/freertos.c:243:0
	.fnstart
	.cfi_startproc
@ %bb.0:
	.save	{r7, lr}
	push	{r7, lr}
	.cfi_def_cfa_offset 8
	.cfi_offset lr, -4
	.cfi_offset r7, -8
	.pad	#8
	sub	sp, #8
	.cfi_def_cfa_offset 16
	str	r0, [sp, #4]
.Ltmp22:
	.loc	3 246 3 prologue_end            @ ../Core/Src/freertos.c:246:3
	b	.LBB7_1
.LBB7_1:                                @ =>This Inner Loop Header: Depth=1
	.loc	3 0 3 is_stmt 0                 @ ../Core/Src/freertos.c:0:3
	movs	r0, #1
.Ltmp23:
	.loc	3 248 5 is_stmt 1               @ ../Core/Src/freertos.c:248:5
	bl	osDelay
.Ltmp24:
	.loc	3 246 3                         @ ../Core/Src/freertos.c:246:3
	b	.LBB7_1
.Ltmp25:
.Lfunc_end7:
	.size	StartIMUTask, .Lfunc_end7-StartIMUTask
	.cfi_endproc
	.cantunwind
	.fnend
                                        @ -- End function
	.section	.text.StartRootTask,"ax",%progbits
	.hidden	StartRootTask                   @ -- Begin function StartRootTask
	.weak	StartRootTask
	.p2align	2
	.type	StartRootTask,%function
	.code	16                              @ @StartRootTask
	.thumb_func
StartRootTask:
.Lfunc_begin8:
	.loc	3 261 0                         @ ../Core/Src/freertos.c:261:0
	.fnstart
	.cfi_startproc
@ %bb.0:
	.save	{r7, lr}
	push	{r7, lr}
	.cfi_def_cfa_offset 8
	.cfi_offset lr, -4
	.cfi_offset r7, -8
	.pad	#8
	sub	sp, #8
	.cfi_def_cfa_offset 16
	str	r0, [sp, #4]
.Ltmp26:
	.loc	3 264 3 prologue_end            @ ../Core/Src/freertos.c:264:3
	b	.LBB8_1
.LBB8_1:                                @ =>This Inner Loop Header: Depth=1
	.loc	3 0 3 is_stmt 0                 @ ../Core/Src/freertos.c:0:3
	movs	r0, #1
.Ltmp27:
	.loc	3 266 5 is_stmt 1               @ ../Core/Src/freertos.c:266:5
	bl	osDelay
.Ltmp28:
	.loc	3 264 3                         @ ../Core/Src/freertos.c:264:3
	b	.LBB8_1
.Ltmp29:
.Lfunc_end8:
	.size	StartRootTask, .Lfunc_end8-StartRootTask
	.cfi_endproc
	.cantunwind
	.fnend
                                        @ -- End function
	.type	xIdleTaskTCBBuffer,%object      @ @xIdleTaskTCBBuffer
	.section	.bss.xIdleTaskTCBBuffer,"aw",%nobits
	.p2align	2
xIdleTaskTCBBuffer:
	.zero	84
	.size	xIdleTaskTCBBuffer, 84

	.type	xIdleStack,%object              @ @xIdleStack
	.section	.bss.xIdleStack,"aw",%nobits
	.p2align	2
xIdleStack:
	.zero	512
	.size	xIdleStack, 512

	.type	xTimerTaskTCBBuffer,%object     @ @xTimerTaskTCBBuffer
	.section	.bss.xTimerTaskTCBBuffer,"aw",%nobits
	.p2align	2
xTimerTaskTCBBuffer:
	.zero	84
	.size	xTimerTaskTCBBuffer, 84

	.type	xTimerStack,%object             @ @xTimerStack
	.section	.bss.xTimerStack,"aw",%nobits
	.p2align	2
xTimerStack:
	.zero	1024
	.size	xTimerStack, 1024

	.type	.L.str,%object                  @ @.str
	.section	.rodata.str1.1,"aMS",%progbits,1
.L.str:
	.asciz	"defaultTask"
	.size	.L.str, 12

	.type	.L__const.MX_FREERTOS_Init.os_thread_def_defaultTask,%object @ @__const.MX_FREERTOS_Init.os_thread_def_defaultTask
	.section	.rodata..L__const.MX_FREERTOS_Init.os_thread_def_defaultTask,"a",%progbits
	.p2align	2
.L__const.MX_FREERTOS_Init.os_thread_def_defaultTask:
	.long	.L.str
	.long	StartDefaultTask
	.short	0                               @ 0x0
	.zero	2
	.long	0                               @ 0x0
	.long	128                             @ 0x80
	.long	0
	.long	0
	.size	.L__const.MX_FREERTOS_Init.os_thread_def_defaultTask, 28

	.hidden	defaultTaskHandle               @ @defaultTaskHandle
	.type	defaultTaskHandle,%object
	.section	.bss.defaultTaskHandle,"aw",%nobits
	.globl	defaultTaskHandle
	.p2align	2
defaultTaskHandle:
	.long	0
	.size	defaultTaskHandle, 4

	.type	.L.str.1,%object                @ @.str.1
	.section	.rodata.str1.1,"aMS",%progbits,1
.L.str.1:
	.asciz	"RobotUITask"
	.size	.L.str.1, 12

	.type	.L__const.MX_FREERTOS_Init.os_thread_def_RobotUITask,%object @ @__const.MX_FREERTOS_Init.os_thread_def_RobotUITask
	.section	.rodata..L__const.MX_FREERTOS_Init.os_thread_def_RobotUITask,"a",%progbits
	.p2align	2
.L__const.MX_FREERTOS_Init.os_thread_def_RobotUITask:
	.long	.L.str.1
	.long	StartRobotUITask
	.short	65534                           @ 0xfffe
	.zero	2
	.long	0                               @ 0x0
	.long	512                             @ 0x200
	.long	0
	.long	0
	.size	.L__const.MX_FREERTOS_Init.os_thread_def_RobotUITask, 28

	.hidden	RobotUITaskHandle               @ @RobotUITaskHandle
	.type	RobotUITaskHandle,%object
	.section	.bss.RobotUITaskHandle,"aw",%nobits
	.globl	RobotUITaskHandle
	.p2align	2
RobotUITaskHandle:
	.long	0
	.size	RobotUITaskHandle, 4

	.type	.L.str.2,%object                @ @.str.2
	.section	.rodata.str1.1,"aMS",%progbits,1
.L.str.2:
	.asciz	"MoveTask"
	.size	.L.str.2, 9

	.type	.L__const.MX_FREERTOS_Init.os_thread_def_MoveTask,%object @ @__const.MX_FREERTOS_Init.os_thread_def_MoveTask
	.section	.rodata..L__const.MX_FREERTOS_Init.os_thread_def_MoveTask,"a",%progbits
	.p2align	2
.L__const.MX_FREERTOS_Init.os_thread_def_MoveTask:
	.long	.L.str.2
	.long	StartMoveTask
	.short	0                               @ 0x0
	.zero	2
	.long	0                               @ 0x0
	.long	256                             @ 0x100
	.long	0
	.long	0
	.size	.L__const.MX_FREERTOS_Init.os_thread_def_MoveTask, 28

	.hidden	MoveTaskHandle                  @ @MoveTaskHandle
	.type	MoveTaskHandle,%object
	.section	.bss.MoveTaskHandle,"aw",%nobits
	.globl	MoveTaskHandle
	.p2align	2
MoveTaskHandle:
	.long	0
	.size	MoveTaskHandle, 4

	.type	.L.str.3,%object                @ @.str.3
	.section	.rodata.str1.1,"aMS",%progbits,1
.L.str.3:
	.asciz	"DefiantTask"
	.size	.L.str.3, 12

	.type	.L__const.MX_FREERTOS_Init.os_thread_def_DefiantTask,%object @ @__const.MX_FREERTOS_Init.os_thread_def_DefiantTask
	.section	.rodata..L__const.MX_FREERTOS_Init.os_thread_def_DefiantTask,"a",%progbits
	.p2align	2
.L__const.MX_FREERTOS_Init.os_thread_def_DefiantTask:
	.long	.L.str.3
	.long	StartDefiantTask
	.short	0                               @ 0x0
	.zero	2
	.long	0                               @ 0x0
	.long	256                             @ 0x100
	.long	0
	.long	0
	.size	.L__const.MX_FREERTOS_Init.os_thread_def_DefiantTask, 28

	.hidden	DefiantTaskHandle               @ @DefiantTaskHandle
	.type	DefiantTaskHandle,%object
	.section	.bss.DefiantTaskHandle,"aw",%nobits
	.globl	DefiantTaskHandle
	.p2align	2
DefiantTaskHandle:
	.long	0
	.size	DefiantTaskHandle, 4

	.type	.L.str.4,%object                @ @.str.4
	.section	.rodata.str1.1,"aMS",%progbits,1
.L.str.4:
	.asciz	"IMUTask"
	.size	.L.str.4, 8

	.type	.L__const.MX_FREERTOS_Init.os_thread_def_IMUTask,%object @ @__const.MX_FREERTOS_Init.os_thread_def_IMUTask
	.section	.rodata..L__const.MX_FREERTOS_Init.os_thread_def_IMUTask,"a",%progbits
	.p2align	2
.L__const.MX_FREERTOS_Init.os_thread_def_IMUTask:
	.long	.L.str.4
	.long	StartIMUTask
	.short	2                               @ 0x2
	.zero	2
	.long	0                               @ 0x0
	.long	512                             @ 0x200
	.long	0
	.long	0
	.size	.L__const.MX_FREERTOS_Init.os_thread_def_IMUTask, 28

	.hidden	IMUTaskHandle                   @ @IMUTaskHandle
	.type	IMUTaskHandle,%object
	.section	.bss.IMUTaskHandle,"aw",%nobits
	.globl	IMUTaskHandle
	.p2align	2
IMUTaskHandle:
	.long	0
	.size	IMUTaskHandle, 4

	.type	.L.str.5,%object                @ @.str.5
	.section	.rodata.str1.1,"aMS",%progbits,1
.L.str.5:
	.asciz	"RootTask"
	.size	.L.str.5, 9

	.type	.L__const.MX_FREERTOS_Init.os_thread_def_RootTask,%object @ @__const.MX_FREERTOS_Init.os_thread_def_RootTask
	.section	.rodata..L__const.MX_FREERTOS_Init.os_thread_def_RootTask,"a",%progbits
	.p2align	2
.L__const.MX_FREERTOS_Init.os_thread_def_RootTask:
	.long	.L.str.5
	.long	StartRootTask
	.short	2                               @ 0x2
	.zero	2
	.long	0                               @ 0x0
	.long	128                             @ 0x80
	.long	0
	.long	0
	.size	.L__const.MX_FREERTOS_Init.os_thread_def_RootTask, 28

	.hidden	RootTaskHandle                  @ @RootTaskHandle
	.type	RootTaskHandle,%object
	.section	.bss.RootTaskHandle,"aw",%nobits
	.globl	RootTaskHandle
	.p2align	2
RootTaskHandle:
	.long	0
	.size	RootTaskHandle, 4

	.section	".note.GNU-stack","",%progbits
	.eabi_attribute	30, 6	@ Tag_ABI_optimization_goals
	.ARM_attribute	16, 1	@ Tag_AV_eba