	.text
	.syntax unified
	.eabi_attribute	67, "2.09"	@ Tag_conformance
	.cpu	cortex-m4
	.eabi_attribute	6, 13	@ Tag_CPU_arch
	.eabi_attribute	7, 77	@ Tag_CPU_arch_profile
	.eabi_attribute	8, 0	@ Tag_ARM_ISA_use
	.eabi_attribute	9, 2	@ Tag_THUMB_ISA_use
	.fpu	fpv4-sp-d16
	.eabi_attribute	27, 1	@ Tag_ABI_HardFP_use
	.eabi_attribute	36, 1	@ Tag_FP_HP_extension
	.eabi_attribute	34, 1	@ Tag_CPU_unaligned_access
	.eabi_attribute	17, 1	@ Tag_ABI_PCS_GOT_use
	.eabi_attribute	20, 2	@ Tag_ABI_FP_denormal
	.eabi_attribute	21, 0	@ Tag_ABI_FP_exceptions
	.eabi_attribute	23, 3	@ Tag_ABI_FP_number_model
	.eabi_attribute	24, 1	@ Tag_ABI_align_needed
	.eabi_attribute	25, 1	@ Tag_ABI_align_preserved
	.eabi_attribute	28, 1	@ Tag_ABI_VFP_args
	.eabi_attribute	38, 1	@ Tag_ABI_FP_16bit_format
	.eabi_attribute	18, 2	@ Tag_ABI_PCS_wchar_t
	.eabi_attribute	26, 1	@ Tag_ABI_enum_size
	.eabi_attribute	14, 0	@ Tag_ABI_PCS_R9_use
	.file	"Gimbal_Task.c"
	.file	1 "D:\\" "kevil\\ARM\\ARMCLANG\\Bin\\..\\include\\stdint.h"
	.file	2 "D:\\horizon\\Horizon_Infantry (2)\\MDK-ARM" "../User/App/Gimbal_Task.c"
	.file	3 "D:\\horizon\\Horizon_Infantry (2)\\MDK-ARM" "../User/Algorithm/inc\\controller.h"
	.section	.text.MOTOR_PID_Gimbal_INIT,"ax",%progbits
	.hidden	MOTOR_PID_Gimbal_INIT           @ -- Begin function MOTOR_PID_Gimbal_INIT
	.globl	MOTOR_PID_Gimbal_INIT
	.p2align	2
	.type	MOTOR_PID_Gimbal_INIT,%function
	.code	16                              @ @MOTOR_PID_Gimbal_INIT
	.thumb_func
MOTOR_PID_Gimbal_INIT:
.Lfunc_begin0:
	.loc	2 48 0                          @ ../User/App/Gimbal_Task.c:48:0
	.fnstart
	.cfi_sections .debug_frame
	.cfi_startproc
@ %bb.0:
	.save	{r7, lr}
	push	{r7, lr}
	.cfi_def_cfa_offset 8
	.cfi_offset lr, -4
	.cfi_offset r7, -8
	.pad	#104
	sub	sp, #104
	.cfi_def_cfa_offset 112
	str	r0, [sp, #100]
	movs	r3, #0
.Ltmp0:
	.loc	2 50 11 prologue_end            @ ../User/App/Gimbal_Task.c:50:11
	str	r3, [sp, #20]                   @ 4-byte Spill
	str	r3, [sp, #96]
	str	r3, [sp, #92]
	str	r3, [sp, #88]
	.loc	2 51 11                         @ ../User/App/Gimbal_Task.c:51:11
	movw	r2, :lower16:.L__const.MOTOR_PID_Gimbal_INIT.PID_P_Pitch
	movt	r2, :upper16:.L__const.MOTOR_PID_Gimbal_INIT.PID_P_Pitch
	ldr	r0, [r2]
	ldr	r1, [r2, #4]
	ldr	r2, [r2, #8]
	str	r2, [sp, #84]
	str	r1, [sp, #80]
	str	r0, [sp, #76]
	.loc	2 52 11                         @ ../User/App/Gimbal_Task.c:52:11
	movw	r2, :lower16:.L__const.MOTOR_PID_Gimbal_INIT.PID_S_Pitch
	movt	r2, :upper16:.L__const.MOTOR_PID_Gimbal_INIT.PID_S_Pitch
	ldr	r0, [r2]
	ldr	r1, [r2, #4]
	ldr	r2, [r2, #8]
	str	r2, [sp, #72]
	str	r1, [sp, #68]
	str	r0, [sp, #64]
	.loc	2 53 23                         @ ../User/App/Gimbal_Task.c:53:23
	ldr	r0, [sp, #100]
	.loc	2 53 45 is_stmt 0               @ ../User/App/Gimbal_Task.c:53:45
	adds	r0, #200
	vldr	s0, .LCPI0_0
	vstr	s0, [sp, #8]                    @ 4-byte Spill
	add	r1, sp, #88
	vmov.f32	s1, #5.000000e-01
	.loc	2 53 5                          @ ../User/App/Gimbal_Task.c:53:5
	mov	r2, r3
	bl	Feedforward_Init
	ldr	r2, [sp, #20]                   @ 4-byte Reload
	.loc	2 55 15 is_stmt 1               @ ../User/App/Gimbal_Task.c:55:15
	ldr	r0, [sp, #100]
	.loc	2 55 37 is_stmt 0               @ ../User/App/Gimbal_Task.c:55:37
	add.w	r0, r0, #344
	vldr	s0, .LCPI0_1
	vstr	s0, [sp, #4]                    @ 4-byte Spill
	vldr	s1, .LCPI0_2
	add	r1, sp, #76
	vldr	s3, .LCPI0_3
	vstr	s3, [sp, #12]                   @ 4-byte Spill
	vldr	s5, .LCPI0_4
	vstr	s5, [sp, #16]                   @ 4-byte Spill
	movs	r3, #183
	.loc	2 55 5                          @ ../User/App/Gimbal_Task.c:55:5
	str	r3, [sp, #24]                   @ 4-byte Spill
	vmov.f32	s2, s3
	vmov.f32	s4, s5
	bl	PID_Init
	vldr	s1, [sp, #8]                    @ 4-byte Reload
	vldr	s3, [sp, #12]                   @ 4-byte Reload
	vldr	s5, [sp, #16]                   @ 4-byte Reload
	ldr	r2, [sp, #20]                   @ 4-byte Reload
	.loc	2 61 15 is_stmt 1               @ ../User/App/Gimbal_Task.c:61:15
	ldr	r0, [sp, #100]
	.loc	2 61 37 is_stmt 0               @ ../User/App/Gimbal_Task.c:61:37
	addw	r0, r0, #514
	vldr	s0, .LCPI0_5
	add	r1, sp, #64
	movs	r3, #181
	.loc	2 61 5                          @ ../User/App/Gimbal_Task.c:61:5
	vmov.f32	s2, s3
	vmov.f32	s4, s5
	bl	PID_Init
	vldr	s1, [sp, #16]                   @ 4-byte Reload
	ldr	r3, [sp, #20]                   @ 4-byte Reload
	.loc	2 68 11 is_stmt 1               @ ../User/App/Gimbal_Task.c:68:11
	str	r3, [sp, #60]
	str	r3, [sp, #56]
	str	r3, [sp, #52]
	.loc	2 69 11                         @ ../User/App/Gimbal_Task.c:69:11
	movw	r2, :lower16:.L__const.MOTOR_PID_Gimbal_INIT.PID_P_Yaw
	movt	r2, :upper16:.L__const.MOTOR_PID_Gimbal_INIT.PID_P_Yaw
	ldr	r0, [r2]
	ldr	r1, [r2, #4]
	ldr	r2, [r2, #8]
	str	r2, [sp, #48]
	str	r1, [sp, #44]
	str	r0, [sp, #40]
	.loc	2 70 11                         @ ../User/App/Gimbal_Task.c:70:11
	movw	r2, :lower16:.L__const.MOTOR_PID_Gimbal_INIT.PID_S_Yaw
	movt	r2, :upper16:.L__const.MOTOR_PID_Gimbal_INIT.PID_S_Yaw
	ldr	r0, [r2]
	ldr	r1, [r2, #4]
	ldr	r2, [r2, #8]
	str	r2, [sp, #36]
	str	r1, [sp, #32]
	str	r0, [sp, #28]
	.loc	2 71 23                         @ ../User/App/Gimbal_Task.c:71:23
	ldr	r0, [sp, #100]
	.loc	2 71 43 is_stmt 0               @ ../User/App/Gimbal_Task.c:71:43
	add.w	r0, r0, #760
	vldr	s0, .LCPI0_6
	add	r1, sp, #52
	.loc	2 71 5                          @ ../User/App/Gimbal_Task.c:71:5
	mov	r2, r3
	bl	Feedforward_Init
	vldr	s0, [sp, #4]                    @ 4-byte Reload
	vldr	s3, [sp, #12]                   @ 4-byte Reload
	vldr	s5, [sp, #16]                   @ 4-byte Reload
	ldr	r2, [sp, #20]                   @ 4-byte Reload
	.loc	2 73 15 is_stmt 1               @ ../User/App/Gimbal_Task.c:73:15
	ldr	r0, [sp, #100]
	.loc	2 73 35 is_stmt 0               @ ../User/App/Gimbal_Task.c:73:35
	add.w	r0, r0, #904
	vldr	s1, .LCPI0_7
	add	r1, sp, #40
	movs	r3, #247
	.loc	2 73 5                          @ ../User/App/Gimbal_Task.c:73:5
	vmov.f32	s2, s3
	vmov.f32	s4, s5
	bl	PID_Init
	vldr	s1, [sp, #8]                    @ 4-byte Reload
	vldr	s3, [sp, #12]                   @ 4-byte Reload
	vldr	s5, [sp, #16]                   @ 4-byte Reload
	ldr	r2, [sp, #20]                   @ 4-byte Reload
	ldr	r3, [sp, #24]                   @ 4-byte Reload
	.loc	2 79 15 is_stmt 1               @ ../User/App/Gimbal_Task.c:79:15
	ldr	r0, [sp, #100]
	.loc	2 79 35 is_stmt 0               @ ../User/App/Gimbal_Task.c:79:35
	addw	r0, r0, #1074
	vldr	s0, .LCPI0_8
	add	r1, sp, #28
	.loc	2 79 5                          @ ../User/App/Gimbal_Task.c:79:5
	vmov.f32	s2, s3
	vmov.f32	s4, s5
	bl	PID_Init
	movs	r0, #1
	.loc	2 86 5 is_stmt 1                @ ../User/App/Gimbal_Task.c:86:5
	add	sp, #104
	pop	{r7, pc}
.Ltmp1:
	.p2align	2
@ %bb.1:
	.loc	2 0 5 is_stmt 0                 @ ../User/App/Gimbal_Task.c:0:5
.LCPI0_0:
	.long	0x44fa0000                      @ float 2000
.LCPI0_1:
	.long	0x45bb8000                      @ float 6000
.LCPI0_2:
	.long	0x42480000                      @ float 50
.LCPI0_3:
	.long	0x447a0000                      @ float 1000
.LCPI0_4:
	.long	0x00000000                      @ float 0
.LCPI0_5:
	.long	0x44ff0000                      @ float 2040
.LCPI0_6:
	.long	0x453b8000                      @ float 3000
.LCPI0_7:
	.long	0x42c80000                      @ float 100
.LCPI0_8:
	.long	0x466a6000                      @ float 15000
.Lfunc_end0:
	.size	MOTOR_PID_Gimbal_INIT, .Lfunc_end0-MOTOR_PID_Gimbal_INIT
	.cfi_endproc
	.cantunwind
	.fnend
                                        @ -- End function
	.section	.text.Gimbal_AIM_INIT,"ax",%progbits
	.hidden	Gimbal_AIM_INIT                 @ -- Begin function Gimbal_AIM_INIT
	.globl	Gimbal_AIM_INIT
	.p2align	2
	.type	Gimbal_AIM_INIT,%function
	.code	16                              @ @Gimbal_AIM_INIT
	.thumb_func
Gimbal_AIM_INIT:
.Lfunc_begin1:
	.loc	2 90 0 is_stmt 1                @ ../User/App/Gimbal_Task.c:90:0
	.fnstart
	.cfi_startproc
@ %bb.0:
	.save	{r7, lr}
	push	{r7, lr}
	.cfi_def_cfa_offset 8
	.cfi_offset lr, -4
	.cfi_offset r7, -8
	.pad	#16
	sub	sp, #16
	.cfi_def_cfa_offset 24
	str	r0, [sp, #8]
	str	r1, [sp, #4]
.Ltmp2:
	.loc	2 92 9 prologue_end             @ ../User/App/Gimbal_Task.c:92:9
	ldr	r0, [sp, #8]
	.loc	2 92 15 is_stmt 0               @ ../User/App/Gimbal_Task.c:92:15
	ldrb	r0, [r0, #2]
	.loc	2 92 37                         @ ../User/App/Gimbal_Task.c:92:37
	cbz	r0, .LBB1_2
	b	.LBB1_1
.LBB1_1:
	.loc	2 93 9 is_stmt 1                @ ../User/App/Gimbal_Task.c:93:9
	ldr	r0, [sp, #8]
	.loc	2 93 15 is_stmt 0               @ ../User/App/Gimbal_Task.c:93:15
	ldrb	r0, [r0, #3]
.Ltmp3:
	.loc	2 92 9 is_stmt 1                @ ../User/App/Gimbal_Task.c:92:9
	cbnz	r0, .LBB1_3
	b	.LBB1_2
.LBB1_2:
	.loc	2 0 9 is_stmt 0                 @ ../User/App/Gimbal_Task.c:0:9
	movs	r0, #0
.Ltmp4:
	.loc	2 94 9 is_stmt 1                @ ../User/App/Gimbal_Task.c:94:9
	strb.w	r0, [sp, #15]
	b	.LBB1_4
.Ltmp5:
.LBB1_3:
	.loc	2 97 29                         @ ../User/App/Gimbal_Task.c:97:29
	ldr	r0, [sp, #4]
	.loc	2 97 36 is_stmt 0               @ ../User/App/Gimbal_Task.c:97:36
	adds	r0, #128
	movs	r1, #1
	.loc	2 97 5                          @ ../User/App/Gimbal_Task.c:97:5
	str	r1, [sp]                        @ 4-byte Spill
	bl	RUI_F_HEAD_MOTOR_CLEAR
	ldr	r1, [sp]                        @ 4-byte Reload
	.loc	2 98 29 is_stmt 1               @ ../User/App/Gimbal_Task.c:98:29
	ldr	r0, [sp, #4]
	.loc	2 98 36 is_stmt 0               @ ../User/App/Gimbal_Task.c:98:36
	add.w	r0, r0, #688
	.loc	2 98 5                          @ ../User/App/Gimbal_Task.c:98:5
	bl	RUI_F_HEAD_MOTOR_CLEAR
	ldr	r0, [sp]                        @ 4-byte Reload
	.loc	2 100 5 is_stmt 1               @ ../User/App/Gimbal_Task.c:100:5
	strb.w	r0, [sp, #15]
	b	.LBB1_4
.LBB1_4:
	.loc	2 101 1                         @ ../User/App/Gimbal_Task.c:101:1
	ldrb.w	r0, [sp, #15]
	add	sp, #16
	pop	{r7, pc}
.Ltmp6:
.Lfunc_end1:
	.size	Gimbal_AIM_INIT, .Lfunc_end1-Gimbal_AIM_INIT
	.cfi_endproc
	.cantunwind
	.fnend
                                        @ -- End function
	.section	.text.gimbal_task,"ax",%progbits
	.hidden	gimbal_task                     @ -- Begin function gimbal_task
	.globl	gimbal_task
	.p2align	3
	.type	gimbal_task,%function
	.code	16                              @ @gimbal_task
	.thumb_func
gimbal_task:
.Lfunc_begin2:
	.loc	2 107 0                         @ ../User/App/Gimbal_Task.c:107:0
	.fnstart
	.cfi_startproc
@ %bb.0:
	.save	{r7, lr}
	push	{r7, lr}
	.cfi_def_cfa_offset 8
	.cfi_offset lr, -4
	.cfi_offset r7, -8
	.pad	#64
	sub	sp, #64
	.cfi_def_cfa_offset 72
	str	r0, [sp, #56]
	str	r1, [sp, #52]
	str	r2, [sp, #48]
	str	r3, [sp, #44]
.Ltmp7:
	.loc	2 108 6 prologue_end            @ ../User/App/Gimbal_Task.c:108:6
	movw	r0, :lower16:test1
	movt	r0, :upper16:test1
	ldr	r0, [r0]
.Ltmp8:
	.loc	2 108 6 is_stmt 0               @ ../User/App/Gimbal_Task.c:108:6
	cbnz	r0, .LBB2_2
	b	.LBB2_1
.LBB2_1:
.Ltmp9:
	.loc	2 109 10 is_stmt 1              @ ../User/App/Gimbal_Task.c:109:10
	bl	DWT_GetTimeline_us
	.loc	2 109 9 is_stmt 0               @ ../User/App/Gimbal_Task.c:109:9
	movw	r1, :lower16:test1
	movt	r1, :upper16:test1
	str	r0, [r1]
	.loc	2 109 31                        @ ../User/App/Gimbal_Task.c:109:31
	b	.LBB2_2
.Ltmp10:
.LBB2_2:
	.loc	2 115 9 is_stmt 1               @ ../User/App/Gimbal_Task.c:115:9
	movw	r0, :lower16:gimbal_task.PID_INIT
	movt	r0, :upper16:gimbal_task.PID_INIT
	ldrb	r0, [r0]
.Ltmp11:
	.loc	2 115 9 is_stmt 0               @ ../User/App/Gimbal_Task.c:115:9
	cmp	r0, #1
	beq	.LBB2_4
	b	.LBB2_3
.LBB2_3:
.Ltmp12:
	.loc	2 117 40 is_stmt 1              @ ../User/App/Gimbal_Task.c:117:40
	ldr	r0, [sp, #48]
	.loc	2 117 18 is_stmt 0              @ ../User/App/Gimbal_Task.c:117:18
	bl	MOTOR_PID_Gimbal_INIT
	.loc	2 117 16                        @ ../User/App/Gimbal_Task.c:117:16
	movw	r1, :lower16:gimbal_task.PID_INIT
	movt	r1, :upper16:gimbal_task.PID_INIT
	strb	r0, [r1]
	movs	r0, #0
	.loc	2 118 7 is_stmt 1               @ ../User/App/Gimbal_Task.c:118:7
	strb.w	r0, [sp, #63]
	b	.LBB2_22
.Ltmp13:
.LBB2_4:
	.loc	2 141 38                        @ ../User/App/Gimbal_Task.c:141:38
	ldr	r0, [sp, #56]
	.loc	2 141 51 is_stmt 0              @ ../User/App/Gimbal_Task.c:141:51
	ldr	r0, [r0, #32]
	.loc	2 141 5                         @ ../User/App/Gimbal_Task.c:141:5
	ldr	r1, [sp, #48]
	.loc	2 141 36                        @ ../User/App/Gimbal_Task.c:141:36
	str.w	r0, [r1, #180]
	.loc	2 142 36 is_stmt 1              @ ../User/App/Gimbal_Task.c:142:36
	ldr	r0, [sp, #56]
	.loc	2 142 49 is_stmt 0              @ ../User/App/Gimbal_Task.c:142:49
	ldr	r0, [r0, #44]
	.loc	2 142 5                         @ ../User/App/Gimbal_Task.c:142:5
	ldr	r1, [sp, #48]
	.loc	2 142 34                        @ ../User/App/Gimbal_Task.c:142:34
	str.w	r0, [r1, #740]
.Ltmp14:
	.loc	2 158 22 is_stmt 1              @ ../User/App/Gimbal_Task.c:158:22
	movw	r0, :lower16:WHW_V_DBUS
	movt	r0, :upper16:WHW_V_DBUS
	ldrb	r0, [r0, #13]
.Ltmp15:
	.loc	2 158 4 is_stmt 0               @ ../User/App/Gimbal_Task.c:158:4
	cmp	r0, #3
	bne	.LBB2_6
	b	.LBB2_5
.LBB2_5:
.Ltmp16:
	.loc	2 179 18 is_stmt 1              @ ../User/App/Gimbal_Task.c:179:18
	ldr	r0, [sp, #48]
	.loc	2 179 40 is_stmt 0              @ ../User/App/Gimbal_Task.c:179:40
	add.w	r0, r0, #344
	.loc	2 179 9                         @ ../User/App/Gimbal_Task.c:179:9
	movw	r1, :lower16:PID_P_Pitch_shou
	movt	r1, :upper16:PID_P_Pitch_shou
	bl	PID_set
	.loc	2 180 18 is_stmt 1              @ ../User/App/Gimbal_Task.c:180:18
	ldr	r0, [sp, #48]
	.loc	2 180 40 is_stmt 0              @ ../User/App/Gimbal_Task.c:180:40
	addw	r0, r0, #514
	.loc	2 180 9                         @ ../User/App/Gimbal_Task.c:180:9
	movw	r1, :lower16:PID_S_Pitch_shou
	movt	r1, :upper16:PID_S_Pitch_shou
	bl	PID_set
	.loc	2 182 18 is_stmt 1              @ ../User/App/Gimbal_Task.c:182:18
	ldr	r0, [sp, #48]
	.loc	2 182 38 is_stmt 0              @ ../User/App/Gimbal_Task.c:182:38
	add.w	r0, r0, #904
	.loc	2 182 9                         @ ../User/App/Gimbal_Task.c:182:9
	movw	r1, :lower16:PID_P_Yaw_shou
	movt	r1, :upper16:PID_P_Yaw_shou
	bl	PID_set
	.loc	2 183 18 is_stmt 1              @ ../User/App/Gimbal_Task.c:183:18
	ldr	r0, [sp, #48]
	.loc	2 183 38 is_stmt 0              @ ../User/App/Gimbal_Task.c:183:38
	addw	r0, r0, #1074
	.loc	2 183 9                         @ ../User/App/Gimbal_Task.c:183:9
	movw	r1, :lower16:PID_S_Yaw_shou
	movt	r1, :upper16:PID_S_Yaw_shou
	bl	PID_set
.Ltmp17:
	.loc	2 185 1 is_stmt 1               @ ../User/App/Gimbal_Task.c:185:1
	b	.LBB2_6
.Ltmp18:
.LBB2_6:
	.loc	2 186 22                        @ ../User/App/Gimbal_Task.c:186:22
	movw	r0, :lower16:WHW_V_DBUS
	movt	r0, :upper16:WHW_V_DBUS
	ldrb	r0, [r0, #13]
.Ltmp19:
	.loc	2 186 4 is_stmt 0               @ ../User/App/Gimbal_Task.c:186:4
	cmp	r0, #2
	bne	.LBB2_8
	b	.LBB2_7
.LBB2_7:
.Ltmp20:
	.loc	2 203 18 is_stmt 1              @ ../User/App/Gimbal_Task.c:203:18
	ldr	r0, [sp, #48]
	.loc	2 203 40 is_stmt 0              @ ../User/App/Gimbal_Task.c:203:40
	add.w	r0, r0, #344
	.loc	2 203 9                         @ ../User/App/Gimbal_Task.c:203:9
	movw	r1, :lower16:PID_P_Pitch_zimiao
	movt	r1, :upper16:PID_P_Pitch_zimiao
	bl	PID_set
	.loc	2 204 18 is_stmt 1              @ ../User/App/Gimbal_Task.c:204:18
	ldr	r0, [sp, #48]
	.loc	2 204 40 is_stmt 0              @ ../User/App/Gimbal_Task.c:204:40
	addw	r0, r0, #514
	.loc	2 204 9                         @ ../User/App/Gimbal_Task.c:204:9
	movw	r1, :lower16:PID_S_Pitch_zimiao
	movt	r1, :upper16:PID_S_Pitch_zimiao
	bl	PID_set
	.loc	2 206 18 is_stmt 1              @ ../User/App/Gimbal_Task.c:206:18
	ldr	r0, [sp, #48]
	.loc	2 206 38 is_stmt 0              @ ../User/App/Gimbal_Task.c:206:38
	add.w	r0, r0, #904
	.loc	2 206 9                         @ ../User/App/Gimbal_Task.c:206:9
	movw	r1, :lower16:PID_P_Yaw_zimiao
	movt	r1, :upper16:PID_P_Yaw_zimiao
	bl	PID_set
	.loc	2 207 18 is_stmt 1              @ ../User/App/Gimbal_Task.c:207:18
	ldr	r0, [sp, #48]
	.loc	2 207 38 is_stmt 0              @ ../User/App/Gimbal_Task.c:207:38
	addw	r0, r0, #1074
	.loc	2 207 9                         @ ../User/App/Gimbal_Task.c:207:9
	movw	r1, :lower16:PID_S_Yaw_zimiao
	movt	r1, :upper16:PID_S_Yaw_zimiao
	bl	PID_set
.Ltmp21:
	.loc	2 209 1 is_stmt 1               @ ../User/App/Gimbal_Task.c:209:1
	b	.LBB2_8
.Ltmp22:
.LBB2_8:
	.loc	2 214 9                         @ ../User/App/Gimbal_Task.c:214:9
	ldr	r0, [sp, #52]
	.loc	2 214 15 is_stmt 0              @ ../User/App/Gimbal_Task.c:214:15
	ldrb	r0, [r0]
.Ltmp23:
	.loc	2 214 8                         @ ../User/App/Gimbal_Task.c:214:8
	cbnz	r0, .LBB2_10
	b	.LBB2_9
.LBB2_9:
.Ltmp24:
	.loc	2 218 42 is_stmt 1              @ ../User/App/Gimbal_Task.c:218:42
	ldr	r0, [sp, #44]
	.loc	2 218 47 is_stmt 0              @ ../User/App/Gimbal_Task.c:218:47
	vldr	s0, [r0, #56]
	vldr	s2, .LCPI2_0
	.loc	2 218 53                        @ ../User/App/Gimbal_Task.c:218:53
	vmul.f32	s0, s0, s2
	.loc	2 218 9                         @ ../User/App/Gimbal_Task.c:218:9
	ldr	r0, [sp, #48]
	.loc	2 218 40                        @ ../User/App/Gimbal_Task.c:218:40
	vstr	s0, [r0, #180]
	.loc	2 223 9 is_stmt 1               @ ../User/App/Gimbal_Task.c:223:9
	mov	r0, sp
	movs	r3, #0
	str	r3, [sp, #32]                   @ 4-byte Spill
	str	r3, [r0, #4]
	str	r3, [r0]
	movw	r0, :lower16:hcan1
	movt	r0, :upper16:hcan1
	str	r0, [sp, #28]                   @ 4-byte Spill
	mov.w	r1, #512
	mov	r2, r3
	bl	DJI_Current_Ctrl
	ldr	r0, [sp, #28]                   @ 4-byte Reload
	ldr	r2, [sp, #32]                   @ 4-byte Reload
	movs	r1, #2
	.loc	2 224 6                         @ ../User/App/Gimbal_Task.c:224:6
	bl	LKMF_iq_ctrl
	ldr	r3, [sp, #32]                   @ 4-byte Reload
	.loc	2 225 6                         @ ../User/App/Gimbal_Task.c:225:6
	mov	r0, sp
	str	r3, [r0, #4]
	str	r3, [r0]
	movw	r0, :lower16:hcan2
	movt	r0, :upper16:hcan2
	movw	r1, #1278
	mov	r2, r3
	bl	DJI_Current_Ctrl
	ldr	r0, [sp, #32]                   @ 4-byte Reload
	.loc	2 227 18                        @ ../User/App/Gimbal_Task.c:227:18
	movw	r1, :lower16:gimbal_task.PID_INIT
	movt	r1, :upper16:gimbal_task.PID_INIT
	strb	r0, [r1]
	.loc	2 228 18                        @ ../User/App/Gimbal_Task.c:228:18
	movw	r1, :lower16:gimbal_task.AIM_INIT
	movt	r1, :upper16:gimbal_task.AIM_INIT
	strb	r0, [r1]
	.loc	2 229 5                         @ ../User/App/Gimbal_Task.c:229:5
	b	.LBB2_10
.Ltmp25:
.LBB2_10:
	.loc	2 236 28                        @ ../User/App/Gimbal_Task.c:236:28
	ldr	r1, [sp, #48]
	.loc	2 236 50 is_stmt 0              @ ../User/App/Gimbal_Task.c:236:50
	add.w	r0, r1, #200
	.loc	2 237 54 is_stmt 1              @ ../User/App/Gimbal_Task.c:237:54
	vldr	s0, [r1, #180]
	.loc	2 236 5                         @ ../User/App/Gimbal_Task.c:236:5
	bl	Feedforward_Calculate
	.loc	2 238 20                        @ ../User/App/Gimbal_Task.c:238:20
	ldr	r1, [sp, #48]
	.loc	2 238 42 is_stmt 0              @ ../User/App/Gimbal_Task.c:238:42
	add.w	r0, r1, #344
	.loc	2 239 19 is_stmt 1              @ ../User/App/Gimbal_Task.c:239:19
	ldr	r2, [sp, #44]
	.loc	2 239 24 is_stmt 0              @ ../User/App/Gimbal_Task.c:239:24
	vldr	s0, [r2, #56]
	vldr	s2, .LCPI2_0
	.loc	2 239 30                        @ ../User/App/Gimbal_Task.c:239:30
	vmul.f32	s0, s0, s2
	.loc	2 240 46 is_stmt 1              @ ../User/App/Gimbal_Task.c:240:46
	vldr	s1, [r1, #180]
	.loc	2 238 5                         @ ../User/App/Gimbal_Task.c:238:5
	bl	PID_Calculate
	.loc	2 241 20                        @ ../User/App/Gimbal_Task.c:241:20
	ldr	r1, [sp, #48]
	.loc	2 241 42 is_stmt 0              @ ../User/App/Gimbal_Task.c:241:42
	addw	r0, r1, #514
	.loc	2 242 19 is_stmt 1              @ ../User/App/Gimbal_Task.c:242:19
	ldr	r2, [sp, #44]
	vldr	s0, [r2, #16]
	vldr	s2, .LCPI2_1
	vstr	s2, [sp, #24]                   @ 4-byte Spill
	.loc	2 242 32 is_stmt 0              @ ../User/App/Gimbal_Task.c:242:32
	vmul.f32	s0, s0, s2
	.loc	2 243 47 is_stmt 1              @ ../User/App/Gimbal_Task.c:243:47
	vldr	s1, [r1, #396]
	.loc	2 241 5                         @ ../User/App/Gimbal_Task.c:241:5
	bl	PID_Calculate
	.loc	2 246 28                        @ ../User/App/Gimbal_Task.c:246:28
	ldr	r1, [sp, #48]
	.loc	2 246 48 is_stmt 0              @ ../User/App/Gimbal_Task.c:246:48
	add.w	r0, r1, #760
	.loc	2 247 52 is_stmt 1              @ ../User/App/Gimbal_Task.c:247:52
	vldr	s0, [r1, #740]
	.loc	2 246 5                         @ ../User/App/Gimbal_Task.c:246:5
	bl	Feedforward_Calculate
	.loc	2 248 20                        @ ../User/App/Gimbal_Task.c:248:20
	ldr	r1, [sp, #48]
	.loc	2 248 40 is_stmt 0              @ ../User/App/Gimbal_Task.c:248:40
	add.w	r0, r1, #904
	.loc	2 249 19 is_stmt 1              @ ../User/App/Gimbal_Task.c:249:19
	ldr	r2, [sp, #44]
	.loc	2 249 24 is_stmt 0              @ ../User/App/Gimbal_Task.c:249:24
	vldr	s0, [r2, #68]
	vldr	s2, .LCPI2_2
	.loc	2 249 38                        @ ../User/App/Gimbal_Task.c:249:38
	vmul.f32	s0, s0, s2
	.loc	2 250 44 is_stmt 1              @ ../User/App/Gimbal_Task.c:250:44
	vldr	s1, [r1, #740]
	.loc	2 248 5                         @ ../User/App/Gimbal_Task.c:248:5
	bl	PID_Calculate
	vldr	s2, [sp, #24]                   @ 4-byte Reload
	.loc	2 251 20                        @ ../User/App/Gimbal_Task.c:251:20
	ldr	r1, [sp, #48]
	.loc	2 251 40 is_stmt 0              @ ../User/App/Gimbal_Task.c:251:40
	addw	r0, r1, #1074
	.loc	2 252 19 is_stmt 1              @ ../User/App/Gimbal_Task.c:252:19
	ldr	r2, [sp, #44]
	vldr	s0, [r2, #20]
	.loc	2 252 32 is_stmt 0              @ ../User/App/Gimbal_Task.c:252:32
	vmul.f32	s0, s0, s2
	.loc	2 253 45 is_stmt 1              @ ../User/App/Gimbal_Task.c:253:45
	vldr	s1, [r1, #956]
	.loc	2 251 5                         @ ../User/App/Gimbal_Task.c:251:5
	bl	PID_Calculate
	.loc	2 258 16                        @ ../User/App/Gimbal_Task.c:258:16
	ldr	r0, [sp, #48]
	.loc	2 258 44 is_stmt 0              @ ../User/App/Gimbal_Task.c:258:44
	vldr	s0, [r0, #336]
	.loc	2 259 44 is_stmt 1              @ ../User/App/Gimbal_Task.c:259:44
	ldr.w	r0, [r0, #566]
	vmov	s2, r0
	.loc	2 258 51                        @ ../User/App/Gimbal_Task.c:258:51
	vadd.f32	s0, s0, s2
	.loc	2 258 14 is_stmt 0              @ ../User/App/Gimbal_Task.c:258:14
	vstr	s0, [sp, #36]
	.loc	2 261 16 is_stmt 1              @ ../User/App/Gimbal_Task.c:261:16
	ldr	r0, [sp, #48]
	.loc	2 261 42 is_stmt 0              @ ../User/App/Gimbal_Task.c:261:42
	vldr	s0, [r0, #896]
	.loc	2 262 42 is_stmt 1              @ ../User/App/Gimbal_Task.c:262:42
	ldr.w	r0, [r0, #1126]
	vmov	s2, r0
	.loc	2 261 49                        @ ../User/App/Gimbal_Task.c:261:49
	vadd.f32	s0, s0, s2
	.loc	2 261 14 is_stmt 0              @ ../User/App/Gimbal_Task.c:261:14
	vstr	s0, [sp, #40]
.Ltmp26:
	.loc	2 314 6 is_stmt 1               @ ../User/App/Gimbal_Task.c:314:6
	ldr	r0, [sp, #52]
	.loc	2 314 12 is_stmt 0              @ ../User/App/Gimbal_Task.c:314:12
	ldrb	r0, [r0]
.Ltmp27:
	.loc	2 314 6                         @ ../User/App/Gimbal_Task.c:314:6
	cmp	r0, #0
	beq.w	.LBB2_18
	b	.LBB2_11
.LBB2_11:
.Ltmp28:
	.loc	2 316 24 is_stmt 1              @ ../User/App/Gimbal_Task.c:316:24
	movw	r0, :lower16:WHW_V_DBUS
	movt	r0, :upper16:WHW_V_DBUS
	ldrb	r0, [r0, #13]
.Ltmp29:
	.loc	2 316 6 is_stmt 0               @ ../User/App/Gimbal_Task.c:316:6
	cmp	r0, #1
	bne	.LBB2_16
	b	.LBB2_12
.LBB2_12:
.Ltmp30:
	.loc	2 318 4 is_stmt 1               @ ../User/App/Gimbal_Task.c:318:4
	movw	r0, :lower16:hcan1
	movt	r0, :upper16:hcan1
	movs	r1, #2
	movs	r2, #0
	str	r2, [sp, #20]                   @ 4-byte Spill
	bl	LKMF_iq_ctrl
	ldr	r3, [sp, #20]                   @ 4-byte Reload
	.loc	2 319 5                         @ ../User/App/Gimbal_Task.c:319:5
	mov	r0, sp
	str	r3, [r0, #4]
	str	r3, [r0]
	movw	r0, :lower16:hcan2
	movt	r0, :upper16:hcan2
	movw	r1, #1278
	mov	r2, r3
	bl	DJI_Current_Ctrl
.Ltmp31:
	.loc	2 320 25                        @ ../User/App/Gimbal_Task.c:320:25
	movw	r0, :lower16:WHW_V_DBUS
	movt	r0, :upper16:WHW_V_DBUS
	ldrb	r0, [r0, #12]
.Ltmp32:
	.loc	2 320 7 is_stmt 0               @ ../User/App/Gimbal_Task.c:320:7
	cmp	r0, #2
	bne	.LBB2_14
	b	.LBB2_13
.LBB2_13:
.Ltmp33:
	.loc	2 322 5 is_stmt 1               @ ../User/App/Gimbal_Task.c:322:5
	mov	r0, sp
	movs	r3, #0
	str	r3, [r0, #4]
	str	r3, [r0]
	movw	r0, :lower16:hcan1
	movt	r0, :upper16:hcan1
	mov.w	r1, #512
	mov	r2, r3
	bl	DJI_Current_Ctrl
	.loc	2 324 4                         @ ../User/App/Gimbal_Task.c:324:4
	b	.LBB2_15
.Ltmp34:
.LBB2_14:
	.loc	2 326 39                        @ ../User/App/Gimbal_Task.c:326:39
	ldr	r1, [sp, #48]
	.loc	2 326 69 is_stmt 0              @ ../User/App/Gimbal_Task.c:326:69
	ldr.w	r0, [r1, #1686]
	vmov	s0, r0
	.loc	2 326 39                        @ ../User/App/Gimbal_Task.c:326:39
	vcvt.s32.f32	s0, s0
	vmov	r3, s0
	.loc	2 327 63 is_stmt 1              @ ../User/App/Gimbal_Task.c:327:63
	ldr.w	r0, [r1, #2806]
	vmov	s0, r0
	.loc	2 327 33 is_stmt 0              @ ../User/App/Gimbal_Task.c:327:33
	vcvt.s32.f32	s0, s0
	vmov	r0, s0
	.loc	2 328 67 is_stmt 1              @ ../User/App/Gimbal_Task.c:328:67
	ldr.w	r1, [r1, #2246]
	vmov	s0, r1
	.loc	2 328 37 is_stmt 0              @ ../User/App/Gimbal_Task.c:328:37
	vcvt.s32.f32	s0, s0
	vmov	r2, s0
	.loc	2 326 6 is_stmt 1               @ ../User/App/Gimbal_Task.c:326:6
	mov	r1, sp
	str	r2, [r1, #4]
	str	r0, [r1]
	movw	r0, :lower16:hcan1
	movt	r0, :upper16:hcan1
	mov.w	r1, #512
	movs	r2, #0
	bl	DJI_Current_Ctrl
	b	.LBB2_15
.Ltmp35:
.LBB2_15:
	.loc	2 330 3                         @ ../User/App/Gimbal_Task.c:330:3
	b	.LBB2_17
.Ltmp36:
.LBB2_16:
	.loc	2 333 24                        @ ../User/App/Gimbal_Task.c:333:24
	ldr	r0, [sp, #44]
	ldr	r0, [r0, #56]
	bl	__aeabi_f2d
	vmov	d0, r0, r1
	vldr	d1, .LCPI2_3
	.loc	2 333 34 is_stmt 0              @ ../User/App/Gimbal_Task.c:333:34
	vmov	r2, r3, d1
	vmov	r0, r1, d0
	bl	__aeabi_dmul
	vmov	d0, r0, r1
	.loc	2 333 20                        @ ../User/App/Gimbal_Task.c:333:20
	bl	__hardfp_cos
	.loc	2 333 19                        @ ../User/App/Gimbal_Task.c:333:19
	vmov	r0, r1, d0
	vldr	d0, .LCPI2_4
	vmov	r2, r3, d0
	bl	__aeabi_dmul
	vmov	d0, r0, r1
	.loc	2 333 44                        @ ../User/App/Gimbal_Task.c:333:44
	vmov	r0, r1, d0
	vldr	d0, .LCPI2_5
	vmov	r2, r3, d0
	bl	__aeabi_ddiv
	vmov	d0, r0, r1
	.loc	2 333 49                        @ ../User/App/Gimbal_Task.c:333:49
	vmov	r0, r1, d0
	vldr	d0, .LCPI2_6
	vmov	r2, r3, d0
	bl	__aeabi_ddiv
	vmov	d0, r0, r1
	.loc	2 333 52                        @ ../User/App/Gimbal_Task.c:333:52
	vmov	r0, r1, d0
	vldr	d0, .LCPI2_7
	vmov	r2, r3, d0
	bl	__aeabi_dmul
	vmov	d0, r0, r1
	.loc	2 333 12                        @ ../User/App/Gimbal_Task.c:333:12
	vmov	r0, r1, d0
	bl	__aeabi_d2f
	mov	r1, r0
	.loc	2 333 11                        @ ../User/App/Gimbal_Task.c:333:11
	movw	r0, :lower16:pitch_F
	movt	r0, :upper16:pitch_F
	str	r0, [sp, #8]                    @ 4-byte Spill
	str	r1, [r0]
	.loc	2 334 33 is_stmt 1              @ ../User/App/Gimbal_Task.c:334:33
	vldr	s0, [r0]
	.loc	2 334 12 is_stmt 0              @ ../User/App/Gimbal_Task.c:334:12
	bl	RUI_F_MATH_ABS_float
	ldr	r0, [sp, #8]                    @ 4-byte Reload
	.loc	2 334 11                        @ ../User/App/Gimbal_Task.c:334:11
	vstr	s0, [r0]
	.loc	2 335 29 is_stmt 1              @ ../User/App/Gimbal_Task.c:335:29
	ldr	r0, [sp, #48]
	.loc	2 335 57 is_stmt 0              @ ../User/App/Gimbal_Task.c:335:57
	ldr.w	r0, [r0, #566]
	eor	r0, r0, #-2147483648
	vmov	s0, r0
	.loc	2 335 28                        @ ../User/App/Gimbal_Task.c:335:28
	vcvt.s32.f32	s0, s0
	vmov	r2, s0
	.loc	2 335 6                         @ ../User/App/Gimbal_Task.c:335:6
	movw	r0, :lower16:hcan1
	movt	r0, :upper16:hcan1
	str	r0, [sp, #12]                   @ 4-byte Spill
	movs	r1, #2
	bl	LKMF_iq_ctrl
	.loc	2 336 44 is_stmt 1              @ ../User/App/Gimbal_Task.c:336:44
	ldr	r0, [sp, #48]
	.loc	2 336 70 is_stmt 0              @ ../User/App/Gimbal_Task.c:336:70
	ldr.w	r0, [r0, #1126]
	vmov	s0, r0
	.loc	2 336 35                        @ ../User/App/Gimbal_Task.c:336:35
	vcvt.s32.f32	s0, s0
	vmov	r0, s0
	.loc	2 336 34                        @ ../User/App/Gimbal_Task.c:336:34
	rsbs	r0, r0, #0
	.loc	2 336 4                         @ ../User/App/Gimbal_Task.c:336:4
	mov	r1, sp
	movs	r3, #0
	str	r3, [sp, #16]                   @ 4-byte Spill
	str	r3, [r1, #4]
	str	r3, [r1]
	sxth	r2, r0
	movw	r0, :lower16:hcan2
	movt	r0, :upper16:hcan2
	movw	r1, #1278
	bl	DJI_Current_Ctrl
	movs	r0, #15
	.loc	2 337 4 is_stmt 1               @ ../User/App/Gimbal_Task.c:337:4
	bl	DWT_Delay_us
	ldr	r0, [sp, #12]                   @ 4-byte Reload
	ldr	r2, [sp, #16]                   @ 4-byte Reload
	.loc	2 341 37                        @ ../User/App/Gimbal_Task.c:341:37
	ldr.w	r12, [sp, #48]
	.loc	2 341 67 is_stmt 0              @ ../User/App/Gimbal_Task.c:341:67
	ldr.w	r1, [r12, #1686]
	vmov	s0, r1
	.loc	2 341 37                        @ ../User/App/Gimbal_Task.c:341:37
	vcvt.s32.f32	s0, s0
	vmov	r3, s0
	.loc	2 342 63 is_stmt 1              @ ../User/App/Gimbal_Task.c:342:63
	ldr.w	r1, [r12, #2806]
	vmov	s0, r1
	.loc	2 342 33 is_stmt 0              @ ../User/App/Gimbal_Task.c:342:33
	vcvt.s32.f32	s0, s0
	vmov	r1, s0
	.loc	2 343 67 is_stmt 1              @ ../User/App/Gimbal_Task.c:343:67
	ldr.w	r12, [r12, #2246]
	vmov	s0, r12
	.loc	2 343 37 is_stmt 0              @ ../User/App/Gimbal_Task.c:343:37
	vcvt.s32.f32	s0, s0
	vmov	lr, s0
	.loc	2 341 4 is_stmt 1               @ ../User/App/Gimbal_Task.c:341:4
	mov	r12, sp
	str.w	lr, [r12, #4]
	str.w	r1, [r12]
	mov.w	r1, #512
	bl	DJI_Current_Ctrl
	b	.LBB2_17
.Ltmp37:
.LBB2_17:
	.loc	2 348 1                         @ ../User/App/Gimbal_Task.c:348:1
	b	.LBB2_18
.Ltmp38:
.LBB2_18:
	.loc	2 349 8                         @ ../User/App/Gimbal_Task.c:349:8
	movw	r0, :lower16:test1
	movt	r0, :upper16:test1
	ldr	r0, [r0]
	.loc	2 349 16 is_stmt 0              @ ../User/App/Gimbal_Task.c:349:16
	cmp	r0, #1
	beq	.LBB2_21
	b	.LBB2_19
.LBB2_19:
	.loc	2 349 18                        @ ../User/App/Gimbal_Task.c:349:18
	movw	r0, :lower16:lock
	movt	r0, :upper16:lock
	ldrb	r0, [r0]
.Ltmp39:
	.loc	2 349 8                         @ ../User/App/Gimbal_Task.c:349:8
	cbnz	r0, .LBB2_21
	b	.LBB2_20
.LBB2_20:
.Ltmp40:
	.loc	2 350 10 is_stmt 1              @ ../User/App/Gimbal_Task.c:350:10
	bl	DWT_GetTimeline_us
	.loc	2 350 9 is_stmt 0               @ ../User/App/Gimbal_Task.c:350:9
	movw	r1, :lower16:test2
	movt	r1, :upper16:test2
	str	r0, [r1]
	.loc	2 350 35                        @ ../User/App/Gimbal_Task.c:350:35
	movw	r1, :lower16:lock
	movt	r1, :upper16:lock
	movs	r0, #1
	strb	r0, [r1]
	.loc	2 350 38                        @ ../User/App/Gimbal_Task.c:350:38
	b	.LBB2_21
.Ltmp41:
.LBB2_21:
	.loc	2 0 38                          @ ../User/App/Gimbal_Task.c:0:38
	movs	r0, #1
	.loc	2 351 5 is_stmt 1               @ ../User/App/Gimbal_Task.c:351:5
	strb.w	r0, [sp, #63]
	b	.LBB2_22
.LBB2_22:
	.loc	2 352 1                         @ ../User/App/Gimbal_Task.c:352:1
	ldrb.w	r0, [sp, #63]
	add	sp, #64
	pop	{r7, pc}
.Ltmp42:
	.p2align	3
@ %bb.23:
	.loc	2 0 1 is_stmt 0                 @ ../User/App/Gimbal_Task.c:0:1
.LCPI2_3:
	.long	14568529                        @ double 0.017453
	.long	1066524467
.LCPI2_4:
	.long	2431295087                      @ double 0.48252
	.long	1071571355
.LCPI2_5:
	.long	515396076                       @ double 0.070000000000000007
	.long	1068624773
.LCPI2_6:
	.long	0                               @ double 33
	.long	1077968896
.LCPI2_7:
	.long	0                               @ double 2048
	.long	1084227584
.LCPI2_0:
	.long	0x42480000                      @ float 50
.LCPI2_1:
	.long	0x42c80000                      @ float 100
.LCPI2_2:
	.long	0x41b60000                      @ float 22.75
.Lfunc_end2:
	.size	gimbal_task, .Lfunc_end2-gimbal_task
	.cfi_endproc
	.cantunwind
	.fnend
                                        @ -- End function
	.hidden	test1                           @ @test1
	.type	test1,%object
	.section	.data.test1,"aw",%progbits
	.globl	test1
	.p2align	2
test1:
	.long	1                               @ 0x1
	.size	test1, 4

	.hidden	test2                           @ @test2
	.type	test2,%object
	.section	.data.test2,"aw",%progbits
	.globl	test2
	.p2align	2
test2:
	.long	1                               @ 0x1
	.size	test2, 4

	.hidden	lock                            @ @lock
	.type	lock,%object
	.section	.bss.lock,"aw",%nobits
	.globl	lock
lock:
	.byte	0                               @ 0x0
	.size	lock, 1

	.hidden	PID_P_Yaw_4_shou                @ @PID_P_Yaw_4_shou
	.type	PID_P_Yaw_4_shou,%object
	.section	.data.PID_P_Yaw_4_shou,"aw",%progbits
	.globl	PID_P_Yaw_4_shou
	.p2align	2
PID_P_Yaw_4_shou:
	.long	0x3fd9999a                      @ float 1.70000005
	.long	0x3d8f5c29                      @ float 0.0700000003
	.long	0x00000000                      @ float 0
	.size	PID_P_Yaw_4_shou, 12

	.hidden	PID_P_Yaw_3_shou                @ @PID_P_Yaw_3_shou
	.type	PID_P_Yaw_3_shou,%object
	.section	.data.PID_P_Yaw_3_shou,"aw",%progbits
	.globl	PID_P_Yaw_3_shou
	.p2align	2
PID_P_Yaw_3_shou:
	.long	0x3fd9999a                      @ float 1.70000005
	.long	0x3e800000                      @ float 0.25
	.long	0x00000000                      @ float 0
	.size	PID_P_Yaw_3_shou, 12

	.hidden	PID_P_Yaw_2_shou                @ @PID_P_Yaw_2_shou
	.type	PID_P_Yaw_2_shou,%object
	.section	.data.PID_P_Yaw_2_shou,"aw",%progbits
	.globl	PID_P_Yaw_2_shou
	.p2align	2
PID_P_Yaw_2_shou:
	.long	0x3fd9999a                      @ float 1.70000005
	.long	0x3e99999a                      @ float 0.300000012
	.long	0x00000000                      @ float 0
	.size	PID_P_Yaw_2_shou, 12

	.hidden	PID_P_Yaw_1_shou                @ @PID_P_Yaw_1_shou
	.type	PID_P_Yaw_1_shou,%object
	.section	.data.PID_P_Yaw_1_shou,"aw",%progbits
	.globl	PID_P_Yaw_1_shou
	.p2align	2
PID_P_Yaw_1_shou:
	.long	0x40133333                      @ float 2.29999995
	.long	0x3ecccccd                      @ float 0.400000006
	.long	0x00000000                      @ float 0
	.size	PID_P_Yaw_1_shou, 12

	.hidden	PID_P_Yaw_4_zimiao              @ @PID_P_Yaw_4_zimiao
	.type	PID_P_Yaw_4_zimiao,%object
	.section	.data.PID_P_Yaw_4_zimiao,"aw",%progbits
	.globl	PID_P_Yaw_4_zimiao
	.p2align	2
PID_P_Yaw_4_zimiao:
	.long	0x3fe66666                      @ float 1.79999995
	.long	0x3d8f5c29                      @ float 0.0700000003
	.long	0x00000000                      @ float 0
	.size	PID_P_Yaw_4_zimiao, 12

	.hidden	PID_P_Yaw_3_zimiao              @ @PID_P_Yaw_3_zimiao
	.type	PID_P_Yaw_3_zimiao,%object
	.section	.data.PID_P_Yaw_3_zimiao,"aw",%progbits
	.globl	PID_P_Yaw_3_zimiao
	.p2align	2
PID_P_Yaw_3_zimiao:
	.long	0x3fe66666                      @ float 1.79999995
	.long	0x3e800000                      @ float 0.25
	.long	0x00000000                      @ float 0
	.size	PID_P_Yaw_3_zimiao, 12

	.hidden	PID_P_Yaw_2_zimiao              @ @PID_P_Yaw_2_zimiao
	.type	PID_P_Yaw_2_zimiao,%object
	.section	.data.PID_P_Yaw_2_zimiao,"aw",%progbits
	.globl	PID_P_Yaw_2_zimiao
	.p2align	2
PID_P_Yaw_2_zimiao:
	.long	0x3fe66666                      @ float 1.79999995
	.long	0x3e99999a                      @ float 0.300000012
	.long	0x00000000                      @ float 0
	.size	PID_P_Yaw_2_zimiao, 12

	.hidden	PID_P_Yaw_1_zimiao              @ @PID_P_Yaw_1_zimiao
	.type	PID_P_Yaw_1_zimiao,%object
	.section	.data.PID_P_Yaw_1_zimiao,"aw",%progbits
	.globl	PID_P_Yaw_1_zimiao
	.p2align	2
PID_P_Yaw_1_zimiao:
	.long	0x40133333                      @ float 2.29999995
	.long	0x3ecccccd                      @ float 0.400000006
	.long	0x00000000                      @ float 0
	.size	PID_P_Yaw_1_zimiao, 12

	.hidden	PID_P_Yaw_shou                  @ @PID_P_Yaw_shou
	.type	PID_P_Yaw_shou,%object
	.section	.data.PID_P_Yaw_shou,"aw",%progbits
	.globl	PID_P_Yaw_shou
	.p2align	2
PID_P_Yaw_shou:
	.long	0x3f8ccccd                      @ float 1.10000002
	.long	0x3b449ba6                      @ float 0.00300000003
	.long	0x00000000                      @ float 0
	.size	PID_P_Yaw_shou, 12

	.hidden	PID_S_Yaw_shou                  @ @PID_S_Yaw_shou
	.type	PID_S_Yaw_shou,%object
	.section	.data.PID_S_Yaw_shou,"aw",%progbits
	.globl	PID_S_Yaw_shou
	.p2align	2
PID_S_Yaw_shou:
	.long	0x3da3d70a                      @ float 0.0799999982
	.long	0x00000000                      @ float 0
	.long	0x00000000                      @ float 0
	.size	PID_S_Yaw_shou, 12

	.hidden	PID_P_Pitch_shou                @ @PID_P_Pitch_shou
	.type	PID_P_Pitch_shou,%object
	.section	.data.PID_P_Pitch_shou,"aw",%progbits
	.globl	PID_P_Pitch_shou
	.p2align	2
PID_P_Pitch_shou:
	.long	0x3f19999a                      @ float 0.600000024
	.long	0x3c23d70a                      @ float 0.00999999977
	.long	0x00000000                      @ float 0
	.size	PID_P_Pitch_shou, 12

	.hidden	PID_S_Pitch_shou                @ @PID_S_Pitch_shou
	.type	PID_S_Pitch_shou,%object
	.section	.data.PID_S_Pitch_shou,"aw",%progbits
	.globl	PID_S_Pitch_shou
	.p2align	2
PID_S_Pitch_shou:
	.long	0x3f19999a                      @ float 0.600000024
	.long	0x00000000                      @ float 0
	.long	0x3c23d70a                      @ float 0.00999999977
	.size	PID_S_Pitch_shou, 12

	.hidden	PID_P_Yaw_zimiao                @ @PID_P_Yaw_zimiao
	.type	PID_P_Yaw_zimiao,%object
	.section	.data.PID_P_Yaw_zimiao,"aw",%progbits
	.globl	PID_P_Yaw_zimiao
	.p2align	2
PID_P_Yaw_zimiao:
	.long	0x3f99999a                      @ float 1.20000005
	.long	0x3b449ba6                      @ float 0.00300000003
	.long	0x00000000                      @ float 0
	.size	PID_P_Yaw_zimiao, 12

	.hidden	PID_S_Yaw_zimiao                @ @PID_S_Yaw_zimiao
	.type	PID_S_Yaw_zimiao,%object
	.section	.data.PID_S_Yaw_zimiao,"aw",%progbits
	.globl	PID_S_Yaw_zimiao
	.p2align	2
PID_S_Yaw_zimiao:
	.long	0x3df5c28f                      @ float 0.119999997
	.long	0x00000000                      @ float 0
	.long	0x00000000                      @ float 0
	.size	PID_S_Yaw_zimiao, 12

	.hidden	PID_P_Pitch_zimiao              @ @PID_P_Pitch_zimiao
	.type	PID_P_Pitch_zimiao,%object
	.section	.data.PID_P_Pitch_zimiao,"aw",%progbits
	.globl	PID_P_Pitch_zimiao
	.p2align	2
PID_P_Pitch_zimiao:
	.long	0x3f4ccccd                      @ float 0.800000011
	.long	0x3cf5c28f                      @ float 0.0299999993
	.long	0x00000000                      @ float 0
	.size	PID_P_Pitch_zimiao, 12

	.hidden	PID_S_Pitch_zimiao              @ @PID_S_Pitch_zimiao
	.type	PID_S_Pitch_zimiao,%object
	.section	.data.PID_S_Pitch_zimiao,"aw",%progbits
	.globl	PID_S_Pitch_zimiao
	.p2align	2
PID_S_Pitch_zimiao:
	.long	0x3f19999a                      @ float 0.600000024
	.long	0x00000000                      @ float 0
	.long	0x3c23d70a                      @ float 0.00999999977
	.size	PID_S_Pitch_zimiao, 12

	.type	.L__const.MOTOR_PID_Gimbal_INIT.PID_P_Pitch,%object @ @__const.MOTOR_PID_Gimbal_INIT.PID_P_Pitch
	.section	.rodata..L__const.MOTOR_PID_Gimbal_INIT.PID_P_Pitch,"a",%progbits
	.p2align	2
.L__const.MOTOR_PID_Gimbal_INIT.PID_P_Pitch:
	.long	0x3f866666                      @ float 1.04999995
	.long	0x3b83126f                      @ float 0.00400000019
	.long	0x00000000                      @ float 0
	.size	.L__const.MOTOR_PID_Gimbal_INIT.PID_P_Pitch, 12

	.type	.L__const.MOTOR_PID_Gimbal_INIT.PID_S_Pitch,%object @ @__const.MOTOR_PID_Gimbal_INIT.PID_S_Pitch
	.section	.rodata..L__const.MOTOR_PID_Gimbal_INIT.PID_S_Pitch,"a",%progbits
	.p2align	2
.L__const.MOTOR_PID_Gimbal_INIT.PID_S_Pitch:
	.long	0x3f933333                      @ float 1.14999998
	.long	0x00000000                      @ float 0
	.long	0x3c23d70a                      @ float 0.00999999977
	.size	.L__const.MOTOR_PID_Gimbal_INIT.PID_S_Pitch, 12

	.type	.L__const.MOTOR_PID_Gimbal_INIT.PID_P_Yaw,%object @ @__const.MOTOR_PID_Gimbal_INIT.PID_P_Yaw
	.section	.rodata..L__const.MOTOR_PID_Gimbal_INIT.PID_P_Yaw,"a",%progbits
	.p2align	2
.L__const.MOTOR_PID_Gimbal_INIT.PID_P_Yaw:
	.long	0x3fd33333                      @ float 1.64999998
	.long	0x3a1d4952                      @ float 6.00000028E-4
	.long	0x00000000                      @ float 0
	.size	.L__const.MOTOR_PID_Gimbal_INIT.PID_P_Yaw, 12

	.type	.L__const.MOTOR_PID_Gimbal_INIT.PID_S_Yaw,%object @ @__const.MOTOR_PID_Gimbal_INIT.PID_S_Yaw
	.section	.rodata..L__const.MOTOR_PID_Gimbal_INIT.PID_S_Yaw,"a",%progbits
	.p2align	2
.L__const.MOTOR_PID_Gimbal_INIT.PID_S_Yaw:
	.long	0x3d75c28f                      @ float 0.0599999987
	.long	0x00000000                      @ float 0
	.long	0x00000000                      @ float 0
	.size	.L__const.MOTOR_PID_Gimbal_INIT.PID_S_Yaw, 12

	.type	gimbal_task.PID_INIT,%object    @ @gimbal_task.PID_INIT
	.section	.bss.gimbal_task.PID_INIT,"aw",%nobits
gimbal_task.PID_INIT:
	.byte	0                               @ 0x0
	.size	gimbal_task.PID_INIT, 1

	.type	gimbal_task.AIM_INIT,%object    @ @gimbal_task.AIM_INIT
	.section	.bss.gimbal_task.AIM_INIT,"aw",%nobits
gimbal_task.AIM_INIT:
	.byte	0                               @ 0x0
	.size	gimbal_task.AIM_INIT, 1

	.hidden	pitch_F                         @ @pitch_F
	.type	pitch_F,%object
	.section	.bss.pitch_F,"aw",%nobits
	.globl	pitch_F
	.p2align	2
pitch_F:
	.long	0x00000000                      @ float 0
	.size	pitch_F, 4

	.file	4 "D:\\horizon\\Horizon_Infantry (2)\\MDK-ARM" "../User/Bsp/inc\\DJI_Motor.h"
	.file	5 "D:\\horizon\\Horizon_Infantry (2)\\MDK-ARM" "../User/Start/Inc\\Motors.h"
	.file	6 "D:\\horizon\\Horizon_Infantry (2)\\MDK-ARM" "../User/Algorithm/inc/user_lib.h"
	.file	7 "D:\\horizon\\Horizon_Infantry (2)\\MDK-ARM" "../User/Bsp/inc\\DM_Motor.h"
	.file	8 "D:\\horizon\\Horizon_Infantry (2)\\MDK-ARM" "../User/App/inc/IMU_Task.h"
	.section	".note.GNU-stack","",%progbits
	.eabi_attribute	30, 6	@ Tag_ABI_optimization_goals
	.ARM_attribute	16, 1	@ Tag_AV_eba