	.text
	.syntax unified
	.eabi_attribute	67, "2.09"	@ Tag_conformance
	.cpu	cortex-m4
	.eabi_attribute	6, 13	@ Tag_CPU_arch
	.eabi_attribute	7, 77	@ Tag_CPU_arch_profile
	.eabi_attribute	8, 0	@ Tag_ARM_ISA_use
	.eabi_attribute	9, 2	@ Tag_THUMB_ISA_use
	.fpu	fpv4-sp-d16
	.eabi_attribute	27, 1	@ Tag_ABI_HardFP_use
	.eabi_attribute	36, 1	@ Tag_FP_HP_extension
	.eabi_attribute	34, 1	@ Tag_CPU_unaligned_access
	.eabi_attribute	17, 1	@ Tag_ABI_PCS_GOT_use
	.eabi_attribute	20, 2	@ Tag_ABI_FP_denormal
	.eabi_attribute	21, 0	@ Tag_ABI_FP_exceptions
	.eabi_attribute	23, 3	@ Tag_ABI_FP_number_model
	.eabi_attribute	24, 1	@ Tag_ABI_align_needed
	.eabi_attribute	25, 1	@ Tag_ABI_align_preserved
	.eabi_attribute	28, 1	@ Tag_ABI_VFP_args
	.eabi_attribute	38, 1	@ Tag_ABI_FP_16bit_format
	.eabi_attribute	18, 2	@ Tag_ABI_PCS_wchar_t
	.eabi_attribute	26, 1	@ Tag_ABI_enum_size
	.eabi_attribute	14, 0	@ Tag_ABI_PCS_R9_use
	.file	"gpio.c"
	.file	1 "D:\\horizon\\Horizon_Infantry (2)\\MDK-ARM" "../Drivers/STM32F4xx_HAL_Driver/Inc\\stm32f4xx_hal_gpio.h"
	.file	2 "D:\\horizon\\Horizon_Infantry (2)\\MDK-ARM" "../Drivers/CMSIS/Device/ST/STM32F4xx/Include/stm32f407xx.h"
	.file	3 "D:\\" "kevil\\ARM\\ARMCLANG\\Bin\\..\\include\\stdint.h"
	.section	.text.MX_GPIO_Init,"ax",%progbits
	.hidden	MX_GPIO_Init                    @ -- Begin function MX_GPIO_Init
	.globl	MX_GPIO_Init
	.p2align	2
	.type	MX_GPIO_Init,%function
	.code	16                              @ @MX_GPIO_Init
	.thumb_func
MX_GPIO_Init:
.Lfunc_begin0:
	.file	4 "D:\\horizon\\Horizon_Infantry (2)\\MDK-ARM" "../Core/Src/gpio.c"
	.loc	4 43 0                          @ ../Core/Src/gpio.c:43:0
	.fnstart
	.cfi_sections .debug_frame
	.cfi_startproc
@ %bb.0:
	.save	{r7, lr}
	push	{r7, lr}
	.cfi_def_cfa_offset 8
	.cfi_offset lr, -4
	.cfi_offset r7, -8
	.pad	#96
	sub	sp, #96
	.cfi_def_cfa_offset 104
	movs	r0, #0
.Ltmp0:
	.loc	4 45 20 prologue_end            @ ../Core/Src/gpio.c:45:20
	str	r0, [sp, #92]
	str	r0, [sp, #88]
	str	r0, [sp, #84]
	str	r0, [sp, #80]
	str	r0, [sp, #76]
	.loc	4 48 3                          @ ../Core/Src/gpio.c:48:3
	b	.LBB0_1
.LBB0_1:
	.loc	4 0 3 is_stmt 0                 @ ../Core/Src/gpio.c:0:3
	movs	r0, #0
.Ltmp1:
	.loc	4 48 26                         @ ../Core/Src/gpio.c:48:26
	str	r0, [sp, #72]
	movw	r0, #14384
	movt	r0, #16386
	.loc	4 48 115                        @ ../Core/Src/gpio.c:48:115
	ldr	r1, [r0]
	orr	r1, r1, #2
	str	r1, [r0]
	.loc	4 48 211                        @ ../Core/Src/gpio.c:48:211
	ldr	r0, [r0]
	.loc	4 48 220                        @ ../Core/Src/gpio.c:48:220
	and	r0, r0, #2
	.loc	4 48 145                        @ ../Core/Src/gpio.c:48:145
	str	r0, [sp, #72]
	.loc	4 48 248                        @ ../Core/Src/gpio.c:48:248
	ldr	r0, [sp, #72]
	.loc	4 48 256                        @ ../Core/Src/gpio.c:48:256
	b	.LBB0_2
.Ltmp2:
.LBB0_2:
	.loc	4 49 3 is_stmt 1                @ ../Core/Src/gpio.c:49:3
	b	.LBB0_3
.LBB0_3:
	.loc	4 0 3 is_stmt 0                 @ ../Core/Src/gpio.c:0:3
	movs	r0, #0
.Ltmp3:
	.loc	4 49 26                         @ ../Core/Src/gpio.c:49:26
	str	r0, [sp, #68]
	movw	r0, #14384
	movt	r0, #16386
	.loc	4 49 115                        @ ../Core/Src/gpio.c:49:115
	ldr	r1, [r0]
	orr	r1, r1, #64
	str	r1, [r0]
	.loc	4 49 211                        @ ../Core/Src/gpio.c:49:211
	ldr	r0, [r0]
	.loc	4 49 220                        @ ../Core/Src/gpio.c:49:220
	and	r0, r0, #64
	.loc	4 49 145                        @ ../Core/Src/gpio.c:49:145
	str	r0, [sp, #68]
	.loc	4 49 248                        @ ../Core/Src/gpio.c:49:248
	ldr	r0, [sp, #68]
	.loc	4 49 256                        @ ../Core/Src/gpio.c:49:256
	b	.LBB0_4
.Ltmp4:
.LBB0_4:
	.loc	4 50 3 is_stmt 1                @ ../Core/Src/gpio.c:50:3
	b	.LBB0_5
.LBB0_5:
	.loc	4 0 3 is_stmt 0                 @ ../Core/Src/gpio.c:0:3
	movs	r0, #0
.Ltmp5:
	.loc	4 50 26                         @ ../Core/Src/gpio.c:50:26
	str	r0, [sp, #64]
	movw	r0, #14384
	movt	r0, #16386
	.loc	4 50 115                        @ ../Core/Src/gpio.c:50:115
	ldr	r1, [r0]
	orr	r1, r1, #1
	str	r1, [r0]
	.loc	4 50 211                        @ ../Core/Src/gpio.c:50:211
	ldr	r0, [r0]
	.loc	4 50 220                        @ ../Core/Src/gpio.c:50:220
	and	r0, r0, #1
	.loc	4 50 145                        @ ../Core/Src/gpio.c:50:145
	str	r0, [sp, #64]
	.loc	4 50 248                        @ ../Core/Src/gpio.c:50:248
	ldr	r0, [sp, #64]
	.loc	4 50 256                        @ ../Core/Src/gpio.c:50:256
	b	.LBB0_6
.Ltmp6:
.LBB0_6:
	.loc	4 51 3 is_stmt 1                @ ../Core/Src/gpio.c:51:3
	b	.LBB0_7
.LBB0_7:
	.loc	4 0 3 is_stmt 0                 @ ../Core/Src/gpio.c:0:3
	movs	r0, #0
.Ltmp7:
	.loc	4 51 26                         @ ../Core/Src/gpio.c:51:26
	str	r0, [sp, #60]
	movw	r0, #14384
	movt	r0, #16386
	.loc	4 51 115                        @ ../Core/Src/gpio.c:51:115
	ldr	r1, [r0]
	orr	r1, r1, #8
	str	r1, [r0]
	.loc	4 51 211                        @ ../Core/Src/gpio.c:51:211
	ldr	r0, [r0]
	.loc	4 51 220                        @ ../Core/Src/gpio.c:51:220
	and	r0, r0, #8
	.loc	4 51 145                        @ ../Core/Src/gpio.c:51:145
	str	r0, [sp, #60]
	.loc	4 51 248                        @ ../Core/Src/gpio.c:51:248
	ldr	r0, [sp, #60]
	.loc	4 51 256                        @ ../Core/Src/gpio.c:51:256
	b	.LBB0_8
.Ltmp8:
.LBB0_8:
	.loc	4 52 3 is_stmt 1                @ ../Core/Src/gpio.c:52:3
	b	.LBB0_9
.LBB0_9:
	.loc	4 0 3 is_stmt 0                 @ ../Core/Src/gpio.c:0:3
	movs	r0, #0
.Ltmp9:
	.loc	4 52 26                         @ ../Core/Src/gpio.c:52:26
	str	r0, [sp, #56]
	movw	r0, #14384
	movt	r0, #16386
	.loc	4 52 115                        @ ../Core/Src/gpio.c:52:115
	ldr	r1, [r0]
	orr	r1, r1, #4
	str	r1, [r0]
	.loc	4 52 211                        @ ../Core/Src/gpio.c:52:211
	ldr	r0, [r0]
	.loc	4 52 220                        @ ../Core/Src/gpio.c:52:220
	and	r0, r0, #4
	.loc	4 52 145                        @ ../Core/Src/gpio.c:52:145
	str	r0, [sp, #56]
	.loc	4 52 248                        @ ../Core/Src/gpio.c:52:248
	ldr	r0, [sp, #56]
	.loc	4 52 256                        @ ../Core/Src/gpio.c:52:256
	b	.LBB0_10
.Ltmp10:
.LBB0_10:
	.loc	4 53 3 is_stmt 1                @ ../Core/Src/gpio.c:53:3
	b	.LBB0_11
.LBB0_11:
	.loc	4 0 3 is_stmt 0                 @ ../Core/Src/gpio.c:0:3
	movs	r0, #0
.Ltmp11:
	.loc	4 53 26                         @ ../Core/Src/gpio.c:53:26
	str	r0, [sp, #52]
	movw	r0, #14384
	movt	r0, #16386
	.loc	4 53 115                        @ ../Core/Src/gpio.c:53:115
	ldr	r1, [r0]
	orr	r1, r1, #128
	str	r1, [r0]
	.loc	4 53 211                        @ ../Core/Src/gpio.c:53:211
	ldr	r0, [r0]
	.loc	4 53 220                        @ ../Core/Src/gpio.c:53:220
	and	r0, r0, #128
	.loc	4 53 145                        @ ../Core/Src/gpio.c:53:145
	str	r0, [sp, #52]
	.loc	4 53 248                        @ ../Core/Src/gpio.c:53:248
	ldr	r0, [sp, #52]
	.loc	4 53 256                        @ ../Core/Src/gpio.c:53:256
	b	.LBB0_12
.Ltmp12:
.LBB0_12:
	.loc	4 54 3 is_stmt 1                @ ../Core/Src/gpio.c:54:3
	b	.LBB0_13
.LBB0_13:
	.loc	4 0 3 is_stmt 0                 @ ../Core/Src/gpio.c:0:3
	movs	r0, #0
.Ltmp13:
	.loc	4 54 26                         @ ../Core/Src/gpio.c:54:26
	str	r0, [sp, #48]
	movw	r0, #14384
	movt	r0, #16386
	.loc	4 54 115                        @ ../Core/Src/gpio.c:54:115
	ldr	r1, [r0]
	orr	r1, r1, #32
	str	r1, [r0]
	.loc	4 54 211                        @ ../Core/Src/gpio.c:54:211
	ldr	r0, [r0]
	.loc	4 54 220                        @ ../Core/Src/gpio.c:54:220
	and	r0, r0, #32
	.loc	4 54 145                        @ ../Core/Src/gpio.c:54:145
	str	r0, [sp, #48]
	.loc	4 54 248                        @ ../Core/Src/gpio.c:54:248
	ldr	r0, [sp, #48]
	.loc	4 54 256                        @ ../Core/Src/gpio.c:54:256
	b	.LBB0_14
.Ltmp14:
.LBB0_14:
	.loc	4 0 256                         @ ../Core/Src/gpio.c:0:256
	movw	r0, #7168
	movt	r0, #16386
	str	r0, [sp, #8]                    @ 4-byte Spill
	mov.w	r1, #7168
	str	r1, [sp, #4]                    @ 4-byte Spill
	movs	r2, #0
	.loc	4 57 3 is_stmt 1                @ ../Core/Src/gpio.c:57:3
	str	r2, [sp, #40]                   @ 4-byte Spill
	bl	HAL_GPIO_WritePin
	movs	r0, #0
	movt	r0, #16386
	str	r0, [sp, #16]                   @ 4-byte Spill
	movs	r1, #16
	str	r1, [sp, #12]                   @ 4-byte Spill
	movs	r2, #1
	.loc	4 60 3                          @ ../Core/Src/gpio.c:60:3
	str	r2, [sp, #24]                   @ 4-byte Spill
	bl	HAL_GPIO_WritePin
	ldr	r2, [sp, #40]                   @ 4-byte Reload
	movw	r0, #1024
	movt	r0, #16386
	str	r0, [sp, #32]                   @ 4-byte Spill
	mov.w	r1, #4096
	.loc	4 63 3                          @ ../Core/Src/gpio.c:63:3
	str	r1, [sp, #20]                   @ 4-byte Spill
	bl	HAL_GPIO_WritePin
	ldr	r2, [sp, #24]                   @ 4-byte Reload
	ldr	r0, [sp, #32]                   @ 4-byte Reload
	.loc	4 66 3                          @ ../Core/Src/gpio.c:66:3
	mov	r1, r2
	bl	HAL_GPIO_WritePin
	ldr	r0, [sp, #24]                   @ 4-byte Reload
	movs	r1, #2
	.loc	4 69 23                         @ ../Core/Src/gpio.c:69:23
	str	r1, [sp, #28]                   @ 4-byte Spill
	str	r1, [sp, #76]
	mov.w	r1, #2162688
	.loc	4 70 24                         @ ../Core/Src/gpio.c:70:24
	str	r1, [sp, #80]
	.loc	4 71 24                         @ ../Core/Src/gpio.c:71:24
	str	r0, [sp, #84]
	movw	r0, #5120
	movt	r0, #16386
	add	r1, sp, #76
	.loc	4 72 3                          @ ../Core/Src/gpio.c:72:3
	str	r1, [sp, #36]                   @ 4-byte Spill
	bl	HAL_GPIO_Init
	ldr.w	r12, [sp, #4]                   @ 4-byte Reload
	ldr	r0, [sp, #8]                    @ 4-byte Reload
	ldr	r3, [sp, #24]                   @ 4-byte Reload
	ldr	r1, [sp, #36]                   @ 4-byte Reload
	ldr	r2, [sp, #40]                   @ 4-byte Reload
	.loc	4 75 23                         @ ../Core/Src/gpio.c:75:23
	str.w	r12, [sp, #76]
	.loc	4 76 24                         @ ../Core/Src/gpio.c:76:24
	str	r3, [sp, #80]
	.loc	4 77 24                         @ ../Core/Src/gpio.c:77:24
	str	r2, [sp, #84]
	.loc	4 78 25                         @ ../Core/Src/gpio.c:78:25
	str	r2, [sp, #88]
	.loc	4 79 3                          @ ../Core/Src/gpio.c:79:3
	bl	HAL_GPIO_Init
	ldr	r0, [sp, #16]                   @ 4-byte Reload
	ldr	r2, [sp, #24]                   @ 4-byte Reload
	ldr	r1, [sp, #36]                   @ 4-byte Reload
	ldr	r3, [sp, #40]                   @ 4-byte Reload
	.loc	4 82 23                         @ ../Core/Src/gpio.c:82:23
	str	r2, [sp, #76]
	.loc	4 83 24                         @ ../Core/Src/gpio.c:83:24
	str	r3, [sp, #80]
	.loc	4 84 24                         @ ../Core/Src/gpio.c:84:24
	str	r2, [sp, #84]
	.loc	4 85 3                          @ ../Core/Src/gpio.c:85:3
	bl	HAL_GPIO_Init
	ldr.w	r12, [sp, #12]                  @ 4-byte Reload
	ldr	r0, [sp, #16]                   @ 4-byte Reload
	ldr	r3, [sp, #24]                   @ 4-byte Reload
	ldr	r2, [sp, #28]                   @ 4-byte Reload
	ldr	r1, [sp, #36]                   @ 4-byte Reload
	.loc	4 88 23                         @ ../Core/Src/gpio.c:88:23
	str.w	r12, [sp, #76]
	.loc	4 89 24                         @ ../Core/Src/gpio.c:89:24
	str	r3, [sp, #80]
	.loc	4 90 24                         @ ../Core/Src/gpio.c:90:24
	str	r3, [sp, #84]
	.loc	4 91 25                         @ ../Core/Src/gpio.c:91:25
	str	r2, [sp, #88]
	.loc	4 92 3                          @ ../Core/Src/gpio.c:92:3
	bl	HAL_GPIO_Init
	ldr	r0, [sp, #24]                   @ 4-byte Reload
	ldr	r1, [sp, #36]                   @ 4-byte Reload
	movs	r2, #48
	.loc	4 95 23                         @ ../Core/Src/gpio.c:95:23
	str	r2, [sp, #76]
	mov.w	r2, #1114112
	.loc	4 96 24                         @ ../Core/Src/gpio.c:96:24
	str	r2, [sp, #80]
	.loc	4 97 24                         @ ../Core/Src/gpio.c:97:24
	str	r0, [sp, #84]
	movw	r0, #2048
	movt	r0, #16386
	.loc	4 98 3                          @ ../Core/Src/gpio.c:98:3
	bl	HAL_GPIO_Init
	ldr	r3, [sp, #20]                   @ 4-byte Reload
	ldr	r2, [sp, #24]                   @ 4-byte Reload
	ldr	r0, [sp, #32]                   @ 4-byte Reload
	ldr	r1, [sp, #36]                   @ 4-byte Reload
	.loc	4 101 23                        @ ../Core/Src/gpio.c:101:23
	str	r3, [sp, #76]
	.loc	4 102 24                        @ ../Core/Src/gpio.c:102:24
	str	r2, [sp, #80]
	.loc	4 103 24                        @ ../Core/Src/gpio.c:103:24
	str	r2, [sp, #84]
	.loc	4 104 25                        @ ../Core/Src/gpio.c:104:25
	str	r2, [sp, #88]
	.loc	4 105 3                         @ ../Core/Src/gpio.c:105:3
	bl	HAL_GPIO_Init
	ldr	r3, [sp, #24]                   @ 4-byte Reload
	ldr	r2, [sp, #28]                   @ 4-byte Reload
	ldr	r0, [sp, #32]                   @ 4-byte Reload
	ldr	r1, [sp, #36]                   @ 4-byte Reload
	.loc	4 108 23                        @ ../Core/Src/gpio.c:108:23
	str	r3, [sp, #76]
	.loc	4 109 24                        @ ../Core/Src/gpio.c:109:24
	str	r3, [sp, #80]
	.loc	4 110 24                        @ ../Core/Src/gpio.c:110:24
	str	r3, [sp, #84]
	.loc	4 111 25                        @ ../Core/Src/gpio.c:111:25
	str	r2, [sp, #88]
	.loc	4 112 3                         @ ../Core/Src/gpio.c:112:3
	bl	HAL_GPIO_Init
	ldr	r2, [sp, #40]                   @ 4-byte Reload
	movs	r0, #7
	str	r0, [sp, #44]                   @ 4-byte Spill
	movs	r1, #5
	.loc	4 115 3                         @ ../Core/Src/gpio.c:115:3
	bl	HAL_NVIC_SetPriority
	ldr	r0, [sp, #44]                   @ 4-byte Reload
	.loc	4 116 3                         @ ../Core/Src/gpio.c:116:3
	bl	HAL_NVIC_EnableIRQ
	.loc	4 118 1                         @ ../Core/Src/gpio.c:118:1
	add	sp, #96
	pop	{r7, pc}
.Ltmp15:
.Lfunc_end0:
	.size	MX_GPIO_Init, .Lfunc_end0-MX_GPIO_Init
	.cfi_endproc
	.cantunwind
	.fnend
                                        @ -- End function
	.section	".note.GNU-stack","",%progbits
	.eabi_attribute	30, 6	@ Tag_ABI_optimization_goals
	.ARM_attribute	16, 1	@ Tag_AV_eba