	.text
	.syntax unified
	.eabi_attribute	67, "2.09"	@ Tag_conformance
	.cpu	cortex-m4
	.eabi_attribute	6, 13	@ Tag_CPU_arch
	.eabi_attribute	7, 77	@ Tag_CPU_arch_profile
	.eabi_attribute	8, 0	@ Tag_ARM_ISA_use
	.eabi_attribute	9, 2	@ Tag_THUMB_ISA_use
	.fpu	fpv4-sp-d16
	.eabi_attribute	27, 1	@ Tag_ABI_HardFP_use
	.eabi_attribute	36, 1	@ Tag_FP_HP_extension
	.eabi_attribute	34, 1	@ Tag_CPU_unaligned_access
	.eabi_attribute	17, 1	@ Tag_ABI_PCS_GOT_use
	.eabi_attribute	20, 2	@ Tag_ABI_FP_denormal
	.eabi_attribute	21, 0	@ Tag_ABI_FP_exceptions
	.eabi_attribute	23, 3	@ Tag_ABI_FP_number_model
	.eabi_attribute	24, 1	@ Tag_ABI_align_needed
	.eabi_attribute	25, 1	@ Tag_ABI_align_preserved
	.eabi_attribute	28, 1	@ Tag_ABI_VFP_args
	.eabi_attribute	38, 1	@ Tag_ABI_FP_16bit_format
	.eabi_attribute	18, 2	@ Tag_ABI_PCS_wchar_t
	.eabi_attribute	26, 1	@ Tag_ABI_enum_size
	.eabi_attribute	14, 0	@ Tag_ABI_PCS_R9_use
	.file	"IMU_Task.c"
	.file	1 "D:\\" "kevil\\ARM\\ARMCLANG\\Bin\\..\\include\\stdint.h"
	.file	2 "D:\\horizon\\Horizon_Infantry (2)\\MDK-ARM" "../User/App/IMU_Task.c"
	.section	.text.IMU_Temperature_Ctrl,"ax",%progbits
	.hidden	IMU_Temperature_Ctrl            @ -- Begin function IMU_Temperature_Ctrl
	.globl	IMU_Temperature_Ctrl
	.p2align	2
	.type	IMU_Temperature_Ctrl,%function
	.code	16                              @ @IMU_Temperature_Ctrl
	.thumb_func
IMU_Temperature_Ctrl:
.Lfunc_begin0:
	.loc	2 13 0                          @ ../User/App/IMU_Task.c:13:0
	.fnstart
	.cfi_sections .debug_frame
	.cfi_startproc
@ %bb.0:
	.save	{r7, lr}
	push	{r7, lr}
	.cfi_def_cfa_offset 8
	.cfi_offset lr, -4
	.cfi_offset r7, -8
	.pad	#16
	sub	sp, #16
	.cfi_def_cfa_offset 24
	str	r0, [sp, #12]
	str	r1, [sp, #8]
.Ltmp0:
	.loc	2 16 11 prologue_end            @ ../User/App/IMU_Task.c:16:11
	ldr	r0, [sp, #8]
	.loc	2 16 25 is_stmt 0               @ ../User/App/IMU_Task.c:16:25
	ldr	r1, [sp, #12]
	.loc	2 16 30                         @ ../User/App/IMU_Task.c:16:30
	vldr	s0, [r1, #36]
	vldr	s1, .LCPI0_0
	.loc	2 16 2                          @ ../User/App/IMU_Task.c:16:2
	bl	PID_calc
.Ltmp1:
	.loc	2 17 6 is_stmt 1                @ ../User/App/IMU_Task.c:17:6
	ldr	r0, [sp, #8]
	.loc	2 17 20 is_stmt 0               @ ../User/App/IMU_Task.c:17:20
	vldr	s0, [r0, #32]
.Ltmp2:
	.loc	2 17 6                          @ ../User/App/IMU_Task.c:17:6
	vcmp.f32	s0, #0
	vmrs	APSR_nzcv, fpscr
	bge	.LBB0_2
	b	.LBB0_1
.LBB0_1:
.Ltmp3:
	.loc	2 19 3 is_stmt 1                @ ../User/App/IMU_Task.c:19:3
	ldr	r1, [sp, #8]
	movs	r0, #0
	.loc	2 19 21 is_stmt 0               @ ../User/App/IMU_Task.c:19:21
	str	r0, [r1, #32]
	.loc	2 20 2 is_stmt 1                @ ../User/App/IMU_Task.c:20:2
	b	.LBB0_2
.Ltmp4:
.LBB0_2:
	.loc	2 21 22                         @ ../User/App/IMU_Task.c:21:22
	ldr	r0, [sp, #8]
	.loc	2 21 36 is_stmt 0               @ ../User/App/IMU_Task.c:21:36
	vldr	s0, [r0, #32]
	.loc	2 21 12                         @ ../User/App/IMU_Task.c:21:12
	vcvt.s32.f32	s0, s0
	vmov	r0, s0
	.loc	2 21 10                         @ ../User/App/IMU_Task.c:21:10
	strh.w	r0, [sp, #6]
	.loc	2 22 19 is_stmt 1               @ ../User/App/IMU_Task.c:22:19
	ldrh.w	r0, [sp, #6]
	.loc	2 22 2 is_stmt 0                @ ../User/App/IMU_Task.c:22:2
	bl	SPI1_imu_pwm_set
	.loc	2 24 1 is_stmt 1                @ ../User/App/IMU_Task.c:24:1
	add	sp, #16
	pop	{r7, pc}
.Ltmp5:
	.p2align	2
@ %bb.3:
	.loc	2 0 1 is_stmt 0                 @ ../User/App/IMU_Task.c:0:1
.LCPI0_0:
	.long	0x42200000                      @ float 40
.Lfunc_end0:
	.size	IMU_Temperature_Ctrl, .Lfunc_end0-IMU_Temperature_Ctrl
	.cfi_endproc
	.cantunwind
	.fnend
                                        @ -- End function
	.section	.text.INS_Task,"ax",%progbits
	.hidden	INS_Task                        @ -- Begin function INS_Task
	.globl	INS_Task
	.p2align	2
	.type	INS_Task,%function
	.code	16                              @ @INS_Task
	.thumb_func
INS_Task:
.Lfunc_begin1:
	.loc	2 27 0 is_stmt 1                @ ../User/App/IMU_Task.c:27:0
	.fnstart
	.cfi_startproc
@ %bb.0:
	.save	{r7, lr}
	push	{r7, lr}
	.cfi_def_cfa_offset 8
	.cfi_offset lr, -4
	.cfi_offset r7, -8
	.pad	#8
	sub	sp, #8
	.cfi_def_cfa_offset 16
	str	r0, [sp, #4]
	str	r1, [sp]
	movs	r0, #0
.Ltmp6:
	.loc	2 31 9 prologue_end             @ ../User/App/IMU_Task.c:31:9
	cmp	r0, #0
	bne	.LBB1_7
	b	.LBB1_1
.LBB1_1:
.Ltmp7:
	.loc	2 33 21                         @ ../User/App/IMU_Task.c:33:21
	ldr	r2, [sp, #4]
	.loc	2 33 26 is_stmt 0               @ ../User/App/IMU_Task.c:33:26
	add.w	r0, r2, #12
	.loc	2 33 37                         @ ../User/App/IMU_Task.c:33:37
	add.w	r1, r2, #24
	.loc	2 33 50                         @ ../User/App/IMU_Task.c:33:50
	adds	r2, #36
	.loc	2 33 9                          @ ../User/App/IMU_Task.c:33:9
	bl	BMI088_read
.Ltmp8:
	.loc	2 35 12 is_stmt 1               @ ../User/App/IMU_Task.c:35:12
	ldr	r0, [sp, #4]
	.loc	2 35 17 is_stmt 0               @ ../User/App/IMU_Task.c:35:17
	ldrb.w	r0, [r0, #72]
.Ltmp9:
	.loc	2 35 12                         @ ../User/App/IMU_Task.c:35:12
	cmp	r0, #2
	bne	.LBB1_3
	b	.LBB1_2
.LBB1_2:
.Ltmp10:
	.loc	2 37 18 is_stmt 1               @ ../User/App/IMU_Task.c:37:18
	ldr	r0, [sp, #4]
	vldr	s2, [r0]
	.loc	2 37 16 is_stmt 0               @ ../User/App/IMU_Task.c:37:16
	vldr	s0, [r0, #12]
	vsub.f32	s0, s0, s2
	vstr	s0, [r0, #12]
	.loc	2 38 18 is_stmt 1               @ ../User/App/IMU_Task.c:38:18
	ldr	r0, [sp, #4]
	vldr	s2, [r0, #4]
	.loc	2 38 16 is_stmt 0               @ ../User/App/IMU_Task.c:38:16
	vldr	s0, [r0, #16]
	vsub.f32	s0, s0, s2
	vstr	s0, [r0, #16]
	.loc	2 39 18 is_stmt 1               @ ../User/App/IMU_Task.c:39:18
	ldr	r0, [sp, #4]
	vldr	s2, [r0, #8]
	.loc	2 39 16 is_stmt 0               @ ../User/App/IMU_Task.c:39:16
	vldr	s0, [r0, #20]
	vsub.f32	s0, s0, s2
	vstr	s0, [r0, #20]
	.loc	2 45 5 is_stmt 1                @ ../User/App/IMU_Task.c:45:5
	ldr	r0, [sp, #4]
	vldr	s0, [r0, #12]
	.loc	2 45 18 is_stmt 0               @ ../User/App/IMU_Task.c:45:18
	vldr	s1, [r0, #16]
	.loc	2 45 31                         @ ../User/App/IMU_Task.c:45:31
	vldr	s2, [r0, #20]
	.loc	2 46 5 is_stmt 1                @ ../User/App/IMU_Task.c:46:5
	vldr	s3, [r0, #24]
	.loc	2 46 19 is_stmt 0               @ ../User/App/IMU_Task.c:46:19
	vldr	s4, [r0, #28]
	.loc	2 46 33                         @ ../User/App/IMU_Task.c:46:33
	vldr	s5, [r0, #32]
	.loc	2 44 4 is_stmt 1                @ ../User/App/IMU_Task.c:44:4
	bl	IMU_QuaternionEKF_Update
	.loc	2 50 15                         @ ../User/App/IMU_Task.c:50:15
	bl	Get_Pitch
	.loc	2 50 4 is_stmt 0                @ ../User/App/IMU_Task.c:50:4
	ldr	r0, [sp, #4]
	.loc	2 50 14                         @ ../User/App/IMU_Task.c:50:14
	vstr	s0, [r0, #56]
	.loc	2 51 14 is_stmt 1               @ ../User/App/IMU_Task.c:51:14
	bl	Get_Roll
	.loc	2 51 4 is_stmt 0                @ ../User/App/IMU_Task.c:51:4
	ldr	r0, [sp, #4]
	.loc	2 51 13                         @ ../User/App/IMU_Task.c:51:13
	vstr	s0, [r0, #60]
	.loc	2 52 13 is_stmt 1               @ ../User/App/IMU_Task.c:52:13
	bl	Get_Yaw
	.loc	2 52 4 is_stmt 0                @ ../User/App/IMU_Task.c:52:4
	ldr	r0, [sp, #4]
	.loc	2 52 12                         @ ../User/App/IMU_Task.c:52:12
	vstr	s0, [r0, #64]
	.loc	2 53 32 is_stmt 1               @ ../User/App/IMU_Task.c:53:32
	bl	Get_YawTotalAngle
	.loc	2 53 13 is_stmt 0               @ ../User/App/IMU_Task.c:53:13
	ldr	r0, [sp, #4]
	.loc	2 53 31                         @ ../User/App/IMU_Task.c:53:31
	vstr	s0, [r0, #68]
	.loc	2 54 11 is_stmt 1               @ ../User/App/IMU_Task.c:54:11
	ldr	r1, [sp, #4]
	.loc	2 54 4 is_stmt 0                @ ../User/App/IMU_Task.c:54:4
	movw	r12, :lower16:QEKF_INS
	movt	r12, :upper16:QEKF_INS
	ldr.w	r0, [r12, #336]
	ldr.w	r2, [r12, #340]
	ldr.w	r3, [r12, #344]
	ldr.w	r12, [r12, #348]
	str.w	r12, [r1, #52]
	str	r3, [r1, #48]
	str	r2, [r1, #44]
	str	r0, [r1, #40]
	.loc	2 57 9 is_stmt 1                @ ../User/App/IMU_Task.c:57:9
	b	.LBB1_6
.Ltmp11:
.LBB1_3:
	.loc	2 58 17                         @ ../User/App/IMU_Task.c:58:17
	ldr	r0, [sp, #4]
	.loc	2 58 22 is_stmt 0               @ ../User/App/IMU_Task.c:58:22
	ldrb.w	r0, [r0, #72]
.Ltmp12:
	.loc	2 58 17                         @ ../User/App/IMU_Task.c:58:17
	cmp	r0, #1
	bne	.LBB1_5
	b	.LBB1_4
.LBB1_4:
.Ltmp13:
	.loc	2 78 10 is_stmt 1               @ ../User/App/IMU_Task.c:78:10
	ldr	r1, [sp, #4]
	movw	r0, #27520
	movt	r0, #47947
	.loc	2 78 31 is_stmt 0               @ ../User/App/IMU_Task.c:78:31
	str	r0, [r1]
	.loc	2 79 12 is_stmt 1               @ ../User/App/IMU_Task.c:79:12
	ldr	r1, [sp, #4]
	movw	r0, #43311
	movt	r0, #48012
	.loc	2 79 33 is_stmt 0               @ ../User/App/IMU_Task.c:79:33
	str	r0, [r1, #4]
	.loc	2 80 12 is_stmt 1               @ ../User/App/IMU_Task.c:80:12
	ldr	r1, [sp, #4]
	movw	r0, #33372
	movt	r0, #47156
	.loc	2 80 33 is_stmt 0               @ ../User/App/IMU_Task.c:80:33
	str	r0, [r1, #8]
	.loc	2 81 12 is_stmt 1               @ ../User/App/IMU_Task.c:81:12
	ldr	r1, [sp, #4]
	movs	r0, #2
	.loc	2 81 30 is_stmt 0               @ ../User/App/IMU_Task.c:81:30
	strb.w	r0, [r1, #72]
	.loc	2 83 9 is_stmt 1                @ ../User/App/IMU_Task.c:83:9
	b	.LBB1_5
.Ltmp14:
.LBB1_5:
	.loc	2 0 9 is_stmt 0                 @ ../User/App/IMU_Task.c:0:9
	b	.LBB1_6
.LBB1_6:
	.loc	2 84 5 is_stmt 1                @ ../User/App/IMU_Task.c:84:5
	b	.LBB1_7
.Ltmp15:
.LBB1_7:
	.loc	2 86 10                         @ ../User/App/IMU_Task.c:86:10
	movw	r0, :lower16:INS_Task.count
	movt	r0, :upper16:INS_Task.count
	ldr	r0, [r0]
	movw	r1, #52429
	movt	r1, #52428
.Ltmp16:
	.loc	2 86 9 is_stmt 0                @ ../User/App/IMU_Task.c:86:9
	muls	r0, r1, r0
	ror.w	r0, r0, #1
	movw	r1, #39321
	movt	r1, #6553
	cmp	r0, r1
	bhi	.LBB1_13
	b	.LBB1_8
.LBB1_8:
.Ltmp17:
	.loc	2 89 30 is_stmt 1               @ ../User/App/IMU_Task.c:89:30
	ldr	r0, [sp, #4]
	.loc	2 89 35 is_stmt 0               @ ../User/App/IMU_Task.c:89:35
	ldr	r1, [sp]
	.loc	2 89 9                          @ ../User/App/IMU_Task.c:89:9
	bl	IMU_Temperature_Ctrl
.Ltmp18:
	.loc	2 95 12 is_stmt 1               @ ../User/App/IMU_Task.c:95:12
	ldr	r0, [sp, #4]
	.loc	2 95 17 is_stmt 0               @ ../User/App/IMU_Task.c:95:17
	ldrb.w	r0, [r0, #72]
.Ltmp19:
	.loc	2 95 12                         @ ../User/App/IMU_Task.c:95:12
	cbnz	r0, .LBB1_12
	b	.LBB1_9
.LBB1_9:
.Ltmp20:
	.loc	2 98 21 is_stmt 1               @ ../User/App/IMU_Task.c:98:21
	movw	r0, :lower16:INS_Task.temp_Ticks
	movt	r0, :upper16:INS_Task.temp_Ticks
	ldr	r1, [r0]
	adds	r1, #1
	str	r1, [r0]
.Ltmp21:
	.loc	2 99 14                         @ ../User/App/IMU_Task.c:99:14
	ldr	r0, [r0]
.Ltmp22:
	.loc	2 99 14 is_stmt 0               @ ../User/App/IMU_Task.c:99:14
	cmp.w	r0, #300
	bls	.LBB1_11
	b	.LBB1_10
.LBB1_10:
.Ltmp23:
	.loc	2 101 15 is_stmt 1              @ ../User/App/IMU_Task.c:101:15
	ldr	r1, [sp, #4]
	movs	r0, #1
	.loc	2 101 33 is_stmt 0              @ ../User/App/IMU_Task.c:101:33
	strb.w	r0, [r1, #72]
	.loc	2 102 11 is_stmt 1              @ ../User/App/IMU_Task.c:102:11
	b	.LBB1_11
.Ltmp24:
.LBB1_11:
	.loc	2 103 9                         @ ../User/App/IMU_Task.c:103:9
	b	.LBB1_12
.Ltmp25:
.LBB1_12:
	.loc	2 104 5                         @ ../User/App/IMU_Task.c:104:5
	b	.LBB1_13
.Ltmp26:
.LBB1_13:
	.loc	2 105 10                        @ ../User/App/IMU_Task.c:105:10
	movw	r1, :lower16:INS_Task.count
	movt	r1, :upper16:INS_Task.count
	ldr	r0, [r1]
	adds	r0, #1
	str	r0, [r1]
	.loc	2 106 1                         @ ../User/App/IMU_Task.c:106:1
	add	sp, #8
	pop	{r7, pc}
.Ltmp27:
.Lfunc_end1:
	.size	INS_Task, .Lfunc_end1-INS_Task
	.cfi_endproc
	.cantunwind
	.fnend
                                        @ -- End function
	.type	INS_Task.count,%object          @ @INS_Task.count
	.section	.bss.INS_Task.count,"aw",%nobits
	.p2align	2
INS_Task.count:
	.long	0                               @ 0x0
	.size	INS_Task.count, 4

	.type	INS_Task.temp_Ticks,%object     @ @INS_Task.temp_Ticks
	.section	.bss.INS_Task.temp_Ticks,"aw",%nobits
	.p2align	2
INS_Task.temp_Ticks:
	.long	0                               @ 0x0
	.size	INS_Task.temp_Ticks, 4

	.file	3 "D:\\horizon\\Horizon_Infantry (2)\\MDK-ARM" "../User/App/inc\\IMU_Task.h"
	.file	4 "D:\\horizon\\Horizon_Infantry (2)\\MDK-ARM" "../User/Algorithm/inc\\pid_temp.h"
	.section	".note.GNU-stack","",%progbits
	.eabi_attribute	30, 6	@ Tag_ABI_optimization_goals
	.ARM_attribute	16, 1	@ Tag_AV_eba