	.text
	.syntax unified
	.eabi_attribute	67, "2.09"	@ Tag_conformance
	.cpu	cortex-m4
	.eabi_attribute	6, 13	@ Tag_CPU_arch
	.eabi_attribute	7, 77	@ Tag_CPU_arch_profile
	.eabi_attribute	8, 0	@ Tag_ARM_ISA_use
	.eabi_attribute	9, 2	@ Tag_THUMB_ISA_use
	.fpu	fpv4-sp-d16
	.eabi_attribute	27, 1	@ Tag_ABI_HardFP_use
	.eabi_attribute	36, 1	@ Tag_FP_HP_extension
	.eabi_attribute	34, 1	@ Tag_CPU_unaligned_access
	.eabi_attribute	17, 1	@ Tag_ABI_PCS_GOT_use
	.eabi_attribute	20, 2	@ Tag_ABI_FP_denormal
	.eabi_attribute	21, 0	@ Tag_ABI_FP_exceptions
	.eabi_attribute	23, 1	@ Tag_ABI_FP_number_model
	.eabi_attribute	24, 1	@ Tag_ABI_align_needed
	.eabi_attribute	25, 1	@ Tag_ABI_align_preserved
	.eabi_attribute	28, 1	@ Tag_ABI_VFP_args
	.eabi_attribute	38, 1	@ Tag_ABI_FP_16bit_format
	.eabi_attribute	18, 2	@ Tag_ABI_PCS_wchar_t
	.eabi_attribute	26, 1	@ Tag_ABI_enum_size
	.eabi_attribute	14, 0	@ Tag_ABI_PCS_R9_use
	.file	"main.c"
	.file	1 "D:\\" "kevil\\ARM\\ARMCLANG\\Bin\\..\\include\\stdint.h"
	.file	2 "D:\\horizon\\Horizon_Infantry (2)\\MDK-ARM" "../Core/Src/main.c"
	.file	3 "D:\\horizon\\Horizon_Infantry (2)\\MDK-ARM" "../Drivers/STM32F4xx_HAL_Driver/Inc/stm32f4xx_hal_def.h"
	.file	4 "D:\\horizon\\Horizon_Infantry (2)\\MDK-ARM" "../Drivers/STM32F4xx_HAL_Driver/Inc\\stm32f4xx_hal_tim.h"
	.file	5 "D:\\horizon\\Horizon_Infantry (2)\\MDK-ARM" "../Drivers/STM32F4xx_HAL_Driver/Inc\\stm32f4xx_hal_dma.h"
	.file	6 "D:\\horizon\\Horizon_Infantry (2)\\MDK-ARM" "../Drivers/CMSIS/Device/ST/STM32F4xx/Include/stm32f407xx.h"
	.section	.text.main,"ax",%progbits
	.hidden	main                            @ -- Begin function main
	.globl	main
	.p2align	2
	.type	main,%function
	.code	16                              @ @main
	.thumb_func
main:
.Lfunc_begin0:
	.loc	2 80 0                          @ ../Core/Src/main.c:80:0
	.fnstart
	.cfi_sections .debug_frame
	.cfi_startproc
@ %bb.0:
	.save	{r7, lr}
	push	{r7, lr}
	.cfi_def_cfa_offset 8
	.cfi_offset lr, -4
	.cfi_offset r7, -8
	.pad	#8
	sub	sp, #8
	.cfi_def_cfa_offset 16
	movs	r0, #0
	str	r0, [sp, #4]
.Ltmp0:
	.loc	2 88 3 prologue_end             @ ../Core/Src/main.c:88:3
	bl	HAL_Init
	.loc	2 95 3                          @ ../Core/Src/main.c:95:3
	bl	SystemClock_Config
	.loc	2 102 3                         @ ../Core/Src/main.c:102:3
	bl	MX_GPIO_Init
	.loc	2 103 3                         @ ../Core/Src/main.c:103:3
	bl	MX_DMA_Init
	.loc	2 104 3                         @ ../Core/Src/main.c:104:3
	bl	MX_CAN1_Init
	.loc	2 105 3                         @ ../Core/Src/main.c:105:3
	bl	MX_CAN2_Init
	.loc	2 106 3                         @ ../Core/Src/main.c:106:3
	bl	MX_SPI1_Init
	.loc	2 107 3                         @ ../Core/Src/main.c:107:3
	bl	MX_USART1_UART_Init
	.loc	2 108 3                         @ ../Core/Src/main.c:108:3
	bl	MX_USART6_UART_Init
	.loc	2 109 3                         @ ../Core/Src/main.c:109:3
	bl	MX_CRC_Init
	.loc	2 110 3                         @ ../Core/Src/main.c:110:3
	bl	MX_TIM10_Init
	.loc	2 111 3                         @ ../Core/Src/main.c:111:3
	bl	MX_USART3_UART_Init
	.loc	2 112 3                         @ ../Core/Src/main.c:112:3
	bl	MX_TIM4_Init
	.loc	2 113 3                         @ ../Core/Src/main.c:113:3
	bl	MX_ADC1_Init
	.loc	2 114 3                         @ ../Core/Src/main.c:114:3
	bl	MX_ADC3_Init
	.loc	2 115 3                         @ ../Core/Src/main.c:115:3
	bl	MX_TIM7_Init
	.loc	2 116 3                         @ ../Core/Src/main.c:116:3
	bl	MX_SPI2_Init
	.loc	2 117 3                         @ ../Core/Src/main.c:117:3
	bl	MX_TIM1_Init
	.loc	2 118 3                         @ ../Core/Src/main.c:118:3
	bl	MX_TIM3_Init
	.loc	2 119 3                         @ ../Core/Src/main.c:119:3
	bl	MX_TIM8_Init
	.loc	2 125 3                         @ ../Core/Src/main.c:125:3
	bl	MX_FREERTOS_Init
	.loc	2 128 3                         @ ../Core/Src/main.c:128:3
	bl	osKernelStart
	.loc	2 133 3                         @ ../Core/Src/main.c:133:3
	b	.LBB0_1
.LBB0_1:                                @ =>This Inner Loop Header: Depth=1
	b	.LBB0_1
.Ltmp1:
.Lfunc_end0:
	.size	main, .Lfunc_end0-main
	.cfi_endproc
	.cantunwind
	.fnend
                                        @ -- End function
	.section	.text.SystemClock_Config,"ax",%progbits
	.hidden	SystemClock_Config              @ -- Begin function SystemClock_Config
	.globl	SystemClock_Config
	.p2align	2
	.type	SystemClock_Config,%function
	.code	16                              @ @SystemClock_Config
	.thumb_func
SystemClock_Config:
.Lfunc_begin1:
	.loc	2 148 0                         @ ../Core/Src/main.c:148:0
	.fnstart
	.cfi_startproc
@ %bb.0:
	.save	{r7, lr}
	push	{r7, lr}
	.cfi_def_cfa_offset 8
	.cfi_offset lr, -4
	.cfi_offset r7, -8
	.pad	#80
	sub	sp, #80
	.cfi_def_cfa_offset 88
	add	r0, sp, #32
	movs	r1, #48
.Ltmp2:
	.loc	2 149 22 prologue_end           @ ../Core/Src/main.c:149:22
	bl	__aeabi_memclr4
	movs	r0, #0
	.loc	2 150 22                        @ ../Core/Src/main.c:150:22
	str	r0, [sp, #28]
	str	r0, [sp, #24]
	str	r0, [sp, #20]
	str	r0, [sp, #16]
	str	r0, [sp, #12]
	.loc	2 154 3                         @ ../Core/Src/main.c:154:3
	b	.LBB1_1
.LBB1_1:
	.loc	2 0 3 is_stmt 0                 @ ../Core/Src/main.c:0:3
	movs	r0, #0
.Ltmp3:
	.loc	2 154 26                        @ ../Core/Src/main.c:154:26
	str	r0, [sp, #8]
	movw	r0, #14400
	movt	r0, #16386
	.loc	2 154 115                       @ ../Core/Src/main.c:154:115
	ldr	r1, [r0]
	orr	r1, r1, #268435456
	str	r1, [r0]
	.loc	2 154 212                       @ ../Core/Src/main.c:154:212
	ldr	r0, [r0]
	.loc	2 154 221                       @ ../Core/Src/main.c:154:221
	and	r0, r0, #268435456
	.loc	2 154 146                       @ ../Core/Src/main.c:154:146
	str	r0, [sp, #8]
	.loc	2 154 250                       @ ../Core/Src/main.c:154:250
	ldr	r0, [sp, #8]
	.loc	2 154 258                       @ ../Core/Src/main.c:154:258
	b	.LBB1_2
.Ltmp4:
.LBB1_2:
	.loc	2 155 3 is_stmt 1               @ ../Core/Src/main.c:155:3
	b	.LBB1_3
.LBB1_3:
	.loc	2 0 3 is_stmt 0                 @ ../Core/Src/main.c:0:3
	movs	r0, #0
.Ltmp5:
	.loc	2 155 26                        @ ../Core/Src/main.c:155:26
	str	r0, [sp, #4]
	movw	r0, #28672
	movt	r0, #16384
	.loc	2 155 148                       @ ../Core/Src/main.c:155:148
	ldr	r1, [r0]
	.loc	2 155 179                       @ ../Core/Src/main.c:155:179
	orr	r1, r1, #16384
	.loc	2 155 95                        @ ../Core/Src/main.c:155:95
	str	r1, [r0]
	.loc	2 155 262                       @ ../Core/Src/main.c:155:262
	ldr	r0, [r0]
	.loc	2 155 266                       @ ../Core/Src/main.c:155:266
	and	r0, r0, #16384
	.loc	2 155 213                       @ ../Core/Src/main.c:155:213
	str	r0, [sp, #4]
	.loc	2 155 295                       @ ../Core/Src/main.c:155:295
	ldr	r0, [sp, #4]
	.loc	2 155 303                       @ ../Core/Src/main.c:155:303
	b	.LBB1_4
.Ltmp6:
.LBB1_4:
	.loc	2 0 303                         @ ../Core/Src/main.c:0:303
	movs	r0, #1
	.loc	2 160 36 is_stmt 1              @ ../Core/Src/main.c:160:36
	str	r0, [sp, #32]
	mov.w	r0, #65536
	.loc	2 161 30                        @ ../Core/Src/main.c:161:30
	str	r0, [sp, #36]
	movs	r0, #2
	.loc	2 162 34                        @ ../Core/Src/main.c:162:34
	str	r0, [sp, #56]
	mov.w	r1, #4194304
	.loc	2 163 35                        @ ../Core/Src/main.c:163:35
	str	r1, [sp, #60]
	movs	r1, #6
	.loc	2 164 30                        @ ../Core/Src/main.c:164:30
	str	r1, [sp, #64]
	movs	r1, #168
	.loc	2 165 30                        @ ../Core/Src/main.c:165:30
	str	r1, [sp, #68]
	.loc	2 166 30                        @ ../Core/Src/main.c:166:30
	str	r0, [sp, #72]
	movs	r0, #7
	.loc	2 167 30                        @ ../Core/Src/main.c:167:30
	str	r0, [sp, #76]
	add	r0, sp, #32
.Ltmp7:
	.loc	2 168 7                         @ ../Core/Src/main.c:168:7
	bl	HAL_RCC_OscConfig
.Ltmp8:
	.loc	2 168 7 is_stmt 0               @ ../Core/Src/main.c:168:7
	cbz	r0, .LBB1_6
	b	.LBB1_5
.LBB1_5:
.Ltmp9:
	.loc	2 170 5 is_stmt 1               @ ../Core/Src/main.c:170:5
	bl	Error_Handler
	.loc	2 171 3                         @ ../Core/Src/main.c:171:3
	b	.LBB1_6
.Ltmp10:
.LBB1_6:
	.loc	2 0 3 is_stmt 0                 @ ../Core/Src/main.c:0:3
	movs	r0, #15
	.loc	2 175 31 is_stmt 1              @ ../Core/Src/main.c:175:31
	str	r0, [sp, #12]
	movs	r0, #2
	.loc	2 177 34                        @ ../Core/Src/main.c:177:34
	str	r0, [sp, #16]
	movs	r0, #0
	.loc	2 178 35                        @ ../Core/Src/main.c:178:35
	str	r0, [sp, #20]
	mov.w	r0, #5120
	.loc	2 179 36                        @ ../Core/Src/main.c:179:36
	str	r0, [sp, #24]
	mov.w	r0, #4096
	.loc	2 180 36                        @ ../Core/Src/main.c:180:36
	str	r0, [sp, #28]
	add	r0, sp, #12
	movs	r1, #5
.Ltmp11:
	.loc	2 182 7                         @ ../Core/Src/main.c:182:7
	bl	HAL_RCC_ClockConfig
.Ltmp12:
	.loc	2 182 7 is_stmt 0               @ ../Core/Src/main.c:182:7
	cbz	r0, .LBB1_8
	b	.LBB1_7
.LBB1_7:
.Ltmp13:
	.loc	2 184 5 is_stmt 1               @ ../Core/Src/main.c:184:5
	bl	Error_Handler
	.loc	2 185 3                         @ ../Core/Src/main.c:185:3
	b	.LBB1_8
.Ltmp14:
.LBB1_8:
	.loc	2 186 1                         @ ../Core/Src/main.c:186:1
	add	sp, #80
	pop	{r7, pc}
.Ltmp15:
.Lfunc_end1:
	.size	SystemClock_Config, .Lfunc_end1-SystemClock_Config
	.cfi_endproc
	.cantunwind
	.fnend
                                        @ -- End function
	.section	.text.Error_Handler,"ax",%progbits
	.hidden	Error_Handler                   @ -- Begin function Error_Handler
	.globl	Error_Handler
	.p2align	2
	.type	Error_Handler,%function
	.code	16                              @ @Error_Handler
	.thumb_func
Error_Handler:
.Lfunc_begin2:
	.loc	2 227 0                         @ ../Core/Src/main.c:227:0
	.fnstart
	.cfi_startproc
@ %bb.0:
	.file	7 "D:\\horizon\\Horizon_Infantry (2)\\MDK-ARM" "../Drivers/CMSIS/Include/cmsis_armclang.h"
	.loc	7 752 3 prologue_end            @ ../Drivers/CMSIS/Include/cmsis_armclang.h:752:3
	@APP
	cpsid i
	@NO_APP
.Ltmp16:
	.loc	2 231 3                         @ ../Core/Src/main.c:231:3
	b	.LBB2_1
.LBB2_1:                                @ =>This Inner Loop Header: Depth=1
	b	.LBB2_1
.Ltmp17:
.Lfunc_end2:
	.size	Error_Handler, .Lfunc_end2-Error_Handler
	.cfi_endproc
	.cantunwind
	.fnend
                                        @ -- End function
	.section	.text.HAL_TIM_PeriodElapsedCallback,"ax",%progbits
	.hidden	HAL_TIM_PeriodElapsedCallback   @ -- Begin function HAL_TIM_PeriodElapsedCallback
	.globl	HAL_TIM_PeriodElapsedCallback
	.p2align	2
	.type	HAL_TIM_PeriodElapsedCallback,%function
	.code	16                              @ @HAL_TIM_PeriodElapsedCallback
	.thumb_func
HAL_TIM_PeriodElapsedCallback:
.Lfunc_begin3:
	.loc	2 201 0                         @ ../Core/Src/main.c:201:0
	.fnstart
	.cfi_startproc
@ %bb.0:
	.save	{r7, lr}
	push	{r7, lr}
	.cfi_def_cfa_offset 8
	.cfi_offset lr, -4
	.cfi_offset r7, -8
	.pad	#8
	sub	sp, #8
	.cfi_def_cfa_offset 16
	str	r0, [sp, #4]
.Ltmp18:
	.loc	2 205 7 prologue_end            @ ../Core/Src/main.c:205:7
	ldr	r0, [sp, #4]
	.loc	2 205 13 is_stmt 0              @ ../Core/Src/main.c:205:13
	ldr	r0, [r0]
.Ltmp19:
	.loc	2 205 7                         @ ../Core/Src/main.c:205:7
	cmp.w	r0, #1073741824
	bne	.LBB3_2
	b	.LBB3_1
.LBB3_1:
.Ltmp20:
	.loc	2 206 5 is_stmt 1               @ ../Core/Src/main.c:206:5
	bl	HAL_IncTick
	.loc	2 207 3                         @ ../Core/Src/main.c:207:3
	b	.LBB3_2
.Ltmp21:
.LBB3_2:
	.loc	2 209 6                         @ ../Core/Src/main.c:209:6
	ldr	r0, [sp, #4]
	.loc	2 209 12 is_stmt 0              @ ../Core/Src/main.c:209:12
	ldr	r0, [r0]
	movs	r1, #0
	movt	r1, #16385
.Ltmp22:
	.loc	2 209 6                         @ ../Core/Src/main.c:209:6
	cmp	r0, r1
	bne	.LBB3_4
	b	.LBB3_3
.LBB3_3:
.Ltmp23:
	.loc	2 211 6 is_stmt 1               @ ../Core/Src/main.c:211:6
	movw	r1, :lower16:cnt
	movt	r1, :upper16:cnt
	ldr	r2, [r1]
	ldr	r0, [r1, #4]
	adds	r2, #1
	adc	r0, r0, #0
	str	r2, [r1]
	str	r0, [r1, #4]
	.loc	2 212 27                        @ ../Core/Src/main.c:212:27
	movw	r0, :lower16:IMU_Data
	movt	r0, :upper16:IMU_Data
	vldr	s0, [r0, #56]
	.loc	2 212 43 is_stmt 0              @ ../Core/Src/main.c:212:43
	vldr	s1, [r0, #64]
	.loc	2 212 64                        @ ../Core/Src/main.c:212:64
	movw	r0, :lower16:VisionRxDataTemp
	movt	r0, :upper16:VisionRxDataTemp
	ldr	r0, [r0, #44]
	movs	r2, #1
	.loc	2 212 3                         @ ../Core/Src/main.c:212:3
	mov	r1, r2
	bl	Vision_Tx_Data
	.loc	2 213 2 is_stmt 1               @ ../Core/Src/main.c:213:2
	b	.LBB3_4
.Ltmp24:
.LBB3_4:
	.loc	2 214 7                         @ ../Core/Src/main.c:214:7
	ldr	r0, [sp, #4]
	.loc	2 214 13 is_stmt 0              @ ../Core/Src/main.c:214:13
	ldr	r0, [r0]
	movw	r1, #1024
	movt	r1, #16384
.Ltmp25:
	.loc	2 214 7                         @ ../Core/Src/main.c:214:7
	cmp	r0, r1
	bne	.LBB3_6
	b	.LBB3_5
.LBB3_5:
.Ltmp26:
	.loc	2 217 54 is_stmt 1              @ ../Core/Src/main.c:217:54
	movw	r0, :lower16:ALL_MOTOR
	movt	r0, :upper16:ALL_MOTOR
	ldrsh.w	r1, [r0, #1264]
	.loc	2 217 22 is_stmt 0              @ ../Core/Src/main.c:217:22
	vmov	s0, r1
	vcvt.f32.s32	s0, s0
	.loc	2 217 97                        @ ../Core/Src/main.c:217:97
	ldrsh.w	r0, [r0, #1824]
	.loc	2 217 65                        @ ../Core/Src/main.c:217:65
	vmov	s2, r0
	vcvt.f32.s32	s1, s2
	.loc	2 217 5                         @ ../Core/Src/main.c:217:5
	movw	r0, :lower16:g_det
	movt	r0, :upper16:g_det
	bl	Update_Shoot_Det
	.loc	2 218 3 is_stmt 1               @ ../Core/Src/main.c:218:3
	b	.LBB3_6
.Ltmp27:
.LBB3_6:
	.loc	2 220 1                         @ ../Core/Src/main.c:220:1
	add	sp, #8
	pop	{r7, pc}
.Ltmp28:
.Lfunc_end3:
	.size	HAL_TIM_PeriodElapsedCallback, .Lfunc_end3-HAL_TIM_PeriodElapsedCallback
	.cfi_endproc
	.cantunwind
	.fnend
                                        @ -- End function
	.hidden	cnt                             @ @cnt
	.type	cnt,%object
	.section	.bss.cnt,"aw",%nobits
	.globl	cnt
	.p2align	3
cnt:
	.long	0                               @ 0x0
	.long	0
	.size	cnt, 8

	.hidden	dt_pc                           @ @dt_pc
	.type	dt_pc,%object
	.section	.bss.dt_pc,"aw",%nobits
	.globl	dt_pc
	.p2align	2
dt_pc:
	.long	0x00000000                      @ float 0
	.size	dt_pc, 4

	.type	__ARM_use_no_argv,%object       @ @__ARM_use_no_argv
	.section	.ARM.use_no_argv,"awR",%progbits,unique,1
	.globl	__ARM_use_no_argv
	.p2align	2
__ARM_use_no_argv:
	.long	1                               @ 0x1
	.size	__ARM_use_no_argv, 4

	.file	8 "D:\\horizon\\Horizon_Infantry (2)\\MDK-ARM" "../Drivers/STM32F4xx_HAL_Driver/Inc\\stm32f4xx_hal_rcc.h"
	.file	9 "D:\\horizon\\Horizon_Infantry (2)\\MDK-ARM" "../Drivers/STM32F4xx_HAL_Driver/Inc/stm32f4xx_hal_rcc_ex.h"
	.section	".note.GNU-stack","",%progbits
	.eabi_attribute	30, 6	@ Tag_ABI_optimization_goals
	.ARM_attribute	16, 1	@ Tag_AV_eba