	.text
	.syntax unified
	.eabi_attribute	67, "2.09"	@ Tag_conformance
	.cpu	cortex-m4
	.eabi_attribute	6, 13	@ Tag_CPU_arch
	.eabi_attribute	7, 77	@ Tag_CPU_arch_profile
	.eabi_attribute	8, 0	@ Tag_ARM_ISA_use
	.eabi_attribute	9, 2	@ Tag_THUMB_ISA_use
	.fpu	fpv4-sp-d16
	.eabi_attribute	27, 1	@ Tag_ABI_HardFP_use
	.eabi_attribute	36, 1	@ Tag_FP_HP_extension
	.eabi_attribute	34, 1	@ Tag_CPU_unaligned_access
	.eabi_attribute	17, 1	@ Tag_ABI_PCS_GOT_use
	.eabi_attribute	20, 2	@ Tag_ABI_FP_denormal
	.eabi_attribute	21, 0	@ Tag_ABI_FP_exceptions
	.eabi_attribute	23, 1	@ Tag_ABI_FP_number_model
	.eabi_attribute	24, 1	@ Tag_ABI_align_needed
	.eabi_attribute	25, 1	@ Tag_ABI_align_preserved
	.eabi_attribute	28, 1	@ Tag_ABI_VFP_args
	.eabi_attribute	38, 1	@ Tag_ABI_FP_16bit_format
	.eabi_attribute	18, 2	@ Tag_ABI_PCS_wchar_t
	.eabi_attribute	26, 1	@ Tag_ABI_enum_size
	.eabi_attribute	14, 0	@ Tag_ABI_PCS_R9_use
	.file	"MatrixFunctions.c"
	.file	1 "D:\\horizon\\Horizon_Infantry (2)\\MDK-ARM" "../Middlewares/CMSIS/DSP/Inc\\arm_math_types.h"
	.file	2 "D:\\" "kevil\\ARM\\ARMCLANG\\Bin\\..\\include\\stdint.h"
	.section	.text.arm_mat_add_f32,"ax",%progbits
	.hidden	arm_mat_add_f32                 @ -- Begin function arm_mat_add_f32
	.globl	arm_mat_add_f32
	.p2align	2
	.type	arm_mat_add_f32,%function
	.code	16                              @ @arm_mat_add_f32
	.thumb_func
arm_mat_add_f32:
.Lfunc_begin0:
	.file	3 "D:\\horizon\\Horizon_Infantry (2)\\MDK-ARM" "../Middlewares/CMSIS/DSP/Src/MatrixFunctions/arm_mat_add_f32.c"
	.loc	3 241 0                         @ ../Middlewares/CMSIS/DSP/Src/MatrixFunctions/arm_mat_add_f32.c:241:0
	.fnstart
	.cfi_sections .debug_frame
	.cfi_startproc
@ %bb.0:
	.pad	#36
	sub	sp, #36
	.cfi_def_cfa_offset 36
	str	r0, [sp, #32]
	str	r1, [sp, #28]
	str	r2, [sp, #24]
.Ltmp0:
	.loc	3 242 21 prologue_end           @ ../Middlewares/CMSIS/DSP/Src/MatrixFunctions/arm_mat_add_f32.c:242:21
	ldr	r0, [sp, #32]
	.loc	3 242 28 is_stmt 0              @ ../Middlewares/CMSIS/DSP/Src/MatrixFunctions/arm_mat_add_f32.c:242:28
	ldr	r0, [r0, #4]
	.loc	3 242 14                        @ ../Middlewares/CMSIS/DSP/Src/MatrixFunctions/arm_mat_add_f32.c:242:14
	str	r0, [sp, #20]
	.loc	3 243 21 is_stmt 1              @ ../Middlewares/CMSIS/DSP/Src/MatrixFunctions/arm_mat_add_f32.c:243:21
	ldr	r0, [sp, #28]
	.loc	3 243 28 is_stmt 0              @ ../Middlewares/CMSIS/DSP/Src/MatrixFunctions/arm_mat_add_f32.c:243:28
	ldr	r0, [r0, #4]
	.loc	3 243 14                        @ ../Middlewares/CMSIS/DSP/Src/MatrixFunctions/arm_mat_add_f32.c:243:14
	str	r0, [sp, #16]
	.loc	3 244 21 is_stmt 1              @ ../Middlewares/CMSIS/DSP/Src/MatrixFunctions/arm_mat_add_f32.c:244:21
	ldr	r0, [sp, #24]
	.loc	3 244 27 is_stmt 0              @ ../Middlewares/CMSIS/DSP/Src/MatrixFunctions/arm_mat_add_f32.c:244:27
	ldr	r0, [r0, #4]
	.loc	3 244 14                        @ ../Middlewares/CMSIS/DSP/Src/MatrixFunctions/arm_mat_add_f32.c:244:14
	str	r0, [sp, #12]
.Ltmp1:
	.loc	3 253 8 is_stmt 1               @ ../Middlewares/CMSIS/DSP/Src/MatrixFunctions/arm_mat_add_f32.c:253:8
	ldr	r0, [sp, #32]
	.loc	3 253 15 is_stmt 0              @ ../Middlewares/CMSIS/DSP/Src/MatrixFunctions/arm_mat_add_f32.c:253:15
	ldrh	r0, [r0]
	.loc	3 253 26                        @ ../Middlewares/CMSIS/DSP/Src/MatrixFunctions/arm_mat_add_f32.c:253:26
	ldr	r1, [sp, #28]
	.loc	3 253 33                        @ ../Middlewares/CMSIS/DSP/Src/MatrixFunctions/arm_mat_add_f32.c:253:33
	ldrh	r1, [r1]
	.loc	3 253 42                        @ ../Middlewares/CMSIS/DSP/Src/MatrixFunctions/arm_mat_add_f32.c:253:42
	cmp	r0, r1
	bne	.LBB0_4
	b	.LBB0_1
.LBB0_1:
	.loc	3 254 8 is_stmt 1               @ ../Middlewares/CMSIS/DSP/Src/MatrixFunctions/arm_mat_add_f32.c:254:8
	ldr	r0, [sp, #32]
	.loc	3 254 15 is_stmt 0              @ ../Middlewares/CMSIS/DSP/Src/MatrixFunctions/arm_mat_add_f32.c:254:15
	ldrh	r0, [r0, #2]
	.loc	3 254 26                        @ ../Middlewares/CMSIS/DSP/Src/MatrixFunctions/arm_mat_add_f32.c:254:26
	ldr	r1, [sp, #28]
	.loc	3 254 33                        @ ../Middlewares/CMSIS/DSP/Src/MatrixFunctions/arm_mat_add_f32.c:254:33
	ldrh	r1, [r1, #2]
	.loc	3 254 42                        @ ../Middlewares/CMSIS/DSP/Src/MatrixFunctions/arm_mat_add_f32.c:254:42
	cmp	r0, r1
	bne	.LBB0_4
	b	.LBB0_2
.LBB0_2:
	.loc	3 255 8 is_stmt 1               @ ../Middlewares/CMSIS/DSP/Src/MatrixFunctions/arm_mat_add_f32.c:255:8
	ldr	r0, [sp, #32]
	.loc	3 255 15 is_stmt 0              @ ../Middlewares/CMSIS/DSP/Src/MatrixFunctions/arm_mat_add_f32.c:255:15
	ldrh	r0, [r0]
	.loc	3 255 26                        @ ../Middlewares/CMSIS/DSP/Src/MatrixFunctions/arm_mat_add_f32.c:255:26
	ldr	r1, [sp, #24]
	.loc	3 255 32                        @ ../Middlewares/CMSIS/DSP/Src/MatrixFunctions/arm_mat_add_f32.c:255:32
	ldrh	r1, [r1]
	.loc	3 255 41                        @ ../Middlewares/CMSIS/DSP/Src/MatrixFunctions/arm_mat_add_f32.c:255:41
	cmp	r0, r1
	bne	.LBB0_4
	b	.LBB0_3
.LBB0_3:
	.loc	3 256 8 is_stmt 1               @ ../Middlewares/CMSIS/DSP/Src/MatrixFunctions/arm_mat_add_f32.c:256:8
	ldr	r0, [sp, #32]
	.loc	3 256 15 is_stmt 0              @ ../Middlewares/CMSIS/DSP/Src/MatrixFunctions/arm_mat_add_f32.c:256:15
	ldrh	r0, [r0, #2]
	.loc	3 256 26                        @ ../Middlewares/CMSIS/DSP/Src/MatrixFunctions/arm_mat_add_f32.c:256:26
	ldr	r1, [sp, #24]
	.loc	3 256 32                        @ ../Middlewares/CMSIS/DSP/Src/MatrixFunctions/arm_mat_add_f32.c:256:32
	ldrh	r1, [r1, #2]
.Ltmp2:
	.loc	3 253 7 is_stmt 1               @ ../Middlewares/CMSIS/DSP/Src/MatrixFunctions/arm_mat_add_f32.c:253:7
	cmp	r0, r1
	beq	.LBB0_5
	b	.LBB0_4
.LBB0_4:
	.loc	3 0 7 is_stmt 0                 @ ../Middlewares/CMSIS/DSP/Src/MatrixFunctions/arm_mat_add_f32.c:0:7
	movs	r0, #253
.Ltmp3:
	.loc	3 259 12 is_stmt 1              @ ../Middlewares/CMSIS/DSP/Src/MatrixFunctions/arm_mat_add_f32.c:259:12
	strb.w	r0, [sp, #3]
	.loc	3 260 3                         @ ../Middlewares/CMSIS/DSP/Src/MatrixFunctions/arm_mat_add_f32.c:260:3
	b	.LBB0_9
.Ltmp4:
.LBB0_5:
	.loc	3 267 29                        @ ../Middlewares/CMSIS/DSP/Src/MatrixFunctions/arm_mat_add_f32.c:267:29
	ldr	r1, [sp, #32]
	.loc	3 267 36 is_stmt 0              @ ../Middlewares/CMSIS/DSP/Src/MatrixFunctions/arm_mat_add_f32.c:267:36
	ldrh	r0, [r1]
	.loc	3 267 53                        @ ../Middlewares/CMSIS/DSP/Src/MatrixFunctions/arm_mat_add_f32.c:267:53
	ldrh	r1, [r1, #2]
	.loc	3 267 44                        @ ../Middlewares/CMSIS/DSP/Src/MatrixFunctions/arm_mat_add_f32.c:267:44
	muls	r0, r1, r0
	.loc	3 267 16                        @ ../Middlewares/CMSIS/DSP/Src/MatrixFunctions/arm_mat_add_f32.c:267:16
	str	r0, [sp, #8]
	.loc	3 297 14 is_stmt 1              @ ../Middlewares/CMSIS/DSP/Src/MatrixFunctions/arm_mat_add_f32.c:297:14
	ldr	r0, [sp, #8]
	.loc	3 297 12 is_stmt 0              @ ../Middlewares/CMSIS/DSP/Src/MatrixFunctions/arm_mat_add_f32.c:297:12
	str	r0, [sp, #4]
	.loc	3 301 5 is_stmt 1               @ ../Middlewares/CMSIS/DSP/Src/MatrixFunctions/arm_mat_add_f32.c:301:5
	b	.LBB0_6
.LBB0_6:                                @ =>This Inner Loop Header: Depth=1
	.loc	3 301 12 is_stmt 0              @ ../Middlewares/CMSIS/DSP/Src/MatrixFunctions/arm_mat_add_f32.c:301:12
	ldr	r0, [sp, #4]
	.loc	3 301 5                         @ ../Middlewares/CMSIS/DSP/Src/MatrixFunctions/arm_mat_add_f32.c:301:5
	cbz	r0, .LBB0_8
	b	.LBB0_7
.LBB0_7:                                @   in Loop: Header=BB0_6 Depth=1
.Ltmp5:
	.loc	3 306 22 is_stmt 1              @ ../Middlewares/CMSIS/DSP/Src/MatrixFunctions/arm_mat_add_f32.c:306:22
	ldr	r0, [sp, #20]
	adds	r1, r0, #4
	str	r1, [sp, #20]
	.loc	3 306 17 is_stmt 0              @ ../Middlewares/CMSIS/DSP/Src/MatrixFunctions/arm_mat_add_f32.c:306:17
	vldr	s0, [r0]
	.loc	3 306 32                        @ ../Middlewares/CMSIS/DSP/Src/MatrixFunctions/arm_mat_add_f32.c:306:32
	ldr	r0, [sp, #16]
	adds	r1, r0, #4
	str	r1, [sp, #16]
	.loc	3 306 27                        @ ../Middlewares/CMSIS/DSP/Src/MatrixFunctions/arm_mat_add_f32.c:306:27
	vldr	s2, [r0]
	.loc	3 306 25                        @ ../Middlewares/CMSIS/DSP/Src/MatrixFunctions/arm_mat_add_f32.c:306:25
	vadd.f32	s0, s0, s2
	.loc	3 306 12                        @ ../Middlewares/CMSIS/DSP/Src/MatrixFunctions/arm_mat_add_f32.c:306:12
	ldr	r0, [sp, #12]
	adds	r1, r0, #4
	str	r1, [sp, #12]
	.loc	3 306 15                        @ ../Middlewares/CMSIS/DSP/Src/MatrixFunctions/arm_mat_add_f32.c:306:15
	vstr	s0, [r0]
	.loc	3 309 13 is_stmt 1              @ ../Middlewares/CMSIS/DSP/Src/MatrixFunctions/arm_mat_add_f32.c:309:13
	ldr	r0, [sp, #4]
	subs	r0, #1
	str	r0, [sp, #4]
.Ltmp6:
	.loc	3 301 5                         @ ../Middlewares/CMSIS/DSP/Src/MatrixFunctions/arm_mat_add_f32.c:301:5
	b	.LBB0_6
.LBB0_8:
	.loc	3 0 5 is_stmt 0                 @ ../Middlewares/CMSIS/DSP/Src/MatrixFunctions/arm_mat_add_f32.c:0:5
	movs	r0, #0
	.loc	3 313 12 is_stmt 1              @ ../Middlewares/CMSIS/DSP/Src/MatrixFunctions/arm_mat_add_f32.c:313:12
	strb.w	r0, [sp, #3]
	b	.LBB0_9
.Ltmp7:
.LBB0_9:
	.loc	3 317 11                        @ ../Middlewares/CMSIS/DSP/Src/MatrixFunctions/arm_mat_add_f32.c:317:11
	ldrsb.w	r0, [sp, #3]
	.loc	3 317 3 is_stmt 0               @ ../Middlewares/CMSIS/DSP/Src/MatrixFunctions/arm_mat_add_f32.c:317:3
	add	sp, #36
	bx	lr
.Ltmp8:
.Lfunc_end0:
	.size	arm_mat_add_f32, .Lfunc_end0-arm_mat_add_f32
	.cfi_endproc
	.cantunwind
	.fnend
                                        @ -- End function
	.section	.text.arm_mat_add_q15,"ax",%progbits
	.hidden	arm_mat_add_q15                 @ -- Begin function arm_mat_add_q15
	.globl	arm_mat_add_q15
	.p2align	2
	.type	arm_mat_add_q15,%function
	.code	16                              @ @arm_mat_add_q15
	.thumb_func
arm_mat_add_q15:
.Lfunc_begin1:
	.file	4 "D:\\horizon\\Horizon_Infantry (2)\\MDK-ARM" "../Middlewares/CMSIS/DSP/Src/MatrixFunctions/arm_mat_add_q15.c"
	.loc	4 135 0 is_stmt 1               @ ../Middlewares/CMSIS/DSP/Src/MatrixFunctions/arm_mat_add_q15.c:135:0
	.fnstart
	.cfi_startproc
@ %bb.0:
	.pad	#36
	sub	sp, #36
	.cfi_def_cfa_offset 36
	str	r0, [sp, #32]
	str	r1, [sp, #28]
	str	r2, [sp, #24]
.Ltmp9:
	.loc	4 136 23 prologue_end           @ ../Middlewares/CMSIS/DSP/Src/MatrixFunctions/arm_mat_add_q15.c:136:23
	ldr	r0, [sp, #32]
	.loc	4 136 30 is_stmt 0              @ ../Middlewares/CMSIS/DSP/Src/MatrixFunctions/arm_mat_add_q15.c:136:30
	ldr	r0, [r0, #4]
	.loc	4 136 16                        @ ../Middlewares/CMSIS/DSP/Src/MatrixFunctions/arm_mat_add_q15.c:136:16
	str	r0, [sp, #20]
	.loc	4 137 23 is_stmt 1              @ ../Middlewares/CMSIS/DSP/Src/MatrixFunctions/arm_mat_add_q15.c:137:23
	ldr	r0, [sp, #28]
	.loc	4 137 30 is_stmt 0              @ ../Middlewares/CMSIS/DSP/Src/MatrixFunctions/arm_mat_add_q15.c:137:30
	ldr	r0, [r0, #4]
	.loc	4 137 16                        @ ../Middlewares/CMSIS/DSP/Src/MatrixFunctions/arm_mat_add_q15.c:137:16
	str	r0, [sp, #16]
	.loc	4 138 23 is_stmt 1              @ ../Middlewares/CMSIS/DSP/Src/MatrixFunctions/arm_mat_add_q15.c:138:23
	ldr	r0, [sp, #24]
	.loc	4 138 29 is_stmt 0              @ ../Middlewares/CMSIS/DSP/Src/MatrixFunctions/arm_mat_add_q15.c:138:29
	ldr	r0, [r0, #4]
	.loc	4 138 16                        @ ../Middlewares/CMSIS/DSP/Src/MatrixFunctions/arm_mat_add_q15.c:138:16
	str	r0, [sp, #12]
.Ltmp10:
	.loc	4 147 8 is_stmt 1               @ ../Middlewares/CMSIS/DSP/Src/MatrixFunctions/arm_mat_add_q15.c:147:8
	ldr	r0, [sp, #32]
	.loc	4 147 15 is_stmt 0              @ ../Middlewares/CMSIS/DSP/Src/MatrixFunctions/arm_mat_add_q15.c:147:15
	ldrh	r0, [r0]
	.loc	4 147 26                        @ ../Middlewares/CMSIS/DSP/Src/MatrixFunctions/arm_mat_add_q15.c:147:26
	ldr	r1, [sp, #28]
	.loc	4 147 33                        @ ../Middlewares/CMSIS/DSP/Src/MatrixFunctions/arm_mat_add_q15.c:147:33
	ldrh	r1, [r1]
	.loc	4 147 42                        @ ../Middlewares/CMSIS/DSP/Src/MatrixFunctions/arm_mat_add_q15.c:147:42
	cmp	r0, r1
	bne	.LBB1_4
	b	.LBB1_1
.LBB1_1:
	.loc	4 148 8 is_stmt 1               @ ../Middlewares/CMSIS/DSP/Src/MatrixFunctions/arm_mat_add_q15.c:148:8
	ldr	r0, [sp, #32]
	.loc	4 148 15 is_stmt 0              @ ../Middlewares/CMSIS/DSP/Src/MatrixFunctions/arm_mat_add_q15.c:148:15
	ldrh	r0, [r0, #2]
	.loc	4 148 26                        @ ../Middlewares/CMSIS/DSP/Src/MatrixFunctions/arm_mat_add_q15.c:148:26
	ldr	r1, [sp, #28]
	.loc	4 148 33                        @ ../Middlewares/CMSIS/DSP/Src/MatrixFunctions/arm_mat_add_q15.c:148:33
	ldrh	r1, [r1, #2]
	.loc	4 148 42                        @ ../Middlewares/CMSIS/DSP/Src/MatrixFunctions/arm_mat_add_q15.c:148:42
	cmp	r0, r1
	bne	.LBB1_4
	b	.LBB1_2
.LBB1_2:
	.loc	4 149 8 is_stmt 1               @ ../Middlewares/CMSIS/DSP/Src/MatrixFunctions/arm_mat_add_q15.c:149:8
	ldr	r0, [sp, #32]
	.loc	4 149 15 is_stmt 0              @ ../Middlewares/CMSIS/DSP/Src/MatrixFunctions/arm_mat_add_q15.c:149:15
	ldrh	r0, [r0]
	.loc	4 149 26                        @ ../Middlewares/CMSIS/DSP/Src/MatrixFunctions/arm_mat_add_q15.c:149:26
	ldr	r1, [sp, #24]
	.loc	4 149 32                        @ ../Middlewares/CMSIS/DSP/Src/MatrixFunctions/arm_mat_add_q15.c:149:32
	ldrh	r1, [r1]
	.loc	4 149 41                        @ ../Middlewares/CMSIS/DSP/Src/MatrixFunctions/arm_mat_add_q15.c:149:41
	cmp	r0, r1
	bne	.LBB1_4
	b	.LBB1_3
.LBB1_3:
	.loc	4 150 8 is_stmt 1               @ ../Middlewares/CMSIS/DSP/Src/MatrixFunctions/arm_mat_add_q15.c:150:8
	ldr	r0, [sp, #32]
	.loc	4 150 15 is_stmt 0              @ ../Middlewares/CMSIS/DSP/Src/MatrixFunctions/arm_mat_add_q15.c:150:15
	ldrh	r0, [r0, #2]
	.loc	4 150 26                        @ ../Middlewares/CMSIS/DSP/Src/MatrixFunctions/arm_mat_add_q15.c:150:26
	ldr	r1, [sp, #24]
	.loc	4 150 32                        @ ../Middlewares/CMSIS/DSP/Src/MatrixFunctions/arm_mat_add_q15.c:150:32
	ldrh	r1, [r1, #2]
.Ltmp11:
	.loc	4 147 7 is_stmt 1               @ ../Middlewares/CMSIS/DSP/Src/MatrixFunctions/arm_mat_add_q15.c:147:7
	cmp	r0, r1
	beq	.LBB1_5
	b	.LBB1_4
.LBB1_4:
	.loc	4 0 7 is_stmt 0                 @ ../Middlewares/CMSIS/DSP/Src/MatrixFunctions/arm_mat_add_q15.c:0:7
	movs	r0, #253
.Ltmp12:
	.loc	4 153 12 is_stmt 1              @ ../Middlewares/CMSIS/DSP/Src/MatrixFunctions/arm_mat_add_q15.c:153:12
	strb.w	r0, [sp, #3]
	.loc	4 154 3                         @ ../Middlewares/CMSIS/DSP/Src/MatrixFunctions/arm_mat_add_q15.c:154:3
	b	.LBB1_9
.Ltmp13:
.LBB1_5:
	.loc	4 161 29                        @ ../Middlewares/CMSIS/DSP/Src/MatrixFunctions/arm_mat_add_q15.c:161:29
	ldr	r1, [sp, #32]
	.loc	4 161 36 is_stmt 0              @ ../Middlewares/CMSIS/DSP/Src/MatrixFunctions/arm_mat_add_q15.c:161:36
	ldrh	r0, [r1]
	.loc	4 161 53                        @ ../Middlewares/CMSIS/DSP/Src/MatrixFunctions/arm_mat_add_q15.c:161:53
	ldrh	r1, [r1, #2]
	.loc	4 161 44                        @ ../Middlewares/CMSIS/DSP/Src/MatrixFunctions/arm_mat_add_q15.c:161:44
	muls	r0, r1, r0
	.loc	4 161 16                        @ ../Middlewares/CMSIS/DSP/Src/MatrixFunctions/arm_mat_add_q15.c:161:16
	str	r0, [sp, #8]
	.loc	4 197 14 is_stmt 1              @ ../Middlewares/CMSIS/DSP/Src/MatrixFunctions/arm_mat_add_q15.c:197:14
	ldr	r0, [sp, #8]
	.loc	4 197 12 is_stmt 0              @ ../Middlewares/CMSIS/DSP/Src/MatrixFunctions/arm_mat_add_q15.c:197:12
	str	r0, [sp, #4]
	.loc	4 201 5 is_stmt 1               @ ../Middlewares/CMSIS/DSP/Src/MatrixFunctions/arm_mat_add_q15.c:201:5
	b	.LBB1_6
.LBB1_6:                                @ =>This Inner Loop Header: Depth=1
	.loc	4 201 12 is_stmt 0              @ ../Middlewares/CMSIS/DSP/Src/MatrixFunctions/arm_mat_add_q15.c:201:12
	ldr	r0, [sp, #4]
	.loc	4 201 5                         @ ../Middlewares/CMSIS/DSP/Src/MatrixFunctions/arm_mat_add_q15.c:201:5
	cbz	r0, .LBB1_8
	b	.LBB1_7
.LBB1_7:                                @   in Loop: Header=BB1_6 Depth=1
.Ltmp14:
	.loc	4 207 51 is_stmt 1              @ ../Middlewares/CMSIS/DSP/Src/MatrixFunctions/arm_mat_add_q15.c:207:51
	ldr	r0, [sp, #20]
	adds	r1, r0, #2
	str	r1, [sp, #20]
	.loc	4 207 46 is_stmt 0              @ ../Middlewares/CMSIS/DSP/Src/MatrixFunctions/arm_mat_add_q15.c:207:46
	ldrsh.w	r0, [r0]
	.loc	4 207 60                        @ ../Middlewares/CMSIS/DSP/Src/MatrixFunctions/arm_mat_add_q15.c:207:60
	ldr	r1, [sp, #16]
	adds	r2, r1, #2
	str	r2, [sp, #16]
	.loc	4 207 55                        @ ../Middlewares/CMSIS/DSP/Src/MatrixFunctions/arm_mat_add_q15.c:207:55
	ldrsh.w	r1, [r1]
	.loc	4 207 25                        @ ../Middlewares/CMSIS/DSP/Src/MatrixFunctions/arm_mat_add_q15.c:207:25
	qadd16	r0, r0, r1
	.loc	4 207 12                        @ ../Middlewares/CMSIS/DSP/Src/MatrixFunctions/arm_mat_add_q15.c:207:12
	ldr	r1, [sp, #12]
	adds	r2, r1, #2
	str	r2, [sp, #12]
	.loc	4 207 15                        @ ../Middlewares/CMSIS/DSP/Src/MatrixFunctions/arm_mat_add_q15.c:207:15
	strh	r0, [r1]
	.loc	4 213 13 is_stmt 1              @ ../Middlewares/CMSIS/DSP/Src/MatrixFunctions/arm_mat_add_q15.c:213:13
	ldr	r0, [sp, #4]
	subs	r0, #1
	str	r0, [sp, #4]
.Ltmp15:
	.loc	4 201 5                         @ ../Middlewares/CMSIS/DSP/Src/MatrixFunctions/arm_mat_add_q15.c:201:5
	b	.LBB1_6
.LBB1_8:
	.loc	4 0 5 is_stmt 0                 @ ../Middlewares/CMSIS/DSP/Src/MatrixFunctions/arm_mat_add_q15.c:0:5
	movs	r0, #0
	.loc	4 217 12 is_stmt 1              @ ../Middlewares/CMSIS/DSP/Src/MatrixFunctions/arm_mat_add_q15.c:217:12
	strb.w	r0, [sp, #3]
	b	.LBB1_9
.Ltmp16:
.LBB1_9:
	.loc	4 221 11                        @ ../Middlewares/CMSIS/DSP/Src/MatrixFunctions/arm_mat_add_q15.c:221:11
	ldrsb.w	r0, [sp, #3]
	.loc	4 221 3 is_stmt 0               @ ../Middlewares/CMSIS/DSP/Src/MatrixFunctions/arm_mat_add_q15.c:221:3
	add	sp, #36
	bx	lr
.Ltmp17:
.Lfunc_end1:
	.size	arm_mat_add_q15, .Lfunc_end1-arm_mat_add_q15
	.cfi_endproc
	.cantunwind
	.fnend
                                        @ -- End function
	.section	.text.arm_mat_add_q31,"ax",%progbits
	.hidden	arm_mat_add_q31                 @ -- Begin function arm_mat_add_q31
	.globl	arm_mat_add_q31
	.p2align	2
	.type	arm_mat_add_q31,%function
	.code	16                              @ @arm_mat_add_q31
	.thumb_func
arm_mat_add_q31:
.Lfunc_begin2:
	.file	5 "D:\\horizon\\Horizon_Infantry (2)\\MDK-ARM" "../Middlewares/CMSIS/DSP/Src/MatrixFunctions/arm_mat_add_q31.c"
	.loc	5 134 0 is_stmt 1               @ ../Middlewares/CMSIS/DSP/Src/MatrixFunctions/arm_mat_add_q31.c:134:0
	.fnstart
	.cfi_startproc
@ %bb.0:
	.pad	#36
	sub	sp, #36
	.cfi_def_cfa_offset 36
	str	r0, [sp, #32]
	str	r1, [sp, #28]
	str	r2, [sp, #24]
.Ltmp18:
	.loc	5 135 17 prologue_end           @ ../Middlewares/CMSIS/DSP/Src/MatrixFunctions/arm_mat_add_q31.c:135:17
	ldr	r0, [sp, #32]
	.loc	5 135 24 is_stmt 0              @ ../Middlewares/CMSIS/DSP/Src/MatrixFunctions/arm_mat_add_q31.c:135:24
	ldr	r0, [r0, #4]
	.loc	5 135 10                        @ ../Middlewares/CMSIS/DSP/Src/MatrixFunctions/arm_mat_add_q31.c:135:10
	str	r0, [sp, #20]
	.loc	5 136 17 is_stmt 1              @ ../Middlewares/CMSIS/DSP/Src/MatrixFunctions/arm_mat_add_q31.c:136:17
	ldr	r0, [sp, #28]
	.loc	5 136 24 is_stmt 0              @ ../Middlewares/CMSIS/DSP/Src/MatrixFunctions/arm_mat_add_q31.c:136:24
	ldr	r0, [r0, #4]
	.loc	5 136 10                        @ ../Middlewares/CMSIS/DSP/Src/MatrixFunctions/arm_mat_add_q31.c:136:10
	str	r0, [sp, #16]
	.loc	5 137 17 is_stmt 1              @ ../Middlewares/CMSIS/DSP/Src/MatrixFunctions/arm_mat_add_q31.c:137:17
	ldr	r0, [sp, #24]
	.loc	5 137 23 is_stmt 0              @ ../Middlewares/CMSIS/DSP/Src/MatrixFunctions/arm_mat_add_q31.c:137:23
	ldr	r0, [r0, #4]
	.loc	5 137 10                        @ ../Middlewares/CMSIS/DSP/Src/MatrixFunctions/arm_mat_add_q31.c:137:10
	str	r0, [sp, #12]
.Ltmp19:
	.loc	5 146 8 is_stmt 1               @ ../Middlewares/CMSIS/DSP/Src/MatrixFunctions/arm_mat_add_q31.c:146:8
	ldr	r0, [sp, #32]
	.loc	5 146 15 is_stmt 0              @ ../Middlewares/CMSIS/DSP/Src/MatrixFunctions/arm_mat_add_q31.c:146:15
	ldrh	r0, [r0]
	.loc	5 146 26                        @ ../Middlewares/CMSIS/DSP/Src/MatrixFunctions/arm_mat_add_q31.c:146:26
	ldr	r1, [sp, #28]
	.loc	5 146 33                        @ ../Middlewares/CMSIS/DSP/Src/MatrixFunctions/arm_mat_add_q31.c:146:33
	ldrh	r1, [r1]
	.loc	5 146 42                        @ ../Middlewares/CMSIS/DSP/Src/MatrixFunctions/arm_mat_add_q31.c:146:42
	cmp	r0, r1
	bne	.LBB2_4
	b	.LBB2_1
.LBB2_1:
	.loc	5 147 8 is_stmt 1               @ ../Middlewares/CMSIS/DSP/Src/MatrixFunctions/arm_mat_add_q31.c:147:8
	ldr	r0, [sp, #32]
	.loc	5 147 15 is_stmt 0              @ ../Middlewares/CMSIS/DSP/Src/MatrixFunctions/arm_mat_add_q31.c:147:15
	ldrh	r0, [r0, #2]
	.loc	5 147 26                        @ ../Middlewares/CMSIS/DSP/Src/MatrixFunctions/arm_mat_add_q31.c:147:26
	ldr	r1, [sp, #28]
	.loc	5 147 33                        @ ../Middlewares/CMSIS/DSP/Src/MatrixFunctions/arm_mat_add_q31.c:147:33
	ldrh	r1, [r1, #2]
	.loc	5 147 42                        @ ../Middlewares/CMSIS/DSP/Src/MatrixFunctions/arm_mat_add_q31.c:147:42
	cmp	r0, r1
	bne	.LBB2_4
	b	.LBB2_2
.LBB2_2:
	.loc	5 148 8 is_stmt 1               @ ../Middlewares/CMSIS/DSP/Src/MatrixFunctions/arm_mat_add_q31.c:148:8
	ldr	r0, [sp, #32]
	.loc	5 148 15 is_stmt 0              @ ../Middlewares/CMSIS/DSP/Src/MatrixFunctions/arm_mat_add_q31.c:148:15
	ldrh	r0, [r0]
	.loc	5 148 26                        @ ../Middlewares/CMSIS/DSP/Src/MatrixFunctions/arm_mat_add_q31.c:148:26
	ldr	r1, [sp, #24]
	.loc	5 148 32                        @ ../Middlewares/CMSIS/DSP/Src/MatrixFunctions/arm_mat_add_q31.c:148:32
	ldrh	r1, [r1]
	.loc	5 148 41                        @ ../Middlewares/CMSIS/DSP/Src/MatrixFunctions/arm_mat_add_q31.c:148:41
	cmp	r0, r1
	bne	.LBB2_4
	b	.LBB2_3
.LBB2_3:
	.loc	5 149 8 is_stmt 1               @ ../Middlewares/CMSIS/DSP/Src/MatrixFunctions/arm_mat_add_q31.c:149:8
	ldr	r0, [sp, #32]
	.loc	5 149 15 is_stmt 0              @ ../Middlewares/CMSIS/DSP/Src/MatrixFunctions/arm_mat_add_q31.c:149:15
	ldrh	r0, [r0, #2]
	.loc	5 149 26                        @ ../Middlewares/CMSIS/DSP/Src/MatrixFunctions/arm_mat_add_q31.c:149:26
	ldr	r1, [sp, #24]
	.loc	5 149 32                        @ ../Middlewares/CMSIS/DSP/Src/MatrixFunctions/arm_mat_add_q31.c:149:32
	ldrh	r1, [r1, #2]
.Ltmp20:
	.loc	5 146 7 is_stmt 1               @ ../Middlewares/CMSIS/DSP/Src/MatrixFunctions/arm_mat_add_q31.c:146:7
	cmp	r0, r1
	beq	.LBB2_5
	b	.LBB2_4
.LBB2_4:
	.loc	5 0 7 is_stmt 0                 @ ../Middlewares/CMSIS/DSP/Src/MatrixFunctions/arm_mat_add_q31.c:0:7
	movs	r0, #253
.Ltmp21:
	.loc	5 152 12 is_stmt 1              @ ../Middlewares/CMSIS/DSP/Src/MatrixFunctions/arm_mat_add_q31.c:152:12
	strb.w	r0, [sp, #3]
	.loc	5 153 3                         @ ../Middlewares/CMSIS/DSP/Src/MatrixFunctions/arm_mat_add_q31.c:153:3
	b	.LBB2_9
.Ltmp22:
.LBB2_5:
	.loc	5 160 29                        @ ../Middlewares/CMSIS/DSP/Src/MatrixFunctions/arm_mat_add_q31.c:160:29
	ldr	r1, [sp, #32]
	.loc	5 160 36 is_stmt 0              @ ../Middlewares/CMSIS/DSP/Src/MatrixFunctions/arm_mat_add_q31.c:160:36
	ldrh	r0, [r1]
	.loc	5 160 53                        @ ../Middlewares/CMSIS/DSP/Src/MatrixFunctions/arm_mat_add_q31.c:160:53
	ldrh	r1, [r1, #2]
	.loc	5 160 44                        @ ../Middlewares/CMSIS/DSP/Src/MatrixFunctions/arm_mat_add_q31.c:160:44
	muls	r0, r1, r0
	.loc	5 160 16                        @ ../Middlewares/CMSIS/DSP/Src/MatrixFunctions/arm_mat_add_q31.c:160:16
	str	r0, [sp, #8]
	.loc	5 190 14 is_stmt 1              @ ../Middlewares/CMSIS/DSP/Src/MatrixFunctions/arm_mat_add_q31.c:190:14
	ldr	r0, [sp, #8]
	.loc	5 190 12 is_stmt 0              @ ../Middlewares/CMSIS/DSP/Src/MatrixFunctions/arm_mat_add_q31.c:190:12
	str	r0, [sp, #4]
	.loc	5 194 5 is_stmt 1               @ ../Middlewares/CMSIS/DSP/Src/MatrixFunctions/arm_mat_add_q31.c:194:5
	b	.LBB2_6
.LBB2_6:                                @ =>This Inner Loop Header: Depth=1
	.loc	5 194 12 is_stmt 0              @ ../Middlewares/CMSIS/DSP/Src/MatrixFunctions/arm_mat_add_q31.c:194:12
	ldr	r0, [sp, #4]
	.loc	5 194 5                         @ ../Middlewares/CMSIS/DSP/Src/MatrixFunctions/arm_mat_add_q31.c:194:5
	cbz	r0, .LBB2_8
	b	.LBB2_7
.LBB2_7:                                @   in Loop: Header=BB2_6 Depth=1
.Ltmp23:
	.loc	5 199 41 is_stmt 1              @ ../Middlewares/CMSIS/DSP/Src/MatrixFunctions/arm_mat_add_q31.c:199:41
	ldr	r0, [sp, #20]
	adds	r1, r0, #4
	str	r1, [sp, #20]
	.loc	5 199 36 is_stmt 0              @ ../Middlewares/CMSIS/DSP/Src/MatrixFunctions/arm_mat_add_q31.c:199:36
	ldr	r0, [r0]
	.loc	5 199 50                        @ ../Middlewares/CMSIS/DSP/Src/MatrixFunctions/arm_mat_add_q31.c:199:50
	ldr	r1, [sp, #16]
	adds	r2, r1, #4
	str	r2, [sp, #16]
	.loc	5 199 45                        @ ../Middlewares/CMSIS/DSP/Src/MatrixFunctions/arm_mat_add_q31.c:199:45
	ldr	r1, [r1]
	.loc	5 199 17                        @ ../Middlewares/CMSIS/DSP/Src/MatrixFunctions/arm_mat_add_q31.c:199:17
	qadd	r0, r0, r1
	.loc	5 199 12                        @ ../Middlewares/CMSIS/DSP/Src/MatrixFunctions/arm_mat_add_q31.c:199:12
	ldr	r1, [sp, #12]
	adds	r2, r1, #4
	str	r2, [sp, #12]
	.loc	5 199 15                        @ ../Middlewares/CMSIS/DSP/Src/MatrixFunctions/arm_mat_add_q31.c:199:15
	str	r0, [r1]
	.loc	5 202 13 is_stmt 1              @ ../Middlewares/CMSIS/DSP/Src/MatrixFunctions/arm_mat_add_q31.c:202:13
	ldr	r0, [sp, #4]
	subs	r0, #1
	str	r0, [sp, #4]
.Ltmp24:
	.loc	5 194 5                         @ ../Middlewares/CMSIS/DSP/Src/MatrixFunctions/arm_mat_add_q31.c:194:5
	b	.LBB2_6
.LBB2_8:
	.loc	5 0 5 is_stmt 0                 @ ../Middlewares/CMSIS/DSP/Src/MatrixFunctions/arm_mat_add_q31.c:0:5
	movs	r0, #0
	.loc	5 206 12 is_stmt 1              @ ../Middlewares/CMSIS/DSP/Src/MatrixFunctions/arm_mat_add_q31.c:206:12
	strb.w	r0, [sp, #3]
	b	.LBB2_9
.Ltmp25:
.LBB2_9:
	.loc	5 210 11                        @ ../Middlewares/CMSIS/DSP/Src/MatrixFunctions/arm_mat_add_q31.c:210:11
	ldrsb.w	r0, [sp, #3]
	.loc	5 210 3 is_stmt 0               @ ../Middlewares/CMSIS/DSP/Src/MatrixFunctions/arm_mat_add_q31.c:210:3
	add	sp, #36
	bx	lr
.Ltmp26:
.Lfunc_end2:
	.size	arm_mat_add_q31, .Lfunc_end2-arm_mat_add_q31
	.cfi_endproc
	.cantunwind
	.fnend
                                        @ -- End function
	.section	.text.arm_mat_cmplx_mult_f32,"ax",%progbits
	.hidden	arm_mat_cmplx_mult_f32          @ -- Begin function arm_mat_cmplx_mult_f32
	.globl	arm_mat_cmplx_mult_f32
	.p2align	2
	.type	arm_mat_cmplx_mult_f32,%function
	.code	16                              @ @arm_mat_cmplx_mult_f32
	.thumb_func
arm_mat_cmplx_mult_f32:
.Lfunc_begin3:
	.file	6 "D:\\horizon\\Horizon_Infantry (2)\\MDK-ARM" "../Middlewares/CMSIS/DSP/Src/MatrixFunctions/arm_mat_cmplx_mult_f32.c"
	.loc	6 1185 0 is_stmt 1              @ ../Middlewares/CMSIS/DSP/Src/MatrixFunctions/arm_mat_cmplx_mult_f32.c:1185:0
	.fnstart
	.cfi_startproc
@ %bb.0:
	.pad	#92
	sub	sp, #92
	.cfi_def_cfa_offset 92
	add	r3, sp, #28
	str	r3, [sp]                        @ 4-byte Spill
	str	r0, [sp, #88]
	str	r1, [sp, #84]
	str	r2, [sp, #80]
.Ltmp27:
	.loc	6 1186 21 prologue_end          @ ../Middlewares/CMSIS/DSP/Src/MatrixFunctions/arm_mat_cmplx_mult_f32.c:1186:21
	ldr	r0, [sp, #88]
	.loc	6 1186 28 is_stmt 0             @ ../Middlewares/CMSIS/DSP/Src/MatrixFunctions/arm_mat_cmplx_mult_f32.c:1186:28
	ldr	r0, [r0, #4]
	.loc	6 1186 14                       @ ../Middlewares/CMSIS/DSP/Src/MatrixFunctions/arm_mat_cmplx_mult_f32.c:1186:14
	str	r0, [sp, #76]
	.loc	6 1187 21 is_stmt 1             @ ../Middlewares/CMSIS/DSP/Src/MatrixFunctions/arm_mat_cmplx_mult_f32.c:1187:21
	ldr	r0, [sp, #84]
	.loc	6 1187 28 is_stmt 0             @ ../Middlewares/CMSIS/DSP/Src/MatrixFunctions/arm_mat_cmplx_mult_f32.c:1187:28
	ldr	r0, [r0, #4]
	.loc	6 1187 14                       @ ../Middlewares/CMSIS/DSP/Src/MatrixFunctions/arm_mat_cmplx_mult_f32.c:1187:14
	str	r0, [sp, #72]
	.loc	6 1188 21 is_stmt 1             @ ../Middlewares/CMSIS/DSP/Src/MatrixFunctions/arm_mat_cmplx_mult_f32.c:1188:21
	ldr	r0, [sp, #88]
	.loc	6 1188 28 is_stmt 0             @ ../Middlewares/CMSIS/DSP/Src/MatrixFunctions/arm_mat_cmplx_mult_f32.c:1188:28
	ldr	r0, [r0, #4]
	.loc	6 1188 14                       @ ../Middlewares/CMSIS/DSP/Src/MatrixFunctions/arm_mat_cmplx_mult_f32.c:1188:14
	str	r0, [sp, #68]
	.loc	6 1189 21 is_stmt 1             @ ../Middlewares/CMSIS/DSP/Src/MatrixFunctions/arm_mat_cmplx_mult_f32.c:1189:21
	ldr	r0, [sp, #80]
	.loc	6 1189 27 is_stmt 0             @ ../Middlewares/CMSIS/DSP/Src/MatrixFunctions/arm_mat_cmplx_mult_f32.c:1189:27
	ldr	r0, [r0, #4]
	.loc	6 1189 14                       @ ../Middlewares/CMSIS/DSP/Src/MatrixFunctions/arm_mat_cmplx_mult_f32.c:1189:14
	str	r0, [sp, #64]
	.loc	6 1191 23 is_stmt 1             @ ../Middlewares/CMSIS/DSP/Src/MatrixFunctions/arm_mat_cmplx_mult_f32.c:1191:23
	ldr	r0, [sp, #88]
	.loc	6 1191 30 is_stmt 0             @ ../Middlewares/CMSIS/DSP/Src/MatrixFunctions/arm_mat_cmplx_mult_f32.c:1191:30
	ldrh	r0, [r0]
	.loc	6 1191 12                       @ ../Middlewares/CMSIS/DSP/Src/MatrixFunctions/arm_mat_cmplx_mult_f32.c:1191:12
	strh.w	r0, [sp, #58]
	.loc	6 1192 23 is_stmt 1             @ ../Middlewares/CMSIS/DSP/Src/MatrixFunctions/arm_mat_cmplx_mult_f32.c:1192:23
	ldr	r0, [sp, #84]
	.loc	6 1192 30 is_stmt 0             @ ../Middlewares/CMSIS/DSP/Src/MatrixFunctions/arm_mat_cmplx_mult_f32.c:1192:30
	ldrh	r0, [r0, #2]
	.loc	6 1192 12                       @ ../Middlewares/CMSIS/DSP/Src/MatrixFunctions/arm_mat_cmplx_mult_f32.c:1192:12
	strh.w	r0, [sp, #56]
	.loc	6 1193 23 is_stmt 1             @ ../Middlewares/CMSIS/DSP/Src/MatrixFunctions/arm_mat_cmplx_mult_f32.c:1193:23
	ldr	r0, [sp, #88]
	.loc	6 1193 30 is_stmt 0             @ ../Middlewares/CMSIS/DSP/Src/MatrixFunctions/arm_mat_cmplx_mult_f32.c:1193:30
	ldrh	r0, [r0, #2]
	.loc	6 1193 12                       @ ../Middlewares/CMSIS/DSP/Src/MatrixFunctions/arm_mat_cmplx_mult_f32.c:1193:12
	strh.w	r0, [sp, #54]
	movs	r0, #0
	.loc	6 1196 17 is_stmt 1             @ ../Middlewares/CMSIS/DSP/Src/MatrixFunctions/arm_mat_cmplx_mult_f32.c:1196:17
	str	r0, [sp, #20]
	.loc	6 1196 34 is_stmt 0             @ ../Middlewares/CMSIS/DSP/Src/MatrixFunctions/arm_mat_cmplx_mult_f32.c:1196:34
	ldrh.w	r0, [sp, #58]
	.loc	6 1196 28                       @ ../Middlewares/CMSIS/DSP/Src/MatrixFunctions/arm_mat_cmplx_mult_f32.c:1196:28
	str	r0, [sp, #12]
.Ltmp28:
	.loc	6 1206 8 is_stmt 1              @ ../Middlewares/CMSIS/DSP/Src/MatrixFunctions/arm_mat_cmplx_mult_f32.c:1206:8
	ldr	r0, [sp, #88]
	.loc	6 1206 15 is_stmt 0             @ ../Middlewares/CMSIS/DSP/Src/MatrixFunctions/arm_mat_cmplx_mult_f32.c:1206:15
	ldrh	r0, [r0, #2]
	.loc	6 1206 26                       @ ../Middlewares/CMSIS/DSP/Src/MatrixFunctions/arm_mat_cmplx_mult_f32.c:1206:26
	ldr	r1, [sp, #84]
	.loc	6 1206 33                       @ ../Middlewares/CMSIS/DSP/Src/MatrixFunctions/arm_mat_cmplx_mult_f32.c:1206:33
	ldrh	r1, [r1]
	.loc	6 1206 42                       @ ../Middlewares/CMSIS/DSP/Src/MatrixFunctions/arm_mat_cmplx_mult_f32.c:1206:42
	cmp	r0, r1
	bne	.LBB3_3
	b	.LBB3_1
.LBB3_1:
	.loc	6 1207 8 is_stmt 1              @ ../Middlewares/CMSIS/DSP/Src/MatrixFunctions/arm_mat_cmplx_mult_f32.c:1207:8
	ldr	r0, [sp, #88]
	.loc	6 1207 15 is_stmt 0             @ ../Middlewares/CMSIS/DSP/Src/MatrixFunctions/arm_mat_cmplx_mult_f32.c:1207:15
	ldrh	r0, [r0]
	.loc	6 1207 26                       @ ../Middlewares/CMSIS/DSP/Src/MatrixFunctions/arm_mat_cmplx_mult_f32.c:1207:26
	ldr	r1, [sp, #80]
	.loc	6 1207 32                       @ ../Middlewares/CMSIS/DSP/Src/MatrixFunctions/arm_mat_cmplx_mult_f32.c:1207:32
	ldrh	r1, [r1]
	.loc	6 1207 41                       @ ../Middlewares/CMSIS/DSP/Src/MatrixFunctions/arm_mat_cmplx_mult_f32.c:1207:41
	cmp	r0, r1
	bne	.LBB3_3
	b	.LBB3_2
.LBB3_2:
	.loc	6 1208 8 is_stmt 1              @ ../Middlewares/CMSIS/DSP/Src/MatrixFunctions/arm_mat_cmplx_mult_f32.c:1208:8
	ldr	r0, [sp, #84]
	.loc	6 1208 15 is_stmt 0             @ ../Middlewares/CMSIS/DSP/Src/MatrixFunctions/arm_mat_cmplx_mult_f32.c:1208:15
	ldrh	r0, [r0, #2]
	.loc	6 1208 26                       @ ../Middlewares/CMSIS/DSP/Src/MatrixFunctions/arm_mat_cmplx_mult_f32.c:1208:26
	ldr	r1, [sp, #80]
	.loc	6 1208 32                       @ ../Middlewares/CMSIS/DSP/Src/MatrixFunctions/arm_mat_cmplx_mult_f32.c:1208:32
	ldrh	r1, [r1, #2]
.Ltmp29:
	.loc	6 1206 7 is_stmt 1              @ ../Middlewares/CMSIS/DSP/Src/MatrixFunctions/arm_mat_cmplx_mult_f32.c:1206:7
	cmp	r0, r1
	beq	.LBB3_4
	b	.LBB3_3
.LBB3_3:
	.loc	6 0 7 is_stmt 0                 @ ../Middlewares/CMSIS/DSP/Src/MatrixFunctions/arm_mat_cmplx_mult_f32.c:0:7
	movs	r0, #253
.Ltmp30:
	.loc	6 1211 12 is_stmt 1             @ ../Middlewares/CMSIS/DSP/Src/MatrixFunctions/arm_mat_cmplx_mult_f32.c:1211:12
	strb.w	r0, [sp, #7]
	.loc	6 1212 3                        @ ../Middlewares/CMSIS/DSP/Src/MatrixFunctions/arm_mat_cmplx_mult_f32.c:1212:3
	b	.LBB3_14
.Ltmp31:
.LBB3_4:
	.loc	6 1220 5                        @ ../Middlewares/CMSIS/DSP/Src/MatrixFunctions/arm_mat_cmplx_mult_f32.c:1220:5
	b	.LBB3_5
.LBB3_5:                                @ =>This Loop Header: Depth=1
                                        @     Child Loop BB3_6 Depth 2
                                        @       Child Loop BB3_7 Depth 3
.Ltmp32:
	.loc	6 1223 12                       @ ../Middlewares/CMSIS/DSP/Src/MatrixFunctions/arm_mat_cmplx_mult_f32.c:1223:12
	ldr	r0, [sp, #64]
	.loc	6 1223 23 is_stmt 0             @ ../Middlewares/CMSIS/DSP/Src/MatrixFunctions/arm_mat_cmplx_mult_f32.c:1223:23
	ldr	r1, [sp, #20]
	.loc	6 1223 17                       @ ../Middlewares/CMSIS/DSP/Src/MatrixFunctions/arm_mat_cmplx_mult_f32.c:1223:17
	add.w	r0, r0, r1, lsl #3
	.loc	6 1223 10                       @ ../Middlewares/CMSIS/DSP/Src/MatrixFunctions/arm_mat_cmplx_mult_f32.c:1223:10
	str	r0, [sp, #60]
	.loc	6 1226 13 is_stmt 1             @ ../Middlewares/CMSIS/DSP/Src/MatrixFunctions/arm_mat_cmplx_mult_f32.c:1226:13
	ldrh.w	r0, [sp, #56]
	.loc	6 1226 11 is_stmt 0             @ ../Middlewares/CMSIS/DSP/Src/MatrixFunctions/arm_mat_cmplx_mult_f32.c:1226:11
	str	r0, [sp, #24]
	.loc	6 1230 14 is_stmt 1             @ ../Middlewares/CMSIS/DSP/Src/MatrixFunctions/arm_mat_cmplx_mult_f32.c:1230:14
	ldr	r0, [sp, #84]
	.loc	6 1230 21 is_stmt 0             @ ../Middlewares/CMSIS/DSP/Src/MatrixFunctions/arm_mat_cmplx_mult_f32.c:1230:21
	ldr	r0, [r0, #4]
	.loc	6 1230 12                       @ ../Middlewares/CMSIS/DSP/Src/MatrixFunctions/arm_mat_cmplx_mult_f32.c:1230:12
	str	r0, [sp, #72]
	movs	r0, #0
	.loc	6 1232 9 is_stmt 1              @ ../Middlewares/CMSIS/DSP/Src/MatrixFunctions/arm_mat_cmplx_mult_f32.c:1232:9
	str	r0, [sp, #16]
	.loc	6 1235 7                        @ ../Middlewares/CMSIS/DSP/Src/MatrixFunctions/arm_mat_cmplx_mult_f32.c:1235:7
	b	.LBB3_6
.LBB3_6:                                @   Parent Loop BB3_5 Depth=1
                                        @ =>  This Loop Header: Depth=2
                                        @       Child Loop BB3_7 Depth 3
	.loc	6 0 7 is_stmt 0                 @ ../Middlewares/CMSIS/DSP/Src/MatrixFunctions/arm_mat_cmplx_mult_f32.c:0:7
	movs	r0, #0
.Ltmp33:
	.loc	6 1238 17 is_stmt 1             @ ../Middlewares/CMSIS/DSP/Src/MatrixFunctions/arm_mat_cmplx_mult_f32.c:1238:17
	str	r0, [sp, #48]
	.loc	6 1239 17                       @ ../Middlewares/CMSIS/DSP/Src/MatrixFunctions/arm_mat_cmplx_mult_f32.c:1239:17
	str	r0, [sp, #44]
	.loc	6 1242 16                       @ ../Middlewares/CMSIS/DSP/Src/MatrixFunctions/arm_mat_cmplx_mult_f32.c:1242:16
	ldr	r0, [sp, #68]
	.loc	6 1242 14 is_stmt 0             @ ../Middlewares/CMSIS/DSP/Src/MatrixFunctions/arm_mat_cmplx_mult_f32.c:1242:14
	str	r0, [sp, #76]
	.loc	6 1344 18 is_stmt 1             @ ../Middlewares/CMSIS/DSP/Src/MatrixFunctions/arm_mat_cmplx_mult_f32.c:1344:18
	ldrh.w	r0, [sp, #54]
	.loc	6 1344 16 is_stmt 0             @ ../Middlewares/CMSIS/DSP/Src/MatrixFunctions/arm_mat_cmplx_mult_f32.c:1344:16
	str	r0, [sp, #8]
	.loc	6 1348 9 is_stmt 1              @ ../Middlewares/CMSIS/DSP/Src/MatrixFunctions/arm_mat_cmplx_mult_f32.c:1348:9
	b	.LBB3_7
.LBB3_7:                                @   Parent Loop BB3_5 Depth=1
                                        @     Parent Loop BB3_6 Depth=2
                                        @ =>    This Inner Loop Header: Depth=3
	.loc	6 1348 16 is_stmt 0             @ ../Middlewares/CMSIS/DSP/Src/MatrixFunctions/arm_mat_cmplx_mult_f32.c:1348:16
	ldr	r0, [sp, #8]
	.loc	6 1348 9                        @ ../Middlewares/CMSIS/DSP/Src/MatrixFunctions/arm_mat_cmplx_mult_f32.c:1348:9
	cmp	r0, #0
	beq	.LBB3_9
	b	.LBB3_8
.LBB3_8:                                @   in Loop: Header=BB3_7 Depth=3
.Ltmp34:
	.loc	6 1351 18 is_stmt 1             @ ../Middlewares/CMSIS/DSP/Src/MatrixFunctions/arm_mat_cmplx_mult_f32.c:1351:18
	ldr	r0, [sp]                        @ 4-byte Reload
	ldr	r1, [sp, #76]
	.loc	6 1351 16 is_stmt 0             @ ../Middlewares/CMSIS/DSP/Src/MatrixFunctions/arm_mat_cmplx_mult_f32.c:1351:16
	ldr	r1, [r1]
	.loc	6 1351 14                       @ ../Middlewares/CMSIS/DSP/Src/MatrixFunctions/arm_mat_cmplx_mult_f32.c:1351:14
	str	r1, [sp, #40]
	.loc	6 1352 18 is_stmt 1             @ ../Middlewares/CMSIS/DSP/Src/MatrixFunctions/arm_mat_cmplx_mult_f32.c:1352:18
	ldr	r1, [sp, #72]
	.loc	6 1352 16 is_stmt 0             @ ../Middlewares/CMSIS/DSP/Src/MatrixFunctions/arm_mat_cmplx_mult_f32.c:1352:16
	ldr	r1, [r1]
	.loc	6 1352 14                       @ ../Middlewares/CMSIS/DSP/Src/MatrixFunctions/arm_mat_cmplx_mult_f32.c:1352:14
	str	r1, [sp, #32]
	.loc	6 1353 18 is_stmt 1             @ ../Middlewares/CMSIS/DSP/Src/MatrixFunctions/arm_mat_cmplx_mult_f32.c:1353:18
	ldr	r1, [sp, #76]
	.loc	6 1353 16 is_stmt 0             @ ../Middlewares/CMSIS/DSP/Src/MatrixFunctions/arm_mat_cmplx_mult_f32.c:1353:16
	ldr	r1, [r1, #4]
	.loc	6 1353 14                       @ ../Middlewares/CMSIS/DSP/Src/MatrixFunctions/arm_mat_cmplx_mult_f32.c:1353:14
	str	r1, [sp, #36]
	.loc	6 1354 18 is_stmt 1             @ ../Middlewares/CMSIS/DSP/Src/MatrixFunctions/arm_mat_cmplx_mult_f32.c:1354:18
	ldr	r1, [sp, #72]
	.loc	6 1354 16 is_stmt 0             @ ../Middlewares/CMSIS/DSP/Src/MatrixFunctions/arm_mat_cmplx_mult_f32.c:1354:16
	ldr	r1, [r1, #4]
	.loc	6 1354 14                       @ ../Middlewares/CMSIS/DSP/Src/MatrixFunctions/arm_mat_cmplx_mult_f32.c:1354:14
	str	r1, [sp, #28]
	.loc	6 1357 22 is_stmt 1             @ ../Middlewares/CMSIS/DSP/Src/MatrixFunctions/arm_mat_cmplx_mult_f32.c:1357:22
	vldr	s0, [r0, #12]
	.loc	6 1357 27 is_stmt 0             @ ../Middlewares/CMSIS/DSP/Src/MatrixFunctions/arm_mat_cmplx_mult_f32.c:1357:27
	vldr	s4, [r0, #4]
	.loc	6 1357 19                       @ ../Middlewares/CMSIS/DSP/Src/MatrixFunctions/arm_mat_cmplx_mult_f32.c:1357:19
	vldr	s2, [r0, #20]
	vmul.f32	s0, s0, s4
	vadd.f32	s0, s0, s2
	vstr	s0, [r0, #20]
	.loc	6 1358 22 is_stmt 1             @ ../Middlewares/CMSIS/DSP/Src/MatrixFunctions/arm_mat_cmplx_mult_f32.c:1358:22
	vldr	s0, [r0, #8]
	.loc	6 1358 27 is_stmt 0             @ ../Middlewares/CMSIS/DSP/Src/MatrixFunctions/arm_mat_cmplx_mult_f32.c:1358:27
	vldr	s4, [r0, #4]
	.loc	6 1358 19                       @ ../Middlewares/CMSIS/DSP/Src/MatrixFunctions/arm_mat_cmplx_mult_f32.c:1358:19
	vldr	s2, [r0, #16]
	vmul.f32	s0, s0, s4
	vadd.f32	s0, s0, s2
	vstr	s0, [r0, #16]
	.loc	6 1361 16 is_stmt 1             @ ../Middlewares/CMSIS/DSP/Src/MatrixFunctions/arm_mat_cmplx_mult_f32.c:1361:16
	ldr	r1, [sp, #76]
	adds	r1, #8
	str	r1, [sp, #76]
	.loc	6 1362 23                       @ ../Middlewares/CMSIS/DSP/Src/MatrixFunctions/arm_mat_cmplx_mult_f32.c:1362:23
	ldrh.w	r2, [sp, #56]
	.loc	6 1362 16 is_stmt 0             @ ../Middlewares/CMSIS/DSP/Src/MatrixFunctions/arm_mat_cmplx_mult_f32.c:1362:16
	ldr	r1, [sp, #72]
	add.w	r1, r1, r2, lsl #3
	str	r1, [sp, #72]
	.loc	6 1365 22 is_stmt 1             @ ../Middlewares/CMSIS/DSP/Src/MatrixFunctions/arm_mat_cmplx_mult_f32.c:1365:22
	vldr	s2, [r0, #8]
	.loc	6 1365 27 is_stmt 0             @ ../Middlewares/CMSIS/DSP/Src/MatrixFunctions/arm_mat_cmplx_mult_f32.c:1365:27
	vldr	s4, [r0]
	.loc	6 1365 19                       @ ../Middlewares/CMSIS/DSP/Src/MatrixFunctions/arm_mat_cmplx_mult_f32.c:1365:19
	vldr	s0, [r0, #20]
	vmul.f32	s2, s2, s4
	vsub.f32	s0, s0, s2
	vstr	s0, [r0, #20]
	.loc	6 1366 22 is_stmt 1             @ ../Middlewares/CMSIS/DSP/Src/MatrixFunctions/arm_mat_cmplx_mult_f32.c:1366:22
	vldr	s0, [r0, #12]
	.loc	6 1366 27 is_stmt 0             @ ../Middlewares/CMSIS/DSP/Src/MatrixFunctions/arm_mat_cmplx_mult_f32.c:1366:27
	vldr	s4, [r0]
	.loc	6 1366 19                       @ ../Middlewares/CMSIS/DSP/Src/MatrixFunctions/arm_mat_cmplx_mult_f32.c:1366:19
	vldr	s2, [r0, #16]
	vmul.f32	s0, s0, s4
	vadd.f32	s0, s0, s2
	vstr	s0, [r0, #16]
	.loc	6 1369 17 is_stmt 1             @ ../Middlewares/CMSIS/DSP/Src/MatrixFunctions/arm_mat_cmplx_mult_f32.c:1369:17
	ldr	r0, [sp, #8]
	subs	r0, #1
	str	r0, [sp, #8]
.Ltmp35:
	.loc	6 1348 9                        @ ../Middlewares/CMSIS/DSP/Src/MatrixFunctions/arm_mat_cmplx_mult_f32.c:1348:9
	b	.LBB3_7
.LBB3_9:                                @   in Loop: Header=BB3_6 Depth=2
	.loc	6 1373 17                       @ ../Middlewares/CMSIS/DSP/Src/MatrixFunctions/arm_mat_cmplx_mult_f32.c:1373:17
	ldr	r0, [sp, #48]
	.loc	6 1373 12 is_stmt 0             @ ../Middlewares/CMSIS/DSP/Src/MatrixFunctions/arm_mat_cmplx_mult_f32.c:1373:12
	ldr	r1, [sp, #60]
	adds	r2, r1, #4
	str	r2, [sp, #60]
	.loc	6 1373 15                       @ ../Middlewares/CMSIS/DSP/Src/MatrixFunctions/arm_mat_cmplx_mult_f32.c:1373:15
	str	r0, [r1]
	.loc	6 1374 17 is_stmt 1             @ ../Middlewares/CMSIS/DSP/Src/MatrixFunctions/arm_mat_cmplx_mult_f32.c:1374:17
	ldr	r0, [sp, #44]
	.loc	6 1374 12 is_stmt 0             @ ../Middlewares/CMSIS/DSP/Src/MatrixFunctions/arm_mat_cmplx_mult_f32.c:1374:12
	ldr	r1, [sp, #60]
	adds	r2, r1, #4
	str	r2, [sp, #60]
	.loc	6 1374 15                       @ ../Middlewares/CMSIS/DSP/Src/MatrixFunctions/arm_mat_cmplx_mult_f32.c:1374:15
	str	r0, [r1]
	.loc	6 1377 10 is_stmt 1             @ ../Middlewares/CMSIS/DSP/Src/MatrixFunctions/arm_mat_cmplx_mult_f32.c:1377:10
	ldr	r0, [sp, #16]
	adds	r0, #1
	str	r0, [sp, #16]
	.loc	6 1378 16                       @ ../Middlewares/CMSIS/DSP/Src/MatrixFunctions/arm_mat_cmplx_mult_f32.c:1378:16
	ldr	r0, [sp, #84]
	.loc	6 1378 23 is_stmt 0             @ ../Middlewares/CMSIS/DSP/Src/MatrixFunctions/arm_mat_cmplx_mult_f32.c:1378:23
	ldr	r0, [r0, #4]
	.loc	6 1378 36                       @ ../Middlewares/CMSIS/DSP/Src/MatrixFunctions/arm_mat_cmplx_mult_f32.c:1378:36
	ldr	r1, [sp, #16]
	.loc	6 1378 29                       @ ../Middlewares/CMSIS/DSP/Src/MatrixFunctions/arm_mat_cmplx_mult_f32.c:1378:29
	add.w	r0, r0, r1, lsl #3
	.loc	6 1378 14                       @ ../Middlewares/CMSIS/DSP/Src/MatrixFunctions/arm_mat_cmplx_mult_f32.c:1378:14
	str	r0, [sp, #72]
	.loc	6 1381 12 is_stmt 1             @ ../Middlewares/CMSIS/DSP/Src/MatrixFunctions/arm_mat_cmplx_mult_f32.c:1381:12
	ldr	r0, [sp, #24]
	subs	r0, #1
	str	r0, [sp, #24]
	.loc	6 1383 7                        @ ../Middlewares/CMSIS/DSP/Src/MatrixFunctions/arm_mat_cmplx_mult_f32.c:1383:7
	b	.LBB3_10
.Ltmp36:
.LBB3_10:                               @   in Loop: Header=BB3_6 Depth=2
	.loc	6 1383 16 is_stmt 0             @ ../Middlewares/CMSIS/DSP/Src/MatrixFunctions/arm_mat_cmplx_mult_f32.c:1383:16
	ldr	r0, [sp, #24]
.Ltmp37:
	.loc	6 1383 7                        @ ../Middlewares/CMSIS/DSP/Src/MatrixFunctions/arm_mat_cmplx_mult_f32.c:1383:7
	cmp	r0, #0
	bne	.LBB3_6
	b	.LBB3_11
.Ltmp38:
.LBB3_11:                               @   in Loop: Header=BB3_5 Depth=1
	.loc	6 1386 11 is_stmt 1             @ ../Middlewares/CMSIS/DSP/Src/MatrixFunctions/arm_mat_cmplx_mult_f32.c:1386:11
	ldr	r0, [sp, #20]
	.loc	6 1386 15 is_stmt 0             @ ../Middlewares/CMSIS/DSP/Src/MatrixFunctions/arm_mat_cmplx_mult_f32.c:1386:15
	ldrh.w	r1, [sp, #56]
	.loc	6 1386 13                       @ ../Middlewares/CMSIS/DSP/Src/MatrixFunctions/arm_mat_cmplx_mult_f32.c:1386:13
	add	r0, r1
	.loc	6 1386 9                        @ ../Middlewares/CMSIS/DSP/Src/MatrixFunctions/arm_mat_cmplx_mult_f32.c:1386:9
	str	r0, [sp, #20]
	.loc	6 1387 14 is_stmt 1             @ ../Middlewares/CMSIS/DSP/Src/MatrixFunctions/arm_mat_cmplx_mult_f32.c:1387:14
	ldr	r0, [sp, #68]
	.loc	6 1387 25 is_stmt 0             @ ../Middlewares/CMSIS/DSP/Src/MatrixFunctions/arm_mat_cmplx_mult_f32.c:1387:25
	ldrh.w	r1, [sp, #54]
	.loc	6 1387 19                       @ ../Middlewares/CMSIS/DSP/Src/MatrixFunctions/arm_mat_cmplx_mult_f32.c:1387:19
	add.w	r0, r0, r1, lsl #3
	.loc	6 1387 12                       @ ../Middlewares/CMSIS/DSP/Src/MatrixFunctions/arm_mat_cmplx_mult_f32.c:1387:12
	str	r0, [sp, #68]
	.loc	6 1390 10 is_stmt 1             @ ../Middlewares/CMSIS/DSP/Src/MatrixFunctions/arm_mat_cmplx_mult_f32.c:1390:10
	ldr	r0, [sp, #12]
	subs	r0, #1
	str	r0, [sp, #12]
	.loc	6 1392 5                        @ ../Middlewares/CMSIS/DSP/Src/MatrixFunctions/arm_mat_cmplx_mult_f32.c:1392:5
	b	.LBB3_12
.Ltmp39:
.LBB3_12:                               @   in Loop: Header=BB3_5 Depth=1
	.loc	6 1392 14 is_stmt 0             @ ../Middlewares/CMSIS/DSP/Src/MatrixFunctions/arm_mat_cmplx_mult_f32.c:1392:14
	ldr	r0, [sp, #12]
.Ltmp40:
	.loc	6 1392 5                        @ ../Middlewares/CMSIS/DSP/Src/MatrixFunctions/arm_mat_cmplx_mult_f32.c:1392:5
	cmp	r0, #0
	bne.w	.LBB3_5
	b	.LBB3_13
.Ltmp41:
.LBB3_13:
	.loc	6 0 5                           @ ../Middlewares/CMSIS/DSP/Src/MatrixFunctions/arm_mat_cmplx_mult_f32.c:0:5
	movs	r0, #0
	.loc	6 1395 12 is_stmt 1             @ ../Middlewares/CMSIS/DSP/Src/MatrixFunctions/arm_mat_cmplx_mult_f32.c:1395:12
	strb.w	r0, [sp, #7]
	b	.LBB3_14
.Ltmp42:
.LBB3_14:
	.loc	6 1399 11                       @ ../Middlewares/CMSIS/DSP/Src/MatrixFunctions/arm_mat_cmplx_mult_f32.c:1399:11
	ldrsb.w	r0, [sp, #7]
	.loc	6 1399 3 is_stmt 0              @ ../Middlewares/CMSIS/DSP/Src/MatrixFunctions/arm_mat_cmplx_mult_f32.c:1399:3
	add	sp, #92
	bx	lr
.Ltmp43:
.Lfunc_end3:
	.size	arm_mat_cmplx_mult_f32, .Lfunc_end3-arm_mat_cmplx_mult_f32
	.cfi_endproc
	.cantunwind
	.fnend
                                        @ -- End function
	.section	.text.arm_mat_cmplx_mult_q15,"ax",%progbits
	.hidden	arm_mat_cmplx_mult_q15          @ -- Begin function arm_mat_cmplx_mult_q15
	.globl	arm_mat_cmplx_mult_q15
	.p2align	2
	.type	arm_mat_cmplx_mult_q15,%function
	.code	16                              @ @arm_mat_cmplx_mult_q15
	.thumb_func
arm_mat_cmplx_mult_q15:
.Lfunc_begin4:
	.file	7 "D:\\horizon\\Horizon_Infantry (2)\\MDK-ARM" "../Middlewares/CMSIS/DSP/Src/MatrixFunctions/arm_mat_cmplx_mult_q15.c"
	.loc	7 320 0 is_stmt 1               @ ../Middlewares/CMSIS/DSP/Src/MatrixFunctions/arm_mat_cmplx_mult_q15.c:320:0
	.fnstart
	.cfi_startproc
@ %bb.0:
	.pad	#168
	sub	sp, #168
	.cfi_def_cfa_offset 168
	str	r0, [sp, #96]
	str	r1, [sp, #92]
	str	r2, [sp, #88]
	str	r3, [sp, #84]
.Ltmp44:
	.loc	7 321 25 prologue_end           @ ../Middlewares/CMSIS/DSP/Src/MatrixFunctions/arm_mat_cmplx_mult_q15.c:321:25
	ldr	r0, [sp, #84]
	.loc	7 321 16 is_stmt 0              @ ../Middlewares/CMSIS/DSP/Src/MatrixFunctions/arm_mat_cmplx_mult_q15.c:321:16
	str	r0, [sp, #80]
	.loc	7 322 23 is_stmt 1              @ ../Middlewares/CMSIS/DSP/Src/MatrixFunctions/arm_mat_cmplx_mult_q15.c:322:23
	ldr	r0, [sp, #96]
	.loc	7 322 30 is_stmt 0              @ ../Middlewares/CMSIS/DSP/Src/MatrixFunctions/arm_mat_cmplx_mult_q15.c:322:30
	ldr	r0, [r0, #4]
	.loc	7 322 16                        @ ../Middlewares/CMSIS/DSP/Src/MatrixFunctions/arm_mat_cmplx_mult_q15.c:322:16
	str	r0, [sp, #76]
	.loc	7 323 23 is_stmt 1              @ ../Middlewares/CMSIS/DSP/Src/MatrixFunctions/arm_mat_cmplx_mult_q15.c:323:23
	ldr	r0, [sp, #92]
	.loc	7 323 30 is_stmt 0              @ ../Middlewares/CMSIS/DSP/Src/MatrixFunctions/arm_mat_cmplx_mult_q15.c:323:30
	ldr	r0, [r0, #4]
	.loc	7 323 16                        @ ../Middlewares/CMSIS/DSP/Src/MatrixFunctions/arm_mat_cmplx_mult_q15.c:323:16
	str	r0, [sp, #72]
	.loc	7 325 29 is_stmt 1              @ ../Middlewares/CMSIS/DSP/Src/MatrixFunctions/arm_mat_cmplx_mult_q15.c:325:29
	ldr	r0, [sp, #96]
	.loc	7 325 36 is_stmt 0              @ ../Middlewares/CMSIS/DSP/Src/MatrixFunctions/arm_mat_cmplx_mult_q15.c:325:36
	ldrh	r0, [r0]
	.loc	7 325 18                        @ ../Middlewares/CMSIS/DSP/Src/MatrixFunctions/arm_mat_cmplx_mult_q15.c:325:18
	strh.w	r0, [sp, #66]
	.loc	7 326 29 is_stmt 1              @ ../Middlewares/CMSIS/DSP/Src/MatrixFunctions/arm_mat_cmplx_mult_q15.c:326:29
	ldr	r0, [sp, #92]
	.loc	7 326 36 is_stmt 0              @ ../Middlewares/CMSIS/DSP/Src/MatrixFunctions/arm_mat_cmplx_mult_q15.c:326:36
	ldrh	r0, [r0, #2]
	.loc	7 326 18                        @ ../Middlewares/CMSIS/DSP/Src/MatrixFunctions/arm_mat_cmplx_mult_q15.c:326:18
	strh.w	r0, [sp, #64]
	.loc	7 327 29 is_stmt 1              @ ../Middlewares/CMSIS/DSP/Src/MatrixFunctions/arm_mat_cmplx_mult_q15.c:327:29
	ldr	r0, [sp, #96]
	.loc	7 327 36 is_stmt 0              @ ../Middlewares/CMSIS/DSP/Src/MatrixFunctions/arm_mat_cmplx_mult_q15.c:327:36
	ldrh	r0, [r0, #2]
	.loc	7 327 18                        @ ../Middlewares/CMSIS/DSP/Src/MatrixFunctions/arm_mat_cmplx_mult_q15.c:327:18
	strh.w	r0, [sp, #62]
	.loc	7 328 29 is_stmt 1              @ ../Middlewares/CMSIS/DSP/Src/MatrixFunctions/arm_mat_cmplx_mult_q15.c:328:29
	ldr	r0, [sp, #92]
	.loc	7 328 36 is_stmt 0              @ ../Middlewares/CMSIS/DSP/Src/MatrixFunctions/arm_mat_cmplx_mult_q15.c:328:36
	ldrh	r0, [r0]
	.loc	7 328 18                        @ ../Middlewares/CMSIS/DSP/Src/MatrixFunctions/arm_mat_cmplx_mult_q15.c:328:18
	strh.w	r0, [sp, #60]
	movs	r0, #0
	.loc	7 330 23 is_stmt 1              @ ../Middlewares/CMSIS/DSP/Src/MatrixFunctions/arm_mat_cmplx_mult_q15.c:330:23
	str	r0, [sp, #32]
	.loc	7 330 37 is_stmt 0              @ ../Middlewares/CMSIS/DSP/Src/MatrixFunctions/arm_mat_cmplx_mult_q15.c:330:37
	ldrh.w	r0, [sp, #60]
	.loc	7 330 31                        @ ../Middlewares/CMSIS/DSP/Src/MatrixFunctions/arm_mat_cmplx_mult_q15.c:330:31
	str	r0, [sp, #28]
.Ltmp45:
	.loc	7 343 8 is_stmt 1               @ ../Middlewares/CMSIS/DSP/Src/MatrixFunctions/arm_mat_cmplx_mult_q15.c:343:8
	ldr	r0, [sp, #96]
	.loc	7 343 15 is_stmt 0              @ ../Middlewares/CMSIS/DSP/Src/MatrixFunctions/arm_mat_cmplx_mult_q15.c:343:15
	ldrh	r0, [r0, #2]
	.loc	7 343 26                        @ ../Middlewares/CMSIS/DSP/Src/MatrixFunctions/arm_mat_cmplx_mult_q15.c:343:26
	ldr	r1, [sp, #92]
	.loc	7 343 33                        @ ../Middlewares/CMSIS/DSP/Src/MatrixFunctions/arm_mat_cmplx_mult_q15.c:343:33
	ldrh	r1, [r1]
	.loc	7 343 42                        @ ../Middlewares/CMSIS/DSP/Src/MatrixFunctions/arm_mat_cmplx_mult_q15.c:343:42
	cmp	r0, r1
	bne	.LBB4_3
	b	.LBB4_1
.LBB4_1:
	.loc	7 344 8 is_stmt 1               @ ../Middlewares/CMSIS/DSP/Src/MatrixFunctions/arm_mat_cmplx_mult_q15.c:344:8
	ldr	r0, [sp, #96]
	.loc	7 344 15 is_stmt 0              @ ../Middlewares/CMSIS/DSP/Src/MatrixFunctions/arm_mat_cmplx_mult_q15.c:344:15
	ldrh	r0, [r0]
	.loc	7 344 26                        @ ../Middlewares/CMSIS/DSP/Src/MatrixFunctions/arm_mat_cmplx_mult_q15.c:344:26
	ldr	r1, [sp, #88]
	.loc	7 344 32                        @ ../Middlewares/CMSIS/DSP/Src/MatrixFunctions/arm_mat_cmplx_mult_q15.c:344:32
	ldrh	r1, [r1]
	.loc	7 344 41                        @ ../Middlewares/CMSIS/DSP/Src/MatrixFunctions/arm_mat_cmplx_mult_q15.c:344:41
	cmp	r0, r1
	bne	.LBB4_3
	b	.LBB4_2
.LBB4_2:
	.loc	7 345 8 is_stmt 1               @ ../Middlewares/CMSIS/DSP/Src/MatrixFunctions/arm_mat_cmplx_mult_q15.c:345:8
	ldr	r0, [sp, #92]
	.loc	7 345 15 is_stmt 0              @ ../Middlewares/CMSIS/DSP/Src/MatrixFunctions/arm_mat_cmplx_mult_q15.c:345:15
	ldrh	r0, [r0, #2]
	.loc	7 345 26                        @ ../Middlewares/CMSIS/DSP/Src/MatrixFunctions/arm_mat_cmplx_mult_q15.c:345:26
	ldr	r1, [sp, #88]
	.loc	7 345 32                        @ ../Middlewares/CMSIS/DSP/Src/MatrixFunctions/arm_mat_cmplx_mult_q15.c:345:32
	ldrh	r1, [r1, #2]
.Ltmp46:
	.loc	7 343 7 is_stmt 1               @ ../Middlewares/CMSIS/DSP/Src/MatrixFunctions/arm_mat_cmplx_mult_q15.c:343:7
	cmp	r0, r1
	beq	.LBB4_4
	b	.LBB4_3
.LBB4_3:
	.loc	7 0 7 is_stmt 0                 @ ../Middlewares/CMSIS/DSP/Src/MatrixFunctions/arm_mat_cmplx_mult_q15.c:0:7
	movs	r0, #253
.Ltmp47:
	.loc	7 348 12 is_stmt 1              @ ../Middlewares/CMSIS/DSP/Src/MatrixFunctions/arm_mat_cmplx_mult_q15.c:348:12
	strb.w	r0, [sp, #23]
	.loc	7 349 3                         @ ../Middlewares/CMSIS/DSP/Src/MatrixFunctions/arm_mat_cmplx_mult_q15.c:349:3
	b	.LBB4_22
.Ltmp48:
.LBB4_4:
	.loc	7 356 5                         @ ../Middlewares/CMSIS/DSP/Src/MatrixFunctions/arm_mat_cmplx_mult_q15.c:356:5
	b	.LBB4_5
.LBB4_5:                                @ =>This Loop Header: Depth=1
                                        @     Child Loop BB4_6 Depth 2
.Ltmp49:
	.loc	7 359 12                        @ ../Middlewares/CMSIS/DSP/Src/MatrixFunctions/arm_mat_cmplx_mult_q15.c:359:12
	ldr	r0, [sp, #80]
	.loc	7 359 21 is_stmt 0              @ ../Middlewares/CMSIS/DSP/Src/MatrixFunctions/arm_mat_cmplx_mult_q15.c:359:21
	ldr	r1, [sp, #32]
	.loc	7 359 19                        @ ../Middlewares/CMSIS/DSP/Src/MatrixFunctions/arm_mat_cmplx_mult_q15.c:359:19
	add.w	r0, r0, r1, lsl #1
	.loc	7 359 10                        @ ../Middlewares/CMSIS/DSP/Src/MatrixFunctions/arm_mat_cmplx_mult_q15.c:359:10
	str	r0, [sp, #68]
	.loc	7 405 15 is_stmt 1              @ ../Middlewares/CMSIS/DSP/Src/MatrixFunctions/arm_mat_cmplx_mult_q15.c:405:15
	ldrh.w	r0, [sp, #64]
	.loc	7 405 13 is_stmt 0              @ ../Middlewares/CMSIS/DSP/Src/MatrixFunctions/arm_mat_cmplx_mult_q15.c:405:13
	str	r0, [sp, #36]
	.loc	7 409 7 is_stmt 1               @ ../Middlewares/CMSIS/DSP/Src/MatrixFunctions/arm_mat_cmplx_mult_q15.c:409:7
	b	.LBB4_6
.LBB4_6:                                @   Parent Loop BB4_5 Depth=1
                                        @ =>  This Inner Loop Header: Depth=2
	.loc	7 409 14 is_stmt 0              @ ../Middlewares/CMSIS/DSP/Src/MatrixFunctions/arm_mat_cmplx_mult_q15.c:409:14
	ldr	r0, [sp, #36]
	.loc	7 409 7                         @ ../Middlewares/CMSIS/DSP/Src/MatrixFunctions/arm_mat_cmplx_mult_q15.c:409:7
	cbz	r0, .LBB4_8
	b	.LBB4_7
.LBB4_7:                                @   in Loop: Header=BB4_6 Depth=2
.Ltmp50:
	.loc	7 412 22 is_stmt 1              @ ../Middlewares/CMSIS/DSP/Src/MatrixFunctions/arm_mat_cmplx_mult_q15.c:412:22
	ldr	r1, [sp, #68]
	.loc	7 412 47 is_stmt 0              @ ../Middlewares/CMSIS/DSP/Src/MatrixFunctions/arm_mat_cmplx_mult_q15.c:412:47
	ldr	r0, [sp, #72]
	adds	r2, r0, #4
	str	r2, [sp, #72]
	str	r0, [sp, #164]
.Ltmp51:
	.file	8 "D:\\horizon\\Horizon_Infantry (2)\\MDK-ARM" "../Middlewares/CMSIS/DSP/Inc\\arm_math_memory.h"
	.loc	8 82 17 is_stmt 1               @ ../Middlewares/CMSIS/DSP/Inc\arm_math_memory.h:82:17
	ldr	r0, [sp, #164]
	.loc	8 82 3 is_stmt 0                @ ../Middlewares/CMSIS/DSP/Inc\arm_math_memory.h:82:3
	ldr	r0, [r0]
	str	r0, [sp, #160]
	.loc	8 87 11 is_stmt 1               @ ../Middlewares/CMSIS/DSP/Inc\arm_math_memory.h:87:11
	ldr	r0, [sp, #160]
	str	r1, [sp, #108]
	str	r0, [sp, #104]
.Ltmp52:
	.loc	8 135 15                        @ ../Middlewares/CMSIS/DSP/Inc\arm_math_memory.h:135:15
	ldr	r0, [sp, #104]
	.loc	8 135 9 is_stmt 0               @ ../Middlewares/CMSIS/DSP/Inc\arm_math_memory.h:135:9
	str	r0, [sp, #100]
	.loc	8 138 11 is_stmt 1              @ ../Middlewares/CMSIS/DSP/Inc\arm_math_memory.h:138:11
	ldr	r1, [sp, #108]
	.loc	8 138 3 is_stmt 0               @ ../Middlewares/CMSIS/DSP/Inc\arm_math_memory.h:138:3
	ldr	r0, [sp, #100]
	str	r0, [r1]
.Ltmp53:
	.loc	7 415 15 is_stmt 1              @ ../Middlewares/CMSIS/DSP/Src/MatrixFunctions/arm_mat_cmplx_mult_q15.c:415:15
	ldrh.w	r1, [sp, #60]
	.loc	7 415 12 is_stmt 0              @ ../Middlewares/CMSIS/DSP/Src/MatrixFunctions/arm_mat_cmplx_mult_q15.c:415:12
	ldr	r0, [sp, #68]
	add.w	r0, r0, r1, lsl #2
	str	r0, [sp, #68]
	.loc	7 418 12 is_stmt 1              @ ../Middlewares/CMSIS/DSP/Src/MatrixFunctions/arm_mat_cmplx_mult_q15.c:418:12
	ldr	r0, [sp, #36]
	subs	r0, #1
	str	r0, [sp, #36]
.Ltmp54:
	.loc	7 409 7                         @ ../Middlewares/CMSIS/DSP/Src/MatrixFunctions/arm_mat_cmplx_mult_q15.c:409:7
	b	.LBB4_6
.LBB4_8:                                @   in Loop: Header=BB4_5 Depth=1
	.loc	7 421 11                        @ ../Middlewares/CMSIS/DSP/Src/MatrixFunctions/arm_mat_cmplx_mult_q15.c:421:11
	ldr	r0, [sp, #32]
	.loc	7 421 13 is_stmt 0              @ ../Middlewares/CMSIS/DSP/Src/MatrixFunctions/arm_mat_cmplx_mult_q15.c:421:13
	adds	r0, #2
	.loc	7 421 9                         @ ../Middlewares/CMSIS/DSP/Src/MatrixFunctions/arm_mat_cmplx_mult_q15.c:421:9
	str	r0, [sp, #32]
	.loc	7 424 10 is_stmt 1              @ ../Middlewares/CMSIS/DSP/Src/MatrixFunctions/arm_mat_cmplx_mult_q15.c:424:10
	ldr	r0, [sp, #28]
	subs	r0, #1
	str	r0, [sp, #28]
	.loc	7 426 5                         @ ../Middlewares/CMSIS/DSP/Src/MatrixFunctions/arm_mat_cmplx_mult_q15.c:426:5
	b	.LBB4_9
.Ltmp55:
.LBB4_9:                                @   in Loop: Header=BB4_5 Depth=1
	.loc	7 426 14 is_stmt 0              @ ../Middlewares/CMSIS/DSP/Src/MatrixFunctions/arm_mat_cmplx_mult_q15.c:426:14
	ldr	r0, [sp, #28]
.Ltmp56:
	.loc	7 426 5                         @ ../Middlewares/CMSIS/DSP/Src/MatrixFunctions/arm_mat_cmplx_mult_q15.c:426:5
	cmp	r0, #0
	bne	.LBB4_5
	b	.LBB4_10
.Ltmp57:
.LBB4_10:
	.loc	7 429 11 is_stmt 1              @ ../Middlewares/CMSIS/DSP/Src/MatrixFunctions/arm_mat_cmplx_mult_q15.c:429:11
	ldrh.w	r0, [sp, #66]
	.loc	7 429 9 is_stmt 0               @ ../Middlewares/CMSIS/DSP/Src/MatrixFunctions/arm_mat_cmplx_mult_q15.c:429:9
	str	r0, [sp, #28]
	movs	r0, #0
	.loc	7 430 7 is_stmt 1               @ ../Middlewares/CMSIS/DSP/Src/MatrixFunctions/arm_mat_cmplx_mult_q15.c:430:7
	str	r0, [sp, #32]
	.loc	7 431 10                        @ ../Middlewares/CMSIS/DSP/Src/MatrixFunctions/arm_mat_cmplx_mult_q15.c:431:10
	ldr	r0, [sp, #88]
	.loc	7 431 16 is_stmt 0              @ ../Middlewares/CMSIS/DSP/Src/MatrixFunctions/arm_mat_cmplx_mult_q15.c:431:16
	ldr	r0, [r0, #4]
	.loc	7 431 8                         @ ../Middlewares/CMSIS/DSP/Src/MatrixFunctions/arm_mat_cmplx_mult_q15.c:431:8
	str	r0, [sp, #68]
	.loc	7 435 5 is_stmt 1               @ ../Middlewares/CMSIS/DSP/Src/MatrixFunctions/arm_mat_cmplx_mult_q15.c:435:5
	b	.LBB4_11
.LBB4_11:                               @ =>This Loop Header: Depth=1
                                        @     Child Loop BB4_12 Depth 2
                                        @       Child Loop BB4_13 Depth 3
.Ltmp58:
	.loc	7 438 13                        @ ../Middlewares/CMSIS/DSP/Src/MatrixFunctions/arm_mat_cmplx_mult_q15.c:438:13
	ldrh.w	r0, [sp, #64]
	.loc	7 438 11 is_stmt 0              @ ../Middlewares/CMSIS/DSP/Src/MatrixFunctions/arm_mat_cmplx_mult_q15.c:438:11
	str	r0, [sp, #36]
	.loc	7 441 14 is_stmt 1              @ ../Middlewares/CMSIS/DSP/Src/MatrixFunctions/arm_mat_cmplx_mult_q15.c:441:14
	ldr	r0, [sp, #80]
	.loc	7 441 12 is_stmt 0              @ ../Middlewares/CMSIS/DSP/Src/MatrixFunctions/arm_mat_cmplx_mult_q15.c:441:12
	str	r0, [sp, #72]
	.loc	7 444 7 is_stmt 1               @ ../Middlewares/CMSIS/DSP/Src/MatrixFunctions/arm_mat_cmplx_mult_q15.c:444:7
	b	.LBB4_12
.LBB4_12:                               @   Parent Loop BB4_11 Depth=1
                                        @ =>  This Loop Header: Depth=2
                                        @       Child Loop BB4_13 Depth 3
	.loc	7 0 7 is_stmt 0                 @ ../Middlewares/CMSIS/DSP/Src/MatrixFunctions/arm_mat_cmplx_mult_q15.c:0:7
	movs	r0, #0
.Ltmp59:
	.loc	7 447 17 is_stmt 1              @ ../Middlewares/CMSIS/DSP/Src/MatrixFunctions/arm_mat_cmplx_mult_q15.c:447:17
	str	r0, [sp, #52]
	str	r0, [sp, #48]
	.loc	7 448 17                        @ ../Middlewares/CMSIS/DSP/Src/MatrixFunctions/arm_mat_cmplx_mult_q15.c:448:17
	str	r0, [sp, #44]
	str	r0, [sp, #40]
	.loc	7 451 16                        @ ../Middlewares/CMSIS/DSP/Src/MatrixFunctions/arm_mat_cmplx_mult_q15.c:451:16
	ldr	r0, [sp, #96]
	.loc	7 451 23 is_stmt 0              @ ../Middlewares/CMSIS/DSP/Src/MatrixFunctions/arm_mat_cmplx_mult_q15.c:451:23
	ldr	r0, [r0, #4]
	.loc	7 451 31                        @ ../Middlewares/CMSIS/DSP/Src/MatrixFunctions/arm_mat_cmplx_mult_q15.c:451:31
	ldr	r1, [sp, #32]
	.loc	7 451 29                        @ ../Middlewares/CMSIS/DSP/Src/MatrixFunctions/arm_mat_cmplx_mult_q15.c:451:29
	add.w	r0, r0, r1, lsl #2
	.loc	7 451 14                        @ ../Middlewares/CMSIS/DSP/Src/MatrixFunctions/arm_mat_cmplx_mult_q15.c:451:14
	str	r0, [sp, #76]
	.loc	7 454 18 is_stmt 1              @ ../Middlewares/CMSIS/DSP/Src/MatrixFunctions/arm_mat_cmplx_mult_q15.c:454:18
	ldrh.w	r0, [sp, #62]
	.loc	7 454 27 is_stmt 0              @ ../Middlewares/CMSIS/DSP/Src/MatrixFunctions/arm_mat_cmplx_mult_q15.c:454:27
	lsrs	r0, r0, #1
	.loc	7 454 16                        @ ../Middlewares/CMSIS/DSP/Src/MatrixFunctions/arm_mat_cmplx_mult_q15.c:454:16
	str	r0, [sp, #24]
	.loc	7 457 9 is_stmt 1               @ ../Middlewares/CMSIS/DSP/Src/MatrixFunctions/arm_mat_cmplx_mult_q15.c:457:9
	b	.LBB4_13
.LBB4_13:                               @   Parent Loop BB4_11 Depth=1
                                        @     Parent Loop BB4_12 Depth=2
                                        @ =>    This Inner Loop Header: Depth=3
	.loc	7 457 16 is_stmt 0              @ ../Middlewares/CMSIS/DSP/Src/MatrixFunctions/arm_mat_cmplx_mult_q15.c:457:16
	ldr	r0, [sp, #24]
	.loc	7 457 9                         @ ../Middlewares/CMSIS/DSP/Src/MatrixFunctions/arm_mat_cmplx_mult_q15.c:457:9
	cmp	r0, #0
	beq	.LBB4_15
	b	.LBB4_14
.LBB4_14:                               @   in Loop: Header=BB4_13 Depth=3
.Ltmp60:
	.loc	7 464 43 is_stmt 1              @ ../Middlewares/CMSIS/DSP/Src/MatrixFunctions/arm_mat_cmplx_mult_q15.c:464:43
	ldr	r0, [sp, #76]
	adds	r1, r0, #4
	str	r1, [sp, #76]
	str	r0, [sp, #156]
.Ltmp61:
	.loc	8 82 17                         @ ../Middlewares/CMSIS/DSP/Inc\arm_math_memory.h:82:17
	ldr	r0, [sp, #156]
	.loc	8 82 3 is_stmt 0                @ ../Middlewares/CMSIS/DSP/Inc\arm_math_memory.h:82:3
	ldr	r0, [r0]
	str	r0, [sp, #152]
	.loc	8 87 11 is_stmt 1               @ ../Middlewares/CMSIS/DSP/Inc\arm_math_memory.h:87:11
	ldr	r0, [sp, #152]
.Ltmp62:
	.loc	7 464 20                        @ ../Middlewares/CMSIS/DSP/Src/MatrixFunctions/arm_mat_cmplx_mult_q15.c:464:20
	str	r0, [sp, #8]
	.loc	7 465 43                        @ ../Middlewares/CMSIS/DSP/Src/MatrixFunctions/arm_mat_cmplx_mult_q15.c:465:43
	ldr	r0, [sp, #72]
	adds	r1, r0, #4
	str	r1, [sp, #72]
	str	r0, [sp, #148]
.Ltmp63:
	.loc	8 82 17                         @ ../Middlewares/CMSIS/DSP/Inc\arm_math_memory.h:82:17
	ldr	r0, [sp, #148]
	.loc	8 82 3 is_stmt 0                @ ../Middlewares/CMSIS/DSP/Inc\arm_math_memory.h:82:3
	ldr	r0, [r0]
	str	r0, [sp, #144]
	.loc	8 87 11 is_stmt 1               @ ../Middlewares/CMSIS/DSP/Inc\arm_math_memory.h:87:11
	ldr	r0, [sp, #144]
.Ltmp64:
	.loc	7 465 20                        @ ../Middlewares/CMSIS/DSP/Src/MatrixFunctions/arm_mat_cmplx_mult_q15.c:465:20
	str	r0, [sp, #4]
	.loc	7 471 39                        @ ../Middlewares/CMSIS/DSP/Src/MatrixFunctions/arm_mat_cmplx_mult_q15.c:471:39
	ldr	r0, [sp, #8]
	.loc	7 471 49 is_stmt 0              @ ../Middlewares/CMSIS/DSP/Src/MatrixFunctions/arm_mat_cmplx_mult_q15.c:471:49
	ldr	r1, [sp, #4]
	.loc	7 471 19                        @ ../Middlewares/CMSIS/DSP/Src/MatrixFunctions/arm_mat_cmplx_mult_q15.c:471:19
	smusd	r0, r0, r1
	.loc	7 471 17                        @ ../Middlewares/CMSIS/DSP/Src/MatrixFunctions/arm_mat_cmplx_mult_q15.c:471:17
	str	r0, [sp, #16]
	.loc	7 473 40 is_stmt 1              @ ../Middlewares/CMSIS/DSP/Src/MatrixFunctions/arm_mat_cmplx_mult_q15.c:473:40
	ldr	r0, [sp, #8]
	.loc	7 473 50 is_stmt 0              @ ../Middlewares/CMSIS/DSP/Src/MatrixFunctions/arm_mat_cmplx_mult_q15.c:473:50
	ldr	r1, [sp, #4]
	.loc	7 473 19                        @ ../Middlewares/CMSIS/DSP/Src/MatrixFunctions/arm_mat_cmplx_mult_q15.c:473:19
	smuadx	r0, r0, r1
	.loc	7 473 17                        @ ../Middlewares/CMSIS/DSP/Src/MatrixFunctions/arm_mat_cmplx_mult_q15.c:473:17
	str	r0, [sp, #12]
	.loc	7 474 30 is_stmt 1              @ ../Middlewares/CMSIS/DSP/Src/MatrixFunctions/arm_mat_cmplx_mult_q15.c:474:30
	ldr	r2, [sp, #16]
	.loc	7 474 19 is_stmt 0              @ ../Middlewares/CMSIS/DSP/Src/MatrixFunctions/arm_mat_cmplx_mult_q15.c:474:19
	ldr	r1, [sp, #48]
	ldr	r0, [sp, #52]
	adds	r1, r1, r2
	adc.w	r0, r0, r2, asr #31
	str	r1, [sp, #48]
	str	r0, [sp, #52]
	.loc	7 475 30 is_stmt 1              @ ../Middlewares/CMSIS/DSP/Src/MatrixFunctions/arm_mat_cmplx_mult_q15.c:475:30
	ldr	r2, [sp, #12]
	.loc	7 475 19 is_stmt 0              @ ../Middlewares/CMSIS/DSP/Src/MatrixFunctions/arm_mat_cmplx_mult_q15.c:475:19
	ldr	r1, [sp, #40]
	ldr	r0, [sp, #44]
	adds	r1, r1, r2
	adc.w	r0, r0, r2, asr #31
	str	r1, [sp, #40]
	str	r0, [sp, #44]
	.loc	7 478 43 is_stmt 1              @ ../Middlewares/CMSIS/DSP/Src/MatrixFunctions/arm_mat_cmplx_mult_q15.c:478:43
	ldr	r0, [sp, #76]
	adds	r1, r0, #4
	str	r1, [sp, #76]
	str	r0, [sp, #140]
.Ltmp65:
	.loc	8 82 17                         @ ../Middlewares/CMSIS/DSP/Inc\arm_math_memory.h:82:17
	ldr	r0, [sp, #140]
	.loc	8 82 3 is_stmt 0                @ ../Middlewares/CMSIS/DSP/Inc\arm_math_memory.h:82:3
	ldr	r0, [r0]
	str	r0, [sp, #136]
	.loc	8 87 11 is_stmt 1               @ ../Middlewares/CMSIS/DSP/Inc\arm_math_memory.h:87:11
	ldr	r0, [sp, #136]
.Ltmp66:
	.loc	7 478 20                        @ ../Middlewares/CMSIS/DSP/Src/MatrixFunctions/arm_mat_cmplx_mult_q15.c:478:20
	str	r0, [sp, #8]
	.loc	7 479 43                        @ ../Middlewares/CMSIS/DSP/Src/MatrixFunctions/arm_mat_cmplx_mult_q15.c:479:43
	ldr	r0, [sp, #72]
	adds	r1, r0, #4
	str	r1, [sp, #72]
	str	r0, [sp, #132]
.Ltmp67:
	.loc	8 82 17                         @ ../Middlewares/CMSIS/DSP/Inc\arm_math_memory.h:82:17
	ldr	r0, [sp, #132]
	.loc	8 82 3 is_stmt 0                @ ../Middlewares/CMSIS/DSP/Inc\arm_math_memory.h:82:3
	ldr	r0, [r0]
	str	r0, [sp, #128]
	.loc	8 87 11 is_stmt 1               @ ../Middlewares/CMSIS/DSP/Inc\arm_math_memory.h:87:11
	ldr	r0, [sp, #128]
.Ltmp68:
	.loc	7 479 20                        @ ../Middlewares/CMSIS/DSP/Src/MatrixFunctions/arm_mat_cmplx_mult_q15.c:479:20
	str	r0, [sp, #4]
	.loc	7 485 39                        @ ../Middlewares/CMSIS/DSP/Src/MatrixFunctions/arm_mat_cmplx_mult_q15.c:485:39
	ldr	r0, [sp, #8]
	.loc	7 485 49 is_stmt 0              @ ../Middlewares/CMSIS/DSP/Src/MatrixFunctions/arm_mat_cmplx_mult_q15.c:485:49
	ldr	r1, [sp, #4]
	.loc	7 485 19                        @ ../Middlewares/CMSIS/DSP/Src/MatrixFunctions/arm_mat_cmplx_mult_q15.c:485:19
	smusd	r0, r0, r1
	.loc	7 485 17                        @ ../Middlewares/CMSIS/DSP/Src/MatrixFunctions/arm_mat_cmplx_mult_q15.c:485:17
	str	r0, [sp, #16]
	.loc	7 487 40 is_stmt 1              @ ../Middlewares/CMSIS/DSP/Src/MatrixFunctions/arm_mat_cmplx_mult_q15.c:487:40
	ldr	r0, [sp, #8]
	.loc	7 487 50 is_stmt 0              @ ../Middlewares/CMSIS/DSP/Src/MatrixFunctions/arm_mat_cmplx_mult_q15.c:487:50
	ldr	r1, [sp, #4]
	.loc	7 487 19                        @ ../Middlewares/CMSIS/DSP/Src/MatrixFunctions/arm_mat_cmplx_mult_q15.c:487:19
	smuadx	r0, r0, r1
	.loc	7 487 17                        @ ../Middlewares/CMSIS/DSP/Src/MatrixFunctions/arm_mat_cmplx_mult_q15.c:487:17
	str	r0, [sp, #12]
	.loc	7 488 30 is_stmt 1              @ ../Middlewares/CMSIS/DSP/Src/MatrixFunctions/arm_mat_cmplx_mult_q15.c:488:30
	ldr	r2, [sp, #16]
	.loc	7 488 19 is_stmt 0              @ ../Middlewares/CMSIS/DSP/Src/MatrixFunctions/arm_mat_cmplx_mult_q15.c:488:19
	ldr	r1, [sp, #48]
	ldr	r0, [sp, #52]
	adds	r1, r1, r2
	adc.w	r0, r0, r2, asr #31
	str	r1, [sp, #48]
	str	r0, [sp, #52]
	.loc	7 489 30 is_stmt 1              @ ../Middlewares/CMSIS/DSP/Src/MatrixFunctions/arm_mat_cmplx_mult_q15.c:489:30
	ldr	r2, [sp, #12]
	.loc	7 489 19 is_stmt 0              @ ../Middlewares/CMSIS/DSP/Src/MatrixFunctions/arm_mat_cmplx_mult_q15.c:489:19
	ldr	r1, [sp, #40]
	ldr	r0, [sp, #44]
	adds	r1, r1, r2
	adc.w	r0, r0, r2, asr #31
	str	r1, [sp, #40]
	str	r0, [sp, #44]
	.loc	7 527 17 is_stmt 1              @ ../Middlewares/CMSIS/DSP/Src/MatrixFunctions/arm_mat_cmplx_mult_q15.c:527:17
	ldr	r0, [sp, #24]
	subs	r0, #1
	str	r0, [sp, #24]
.Ltmp69:
	.loc	7 457 9                         @ ../Middlewares/CMSIS/DSP/Src/MatrixFunctions/arm_mat_cmplx_mult_q15.c:457:9
	b	.LBB4_13
.LBB4_15:                               @   in Loop: Header=BB4_12 Depth=2
.Ltmp70:
	.loc	7 531 14                        @ ../Middlewares/CMSIS/DSP/Src/MatrixFunctions/arm_mat_cmplx_mult_q15.c:531:14
	ldrh.w	r0, [sp, #62]
.Ltmp71:
	.loc	7 531 13 is_stmt 0              @ ../Middlewares/CMSIS/DSP/Src/MatrixFunctions/arm_mat_cmplx_mult_q15.c:531:13
	lsls	r0, r0, #31
	cbz	r0, .LBB4_17
	b	.LBB4_16
.LBB4_16:                               @   in Loop: Header=BB4_12 Depth=2
.Ltmp72:
	.loc	7 537 43 is_stmt 1              @ ../Middlewares/CMSIS/DSP/Src/MatrixFunctions/arm_mat_cmplx_mult_q15.c:537:43
	ldr	r0, [sp, #76]
	adds	r1, r0, #4
	str	r1, [sp, #76]
	str	r0, [sp, #124]
.Ltmp73:
	.loc	8 82 17                         @ ../Middlewares/CMSIS/DSP/Inc\arm_math_memory.h:82:17
	ldr	r0, [sp, #124]
	.loc	8 82 3 is_stmt 0                @ ../Middlewares/CMSIS/DSP/Inc\arm_math_memory.h:82:3
	ldr	r0, [r0]
	str	r0, [sp, #120]
	.loc	8 87 11 is_stmt 1               @ ../Middlewares/CMSIS/DSP/Inc\arm_math_memory.h:87:11
	ldr	r0, [sp, #120]
.Ltmp74:
	.loc	7 537 20                        @ ../Middlewares/CMSIS/DSP/Src/MatrixFunctions/arm_mat_cmplx_mult_q15.c:537:20
	str	r0, [sp, #8]
	.loc	7 538 43                        @ ../Middlewares/CMSIS/DSP/Src/MatrixFunctions/arm_mat_cmplx_mult_q15.c:538:43
	ldr	r0, [sp, #72]
	adds	r1, r0, #4
	str	r1, [sp, #72]
	str	r0, [sp, #116]
.Ltmp75:
	.loc	8 82 17                         @ ../Middlewares/CMSIS/DSP/Inc\arm_math_memory.h:82:17
	ldr	r0, [sp, #116]
	.loc	8 82 3 is_stmt 0                @ ../Middlewares/CMSIS/DSP/Inc\arm_math_memory.h:82:3
	ldr	r0, [r0]
	str	r0, [sp, #112]
	.loc	8 87 11 is_stmt 1               @ ../Middlewares/CMSIS/DSP/Inc\arm_math_memory.h:87:11
	ldr	r0, [sp, #112]
.Ltmp76:
	.loc	7 538 20                        @ ../Middlewares/CMSIS/DSP/Src/MatrixFunctions/arm_mat_cmplx_mult_q15.c:538:20
	str	r0, [sp, #4]
	.loc	7 544 39                        @ ../Middlewares/CMSIS/DSP/Src/MatrixFunctions/arm_mat_cmplx_mult_q15.c:544:39
	ldr	r0, [sp, #8]
	.loc	7 544 49 is_stmt 0              @ ../Middlewares/CMSIS/DSP/Src/MatrixFunctions/arm_mat_cmplx_mult_q15.c:544:49
	ldr	r1, [sp, #4]
	.loc	7 544 19                        @ ../Middlewares/CMSIS/DSP/Src/MatrixFunctions/arm_mat_cmplx_mult_q15.c:544:19
	smusd	r0, r0, r1
	.loc	7 544 17                        @ ../Middlewares/CMSIS/DSP/Src/MatrixFunctions/arm_mat_cmplx_mult_q15.c:544:17
	str	r0, [sp, #16]
	.loc	7 546 40 is_stmt 1              @ ../Middlewares/CMSIS/DSP/Src/MatrixFunctions/arm_mat_cmplx_mult_q15.c:546:40
	ldr	r0, [sp, #8]
	.loc	7 546 50 is_stmt 0              @ ../Middlewares/CMSIS/DSP/Src/MatrixFunctions/arm_mat_cmplx_mult_q15.c:546:50
	ldr	r1, [sp, #4]
	.loc	7 546 19                        @ ../Middlewares/CMSIS/DSP/Src/MatrixFunctions/arm_mat_cmplx_mult_q15.c:546:19
	smuadx	r0, r0, r1
	.loc	7 546 17                        @ ../Middlewares/CMSIS/DSP/Src/MatrixFunctions/arm_mat_cmplx_mult_q15.c:546:17
	str	r0, [sp, #12]
	.loc	7 547 30 is_stmt 1              @ ../Middlewares/CMSIS/DSP/Src/MatrixFunctions/arm_mat_cmplx_mult_q15.c:547:30
	ldr	r2, [sp, #16]
	.loc	7 547 19 is_stmt 0              @ ../Middlewares/CMSIS/DSP/Src/MatrixFunctions/arm_mat_cmplx_mult_q15.c:547:19
	ldr	r1, [sp, #48]
	ldr	r0, [sp, #52]
	adds	r1, r1, r2
	adc.w	r0, r0, r2, asr #31
	str	r1, [sp, #48]
	str	r0, [sp, #52]
	.loc	7 548 30 is_stmt 1              @ ../Middlewares/CMSIS/DSP/Src/MatrixFunctions/arm_mat_cmplx_mult_q15.c:548:30
	ldr	r2, [sp, #12]
	.loc	7 548 19 is_stmt 0              @ ../Middlewares/CMSIS/DSP/Src/MatrixFunctions/arm_mat_cmplx_mult_q15.c:548:19
	ldr	r1, [sp, #40]
	ldr	r0, [sp, #44]
	adds	r1, r1, r2
	adc.w	r0, r0, r2, asr #31
	str	r1, [sp, #40]
	str	r0, [sp, #44]
	.loc	7 566 9 is_stmt 1               @ ../Middlewares/CMSIS/DSP/Src/MatrixFunctions/arm_mat_cmplx_mult_q15.c:566:9
	b	.LBB4_17
.Ltmp77:
.LBB4_17:                               @   in Loop: Header=BB4_12 Depth=2
	.loc	7 569 45                        @ ../Middlewares/CMSIS/DSP/Src/MatrixFunctions/arm_mat_cmplx_mult_q15.c:569:45
	ldr	r0, [sp, #48]
	ldr	r1, [sp, #52]
	.loc	7 569 53 is_stmt 0              @ ../Middlewares/CMSIS/DSP/Src/MatrixFunctions/arm_mat_cmplx_mult_q15.c:569:53
	lsrs	r0, r0, #15
	orr.w	r0, r0, r1, lsl #17
	.loc	7 569 26                        @ ../Middlewares/CMSIS/DSP/Src/MatrixFunctions/arm_mat_cmplx_mult_q15.c:569:26
	ssat	r0, #16, r0
	.loc	7 569 12                        @ ../Middlewares/CMSIS/DSP/Src/MatrixFunctions/arm_mat_cmplx_mult_q15.c:569:12
	ldr	r1, [sp, #68]
	adds	r2, r1, #2
	str	r2, [sp, #68]
	.loc	7 569 15                        @ ../Middlewares/CMSIS/DSP/Src/MatrixFunctions/arm_mat_cmplx_mult_q15.c:569:15
	strh	r0, [r1]
	.loc	7 570 45 is_stmt 1              @ ../Middlewares/CMSIS/DSP/Src/MatrixFunctions/arm_mat_cmplx_mult_q15.c:570:45
	ldr	r0, [sp, #40]
	ldr	r1, [sp, #44]
	.loc	7 570 53 is_stmt 0              @ ../Middlewares/CMSIS/DSP/Src/MatrixFunctions/arm_mat_cmplx_mult_q15.c:570:53
	lsrs	r0, r0, #15
	orr.w	r0, r0, r1, lsl #17
	.loc	7 570 26                        @ ../Middlewares/CMSIS/DSP/Src/MatrixFunctions/arm_mat_cmplx_mult_q15.c:570:26
	ssat	r0, #16, r0
	.loc	7 570 12                        @ ../Middlewares/CMSIS/DSP/Src/MatrixFunctions/arm_mat_cmplx_mult_q15.c:570:12
	ldr	r1, [sp, #68]
	adds	r2, r1, #2
	str	r2, [sp, #68]
	.loc	7 570 15                        @ ../Middlewares/CMSIS/DSP/Src/MatrixFunctions/arm_mat_cmplx_mult_q15.c:570:15
	strh	r0, [r1]
	.loc	7 573 12 is_stmt 1              @ ../Middlewares/CMSIS/DSP/Src/MatrixFunctions/arm_mat_cmplx_mult_q15.c:573:12
	ldr	r0, [sp, #36]
	subs	r0, #1
	str	r0, [sp, #36]
	.loc	7 575 7                         @ ../Middlewares/CMSIS/DSP/Src/MatrixFunctions/arm_mat_cmplx_mult_q15.c:575:7
	b	.LBB4_18
.Ltmp78:
.LBB4_18:                               @   in Loop: Header=BB4_12 Depth=2
	.loc	7 575 16 is_stmt 0              @ ../Middlewares/CMSIS/DSP/Src/MatrixFunctions/arm_mat_cmplx_mult_q15.c:575:16
	ldr	r0, [sp, #36]
.Ltmp79:
	.loc	7 575 7                         @ ../Middlewares/CMSIS/DSP/Src/MatrixFunctions/arm_mat_cmplx_mult_q15.c:575:7
	cmp	r0, #0
	bne.w	.LBB4_12
	b	.LBB4_19
.Ltmp80:
.LBB4_19:                               @   in Loop: Header=BB4_11 Depth=1
	.loc	7 577 11 is_stmt 1              @ ../Middlewares/CMSIS/DSP/Src/MatrixFunctions/arm_mat_cmplx_mult_q15.c:577:11
	ldr	r0, [sp, #32]
	.loc	7 577 15 is_stmt 0              @ ../Middlewares/CMSIS/DSP/Src/MatrixFunctions/arm_mat_cmplx_mult_q15.c:577:15
	ldrh.w	r1, [sp, #62]
	.loc	7 577 13                        @ ../Middlewares/CMSIS/DSP/Src/MatrixFunctions/arm_mat_cmplx_mult_q15.c:577:13
	add	r0, r1
	.loc	7 577 9                         @ ../Middlewares/CMSIS/DSP/Src/MatrixFunctions/arm_mat_cmplx_mult_q15.c:577:9
	str	r0, [sp, #32]
	.loc	7 580 10 is_stmt 1              @ ../Middlewares/CMSIS/DSP/Src/MatrixFunctions/arm_mat_cmplx_mult_q15.c:580:10
	ldr	r0, [sp, #28]
	subs	r0, #1
	str	r0, [sp, #28]
	.loc	7 582 5                         @ ../Middlewares/CMSIS/DSP/Src/MatrixFunctions/arm_mat_cmplx_mult_q15.c:582:5
	b	.LBB4_20
.Ltmp81:
.LBB4_20:                               @   in Loop: Header=BB4_11 Depth=1
	.loc	7 582 14 is_stmt 0              @ ../Middlewares/CMSIS/DSP/Src/MatrixFunctions/arm_mat_cmplx_mult_q15.c:582:14
	ldr	r0, [sp, #28]
.Ltmp82:
	.loc	7 582 5                         @ ../Middlewares/CMSIS/DSP/Src/MatrixFunctions/arm_mat_cmplx_mult_q15.c:582:5
	cmp	r0, #0
	bne.w	.LBB4_11
	b	.LBB4_21
.Ltmp83:
.LBB4_21:
	.loc	7 0 5                           @ ../Middlewares/CMSIS/DSP/Src/MatrixFunctions/arm_mat_cmplx_mult_q15.c:0:5
	movs	r0, #0
	.loc	7 585 12 is_stmt 1              @ ../Middlewares/CMSIS/DSP/Src/MatrixFunctions/arm_mat_cmplx_mult_q15.c:585:12
	strb.w	r0, [sp, #23]
	b	.LBB4_22
.Ltmp84:
.LBB4_22:
	.loc	7 589 11                        @ ../Middlewares/CMSIS/DSP/Src/MatrixFunctions/arm_mat_cmplx_mult_q15.c:589:11
	ldrsb.w	r0, [sp, #23]
	.loc	7 589 3 is_stmt 0               @ ../Middlewares/CMSIS/DSP/Src/MatrixFunctions/arm_mat_cmplx_mult_q15.c:589:3
	add	sp, #168
	bx	lr
.Ltmp85:
.Lfunc_end4:
	.size	arm_mat_cmplx_mult_q15, .Lfunc_end4-arm_mat_cmplx_mult_q15
	.cfi_endproc
	.cantunwind
	.fnend
                                        @ -- End function
	.section	.text.arm_mat_cmplx_mult_q31,"ax",%progbits
	.hidden	arm_mat_cmplx_mult_q31          @ -- Begin function arm_mat_cmplx_mult_q31
	.globl	arm_mat_cmplx_mult_q31
	.p2align	2
	.type	arm_mat_cmplx_mult_q31,%function
	.code	16                              @ @arm_mat_cmplx_mult_q31
	.thumb_func
arm_mat_cmplx_mult_q31:
.Lfunc_begin5:
	.file	9 "D:\\horizon\\Horizon_Infantry (2)\\MDK-ARM" "../Middlewares/CMSIS/DSP/Src/MatrixFunctions/arm_mat_cmplx_mult_q31.c"
	.loc	9 841 0 is_stmt 1               @ ../Middlewares/CMSIS/DSP/Src/MatrixFunctions/arm_mat_cmplx_mult_q31.c:841:0
	.fnstart
	.cfi_startproc
@ %bb.0:
	.pad	#120
	sub	sp, #120
	.cfi_def_cfa_offset 120
	str	r0, [sp, #100]
	str	r1, [sp, #96]
	str	r2, [sp, #92]
.Ltmp86:
	.loc	9 842 17 prologue_end           @ ../Middlewares/CMSIS/DSP/Src/MatrixFunctions/arm_mat_cmplx_mult_q31.c:842:17
	ldr	r0, [sp, #100]
	.loc	9 842 24 is_stmt 0              @ ../Middlewares/CMSIS/DSP/Src/MatrixFunctions/arm_mat_cmplx_mult_q31.c:842:24
	ldr	r0, [r0, #4]
	.loc	9 842 10                        @ ../Middlewares/CMSIS/DSP/Src/MatrixFunctions/arm_mat_cmplx_mult_q31.c:842:10
	str	r0, [sp, #88]
	.loc	9 843 17 is_stmt 1              @ ../Middlewares/CMSIS/DSP/Src/MatrixFunctions/arm_mat_cmplx_mult_q31.c:843:17
	ldr	r0, [sp, #96]
	.loc	9 843 24 is_stmt 0              @ ../Middlewares/CMSIS/DSP/Src/MatrixFunctions/arm_mat_cmplx_mult_q31.c:843:24
	ldr	r0, [r0, #4]
	.loc	9 843 10                        @ ../Middlewares/CMSIS/DSP/Src/MatrixFunctions/arm_mat_cmplx_mult_q31.c:843:10
	str	r0, [sp, #84]
	.loc	9 844 17 is_stmt 1              @ ../Middlewares/CMSIS/DSP/Src/MatrixFunctions/arm_mat_cmplx_mult_q31.c:844:17
	ldr	r0, [sp, #100]
	.loc	9 844 24 is_stmt 0              @ ../Middlewares/CMSIS/DSP/Src/MatrixFunctions/arm_mat_cmplx_mult_q31.c:844:24
	ldr	r0, [r0, #4]
	.loc	9 844 10                        @ ../Middlewares/CMSIS/DSP/Src/MatrixFunctions/arm_mat_cmplx_mult_q31.c:844:10
	str	r0, [sp, #80]
	.loc	9 845 17 is_stmt 1              @ ../Middlewares/CMSIS/DSP/Src/MatrixFunctions/arm_mat_cmplx_mult_q31.c:845:17
	ldr	r0, [sp, #92]
	.loc	9 845 23 is_stmt 0              @ ../Middlewares/CMSIS/DSP/Src/MatrixFunctions/arm_mat_cmplx_mult_q31.c:845:23
	ldr	r0, [r0, #4]
	.loc	9 845 10                        @ ../Middlewares/CMSIS/DSP/Src/MatrixFunctions/arm_mat_cmplx_mult_q31.c:845:10
	str	r0, [sp, #76]
	.loc	9 847 23 is_stmt 1              @ ../Middlewares/CMSIS/DSP/Src/MatrixFunctions/arm_mat_cmplx_mult_q31.c:847:23
	ldr	r0, [sp, #100]
	.loc	9 847 30 is_stmt 0              @ ../Middlewares/CMSIS/DSP/Src/MatrixFunctions/arm_mat_cmplx_mult_q31.c:847:30
	ldrh	r0, [r0]
	.loc	9 847 12                        @ ../Middlewares/CMSIS/DSP/Src/MatrixFunctions/arm_mat_cmplx_mult_q31.c:847:12
	strh.w	r0, [sp, #70]
	.loc	9 848 23 is_stmt 1              @ ../Middlewares/CMSIS/DSP/Src/MatrixFunctions/arm_mat_cmplx_mult_q31.c:848:23
	ldr	r0, [sp, #96]
	.loc	9 848 30 is_stmt 0              @ ../Middlewares/CMSIS/DSP/Src/MatrixFunctions/arm_mat_cmplx_mult_q31.c:848:30
	ldrh	r0, [r0, #2]
	.loc	9 848 12                        @ ../Middlewares/CMSIS/DSP/Src/MatrixFunctions/arm_mat_cmplx_mult_q31.c:848:12
	strh.w	r0, [sp, #68]
	.loc	9 849 23 is_stmt 1              @ ../Middlewares/CMSIS/DSP/Src/MatrixFunctions/arm_mat_cmplx_mult_q31.c:849:23
	ldr	r0, [sp, #100]
	.loc	9 849 30 is_stmt 0              @ ../Middlewares/CMSIS/DSP/Src/MatrixFunctions/arm_mat_cmplx_mult_q31.c:849:30
	ldrh	r0, [r0, #2]
	.loc	9 849 12                        @ ../Middlewares/CMSIS/DSP/Src/MatrixFunctions/arm_mat_cmplx_mult_q31.c:849:12
	strh.w	r0, [sp, #66]
	movs	r0, #0
	.loc	9 852 17 is_stmt 1              @ ../Middlewares/CMSIS/DSP/Src/MatrixFunctions/arm_mat_cmplx_mult_q31.c:852:17
	str	r0, [sp, #24]
	.loc	9 852 34 is_stmt 0              @ ../Middlewares/CMSIS/DSP/Src/MatrixFunctions/arm_mat_cmplx_mult_q31.c:852:34
	ldrh.w	r0, [sp, #70]
	.loc	9 852 28                        @ ../Middlewares/CMSIS/DSP/Src/MatrixFunctions/arm_mat_cmplx_mult_q31.c:852:28
	str	r0, [sp, #16]
.Ltmp87:
	.loc	9 862 8 is_stmt 1               @ ../Middlewares/CMSIS/DSP/Src/MatrixFunctions/arm_mat_cmplx_mult_q31.c:862:8
	ldr	r0, [sp, #100]
	.loc	9 862 15 is_stmt 0              @ ../Middlewares/CMSIS/DSP/Src/MatrixFunctions/arm_mat_cmplx_mult_q31.c:862:15
	ldrh	r0, [r0, #2]
	.loc	9 862 26                        @ ../Middlewares/CMSIS/DSP/Src/MatrixFunctions/arm_mat_cmplx_mult_q31.c:862:26
	ldr	r1, [sp, #96]
	.loc	9 862 33                        @ ../Middlewares/CMSIS/DSP/Src/MatrixFunctions/arm_mat_cmplx_mult_q31.c:862:33
	ldrh	r1, [r1]
	.loc	9 862 42                        @ ../Middlewares/CMSIS/DSP/Src/MatrixFunctions/arm_mat_cmplx_mult_q31.c:862:42
	cmp	r0, r1
	bne	.LBB5_3
	b	.LBB5_1
.LBB5_1:
	.loc	9 863 8 is_stmt 1               @ ../Middlewares/CMSIS/DSP/Src/MatrixFunctions/arm_mat_cmplx_mult_q31.c:863:8
	ldr	r0, [sp, #100]
	.loc	9 863 15 is_stmt 0              @ ../Middlewares/CMSIS/DSP/Src/MatrixFunctions/arm_mat_cmplx_mult_q31.c:863:15
	ldrh	r0, [r0]
	.loc	9 863 26                        @ ../Middlewares/CMSIS/DSP/Src/MatrixFunctions/arm_mat_cmplx_mult_q31.c:863:26
	ldr	r1, [sp, #92]
	.loc	9 863 32                        @ ../Middlewares/CMSIS/DSP/Src/MatrixFunctions/arm_mat_cmplx_mult_q31.c:863:32
	ldrh	r1, [r1]
	.loc	9 863 41                        @ ../Middlewares/CMSIS/DSP/Src/MatrixFunctions/arm_mat_cmplx_mult_q31.c:863:41
	cmp	r0, r1
	bne	.LBB5_3
	b	.LBB5_2
.LBB5_2:
	.loc	9 864 8 is_stmt 1               @ ../Middlewares/CMSIS/DSP/Src/MatrixFunctions/arm_mat_cmplx_mult_q31.c:864:8
	ldr	r0, [sp, #96]
	.loc	9 864 15 is_stmt 0              @ ../Middlewares/CMSIS/DSP/Src/MatrixFunctions/arm_mat_cmplx_mult_q31.c:864:15
	ldrh	r0, [r0, #2]
	.loc	9 864 26                        @ ../Middlewares/CMSIS/DSP/Src/MatrixFunctions/arm_mat_cmplx_mult_q31.c:864:26
	ldr	r1, [sp, #92]
	.loc	9 864 32                        @ ../Middlewares/CMSIS/DSP/Src/MatrixFunctions/arm_mat_cmplx_mult_q31.c:864:32
	ldrh	r1, [r1, #2]
.Ltmp88:
	.loc	9 862 7 is_stmt 1               @ ../Middlewares/CMSIS/DSP/Src/MatrixFunctions/arm_mat_cmplx_mult_q31.c:862:7
	cmp	r0, r1
	beq	.LBB5_4
	b	.LBB5_3
.LBB5_3:
	.loc	9 0 7 is_stmt 0                 @ ../Middlewares/CMSIS/DSP/Src/MatrixFunctions/arm_mat_cmplx_mult_q31.c:0:7
	movs	r0, #253
.Ltmp89:
	.loc	9 867 12 is_stmt 1              @ ../Middlewares/CMSIS/DSP/Src/MatrixFunctions/arm_mat_cmplx_mult_q31.c:867:12
	strb.w	r0, [sp, #11]
	.loc	9 868 3                         @ ../Middlewares/CMSIS/DSP/Src/MatrixFunctions/arm_mat_cmplx_mult_q31.c:868:3
	b	.LBB5_20
.Ltmp90:
.LBB5_4:
	.loc	9 876 5                         @ ../Middlewares/CMSIS/DSP/Src/MatrixFunctions/arm_mat_cmplx_mult_q31.c:876:5
	b	.LBB5_5
.LBB5_5:                                @ =>This Loop Header: Depth=1
                                        @     Child Loop BB5_6 Depth 2
                                        @       Child Loop BB5_7 Depth 3
.Ltmp91:
	.loc	9 879 12                        @ ../Middlewares/CMSIS/DSP/Src/MatrixFunctions/arm_mat_cmplx_mult_q31.c:879:12
	ldr	r0, [sp, #76]
	.loc	9 879 23 is_stmt 0              @ ../Middlewares/CMSIS/DSP/Src/MatrixFunctions/arm_mat_cmplx_mult_q31.c:879:23
	ldr	r1, [sp, #24]
	.loc	9 879 17                        @ ../Middlewares/CMSIS/DSP/Src/MatrixFunctions/arm_mat_cmplx_mult_q31.c:879:17
	add.w	r0, r0, r1, lsl #3
	.loc	9 879 10                        @ ../Middlewares/CMSIS/DSP/Src/MatrixFunctions/arm_mat_cmplx_mult_q31.c:879:10
	str	r0, [sp, #72]
	.loc	9 882 13 is_stmt 1              @ ../Middlewares/CMSIS/DSP/Src/MatrixFunctions/arm_mat_cmplx_mult_q31.c:882:13
	ldrh.w	r0, [sp, #68]
	.loc	9 882 11 is_stmt 0              @ ../Middlewares/CMSIS/DSP/Src/MatrixFunctions/arm_mat_cmplx_mult_q31.c:882:11
	str	r0, [sp, #28]
	.loc	9 886 14 is_stmt 1              @ ../Middlewares/CMSIS/DSP/Src/MatrixFunctions/arm_mat_cmplx_mult_q31.c:886:14
	ldr	r0, [sp, #96]
	.loc	9 886 21 is_stmt 0              @ ../Middlewares/CMSIS/DSP/Src/MatrixFunctions/arm_mat_cmplx_mult_q31.c:886:21
	ldr	r0, [r0, #4]
	.loc	9 886 12                        @ ../Middlewares/CMSIS/DSP/Src/MatrixFunctions/arm_mat_cmplx_mult_q31.c:886:12
	str	r0, [sp, #84]
	movs	r0, #0
	.loc	9 888 9 is_stmt 1               @ ../Middlewares/CMSIS/DSP/Src/MatrixFunctions/arm_mat_cmplx_mult_q31.c:888:9
	str	r0, [sp, #20]
	.loc	9 891 7                         @ ../Middlewares/CMSIS/DSP/Src/MatrixFunctions/arm_mat_cmplx_mult_q31.c:891:7
	b	.LBB5_6
.LBB5_6:                                @   Parent Loop BB5_5 Depth=1
                                        @ =>  This Loop Header: Depth=2
                                        @       Child Loop BB5_7 Depth 3
	.loc	9 0 7 is_stmt 0                 @ ../Middlewares/CMSIS/DSP/Src/MatrixFunctions/arm_mat_cmplx_mult_q31.c:0:7
	movs	r0, #0
.Ltmp92:
	.loc	9 894 17 is_stmt 1              @ ../Middlewares/CMSIS/DSP/Src/MatrixFunctions/arm_mat_cmplx_mult_q31.c:894:17
	str	r0, [sp, #60]
	str	r0, [sp, #56]
	.loc	9 895 17                        @ ../Middlewares/CMSIS/DSP/Src/MatrixFunctions/arm_mat_cmplx_mult_q31.c:895:17
	str	r0, [sp, #52]
	str	r0, [sp, #48]
	.loc	9 898 16                        @ ../Middlewares/CMSIS/DSP/Src/MatrixFunctions/arm_mat_cmplx_mult_q31.c:898:16
	ldr	r0, [sp, #80]
	.loc	9 898 14 is_stmt 0              @ ../Middlewares/CMSIS/DSP/Src/MatrixFunctions/arm_mat_cmplx_mult_q31.c:898:14
	str	r0, [sp, #88]
	.loc	9 1000 18 is_stmt 1             @ ../Middlewares/CMSIS/DSP/Src/MatrixFunctions/arm_mat_cmplx_mult_q31.c:1000:18
	ldrh.w	r0, [sp, #66]
	.loc	9 1000 16 is_stmt 0             @ ../Middlewares/CMSIS/DSP/Src/MatrixFunctions/arm_mat_cmplx_mult_q31.c:1000:16
	str	r0, [sp, #12]
	.loc	9 1004 9 is_stmt 1              @ ../Middlewares/CMSIS/DSP/Src/MatrixFunctions/arm_mat_cmplx_mult_q31.c:1004:9
	b	.LBB5_7
.LBB5_7:                                @   Parent Loop BB5_5 Depth=1
                                        @     Parent Loop BB5_6 Depth=2
                                        @ =>    This Inner Loop Header: Depth=3
	.loc	9 1004 16 is_stmt 0             @ ../Middlewares/CMSIS/DSP/Src/MatrixFunctions/arm_mat_cmplx_mult_q31.c:1004:16
	ldr	r0, [sp, #12]
	.loc	9 1004 9                        @ ../Middlewares/CMSIS/DSP/Src/MatrixFunctions/arm_mat_cmplx_mult_q31.c:1004:9
	cbz	r0, .LBB5_9
	b	.LBB5_8
.LBB5_8:                                @   in Loop: Header=BB5_7 Depth=3
.Ltmp93:
	.loc	9 1007 18 is_stmt 1             @ ../Middlewares/CMSIS/DSP/Src/MatrixFunctions/arm_mat_cmplx_mult_q31.c:1007:18
	ldr	r0, [sp, #88]
	.loc	9 1007 16 is_stmt 0             @ ../Middlewares/CMSIS/DSP/Src/MatrixFunctions/arm_mat_cmplx_mult_q31.c:1007:16
	ldr	r0, [r0]
	.loc	9 1007 14                       @ ../Middlewares/CMSIS/DSP/Src/MatrixFunctions/arm_mat_cmplx_mult_q31.c:1007:14
	str	r0, [sp, #44]
	.loc	9 1008 18 is_stmt 1             @ ../Middlewares/CMSIS/DSP/Src/MatrixFunctions/arm_mat_cmplx_mult_q31.c:1008:18
	ldr	r0, [sp, #84]
	.loc	9 1008 16 is_stmt 0             @ ../Middlewares/CMSIS/DSP/Src/MatrixFunctions/arm_mat_cmplx_mult_q31.c:1008:16
	ldr	r0, [r0]
	.loc	9 1008 14                       @ ../Middlewares/CMSIS/DSP/Src/MatrixFunctions/arm_mat_cmplx_mult_q31.c:1008:14
	str	r0, [sp, #36]
	.loc	9 1009 18 is_stmt 1             @ ../Middlewares/CMSIS/DSP/Src/MatrixFunctions/arm_mat_cmplx_mult_q31.c:1009:18
	ldr	r0, [sp, #88]
	.loc	9 1009 16 is_stmt 0             @ ../Middlewares/CMSIS/DSP/Src/MatrixFunctions/arm_mat_cmplx_mult_q31.c:1009:16
	ldr	r0, [r0, #4]
	.loc	9 1009 14                       @ ../Middlewares/CMSIS/DSP/Src/MatrixFunctions/arm_mat_cmplx_mult_q31.c:1009:14
	str	r0, [sp, #40]
	.loc	9 1010 18 is_stmt 1             @ ../Middlewares/CMSIS/DSP/Src/MatrixFunctions/arm_mat_cmplx_mult_q31.c:1010:18
	ldr	r0, [sp, #84]
	.loc	9 1010 16 is_stmt 0             @ ../Middlewares/CMSIS/DSP/Src/MatrixFunctions/arm_mat_cmplx_mult_q31.c:1010:16
	ldr	r0, [r0, #4]
	.loc	9 1010 14                       @ ../Middlewares/CMSIS/DSP/Src/MatrixFunctions/arm_mat_cmplx_mult_q31.c:1010:14
	str	r0, [sp, #32]
	.loc	9 1013 30 is_stmt 1             @ ../Middlewares/CMSIS/DSP/Src/MatrixFunctions/arm_mat_cmplx_mult_q31.c:1013:30
	ldr	r2, [sp, #44]
	.loc	9 1013 35 is_stmt 0             @ ../Middlewares/CMSIS/DSP/Src/MatrixFunctions/arm_mat_cmplx_mult_q31.c:1013:35
	ldr	r3, [sp, #36]
	.loc	9 1013 19                       @ ../Middlewares/CMSIS/DSP/Src/MatrixFunctions/arm_mat_cmplx_mult_q31.c:1013:19
	ldr	r0, [sp, #56]
	ldr	r1, [sp, #60]
	smlal	r0, r1, r2, r3
	str	r1, [sp, #60]
	str	r0, [sp, #56]
	.loc	9 1014 30 is_stmt 1             @ ../Middlewares/CMSIS/DSP/Src/MatrixFunctions/arm_mat_cmplx_mult_q31.c:1014:30
	ldr	r2, [sp, #40]
	.loc	9 1014 35 is_stmt 0             @ ../Middlewares/CMSIS/DSP/Src/MatrixFunctions/arm_mat_cmplx_mult_q31.c:1014:35
	ldr	r3, [sp, #36]
	.loc	9 1014 19                       @ ../Middlewares/CMSIS/DSP/Src/MatrixFunctions/arm_mat_cmplx_mult_q31.c:1014:19
	ldr	r0, [sp, #48]
	ldr	r1, [sp, #52]
	smlal	r0, r1, r2, r3
	str	r1, [sp, #52]
	str	r0, [sp, #48]
	.loc	9 1017 16 is_stmt 1             @ ../Middlewares/CMSIS/DSP/Src/MatrixFunctions/arm_mat_cmplx_mult_q31.c:1017:16
	ldr	r0, [sp, #88]
	adds	r0, #8
	str	r0, [sp, #88]
	.loc	9 1018 23                       @ ../Middlewares/CMSIS/DSP/Src/MatrixFunctions/arm_mat_cmplx_mult_q31.c:1018:23
	ldrh.w	r1, [sp, #68]
	.loc	9 1018 16 is_stmt 0             @ ../Middlewares/CMSIS/DSP/Src/MatrixFunctions/arm_mat_cmplx_mult_q31.c:1018:16
	ldr	r0, [sp, #84]
	add.w	r0, r0, r1, lsl #3
	str	r0, [sp, #84]
	.loc	9 1021 30 is_stmt 1             @ ../Middlewares/CMSIS/DSP/Src/MatrixFunctions/arm_mat_cmplx_mult_q31.c:1021:30
	ldr	r0, [sp, #40]
	.loc	9 1021 35 is_stmt 0             @ ../Middlewares/CMSIS/DSP/Src/MatrixFunctions/arm_mat_cmplx_mult_q31.c:1021:35
	ldr	r1, [sp, #32]
	.loc	9 1021 33                       @ ../Middlewares/CMSIS/DSP/Src/MatrixFunctions/arm_mat_cmplx_mult_q31.c:1021:33
	smull	r3, r2, r0, r1
	.loc	9 1021 19                       @ ../Middlewares/CMSIS/DSP/Src/MatrixFunctions/arm_mat_cmplx_mult_q31.c:1021:19
	ldr	r1, [sp, #56]
	ldr	r0, [sp, #60]
	subs	r1, r1, r3
	sbcs	r0, r2
	str	r1, [sp, #56]
	str	r0, [sp, #60]
	.loc	9 1022 30 is_stmt 1             @ ../Middlewares/CMSIS/DSP/Src/MatrixFunctions/arm_mat_cmplx_mult_q31.c:1022:30
	ldr	r2, [sp, #44]
	.loc	9 1022 35 is_stmt 0             @ ../Middlewares/CMSIS/DSP/Src/MatrixFunctions/arm_mat_cmplx_mult_q31.c:1022:35
	ldr	r3, [sp, #32]
	.loc	9 1022 19                       @ ../Middlewares/CMSIS/DSP/Src/MatrixFunctions/arm_mat_cmplx_mult_q31.c:1022:19
	ldr	r0, [sp, #48]
	ldr	r1, [sp, #52]
	smlal	r0, r1, r2, r3
	str	r1, [sp, #52]
	str	r0, [sp, #48]
	.loc	9 1025 17 is_stmt 1             @ ../Middlewares/CMSIS/DSP/Src/MatrixFunctions/arm_mat_cmplx_mult_q31.c:1025:17
	ldr	r0, [sp, #12]
	subs	r0, #1
	str	r0, [sp, #12]
.Ltmp94:
	.loc	9 1004 9                        @ ../Middlewares/CMSIS/DSP/Src/MatrixFunctions/arm_mat_cmplx_mult_q31.c:1004:9
	b	.LBB5_7
.LBB5_9:                                @   in Loop: Header=BB5_6 Depth=2
	.loc	9 1029 41                       @ ../Middlewares/CMSIS/DSP/Src/MatrixFunctions/arm_mat_cmplx_mult_q31.c:1029:41
	ldr	r0, [sp, #56]
	ldr	r1, [sp, #60]
	.loc	9 1029 49 is_stmt 0             @ ../Middlewares/CMSIS/DSP/Src/MatrixFunctions/arm_mat_cmplx_mult_q31.c:1029:49
	lsrs	r0, r0, #31
	orr.w	r0, r0, r1, lsl #1
	asrs	r1, r1, #31
	str	r1, [sp, #116]
	str	r0, [sp, #112]
.Ltmp95:
	.file	10 "D:\\horizon\\Horizon_Infantry (2)\\MDK-ARM" "../Middlewares/CMSIS/DSP/Inc\\dsp/none.h"
	.loc	10 139 22 is_stmt 1             @ ../Middlewares/CMSIS/DSP/Inc\dsp/none.h:139:22
	ldr	r1, [sp, #112]
	ldr	r0, [sp, #116]
	.loc	10 139 12 is_stmt 0             @ ../Middlewares/CMSIS/DSP/Inc\dsp/none.h:139:12
	cmp.w	r0, r1, asr #31
	beq	.LBB5_11
	b	.LBB5_10
.LBB5_10:                               @   in Loop: Header=BB5_6 Depth=2
	.loc	10 140 32 is_stmt 1             @ ../Middlewares/CMSIS/DSP/Inc\dsp/none.h:140:32
	ldr	r1, [sp, #116]
	mvn	r0, #-2147483648
	.loc	10 140 20 is_stmt 0             @ ../Middlewares/CMSIS/DSP/Inc\dsp/none.h:140:20
	eor.w	r0, r0, r1, asr #31
	.loc	10 139 12 is_stmt 1             @ ../Middlewares/CMSIS/DSP/Inc\dsp/none.h:139:12
	str	r0, [sp, #4]                    @ 4-byte Spill
	b	.LBB5_12
.LBB5_11:                               @   in Loop: Header=BB5_6 Depth=2
	.loc	10 140 54                       @ ../Middlewares/CMSIS/DSP/Inc\dsp/none.h:140:54
	ldr	r0, [sp, #112]
	.loc	10 139 12                       @ ../Middlewares/CMSIS/DSP/Inc\dsp/none.h:139:12
	str	r0, [sp, #4]                    @ 4-byte Spill
	b	.LBB5_12
.LBB5_12:                               @ %clip_q63_to_q31.exit1
                                        @   in Loop: Header=BB5_6 Depth=2
	ldr	r0, [sp, #4]                    @ 4-byte Reload
.Ltmp96:
	.loc	9 1029 12                       @ ../Middlewares/CMSIS/DSP/Src/MatrixFunctions/arm_mat_cmplx_mult_q31.c:1029:12
	ldr	r1, [sp, #72]
	adds	r2, r1, #4
	str	r2, [sp, #72]
	.loc	9 1029 15 is_stmt 0             @ ../Middlewares/CMSIS/DSP/Src/MatrixFunctions/arm_mat_cmplx_mult_q31.c:1029:15
	str	r0, [r1]
	.loc	9 1030 41 is_stmt 1             @ ../Middlewares/CMSIS/DSP/Src/MatrixFunctions/arm_mat_cmplx_mult_q31.c:1030:41
	ldr	r0, [sp, #48]
	ldr	r1, [sp, #52]
	.loc	9 1030 49 is_stmt 0             @ ../Middlewares/CMSIS/DSP/Src/MatrixFunctions/arm_mat_cmplx_mult_q31.c:1030:49
	lsrs	r0, r0, #31
	orr.w	r0, r0, r1, lsl #1
	asrs	r1, r1, #31
	str	r1, [sp, #108]
	str	r0, [sp, #104]
.Ltmp97:
	.loc	10 139 22 is_stmt 1             @ ../Middlewares/CMSIS/DSP/Inc\dsp/none.h:139:22
	ldr	r1, [sp, #104]
	ldr	r0, [sp, #108]
	.loc	10 139 12 is_stmt 0             @ ../Middlewares/CMSIS/DSP/Inc\dsp/none.h:139:12
	cmp.w	r0, r1, asr #31
	beq	.LBB5_14
	b	.LBB5_13
.LBB5_13:                               @   in Loop: Header=BB5_6 Depth=2
	.loc	10 140 32 is_stmt 1             @ ../Middlewares/CMSIS/DSP/Inc\dsp/none.h:140:32
	ldr	r1, [sp, #108]
	mvn	r0, #-2147483648
	.loc	10 140 20 is_stmt 0             @ ../Middlewares/CMSIS/DSP/Inc\dsp/none.h:140:20
	eor.w	r0, r0, r1, asr #31
	.loc	10 139 12 is_stmt 1             @ ../Middlewares/CMSIS/DSP/Inc\dsp/none.h:139:12
	str	r0, [sp]                        @ 4-byte Spill
	b	.LBB5_15
.LBB5_14:                               @   in Loop: Header=BB5_6 Depth=2
	.loc	10 140 54                       @ ../Middlewares/CMSIS/DSP/Inc\dsp/none.h:140:54
	ldr	r0, [sp, #104]
	.loc	10 139 12                       @ ../Middlewares/CMSIS/DSP/Inc\dsp/none.h:139:12
	str	r0, [sp]                        @ 4-byte Spill
	b	.LBB5_15
.LBB5_15:                               @ %clip_q63_to_q31.exit
                                        @   in Loop: Header=BB5_6 Depth=2
	ldr	r0, [sp]                        @ 4-byte Reload
.Ltmp98:
	.loc	9 1030 12                       @ ../Middlewares/CMSIS/DSP/Src/MatrixFunctions/arm_mat_cmplx_mult_q31.c:1030:12
	ldr	r1, [sp, #72]
	adds	r2, r1, #4
	str	r2, [sp, #72]
	.loc	9 1030 15 is_stmt 0             @ ../Middlewares/CMSIS/DSP/Src/MatrixFunctions/arm_mat_cmplx_mult_q31.c:1030:15
	str	r0, [r1]
	.loc	9 1033 10 is_stmt 1             @ ../Middlewares/CMSIS/DSP/Src/MatrixFunctions/arm_mat_cmplx_mult_q31.c:1033:10
	ldr	r0, [sp, #20]
	adds	r0, #1
	str	r0, [sp, #20]
	.loc	9 1034 16                       @ ../Middlewares/CMSIS/DSP/Src/MatrixFunctions/arm_mat_cmplx_mult_q31.c:1034:16
	ldr	r0, [sp, #96]
	.loc	9 1034 23 is_stmt 0             @ ../Middlewares/CMSIS/DSP/Src/MatrixFunctions/arm_mat_cmplx_mult_q31.c:1034:23
	ldr	r0, [r0, #4]
	.loc	9 1034 36                       @ ../Middlewares/CMSIS/DSP/Src/MatrixFunctions/arm_mat_cmplx_mult_q31.c:1034:36
	ldr	r1, [sp, #20]
	.loc	9 1034 29                       @ ../Middlewares/CMSIS/DSP/Src/MatrixFunctions/arm_mat_cmplx_mult_q31.c:1034:29
	add.w	r0, r0, r1, lsl #3
	.loc	9 1034 14                       @ ../Middlewares/CMSIS/DSP/Src/MatrixFunctions/arm_mat_cmplx_mult_q31.c:1034:14
	str	r0, [sp, #84]
	.loc	9 1037 12 is_stmt 1             @ ../Middlewares/CMSIS/DSP/Src/MatrixFunctions/arm_mat_cmplx_mult_q31.c:1037:12
	ldr	r0, [sp, #28]
	subs	r0, #1
	str	r0, [sp, #28]
	.loc	9 1039 7                        @ ../Middlewares/CMSIS/DSP/Src/MatrixFunctions/arm_mat_cmplx_mult_q31.c:1039:7
	b	.LBB5_16
.Ltmp99:
.LBB5_16:                               @   in Loop: Header=BB5_6 Depth=2
	.loc	9 1039 16 is_stmt 0             @ ../Middlewares/CMSIS/DSP/Src/MatrixFunctions/arm_mat_cmplx_mult_q31.c:1039:16
	ldr	r0, [sp, #28]
.Ltmp100:
	.loc	9 1039 7                        @ ../Middlewares/CMSIS/DSP/Src/MatrixFunctions/arm_mat_cmplx_mult_q31.c:1039:7
	cmp	r0, #0
	bne.w	.LBB5_6
	b	.LBB5_17
.Ltmp101:
.LBB5_17:                               @   in Loop: Header=BB5_5 Depth=1
	.loc	9 1042 11 is_stmt 1             @ ../Middlewares/CMSIS/DSP/Src/MatrixFunctions/arm_mat_cmplx_mult_q31.c:1042:11
	ldr	r0, [sp, #24]
	.loc	9 1042 15 is_stmt 0             @ ../Middlewares/CMSIS/DSP/Src/MatrixFunctions/arm_mat_cmplx_mult_q31.c:1042:15
	ldrh.w	r1, [sp, #68]
	.loc	9 1042 13                       @ ../Middlewares/CMSIS/DSP/Src/MatrixFunctions/arm_mat_cmplx_mult_q31.c:1042:13
	add	r0, r1
	.loc	9 1042 9                        @ ../Middlewares/CMSIS/DSP/Src/MatrixFunctions/arm_mat_cmplx_mult_q31.c:1042:9
	str	r0, [sp, #24]
	.loc	9 1043 14 is_stmt 1             @ ../Middlewares/CMSIS/DSP/Src/MatrixFunctions/arm_mat_cmplx_mult_q31.c:1043:14
	ldr	r0, [sp, #80]
	.loc	9 1043 25 is_stmt 0             @ ../Middlewares/CMSIS/DSP/Src/MatrixFunctions/arm_mat_cmplx_mult_q31.c:1043:25
	ldrh.w	r1, [sp, #66]
	.loc	9 1043 19                       @ ../Middlewares/CMSIS/DSP/Src/MatrixFunctions/arm_mat_cmplx_mult_q31.c:1043:19
	add.w	r0, r0, r1, lsl #3
	.loc	9 1043 12                       @ ../Middlewares/CMSIS/DSP/Src/MatrixFunctions/arm_mat_cmplx_mult_q31.c:1043:12
	str	r0, [sp, #80]
	.loc	9 1046 10 is_stmt 1             @ ../Middlewares/CMSIS/DSP/Src/MatrixFunctions/arm_mat_cmplx_mult_q31.c:1046:10
	ldr	r0, [sp, #16]
	subs	r0, #1
	str	r0, [sp, #16]
	.loc	9 1048 5                        @ ../Middlewares/CMSIS/DSP/Src/MatrixFunctions/arm_mat_cmplx_mult_q31.c:1048:5
	b	.LBB5_18
.Ltmp102:
.LBB5_18:                               @   in Loop: Header=BB5_5 Depth=1
	.loc	9 1048 14 is_stmt 0             @ ../Middlewares/CMSIS/DSP/Src/MatrixFunctions/arm_mat_cmplx_mult_q31.c:1048:14
	ldr	r0, [sp, #16]
.Ltmp103:
	.loc	9 1048 5                        @ ../Middlewares/CMSIS/DSP/Src/MatrixFunctions/arm_mat_cmplx_mult_q31.c:1048:5
	cmp	r0, #0
	bne.w	.LBB5_5
	b	.LBB5_19
.Ltmp104:
.LBB5_19:
	.loc	9 0 5                           @ ../Middlewares/CMSIS/DSP/Src/MatrixFunctions/arm_mat_cmplx_mult_q31.c:0:5
	movs	r0, #0
	.loc	9 1051 12 is_stmt 1             @ ../Middlewares/CMSIS/DSP/Src/MatrixFunctions/arm_mat_cmplx_mult_q31.c:1051:12
	strb.w	r0, [sp, #11]
	b	.LBB5_20
.Ltmp105:
.LBB5_20:
	.loc	9 1055 11                       @ ../Middlewares/CMSIS/DSP/Src/MatrixFunctions/arm_mat_cmplx_mult_q31.c:1055:11
	ldrsb.w	r0, [sp, #11]
	.loc	9 1055 3 is_stmt 0              @ ../Middlewares/CMSIS/DSP/Src/MatrixFunctions/arm_mat_cmplx_mult_q31.c:1055:3
	add	sp, #120
	bx	lr
.Ltmp106:
.Lfunc_end5:
	.size	arm_mat_cmplx_mult_q31, .Lfunc_end5-arm_mat_cmplx_mult_q31
	.cfi_endproc
	.cantunwind
	.fnend
                                        @ -- End function
	.section	.text.arm_mat_init_f64,"ax",%progbits
	.hidden	arm_mat_init_f64                @ -- Begin function arm_mat_init_f64
	.globl	arm_mat_init_f64
	.p2align	2
	.type	arm_mat_init_f64,%function
	.code	16                              @ @arm_mat_init_f64
	.thumb_func
arm_mat_init_f64:
.Lfunc_begin6:
	.file	11 "D:\\horizon\\Horizon_Infantry (2)\\MDK-ARM" "../Middlewares/CMSIS/DSP/Src/MatrixFunctions/arm_mat_init_f64.c"
	.loc	11 63 0 is_stmt 1               @ ../Middlewares/CMSIS/DSP/Src/MatrixFunctions/arm_mat_init_f64.c:63:0
	.fnstart
	.cfi_startproc
@ %bb.0:
	.pad	#12
	sub	sp, #12
	.cfi_def_cfa_offset 12
                                        @ kill: def $r12 killed $r2
                                        @ kill: def $r12 killed $r1
	str	r0, [sp, #8]
	strh.w	r1, [sp, #6]
	strh.w	r2, [sp, #4]
	str	r3, [sp]
.Ltmp107:
	.loc	11 65 18 prologue_end           @ ../Middlewares/CMSIS/DSP/Src/MatrixFunctions/arm_mat_init_f64.c:65:18
	ldrh.w	r0, [sp, #6]
	.loc	11 65 5 is_stmt 0               @ ../Middlewares/CMSIS/DSP/Src/MatrixFunctions/arm_mat_init_f64.c:65:5
	ldr	r1, [sp, #8]
	.loc	11 65 16                        @ ../Middlewares/CMSIS/DSP/Src/MatrixFunctions/arm_mat_init_f64.c:65:16
	strh	r0, [r1]
	.loc	11 68 18 is_stmt 1              @ ../Middlewares/CMSIS/DSP/Src/MatrixFunctions/arm_mat_init_f64.c:68:18
	ldrh.w	r0, [sp, #4]
	.loc	11 68 5 is_stmt 0               @ ../Middlewares/CMSIS/DSP/Src/MatrixFunctions/arm_mat_init_f64.c:68:5
	ldr	r1, [sp, #8]
	.loc	11 68 16                        @ ../Middlewares/CMSIS/DSP/Src/MatrixFunctions/arm_mat_init_f64.c:68:16
	strh	r0, [r1, #2]
	.loc	11 71 16 is_stmt 1              @ ../Middlewares/CMSIS/DSP/Src/MatrixFunctions/arm_mat_init_f64.c:71:16
	ldr	r0, [sp]
	.loc	11 71 5 is_stmt 0               @ ../Middlewares/CMSIS/DSP/Src/MatrixFunctions/arm_mat_init_f64.c:71:5
	ldr	r1, [sp, #8]
	.loc	11 71 14                        @ ../Middlewares/CMSIS/DSP/Src/MatrixFunctions/arm_mat_init_f64.c:71:14
	str	r0, [r1, #4]
	.loc	11 72 1 is_stmt 1               @ ../Middlewares/CMSIS/DSP/Src/MatrixFunctions/arm_mat_init_f64.c:72:1
	add	sp, #12
	bx	lr
.Ltmp108:
.Lfunc_end6:
	.size	arm_mat_init_f64, .Lfunc_end6-arm_mat_init_f64
	.cfi_endproc
	.cantunwind
	.fnend
                                        @ -- End function
	.section	.text.arm_mat_init_f32,"ax",%progbits
	.hidden	arm_mat_init_f32                @ -- Begin function arm_mat_init_f32
	.globl	arm_mat_init_f32
	.p2align	2
	.type	arm_mat_init_f32,%function
	.code	16                              @ @arm_mat_init_f32
	.thumb_func
arm_mat_init_f32:
.Lfunc_begin7:
	.file	12 "D:\\horizon\\Horizon_Infantry (2)\\MDK-ARM" "../Middlewares/CMSIS/DSP/Src/MatrixFunctions/arm_mat_init_f32.c"
	.loc	12 63 0                         @ ../Middlewares/CMSIS/DSP/Src/MatrixFunctions/arm_mat_init_f32.c:63:0
	.fnstart
	.cfi_startproc
@ %bb.0:
	.pad	#12
	sub	sp, #12
	.cfi_def_cfa_offset 12
                                        @ kill: def $r12 killed $r2
                                        @ kill: def $r12 killed $r1
	str	r0, [sp, #8]
	strh.w	r1, [sp, #6]
	strh.w	r2, [sp, #4]
	str	r3, [sp]
.Ltmp109:
	.loc	12 65 16 prologue_end           @ ../Middlewares/CMSIS/DSP/Src/MatrixFunctions/arm_mat_init_f32.c:65:16
	ldrh.w	r0, [sp, #6]
	.loc	12 65 3 is_stmt 0               @ ../Middlewares/CMSIS/DSP/Src/MatrixFunctions/arm_mat_init_f32.c:65:3
	ldr	r1, [sp, #8]
	.loc	12 65 14                        @ ../Middlewares/CMSIS/DSP/Src/MatrixFunctions/arm_mat_init_f32.c:65:14
	strh	r0, [r1]
	.loc	12 68 16 is_stmt 1              @ ../Middlewares/CMSIS/DSP/Src/MatrixFunctions/arm_mat_init_f32.c:68:16
	ldrh.w	r0, [sp, #4]
	.loc	12 68 3 is_stmt 0               @ ../Middlewares/CMSIS/DSP/Src/MatrixFunctions/arm_mat_init_f32.c:68:3
	ldr	r1, [sp, #8]
	.loc	12 68 14                        @ ../Middlewares/CMSIS/DSP/Src/MatrixFunctions/arm_mat_init_f32.c:68:14
	strh	r0, [r1, #2]
	.loc	12 71 14 is_stmt 1              @ ../Middlewares/CMSIS/DSP/Src/MatrixFunctions/arm_mat_init_f32.c:71:14
	ldr	r0, [sp]
	.loc	12 71 3 is_stmt 0               @ ../Middlewares/CMSIS/DSP/Src/MatrixFunctions/arm_mat_init_f32.c:71:3
	ldr	r1, [sp, #8]
	.loc	12 71 12                        @ ../Middlewares/CMSIS/DSP/Src/MatrixFunctions/arm_mat_init_f32.c:71:12
	str	r0, [r1, #4]
	.loc	12 72 1 is_stmt 1               @ ../Middlewares/CMSIS/DSP/Src/MatrixFunctions/arm_mat_init_f32.c:72:1
	add	sp, #12
	bx	lr
.Ltmp110:
.Lfunc_end7:
	.size	arm_mat_init_f32, .Lfunc_end7-arm_mat_init_f32
	.cfi_endproc
	.cantunwind
	.fnend
                                        @ -- End function
	.section	.text.arm_mat_init_q15,"ax",%progbits
	.hidden	arm_mat_init_q15                @ -- Begin function arm_mat_init_q15
	.globl	arm_mat_init_q15
	.p2align	2
	.type	arm_mat_init_q15,%function
	.code	16                              @ @arm_mat_init_q15
	.thumb_func
arm_mat_init_q15:
.Lfunc_begin8:
	.file	13 "D:\\horizon\\Horizon_Infantry (2)\\MDK-ARM" "../Middlewares/CMSIS/DSP/Src/MatrixFunctions/arm_mat_init_q15.c"
	.loc	13 54 0                         @ ../Middlewares/CMSIS/DSP/Src/MatrixFunctions/arm_mat_init_q15.c:54:0
	.fnstart
	.cfi_startproc
@ %bb.0:
	.pad	#12
	sub	sp, #12
	.cfi_def_cfa_offset 12
                                        @ kill: def $r12 killed $r2
                                        @ kill: def $r12 killed $r1
	str	r0, [sp, #8]
	strh.w	r1, [sp, #6]
	strh.w	r2, [sp, #4]
	str	r3, [sp]
.Ltmp111:
	.loc	13 56 16 prologue_end           @ ../Middlewares/CMSIS/DSP/Src/MatrixFunctions/arm_mat_init_q15.c:56:16
	ldrh.w	r0, [sp, #6]
	.loc	13 56 3 is_stmt 0               @ ../Middlewares/CMSIS/DSP/Src/MatrixFunctions/arm_mat_init_q15.c:56:3
	ldr	r1, [sp, #8]
	.loc	13 56 14                        @ ../Middlewares/CMSIS/DSP/Src/MatrixFunctions/arm_mat_init_q15.c:56:14
	strh	r0, [r1]
	.loc	13 59 16 is_stmt 1              @ ../Middlewares/CMSIS/DSP/Src/MatrixFunctions/arm_mat_init_q15.c:59:16
	ldrh.w	r0, [sp, #4]
	.loc	13 59 3 is_stmt 0               @ ../Middlewares/CMSIS/DSP/Src/MatrixFunctions/arm_mat_init_q15.c:59:3
	ldr	r1, [sp, #8]
	.loc	13 59 14                        @ ../Middlewares/CMSIS/DSP/Src/MatrixFunctions/arm_mat_init_q15.c:59:14
	strh	r0, [r1, #2]
	.loc	13 62 14 is_stmt 1              @ ../Middlewares/CMSIS/DSP/Src/MatrixFunctions/arm_mat_init_q15.c:62:14
	ldr	r0, [sp]
	.loc	13 62 3 is_stmt 0               @ ../Middlewares/CMSIS/DSP/Src/MatrixFunctions/arm_mat_init_q15.c:62:3
	ldr	r1, [sp, #8]
	.loc	13 62 12                        @ ../Middlewares/CMSIS/DSP/Src/MatrixFunctions/arm_mat_init_q15.c:62:12
	str	r0, [r1, #4]
	.loc	13 63 1 is_stmt 1               @ ../Middlewares/CMSIS/DSP/Src/MatrixFunctions/arm_mat_init_q15.c:63:1
	add	sp, #12
	bx	lr
.Ltmp112:
.Lfunc_end8:
	.size	arm_mat_init_q15, .Lfunc_end8-arm_mat_init_q15
	.cfi_endproc
	.cantunwind
	.fnend
                                        @ -- End function
	.section	.text.arm_mat_init_q31,"ax",%progbits
	.hidden	arm_mat_init_q31                @ -- Begin function arm_mat_init_q31
	.globl	arm_mat_init_q31
	.p2align	2
	.type	arm_mat_init_q31,%function
	.code	16                              @ @arm_mat_init_q31
	.thumb_func
arm_mat_init_q31:
.Lfunc_begin9:
	.file	14 "D:\\horizon\\Horizon_Infantry (2)\\MDK-ARM" "../Middlewares/CMSIS/DSP/Src/MatrixFunctions/arm_mat_init_q31.c"
	.loc	14 56 0                         @ ../Middlewares/CMSIS/DSP/Src/MatrixFunctions/arm_mat_init_q31.c:56:0
	.fnstart
	.cfi_startproc
@ %bb.0:
	.pad	#12
	sub	sp, #12
	.cfi_def_cfa_offset 12
                                        @ kill: def $r12 killed $r2
                                        @ kill: def $r12 killed $r1
	str	r0, [sp, #8]
	strh.w	r1, [sp, #6]
	strh.w	r2, [sp, #4]
	str	r3, [sp]
.Ltmp113:
	.loc	14 58 16 prologue_end           @ ../Middlewares/CMSIS/DSP/Src/MatrixFunctions/arm_mat_init_q31.c:58:16
	ldrh.w	r0, [sp, #6]
	.loc	14 58 3 is_stmt 0               @ ../Middlewares/CMSIS/DSP/Src/MatrixFunctions/arm_mat_init_q31.c:58:3
	ldr	r1, [sp, #8]
	.loc	14 58 14                        @ ../Middlewares/CMSIS/DSP/Src/MatrixFunctions/arm_mat_init_q31.c:58:14
	strh	r0, [r1]
	.loc	14 61 16 is_stmt 1              @ ../Middlewares/CMSIS/DSP/Src/MatrixFunctions/arm_mat_init_q31.c:61:16
	ldrh.w	r0, [sp, #4]
	.loc	14 61 3 is_stmt 0               @ ../Middlewares/CMSIS/DSP/Src/MatrixFunctions/arm_mat_init_q31.c:61:3
	ldr	r1, [sp, #8]
	.loc	14 61 14                        @ ../Middlewares/CMSIS/DSP/Src/MatrixFunctions/arm_mat_init_q31.c:61:14
	strh	r0, [r1, #2]
	.loc	14 64 14 is_stmt 1              @ ../Middlewares/CMSIS/DSP/Src/MatrixFunctions/arm_mat_init_q31.c:64:14
	ldr	r0, [sp]
	.loc	14 64 3 is_stmt 0               @ ../Middlewares/CMSIS/DSP/Src/MatrixFunctions/arm_mat_init_q31.c:64:3
	ldr	r1, [sp, #8]
	.loc	14 64 12                        @ ../Middlewares/CMSIS/DSP/Src/MatrixFunctions/arm_mat_init_q31.c:64:12
	str	r0, [r1, #4]
	.loc	14 65 1 is_stmt 1               @ ../Middlewares/CMSIS/DSP/Src/MatrixFunctions/arm_mat_init_q31.c:65:1
	add	sp, #12
	bx	lr
.Ltmp114:
.Lfunc_end9:
	.size	arm_mat_init_q31, .Lfunc_end9-arm_mat_init_q31
	.cfi_endproc
	.cantunwind
	.fnend
                                        @ -- End function
	.section	.text.arm_mat_inverse_f32,"ax",%progbits
	.hidden	arm_mat_inverse_f32             @ -- Begin function arm_mat_inverse_f32
	.globl	arm_mat_inverse_f32
	.p2align	2
	.type	arm_mat_inverse_f32,%function
	.code	16                              @ @arm_mat_inverse_f32
	.thumb_func
arm_mat_inverse_f32:
.Lfunc_begin10:
	.file	15 "D:\\horizon\\Horizon_Infantry (2)\\MDK-ARM" "../Middlewares/CMSIS/DSP/Src/MatrixFunctions/arm_mat_inverse_f32.c"
	.loc	15 90 0                         @ ../Middlewares/CMSIS/DSP/Src/MatrixFunctions/arm_mat_inverse_f32.c:90:0
	.fnstart
	.cfi_startproc
@ %bb.0:
	.pad	#236
	sub	sp, #236
	.cfi_def_cfa_offset 236
	str	r0, [sp, #228]
	str	r1, [sp, #224]
.Ltmp115:
	.loc	15 91 20 prologue_end           @ ../Middlewares/CMSIS/DSP/Src/MatrixFunctions/arm_mat_inverse_f32.c:91:20
	ldr	r0, [sp, #228]
	.loc	15 91 26 is_stmt 0              @ ../Middlewares/CMSIS/DSP/Src/MatrixFunctions/arm_mat_inverse_f32.c:91:26
	ldr	r0, [r0, #4]
	.loc	15 91 14                        @ ../Middlewares/CMSIS/DSP/Src/MatrixFunctions/arm_mat_inverse_f32.c:91:14
	str	r0, [sp, #220]
	.loc	15 92 21 is_stmt 1              @ ../Middlewares/CMSIS/DSP/Src/MatrixFunctions/arm_mat_inverse_f32.c:92:21
	ldr	r0, [sp, #224]
	.loc	15 92 27 is_stmt 0              @ ../Middlewares/CMSIS/DSP/Src/MatrixFunctions/arm_mat_inverse_f32.c:92:27
	ldr	r0, [r0, #4]
	.loc	15 92 14                        @ ../Middlewares/CMSIS/DSP/Src/MatrixFunctions/arm_mat_inverse_f32.c:92:14
	str	r0, [sp, #216]
	.loc	15 95 22 is_stmt 1              @ ../Middlewares/CMSIS/DSP/Src/MatrixFunctions/arm_mat_inverse_f32.c:95:22
	ldr	r0, [sp, #228]
	.loc	15 95 28 is_stmt 0              @ ../Middlewares/CMSIS/DSP/Src/MatrixFunctions/arm_mat_inverse_f32.c:95:28
	ldrh	r0, [r0]
	.loc	15 95 12                        @ ../Middlewares/CMSIS/DSP/Src/MatrixFunctions/arm_mat_inverse_f32.c:95:12
	str	r0, [sp, #208]
	.loc	15 96 22 is_stmt 1              @ ../Middlewares/CMSIS/DSP/Src/MatrixFunctions/arm_mat_inverse_f32.c:96:22
	ldr	r0, [sp, #228]
	.loc	15 96 28 is_stmt 0              @ ../Middlewares/CMSIS/DSP/Src/MatrixFunctions/arm_mat_inverse_f32.c:96:28
	ldrh	r0, [r0, #2]
	.loc	15 96 12                        @ ../Middlewares/CMSIS/DSP/Src/MatrixFunctions/arm_mat_inverse_f32.c:96:12
	str	r0, [sp, #204]
	movs	r0, #0
	.loc	15 99 13 is_stmt 1              @ ../Middlewares/CMSIS/DSP/Src/MatrixFunctions/arm_mat_inverse_f32.c:99:13
	str	r0, [sp, #200]
	.loc	15 99 27 is_stmt 0              @ ../Middlewares/CMSIS/DSP/Src/MatrixFunctions/arm_mat_inverse_f32.c:99:27
	str	r0, [sp, #196]
	.loc	15 100 51 is_stmt 1             @ ../Middlewares/CMSIS/DSP/Src/MatrixFunctions/arm_mat_inverse_f32.c:100:51
	str	r0, [sp, #172]
.Ltmp116:
	.loc	15 106 8                        @ ../Middlewares/CMSIS/DSP/Src/MatrixFunctions/arm_mat_inverse_f32.c:106:8
	ldr	r1, [sp, #228]
	.loc	15 106 14 is_stmt 0             @ ../Middlewares/CMSIS/DSP/Src/MatrixFunctions/arm_mat_inverse_f32.c:106:14
	ldrh	r0, [r1]
	.loc	15 106 31                       @ ../Middlewares/CMSIS/DSP/Src/MatrixFunctions/arm_mat_inverse_f32.c:106:31
	ldrh	r1, [r1, #2]
	.loc	15 106 40                       @ ../Middlewares/CMSIS/DSP/Src/MatrixFunctions/arm_mat_inverse_f32.c:106:40
	cmp	r0, r1
	bne	.LBB10_3
	b	.LBB10_1
.LBB10_1:
	.loc	15 107 8 is_stmt 1              @ ../Middlewares/CMSIS/DSP/Src/MatrixFunctions/arm_mat_inverse_f32.c:107:8
	ldr	r1, [sp, #224]
	.loc	15 107 14 is_stmt 0             @ ../Middlewares/CMSIS/DSP/Src/MatrixFunctions/arm_mat_inverse_f32.c:107:14
	ldrh	r0, [r1]
	.loc	15 107 31                       @ ../Middlewares/CMSIS/DSP/Src/MatrixFunctions/arm_mat_inverse_f32.c:107:31
	ldrh	r1, [r1, #2]
	.loc	15 107 40                       @ ../Middlewares/CMSIS/DSP/Src/MatrixFunctions/arm_mat_inverse_f32.c:107:40
	cmp	r0, r1
	bne	.LBB10_3
	b	.LBB10_2
.LBB10_2:
	.loc	15 108 8 is_stmt 1              @ ../Middlewares/CMSIS/DSP/Src/MatrixFunctions/arm_mat_inverse_f32.c:108:8
	ldr	r0, [sp, #228]
	.loc	15 108 14 is_stmt 0             @ ../Middlewares/CMSIS/DSP/Src/MatrixFunctions/arm_mat_inverse_f32.c:108:14
	ldrh	r0, [r0]
	.loc	15 108 25                       @ ../Middlewares/CMSIS/DSP/Src/MatrixFunctions/arm_mat_inverse_f32.c:108:25
	ldr	r1, [sp, #224]
	.loc	15 108 31                       @ ../Middlewares/CMSIS/DSP/Src/MatrixFunctions/arm_mat_inverse_f32.c:108:31
	ldrh	r1, [r1]
.Ltmp117:
	.loc	15 106 7 is_stmt 1              @ ../Middlewares/CMSIS/DSP/Src/MatrixFunctions/arm_mat_inverse_f32.c:106:7
	cmp	r0, r1
	beq	.LBB10_4
	b	.LBB10_3
.LBB10_3:
	.loc	15 0 7 is_stmt 0                @ ../Middlewares/CMSIS/DSP/Src/MatrixFunctions/arm_mat_inverse_f32.c:0:7
	movs	r0, #253
.Ltmp118:
	.loc	15 111 12 is_stmt 1             @ ../Middlewares/CMSIS/DSP/Src/MatrixFunctions/arm_mat_inverse_f32.c:111:12
	strb.w	r0, [sp, #163]
	.loc	15 112 3                        @ ../Middlewares/CMSIS/DSP/Src/MatrixFunctions/arm_mat_inverse_f32.c:112:3
	b	.LBB10_81
.Ltmp119:
.LBB10_4:
	.loc	15 154 12                       @ ../Middlewares/CMSIS/DSP/Src/MatrixFunctions/arm_mat_inverse_f32.c:154:12
	ldr	r0, [sp, #216]
	.loc	15 154 10 is_stmt 0             @ ../Middlewares/CMSIS/DSP/Src/MatrixFunctions/arm_mat_inverse_f32.c:154:10
	str	r0, [sp, #212]
	.loc	15 157 14 is_stmt 1             @ ../Middlewares/CMSIS/DSP/Src/MatrixFunctions/arm_mat_inverse_f32.c:157:14
	ldr	r0, [sp, #208]
	.loc	15 157 12 is_stmt 0             @ ../Middlewares/CMSIS/DSP/Src/MatrixFunctions/arm_mat_inverse_f32.c:157:12
	str	r0, [sp, #176]
	.loc	15 160 5 is_stmt 1              @ ../Middlewares/CMSIS/DSP/Src/MatrixFunctions/arm_mat_inverse_f32.c:160:5
	b	.LBB10_5
.LBB10_5:                               @ =>This Loop Header: Depth=1
                                        @     Child Loop BB10_7 Depth 2
                                        @     Child Loop BB10_10 Depth 2
	.loc	15 160 12 is_stmt 0             @ ../Middlewares/CMSIS/DSP/Src/MatrixFunctions/arm_mat_inverse_f32.c:160:12
	ldr	r0, [sp, #176]
	.loc	15 160 5                        @ ../Middlewares/CMSIS/DSP/Src/MatrixFunctions/arm_mat_inverse_f32.c:160:5
	cbz	r0, .LBB10_13
	b	.LBB10_6
.LBB10_6:                               @   in Loop: Header=BB10_5 Depth=1
.Ltmp120:
	.loc	15 163 11 is_stmt 1             @ ../Middlewares/CMSIS/DSP/Src/MatrixFunctions/arm_mat_inverse_f32.c:163:11
	ldr	r0, [sp, #208]
	.loc	15 163 21 is_stmt 0             @ ../Middlewares/CMSIS/DSP/Src/MatrixFunctions/arm_mat_inverse_f32.c:163:21
	ldr	r1, [sp, #176]
	.loc	15 163 19                       @ ../Middlewares/CMSIS/DSP/Src/MatrixFunctions/arm_mat_inverse_f32.c:163:19
	subs	r0, r0, r1
	.loc	15 163 9                        @ ../Middlewares/CMSIS/DSP/Src/MatrixFunctions/arm_mat_inverse_f32.c:163:9
	str	r0, [sp, #168]
	.loc	15 164 7 is_stmt 1              @ ../Middlewares/CMSIS/DSP/Src/MatrixFunctions/arm_mat_inverse_f32.c:164:7
	b	.LBB10_7
.LBB10_7:                               @   Parent Loop BB10_5 Depth=1
                                        @ =>  This Inner Loop Header: Depth=2
	.loc	15 164 14 is_stmt 0             @ ../Middlewares/CMSIS/DSP/Src/MatrixFunctions/arm_mat_inverse_f32.c:164:14
	ldr	r0, [sp, #168]
	.loc	15 164 7                        @ ../Middlewares/CMSIS/DSP/Src/MatrixFunctions/arm_mat_inverse_f32.c:164:7
	cbz	r0, .LBB10_9
	b	.LBB10_8
.LBB10_8:                               @   in Loop: Header=BB10_7 Depth=2
.Ltmp121:
	.loc	15 166 14 is_stmt 1             @ ../Middlewares/CMSIS/DSP/Src/MatrixFunctions/arm_mat_inverse_f32.c:166:14
	ldr	r1, [sp, #212]
	adds	r0, r1, #4
	str	r0, [sp, #212]
	movs	r0, #0
	.loc	15 166 17 is_stmt 0             @ ../Middlewares/CMSIS/DSP/Src/MatrixFunctions/arm_mat_inverse_f32.c:166:17
	str	r0, [r1]
	.loc	15 167 10 is_stmt 1             @ ../Middlewares/CMSIS/DSP/Src/MatrixFunctions/arm_mat_inverse_f32.c:167:10
	ldr	r0, [sp, #168]
	subs	r0, #1
	str	r0, [sp, #168]
.Ltmp122:
	.loc	15 164 7                        @ ../Middlewares/CMSIS/DSP/Src/MatrixFunctions/arm_mat_inverse_f32.c:164:7
	b	.LBB10_7
.LBB10_9:                               @   in Loop: Header=BB10_5 Depth=1
	.loc	15 171 12                       @ ../Middlewares/CMSIS/DSP/Src/MatrixFunctions/arm_mat_inverse_f32.c:171:12
	ldr	r1, [sp, #212]
	adds	r0, r1, #4
	str	r0, [sp, #212]
	mov.w	r0, #1065353216
	.loc	15 171 15 is_stmt 0             @ ../Middlewares/CMSIS/DSP/Src/MatrixFunctions/arm_mat_inverse_f32.c:171:15
	str	r0, [r1]
	.loc	15 174 11 is_stmt 1             @ ../Middlewares/CMSIS/DSP/Src/MatrixFunctions/arm_mat_inverse_f32.c:174:11
	ldr	r0, [sp, #176]
	.loc	15 174 18 is_stmt 0             @ ../Middlewares/CMSIS/DSP/Src/MatrixFunctions/arm_mat_inverse_f32.c:174:18
	subs	r0, #1
	.loc	15 174 9                        @ ../Middlewares/CMSIS/DSP/Src/MatrixFunctions/arm_mat_inverse_f32.c:174:9
	str	r0, [sp, #168]
	.loc	15 175 7 is_stmt 1              @ ../Middlewares/CMSIS/DSP/Src/MatrixFunctions/arm_mat_inverse_f32.c:175:7
	b	.LBB10_10
.LBB10_10:                              @   Parent Loop BB10_5 Depth=1
                                        @ =>  This Inner Loop Header: Depth=2
	.loc	15 175 14 is_stmt 0             @ ../Middlewares/CMSIS/DSP/Src/MatrixFunctions/arm_mat_inverse_f32.c:175:14
	ldr	r0, [sp, #168]
	.loc	15 175 7                        @ ../Middlewares/CMSIS/DSP/Src/MatrixFunctions/arm_mat_inverse_f32.c:175:7
	cbz	r0, .LBB10_12
	b	.LBB10_11
.LBB10_11:                              @   in Loop: Header=BB10_10 Depth=2
.Ltmp123:
	.loc	15 177 14 is_stmt 1             @ ../Middlewares/CMSIS/DSP/Src/MatrixFunctions/arm_mat_inverse_f32.c:177:14
	ldr	r1, [sp, #212]
	adds	r0, r1, #4
	str	r0, [sp, #212]
	movs	r0, #0
	.loc	15 177 17 is_stmt 0             @ ../Middlewares/CMSIS/DSP/Src/MatrixFunctions/arm_mat_inverse_f32.c:177:17
	str	r0, [r1]
	.loc	15 178 10 is_stmt 1             @ ../Middlewares/CMSIS/DSP/Src/MatrixFunctions/arm_mat_inverse_f32.c:178:10
	ldr	r0, [sp, #168]
	subs	r0, #1
	str	r0, [sp, #168]
.Ltmp124:
	.loc	15 175 7                        @ ../Middlewares/CMSIS/DSP/Src/MatrixFunctions/arm_mat_inverse_f32.c:175:7
	b	.LBB10_10
.LBB10_12:                              @   in Loop: Header=BB10_5 Depth=1
	.loc	15 182 13                       @ ../Middlewares/CMSIS/DSP/Src/MatrixFunctions/arm_mat_inverse_f32.c:182:13
	ldr	r0, [sp, #176]
	subs	r0, #1
	str	r0, [sp, #176]
.Ltmp125:
	.loc	15 160 5                        @ ../Middlewares/CMSIS/DSP/Src/MatrixFunctions/arm_mat_inverse_f32.c:160:5
	b	.LBB10_5
.LBB10_13:
	.loc	15 0 5 is_stmt 0                @ ../Middlewares/CMSIS/DSP/Src/MatrixFunctions/arm_mat_inverse_f32.c:0:5
	movs	r0, #0
.Ltmp126:
	.loc	15 189 16 is_stmt 1             @ ../Middlewares/CMSIS/DSP/Src/MatrixFunctions/arm_mat_inverse_f32.c:189:16
	str	r0, [sp, #164]
	.loc	15 189 9 is_stmt 0              @ ../Middlewares/CMSIS/DSP/Src/MatrixFunctions/arm_mat_inverse_f32.c:189:9
	b	.LBB10_14
.LBB10_14:                              @ =>This Loop Header: Depth=1
                                        @     Child Loop BB10_16 Depth 2
                                        @     Child Loop BB10_24 Depth 2
                                        @     Child Loop BB10_28 Depth 2
                                        @     Child Loop BB10_36 Depth 2
                                        @     Child Loop BB10_40 Depth 2
                                        @     Child Loop BB10_44 Depth 2
                                        @       Child Loop BB10_46 Depth 3
                                        @       Child Loop BB10_50 Depth 3
                                        @     Child Loop BB10_56 Depth 2
                                        @       Child Loop BB10_58 Depth 3
                                        @       Child Loop BB10_62 Depth 3
.Ltmp127:
	.loc	15 189 22                       @ ../Middlewares/CMSIS/DSP/Src/MatrixFunctions/arm_mat_inverse_f32.c:189:22
	ldr	r0, [sp, #164]
	.loc	15 189 31                       @ ../Middlewares/CMSIS/DSP/Src/MatrixFunctions/arm_mat_inverse_f32.c:189:31
	ldr	r1, [sp, #204]
.Ltmp128:
	.loc	15 189 5                        @ ../Middlewares/CMSIS/DSP/Src/MatrixFunctions/arm_mat_inverse_f32.c:189:5
	cmp	r0, r1
	bhs.w	.LBB10_69
	b	.LBB10_15
.LBB10_15:                              @   in Loop: Header=BB10_14 Depth=1
.Ltmp129:
	.loc	15 196 18 is_stmt 1             @ ../Middlewares/CMSIS/DSP/Src/MatrixFunctions/arm_mat_inverse_f32.c:196:18
	ldr	r0, [sp, #164]
	.loc	15 196 16 is_stmt 0             @ ../Middlewares/CMSIS/DSP/Src/MatrixFunctions/arm_mat_inverse_f32.c:196:16
	str	r0, [sp, #188]
	.loc	15 199 17 is_stmt 1             @ ../Middlewares/CMSIS/DSP/Src/MatrixFunctions/arm_mat_inverse_f32.c:199:17
	ldr	r1, [sp, #228]
	.loc	15 199 24 is_stmt 0             @ ../Middlewares/CMSIS/DSP/Src/MatrixFunctions/arm_mat_inverse_f32.c:199:24
	ldr	r0, [r1, #4]
	.loc	15 199 38                       @ ../Middlewares/CMSIS/DSP/Src/MatrixFunctions/arm_mat_inverse_f32.c:199:38
	ldrh	r1, [r1, #2]
	.loc	15 199 48                       @ ../Middlewares/CMSIS/DSP/Src/MatrixFunctions/arm_mat_inverse_f32.c:199:48
	ldr	r2, [sp, #164]
	.loc	15 199 56                       @ ../Middlewares/CMSIS/DSP/Src/MatrixFunctions/arm_mat_inverse_f32.c:199:56
	mla	r1, r1, r2, r2
	.loc	15 199 16                       @ ../Middlewares/CMSIS/DSP/Src/MatrixFunctions/arm_mat_inverse_f32.c:199:16
	add.w	r0, r0, r1, lsl #2
	.loc	15 199 12                       @ ../Middlewares/CMSIS/DSP/Src/MatrixFunctions/arm_mat_inverse_f32.c:199:12
	str	r0, [sp, #212]
	.loc	15 200 16 is_stmt 1             @ ../Middlewares/CMSIS/DSP/Src/MatrixFunctions/arm_mat_inverse_f32.c:200:16
	ldr	r0, [sp, #212]
	.loc	15 200 15 is_stmt 0             @ ../Middlewares/CMSIS/DSP/Src/MatrixFunctions/arm_mat_inverse_f32.c:200:15
	ldr	r0, [r0]
	.loc	15 200 13                       @ ../Middlewares/CMSIS/DSP/Src/MatrixFunctions/arm_mat_inverse_f32.c:200:13
	str	r0, [sp, #200]
	.loc	15 201 21 is_stmt 1             @ ../Middlewares/CMSIS/DSP/Src/MatrixFunctions/arm_mat_inverse_f32.c:201:21
	ldr	r0, [sp, #164]
	.loc	15 201 19 is_stmt 0             @ ../Middlewares/CMSIS/DSP/Src/MatrixFunctions/arm_mat_inverse_f32.c:201:19
	str	r0, [sp, #192]
.Ltmp130:
	.loc	15 207 20 is_stmt 1             @ ../Middlewares/CMSIS/DSP/Src/MatrixFunctions/arm_mat_inverse_f32.c:207:20
	ldr	r0, [sp, #164]
	.loc	15 207 26 is_stmt 0             @ ../Middlewares/CMSIS/DSP/Src/MatrixFunctions/arm_mat_inverse_f32.c:207:26
	adds	r0, #1
	.loc	15 207 18                       @ ../Middlewares/CMSIS/DSP/Src/MatrixFunctions/arm_mat_inverse_f32.c:207:18
	str	r0, [sp, #180]
	.loc	15 207 12                       @ ../Middlewares/CMSIS/DSP/Src/MatrixFunctions/arm_mat_inverse_f32.c:207:12
	b	.LBB10_16
.LBB10_16:                              @   Parent Loop BB10_14 Depth=1
                                        @ =>  This Inner Loop Header: Depth=2
.Ltmp131:
	.loc	15 207 30                       @ ../Middlewares/CMSIS/DSP/Src/MatrixFunctions/arm_mat_inverse_f32.c:207:30
	ldr	r0, [sp, #180]
	.loc	15 207 38                       @ ../Middlewares/CMSIS/DSP/Src/MatrixFunctions/arm_mat_inverse_f32.c:207:38
	ldr	r1, [sp, #208]
.Ltmp132:
	.loc	15 207 7                        @ ../Middlewares/CMSIS/DSP/Src/MatrixFunctions/arm_mat_inverse_f32.c:207:7
	cmp	r0, r1
	bhs	.LBB10_21
	b	.LBB10_17
.LBB10_17:                              @   in Loop: Header=BB10_16 Depth=2
.Ltmp133:
	.loc	15 210 21 is_stmt 1             @ ../Middlewares/CMSIS/DSP/Src/MatrixFunctions/arm_mat_inverse_f32.c:210:21
	ldr	r1, [sp, #228]
	.loc	15 210 28 is_stmt 0             @ ../Middlewares/CMSIS/DSP/Src/MatrixFunctions/arm_mat_inverse_f32.c:210:28
	ldr	r0, [r1, #4]
	.loc	15 210 42                       @ ../Middlewares/CMSIS/DSP/Src/MatrixFunctions/arm_mat_inverse_f32.c:210:42
	ldrh	r1, [r1, #2]
	.loc	15 210 52                       @ ../Middlewares/CMSIS/DSP/Src/MatrixFunctions/arm_mat_inverse_f32.c:210:52
	ldr	r2, [sp, #180]
	.loc	15 210 62                       @ ../Middlewares/CMSIS/DSP/Src/MatrixFunctions/arm_mat_inverse_f32.c:210:62
	ldr	r3, [sp, #164]
	.loc	15 210 59                       @ ../Middlewares/CMSIS/DSP/Src/MatrixFunctions/arm_mat_inverse_f32.c:210:59
	mla	r1, r1, r2, r3
	.loc	15 210 20                       @ ../Middlewares/CMSIS/DSP/Src/MatrixFunctions/arm_mat_inverse_f32.c:210:20
	add.w	r0, r0, r1, lsl #2
	.loc	15 210 16                       @ ../Middlewares/CMSIS/DSP/Src/MatrixFunctions/arm_mat_inverse_f32.c:210:16
	str	r0, [sp, #212]
	.loc	15 211 23 is_stmt 1             @ ../Middlewares/CMSIS/DSP/Src/MatrixFunctions/arm_mat_inverse_f32.c:211:23
	ldr	r0, [sp, #212]
	.loc	15 211 22 is_stmt 0             @ ../Middlewares/CMSIS/DSP/Src/MatrixFunctions/arm_mat_inverse_f32.c:211:22
	ldr	r0, [r0]
	.loc	15 211 20                       @ ../Middlewares/CMSIS/DSP/Src/MatrixFunctions/arm_mat_inverse_f32.c:211:20
	str	r0, [sp, #196]
.Ltmp134:
	.loc	15 212 21 is_stmt 1             @ ../Middlewares/CMSIS/DSP/Src/MatrixFunctions/arm_mat_inverse_f32.c:212:21
	vldr	s0, [sp, #196]
	.loc	15 212 15 is_stmt 0             @ ../Middlewares/CMSIS/DSP/Src/MatrixFunctions/arm_mat_inverse_f32.c:212:15
	vabs.f32	s0, s0
	.loc	15 212 39                       @ ../Middlewares/CMSIS/DSP/Src/MatrixFunctions/arm_mat_inverse_f32.c:212:39
	vldr	s2, [sp, #200]
	.loc	15 212 33                       @ ../Middlewares/CMSIS/DSP/Src/MatrixFunctions/arm_mat_inverse_f32.c:212:33
	vabs.f32	s2, s2
.Ltmp135:
	.loc	15 212 15                       @ ../Middlewares/CMSIS/DSP/Src/MatrixFunctions/arm_mat_inverse_f32.c:212:15
	vcmp.f32	s0, s2
	vmrs	APSR_nzcv, fpscr
	ble	.LBB10_19
	b	.LBB10_18
.LBB10_18:                              @   in Loop: Header=BB10_16 Depth=2
.Ltmp136:
	.loc	15 214 27 is_stmt 1             @ ../Middlewares/CMSIS/DSP/Src/MatrixFunctions/arm_mat_inverse_f32.c:214:27
	ldr	r0, [sp, #180]
	.loc	15 214 25 is_stmt 0             @ ../Middlewares/CMSIS/DSP/Src/MatrixFunctions/arm_mat_inverse_f32.c:214:25
	str	r0, [sp, #192]
	.loc	15 215 21 is_stmt 1             @ ../Middlewares/CMSIS/DSP/Src/MatrixFunctions/arm_mat_inverse_f32.c:215:21
	ldr	r0, [sp, #196]
	.loc	15 215 19 is_stmt 0             @ ../Middlewares/CMSIS/DSP/Src/MatrixFunctions/arm_mat_inverse_f32.c:215:19
	str	r0, [sp, #200]
	.loc	15 216 11 is_stmt 1             @ ../Middlewares/CMSIS/DSP/Src/MatrixFunctions/arm_mat_inverse_f32.c:216:11
	b	.LBB10_19
.Ltmp137:
.LBB10_19:                              @   in Loop: Header=BB10_16 Depth=2
	.loc	15 217 7                        @ ../Middlewares/CMSIS/DSP/Src/MatrixFunctions/arm_mat_inverse_f32.c:217:7
	b	.LBB10_20
.Ltmp138:
.LBB10_20:                              @   in Loop: Header=BB10_16 Depth=2
	.loc	15 207 52                       @ ../Middlewares/CMSIS/DSP/Src/MatrixFunctions/arm_mat_inverse_f32.c:207:52
	ldr	r0, [sp, #180]
	adds	r0, #1
	str	r0, [sp, #180]
	.loc	15 207 7 is_stmt 0              @ ../Middlewares/CMSIS/DSP/Src/MatrixFunctions/arm_mat_inverse_f32.c:207:7
	b	.LBB10_16
.Ltmp139:
.LBB10_21:                              @   in Loop: Header=BB10_14 Depth=1
	.loc	15 221 12 is_stmt 1             @ ../Middlewares/CMSIS/DSP/Src/MatrixFunctions/arm_mat_inverse_f32.c:221:12
	vldr	s0, [sp, #200]
	.loc	15 221 27 is_stmt 0             @ ../Middlewares/CMSIS/DSP/Src/MatrixFunctions/arm_mat_inverse_f32.c:221:27
	vcmp.f32	s0, #0
	vmrs	APSR_nzcv, fpscr
	beq	.LBB10_32
	b	.LBB10_22
.LBB10_22:                              @   in Loop: Header=BB10_14 Depth=1
	.loc	15 221 31                       @ ../Middlewares/CMSIS/DSP/Src/MatrixFunctions/arm_mat_inverse_f32.c:221:31
	ldr	r0, [sp, #192]
	.loc	15 221 46                       @ ../Middlewares/CMSIS/DSP/Src/MatrixFunctions/arm_mat_inverse_f32.c:221:46
	ldr	r1, [sp, #164]
.Ltmp140:
	.loc	15 221 11                       @ ../Middlewares/CMSIS/DSP/Src/MatrixFunctions/arm_mat_inverse_f32.c:221:11
	cmp	r0, r1
	beq	.LBB10_32
	b	.LBB10_23
.LBB10_23:                              @   in Loop: Header=BB10_14 Depth=1
.Ltmp141:
	.loc	15 224 62 is_stmt 1             @ ../Middlewares/CMSIS/DSP/Src/MatrixFunctions/arm_mat_inverse_f32.c:224:62
	ldr	r0, [sp, #228]
	.loc	15 224 69 is_stmt 0             @ ../Middlewares/CMSIS/DSP/Src/MatrixFunctions/arm_mat_inverse_f32.c:224:69
	ldr	r0, [r0, #4]
	.loc	15 224 53                       @ ../Middlewares/CMSIS/DSP/Src/MatrixFunctions/arm_mat_inverse_f32.c:224:53
	str	r0, [sp, #148]
	.loc	15 224 96                       @ ../Middlewares/CMSIS/DSP/Src/MatrixFunctions/arm_mat_inverse_f32.c:224:96
	ldr	r0, [sp, #228]
	.loc	15 224 103                      @ ../Middlewares/CMSIS/DSP/Src/MatrixFunctions/arm_mat_inverse_f32.c:224:103
	ldr	r0, [r0, #4]
	.loc	15 224 87                       @ ../Middlewares/CMSIS/DSP/Src/MatrixFunctions/arm_mat_inverse_f32.c:224:87
	str	r0, [sp, #144]
	.loc	15 224 136                      @ ../Middlewares/CMSIS/DSP/Src/MatrixFunctions/arm_mat_inverse_f32.c:224:136
	ldr	r0, [sp, #228]
	.loc	15 224 143                      @ ../Middlewares/CMSIS/DSP/Src/MatrixFunctions/arm_mat_inverse_f32.c:224:143
	ldrh	r0, [r0, #2]
	.loc	15 224 124                      @ ../Middlewares/CMSIS/DSP/Src/MatrixFunctions/arm_mat_inverse_f32.c:224:124
	str	r0, [sp, #140]
	.loc	15 224 171                      @ ../Middlewares/CMSIS/DSP/Src/MatrixFunctions/arm_mat_inverse_f32.c:224:171
	ldr	r0, [sp, #140]
	.loc	15 224 182                      @ ../Middlewares/CMSIS/DSP/Src/MatrixFunctions/arm_mat_inverse_f32.c:224:182
	ldr	r1, [sp, #164]
	.loc	15 224 180                      @ ../Middlewares/CMSIS/DSP/Src/MatrixFunctions/arm_mat_inverse_f32.c:224:180
	subs	r0, r0, r1
	.loc	15 224 166                      @ ../Middlewares/CMSIS/DSP/Src/MatrixFunctions/arm_mat_inverse_f32.c:224:166
	str	r0, [sp, #136]
	.loc	15 224 199                      @ ../Middlewares/CMSIS/DSP/Src/MatrixFunctions/arm_mat_inverse_f32.c:224:199
	ldr	r0, [sp, #188]
	.loc	15 224 208                      @ ../Middlewares/CMSIS/DSP/Src/MatrixFunctions/arm_mat_inverse_f32.c:224:208
	ldr	r1, [sp, #140]
	.loc	15 224 220                      @ ../Middlewares/CMSIS/DSP/Src/MatrixFunctions/arm_mat_inverse_f32.c:224:220
	ldr	r2, [sp, #164]
	.loc	15 224 217                      @ ../Middlewares/CMSIS/DSP/Src/MatrixFunctions/arm_mat_inverse_f32.c:224:217
	mla	r1, r0, r1, r2
	.loc	15 224 196                      @ ../Middlewares/CMSIS/DSP/Src/MatrixFunctions/arm_mat_inverse_f32.c:224:196
	ldr	r0, [sp, #148]
	add.w	r0, r0, r1, lsl #2
	str	r0, [sp, #148]
	.loc	15 224 238                      @ ../Middlewares/CMSIS/DSP/Src/MatrixFunctions/arm_mat_inverse_f32.c:224:238
	ldr	r0, [sp, #192]
	.loc	15 224 250                      @ ../Middlewares/CMSIS/DSP/Src/MatrixFunctions/arm_mat_inverse_f32.c:224:250
	ldr	r1, [sp, #140]
	.loc	15 224 262                      @ ../Middlewares/CMSIS/DSP/Src/MatrixFunctions/arm_mat_inverse_f32.c:224:262
	ldr	r2, [sp, #164]
	.loc	15 224 259                      @ ../Middlewares/CMSIS/DSP/Src/MatrixFunctions/arm_mat_inverse_f32.c:224:259
	mla	r1, r0, r1, r2
	.loc	15 224 235                      @ ../Middlewares/CMSIS/DSP/Src/MatrixFunctions/arm_mat_inverse_f32.c:224:235
	ldr	r0, [sp, #144]
	add.w	r0, r0, r1, lsl #2
	str	r0, [sp, #144]
	movs	r0, #0
.Ltmp142:
	.loc	15 224 277                      @ ../Middlewares/CMSIS/DSP/Src/MatrixFunctions/arm_mat_inverse_f32.c:224:277
	str	r0, [sp, #156]
	.loc	15 224 275                      @ ../Middlewares/CMSIS/DSP/Src/MatrixFunctions/arm_mat_inverse_f32.c:224:275
	b	.LBB10_24
.LBB10_24:                              @   Parent Loop BB10_14 Depth=1
                                        @ =>  This Inner Loop Header: Depth=2
.Ltmp143:
	.loc	15 224 280                      @ ../Middlewares/CMSIS/DSP/Src/MatrixFunctions/arm_mat_inverse_f32.c:224:280
	ldr	r0, [sp, #156]
	.loc	15 224 285                      @ ../Middlewares/CMSIS/DSP/Src/MatrixFunctions/arm_mat_inverse_f32.c:224:285
	ldr	r1, [sp, #136]
.Ltmp144:
	.loc	15 224 271                      @ ../Middlewares/CMSIS/DSP/Src/MatrixFunctions/arm_mat_inverse_f32.c:224:271
	cmp	r0, r1
	bge	.LBB10_27
	b	.LBB10_25
.LBB10_25:                              @   in Loop: Header=BB10_24 Depth=2
.Ltmp145:
	.loc	15 224 304                      @ ../Middlewares/CMSIS/DSP/Src/MatrixFunctions/arm_mat_inverse_f32.c:224:304
	ldr	r0, [sp, #148]
	.loc	15 224 303                      @ ../Middlewares/CMSIS/DSP/Src/MatrixFunctions/arm_mat_inverse_f32.c:224:303
	ldr	r0, [r0]
	.loc	15 224 301                      @ ../Middlewares/CMSIS/DSP/Src/MatrixFunctions/arm_mat_inverse_f32.c:224:301
	str	r0, [sp, #152]
	.loc	15 224 323                      @ ../Middlewares/CMSIS/DSP/Src/MatrixFunctions/arm_mat_inverse_f32.c:224:323
	ldr	r0, [sp, #144]
	.loc	15 224 322                      @ ../Middlewares/CMSIS/DSP/Src/MatrixFunctions/arm_mat_inverse_f32.c:224:322
	ldr	r0, [r0]
	.loc	15 224 317                      @ ../Middlewares/CMSIS/DSP/Src/MatrixFunctions/arm_mat_inverse_f32.c:224:317
	ldr	r1, [sp, #148]
	adds	r2, r1, #4
	str	r2, [sp, #148]
	.loc	15 224 320                      @ ../Middlewares/CMSIS/DSP/Src/MatrixFunctions/arm_mat_inverse_f32.c:224:320
	str	r0, [r1]
	.loc	15 224 341                      @ ../Middlewares/CMSIS/DSP/Src/MatrixFunctions/arm_mat_inverse_f32.c:224:341
	ldr	r0, [sp, #152]
	.loc	15 224 336                      @ ../Middlewares/CMSIS/DSP/Src/MatrixFunctions/arm_mat_inverse_f32.c:224:336
	ldr	r1, [sp, #144]
	adds	r2, r1, #4
	str	r2, [sp, #144]
	.loc	15 224 339                      @ ../Middlewares/CMSIS/DSP/Src/MatrixFunctions/arm_mat_inverse_f32.c:224:339
	str	r0, [r1]
	.loc	15 224 346                      @ ../Middlewares/CMSIS/DSP/Src/MatrixFunctions/arm_mat_inverse_f32.c:224:346
	b	.LBB10_26
.Ltmp146:
.LBB10_26:                              @   in Loop: Header=BB10_24 Depth=2
	.loc	15 224 291                      @ ../Middlewares/CMSIS/DSP/Src/MatrixFunctions/arm_mat_inverse_f32.c:224:291
	ldr	r0, [sp, #156]
	adds	r0, #1
	str	r0, [sp, #156]
	.loc	15 224 271                      @ ../Middlewares/CMSIS/DSP/Src/MatrixFunctions/arm_mat_inverse_f32.c:224:271
	b	.LBB10_24
.Ltmp147:
.LBB10_27:                              @   in Loop: Header=BB10_14 Depth=1
	.loc	15 225 62 is_stmt 1             @ ../Middlewares/CMSIS/DSP/Src/MatrixFunctions/arm_mat_inverse_f32.c:225:62
	ldr	r0, [sp, #224]
	.loc	15 225 69 is_stmt 0             @ ../Middlewares/CMSIS/DSP/Src/MatrixFunctions/arm_mat_inverse_f32.c:225:69
	ldr	r0, [r0, #4]
	.loc	15 225 53                       @ ../Middlewares/CMSIS/DSP/Src/MatrixFunctions/arm_mat_inverse_f32.c:225:53
	str	r0, [sp, #124]
	.loc	15 225 96                       @ ../Middlewares/CMSIS/DSP/Src/MatrixFunctions/arm_mat_inverse_f32.c:225:96
	ldr	r0, [sp, #224]
	.loc	15 225 103                      @ ../Middlewares/CMSIS/DSP/Src/MatrixFunctions/arm_mat_inverse_f32.c:225:103
	ldr	r0, [r0, #4]
	.loc	15 225 87                       @ ../Middlewares/CMSIS/DSP/Src/MatrixFunctions/arm_mat_inverse_f32.c:225:87
	str	r0, [sp, #120]
	.loc	15 225 136                      @ ../Middlewares/CMSIS/DSP/Src/MatrixFunctions/arm_mat_inverse_f32.c:225:136
	ldr	r0, [sp, #224]
	.loc	15 225 143                      @ ../Middlewares/CMSIS/DSP/Src/MatrixFunctions/arm_mat_inverse_f32.c:225:143
	ldrh	r0, [r0, #2]
	.loc	15 225 124                      @ ../Middlewares/CMSIS/DSP/Src/MatrixFunctions/arm_mat_inverse_f32.c:225:124
	str	r0, [sp, #116]
	.loc	15 225 171                      @ ../Middlewares/CMSIS/DSP/Src/MatrixFunctions/arm_mat_inverse_f32.c:225:171
	ldr	r0, [sp, #116]
	.loc	15 225 166                      @ ../Middlewares/CMSIS/DSP/Src/MatrixFunctions/arm_mat_inverse_f32.c:225:166
	str	r0, [sp, #112]
	.loc	15 225 194                      @ ../Middlewares/CMSIS/DSP/Src/MatrixFunctions/arm_mat_inverse_f32.c:225:194
	ldr	r0, [sp, #188]
	.loc	15 225 203                      @ ../Middlewares/CMSIS/DSP/Src/MatrixFunctions/arm_mat_inverse_f32.c:225:203
	ldr	r1, [sp, #116]
	.loc	15 225 202                      @ ../Middlewares/CMSIS/DSP/Src/MatrixFunctions/arm_mat_inverse_f32.c:225:202
	muls	r1, r0, r1
	.loc	15 225 191                      @ ../Middlewares/CMSIS/DSP/Src/MatrixFunctions/arm_mat_inverse_f32.c:225:191
	ldr	r0, [sp, #124]
	add.w	r0, r0, r1, lsl #2
	str	r0, [sp, #124]
	.loc	15 225 228                      @ ../Middlewares/CMSIS/DSP/Src/MatrixFunctions/arm_mat_inverse_f32.c:225:228
	ldr	r0, [sp, #192]
	.loc	15 225 240                      @ ../Middlewares/CMSIS/DSP/Src/MatrixFunctions/arm_mat_inverse_f32.c:225:240
	ldr	r1, [sp, #116]
	.loc	15 225 239                      @ ../Middlewares/CMSIS/DSP/Src/MatrixFunctions/arm_mat_inverse_f32.c:225:239
	muls	r1, r0, r1
	.loc	15 225 225                      @ ../Middlewares/CMSIS/DSP/Src/MatrixFunctions/arm_mat_inverse_f32.c:225:225
	ldr	r0, [sp, #120]
	add.w	r0, r0, r1, lsl #2
	str	r0, [sp, #120]
	movs	r0, #0
.Ltmp148:
	.loc	15 225 262                      @ ../Middlewares/CMSIS/DSP/Src/MatrixFunctions/arm_mat_inverse_f32.c:225:262
	str	r0, [sp, #132]
	.loc	15 225 260                      @ ../Middlewares/CMSIS/DSP/Src/MatrixFunctions/arm_mat_inverse_f32.c:225:260
	b	.LBB10_28
.LBB10_28:                              @   Parent Loop BB10_14 Depth=1
                                        @ =>  This Inner Loop Header: Depth=2
.Ltmp149:
	.loc	15 225 265                      @ ../Middlewares/CMSIS/DSP/Src/MatrixFunctions/arm_mat_inverse_f32.c:225:265
	ldr	r0, [sp, #132]
	.loc	15 225 270                      @ ../Middlewares/CMSIS/DSP/Src/MatrixFunctions/arm_mat_inverse_f32.c:225:270
	ldr	r1, [sp, #112]
.Ltmp150:
	.loc	15 225 256                      @ ../Middlewares/CMSIS/DSP/Src/MatrixFunctions/arm_mat_inverse_f32.c:225:256
	cmp	r0, r1
	bge	.LBB10_31
	b	.LBB10_29
.LBB10_29:                              @   in Loop: Header=BB10_28 Depth=2
.Ltmp151:
	.loc	15 225 289                      @ ../Middlewares/CMSIS/DSP/Src/MatrixFunctions/arm_mat_inverse_f32.c:225:289
	ldr	r0, [sp, #124]
	.loc	15 225 288                      @ ../Middlewares/CMSIS/DSP/Src/MatrixFunctions/arm_mat_inverse_f32.c:225:288
	ldr	r0, [r0]
	.loc	15 225 286                      @ ../Middlewares/CMSIS/DSP/Src/MatrixFunctions/arm_mat_inverse_f32.c:225:286
	str	r0, [sp, #128]
	.loc	15 225 308                      @ ../Middlewares/CMSIS/DSP/Src/MatrixFunctions/arm_mat_inverse_f32.c:225:308
	ldr	r0, [sp, #120]
	.loc	15 225 307                      @ ../Middlewares/CMSIS/DSP/Src/MatrixFunctions/arm_mat_inverse_f32.c:225:307
	ldr	r0, [r0]
	.loc	15 225 302                      @ ../Middlewares/CMSIS/DSP/Src/MatrixFunctions/arm_mat_inverse_f32.c:225:302
	ldr	r1, [sp, #124]
	adds	r2, r1, #4
	str	r2, [sp, #124]
	.loc	15 225 305                      @ ../Middlewares/CMSIS/DSP/Src/MatrixFunctions/arm_mat_inverse_f32.c:225:305
	str	r0, [r1]
	.loc	15 225 326                      @ ../Middlewares/CMSIS/DSP/Src/MatrixFunctions/arm_mat_inverse_f32.c:225:326
	ldr	r0, [sp, #128]
	.loc	15 225 321                      @ ../Middlewares/CMSIS/DSP/Src/MatrixFunctions/arm_mat_inverse_f32.c:225:321
	ldr	r1, [sp, #120]
	adds	r2, r1, #4
	str	r2, [sp, #120]
	.loc	15 225 324                      @ ../Middlewares/CMSIS/DSP/Src/MatrixFunctions/arm_mat_inverse_f32.c:225:324
	str	r0, [r1]
	.loc	15 225 331                      @ ../Middlewares/CMSIS/DSP/Src/MatrixFunctions/arm_mat_inverse_f32.c:225:331
	b	.LBB10_30
.Ltmp152:
.LBB10_30:                              @   in Loop: Header=BB10_28 Depth=2
	.loc	15 225 276                      @ ../Middlewares/CMSIS/DSP/Src/MatrixFunctions/arm_mat_inverse_f32.c:225:276
	ldr	r0, [sp, #132]
	adds	r0, #1
	str	r0, [sp, #132]
	.loc	15 225 256                      @ ../Middlewares/CMSIS/DSP/Src/MatrixFunctions/arm_mat_inverse_f32.c:225:256
	b	.LBB10_28
.Ltmp153:
.LBB10_31:                              @   in Loop: Header=BB10_14 Depth=1
	.loc	15 0 256                        @ ../Middlewares/CMSIS/DSP/Src/MatrixFunctions/arm_mat_inverse_f32.c:0:256
	movs	r0, #1
	.loc	15 229 18 is_stmt 1             @ ../Middlewares/CMSIS/DSP/Src/MatrixFunctions/arm_mat_inverse_f32.c:229:18
	str	r0, [sp, #172]
	.loc	15 230 8                        @ ../Middlewares/CMSIS/DSP/Src/MatrixFunctions/arm_mat_inverse_f32.c:230:8
	b	.LBB10_32
.Ltmp154:
.LBB10_32:                              @   in Loop: Header=BB10_14 Depth=1
	.loc	15 237 12                       @ ../Middlewares/CMSIS/DSP/Src/MatrixFunctions/arm_mat_inverse_f32.c:237:12
	ldr	r0, [sp, #172]
	.loc	15 237 24 is_stmt 0             @ ../Middlewares/CMSIS/DSP/Src/MatrixFunctions/arm_mat_inverse_f32.c:237:24
	cmp	r0, #1
	beq	.LBB10_35
	b	.LBB10_33
.LBB10_33:                              @   in Loop: Header=BB10_14 Depth=1
	.loc	15 237 28                       @ ../Middlewares/CMSIS/DSP/Src/MatrixFunctions/arm_mat_inverse_f32.c:237:28
	vldr	s0, [sp, #200]
.Ltmp155:
	.loc	15 237 11                       @ ../Middlewares/CMSIS/DSP/Src/MatrixFunctions/arm_mat_inverse_f32.c:237:11
	vcmp.f32	s0, #0
	vmrs	APSR_nzcv, fpscr
	bne	.LBB10_35
	b	.LBB10_34
.LBB10_34:
	.loc	15 0 11                         @ ../Middlewares/CMSIS/DSP/Src/MatrixFunctions/arm_mat_inverse_f32.c:0:11
	movs	r0, #251
.Ltmp156:
	.loc	15 239 9 is_stmt 1              @ ../Middlewares/CMSIS/DSP/Src/MatrixFunctions/arm_mat_inverse_f32.c:239:9
	strb.w	r0, [sp, #235]
	b	.LBB10_82
.Ltmp157:
.LBB10_35:                              @   in Loop: Header=BB10_14 Depth=1
	.loc	15 244 22                       @ ../Middlewares/CMSIS/DSP/Src/MatrixFunctions/arm_mat_inverse_f32.c:244:22
	vldr	s2, [sp, #200]
	vmov.f32	s0, #1.000000e+00
	.loc	15 244 20 is_stmt 0             @ ../Middlewares/CMSIS/DSP/Src/MatrixFunctions/arm_mat_inverse_f32.c:244:20
	vdiv.f32	s0, s0, s2
	.loc	15 244 13                       @ ../Middlewares/CMSIS/DSP/Src/MatrixFunctions/arm_mat_inverse_f32.c:244:13
	vstr	s0, [sp, #200]
.Ltmp158:
	.loc	15 246 40 is_stmt 1             @ ../Middlewares/CMSIS/DSP/Src/MatrixFunctions/arm_mat_inverse_f32.c:246:40
	ldr	r0, [sp, #228]
	.loc	15 246 47 is_stmt 0             @ ../Middlewares/CMSIS/DSP/Src/MatrixFunctions/arm_mat_inverse_f32.c:246:47
	ldr	r0, [r0, #4]
	.loc	15 246 32                       @ ../Middlewares/CMSIS/DSP/Src/MatrixFunctions/arm_mat_inverse_f32.c:246:32
	str	r0, [sp, #104]
	.loc	15 246 80                       @ ../Middlewares/CMSIS/DSP/Src/MatrixFunctions/arm_mat_inverse_f32.c:246:80
	ldr	r0, [sp, #228]
	.loc	15 246 87                       @ ../Middlewares/CMSIS/DSP/Src/MatrixFunctions/arm_mat_inverse_f32.c:246:87
	ldrh	r0, [r0, #2]
	.loc	15 246 68                       @ ../Middlewares/CMSIS/DSP/Src/MatrixFunctions/arm_mat_inverse_f32.c:246:68
	str	r0, [sp, #100]
	.loc	15 246 115                      @ ../Middlewares/CMSIS/DSP/Src/MatrixFunctions/arm_mat_inverse_f32.c:246:115
	ldr	r0, [sp, #100]
	.loc	15 246 126                      @ ../Middlewares/CMSIS/DSP/Src/MatrixFunctions/arm_mat_inverse_f32.c:246:126
	ldr	r1, [sp, #164]
	.loc	15 246 124                      @ ../Middlewares/CMSIS/DSP/Src/MatrixFunctions/arm_mat_inverse_f32.c:246:124
	subs	r0, r0, r1
	.loc	15 246 110                      @ ../Middlewares/CMSIS/DSP/Src/MatrixFunctions/arm_mat_inverse_f32.c:246:110
	str	r0, [sp, #96]
	.loc	15 246 142                      @ ../Middlewares/CMSIS/DSP/Src/MatrixFunctions/arm_mat_inverse_f32.c:246:142
	ldr	r0, [sp, #188]
	.loc	15 246 151                      @ ../Middlewares/CMSIS/DSP/Src/MatrixFunctions/arm_mat_inverse_f32.c:246:151
	ldr	r1, [sp, #100]
	.loc	15 246 163                      @ ../Middlewares/CMSIS/DSP/Src/MatrixFunctions/arm_mat_inverse_f32.c:246:163
	ldr	r2, [sp, #164]
	.loc	15 246 160                      @ ../Middlewares/CMSIS/DSP/Src/MatrixFunctions/arm_mat_inverse_f32.c:246:160
	mla	r1, r0, r1, r2
	.loc	15 246 139                      @ ../Middlewares/CMSIS/DSP/Src/MatrixFunctions/arm_mat_inverse_f32.c:246:139
	ldr	r0, [sp, #104]
	add.w	r0, r0, r1, lsl #2
	str	r0, [sp, #104]
	movs	r0, #0
.Ltmp159:
	.loc	15 246 178                      @ ../Middlewares/CMSIS/DSP/Src/MatrixFunctions/arm_mat_inverse_f32.c:246:178
	str	r0, [sp, #108]
	.loc	15 246 176                      @ ../Middlewares/CMSIS/DSP/Src/MatrixFunctions/arm_mat_inverse_f32.c:246:176
	b	.LBB10_36
.LBB10_36:                              @   Parent Loop BB10_14 Depth=1
                                        @ =>  This Inner Loop Header: Depth=2
.Ltmp160:
	.loc	15 246 181                      @ ../Middlewares/CMSIS/DSP/Src/MatrixFunctions/arm_mat_inverse_f32.c:246:181
	ldr	r0, [sp, #108]
	.loc	15 246 186                      @ ../Middlewares/CMSIS/DSP/Src/MatrixFunctions/arm_mat_inverse_f32.c:246:186
	ldr	r1, [sp, #96]
.Ltmp161:
	.loc	15 246 172                      @ ../Middlewares/CMSIS/DSP/Src/MatrixFunctions/arm_mat_inverse_f32.c:246:172
	cmp	r0, r1
	bge	.LBB10_39
	b	.LBB10_37
.LBB10_37:                              @   in Loop: Header=BB10_36 Depth=2
.Ltmp162:
	.loc	15 246 209                      @ ../Middlewares/CMSIS/DSP/Src/MatrixFunctions/arm_mat_inverse_f32.c:246:209
	vldr	s2, [sp, #200]
	.loc	15 246 203                      @ ../Middlewares/CMSIS/DSP/Src/MatrixFunctions/arm_mat_inverse_f32.c:246:203
	ldr	r0, [sp, #104]
	adds	r1, r0, #4
	str	r1, [sp, #104]
	.loc	15 246 206                      @ ../Middlewares/CMSIS/DSP/Src/MatrixFunctions/arm_mat_inverse_f32.c:246:206
	vldr	s0, [r0]
	vmul.f32	s0, s0, s2
	vstr	s0, [r0]
	.loc	15 246 216                      @ ../Middlewares/CMSIS/DSP/Src/MatrixFunctions/arm_mat_inverse_f32.c:246:216
	b	.LBB10_38
.Ltmp163:
.LBB10_38:                              @   in Loop: Header=BB10_36 Depth=2
	.loc	15 246 192                      @ ../Middlewares/CMSIS/DSP/Src/MatrixFunctions/arm_mat_inverse_f32.c:246:192
	ldr	r0, [sp, #108]
	adds	r0, #1
	str	r0, [sp, #108]
	.loc	15 246 172                      @ ../Middlewares/CMSIS/DSP/Src/MatrixFunctions/arm_mat_inverse_f32.c:246:172
	b	.LBB10_36
.Ltmp164:
.LBB10_39:                              @   in Loop: Header=BB10_14 Depth=1
	.loc	15 247 40 is_stmt 1             @ ../Middlewares/CMSIS/DSP/Src/MatrixFunctions/arm_mat_inverse_f32.c:247:40
	ldr	r0, [sp, #224]
	.loc	15 247 47 is_stmt 0             @ ../Middlewares/CMSIS/DSP/Src/MatrixFunctions/arm_mat_inverse_f32.c:247:47
	ldr	r0, [r0, #4]
	.loc	15 247 32                       @ ../Middlewares/CMSIS/DSP/Src/MatrixFunctions/arm_mat_inverse_f32.c:247:32
	str	r0, [sp, #88]
	.loc	15 247 80                       @ ../Middlewares/CMSIS/DSP/Src/MatrixFunctions/arm_mat_inverse_f32.c:247:80
	ldr	r0, [sp, #224]
	.loc	15 247 87                       @ ../Middlewares/CMSIS/DSP/Src/MatrixFunctions/arm_mat_inverse_f32.c:247:87
	ldrh	r0, [r0, #2]
	.loc	15 247 68                       @ ../Middlewares/CMSIS/DSP/Src/MatrixFunctions/arm_mat_inverse_f32.c:247:68
	str	r0, [sp, #84]
	.loc	15 247 115                      @ ../Middlewares/CMSIS/DSP/Src/MatrixFunctions/arm_mat_inverse_f32.c:247:115
	ldr	r0, [sp, #84]
	.loc	15 247 110                      @ ../Middlewares/CMSIS/DSP/Src/MatrixFunctions/arm_mat_inverse_f32.c:247:110
	str	r0, [sp, #80]
	.loc	15 247 137                      @ ../Middlewares/CMSIS/DSP/Src/MatrixFunctions/arm_mat_inverse_f32.c:247:137
	ldr	r0, [sp, #188]
	.loc	15 247 146                      @ ../Middlewares/CMSIS/DSP/Src/MatrixFunctions/arm_mat_inverse_f32.c:247:146
	ldr	r1, [sp, #84]
	.loc	15 247 145                      @ ../Middlewares/CMSIS/DSP/Src/MatrixFunctions/arm_mat_inverse_f32.c:247:145
	muls	r1, r0, r1
	.loc	15 247 134                      @ ../Middlewares/CMSIS/DSP/Src/MatrixFunctions/arm_mat_inverse_f32.c:247:134
	ldr	r0, [sp, #88]
	add.w	r0, r0, r1, lsl #2
	str	r0, [sp, #88]
	movs	r0, #0
.Ltmp165:
	.loc	15 247 168                      @ ../Middlewares/CMSIS/DSP/Src/MatrixFunctions/arm_mat_inverse_f32.c:247:168
	str	r0, [sp, #92]
	.loc	15 247 166                      @ ../Middlewares/CMSIS/DSP/Src/MatrixFunctions/arm_mat_inverse_f32.c:247:166
	b	.LBB10_40
.LBB10_40:                              @   Parent Loop BB10_14 Depth=1
                                        @ =>  This Inner Loop Header: Depth=2
.Ltmp166:
	.loc	15 247 171                      @ ../Middlewares/CMSIS/DSP/Src/MatrixFunctions/arm_mat_inverse_f32.c:247:171
	ldr	r0, [sp, #92]
	.loc	15 247 176                      @ ../Middlewares/CMSIS/DSP/Src/MatrixFunctions/arm_mat_inverse_f32.c:247:176
	ldr	r1, [sp, #80]
.Ltmp167:
	.loc	15 247 162                      @ ../Middlewares/CMSIS/DSP/Src/MatrixFunctions/arm_mat_inverse_f32.c:247:162
	cmp	r0, r1
	bge	.LBB10_43
	b	.LBB10_41
.LBB10_41:                              @   in Loop: Header=BB10_40 Depth=2
.Ltmp168:
	.loc	15 247 199                      @ ../Middlewares/CMSIS/DSP/Src/MatrixFunctions/arm_mat_inverse_f32.c:247:199
	vldr	s2, [sp, #200]
	.loc	15 247 193                      @ ../Middlewares/CMSIS/DSP/Src/MatrixFunctions/arm_mat_inverse_f32.c:247:193
	ldr	r0, [sp, #88]
	adds	r1, r0, #4
	str	r1, [sp, #88]
	.loc	15 247 196                      @ ../Middlewares/CMSIS/DSP/Src/MatrixFunctions/arm_mat_inverse_f32.c:247:196
	vldr	s0, [r0]
	vmul.f32	s0, s0, s2
	vstr	s0, [r0]
	.loc	15 247 206                      @ ../Middlewares/CMSIS/DSP/Src/MatrixFunctions/arm_mat_inverse_f32.c:247:206
	b	.LBB10_42
.Ltmp169:
.LBB10_42:                              @   in Loop: Header=BB10_40 Depth=2
	.loc	15 247 182                      @ ../Middlewares/CMSIS/DSP/Src/MatrixFunctions/arm_mat_inverse_f32.c:247:182
	ldr	r0, [sp, #92]
	adds	r0, #1
	str	r0, [sp, #92]
	.loc	15 247 162                      @ ../Middlewares/CMSIS/DSP/Src/MatrixFunctions/arm_mat_inverse_f32.c:247:162
	b	.LBB10_40
.Ltmp170:
.LBB10_43:                              @   in Loop: Header=BB10_14 Depth=1
	.loc	15 0 162                        @ ../Middlewares/CMSIS/DSP/Src/MatrixFunctions/arm_mat_inverse_f32.c:0:162
	movs	r0, #0
	.loc	15 253 13 is_stmt 1             @ ../Middlewares/CMSIS/DSP/Src/MatrixFunctions/arm_mat_inverse_f32.c:253:13
	str	r0, [sp, #180]
	.loc	15 254 7                        @ ../Middlewares/CMSIS/DSP/Src/MatrixFunctions/arm_mat_inverse_f32.c:254:7
	b	.LBB10_44
.LBB10_44:                              @   Parent Loop BB10_14 Depth=1
                                        @ =>  This Loop Header: Depth=2
                                        @       Child Loop BB10_46 Depth 3
                                        @       Child Loop BB10_50 Depth 3
.Ltmp171:
	.loc	15 254 13 is_stmt 0             @ ../Middlewares/CMSIS/DSP/Src/MatrixFunctions/arm_mat_inverse_f32.c:254:13
	ldr	r0, [sp, #180]
	.loc	15 254 21                       @ ../Middlewares/CMSIS/DSP/Src/MatrixFunctions/arm_mat_inverse_f32.c:254:21
	ldr	r1, [sp, #188]
.Ltmp172:
	.loc	15 254 7                        @ ../Middlewares/CMSIS/DSP/Src/MatrixFunctions/arm_mat_inverse_f32.c:254:7
	cmp	r0, r1
	bhs.w	.LBB10_55
	b	.LBB10_45
.LBB10_45:                              @   in Loop: Header=BB10_44 Depth=2
.Ltmp173:
	.loc	15 256 22 is_stmt 1             @ ../Middlewares/CMSIS/DSP/Src/MatrixFunctions/arm_mat_inverse_f32.c:256:22
	ldr	r1, [sp, #228]
	.loc	15 256 29 is_stmt 0             @ ../Middlewares/CMSIS/DSP/Src/MatrixFunctions/arm_mat_inverse_f32.c:256:29
	ldr	r0, [r1, #4]
	.loc	15 256 43                       @ ../Middlewares/CMSIS/DSP/Src/MatrixFunctions/arm_mat_inverse_f32.c:256:43
	ldrh	r1, [r1, #2]
	.loc	15 256 53                       @ ../Middlewares/CMSIS/DSP/Src/MatrixFunctions/arm_mat_inverse_f32.c:256:53
	ldr	r2, [sp, #180]
	.loc	15 256 63                       @ ../Middlewares/CMSIS/DSP/Src/MatrixFunctions/arm_mat_inverse_f32.c:256:63
	ldr	r3, [sp, #164]
	.loc	15 256 60                       @ ../Middlewares/CMSIS/DSP/Src/MatrixFunctions/arm_mat_inverse_f32.c:256:60
	mla	r1, r1, r2, r3
	.loc	15 256 21                       @ ../Middlewares/CMSIS/DSP/Src/MatrixFunctions/arm_mat_inverse_f32.c:256:21
	add.w	r0, r0, r1, lsl #2
	.loc	15 256 17                       @ ../Middlewares/CMSIS/DSP/Src/MatrixFunctions/arm_mat_inverse_f32.c:256:17
	str	r0, [sp, #212]
	.loc	15 257 21 is_stmt 1             @ ../Middlewares/CMSIS/DSP/Src/MatrixFunctions/arm_mat_inverse_f32.c:257:21
	ldr	r0, [sp, #212]
	.loc	15 257 20 is_stmt 0             @ ../Middlewares/CMSIS/DSP/Src/MatrixFunctions/arm_mat_inverse_f32.c:257:20
	ldr	r0, [r0]
	.loc	15 257 18                       @ ../Middlewares/CMSIS/DSP/Src/MatrixFunctions/arm_mat_inverse_f32.c:257:18
	str	r0, [sp, #200]
.Ltmp174:
	.loc	15 259 46 is_stmt 1             @ ../Middlewares/CMSIS/DSP/Src/MatrixFunctions/arm_mat_inverse_f32.c:259:46
	ldr	r0, [sp, #228]
	.loc	15 259 53 is_stmt 0             @ ../Middlewares/CMSIS/DSP/Src/MatrixFunctions/arm_mat_inverse_f32.c:259:53
	ldr	r0, [r0, #4]
	.loc	15 259 37                       @ ../Middlewares/CMSIS/DSP/Src/MatrixFunctions/arm_mat_inverse_f32.c:259:37
	str	r0, [sp, #72]
	.loc	15 259 80                       @ ../Middlewares/CMSIS/DSP/Src/MatrixFunctions/arm_mat_inverse_f32.c:259:80
	ldr	r0, [sp, #228]
	.loc	15 259 87                       @ ../Middlewares/CMSIS/DSP/Src/MatrixFunctions/arm_mat_inverse_f32.c:259:87
	ldr	r0, [r0, #4]
	.loc	15 259 71                       @ ../Middlewares/CMSIS/DSP/Src/MatrixFunctions/arm_mat_inverse_f32.c:259:71
	str	r0, [sp, #68]
	.loc	15 259 120                      @ ../Middlewares/CMSIS/DSP/Src/MatrixFunctions/arm_mat_inverse_f32.c:259:120
	ldr	r0, [sp, #228]
	.loc	15 259 127                      @ ../Middlewares/CMSIS/DSP/Src/MatrixFunctions/arm_mat_inverse_f32.c:259:127
	ldrh	r0, [r0, #2]
	.loc	15 259 108                      @ ../Middlewares/CMSIS/DSP/Src/MatrixFunctions/arm_mat_inverse_f32.c:259:108
	str	r0, [sp, #64]
	.loc	15 259 155                      @ ../Middlewares/CMSIS/DSP/Src/MatrixFunctions/arm_mat_inverse_f32.c:259:155
	ldr	r0, [sp, #64]
	.loc	15 259 165                      @ ../Middlewares/CMSIS/DSP/Src/MatrixFunctions/arm_mat_inverse_f32.c:259:165
	ldr	r1, [sp, #164]
	.loc	15 259 163                      @ ../Middlewares/CMSIS/DSP/Src/MatrixFunctions/arm_mat_inverse_f32.c:259:163
	subs	r0, r0, r1
	.loc	15 259 150                      @ ../Middlewares/CMSIS/DSP/Src/MatrixFunctions/arm_mat_inverse_f32.c:259:150
	str	r0, [sp, #60]
	.loc	15 259 182                      @ ../Middlewares/CMSIS/DSP/Src/MatrixFunctions/arm_mat_inverse_f32.c:259:182
	ldr	r0, [sp, #72]
	.loc	15 259 190                      @ ../Middlewares/CMSIS/DSP/Src/MatrixFunctions/arm_mat_inverse_f32.c:259:190
	ldr	r1, [sp, #180]
	.loc	15 259 196                      @ ../Middlewares/CMSIS/DSP/Src/MatrixFunctions/arm_mat_inverse_f32.c:259:196
	ldr	r2, [sp, #64]
	.loc	15 259 195                      @ ../Middlewares/CMSIS/DSP/Src/MatrixFunctions/arm_mat_inverse_f32.c:259:195
	muls	r1, r2, r1
	.loc	15 259 188                      @ ../Middlewares/CMSIS/DSP/Src/MatrixFunctions/arm_mat_inverse_f32.c:259:188
	add.w	r0, r0, r1, lsl #2
	.loc	15 259 208                      @ ../Middlewares/CMSIS/DSP/Src/MatrixFunctions/arm_mat_inverse_f32.c:259:208
	ldr	r1, [sp, #164]
	.loc	15 259 205                      @ ../Middlewares/CMSIS/DSP/Src/MatrixFunctions/arm_mat_inverse_f32.c:259:205
	add.w	r0, r0, r1, lsl #2
	.loc	15 259 180                      @ ../Middlewares/CMSIS/DSP/Src/MatrixFunctions/arm_mat_inverse_f32.c:259:180
	str	r0, [sp, #72]
	.loc	15 259 225                      @ ../Middlewares/CMSIS/DSP/Src/MatrixFunctions/arm_mat_inverse_f32.c:259:225
	ldr	r0, [sp, #68]
	.loc	15 259 233                      @ ../Middlewares/CMSIS/DSP/Src/MatrixFunctions/arm_mat_inverse_f32.c:259:233
	ldr	r1, [sp, #188]
	.loc	15 259 242                      @ ../Middlewares/CMSIS/DSP/Src/MatrixFunctions/arm_mat_inverse_f32.c:259:242
	ldr	r2, [sp, #64]
	.loc	15 259 241                      @ ../Middlewares/CMSIS/DSP/Src/MatrixFunctions/arm_mat_inverse_f32.c:259:241
	muls	r1, r2, r1
	.loc	15 259 231                      @ ../Middlewares/CMSIS/DSP/Src/MatrixFunctions/arm_mat_inverse_f32.c:259:231
	add.w	r0, r0, r1, lsl #2
	.loc	15 259 254                      @ ../Middlewares/CMSIS/DSP/Src/MatrixFunctions/arm_mat_inverse_f32.c:259:254
	ldr	r1, [sp, #164]
	.loc	15 259 251                      @ ../Middlewares/CMSIS/DSP/Src/MatrixFunctions/arm_mat_inverse_f32.c:259:251
	add.w	r0, r0, r1, lsl #2
	.loc	15 259 223                      @ ../Middlewares/CMSIS/DSP/Src/MatrixFunctions/arm_mat_inverse_f32.c:259:223
	str	r0, [sp, #68]
	movs	r0, #0
.Ltmp175:
	.loc	15 259 269                      @ ../Middlewares/CMSIS/DSP/Src/MatrixFunctions/arm_mat_inverse_f32.c:259:269
	str	r0, [sp, #76]
	.loc	15 259 267                      @ ../Middlewares/CMSIS/DSP/Src/MatrixFunctions/arm_mat_inverse_f32.c:259:267
	b	.LBB10_46
.LBB10_46:                              @   Parent Loop BB10_14 Depth=1
                                        @     Parent Loop BB10_44 Depth=2
                                        @ =>    This Inner Loop Header: Depth=3
.Ltmp176:
	.loc	15 259 272                      @ ../Middlewares/CMSIS/DSP/Src/MatrixFunctions/arm_mat_inverse_f32.c:259:272
	ldr	r0, [sp, #76]
	.loc	15 259 277                      @ ../Middlewares/CMSIS/DSP/Src/MatrixFunctions/arm_mat_inverse_f32.c:259:277
	ldr	r1, [sp, #60]
.Ltmp177:
	.loc	15 259 263                      @ ../Middlewares/CMSIS/DSP/Src/MatrixFunctions/arm_mat_inverse_f32.c:259:263
	cmp	r0, r1
	bge	.LBB10_49
	b	.LBB10_47
.LBB10_47:                              @   in Loop: Header=BB10_46 Depth=3
.Ltmp178:
	.loc	15 259 301                      @ ../Middlewares/CMSIS/DSP/Src/MatrixFunctions/arm_mat_inverse_f32.c:259:301
	vldr	s2, [sp, #200]
	.loc	15 259 314                      @ ../Middlewares/CMSIS/DSP/Src/MatrixFunctions/arm_mat_inverse_f32.c:259:314
	ldr	r0, [sp, #68]
	adds	r1, r0, #4
	str	r1, [sp, #68]
	.loc	15 259 308                      @ ../Middlewares/CMSIS/DSP/Src/MatrixFunctions/arm_mat_inverse_f32.c:259:308
	vldr	s4, [r0]
	.loc	15 259 295                      @ ../Middlewares/CMSIS/DSP/Src/MatrixFunctions/arm_mat_inverse_f32.c:259:295
	ldr	r0, [sp, #72]
	adds	r1, r0, #4
	str	r1, [sp, #72]
	.loc	15 259 298                      @ ../Middlewares/CMSIS/DSP/Src/MatrixFunctions/arm_mat_inverse_f32.c:259:298
	vldr	s0, [r0]
	vmul.f32	s2, s2, s4
	vsub.f32	s0, s0, s2
	vstr	s0, [r0]
	.loc	15 259 318                      @ ../Middlewares/CMSIS/DSP/Src/MatrixFunctions/arm_mat_inverse_f32.c:259:318
	b	.LBB10_48
.Ltmp179:
.LBB10_48:                              @   in Loop: Header=BB10_46 Depth=3
	.loc	15 259 283                      @ ../Middlewares/CMSIS/DSP/Src/MatrixFunctions/arm_mat_inverse_f32.c:259:283
	ldr	r0, [sp, #76]
	adds	r0, #1
	str	r0, [sp, #76]
	.loc	15 259 263                      @ ../Middlewares/CMSIS/DSP/Src/MatrixFunctions/arm_mat_inverse_f32.c:259:263
	b	.LBB10_46
.Ltmp180:
.LBB10_49:                              @   in Loop: Header=BB10_44 Depth=2
	.loc	15 260 46 is_stmt 1             @ ../Middlewares/CMSIS/DSP/Src/MatrixFunctions/arm_mat_inverse_f32.c:260:46
	ldr	r0, [sp, #224]
	.loc	15 260 53 is_stmt 0             @ ../Middlewares/CMSIS/DSP/Src/MatrixFunctions/arm_mat_inverse_f32.c:260:53
	ldr	r0, [r0, #4]
	.loc	15 260 37                       @ ../Middlewares/CMSIS/DSP/Src/MatrixFunctions/arm_mat_inverse_f32.c:260:37
	str	r0, [sp, #52]
	.loc	15 260 80                       @ ../Middlewares/CMSIS/DSP/Src/MatrixFunctions/arm_mat_inverse_f32.c:260:80
	ldr	r0, [sp, #224]
	.loc	15 260 87                       @ ../Middlewares/CMSIS/DSP/Src/MatrixFunctions/arm_mat_inverse_f32.c:260:87
	ldr	r0, [r0, #4]
	.loc	15 260 71                       @ ../Middlewares/CMSIS/DSP/Src/MatrixFunctions/arm_mat_inverse_f32.c:260:71
	str	r0, [sp, #48]
	.loc	15 260 120                      @ ../Middlewares/CMSIS/DSP/Src/MatrixFunctions/arm_mat_inverse_f32.c:260:120
	ldr	r0, [sp, #224]
	.loc	15 260 127                      @ ../Middlewares/CMSIS/DSP/Src/MatrixFunctions/arm_mat_inverse_f32.c:260:127
	ldrh	r0, [r0, #2]
	.loc	15 260 108                      @ ../Middlewares/CMSIS/DSP/Src/MatrixFunctions/arm_mat_inverse_f32.c:260:108
	str	r0, [sp, #44]
	.loc	15 260 155                      @ ../Middlewares/CMSIS/DSP/Src/MatrixFunctions/arm_mat_inverse_f32.c:260:155
	ldr	r0, [sp, #44]
	.loc	15 260 150                      @ ../Middlewares/CMSIS/DSP/Src/MatrixFunctions/arm_mat_inverse_f32.c:260:150
	str	r0, [sp, #40]
	.loc	15 260 177                      @ ../Middlewares/CMSIS/DSP/Src/MatrixFunctions/arm_mat_inverse_f32.c:260:177
	ldr	r0, [sp, #52]
	.loc	15 260 185                      @ ../Middlewares/CMSIS/DSP/Src/MatrixFunctions/arm_mat_inverse_f32.c:260:185
	ldr	r1, [sp, #180]
	.loc	15 260 191                      @ ../Middlewares/CMSIS/DSP/Src/MatrixFunctions/arm_mat_inverse_f32.c:260:191
	ldr	r2, [sp, #44]
	.loc	15 260 190                      @ ../Middlewares/CMSIS/DSP/Src/MatrixFunctions/arm_mat_inverse_f32.c:260:190
	muls	r1, r2, r1
	.loc	15 260 183                      @ ../Middlewares/CMSIS/DSP/Src/MatrixFunctions/arm_mat_inverse_f32.c:260:183
	add.w	r0, r0, r1, lsl #2
	.loc	15 260 175                      @ ../Middlewares/CMSIS/DSP/Src/MatrixFunctions/arm_mat_inverse_f32.c:260:175
	str	r0, [sp, #52]
	.loc	15 260 215                      @ ../Middlewares/CMSIS/DSP/Src/MatrixFunctions/arm_mat_inverse_f32.c:260:215
	ldr	r0, [sp, #48]
	.loc	15 260 223                      @ ../Middlewares/CMSIS/DSP/Src/MatrixFunctions/arm_mat_inverse_f32.c:260:223
	ldr	r1, [sp, #188]
	.loc	15 260 232                      @ ../Middlewares/CMSIS/DSP/Src/MatrixFunctions/arm_mat_inverse_f32.c:260:232
	ldr	r2, [sp, #44]
	.loc	15 260 231                      @ ../Middlewares/CMSIS/DSP/Src/MatrixFunctions/arm_mat_inverse_f32.c:260:231
	muls	r1, r2, r1
	.loc	15 260 221                      @ ../Middlewares/CMSIS/DSP/Src/MatrixFunctions/arm_mat_inverse_f32.c:260:221
	add.w	r0, r0, r1, lsl #2
	.loc	15 260 213                      @ ../Middlewares/CMSIS/DSP/Src/MatrixFunctions/arm_mat_inverse_f32.c:260:213
	str	r0, [sp, #48]
	movs	r0, #0
.Ltmp181:
	.loc	15 260 254                      @ ../Middlewares/CMSIS/DSP/Src/MatrixFunctions/arm_mat_inverse_f32.c:260:254
	str	r0, [sp, #56]
	.loc	15 260 252                      @ ../Middlewares/CMSIS/DSP/Src/MatrixFunctions/arm_mat_inverse_f32.c:260:252
	b	.LBB10_50
.LBB10_50:                              @   Parent Loop BB10_14 Depth=1
                                        @     Parent Loop BB10_44 Depth=2
                                        @ =>    This Inner Loop Header: Depth=3
.Ltmp182:
	.loc	15 260 257                      @ ../Middlewares/CMSIS/DSP/Src/MatrixFunctions/arm_mat_inverse_f32.c:260:257
	ldr	r0, [sp, #56]
	.loc	15 260 262                      @ ../Middlewares/CMSIS/DSP/Src/MatrixFunctions/arm_mat_inverse_f32.c:260:262
	ldr	r1, [sp, #40]
.Ltmp183:
	.loc	15 260 248                      @ ../Middlewares/CMSIS/DSP/Src/MatrixFunctions/arm_mat_inverse_f32.c:260:248
	cmp	r0, r1
	bge	.LBB10_53
	b	.LBB10_51
.LBB10_51:                              @   in Loop: Header=BB10_50 Depth=3
.Ltmp184:
	.loc	15 260 286                      @ ../Middlewares/CMSIS/DSP/Src/MatrixFunctions/arm_mat_inverse_f32.c:260:286
	vldr	s2, [sp, #200]
	.loc	15 260 299                      @ ../Middlewares/CMSIS/DSP/Src/MatrixFunctions/arm_mat_inverse_f32.c:260:299
	ldr	r0, [sp, #48]
	adds	r1, r0, #4
	str	r1, [sp, #48]
	.loc	15 260 293                      @ ../Middlewares/CMSIS/DSP/Src/MatrixFunctions/arm_mat_inverse_f32.c:260:293
	vldr	s4, [r0]
	.loc	15 260 280                      @ ../Middlewares/CMSIS/DSP/Src/MatrixFunctions/arm_mat_inverse_f32.c:260:280
	ldr	r0, [sp, #52]
	adds	r1, r0, #4
	str	r1, [sp, #52]
	.loc	15 260 283                      @ ../Middlewares/CMSIS/DSP/Src/MatrixFunctions/arm_mat_inverse_f32.c:260:283
	vldr	s0, [r0]
	vmul.f32	s2, s2, s4
	vsub.f32	s0, s0, s2
	vstr	s0, [r0]
	.loc	15 260 303                      @ ../Middlewares/CMSIS/DSP/Src/MatrixFunctions/arm_mat_inverse_f32.c:260:303
	b	.LBB10_52
.Ltmp185:
.LBB10_52:                              @   in Loop: Header=BB10_50 Depth=3
	.loc	15 260 268                      @ ../Middlewares/CMSIS/DSP/Src/MatrixFunctions/arm_mat_inverse_f32.c:260:268
	ldr	r0, [sp, #56]
	adds	r0, #1
	str	r0, [sp, #56]
	.loc	15 260 248                      @ ../Middlewares/CMSIS/DSP/Src/MatrixFunctions/arm_mat_inverse_f32.c:260:248
	b	.LBB10_50
.Ltmp186:
.LBB10_53:                              @   in Loop: Header=BB10_44 Depth=2
	.loc	15 263 7 is_stmt 1              @ ../Middlewares/CMSIS/DSP/Src/MatrixFunctions/arm_mat_inverse_f32.c:263:7
	b	.LBB10_54
.Ltmp187:
.LBB10_54:                              @   in Loop: Header=BB10_44 Depth=2
	.loc	15 254 36                       @ ../Middlewares/CMSIS/DSP/Src/MatrixFunctions/arm_mat_inverse_f32.c:254:36
	ldr	r0, [sp, #180]
	adds	r0, #1
	str	r0, [sp, #180]
	.loc	15 254 7 is_stmt 0              @ ../Middlewares/CMSIS/DSP/Src/MatrixFunctions/arm_mat_inverse_f32.c:254:7
	b	.LBB10_44
.Ltmp188:
.LBB10_55:                              @   in Loop: Header=BB10_14 Depth=1
	.loc	15 265 20 is_stmt 1             @ ../Middlewares/CMSIS/DSP/Src/MatrixFunctions/arm_mat_inverse_f32.c:265:20
	ldr	r0, [sp, #188]
	.loc	15 265 29 is_stmt 0             @ ../Middlewares/CMSIS/DSP/Src/MatrixFunctions/arm_mat_inverse_f32.c:265:29
	adds	r0, #1
	.loc	15 265 18                       @ ../Middlewares/CMSIS/DSP/Src/MatrixFunctions/arm_mat_inverse_f32.c:265:18
	str	r0, [sp, #180]
	.loc	15 265 12                       @ ../Middlewares/CMSIS/DSP/Src/MatrixFunctions/arm_mat_inverse_f32.c:265:12
	b	.LBB10_56
.LBB10_56:                              @   Parent Loop BB10_14 Depth=1
                                        @ =>  This Loop Header: Depth=2
                                        @       Child Loop BB10_58 Depth 3
                                        @       Child Loop BB10_62 Depth 3
.Ltmp189:
	.loc	15 265 34                       @ ../Middlewares/CMSIS/DSP/Src/MatrixFunctions/arm_mat_inverse_f32.c:265:34
	ldr	r0, [sp, #180]
	.loc	15 265 42                       @ ../Middlewares/CMSIS/DSP/Src/MatrixFunctions/arm_mat_inverse_f32.c:265:42
	ldr	r1, [sp, #208]
.Ltmp190:
	.loc	15 265 7                        @ ../Middlewares/CMSIS/DSP/Src/MatrixFunctions/arm_mat_inverse_f32.c:265:7
	cmp	r0, r1
	bhs.w	.LBB10_67
	b	.LBB10_57
.LBB10_57:                              @   in Loop: Header=BB10_56 Depth=2
.Ltmp191:
	.loc	15 267 22 is_stmt 1             @ ../Middlewares/CMSIS/DSP/Src/MatrixFunctions/arm_mat_inverse_f32.c:267:22
	ldr	r1, [sp, #228]
	.loc	15 267 29 is_stmt 0             @ ../Middlewares/CMSIS/DSP/Src/MatrixFunctions/arm_mat_inverse_f32.c:267:29
	ldr	r0, [r1, #4]
	.loc	15 267 43                       @ ../Middlewares/CMSIS/DSP/Src/MatrixFunctions/arm_mat_inverse_f32.c:267:43
	ldrh	r1, [r1, #2]
	.loc	15 267 53                       @ ../Middlewares/CMSIS/DSP/Src/MatrixFunctions/arm_mat_inverse_f32.c:267:53
	ldr	r2, [sp, #180]
	.loc	15 267 63                       @ ../Middlewares/CMSIS/DSP/Src/MatrixFunctions/arm_mat_inverse_f32.c:267:63
	ldr	r3, [sp, #164]
	.loc	15 267 60                       @ ../Middlewares/CMSIS/DSP/Src/MatrixFunctions/arm_mat_inverse_f32.c:267:60
	mla	r1, r1, r2, r3
	.loc	15 267 21                       @ ../Middlewares/CMSIS/DSP/Src/MatrixFunctions/arm_mat_inverse_f32.c:267:21
	add.w	r0, r0, r1, lsl #2
	.loc	15 267 17                       @ ../Middlewares/CMSIS/DSP/Src/MatrixFunctions/arm_mat_inverse_f32.c:267:17
	str	r0, [sp, #212]
	.loc	15 268 21 is_stmt 1             @ ../Middlewares/CMSIS/DSP/Src/MatrixFunctions/arm_mat_inverse_f32.c:268:21
	ldr	r0, [sp, #212]
	.loc	15 268 20 is_stmt 0             @ ../Middlewares/CMSIS/DSP/Src/MatrixFunctions/arm_mat_inverse_f32.c:268:20
	ldr	r0, [r0]
	.loc	15 268 18                       @ ../Middlewares/CMSIS/DSP/Src/MatrixFunctions/arm_mat_inverse_f32.c:268:18
	str	r0, [sp, #200]
.Ltmp192:
	.loc	15 270 46 is_stmt 1             @ ../Middlewares/CMSIS/DSP/Src/MatrixFunctions/arm_mat_inverse_f32.c:270:46
	ldr	r0, [sp, #228]
	.loc	15 270 53 is_stmt 0             @ ../Middlewares/CMSIS/DSP/Src/MatrixFunctions/arm_mat_inverse_f32.c:270:53
	ldr	r0, [r0, #4]
	.loc	15 270 37                       @ ../Middlewares/CMSIS/DSP/Src/MatrixFunctions/arm_mat_inverse_f32.c:270:37
	str	r0, [sp, #32]
	.loc	15 270 80                       @ ../Middlewares/CMSIS/DSP/Src/MatrixFunctions/arm_mat_inverse_f32.c:270:80
	ldr	r0, [sp, #228]
	.loc	15 270 87                       @ ../Middlewares/CMSIS/DSP/Src/MatrixFunctions/arm_mat_inverse_f32.c:270:87
	ldr	r0, [r0, #4]
	.loc	15 270 71                       @ ../Middlewares/CMSIS/DSP/Src/MatrixFunctions/arm_mat_inverse_f32.c:270:71
	str	r0, [sp, #28]
	.loc	15 270 120                      @ ../Middlewares/CMSIS/DSP/Src/MatrixFunctions/arm_mat_inverse_f32.c:270:120
	ldr	r0, [sp, #228]
	.loc	15 270 127                      @ ../Middlewares/CMSIS/DSP/Src/MatrixFunctions/arm_mat_inverse_f32.c:270:127
	ldrh	r0, [r0, #2]
	.loc	15 270 108                      @ ../Middlewares/CMSIS/DSP/Src/MatrixFunctions/arm_mat_inverse_f32.c:270:108
	str	r0, [sp, #24]
	.loc	15 270 155                      @ ../Middlewares/CMSIS/DSP/Src/MatrixFunctions/arm_mat_inverse_f32.c:270:155
	ldr	r0, [sp, #24]
	.loc	15 270 165                      @ ../Middlewares/CMSIS/DSP/Src/MatrixFunctions/arm_mat_inverse_f32.c:270:165
	ldr	r1, [sp, #164]
	.loc	15 270 163                      @ ../Middlewares/CMSIS/DSP/Src/MatrixFunctions/arm_mat_inverse_f32.c:270:163
	subs	r0, r0, r1
	.loc	15 270 150                      @ ../Middlewares/CMSIS/DSP/Src/MatrixFunctions/arm_mat_inverse_f32.c:270:150
	str	r0, [sp, #20]
	.loc	15 270 182                      @ ../Middlewares/CMSIS/DSP/Src/MatrixFunctions/arm_mat_inverse_f32.c:270:182
	ldr	r0, [sp, #32]
	.loc	15 270 190                      @ ../Middlewares/CMSIS/DSP/Src/MatrixFunctions/arm_mat_inverse_f32.c:270:190
	ldr	r1, [sp, #180]
	.loc	15 270 196                      @ ../Middlewares/CMSIS/DSP/Src/MatrixFunctions/arm_mat_inverse_f32.c:270:196
	ldr	r2, [sp, #24]
	.loc	15 270 195                      @ ../Middlewares/CMSIS/DSP/Src/MatrixFunctions/arm_mat_inverse_f32.c:270:195
	muls	r1, r2, r1
	.loc	15 270 188                      @ ../Middlewares/CMSIS/DSP/Src/MatrixFunctions/arm_mat_inverse_f32.c:270:188
	add.w	r0, r0, r1, lsl #2
	.loc	15 270 208                      @ ../Middlewares/CMSIS/DSP/Src/MatrixFunctions/arm_mat_inverse_f32.c:270:208
	ldr	r1, [sp, #164]
	.loc	15 270 205                      @ ../Middlewares/CMSIS/DSP/Src/MatrixFunctions/arm_mat_inverse_f32.c:270:205
	add.w	r0, r0, r1, lsl #2
	.loc	15 270 180                      @ ../Middlewares/CMSIS/DSP/Src/MatrixFunctions/arm_mat_inverse_f32.c:270:180
	str	r0, [sp, #32]
	.loc	15 270 225                      @ ../Middlewares/CMSIS/DSP/Src/MatrixFunctions/arm_mat_inverse_f32.c:270:225
	ldr	r0, [sp, #28]
	.loc	15 270 233                      @ ../Middlewares/CMSIS/DSP/Src/MatrixFunctions/arm_mat_inverse_f32.c:270:233
	ldr	r1, [sp, #188]
	.loc	15 270 242                      @ ../Middlewares/CMSIS/DSP/Src/MatrixFunctions/arm_mat_inverse_f32.c:270:242
	ldr	r2, [sp, #24]
	.loc	15 270 241                      @ ../Middlewares/CMSIS/DSP/Src/MatrixFunctions/arm_mat_inverse_f32.c:270:241
	muls	r1, r2, r1
	.loc	15 270 231                      @ ../Middlewares/CMSIS/DSP/Src/MatrixFunctions/arm_mat_inverse_f32.c:270:231
	add.w	r0, r0, r1, lsl #2
	.loc	15 270 254                      @ ../Middlewares/CMSIS/DSP/Src/MatrixFunctions/arm_mat_inverse_f32.c:270:254
	ldr	r1, [sp, #164]
	.loc	15 270 251                      @ ../Middlewares/CMSIS/DSP/Src/MatrixFunctions/arm_mat_inverse_f32.c:270:251
	add.w	r0, r0, r1, lsl #2
	.loc	15 270 223                      @ ../Middlewares/CMSIS/DSP/Src/MatrixFunctions/arm_mat_inverse_f32.c:270:223
	str	r0, [sp, #28]
	movs	r0, #0
.Ltmp193:
	.loc	15 270 269                      @ ../Middlewares/CMSIS/DSP/Src/MatrixFunctions/arm_mat_inverse_f32.c:270:269
	str	r0, [sp, #36]
	.loc	15 270 267                      @ ../Middlewares/CMSIS/DSP/Src/MatrixFunctions/arm_mat_inverse_f32.c:270:267
	b	.LBB10_58
.LBB10_58:                              @   Parent Loop BB10_14 Depth=1
                                        @     Parent Loop BB10_56 Depth=2
                                        @ =>    This Inner Loop Header: Depth=3
.Ltmp194:
	.loc	15 270 272                      @ ../Middlewares/CMSIS/DSP/Src/MatrixFunctions/arm_mat_inverse_f32.c:270:272
	ldr	r0, [sp, #36]
	.loc	15 270 277                      @ ../Middlewares/CMSIS/DSP/Src/MatrixFunctions/arm_mat_inverse_f32.c:270:277
	ldr	r1, [sp, #20]
.Ltmp195:
	.loc	15 270 263                      @ ../Middlewares/CMSIS/DSP/Src/MatrixFunctions/arm_mat_inverse_f32.c:270:263
	cmp	r0, r1
	bge	.LBB10_61
	b	.LBB10_59
.LBB10_59:                              @   in Loop: Header=BB10_58 Depth=3
.Ltmp196:
	.loc	15 270 301                      @ ../Middlewares/CMSIS/DSP/Src/MatrixFunctions/arm_mat_inverse_f32.c:270:301
	vldr	s2, [sp, #200]
	.loc	15 270 314                      @ ../Middlewares/CMSIS/DSP/Src/MatrixFunctions/arm_mat_inverse_f32.c:270:314
	ldr	r0, [sp, #28]
	adds	r1, r0, #4
	str	r1, [sp, #28]
	.loc	15 270 308                      @ ../Middlewares/CMSIS/DSP/Src/MatrixFunctions/arm_mat_inverse_f32.c:270:308
	vldr	s4, [r0]
	.loc	15 270 295                      @ ../Middlewares/CMSIS/DSP/Src/MatrixFunctions/arm_mat_inverse_f32.c:270:295
	ldr	r0, [sp, #32]
	adds	r1, r0, #4
	str	r1, [sp, #32]
	.loc	15 270 298                      @ ../Middlewares/CMSIS/DSP/Src/MatrixFunctions/arm_mat_inverse_f32.c:270:298
	vldr	s0, [r0]
	vmul.f32	s2, s2, s4
	vsub.f32	s0, s0, s2
	vstr	s0, [r0]
	.loc	15 270 318                      @ ../Middlewares/CMSIS/DSP/Src/MatrixFunctions/arm_mat_inverse_f32.c:270:318
	b	.LBB10_60
.Ltmp197:
.LBB10_60:                              @   in Loop: Header=BB10_58 Depth=3
	.loc	15 270 283                      @ ../Middlewares/CMSIS/DSP/Src/MatrixFunctions/arm_mat_inverse_f32.c:270:283
	ldr	r0, [sp, #36]
	adds	r0, #1
	str	r0, [sp, #36]
	.loc	15 270 263                      @ ../Middlewares/CMSIS/DSP/Src/MatrixFunctions/arm_mat_inverse_f32.c:270:263
	b	.LBB10_58
.Ltmp198:
.LBB10_61:                              @   in Loop: Header=BB10_56 Depth=2
	.loc	15 271 46 is_stmt 1             @ ../Middlewares/CMSIS/DSP/Src/MatrixFunctions/arm_mat_inverse_f32.c:271:46
	ldr	r0, [sp, #224]
	.loc	15 271 53 is_stmt 0             @ ../Middlewares/CMSIS/DSP/Src/MatrixFunctions/arm_mat_inverse_f32.c:271:53
	ldr	r0, [r0, #4]
	.loc	15 271 37                       @ ../Middlewares/CMSIS/DSP/Src/MatrixFunctions/arm_mat_inverse_f32.c:271:37
	str	r0, [sp, #12]
	.loc	15 271 80                       @ ../Middlewares/CMSIS/DSP/Src/MatrixFunctions/arm_mat_inverse_f32.c:271:80
	ldr	r0, [sp, #224]
	.loc	15 271 87                       @ ../Middlewares/CMSIS/DSP/Src/MatrixFunctions/arm_mat_inverse_f32.c:271:87
	ldr	r0, [r0, #4]
	.loc	15 271 71                       @ ../Middlewares/CMSIS/DSP/Src/MatrixFunctions/arm_mat_inverse_f32.c:271:71
	str	r0, [sp, #8]
	.loc	15 271 120                      @ ../Middlewares/CMSIS/DSP/Src/MatrixFunctions/arm_mat_inverse_f32.c:271:120
	ldr	r0, [sp, #224]
	.loc	15 271 127                      @ ../Middlewares/CMSIS/DSP/Src/MatrixFunctions/arm_mat_inverse_f32.c:271:127
	ldrh	r0, [r0, #2]
	.loc	15 271 108                      @ ../Middlewares/CMSIS/DSP/Src/MatrixFunctions/arm_mat_inverse_f32.c:271:108
	str	r0, [sp, #4]
	.loc	15 271 155                      @ ../Middlewares/CMSIS/DSP/Src/MatrixFunctions/arm_mat_inverse_f32.c:271:155
	ldr	r0, [sp, #4]
	.loc	15 271 150                      @ ../Middlewares/CMSIS/DSP/Src/MatrixFunctions/arm_mat_inverse_f32.c:271:150
	str	r0, [sp]
	.loc	15 271 177                      @ ../Middlewares/CMSIS/DSP/Src/MatrixFunctions/arm_mat_inverse_f32.c:271:177
	ldr	r0, [sp, #12]
	.loc	15 271 185                      @ ../Middlewares/CMSIS/DSP/Src/MatrixFunctions/arm_mat_inverse_f32.c:271:185
	ldr	r1, [sp, #180]
	.loc	15 271 191                      @ ../Middlewares/CMSIS/DSP/Src/MatrixFunctions/arm_mat_inverse_f32.c:271:191
	ldr	r2, [sp, #4]
	.loc	15 271 190                      @ ../Middlewares/CMSIS/DSP/Src/MatrixFunctions/arm_mat_inverse_f32.c:271:190
	muls	r1, r2, r1
	.loc	15 271 183                      @ ../Middlewares/CMSIS/DSP/Src/MatrixFunctions/arm_mat_inverse_f32.c:271:183
	add.w	r0, r0, r1, lsl #2
	.loc	15 271 175                      @ ../Middlewares/CMSIS/DSP/Src/MatrixFunctions/arm_mat_inverse_f32.c:271:175
	str	r0, [sp, #12]
	.loc	15 271 215                      @ ../Middlewares/CMSIS/DSP/Src/MatrixFunctions/arm_mat_inverse_f32.c:271:215
	ldr	r0, [sp, #8]
	.loc	15 271 223                      @ ../Middlewares/CMSIS/DSP/Src/MatrixFunctions/arm_mat_inverse_f32.c:271:223
	ldr	r1, [sp, #188]
	.loc	15 271 232                      @ ../Middlewares/CMSIS/DSP/Src/MatrixFunctions/arm_mat_inverse_f32.c:271:232
	ldr	r2, [sp, #4]
	.loc	15 271 231                      @ ../Middlewares/CMSIS/DSP/Src/MatrixFunctions/arm_mat_inverse_f32.c:271:231
	muls	r1, r2, r1
	.loc	15 271 221                      @ ../Middlewares/CMSIS/DSP/Src/MatrixFunctions/arm_mat_inverse_f32.c:271:221
	add.w	r0, r0, r1, lsl #2
	.loc	15 271 213                      @ ../Middlewares/CMSIS/DSP/Src/MatrixFunctions/arm_mat_inverse_f32.c:271:213
	str	r0, [sp, #8]
	movs	r0, #0
.Ltmp199:
	.loc	15 271 254                      @ ../Middlewares/CMSIS/DSP/Src/MatrixFunctions/arm_mat_inverse_f32.c:271:254
	str	r0, [sp, #16]
	.loc	15 271 252                      @ ../Middlewares/CMSIS/DSP/Src/MatrixFunctions/arm_mat_inverse_f32.c:271:252
	b	.LBB10_62
.LBB10_62:                              @   Parent Loop BB10_14 Depth=1
                                        @     Parent Loop BB10_56 Depth=2
                                        @ =>    This Inner Loop Header: Depth=3
.Ltmp200:
	.loc	15 271 257                      @ ../Middlewares/CMSIS/DSP/Src/MatrixFunctions/arm_mat_inverse_f32.c:271:257
	ldr	r0, [sp, #16]
	.loc	15 271 262                      @ ../Middlewares/CMSIS/DSP/Src/MatrixFunctions/arm_mat_inverse_f32.c:271:262
	ldr	r1, [sp]
.Ltmp201:
	.loc	15 271 248                      @ ../Middlewares/CMSIS/DSP/Src/MatrixFunctions/arm_mat_inverse_f32.c:271:248
	cmp	r0, r1
	bge	.LBB10_65
	b	.LBB10_63
.LBB10_63:                              @   in Loop: Header=BB10_62 Depth=3
.Ltmp202:
	.loc	15 271 286                      @ ../Middlewares/CMSIS/DSP/Src/MatrixFunctions/arm_mat_inverse_f32.c:271:286
	vldr	s2, [sp, #200]
	.loc	15 271 299                      @ ../Middlewares/CMSIS/DSP/Src/MatrixFunctions/arm_mat_inverse_f32.c:271:299
	ldr	r0, [sp, #8]
	adds	r1, r0, #4
	str	r1, [sp, #8]
	.loc	15 271 293                      @ ../Middlewares/CMSIS/DSP/Src/MatrixFunctions/arm_mat_inverse_f32.c:271:293
	vldr	s4, [r0]
	.loc	15 271 280                      @ ../Middlewares/CMSIS/DSP/Src/MatrixFunctions/arm_mat_inverse_f32.c:271:280
	ldr	r0, [sp, #12]
	adds	r1, r0, #4
	str	r1, [sp, #12]
	.loc	15 271 283                      @ ../Middlewares/CMSIS/DSP/Src/MatrixFunctions/arm_mat_inverse_f32.c:271:283
	vldr	s0, [r0]
	vmul.f32	s2, s2, s4
	vsub.f32	s0, s0, s2
	vstr	s0, [r0]
	.loc	15 271 303                      @ ../Middlewares/CMSIS/DSP/Src/MatrixFunctions/arm_mat_inverse_f32.c:271:303
	b	.LBB10_64
.Ltmp203:
.LBB10_64:                              @   in Loop: Header=BB10_62 Depth=3
	.loc	15 271 268                      @ ../Middlewares/CMSIS/DSP/Src/MatrixFunctions/arm_mat_inverse_f32.c:271:268
	ldr	r0, [sp, #16]
	adds	r0, #1
	str	r0, [sp, #16]
	.loc	15 271 248                      @ ../Middlewares/CMSIS/DSP/Src/MatrixFunctions/arm_mat_inverse_f32.c:271:248
	b	.LBB10_62
.Ltmp204:
.LBB10_65:                              @   in Loop: Header=BB10_56 Depth=2
	.loc	15 273 7 is_stmt 1              @ ../Middlewares/CMSIS/DSP/Src/MatrixFunctions/arm_mat_inverse_f32.c:273:7
	b	.LBB10_66
.Ltmp205:
.LBB10_66:                              @   in Loop: Header=BB10_56 Depth=2
	.loc	15 265 56                       @ ../Middlewares/CMSIS/DSP/Src/MatrixFunctions/arm_mat_inverse_f32.c:265:56
	ldr	r0, [sp, #180]
	adds	r0, #1
	str	r0, [sp, #180]
	.loc	15 265 7 is_stmt 0              @ ../Middlewares/CMSIS/DSP/Src/MatrixFunctions/arm_mat_inverse_f32.c:265:7
	b	.LBB10_56
.Ltmp206:
.LBB10_67:                              @   in Loop: Header=BB10_14 Depth=1
	.loc	15 275 5 is_stmt 1              @ ../Middlewares/CMSIS/DSP/Src/MatrixFunctions/arm_mat_inverse_f32.c:275:5
	b	.LBB10_68
.Ltmp207:
.LBB10_68:                              @   in Loop: Header=BB10_14 Depth=1
	.loc	15 189 46                       @ ../Middlewares/CMSIS/DSP/Src/MatrixFunctions/arm_mat_inverse_f32.c:189:46
	ldr	r0, [sp, #164]
	adds	r0, #1
	str	r0, [sp, #164]
	.loc	15 189 5 is_stmt 0              @ ../Middlewares/CMSIS/DSP/Src/MatrixFunctions/arm_mat_inverse_f32.c:189:5
	b	.LBB10_14
.Ltmp208:
.LBB10_69:
	.loc	15 0 5                          @ ../Middlewares/CMSIS/DSP/Src/MatrixFunctions/arm_mat_inverse_f32.c:0:5
	movs	r0, #0
	.loc	15 278 12 is_stmt 1             @ ../Middlewares/CMSIS/DSP/Src/MatrixFunctions/arm_mat_inverse_f32.c:278:12
	strb.w	r0, [sp, #163]
.Ltmp209:
	.loc	15 280 10                       @ ../Middlewares/CMSIS/DSP/Src/MatrixFunctions/arm_mat_inverse_f32.c:280:10
	ldr	r0, [sp, #172]
	.loc	15 280 22 is_stmt 0             @ ../Middlewares/CMSIS/DSP/Src/MatrixFunctions/arm_mat_inverse_f32.c:280:22
	cmp	r0, #1
	beq	.LBB10_80
	b	.LBB10_70
.LBB10_70:
	.loc	15 280 26                       @ ../Middlewares/CMSIS/DSP/Src/MatrixFunctions/arm_mat_inverse_f32.c:280:26
	vldr	s0, [sp, #200]
.Ltmp210:
	.loc	15 280 9                        @ ../Middlewares/CMSIS/DSP/Src/MatrixFunctions/arm_mat_inverse_f32.c:280:9
	vcmp.f32	s0, #0
	vmrs	APSR_nzcv, fpscr
	bne	.LBB10_80
	b	.LBB10_71
.LBB10_71:
.Ltmp211:
	.loc	15 282 13 is_stmt 1             @ ../Middlewares/CMSIS/DSP/Src/MatrixFunctions/arm_mat_inverse_f32.c:282:13
	ldr	r0, [sp, #228]
	.loc	15 282 19 is_stmt 0             @ ../Middlewares/CMSIS/DSP/Src/MatrixFunctions/arm_mat_inverse_f32.c:282:19
	ldr	r0, [r0, #4]
	.loc	15 282 11                       @ ../Middlewares/CMSIS/DSP/Src/MatrixFunctions/arm_mat_inverse_f32.c:282:11
	str	r0, [sp, #220]
	movs	r0, #0
.Ltmp212:
	.loc	15 283 14 is_stmt 1             @ ../Middlewares/CMSIS/DSP/Src/MatrixFunctions/arm_mat_inverse_f32.c:283:14
	str	r0, [sp, #184]
	.loc	15 283 12 is_stmt 0             @ ../Middlewares/CMSIS/DSP/Src/MatrixFunctions/arm_mat_inverse_f32.c:283:12
	b	.LBB10_72
.LBB10_72:                              @ =>This Inner Loop Header: Depth=1
.Ltmp213:
	.loc	15 283 19                       @ ../Middlewares/CMSIS/DSP/Src/MatrixFunctions/arm_mat_inverse_f32.c:283:19
	ldr	r0, [sp, #184]
	.loc	15 283 23                       @ ../Middlewares/CMSIS/DSP/Src/MatrixFunctions/arm_mat_inverse_f32.c:283:23
	ldr	r1, [sp, #208]
	.loc	15 283 33                       @ ../Middlewares/CMSIS/DSP/Src/MatrixFunctions/arm_mat_inverse_f32.c:283:33
	ldr	r2, [sp, #204]
	.loc	15 283 31                       @ ../Middlewares/CMSIS/DSP/Src/MatrixFunctions/arm_mat_inverse_f32.c:283:31
	muls	r1, r2, r1
.Ltmp214:
	.loc	15 283 7                        @ ../Middlewares/CMSIS/DSP/Src/MatrixFunctions/arm_mat_inverse_f32.c:283:7
	cmp	r0, r1
	bhs	.LBB10_77
	b	.LBB10_73
.LBB10_73:                              @   in Loop: Header=BB10_72 Depth=1
.Ltmp215:
	.loc	15 285 13 is_stmt 1             @ ../Middlewares/CMSIS/DSP/Src/MatrixFunctions/arm_mat_inverse_f32.c:285:13
	ldr	r0, [sp, #220]
	.loc	15 285 17 is_stmt 0             @ ../Middlewares/CMSIS/DSP/Src/MatrixFunctions/arm_mat_inverse_f32.c:285:17
	ldr	r1, [sp, #184]
	.loc	15 285 13                       @ ../Middlewares/CMSIS/DSP/Src/MatrixFunctions/arm_mat_inverse_f32.c:285:13
	add.w	r0, r0, r1, lsl #2
	vldr	s0, [r0]
.Ltmp216:
	.loc	15 285 13                       @ ../Middlewares/CMSIS/DSP/Src/MatrixFunctions/arm_mat_inverse_f32.c:285:13
	vcmp.f32	s0, #0
	vmrs	APSR_nzcv, fpscr
	beq	.LBB10_75
	b	.LBB10_74
.LBB10_74:
.Ltmp217:
	.loc	15 286 13 is_stmt 1             @ ../Middlewares/CMSIS/DSP/Src/MatrixFunctions/arm_mat_inverse_f32.c:286:13
	b	.LBB10_77
.Ltmp218:
.LBB10_75:                              @   in Loop: Header=BB10_72 Depth=1
	.loc	15 287 7                        @ ../Middlewares/CMSIS/DSP/Src/MatrixFunctions/arm_mat_inverse_f32.c:287:7
	b	.LBB10_76
.Ltmp219:
.LBB10_76:                              @   in Loop: Header=BB10_72 Depth=1
	.loc	15 283 43                       @ ../Middlewares/CMSIS/DSP/Src/MatrixFunctions/arm_mat_inverse_f32.c:283:43
	ldr	r0, [sp, #184]
	adds	r0, #1
	str	r0, [sp, #184]
	.loc	15 283 7 is_stmt 0              @ ../Middlewares/CMSIS/DSP/Src/MatrixFunctions/arm_mat_inverse_f32.c:283:7
	b	.LBB10_72
.Ltmp220:
.LBB10_77:
	.loc	15 289 11 is_stmt 1             @ ../Middlewares/CMSIS/DSP/Src/MatrixFunctions/arm_mat_inverse_f32.c:289:11
	ldr	r0, [sp, #184]
	.loc	15 289 16 is_stmt 0             @ ../Middlewares/CMSIS/DSP/Src/MatrixFunctions/arm_mat_inverse_f32.c:289:16
	ldr	r1, [sp, #208]
	.loc	15 289 26                       @ ../Middlewares/CMSIS/DSP/Src/MatrixFunctions/arm_mat_inverse_f32.c:289:26
	ldr	r2, [sp, #204]
	.loc	15 289 24                       @ ../Middlewares/CMSIS/DSP/Src/MatrixFunctions/arm_mat_inverse_f32.c:289:24
	muls	r1, r2, r1
.Ltmp221:
	.loc	15 289 11                       @ ../Middlewares/CMSIS/DSP/Src/MatrixFunctions/arm_mat_inverse_f32.c:289:11
	cmp	r0, r1
	bne	.LBB10_79
	b	.LBB10_78
.LBB10_78:
	.loc	15 0 11                         @ ../Middlewares/CMSIS/DSP/Src/MatrixFunctions/arm_mat_inverse_f32.c:0:11
	movs	r0, #251
.Ltmp222:
	.loc	15 290 16 is_stmt 1             @ ../Middlewares/CMSIS/DSP/Src/MatrixFunctions/arm_mat_inverse_f32.c:290:16
	strb.w	r0, [sp, #163]
	.loc	15 290 9 is_stmt 0              @ ../Middlewares/CMSIS/DSP/Src/MatrixFunctions/arm_mat_inverse_f32.c:290:9
	b	.LBB10_79
.Ltmp223:
.LBB10_79:
	.loc	15 291 5 is_stmt 1              @ ../Middlewares/CMSIS/DSP/Src/MatrixFunctions/arm_mat_inverse_f32.c:291:5
	b	.LBB10_80
.Ltmp224:
.LBB10_80:
	.loc	15 0 5 is_stmt 0                @ ../Middlewares/CMSIS/DSP/Src/MatrixFunctions/arm_mat_inverse_f32.c:0:5
	b	.LBB10_81
.LBB10_81:
	.loc	15 295 11 is_stmt 1             @ ../Middlewares/CMSIS/DSP/Src/MatrixFunctions/arm_mat_inverse_f32.c:295:11
	ldrb.w	r0, [sp, #163]
	.loc	15 295 3 is_stmt 0              @ ../Middlewares/CMSIS/DSP/Src/MatrixFunctions/arm_mat_inverse_f32.c:295:3
	strb.w	r0, [sp, #235]
	b	.LBB10_82
.LBB10_82:
	.loc	15 296 1 is_stmt 1              @ ../Middlewares/CMSIS/DSP/Src/MatrixFunctions/arm_mat_inverse_f32.c:296:1
	ldrsb.w	r0, [sp, #235]
	add	sp, #236
	bx	lr
.Ltmp225:
.Lfunc_end10:
	.size	arm_mat_inverse_f32, .Lfunc_end10-arm_mat_inverse_f32
	.cfi_endproc
	.cantunwind
	.fnend
                                        @ -- End function
	.section	.text.arm_mat_inverse_f64,"ax",%progbits
	.hidden	arm_mat_inverse_f64             @ -- Begin function arm_mat_inverse_f64
	.globl	arm_mat_inverse_f64
	.p2align	3
	.type	arm_mat_inverse_f64,%function
	.code	16                              @ @arm_mat_inverse_f64
	.thumb_func
arm_mat_inverse_f64:
.Lfunc_begin11:
	.file	16 "D:\\horizon\\Horizon_Infantry (2)\\MDK-ARM" "../Middlewares/CMSIS/DSP/Src/MatrixFunctions/arm_mat_inverse_f64.c"
	.loc	16 55 0                         @ ../Middlewares/CMSIS/DSP/Src/MatrixFunctions/arm_mat_inverse_f64.c:55:0
	.fnstart
	.cfi_startproc
@ %bb.0:
	.save	{r7, lr}
	push	{r7, lr}
	.cfi_def_cfa_offset 8
	.cfi_offset lr, -4
	.cfi_offset r7, -8
	.pad	#336
	sub	sp, #336
	.cfi_def_cfa_offset 344
	str	r0, [sp, #328]
	str	r1, [sp, #324]
.Ltmp226:
	.loc	16 56 20 prologue_end           @ ../Middlewares/CMSIS/DSP/Src/MatrixFunctions/arm_mat_inverse_f64.c:56:20
	ldr	r0, [sp, #328]
	.loc	16 56 26 is_stmt 0              @ ../Middlewares/CMSIS/DSP/Src/MatrixFunctions/arm_mat_inverse_f64.c:56:26
	ldr	r0, [r0, #4]
	.loc	16 56 14                        @ ../Middlewares/CMSIS/DSP/Src/MatrixFunctions/arm_mat_inverse_f64.c:56:14
	str	r0, [sp, #320]
	.loc	16 57 21 is_stmt 1              @ ../Middlewares/CMSIS/DSP/Src/MatrixFunctions/arm_mat_inverse_f64.c:57:21
	ldr	r0, [sp, #324]
	.loc	16 57 27 is_stmt 0              @ ../Middlewares/CMSIS/DSP/Src/MatrixFunctions/arm_mat_inverse_f64.c:57:27
	ldr	r0, [r0, #4]
	.loc	16 57 14                        @ ../Middlewares/CMSIS/DSP/Src/MatrixFunctions/arm_mat_inverse_f64.c:57:14
	str	r0, [sp, #316]
	.loc	16 60 22 is_stmt 1              @ ../Middlewares/CMSIS/DSP/Src/MatrixFunctions/arm_mat_inverse_f64.c:60:22
	ldr	r0, [sp, #328]
	.loc	16 60 28 is_stmt 0              @ ../Middlewares/CMSIS/DSP/Src/MatrixFunctions/arm_mat_inverse_f64.c:60:28
	ldrh	r0, [r0]
	.loc	16 60 12                        @ ../Middlewares/CMSIS/DSP/Src/MatrixFunctions/arm_mat_inverse_f64.c:60:12
	str	r0, [sp, #308]
	.loc	16 61 22 is_stmt 1              @ ../Middlewares/CMSIS/DSP/Src/MatrixFunctions/arm_mat_inverse_f64.c:61:22
	ldr	r0, [sp, #328]
	.loc	16 61 28 is_stmt 0              @ ../Middlewares/CMSIS/DSP/Src/MatrixFunctions/arm_mat_inverse_f64.c:61:28
	ldrh	r0, [r0, #2]
	.loc	16 61 12                        @ ../Middlewares/CMSIS/DSP/Src/MatrixFunctions/arm_mat_inverse_f64.c:61:12
	str	r0, [sp, #304]
	movs	r0, #0
	.loc	16 64 13 is_stmt 1              @ ../Middlewares/CMSIS/DSP/Src/MatrixFunctions/arm_mat_inverse_f64.c:64:13
	str	r0, [sp, #300]
	str	r0, [sp, #296]
	.loc	16 64 26 is_stmt 0              @ ../Middlewares/CMSIS/DSP/Src/MatrixFunctions/arm_mat_inverse_f64.c:64:26
	str	r0, [sp, #292]
	str	r0, [sp, #288]
	.loc	16 65 51 is_stmt 1              @ ../Middlewares/CMSIS/DSP/Src/MatrixFunctions/arm_mat_inverse_f64.c:65:51
	str	r0, [sp, #264]
.Ltmp227:
	.loc	16 71 8                         @ ../Middlewares/CMSIS/DSP/Src/MatrixFunctions/arm_mat_inverse_f64.c:71:8
	ldr	r1, [sp, #328]
	.loc	16 71 14 is_stmt 0              @ ../Middlewares/CMSIS/DSP/Src/MatrixFunctions/arm_mat_inverse_f64.c:71:14
	ldrh	r0, [r1]
	.loc	16 71 31                        @ ../Middlewares/CMSIS/DSP/Src/MatrixFunctions/arm_mat_inverse_f64.c:71:31
	ldrh	r1, [r1, #2]
	.loc	16 71 40                        @ ../Middlewares/CMSIS/DSP/Src/MatrixFunctions/arm_mat_inverse_f64.c:71:40
	cmp	r0, r1
	bne	.LBB11_3
	b	.LBB11_1
.LBB11_1:
	.loc	16 72 8 is_stmt 1               @ ../Middlewares/CMSIS/DSP/Src/MatrixFunctions/arm_mat_inverse_f64.c:72:8
	ldr	r1, [sp, #324]
	.loc	16 72 14 is_stmt 0              @ ../Middlewares/CMSIS/DSP/Src/MatrixFunctions/arm_mat_inverse_f64.c:72:14
	ldrh	r0, [r1]
	.loc	16 72 31                        @ ../Middlewares/CMSIS/DSP/Src/MatrixFunctions/arm_mat_inverse_f64.c:72:31
	ldrh	r1, [r1, #2]
	.loc	16 72 40                        @ ../Middlewares/CMSIS/DSP/Src/MatrixFunctions/arm_mat_inverse_f64.c:72:40
	cmp	r0, r1
	bne	.LBB11_3
	b	.LBB11_2
.LBB11_2:
	.loc	16 73 8 is_stmt 1               @ ../Middlewares/CMSIS/DSP/Src/MatrixFunctions/arm_mat_inverse_f64.c:73:8
	ldr	r0, [sp, #328]
	.loc	16 73 14 is_stmt 0              @ ../Middlewares/CMSIS/DSP/Src/MatrixFunctions/arm_mat_inverse_f64.c:73:14
	ldrh	r0, [r0]
	.loc	16 73 25                        @ ../Middlewares/CMSIS/DSP/Src/MatrixFunctions/arm_mat_inverse_f64.c:73:25
	ldr	r1, [sp, #324]
	.loc	16 73 31                        @ ../Middlewares/CMSIS/DSP/Src/MatrixFunctions/arm_mat_inverse_f64.c:73:31
	ldrh	r1, [r1]
.Ltmp228:
	.loc	16 71 7 is_stmt 1               @ ../Middlewares/CMSIS/DSP/Src/MatrixFunctions/arm_mat_inverse_f64.c:71:7
	cmp	r0, r1
	beq	.LBB11_4
	b	.LBB11_3
.LBB11_3:
	.loc	16 0 7 is_stmt 0                @ ../Middlewares/CMSIS/DSP/Src/MatrixFunctions/arm_mat_inverse_f64.c:0:7
	movs	r0, #253
.Ltmp229:
	.loc	16 76 12 is_stmt 1              @ ../Middlewares/CMSIS/DSP/Src/MatrixFunctions/arm_mat_inverse_f64.c:76:12
	strb.w	r0, [sp, #255]
	.loc	16 77 3                         @ ../Middlewares/CMSIS/DSP/Src/MatrixFunctions/arm_mat_inverse_f64.c:77:3
	b	.LBB11_83
.Ltmp230:
.LBB11_4:
	.loc	16 119 12                       @ ../Middlewares/CMSIS/DSP/Src/MatrixFunctions/arm_mat_inverse_f64.c:119:12
	ldr	r0, [sp, #316]
	.loc	16 119 10 is_stmt 0             @ ../Middlewares/CMSIS/DSP/Src/MatrixFunctions/arm_mat_inverse_f64.c:119:10
	str	r0, [sp, #312]
	.loc	16 122 14 is_stmt 1             @ ../Middlewares/CMSIS/DSP/Src/MatrixFunctions/arm_mat_inverse_f64.c:122:14
	ldr	r0, [sp, #308]
	.loc	16 122 12 is_stmt 0             @ ../Middlewares/CMSIS/DSP/Src/MatrixFunctions/arm_mat_inverse_f64.c:122:12
	str	r0, [sp, #268]
	.loc	16 125 5 is_stmt 1              @ ../Middlewares/CMSIS/DSP/Src/MatrixFunctions/arm_mat_inverse_f64.c:125:5
	b	.LBB11_5
.LBB11_5:                               @ =>This Loop Header: Depth=1
                                        @     Child Loop BB11_7 Depth 2
                                        @     Child Loop BB11_10 Depth 2
	.loc	16 125 12 is_stmt 0             @ ../Middlewares/CMSIS/DSP/Src/MatrixFunctions/arm_mat_inverse_f64.c:125:12
	ldr	r0, [sp, #268]
	.loc	16 125 5                        @ ../Middlewares/CMSIS/DSP/Src/MatrixFunctions/arm_mat_inverse_f64.c:125:5
	cbz	r0, .LBB11_13
	b	.LBB11_6
.LBB11_6:                               @   in Loop: Header=BB11_5 Depth=1
.Ltmp231:
	.loc	16 128 11 is_stmt 1             @ ../Middlewares/CMSIS/DSP/Src/MatrixFunctions/arm_mat_inverse_f64.c:128:11
	ldr	r0, [sp, #308]
	.loc	16 128 21 is_stmt 0             @ ../Middlewares/CMSIS/DSP/Src/MatrixFunctions/arm_mat_inverse_f64.c:128:21
	ldr	r1, [sp, #268]
	.loc	16 128 19                       @ ../Middlewares/CMSIS/DSP/Src/MatrixFunctions/arm_mat_inverse_f64.c:128:19
	subs	r0, r0, r1
	.loc	16 128 9                        @ ../Middlewares/CMSIS/DSP/Src/MatrixFunctions/arm_mat_inverse_f64.c:128:9
	str	r0, [sp, #260]
	.loc	16 129 7 is_stmt 1              @ ../Middlewares/CMSIS/DSP/Src/MatrixFunctions/arm_mat_inverse_f64.c:129:7
	b	.LBB11_7
.LBB11_7:                               @   Parent Loop BB11_5 Depth=1
                                        @ =>  This Inner Loop Header: Depth=2
	.loc	16 129 14 is_stmt 0             @ ../Middlewares/CMSIS/DSP/Src/MatrixFunctions/arm_mat_inverse_f64.c:129:14
	ldr	r0, [sp, #260]
	.loc	16 129 7                        @ ../Middlewares/CMSIS/DSP/Src/MatrixFunctions/arm_mat_inverse_f64.c:129:7
	cbz	r0, .LBB11_9
	b	.LBB11_8
.LBB11_8:                               @   in Loop: Header=BB11_7 Depth=2
.Ltmp232:
	.loc	16 131 14 is_stmt 1             @ ../Middlewares/CMSIS/DSP/Src/MatrixFunctions/arm_mat_inverse_f64.c:131:14
	ldr	r1, [sp, #312]
	add.w	r0, r1, #8
	str	r0, [sp, #312]
	movs	r0, #0
	.loc	16 131 17 is_stmt 0             @ ../Middlewares/CMSIS/DSP/Src/MatrixFunctions/arm_mat_inverse_f64.c:131:17
	str	r0, [r1, #4]
	str	r0, [r1]
	.loc	16 132 10 is_stmt 1             @ ../Middlewares/CMSIS/DSP/Src/MatrixFunctions/arm_mat_inverse_f64.c:132:10
	ldr	r0, [sp, #260]
	subs	r0, #1
	str	r0, [sp, #260]
.Ltmp233:
	.loc	16 129 7                        @ ../Middlewares/CMSIS/DSP/Src/MatrixFunctions/arm_mat_inverse_f64.c:129:7
	b	.LBB11_7
.LBB11_9:                               @   in Loop: Header=BB11_5 Depth=1
	.loc	16 136 12                       @ ../Middlewares/CMSIS/DSP/Src/MatrixFunctions/arm_mat_inverse_f64.c:136:12
	ldr	r1, [sp, #312]
	add.w	r0, r1, #8
	str	r0, [sp, #312]
	movs	r0, #0
	movt	r0, #16368
	.loc	16 136 15 is_stmt 0             @ ../Middlewares/CMSIS/DSP/Src/MatrixFunctions/arm_mat_inverse_f64.c:136:15
	str	r0, [r1, #4]
	movs	r0, #0
	str	r0, [r1]
	.loc	16 139 11 is_stmt 1             @ ../Middlewares/CMSIS/DSP/Src/MatrixFunctions/arm_mat_inverse_f64.c:139:11
	ldr	r0, [sp, #268]
	.loc	16 139 18 is_stmt 0             @ ../Middlewares/CMSIS/DSP/Src/MatrixFunctions/arm_mat_inverse_f64.c:139:18
	subs	r0, #1
	.loc	16 139 9                        @ ../Middlewares/CMSIS/DSP/Src/MatrixFunctions/arm_mat_inverse_f64.c:139:9
	str	r0, [sp, #260]
	.loc	16 140 7 is_stmt 1              @ ../Middlewares/CMSIS/DSP/Src/MatrixFunctions/arm_mat_inverse_f64.c:140:7
	b	.LBB11_10
.LBB11_10:                              @   Parent Loop BB11_5 Depth=1
                                        @ =>  This Inner Loop Header: Depth=2
	.loc	16 140 14 is_stmt 0             @ ../Middlewares/CMSIS/DSP/Src/MatrixFunctions/arm_mat_inverse_f64.c:140:14
	ldr	r0, [sp, #260]
	.loc	16 140 7                        @ ../Middlewares/CMSIS/DSP/Src/MatrixFunctions/arm_mat_inverse_f64.c:140:7
	cbz	r0, .LBB11_12
	b	.LBB11_11
.LBB11_11:                              @   in Loop: Header=BB11_10 Depth=2
.Ltmp234:
	.loc	16 142 14 is_stmt 1             @ ../Middlewares/CMSIS/DSP/Src/MatrixFunctions/arm_mat_inverse_f64.c:142:14
	ldr	r1, [sp, #312]
	add.w	r0, r1, #8
	str	r0, [sp, #312]
	movs	r0, #0
	.loc	16 142 17 is_stmt 0             @ ../Middlewares/CMSIS/DSP/Src/MatrixFunctions/arm_mat_inverse_f64.c:142:17
	str	r0, [r1, #4]
	str	r0, [r1]
	.loc	16 143 10 is_stmt 1             @ ../Middlewares/CMSIS/DSP/Src/MatrixFunctions/arm_mat_inverse_f64.c:143:10
	ldr	r0, [sp, #260]
	subs	r0, #1
	str	r0, [sp, #260]
.Ltmp235:
	.loc	16 140 7                        @ ../Middlewares/CMSIS/DSP/Src/MatrixFunctions/arm_mat_inverse_f64.c:140:7
	b	.LBB11_10
.LBB11_12:                              @   in Loop: Header=BB11_5 Depth=1
	.loc	16 147 13                       @ ../Middlewares/CMSIS/DSP/Src/MatrixFunctions/arm_mat_inverse_f64.c:147:13
	ldr	r0, [sp, #268]
	subs	r0, #1
	str	r0, [sp, #268]
.Ltmp236:
	.loc	16 125 5                        @ ../Middlewares/CMSIS/DSP/Src/MatrixFunctions/arm_mat_inverse_f64.c:125:5
	b	.LBB11_5
.LBB11_13:
	.loc	16 0 5 is_stmt 0                @ ../Middlewares/CMSIS/DSP/Src/MatrixFunctions/arm_mat_inverse_f64.c:0:5
	movs	r0, #0
.Ltmp237:
	.loc	16 154 16 is_stmt 1             @ ../Middlewares/CMSIS/DSP/Src/MatrixFunctions/arm_mat_inverse_f64.c:154:16
	str	r0, [sp, #256]
	.loc	16 154 9 is_stmt 0              @ ../Middlewares/CMSIS/DSP/Src/MatrixFunctions/arm_mat_inverse_f64.c:154:9
	b	.LBB11_14
.LBB11_14:                              @ =>This Loop Header: Depth=1
                                        @     Child Loop BB11_16 Depth 2
                                        @     Child Loop BB11_24 Depth 2
                                        @     Child Loop BB11_28 Depth 2
                                        @     Child Loop BB11_36 Depth 2
                                        @     Child Loop BB11_40 Depth 2
                                        @     Child Loop BB11_44 Depth 2
                                        @       Child Loop BB11_46 Depth 3
                                        @       Child Loop BB11_52 Depth 3
                                        @     Child Loop BB11_58 Depth 2
                                        @       Child Loop BB11_60 Depth 3
                                        @       Child Loop BB11_64 Depth 3
.Ltmp238:
	.loc	16 154 22                       @ ../Middlewares/CMSIS/DSP/Src/MatrixFunctions/arm_mat_inverse_f64.c:154:22
	ldr	r0, [sp, #256]
	.loc	16 154 31                       @ ../Middlewares/CMSIS/DSP/Src/MatrixFunctions/arm_mat_inverse_f64.c:154:31
	ldr	r1, [sp, #304]
.Ltmp239:
	.loc	16 154 5                        @ ../Middlewares/CMSIS/DSP/Src/MatrixFunctions/arm_mat_inverse_f64.c:154:5
	cmp	r0, r1
	bhs.w	.LBB11_71
	b	.LBB11_15
.LBB11_15:                              @   in Loop: Header=BB11_14 Depth=1
.Ltmp240:
	.loc	16 161 18 is_stmt 1             @ ../Middlewares/CMSIS/DSP/Src/MatrixFunctions/arm_mat_inverse_f64.c:161:18
	ldr	r0, [sp, #256]
	.loc	16 161 16 is_stmt 0             @ ../Middlewares/CMSIS/DSP/Src/MatrixFunctions/arm_mat_inverse_f64.c:161:16
	str	r0, [sp, #280]
	.loc	16 164 17 is_stmt 1             @ ../Middlewares/CMSIS/DSP/Src/MatrixFunctions/arm_mat_inverse_f64.c:164:17
	ldr	r1, [sp, #328]
	.loc	16 164 24 is_stmt 0             @ ../Middlewares/CMSIS/DSP/Src/MatrixFunctions/arm_mat_inverse_f64.c:164:24
	ldr	r0, [r1, #4]
	.loc	16 164 38                       @ ../Middlewares/CMSIS/DSP/Src/MatrixFunctions/arm_mat_inverse_f64.c:164:38
	ldrh	r1, [r1, #2]
	.loc	16 164 48                       @ ../Middlewares/CMSIS/DSP/Src/MatrixFunctions/arm_mat_inverse_f64.c:164:48
	ldr	r2, [sp, #256]
	.loc	16 164 56                       @ ../Middlewares/CMSIS/DSP/Src/MatrixFunctions/arm_mat_inverse_f64.c:164:56
	mla	r1, r1, r2, r2
	.loc	16 164 16                       @ ../Middlewares/CMSIS/DSP/Src/MatrixFunctions/arm_mat_inverse_f64.c:164:16
	add.w	r0, r0, r1, lsl #3
	.loc	16 164 12                       @ ../Middlewares/CMSIS/DSP/Src/MatrixFunctions/arm_mat_inverse_f64.c:164:12
	str	r0, [sp, #312]
	.loc	16 165 16 is_stmt 1             @ ../Middlewares/CMSIS/DSP/Src/MatrixFunctions/arm_mat_inverse_f64.c:165:16
	ldr	r0, [sp, #312]
	.loc	16 165 15 is_stmt 0             @ ../Middlewares/CMSIS/DSP/Src/MatrixFunctions/arm_mat_inverse_f64.c:165:15
	vldr	d0, [r0]
	.loc	16 165 13                       @ ../Middlewares/CMSIS/DSP/Src/MatrixFunctions/arm_mat_inverse_f64.c:165:13
	vstr	d0, [sp, #296]
	.loc	16 166 21 is_stmt 1             @ ../Middlewares/CMSIS/DSP/Src/MatrixFunctions/arm_mat_inverse_f64.c:166:21
	ldr	r0, [sp, #256]
	.loc	16 166 19 is_stmt 0             @ ../Middlewares/CMSIS/DSP/Src/MatrixFunctions/arm_mat_inverse_f64.c:166:19
	str	r0, [sp, #284]
.Ltmp241:
	.loc	16 171 20 is_stmt 1             @ ../Middlewares/CMSIS/DSP/Src/MatrixFunctions/arm_mat_inverse_f64.c:171:20
	ldr	r0, [sp, #256]
	.loc	16 171 26 is_stmt 0             @ ../Middlewares/CMSIS/DSP/Src/MatrixFunctions/arm_mat_inverse_f64.c:171:26
	adds	r0, #1
	.loc	16 171 18                       @ ../Middlewares/CMSIS/DSP/Src/MatrixFunctions/arm_mat_inverse_f64.c:171:18
	str	r0, [sp, #272]
	.loc	16 171 12                       @ ../Middlewares/CMSIS/DSP/Src/MatrixFunctions/arm_mat_inverse_f64.c:171:12
	b	.LBB11_16
.LBB11_16:                              @   Parent Loop BB11_14 Depth=1
                                        @ =>  This Inner Loop Header: Depth=2
.Ltmp242:
	.loc	16 171 30                       @ ../Middlewares/CMSIS/DSP/Src/MatrixFunctions/arm_mat_inverse_f64.c:171:30
	ldr	r0, [sp, #272]
	.loc	16 171 38                       @ ../Middlewares/CMSIS/DSP/Src/MatrixFunctions/arm_mat_inverse_f64.c:171:38
	ldr	r1, [sp, #308]
.Ltmp243:
	.loc	16 171 7                        @ ../Middlewares/CMSIS/DSP/Src/MatrixFunctions/arm_mat_inverse_f64.c:171:7
	cmp	r0, r1
	bhs	.LBB11_21
	b	.LBB11_17
.LBB11_17:                              @   in Loop: Header=BB11_16 Depth=2
.Ltmp244:
	.loc	16 174 21 is_stmt 1             @ ../Middlewares/CMSIS/DSP/Src/MatrixFunctions/arm_mat_inverse_f64.c:174:21
	ldr	r1, [sp, #328]
	.loc	16 174 28 is_stmt 0             @ ../Middlewares/CMSIS/DSP/Src/MatrixFunctions/arm_mat_inverse_f64.c:174:28
	ldr	r0, [r1, #4]
	.loc	16 174 42                       @ ../Middlewares/CMSIS/DSP/Src/MatrixFunctions/arm_mat_inverse_f64.c:174:42
	ldrh	r1, [r1, #2]
	.loc	16 174 52                       @ ../Middlewares/CMSIS/DSP/Src/MatrixFunctions/arm_mat_inverse_f64.c:174:52
	ldr	r2, [sp, #272]
	.loc	16 174 62                       @ ../Middlewares/CMSIS/DSP/Src/MatrixFunctions/arm_mat_inverse_f64.c:174:62
	ldr	r3, [sp, #256]
	.loc	16 174 59                       @ ../Middlewares/CMSIS/DSP/Src/MatrixFunctions/arm_mat_inverse_f64.c:174:59
	mla	r1, r1, r2, r3
	.loc	16 174 20                       @ ../Middlewares/CMSIS/DSP/Src/MatrixFunctions/arm_mat_inverse_f64.c:174:20
	add.w	r0, r0, r1, lsl #3
	.loc	16 174 16                       @ ../Middlewares/CMSIS/DSP/Src/MatrixFunctions/arm_mat_inverse_f64.c:174:16
	str	r0, [sp, #312]
	.loc	16 175 23 is_stmt 1             @ ../Middlewares/CMSIS/DSP/Src/MatrixFunctions/arm_mat_inverse_f64.c:175:23
	ldr	r0, [sp, #312]
	.loc	16 175 22 is_stmt 0             @ ../Middlewares/CMSIS/DSP/Src/MatrixFunctions/arm_mat_inverse_f64.c:175:22
	vldr	d0, [r0]
	.loc	16 175 20                       @ ../Middlewares/CMSIS/DSP/Src/MatrixFunctions/arm_mat_inverse_f64.c:175:20
	vstr	d0, [sp, #288]
.Ltmp245:
	.loc	16 176 20 is_stmt 1             @ ../Middlewares/CMSIS/DSP/Src/MatrixFunctions/arm_mat_inverse_f64.c:176:20
	ldr	r0, [sp, #288]
	ldr	r1, [sp, #292]
	vldr	d0, .LCPI11_2
	.loc	16 176 15 is_stmt 0             @ ../Middlewares/CMSIS/DSP/Src/MatrixFunctions/arm_mat_inverse_f64.c:176:15
	vmov	r3, r2, d0
	lsrs	r2, r2, #31
	bfi	r1, r2, #31, #1
	vmov	d1, r0, r1
	.loc	16 176 37                       @ ../Middlewares/CMSIS/DSP/Src/MatrixFunctions/arm_mat_inverse_f64.c:176:37
	ldr	r0, [sp, #296]
	ldr	r1, [sp, #300]
	.loc	16 176 32                       @ ../Middlewares/CMSIS/DSP/Src/MatrixFunctions/arm_mat_inverse_f64.c:176:32
	bfi	r1, r2, #31, #1
	vmov	d0, r0, r1
.Ltmp246:
	.loc	16 176 15                       @ ../Middlewares/CMSIS/DSP/Src/MatrixFunctions/arm_mat_inverse_f64.c:176:15
	vmov	r0, r1, d1
	vmov	r2, r3, d0
	bl	__aeabi_dcmple
	cbnz	r0, .LBB11_19
	b	.LBB11_18
.LBB11_18:                              @   in Loop: Header=BB11_16 Depth=2
.Ltmp247:
	.loc	16 178 27 is_stmt 1             @ ../Middlewares/CMSIS/DSP/Src/MatrixFunctions/arm_mat_inverse_f64.c:178:27
	ldr	r0, [sp, #272]
	.loc	16 178 25 is_stmt 0             @ ../Middlewares/CMSIS/DSP/Src/MatrixFunctions/arm_mat_inverse_f64.c:178:25
	str	r0, [sp, #284]
	.loc	16 179 21 is_stmt 1             @ ../Middlewares/CMSIS/DSP/Src/MatrixFunctions/arm_mat_inverse_f64.c:179:21
	vldr	d0, [sp, #288]
	.loc	16 179 19 is_stmt 0             @ ../Middlewares/CMSIS/DSP/Src/MatrixFunctions/arm_mat_inverse_f64.c:179:19
	vstr	d0, [sp, #296]
	.loc	16 180 11 is_stmt 1             @ ../Middlewares/CMSIS/DSP/Src/MatrixFunctions/arm_mat_inverse_f64.c:180:11
	b	.LBB11_19
.Ltmp248:
.LBB11_19:                              @   in Loop: Header=BB11_16 Depth=2
	.loc	16 181 7                        @ ../Middlewares/CMSIS/DSP/Src/MatrixFunctions/arm_mat_inverse_f64.c:181:7
	b	.LBB11_20
.Ltmp249:
.LBB11_20:                              @   in Loop: Header=BB11_16 Depth=2
	.loc	16 171 52                       @ ../Middlewares/CMSIS/DSP/Src/MatrixFunctions/arm_mat_inverse_f64.c:171:52
	ldr	r0, [sp, #272]
	adds	r0, #1
	str	r0, [sp, #272]
	.loc	16 171 7 is_stmt 0              @ ../Middlewares/CMSIS/DSP/Src/MatrixFunctions/arm_mat_inverse_f64.c:171:7
	b	.LBB11_16
.Ltmp250:
.LBB11_21:                              @   in Loop: Header=BB11_14 Depth=1
	.loc	16 185 12 is_stmt 1             @ ../Middlewares/CMSIS/DSP/Src/MatrixFunctions/arm_mat_inverse_f64.c:185:12
	ldr	r0, [sp, #296]
	ldr	r1, [sp, #300]
	vldr	d0, .LCPI11_2
	.loc	16 185 26 is_stmt 0             @ ../Middlewares/CMSIS/DSP/Src/MatrixFunctions/arm_mat_inverse_f64.c:185:26
	vmov	r2, r3, d0
	bl	__aeabi_dcmpeq
	cmp	r0, #0
	bne.w	.LBB11_32
	b	.LBB11_22
.LBB11_22:                              @   in Loop: Header=BB11_14 Depth=1
	.loc	16 185 30                       @ ../Middlewares/CMSIS/DSP/Src/MatrixFunctions/arm_mat_inverse_f64.c:185:30
	ldr	r0, [sp, #284]
	.loc	16 185 45                       @ ../Middlewares/CMSIS/DSP/Src/MatrixFunctions/arm_mat_inverse_f64.c:185:45
	ldr	r1, [sp, #256]
.Ltmp251:
	.loc	16 185 11                       @ ../Middlewares/CMSIS/DSP/Src/MatrixFunctions/arm_mat_inverse_f64.c:185:11
	cmp	r0, r1
	beq.w	.LBB11_32
	b	.LBB11_23
.LBB11_23:                              @   in Loop: Header=BB11_14 Depth=1
.Ltmp252:
	.loc	16 190 47 is_stmt 1             @ ../Middlewares/CMSIS/DSP/Src/MatrixFunctions/arm_mat_inverse_f64.c:190:47
	ldr	r0, [sp, #328]
	.loc	16 190 54 is_stmt 0             @ ../Middlewares/CMSIS/DSP/Src/MatrixFunctions/arm_mat_inverse_f64.c:190:54
	ldr	r0, [r0, #4]
	.loc	16 190 38                       @ ../Middlewares/CMSIS/DSP/Src/MatrixFunctions/arm_mat_inverse_f64.c:190:38
	str	r0, [sp, #244]
	.loc	16 190 81                       @ ../Middlewares/CMSIS/DSP/Src/MatrixFunctions/arm_mat_inverse_f64.c:190:81
	ldr	r0, [sp, #328]
	.loc	16 190 88                       @ ../Middlewares/CMSIS/DSP/Src/MatrixFunctions/arm_mat_inverse_f64.c:190:88
	ldr	r0, [r0, #4]
	.loc	16 190 72                       @ ../Middlewares/CMSIS/DSP/Src/MatrixFunctions/arm_mat_inverse_f64.c:190:72
	str	r0, [sp, #240]
	.loc	16 190 121                      @ ../Middlewares/CMSIS/DSP/Src/MatrixFunctions/arm_mat_inverse_f64.c:190:121
	ldr	r0, [sp, #328]
	.loc	16 190 128                      @ ../Middlewares/CMSIS/DSP/Src/MatrixFunctions/arm_mat_inverse_f64.c:190:128
	ldrh	r0, [r0, #2]
	.loc	16 190 109                      @ ../Middlewares/CMSIS/DSP/Src/MatrixFunctions/arm_mat_inverse_f64.c:190:109
	str	r0, [sp, #236]
	.loc	16 190 156                      @ ../Middlewares/CMSIS/DSP/Src/MatrixFunctions/arm_mat_inverse_f64.c:190:156
	ldr	r0, [sp, #236]
	.loc	16 190 166                      @ ../Middlewares/CMSIS/DSP/Src/MatrixFunctions/arm_mat_inverse_f64.c:190:166
	ldr	r1, [sp, #256]
	.loc	16 190 164                      @ ../Middlewares/CMSIS/DSP/Src/MatrixFunctions/arm_mat_inverse_f64.c:190:164
	subs	r0, r0, r1
	.loc	16 190 151                      @ ../Middlewares/CMSIS/DSP/Src/MatrixFunctions/arm_mat_inverse_f64.c:190:151
	str	r0, [sp, #232]
	.loc	16 190 184                      @ ../Middlewares/CMSIS/DSP/Src/MatrixFunctions/arm_mat_inverse_f64.c:190:184
	ldr	r0, [sp, #280]
	.loc	16 190 193                      @ ../Middlewares/CMSIS/DSP/Src/MatrixFunctions/arm_mat_inverse_f64.c:190:193
	ldr	r1, [sp, #236]
	.loc	16 190 205                      @ ../Middlewares/CMSIS/DSP/Src/MatrixFunctions/arm_mat_inverse_f64.c:190:205
	ldr	r2, [sp, #256]
	.loc	16 190 202                      @ ../Middlewares/CMSIS/DSP/Src/MatrixFunctions/arm_mat_inverse_f64.c:190:202
	mla	r1, r0, r1, r2
	.loc	16 190 181                      @ ../Middlewares/CMSIS/DSP/Src/MatrixFunctions/arm_mat_inverse_f64.c:190:181
	ldr	r0, [sp, #244]
	add.w	r0, r0, r1, lsl #3
	str	r0, [sp, #244]
	.loc	16 190 223                      @ ../Middlewares/CMSIS/DSP/Src/MatrixFunctions/arm_mat_inverse_f64.c:190:223
	ldr	r0, [sp, #284]
	.loc	16 190 235                      @ ../Middlewares/CMSIS/DSP/Src/MatrixFunctions/arm_mat_inverse_f64.c:190:235
	ldr	r1, [sp, #236]
	.loc	16 190 247                      @ ../Middlewares/CMSIS/DSP/Src/MatrixFunctions/arm_mat_inverse_f64.c:190:247
	ldr	r2, [sp, #256]
	.loc	16 190 244                      @ ../Middlewares/CMSIS/DSP/Src/MatrixFunctions/arm_mat_inverse_f64.c:190:244
	mla	r1, r0, r1, r2
	.loc	16 190 220                      @ ../Middlewares/CMSIS/DSP/Src/MatrixFunctions/arm_mat_inverse_f64.c:190:220
	ldr	r0, [sp, #240]
	add.w	r0, r0, r1, lsl #3
	str	r0, [sp, #240]
	movs	r0, #0
.Ltmp253:
	.loc	16 190 262                      @ ../Middlewares/CMSIS/DSP/Src/MatrixFunctions/arm_mat_inverse_f64.c:190:262
	str	r0, [sp, #248]
	.loc	16 190 260                      @ ../Middlewares/CMSIS/DSP/Src/MatrixFunctions/arm_mat_inverse_f64.c:190:260
	b	.LBB11_24
.LBB11_24:                              @   Parent Loop BB11_14 Depth=1
                                        @ =>  This Inner Loop Header: Depth=2
.Ltmp254:
	.loc	16 190 265                      @ ../Middlewares/CMSIS/DSP/Src/MatrixFunctions/arm_mat_inverse_f64.c:190:265
	ldr	r0, [sp, #248]
	.loc	16 190 270                      @ ../Middlewares/CMSIS/DSP/Src/MatrixFunctions/arm_mat_inverse_f64.c:190:270
	ldr	r1, [sp, #232]
.Ltmp255:
	.loc	16 190 256                      @ ../Middlewares/CMSIS/DSP/Src/MatrixFunctions/arm_mat_inverse_f64.c:190:256
	cmp	r0, r1
	bge	.LBB11_27
	b	.LBB11_25
.LBB11_25:                              @   in Loop: Header=BB11_24 Depth=2
.Ltmp256:
	.loc	16 190 304                      @ ../Middlewares/CMSIS/DSP/Src/MatrixFunctions/arm_mat_inverse_f64.c:190:304
	ldr	r0, [sp, #244]
	.loc	16 190 303                      @ ../Middlewares/CMSIS/DSP/Src/MatrixFunctions/arm_mat_inverse_f64.c:190:303
	vldr	d0, [r0]
	.loc	16 190 301                      @ ../Middlewares/CMSIS/DSP/Src/MatrixFunctions/arm_mat_inverse_f64.c:190:301
	vstr	d0, [sp, #224]
	.loc	16 190 323                      @ ../Middlewares/CMSIS/DSP/Src/MatrixFunctions/arm_mat_inverse_f64.c:190:323
	ldr	r0, [sp, #240]
	.loc	16 190 322                      @ ../Middlewares/CMSIS/DSP/Src/MatrixFunctions/arm_mat_inverse_f64.c:190:322
	vldr	d0, [r0]
	.loc	16 190 317                      @ ../Middlewares/CMSIS/DSP/Src/MatrixFunctions/arm_mat_inverse_f64.c:190:317
	ldr	r0, [sp, #244]
	add.w	r1, r0, #8
	str	r1, [sp, #244]
	.loc	16 190 320                      @ ../Middlewares/CMSIS/DSP/Src/MatrixFunctions/arm_mat_inverse_f64.c:190:320
	vstr	d0, [r0]
	.loc	16 190 341                      @ ../Middlewares/CMSIS/DSP/Src/MatrixFunctions/arm_mat_inverse_f64.c:190:341
	vldr	d0, [sp, #224]
	.loc	16 190 336                      @ ../Middlewares/CMSIS/DSP/Src/MatrixFunctions/arm_mat_inverse_f64.c:190:336
	ldr	r0, [sp, #240]
	add.w	r1, r0, #8
	str	r1, [sp, #240]
	.loc	16 190 339                      @ ../Middlewares/CMSIS/DSP/Src/MatrixFunctions/arm_mat_inverse_f64.c:190:339
	vstr	d0, [r0]
	.loc	16 190 346                      @ ../Middlewares/CMSIS/DSP/Src/MatrixFunctions/arm_mat_inverse_f64.c:190:346
	b	.LBB11_26
.Ltmp257:
.LBB11_26:                              @   in Loop: Header=BB11_24 Depth=2
	.loc	16 190 276                      @ ../Middlewares/CMSIS/DSP/Src/MatrixFunctions/arm_mat_inverse_f64.c:190:276
	ldr	r0, [sp, #248]
	adds	r0, #1
	str	r0, [sp, #248]
	.loc	16 190 256                      @ ../Middlewares/CMSIS/DSP/Src/MatrixFunctions/arm_mat_inverse_f64.c:190:256
	b	.LBB11_24
.Ltmp258:
.LBB11_27:                              @   in Loop: Header=BB11_14 Depth=1
	.loc	16 191 47 is_stmt 1             @ ../Middlewares/CMSIS/DSP/Src/MatrixFunctions/arm_mat_inverse_f64.c:191:47
	ldr	r0, [sp, #324]
	.loc	16 191 54 is_stmt 0             @ ../Middlewares/CMSIS/DSP/Src/MatrixFunctions/arm_mat_inverse_f64.c:191:54
	ldr	r0, [r0, #4]
	.loc	16 191 38                       @ ../Middlewares/CMSIS/DSP/Src/MatrixFunctions/arm_mat_inverse_f64.c:191:38
	str	r0, [sp, #216]
	.loc	16 191 81                       @ ../Middlewares/CMSIS/DSP/Src/MatrixFunctions/arm_mat_inverse_f64.c:191:81
	ldr	r0, [sp, #324]
	.loc	16 191 88                       @ ../Middlewares/CMSIS/DSP/Src/MatrixFunctions/arm_mat_inverse_f64.c:191:88
	ldr	r0, [r0, #4]
	.loc	16 191 72                       @ ../Middlewares/CMSIS/DSP/Src/MatrixFunctions/arm_mat_inverse_f64.c:191:72
	str	r0, [sp, #212]
	.loc	16 191 121                      @ ../Middlewares/CMSIS/DSP/Src/MatrixFunctions/arm_mat_inverse_f64.c:191:121
	ldr	r0, [sp, #324]
	.loc	16 191 128                      @ ../Middlewares/CMSIS/DSP/Src/MatrixFunctions/arm_mat_inverse_f64.c:191:128
	ldrh	r0, [r0, #2]
	.loc	16 191 109                      @ ../Middlewares/CMSIS/DSP/Src/MatrixFunctions/arm_mat_inverse_f64.c:191:109
	str	r0, [sp, #208]
	.loc	16 191 156                      @ ../Middlewares/CMSIS/DSP/Src/MatrixFunctions/arm_mat_inverse_f64.c:191:156
	ldr	r0, [sp, #208]
	.loc	16 191 151                      @ ../Middlewares/CMSIS/DSP/Src/MatrixFunctions/arm_mat_inverse_f64.c:191:151
	str	r0, [sp, #204]
	.loc	16 191 179                      @ ../Middlewares/CMSIS/DSP/Src/MatrixFunctions/arm_mat_inverse_f64.c:191:179
	ldr	r0, [sp, #280]
	.loc	16 191 188                      @ ../Middlewares/CMSIS/DSP/Src/MatrixFunctions/arm_mat_inverse_f64.c:191:188
	ldr	r1, [sp, #208]
	.loc	16 191 187                      @ ../Middlewares/CMSIS/DSP/Src/MatrixFunctions/arm_mat_inverse_f64.c:191:187
	muls	r1, r0, r1
	.loc	16 191 176                      @ ../Middlewares/CMSIS/DSP/Src/MatrixFunctions/arm_mat_inverse_f64.c:191:176
	ldr	r0, [sp, #216]
	add.w	r0, r0, r1, lsl #3
	str	r0, [sp, #216]
	.loc	16 191 213                      @ ../Middlewares/CMSIS/DSP/Src/MatrixFunctions/arm_mat_inverse_f64.c:191:213
	ldr	r0, [sp, #284]
	.loc	16 191 225                      @ ../Middlewares/CMSIS/DSP/Src/MatrixFunctions/arm_mat_inverse_f64.c:191:225
	ldr	r1, [sp, #208]
	.loc	16 191 224                      @ ../Middlewares/CMSIS/DSP/Src/MatrixFunctions/arm_mat_inverse_f64.c:191:224
	muls	r1, r0, r1
	.loc	16 191 210                      @ ../Middlewares/CMSIS/DSP/Src/MatrixFunctions/arm_mat_inverse_f64.c:191:210
	ldr	r0, [sp, #212]
	add.w	r0, r0, r1, lsl #3
	str	r0, [sp, #212]
	movs	r0, #0
.Ltmp259:
	.loc	16 191 247                      @ ../Middlewares/CMSIS/DSP/Src/MatrixFunctions/arm_mat_inverse_f64.c:191:247
	str	r0, [sp, #220]
	.loc	16 191 245                      @ ../Middlewares/CMSIS/DSP/Src/MatrixFunctions/arm_mat_inverse_f64.c:191:245
	b	.LBB11_28
.LBB11_28:                              @   Parent Loop BB11_14 Depth=1
                                        @ =>  This Inner Loop Header: Depth=2
.Ltmp260:
	.loc	16 191 250                      @ ../Middlewares/CMSIS/DSP/Src/MatrixFunctions/arm_mat_inverse_f64.c:191:250
	ldr	r0, [sp, #220]
	.loc	16 191 255                      @ ../Middlewares/CMSIS/DSP/Src/MatrixFunctions/arm_mat_inverse_f64.c:191:255
	ldr	r1, [sp, #204]
.Ltmp261:
	.loc	16 191 241                      @ ../Middlewares/CMSIS/DSP/Src/MatrixFunctions/arm_mat_inverse_f64.c:191:241
	cmp	r0, r1
	bge	.LBB11_31
	b	.LBB11_29
.LBB11_29:                              @   in Loop: Header=BB11_28 Depth=2
.Ltmp262:
	.loc	16 191 289                      @ ../Middlewares/CMSIS/DSP/Src/MatrixFunctions/arm_mat_inverse_f64.c:191:289
	ldr	r0, [sp, #216]
	.loc	16 191 288                      @ ../Middlewares/CMSIS/DSP/Src/MatrixFunctions/arm_mat_inverse_f64.c:191:288
	vldr	d0, [r0]
	.loc	16 191 286                      @ ../Middlewares/CMSIS/DSP/Src/MatrixFunctions/arm_mat_inverse_f64.c:191:286
	vstr	d0, [sp, #192]
	.loc	16 191 308                      @ ../Middlewares/CMSIS/DSP/Src/MatrixFunctions/arm_mat_inverse_f64.c:191:308
	ldr	r0, [sp, #212]
	.loc	16 191 307                      @ ../Middlewares/CMSIS/DSP/Src/MatrixFunctions/arm_mat_inverse_f64.c:191:307
	vldr	d0, [r0]
	.loc	16 191 302                      @ ../Middlewares/CMSIS/DSP/Src/MatrixFunctions/arm_mat_inverse_f64.c:191:302
	ldr	r0, [sp, #216]
	add.w	r1, r0, #8
	str	r1, [sp, #216]
	.loc	16 191 305                      @ ../Middlewares/CMSIS/DSP/Src/MatrixFunctions/arm_mat_inverse_f64.c:191:305
	vstr	d0, [r0]
	.loc	16 191 326                      @ ../Middlewares/CMSIS/DSP/Src/MatrixFunctions/arm_mat_inverse_f64.c:191:326
	vldr	d0, [sp, #192]
	.loc	16 191 321                      @ ../Middlewares/CMSIS/DSP/Src/MatrixFunctions/arm_mat_inverse_f64.c:191:321
	ldr	r0, [sp, #212]
	add.w	r1, r0, #8
	str	r1, [sp, #212]
	.loc	16 191 324                      @ ../Middlewares/CMSIS/DSP/Src/MatrixFunctions/arm_mat_inverse_f64.c:191:324
	vstr	d0, [r0]
	.loc	16 191 331                      @ ../Middlewares/CMSIS/DSP/Src/MatrixFunctions/arm_mat_inverse_f64.c:191:331
	b	.LBB11_30
.Ltmp263:
.LBB11_30:                              @   in Loop: Header=BB11_28 Depth=2
	.loc	16 191 261                      @ ../Middlewares/CMSIS/DSP/Src/MatrixFunctions/arm_mat_inverse_f64.c:191:261
	ldr	r0, [sp, #220]
	adds	r0, #1
	str	r0, [sp, #220]
	.loc	16 191 241                      @ ../Middlewares/CMSIS/DSP/Src/MatrixFunctions/arm_mat_inverse_f64.c:191:241
	b	.LBB11_28
.Ltmp264:
.LBB11_31:                              @   in Loop: Header=BB11_14 Depth=1
	.loc	16 0 241                        @ ../Middlewares/CMSIS/DSP/Src/MatrixFunctions/arm_mat_inverse_f64.c:0:241
	movs	r0, #1
	.loc	16 195 18 is_stmt 1             @ ../Middlewares/CMSIS/DSP/Src/MatrixFunctions/arm_mat_inverse_f64.c:195:18
	str	r0, [sp, #264]
	.loc	16 197 7                        @ ../Middlewares/CMSIS/DSP/Src/MatrixFunctions/arm_mat_inverse_f64.c:197:7
	b	.LBB11_32
.Ltmp265:
.LBB11_32:                              @   in Loop: Header=BB11_14 Depth=1
	.loc	16 201 12                       @ ../Middlewares/CMSIS/DSP/Src/MatrixFunctions/arm_mat_inverse_f64.c:201:12
	ldr	r0, [sp, #264]
	.loc	16 201 24 is_stmt 0             @ ../Middlewares/CMSIS/DSP/Src/MatrixFunctions/arm_mat_inverse_f64.c:201:24
	cmp	r0, #1
	beq	.LBB11_35
	b	.LBB11_33
.LBB11_33:                              @   in Loop: Header=BB11_14 Depth=1
	.loc	16 201 28                       @ ../Middlewares/CMSIS/DSP/Src/MatrixFunctions/arm_mat_inverse_f64.c:201:28
	ldr	r0, [sp, #296]
	ldr	r1, [sp, #300]
	vldr	d0, .LCPI11_2
.Ltmp266:
	.loc	16 201 11                       @ ../Middlewares/CMSIS/DSP/Src/MatrixFunctions/arm_mat_inverse_f64.c:201:11
	vmov	r2, r3, d0
	bl	__aeabi_dcmpeq
	cbz	r0, .LBB11_35
	b	.LBB11_34
.LBB11_34:
	.loc	16 0 11                         @ ../Middlewares/CMSIS/DSP/Src/MatrixFunctions/arm_mat_inverse_f64.c:0:11
	movs	r0, #251
.Ltmp267:
	.loc	16 203 9 is_stmt 1              @ ../Middlewares/CMSIS/DSP/Src/MatrixFunctions/arm_mat_inverse_f64.c:203:9
	strb.w	r0, [sp, #335]
	b	.LBB11_84
.Ltmp268:
.LBB11_35:                              @   in Loop: Header=BB11_14 Depth=1
	.loc	16 208 21                       @ ../Middlewares/CMSIS/DSP/Src/MatrixFunctions/arm_mat_inverse_f64.c:208:21
	vldr	d0, [sp, #296]
	vldr	d1, .LCPI11_3
	.loc	16 208 19 is_stmt 0             @ ../Middlewares/CMSIS/DSP/Src/MatrixFunctions/arm_mat_inverse_f64.c:208:19
	vmov	r0, r1, d1
	vmov	r2, r3, d0
	bl	__aeabi_ddiv
	vmov	d0, r0, r1
	.loc	16 208 13                       @ ../Middlewares/CMSIS/DSP/Src/MatrixFunctions/arm_mat_inverse_f64.c:208:13
	vstr	d0, [sp, #296]
.Ltmp269:
	.loc	16 210 40 is_stmt 1             @ ../Middlewares/CMSIS/DSP/Src/MatrixFunctions/arm_mat_inverse_f64.c:210:40
	ldr	r0, [sp, #328]
	.loc	16 210 47 is_stmt 0             @ ../Middlewares/CMSIS/DSP/Src/MatrixFunctions/arm_mat_inverse_f64.c:210:47
	ldr	r0, [r0, #4]
	.loc	16 210 32                       @ ../Middlewares/CMSIS/DSP/Src/MatrixFunctions/arm_mat_inverse_f64.c:210:32
	str	r0, [sp, #184]
	.loc	16 210 80                       @ ../Middlewares/CMSIS/DSP/Src/MatrixFunctions/arm_mat_inverse_f64.c:210:80
	ldr	r0, [sp, #328]
	.loc	16 210 87                       @ ../Middlewares/CMSIS/DSP/Src/MatrixFunctions/arm_mat_inverse_f64.c:210:87
	ldrh	r0, [r0, #2]
	.loc	16 210 68                       @ ../Middlewares/CMSIS/DSP/Src/MatrixFunctions/arm_mat_inverse_f64.c:210:68
	str	r0, [sp, #180]
	.loc	16 210 115                      @ ../Middlewares/CMSIS/DSP/Src/MatrixFunctions/arm_mat_inverse_f64.c:210:115
	ldr	r0, [sp, #180]
	.loc	16 210 125                      @ ../Middlewares/CMSIS/DSP/Src/MatrixFunctions/arm_mat_inverse_f64.c:210:125
	ldr	r1, [sp, #256]
	.loc	16 210 123                      @ ../Middlewares/CMSIS/DSP/Src/MatrixFunctions/arm_mat_inverse_f64.c:210:123
	subs	r0, r0, r1
	.loc	16 210 110                      @ ../Middlewares/CMSIS/DSP/Src/MatrixFunctions/arm_mat_inverse_f64.c:210:110
	str	r0, [sp, #176]
	.loc	16 210 142                      @ ../Middlewares/CMSIS/DSP/Src/MatrixFunctions/arm_mat_inverse_f64.c:210:142
	ldr	r0, [sp, #280]
	.loc	16 210 151                      @ ../Middlewares/CMSIS/DSP/Src/MatrixFunctions/arm_mat_inverse_f64.c:210:151
	ldr	r1, [sp, #180]
	.loc	16 210 163                      @ ../Middlewares/CMSIS/DSP/Src/MatrixFunctions/arm_mat_inverse_f64.c:210:163
	ldr	r2, [sp, #256]
	.loc	16 210 160                      @ ../Middlewares/CMSIS/DSP/Src/MatrixFunctions/arm_mat_inverse_f64.c:210:160
	mla	r1, r0, r1, r2
	.loc	16 210 139                      @ ../Middlewares/CMSIS/DSP/Src/MatrixFunctions/arm_mat_inverse_f64.c:210:139
	ldr	r0, [sp, #184]
	add.w	r0, r0, r1, lsl #3
	str	r0, [sp, #184]
	movs	r0, #0
.Ltmp270:
	.loc	16 210 178                      @ ../Middlewares/CMSIS/DSP/Src/MatrixFunctions/arm_mat_inverse_f64.c:210:178
	str	r0, [sp, #188]
	.loc	16 210 176                      @ ../Middlewares/CMSIS/DSP/Src/MatrixFunctions/arm_mat_inverse_f64.c:210:176
	b	.LBB11_36
.LBB11_36:                              @   Parent Loop BB11_14 Depth=1
                                        @ =>  This Inner Loop Header: Depth=2
.Ltmp271:
	.loc	16 210 181                      @ ../Middlewares/CMSIS/DSP/Src/MatrixFunctions/arm_mat_inverse_f64.c:210:181
	ldr	r0, [sp, #188]
	.loc	16 210 186                      @ ../Middlewares/CMSIS/DSP/Src/MatrixFunctions/arm_mat_inverse_f64.c:210:186
	ldr	r1, [sp, #176]
.Ltmp272:
	.loc	16 210 172                      @ ../Middlewares/CMSIS/DSP/Src/MatrixFunctions/arm_mat_inverse_f64.c:210:172
	cmp	r0, r1
	bge	.LBB11_39
	b	.LBB11_37
.LBB11_37:                              @   in Loop: Header=BB11_36 Depth=2
.Ltmp273:
	.loc	16 210 209                      @ ../Middlewares/CMSIS/DSP/Src/MatrixFunctions/arm_mat_inverse_f64.c:210:209
	vldr	d1, [sp, #296]
	.loc	16 210 203                      @ ../Middlewares/CMSIS/DSP/Src/MatrixFunctions/arm_mat_inverse_f64.c:210:203
	ldr	r0, [sp, #184]
	str	r0, [sp, #72]                   @ 4-byte Spill
	add.w	r1, r0, #8
	str	r1, [sp, #184]
	.loc	16 210 206                      @ ../Middlewares/CMSIS/DSP/Src/MatrixFunctions/arm_mat_inverse_f64.c:210:206
	vldr	d0, [r0]
	vmov	r2, r3, d1
	vmov	r0, r1, d0
	bl	__aeabi_dmul
	mov	r2, r0
	ldr	r0, [sp, #72]                   @ 4-byte Reload
	str	r2, [sp, #76]                   @ 4-byte Spill
	mov	r2, r1
	ldr	r1, [sp, #76]                   @ 4-byte Reload
	vmov	d0, r1, r2
	vstr	d0, [r0]
	.loc	16 210 216                      @ ../Middlewares/CMSIS/DSP/Src/MatrixFunctions/arm_mat_inverse_f64.c:210:216
	b	.LBB11_38
.Ltmp274:
.LBB11_38:                              @   in Loop: Header=BB11_36 Depth=2
	.loc	16 210 192                      @ ../Middlewares/CMSIS/DSP/Src/MatrixFunctions/arm_mat_inverse_f64.c:210:192
	ldr	r0, [sp, #188]
	adds	r0, #1
	str	r0, [sp, #188]
	.loc	16 210 172                      @ ../Middlewares/CMSIS/DSP/Src/MatrixFunctions/arm_mat_inverse_f64.c:210:172
	b	.LBB11_36
.Ltmp275:
.LBB11_39:                              @   in Loop: Header=BB11_14 Depth=1
	.loc	16 211 40 is_stmt 1             @ ../Middlewares/CMSIS/DSP/Src/MatrixFunctions/arm_mat_inverse_f64.c:211:40
	ldr	r0, [sp, #324]
	.loc	16 211 47 is_stmt 0             @ ../Middlewares/CMSIS/DSP/Src/MatrixFunctions/arm_mat_inverse_f64.c:211:47
	ldr	r0, [r0, #4]
	.loc	16 211 32                       @ ../Middlewares/CMSIS/DSP/Src/MatrixFunctions/arm_mat_inverse_f64.c:211:32
	str	r0, [sp, #168]
	.loc	16 211 80                       @ ../Middlewares/CMSIS/DSP/Src/MatrixFunctions/arm_mat_inverse_f64.c:211:80
	ldr	r0, [sp, #324]
	.loc	16 211 87                       @ ../Middlewares/CMSIS/DSP/Src/MatrixFunctions/arm_mat_inverse_f64.c:211:87
	ldrh	r0, [r0, #2]
	.loc	16 211 68                       @ ../Middlewares/CMSIS/DSP/Src/MatrixFunctions/arm_mat_inverse_f64.c:211:68
	str	r0, [sp, #164]
	.loc	16 211 115                      @ ../Middlewares/CMSIS/DSP/Src/MatrixFunctions/arm_mat_inverse_f64.c:211:115
	ldr	r0, [sp, #164]
	.loc	16 211 110                      @ ../Middlewares/CMSIS/DSP/Src/MatrixFunctions/arm_mat_inverse_f64.c:211:110
	str	r0, [sp, #160]
	.loc	16 211 137                      @ ../Middlewares/CMSIS/DSP/Src/MatrixFunctions/arm_mat_inverse_f64.c:211:137
	ldr	r0, [sp, #280]
	.loc	16 211 146                      @ ../Middlewares/CMSIS/DSP/Src/MatrixFunctions/arm_mat_inverse_f64.c:211:146
	ldr	r1, [sp, #164]
	.loc	16 211 145                      @ ../Middlewares/CMSIS/DSP/Src/MatrixFunctions/arm_mat_inverse_f64.c:211:145
	muls	r1, r0, r1
	.loc	16 211 134                      @ ../Middlewares/CMSIS/DSP/Src/MatrixFunctions/arm_mat_inverse_f64.c:211:134
	ldr	r0, [sp, #168]
	add.w	r0, r0, r1, lsl #3
	str	r0, [sp, #168]
	movs	r0, #0
.Ltmp276:
	.loc	16 211 168                      @ ../Middlewares/CMSIS/DSP/Src/MatrixFunctions/arm_mat_inverse_f64.c:211:168
	str	r0, [sp, #172]
	.loc	16 211 166                      @ ../Middlewares/CMSIS/DSP/Src/MatrixFunctions/arm_mat_inverse_f64.c:211:166
	b	.LBB11_40
.LBB11_40:                              @   Parent Loop BB11_14 Depth=1
                                        @ =>  This Inner Loop Header: Depth=2
.Ltmp277:
	.loc	16 211 171                      @ ../Middlewares/CMSIS/DSP/Src/MatrixFunctions/arm_mat_inverse_f64.c:211:171
	ldr	r0, [sp, #172]
	.loc	16 211 176                      @ ../Middlewares/CMSIS/DSP/Src/MatrixFunctions/arm_mat_inverse_f64.c:211:176
	ldr	r1, [sp, #160]
.Ltmp278:
	.loc	16 211 162                      @ ../Middlewares/CMSIS/DSP/Src/MatrixFunctions/arm_mat_inverse_f64.c:211:162
	cmp	r0, r1
	bge	.LBB11_43
	b	.LBB11_41
.LBB11_41:                              @   in Loop: Header=BB11_40 Depth=2
.Ltmp279:
	.loc	16 211 199                      @ ../Middlewares/CMSIS/DSP/Src/MatrixFunctions/arm_mat_inverse_f64.c:211:199
	vldr	d1, [sp, #296]
	.loc	16 211 193                      @ ../Middlewares/CMSIS/DSP/Src/MatrixFunctions/arm_mat_inverse_f64.c:211:193
	ldr	r0, [sp, #168]
	str	r0, [sp, #64]                   @ 4-byte Spill
	add.w	r1, r0, #8
	str	r1, [sp, #168]
	.loc	16 211 196                      @ ../Middlewares/CMSIS/DSP/Src/MatrixFunctions/arm_mat_inverse_f64.c:211:196
	vldr	d0, [r0]
	vmov	r2, r3, d1
	vmov	r0, r1, d0
	bl	__aeabi_dmul
	mov	r2, r0
	ldr	r0, [sp, #64]                   @ 4-byte Reload
	str	r2, [sp, #68]                   @ 4-byte Spill
	mov	r2, r1
	ldr	r1, [sp, #68]                   @ 4-byte Reload
	vmov	d0, r1, r2
	vstr	d0, [r0]
	.loc	16 211 206                      @ ../Middlewares/CMSIS/DSP/Src/MatrixFunctions/arm_mat_inverse_f64.c:211:206
	b	.LBB11_42
.Ltmp280:
.LBB11_42:                              @   in Loop: Header=BB11_40 Depth=2
	.loc	16 211 182                      @ ../Middlewares/CMSIS/DSP/Src/MatrixFunctions/arm_mat_inverse_f64.c:211:182
	ldr	r0, [sp, #172]
	adds	r0, #1
	str	r0, [sp, #172]
	.loc	16 211 162                      @ ../Middlewares/CMSIS/DSP/Src/MatrixFunctions/arm_mat_inverse_f64.c:211:162
	b	.LBB11_40
.Ltmp281:
.LBB11_43:                              @   in Loop: Header=BB11_14 Depth=1
	.loc	16 0 162                        @ ../Middlewares/CMSIS/DSP/Src/MatrixFunctions/arm_mat_inverse_f64.c:0:162
	movs	r0, #0
	.loc	16 217 13 is_stmt 1             @ ../Middlewares/CMSIS/DSP/Src/MatrixFunctions/arm_mat_inverse_f64.c:217:13
	str	r0, [sp, #272]
	.loc	16 218 7                        @ ../Middlewares/CMSIS/DSP/Src/MatrixFunctions/arm_mat_inverse_f64.c:218:7
	b	.LBB11_44
.LBB11_44:                              @   Parent Loop BB11_14 Depth=1
                                        @ =>  This Loop Header: Depth=2
                                        @       Child Loop BB11_46 Depth 3
                                        @       Child Loop BB11_52 Depth 3
.Ltmp282:
	.loc	16 218 13 is_stmt 0             @ ../Middlewares/CMSIS/DSP/Src/MatrixFunctions/arm_mat_inverse_f64.c:218:13
	ldr	r0, [sp, #272]
	.loc	16 218 21                       @ ../Middlewares/CMSIS/DSP/Src/MatrixFunctions/arm_mat_inverse_f64.c:218:21
	ldr	r1, [sp, #280]
.Ltmp283:
	.loc	16 218 7                        @ ../Middlewares/CMSIS/DSP/Src/MatrixFunctions/arm_mat_inverse_f64.c:218:7
	cmp	r0, r1
	bhs.w	.LBB11_57
	b	.LBB11_45
.LBB11_45:                              @   in Loop: Header=BB11_44 Depth=2
.Ltmp284:
	.loc	16 220 22 is_stmt 1             @ ../Middlewares/CMSIS/DSP/Src/MatrixFunctions/arm_mat_inverse_f64.c:220:22
	ldr	r1, [sp, #328]
	.loc	16 220 29 is_stmt 0             @ ../Middlewares/CMSIS/DSP/Src/MatrixFunctions/arm_mat_inverse_f64.c:220:29
	ldr	r0, [r1, #4]
	.loc	16 220 43                       @ ../Middlewares/CMSIS/DSP/Src/MatrixFunctions/arm_mat_inverse_f64.c:220:43
	ldrh	r1, [r1, #2]
	.loc	16 220 53                       @ ../Middlewares/CMSIS/DSP/Src/MatrixFunctions/arm_mat_inverse_f64.c:220:53
	ldr	r2, [sp, #272]
	.loc	16 220 63                       @ ../Middlewares/CMSIS/DSP/Src/MatrixFunctions/arm_mat_inverse_f64.c:220:63
	ldr	r3, [sp, #256]
	.loc	16 220 60                       @ ../Middlewares/CMSIS/DSP/Src/MatrixFunctions/arm_mat_inverse_f64.c:220:60
	mla	r1, r1, r2, r3
	.loc	16 220 21                       @ ../Middlewares/CMSIS/DSP/Src/MatrixFunctions/arm_mat_inverse_f64.c:220:21
	add.w	r0, r0, r1, lsl #3
	.loc	16 220 17                       @ ../Middlewares/CMSIS/DSP/Src/MatrixFunctions/arm_mat_inverse_f64.c:220:17
	str	r0, [sp, #312]
	.loc	16 221 21 is_stmt 1             @ ../Middlewares/CMSIS/DSP/Src/MatrixFunctions/arm_mat_inverse_f64.c:221:21
	ldr	r0, [sp, #312]
	.loc	16 221 20 is_stmt 0             @ ../Middlewares/CMSIS/DSP/Src/MatrixFunctions/arm_mat_inverse_f64.c:221:20
	vldr	d0, [r0]
	.loc	16 221 18                       @ ../Middlewares/CMSIS/DSP/Src/MatrixFunctions/arm_mat_inverse_f64.c:221:18
	vstr	d0, [sp, #296]
.Ltmp285:
	.loc	16 223 46 is_stmt 1             @ ../Middlewares/CMSIS/DSP/Src/MatrixFunctions/arm_mat_inverse_f64.c:223:46
	ldr	r0, [sp, #328]
	.loc	16 223 53 is_stmt 0             @ ../Middlewares/CMSIS/DSP/Src/MatrixFunctions/arm_mat_inverse_f64.c:223:53
	ldr	r0, [r0, #4]
	.loc	16 223 37                       @ ../Middlewares/CMSIS/DSP/Src/MatrixFunctions/arm_mat_inverse_f64.c:223:37
	str	r0, [sp, #152]
	.loc	16 223 80                       @ ../Middlewares/CMSIS/DSP/Src/MatrixFunctions/arm_mat_inverse_f64.c:223:80
	ldr	r0, [sp, #328]
	.loc	16 223 87                       @ ../Middlewares/CMSIS/DSP/Src/MatrixFunctions/arm_mat_inverse_f64.c:223:87
	ldr	r0, [r0, #4]
	.loc	16 223 71                       @ ../Middlewares/CMSIS/DSP/Src/MatrixFunctions/arm_mat_inverse_f64.c:223:71
	str	r0, [sp, #148]
	.loc	16 223 120                      @ ../Middlewares/CMSIS/DSP/Src/MatrixFunctions/arm_mat_inverse_f64.c:223:120
	ldr	r0, [sp, #328]
	.loc	16 223 127                      @ ../Middlewares/CMSIS/DSP/Src/MatrixFunctions/arm_mat_inverse_f64.c:223:127
	ldrh	r0, [r0, #2]
	.loc	16 223 108                      @ ../Middlewares/CMSIS/DSP/Src/MatrixFunctions/arm_mat_inverse_f64.c:223:108
	str	r0, [sp, #144]
	.loc	16 223 155                      @ ../Middlewares/CMSIS/DSP/Src/MatrixFunctions/arm_mat_inverse_f64.c:223:155
	ldr	r0, [sp, #144]
	.loc	16 223 165                      @ ../Middlewares/CMSIS/DSP/Src/MatrixFunctions/arm_mat_inverse_f64.c:223:165
	ldr	r1, [sp, #256]
	.loc	16 223 163                      @ ../Middlewares/CMSIS/DSP/Src/MatrixFunctions/arm_mat_inverse_f64.c:223:163
	subs	r0, r0, r1
	.loc	16 223 150                      @ ../Middlewares/CMSIS/DSP/Src/MatrixFunctions/arm_mat_inverse_f64.c:223:150
	str	r0, [sp, #140]
	.loc	16 223 183                      @ ../Middlewares/CMSIS/DSP/Src/MatrixFunctions/arm_mat_inverse_f64.c:223:183
	ldr	r0, [sp, #272]
	.loc	16 223 189                      @ ../Middlewares/CMSIS/DSP/Src/MatrixFunctions/arm_mat_inverse_f64.c:223:189
	ldr	r1, [sp, #144]
	.loc	16 223 201                      @ ../Middlewares/CMSIS/DSP/Src/MatrixFunctions/arm_mat_inverse_f64.c:223:201
	ldr	r2, [sp, #256]
	.loc	16 223 198                      @ ../Middlewares/CMSIS/DSP/Src/MatrixFunctions/arm_mat_inverse_f64.c:223:198
	mla	r1, r0, r1, r2
	.loc	16 223 180                      @ ../Middlewares/CMSIS/DSP/Src/MatrixFunctions/arm_mat_inverse_f64.c:223:180
	ldr	r0, [sp, #152]
	add.w	r0, r0, r1, lsl #3
	str	r0, [sp, #152]
	.loc	16 223 219                      @ ../Middlewares/CMSIS/DSP/Src/MatrixFunctions/arm_mat_inverse_f64.c:223:219
	ldr	r0, [sp, #280]
	.loc	16 223 228                      @ ../Middlewares/CMSIS/DSP/Src/MatrixFunctions/arm_mat_inverse_f64.c:223:228
	ldr	r1, [sp, #144]
	.loc	16 223 240                      @ ../Middlewares/CMSIS/DSP/Src/MatrixFunctions/arm_mat_inverse_f64.c:223:240
	ldr	r2, [sp, #256]
	.loc	16 223 237                      @ ../Middlewares/CMSIS/DSP/Src/MatrixFunctions/arm_mat_inverse_f64.c:223:237
	mla	r1, r0, r1, r2
	.loc	16 223 216                      @ ../Middlewares/CMSIS/DSP/Src/MatrixFunctions/arm_mat_inverse_f64.c:223:216
	ldr	r0, [sp, #148]
	add.w	r0, r0, r1, lsl #3
	str	r0, [sp, #148]
	movs	r0, #0
.Ltmp286:
	.loc	16 223 255                      @ ../Middlewares/CMSIS/DSP/Src/MatrixFunctions/arm_mat_inverse_f64.c:223:255
	str	r0, [sp, #156]
	.loc	16 223 253                      @ ../Middlewares/CMSIS/DSP/Src/MatrixFunctions/arm_mat_inverse_f64.c:223:253
	b	.LBB11_46
.LBB11_46:                              @   Parent Loop BB11_14 Depth=1
                                        @     Parent Loop BB11_44 Depth=2
                                        @ =>    This Inner Loop Header: Depth=3
.Ltmp287:
	.loc	16 223 258                      @ ../Middlewares/CMSIS/DSP/Src/MatrixFunctions/arm_mat_inverse_f64.c:223:258
	ldr	r0, [sp, #156]
	.loc	16 223 263                      @ ../Middlewares/CMSIS/DSP/Src/MatrixFunctions/arm_mat_inverse_f64.c:223:263
	ldr	r1, [sp, #140]
.Ltmp288:
	.loc	16 223 249                      @ ../Middlewares/CMSIS/DSP/Src/MatrixFunctions/arm_mat_inverse_f64.c:223:249
	cmp	r0, r1
	bge	.LBB11_51
	b	.LBB11_47
.LBB11_47:                              @   in Loop: Header=BB11_46 Depth=3
.Ltmp289:
	.loc	16 223 287                      @ ../Middlewares/CMSIS/DSP/Src/MatrixFunctions/arm_mat_inverse_f64.c:223:287
	vldr	d1, [sp, #296]
	.loc	16 223 300                      @ ../Middlewares/CMSIS/DSP/Src/MatrixFunctions/arm_mat_inverse_f64.c:223:300
	ldr	r0, [sp, #148]
	add.w	r1, r0, #8
	str	r1, [sp, #148]
	.loc	16 223 294                      @ ../Middlewares/CMSIS/DSP/Src/MatrixFunctions/arm_mat_inverse_f64.c:223:294
	vldr	d0, [r0]
	.loc	16 223 281                      @ ../Middlewares/CMSIS/DSP/Src/MatrixFunctions/arm_mat_inverse_f64.c:223:281
	ldr	r0, [sp, #152]
	str	r0, [sp, #56]                   @ 4-byte Spill
	add.w	r1, r0, #8
	str	r1, [sp, #152]
	.loc	16 223 284                      @ ../Middlewares/CMSIS/DSP/Src/MatrixFunctions/arm_mat_inverse_f64.c:223:284
	vldr	d2, [r0]
	vstr	d2, [sp, #48]                   @ 8-byte Spill
	vmov	r0, r1, d1
	vmov	r2, r3, d0
	bl	__aeabi_dmul
	vldr	d0, [sp, #48]                   @ 8-byte Reload
	vmov	d1, r0, r1
	vmov	r2, r3, d1
	vmov	r0, r1, d0
	bl	__aeabi_dsub
	mov	r2, r0
	ldr	r0, [sp, #56]                   @ 4-byte Reload
	str	r2, [sp, #60]                   @ 4-byte Spill
	mov	r2, r1
	ldr	r1, [sp, #60]                   @ 4-byte Reload
	vmov	d0, r1, r2
	vstr	d0, [r0]
	.loc	16 223 304                      @ ../Middlewares/CMSIS/DSP/Src/MatrixFunctions/arm_mat_inverse_f64.c:223:304
	b	.LBB11_48
.Ltmp290:
.LBB11_48:                              @   in Loop: Header=BB11_46 Depth=3
	.loc	16 223 269                      @ ../Middlewares/CMSIS/DSP/Src/MatrixFunctions/arm_mat_inverse_f64.c:223:269
	ldr	r0, [sp, #156]
	adds	r0, #1
	str	r0, [sp, #156]
	.loc	16 223 249                      @ ../Middlewares/CMSIS/DSP/Src/MatrixFunctions/arm_mat_inverse_f64.c:223:249
	b	.LBB11_46
.Ltmp291:
	.p2align	3
@ %bb.49:
	.loc	16 0 249                        @ ../Middlewares/CMSIS/DSP/Src/MatrixFunctions/arm_mat_inverse_f64.c:0:249
.LCPI11_2:
	.long	0                               @ double 0
	.long	0
	.p2align	3
@ %bb.50:
.LCPI11_3:
	.long	0                               @ double 1
	.long	1072693248
	.p2align	1
.LBB11_51:                              @   in Loop: Header=BB11_44 Depth=2
.Ltmp292:
	.loc	16 224 46 is_stmt 1             @ ../Middlewares/CMSIS/DSP/Src/MatrixFunctions/arm_mat_inverse_f64.c:224:46
	ldr	r0, [sp, #324]
	.loc	16 224 53 is_stmt 0             @ ../Middlewares/CMSIS/DSP/Src/MatrixFunctions/arm_mat_inverse_f64.c:224:53
	ldr	r0, [r0, #4]
	.loc	16 224 37                       @ ../Middlewares/CMSIS/DSP/Src/MatrixFunctions/arm_mat_inverse_f64.c:224:37
	str	r0, [sp, #132]
	.loc	16 224 80                       @ ../Middlewares/CMSIS/DSP/Src/MatrixFunctions/arm_mat_inverse_f64.c:224:80
	ldr	r0, [sp, #324]
	.loc	16 224 87                       @ ../Middlewares/CMSIS/DSP/Src/MatrixFunctions/arm_mat_inverse_f64.c:224:87
	ldr	r0, [r0, #4]
	.loc	16 224 71                       @ ../Middlewares/CMSIS/DSP/Src/MatrixFunctions/arm_mat_inverse_f64.c:224:71
	str	r0, [sp, #128]
	.loc	16 224 120                      @ ../Middlewares/CMSIS/DSP/Src/MatrixFunctions/arm_mat_inverse_f64.c:224:120
	ldr	r0, [sp, #324]
	.loc	16 224 127                      @ ../Middlewares/CMSIS/DSP/Src/MatrixFunctions/arm_mat_inverse_f64.c:224:127
	ldrh	r0, [r0, #2]
	.loc	16 224 108                      @ ../Middlewares/CMSIS/DSP/Src/MatrixFunctions/arm_mat_inverse_f64.c:224:108
	str	r0, [sp, #124]
	.loc	16 224 155                      @ ../Middlewares/CMSIS/DSP/Src/MatrixFunctions/arm_mat_inverse_f64.c:224:155
	ldr	r0, [sp, #124]
	.loc	16 224 150                      @ ../Middlewares/CMSIS/DSP/Src/MatrixFunctions/arm_mat_inverse_f64.c:224:150
	str	r0, [sp, #120]
	.loc	16 224 178                      @ ../Middlewares/CMSIS/DSP/Src/MatrixFunctions/arm_mat_inverse_f64.c:224:178
	ldr	r0, [sp, #272]
	.loc	16 224 184                      @ ../Middlewares/CMSIS/DSP/Src/MatrixFunctions/arm_mat_inverse_f64.c:224:184
	ldr	r1, [sp, #124]
	.loc	16 224 183                      @ ../Middlewares/CMSIS/DSP/Src/MatrixFunctions/arm_mat_inverse_f64.c:224:183
	muls	r1, r0, r1
	.loc	16 224 175                      @ ../Middlewares/CMSIS/DSP/Src/MatrixFunctions/arm_mat_inverse_f64.c:224:175
	ldr	r0, [sp, #132]
	add.w	r0, r0, r1, lsl #3
	str	r0, [sp, #132]
	.loc	16 224 209                      @ ../Middlewares/CMSIS/DSP/Src/MatrixFunctions/arm_mat_inverse_f64.c:224:209
	ldr	r0, [sp, #280]
	.loc	16 224 218                      @ ../Middlewares/CMSIS/DSP/Src/MatrixFunctions/arm_mat_inverse_f64.c:224:218
	ldr	r1, [sp, #124]
	.loc	16 224 217                      @ ../Middlewares/CMSIS/DSP/Src/MatrixFunctions/arm_mat_inverse_f64.c:224:217
	muls	r1, r0, r1
	.loc	16 224 206                      @ ../Middlewares/CMSIS/DSP/Src/MatrixFunctions/arm_mat_inverse_f64.c:224:206
	ldr	r0, [sp, #128]
	add.w	r0, r0, r1, lsl #3
	str	r0, [sp, #128]
	movs	r0, #0
.Ltmp293:
	.loc	16 224 240                      @ ../Middlewares/CMSIS/DSP/Src/MatrixFunctions/arm_mat_inverse_f64.c:224:240
	str	r0, [sp, #136]
	.loc	16 224 238                      @ ../Middlewares/CMSIS/DSP/Src/MatrixFunctions/arm_mat_inverse_f64.c:224:238
	b	.LBB11_52
.LBB11_52:                              @   Parent Loop BB11_14 Depth=1
                                        @     Parent Loop BB11_44 Depth=2
                                        @ =>    This Inner Loop Header: Depth=3
.Ltmp294:
	.loc	16 224 243                      @ ../Middlewares/CMSIS/DSP/Src/MatrixFunctions/arm_mat_inverse_f64.c:224:243
	ldr	r0, [sp, #136]
	.loc	16 224 248                      @ ../Middlewares/CMSIS/DSP/Src/MatrixFunctions/arm_mat_inverse_f64.c:224:248
	ldr	r1, [sp, #120]
.Ltmp295:
	.loc	16 224 234                      @ ../Middlewares/CMSIS/DSP/Src/MatrixFunctions/arm_mat_inverse_f64.c:224:234
	cmp	r0, r1
	bge	.LBB11_55
	b	.LBB11_53
.LBB11_53:                              @   in Loop: Header=BB11_52 Depth=3
.Ltmp296:
	.loc	16 224 272                      @ ../Middlewares/CMSIS/DSP/Src/MatrixFunctions/arm_mat_inverse_f64.c:224:272
	vldr	d1, [sp, #296]
	.loc	16 224 285                      @ ../Middlewares/CMSIS/DSP/Src/MatrixFunctions/arm_mat_inverse_f64.c:224:285
	ldr	r0, [sp, #128]
	add.w	r1, r0, #8
	str	r1, [sp, #128]
	.loc	16 224 279                      @ ../Middlewares/CMSIS/DSP/Src/MatrixFunctions/arm_mat_inverse_f64.c:224:279
	vldr	d0, [r0]
	.loc	16 224 266                      @ ../Middlewares/CMSIS/DSP/Src/MatrixFunctions/arm_mat_inverse_f64.c:224:266
	ldr	r0, [sp, #132]
	str	r0, [sp, #40]                   @ 4-byte Spill
	add.w	r1, r0, #8
	str	r1, [sp, #132]
	.loc	16 224 269                      @ ../Middlewares/CMSIS/DSP/Src/MatrixFunctions/arm_mat_inverse_f64.c:224:269
	vldr	d2, [r0]
	vstr	d2, [sp, #32]                   @ 8-byte Spill
	vmov	r0, r1, d1
	vmov	r2, r3, d0
	bl	__aeabi_dmul
	vldr	d0, [sp, #32]                   @ 8-byte Reload
	vmov	d1, r0, r1
	vmov	r2, r3, d1
	vmov	r0, r1, d0
	bl	__aeabi_dsub
	mov	r2, r0
	ldr	r0, [sp, #40]                   @ 4-byte Reload
	str	r2, [sp, #44]                   @ 4-byte Spill
	mov	r2, r1
	ldr	r1, [sp, #44]                   @ 4-byte Reload
	vmov	d0, r1, r2
	vstr	d0, [r0]
	.loc	16 224 289                      @ ../Middlewares/CMSIS/DSP/Src/MatrixFunctions/arm_mat_inverse_f64.c:224:289
	b	.LBB11_54
.Ltmp297:
.LBB11_54:                              @   in Loop: Header=BB11_52 Depth=3
	.loc	16 224 254                      @ ../Middlewares/CMSIS/DSP/Src/MatrixFunctions/arm_mat_inverse_f64.c:224:254
	ldr	r0, [sp, #136]
	adds	r0, #1
	str	r0, [sp, #136]
	.loc	16 224 234                      @ ../Middlewares/CMSIS/DSP/Src/MatrixFunctions/arm_mat_inverse_f64.c:224:234
	b	.LBB11_52
.Ltmp298:
.LBB11_55:                              @   in Loop: Header=BB11_44 Depth=2
	.loc	16 227 7 is_stmt 1              @ ../Middlewares/CMSIS/DSP/Src/MatrixFunctions/arm_mat_inverse_f64.c:227:7
	b	.LBB11_56
.Ltmp299:
.LBB11_56:                              @   in Loop: Header=BB11_44 Depth=2
	.loc	16 218 36                       @ ../Middlewares/CMSIS/DSP/Src/MatrixFunctions/arm_mat_inverse_f64.c:218:36
	ldr	r0, [sp, #272]
	adds	r0, #1
	str	r0, [sp, #272]
	.loc	16 218 7 is_stmt 0              @ ../Middlewares/CMSIS/DSP/Src/MatrixFunctions/arm_mat_inverse_f64.c:218:7
	b	.LBB11_44
.Ltmp300:
.LBB11_57:                              @   in Loop: Header=BB11_14 Depth=1
	.loc	16 229 20 is_stmt 1             @ ../Middlewares/CMSIS/DSP/Src/MatrixFunctions/arm_mat_inverse_f64.c:229:20
	ldr	r0, [sp, #280]
	.loc	16 229 29 is_stmt 0             @ ../Middlewares/CMSIS/DSP/Src/MatrixFunctions/arm_mat_inverse_f64.c:229:29
	adds	r0, #1
	.loc	16 229 18                       @ ../Middlewares/CMSIS/DSP/Src/MatrixFunctions/arm_mat_inverse_f64.c:229:18
	str	r0, [sp, #272]
	.loc	16 229 12                       @ ../Middlewares/CMSIS/DSP/Src/MatrixFunctions/arm_mat_inverse_f64.c:229:12
	b	.LBB11_58
.LBB11_58:                              @   Parent Loop BB11_14 Depth=1
                                        @ =>  This Loop Header: Depth=2
                                        @       Child Loop BB11_60 Depth 3
                                        @       Child Loop BB11_64 Depth 3
.Ltmp301:
	.loc	16 229 34                       @ ../Middlewares/CMSIS/DSP/Src/MatrixFunctions/arm_mat_inverse_f64.c:229:34
	ldr	r0, [sp, #272]
	.loc	16 229 42                       @ ../Middlewares/CMSIS/DSP/Src/MatrixFunctions/arm_mat_inverse_f64.c:229:42
	ldr	r1, [sp, #308]
.Ltmp302:
	.loc	16 229 7                        @ ../Middlewares/CMSIS/DSP/Src/MatrixFunctions/arm_mat_inverse_f64.c:229:7
	cmp	r0, r1
	bhs.w	.LBB11_69
	b	.LBB11_59
.LBB11_59:                              @   in Loop: Header=BB11_58 Depth=2
.Ltmp303:
	.loc	16 231 22 is_stmt 1             @ ../Middlewares/CMSIS/DSP/Src/MatrixFunctions/arm_mat_inverse_f64.c:231:22
	ldr	r1, [sp, #328]
	.loc	16 231 29 is_stmt 0             @ ../Middlewares/CMSIS/DSP/Src/MatrixFunctions/arm_mat_inverse_f64.c:231:29
	ldr	r0, [r1, #4]
	.loc	16 231 43                       @ ../Middlewares/CMSIS/DSP/Src/MatrixFunctions/arm_mat_inverse_f64.c:231:43
	ldrh	r1, [r1, #2]
	.loc	16 231 53                       @ ../Middlewares/CMSIS/DSP/Src/MatrixFunctions/arm_mat_inverse_f64.c:231:53
	ldr	r2, [sp, #272]
	.loc	16 231 63                       @ ../Middlewares/CMSIS/DSP/Src/MatrixFunctions/arm_mat_inverse_f64.c:231:63
	ldr	r3, [sp, #256]
	.loc	16 231 60                       @ ../Middlewares/CMSIS/DSP/Src/MatrixFunctions/arm_mat_inverse_f64.c:231:60
	mla	r1, r1, r2, r3
	.loc	16 231 21                       @ ../Middlewares/CMSIS/DSP/Src/MatrixFunctions/arm_mat_inverse_f64.c:231:21
	add.w	r0, r0, r1, lsl #3
	.loc	16 231 17                       @ ../Middlewares/CMSIS/DSP/Src/MatrixFunctions/arm_mat_inverse_f64.c:231:17
	str	r0, [sp, #312]
	.loc	16 232 21 is_stmt 1             @ ../Middlewares/CMSIS/DSP/Src/MatrixFunctions/arm_mat_inverse_f64.c:232:21
	ldr	r0, [sp, #312]
	.loc	16 232 20 is_stmt 0             @ ../Middlewares/CMSIS/DSP/Src/MatrixFunctions/arm_mat_inverse_f64.c:232:20
	vldr	d0, [r0]
	.loc	16 232 18                       @ ../Middlewares/CMSIS/DSP/Src/MatrixFunctions/arm_mat_inverse_f64.c:232:18
	vstr	d0, [sp, #296]
.Ltmp304:
	.loc	16 234 46 is_stmt 1             @ ../Middlewares/CMSIS/DSP/Src/MatrixFunctions/arm_mat_inverse_f64.c:234:46
	ldr	r0, [sp, #328]
	.loc	16 234 53 is_stmt 0             @ ../Middlewares/CMSIS/DSP/Src/MatrixFunctions/arm_mat_inverse_f64.c:234:53
	ldr	r0, [r0, #4]
	.loc	16 234 37                       @ ../Middlewares/CMSIS/DSP/Src/MatrixFunctions/arm_mat_inverse_f64.c:234:37
	str	r0, [sp, #112]
	.loc	16 234 80                       @ ../Middlewares/CMSIS/DSP/Src/MatrixFunctions/arm_mat_inverse_f64.c:234:80
	ldr	r0, [sp, #328]
	.loc	16 234 87                       @ ../Middlewares/CMSIS/DSP/Src/MatrixFunctions/arm_mat_inverse_f64.c:234:87
	ldr	r0, [r0, #4]
	.loc	16 234 71                       @ ../Middlewares/CMSIS/DSP/Src/MatrixFunctions/arm_mat_inverse_f64.c:234:71
	str	r0, [sp, #108]
	.loc	16 234 120                      @ ../Middlewares/CMSIS/DSP/Src/MatrixFunctions/arm_mat_inverse_f64.c:234:120
	ldr	r0, [sp, #328]
	.loc	16 234 127                      @ ../Middlewares/CMSIS/DSP/Src/MatrixFunctions/arm_mat_inverse_f64.c:234:127
	ldrh	r0, [r0, #2]
	.loc	16 234 108                      @ ../Middlewares/CMSIS/DSP/Src/MatrixFunctions/arm_mat_inverse_f64.c:234:108
	str	r0, [sp, #104]
	.loc	16 234 155                      @ ../Middlewares/CMSIS/DSP/Src/MatrixFunctions/arm_mat_inverse_f64.c:234:155
	ldr	r0, [sp, #104]
	.loc	16 234 165                      @ ../Middlewares/CMSIS/DSP/Src/MatrixFunctions/arm_mat_inverse_f64.c:234:165
	ldr	r1, [sp, #256]
	.loc	16 234 163                      @ ../Middlewares/CMSIS/DSP/Src/MatrixFunctions/arm_mat_inverse_f64.c:234:163
	subs	r0, r0, r1
	.loc	16 234 150                      @ ../Middlewares/CMSIS/DSP/Src/MatrixFunctions/arm_mat_inverse_f64.c:234:150
	str	r0, [sp, #100]
	.loc	16 234 183                      @ ../Middlewares/CMSIS/DSP/Src/MatrixFunctions/arm_mat_inverse_f64.c:234:183
	ldr	r0, [sp, #272]
	.loc	16 234 189                      @ ../Middlewares/CMSIS/DSP/Src/MatrixFunctions/arm_mat_inverse_f64.c:234:189
	ldr	r1, [sp, #104]
	.loc	16 234 201                      @ ../Middlewares/CMSIS/DSP/Src/MatrixFunctions/arm_mat_inverse_f64.c:234:201
	ldr	r2, [sp, #256]
	.loc	16 234 198                      @ ../Middlewares/CMSIS/DSP/Src/MatrixFunctions/arm_mat_inverse_f64.c:234:198
	mla	r1, r0, r1, r2
	.loc	16 234 180                      @ ../Middlewares/CMSIS/DSP/Src/MatrixFunctions/arm_mat_inverse_f64.c:234:180
	ldr	r0, [sp, #112]
	add.w	r0, r0, r1, lsl #3
	str	r0, [sp, #112]
