	.text
	.syntax unified
	.eabi_attribute	67, "2.09"	@ Tag_conformance
	.cpu	cortex-m4
	.eabi_attribute	6, 13	@ Tag_CPU_arch
	.eabi_attribute	7, 77	@ Tag_CPU_arch_profile
	.eabi_attribute	8, 0	@ Tag_ARM_ISA_use
	.eabi_attribute	9, 2	@ Tag_THUMB_ISA_use
	.fpu	fpv4-sp-d16
	.eabi_attribute	27, 1	@ Tag_ABI_HardFP_use
	.eabi_attribute	36, 1	@ Tag_FP_HP_extension
	.eabi_attribute	34, 1	@ Tag_CPU_unaligned_access
	.eabi_attribute	17, 1	@ Tag_ABI_PCS_GOT_use
	.eabi_attribute	20, 2	@ Tag_ABI_FP_denormal
	.eabi_attribute	21, 0	@ Tag_ABI_FP_exceptions
	.eabi_attribute	23, 3	@ Tag_ABI_FP_number_model
	.eabi_attribute	24, 1	@ Tag_ABI_align_needed
	.eabi_attribute	25, 1	@ Tag_ABI_align_preserved
	.eabi_attribute	28, 1	@ Tag_ABI_VFP_args
	.eabi_attribute	38, 1	@ Tag_ABI_FP_16bit_format
	.eabi_attribute	18, 2	@ Tag_ABI_PCS_wchar_t
	.eabi_attribute	26, 1	@ Tag_ABI_enum_size
	.eabi_attribute	14, 0	@ Tag_ABI_PCS_R9_use
	.file	"MCP2515.c"
	.file	1 "D:\\horizon\\Horizon_Infantry (2)\\MDK-ARM" "../Drivers/STM32F4xx_HAL_Driver/Inc/stm32f4xx_hal_def.h"
	.file	2 "D:\\horizon\\Horizon_Infantry (2)\\MDK-ARM" "../Drivers/STM32F4xx_HAL_Driver/Inc\\stm32f4xx_hal_dma.h"
	.file	3 "D:\\horizon\\Horizon_Infantry (2)\\MDK-ARM" "../Drivers/STM32F4xx_HAL_Driver/Inc\\stm32f4xx_hal_spi.h"
	.file	4 "D:\\horizon\\Horizon_Infantry (2)\\MDK-ARM" "../Drivers/STM32F4xx_HAL_Driver/Inc\\stm32f4xx_hal_gpio.h"
	.file	5 "D:\\" "kevil\\ARM\\ARMCLANG\\Bin\\..\\include\\stdint.h"
	.file	6 "D:\\horizon\\Horizon_Infantry (2)\\MDK-ARM" "../Drivers/CMSIS/Device/ST/STM32F4xx/Include/stm32f407xx.h"
	.section	.text.WHW_MCP2515_CS_HIGH,"ax",%progbits
	.hidden	WHW_MCP2515_CS_HIGH             @ -- Begin function WHW_MCP2515_CS_HIGH
	.globl	WHW_MCP2515_CS_HIGH
	.p2align	2
	.type	WHW_MCP2515_CS_HIGH,%function
	.code	16                              @ @WHW_MCP2515_CS_HIGH
	.thumb_func
WHW_MCP2515_CS_HIGH:
.Lfunc_begin0:
	.file	7 "D:\\horizon\\Horizon_Infantry (2)\\MDK-ARM" "../User/Bsp/MCP2515.c"
	.loc	7 30 0                          @ ../User/Bsp/MCP2515.c:30:0
	.fnstart
	.cfi_sections .debug_frame
	.cfi_startproc
@ %bb.0:
	.save	{r7, lr}
	push	{r7, lr}
	.cfi_def_cfa_offset 8
	.cfi_offset lr, -4
	.cfi_offset r7, -8
	.pad	#8
	sub	sp, #8
	.cfi_def_cfa_offset 16
	str	r0, [sp, #4]
.Ltmp0:
	.loc	7 33 9 prologue_end             @ ../User/Bsp/MCP2515.c:33:9
	ldr	r0, [sp, #4]
	.loc	7 33 14 is_stmt 0               @ ../User/Bsp/MCP2515.c:33:14
	movw	r1, :lower16:hspi2
	movt	r1, :upper16:hspi2
.Ltmp1:
	.loc	7 33 9                          @ ../User/Bsp/MCP2515.c:33:9
	cmp	r0, r1
	bne	.LBB0_2
	b	.LBB0_1
.LBB0_1:
	.loc	7 0 9                           @ ../User/Bsp/MCP2515.c:0:9
	movw	r0, #1024
	movt	r0, #16386
	mov.w	r1, #4096
	movs	r2, #1
.Ltmp2:
	.loc	7 34 9 is_stmt 1                @ ../User/Bsp/MCP2515.c:34:9
	bl	HAL_GPIO_WritePin
	b	.LBB0_2
.Ltmp3:
.LBB0_2:
	.loc	7 35 1                          @ ../User/Bsp/MCP2515.c:35:1
	add	sp, #8
	pop	{r7, pc}
.Ltmp4:
.Lfunc_end0:
	.size	WHW_MCP2515_CS_HIGH, .Lfunc_end0-WHW_MCP2515_CS_HIGH
	.cfi_endproc
	.cantunwind
	.fnend
                                        @ -- End function
	.section	.text.WHW_MCP2515_CS_LOW,"ax",%progbits
	.hidden	WHW_MCP2515_CS_LOW              @ -- Begin function WHW_MCP2515_CS_LOW
	.globl	WHW_MCP2515_CS_LOW
	.p2align	2
	.type	WHW_MCP2515_CS_LOW,%function
	.code	16                              @ @WHW_MCP2515_CS_LOW
	.thumb_func
WHW_MCP2515_CS_LOW:
.Lfunc_begin1:
	.loc	7 38 0                          @ ../User/Bsp/MCP2515.c:38:0
	.fnstart
	.cfi_startproc
@ %bb.0:
	.save	{r7, lr}
	push	{r7, lr}
	.cfi_def_cfa_offset 8
	.cfi_offset lr, -4
	.cfi_offset r7, -8
	.pad	#8
	sub	sp, #8
	.cfi_def_cfa_offset 16
	str	r0, [sp, #4]
.Ltmp5:
	.loc	7 41 9 prologue_end             @ ../User/Bsp/MCP2515.c:41:9
	ldr	r0, [sp, #4]
	.loc	7 41 14 is_stmt 0               @ ../User/Bsp/MCP2515.c:41:14
	movw	r1, :lower16:hspi2
	movt	r1, :upper16:hspi2
.Ltmp6:
	.loc	7 41 9                          @ ../User/Bsp/MCP2515.c:41:9
	cmp	r0, r1
	bne	.LBB1_2
	b	.LBB1_1
.LBB1_1:
	.loc	7 0 9                           @ ../User/Bsp/MCP2515.c:0:9
	movw	r0, #1024
	movt	r0, #16386
	mov.w	r1, #4096
	movs	r2, #0
.Ltmp7:
	.loc	7 42 9 is_stmt 1                @ ../User/Bsp/MCP2515.c:42:9
	bl	HAL_GPIO_WritePin
	b	.LBB1_2
.Ltmp8:
.LBB1_2:
	.loc	7 43 1                          @ ../User/Bsp/MCP2515.c:43:1
	add	sp, #8
	pop	{r7, pc}
.Ltmp9:
.Lfunc_end1:
	.size	WHW_MCP2515_CS_LOW, .Lfunc_end1-WHW_MCP2515_CS_LOW
	.cfi_endproc
	.cantunwind
	.fnend
                                        @ -- End function
	.section	.text.MCP2515_Initialize,"ax",%progbits
	.hidden	MCP2515_Initialize              @ -- Begin function MCP2515_Initialize
	.globl	MCP2515_Initialize
	.p2align	2
	.type	MCP2515_Initialize,%function
	.code	16                              @ @MCP2515_Initialize
	.thumb_func
MCP2515_Initialize:
.Lfunc_begin2:
	.loc	7 56 0                          @ ../User/Bsp/MCP2515.c:56:0
	.fnstart
	.cfi_startproc
@ %bb.0:
	.save	{r7, lr}
	push	{r7, lr}
	.cfi_def_cfa_offset 8
	.cfi_offset lr, -4
	.cfi_offset r7, -8
	.pad	#16
	sub	sp, #16
	.cfi_def_cfa_offset 24
	str	r0, [sp, #8]
.Ltmp10:
	.loc	7 57 23 prologue_end            @ ../User/Bsp/MCP2515.c:57:23
	ldr	r0, [sp, #8]
	.loc	7 57 3 is_stmt 0                @ ../User/Bsp/MCP2515.c:57:3
	bl	WHW_MCP2515_CS_HIGH
	movs	r0, #10
	.loc	7 59 11 is_stmt 1               @ ../User/Bsp/MCP2515.c:59:11
	strb.w	r0, [sp, #7]
	.loc	7 61 3                          @ ../User/Bsp/MCP2515.c:61:3
	b	.LBB2_1
.LBB2_1:                                @ =>This Inner Loop Header: Depth=1
.Ltmp11:
	.loc	7 63 25                         @ ../User/Bsp/MCP2515.c:63:25
	ldr	r0, [sp, #8]
	.loc	7 63 8 is_stmt 0                @ ../User/Bsp/MCP2515.c:63:8
	bl	HAL_SPI_GetState
.Ltmp12:
	.loc	7 63 8                          @ ../User/Bsp/MCP2515.c:63:8
	cmp	r0, #1
	bne	.LBB2_3
	b	.LBB2_2
.LBB2_2:
	.loc	7 0 8                           @ ../User/Bsp/MCP2515.c:0:8
	movs	r0, #1
.Ltmp13:
	.loc	7 64 7 is_stmt 1                @ ../User/Bsp/MCP2515.c:64:7
	strb.w	r0, [sp, #15]
	b	.LBB2_6
.Ltmp14:
.LBB2_3:                                @   in Loop: Header=BB2_1 Depth=1
	.loc	7 66 9                          @ ../User/Bsp/MCP2515.c:66:9
	ldrb.w	r0, [sp, #7]
	subs	r0, #1
	strb.w	r0, [sp, #7]
	.loc	7 67 3                          @ ../User/Bsp/MCP2515.c:67:3
	b	.LBB2_4
.Ltmp15:
.LBB2_4:                                @   in Loop: Header=BB2_1 Depth=1
	.loc	7 67 11 is_stmt 0               @ ../User/Bsp/MCP2515.c:67:11
	ldrb.w	r0, [sp, #7]
.Ltmp16:
	.loc	7 67 3                          @ ../User/Bsp/MCP2515.c:67:3
	cmp	r0, #0
	bgt	.LBB2_1
	b	.LBB2_5
.Ltmp17:
.LBB2_5:
	.loc	7 0 3                           @ ../User/Bsp/MCP2515.c:0:3
	movs	r0, #0
	.loc	7 69 3 is_stmt 1                @ ../User/Bsp/MCP2515.c:69:3
	strb.w	r0, [sp, #15]
	b	.LBB2_6
.LBB2_6:
	.loc	7 70 1                          @ ../User/Bsp/MCP2515.c:70:1
	ldrb.w	r0, [sp, #15]
	add	sp, #16
	pop	{r7, pc}
.Ltmp18:
.Lfunc_end2:
	.size	MCP2515_Initialize, .Lfunc_end2-MCP2515_Initialize
	.cfi_endproc
	.cantunwind
	.fnend
                                        @ -- End function
	.section	.text.MCP2515_SetConfigMode,"ax",%progbits
	.hidden	MCP2515_SetConfigMode           @ -- Begin function MCP2515_SetConfigMode
	.globl	MCP2515_SetConfigMode
	.p2align	2
	.type	MCP2515_SetConfigMode,%function
	.code	16                              @ @MCP2515_SetConfigMode
	.thumb_func
MCP2515_SetConfigMode:
.Lfunc_begin3:
	.loc	7 74 0                          @ ../User/Bsp/MCP2515.c:74:0
	.fnstart
	.cfi_startproc
@ %bb.0:
	.save	{r7, lr}
	push	{r7, lr}
	.cfi_def_cfa_offset 8
	.cfi_offset lr, -4
	.cfi_offset r7, -8
	.pad	#16
	sub	sp, #16
	.cfi_def_cfa_offset 24
	str	r0, [sp, #8]
.Ltmp19:
	.loc	7 76 21 prologue_end            @ ../User/Bsp/MCP2515.c:76:21
	ldr	r0, [sp, #8]
	movs	r1, #15
	movs	r2, #128
	.loc	7 76 3 is_stmt 0                @ ../User/Bsp/MCP2515.c:76:3
	bl	MCP2515_WriteByte
	movs	r0, #10
	.loc	7 78 11 is_stmt 1               @ ../User/Bsp/MCP2515.c:78:11
	strb.w	r0, [sp, #7]
	.loc	7 80 3                          @ ../User/Bsp/MCP2515.c:80:3
	b	.LBB3_1
.LBB3_1:                                @ =>This Inner Loop Header: Depth=1
.Ltmp20:
	.loc	7 82 26                         @ ../User/Bsp/MCP2515.c:82:26
	ldr	r0, [sp, #8]
	movs	r1, #14
	.loc	7 82 9 is_stmt 0                @ ../User/Bsp/MCP2515.c:82:9
	bl	MCP2515_ReadByte
	.loc	7 82 38                         @ ../User/Bsp/MCP2515.c:82:38
	and	r0, r0, #224
.Ltmp21:
	.loc	7 82 8                          @ ../User/Bsp/MCP2515.c:82:8
	cmp	r0, #128
	bne	.LBB3_3
	b	.LBB3_2
.LBB3_2:
	.loc	7 0 8                           @ ../User/Bsp/MCP2515.c:0:8
	movs	r0, #1
.Ltmp22:
	.loc	7 83 7 is_stmt 1                @ ../User/Bsp/MCP2515.c:83:7
	strb.w	r0, [sp, #15]
	b	.LBB3_6
.Ltmp23:
.LBB3_3:                                @   in Loop: Header=BB3_1 Depth=1
	.loc	7 85 9                          @ ../User/Bsp/MCP2515.c:85:9
	ldrb.w	r0, [sp, #7]
	subs	r0, #1
	strb.w	r0, [sp, #7]
	.loc	7 86 3                          @ ../User/Bsp/MCP2515.c:86:3
	b	.LBB3_4
.Ltmp24:
.LBB3_4:                                @   in Loop: Header=BB3_1 Depth=1
	.loc	7 86 11 is_stmt 0               @ ../User/Bsp/MCP2515.c:86:11
	ldrb.w	r0, [sp, #7]
.Ltmp25:
	.loc	7 86 3                          @ ../User/Bsp/MCP2515.c:86:3
	cmp	r0, #0
	bgt	.LBB3_1
	b	.LBB3_5
.Ltmp26:
.LBB3_5:
	.loc	7 0 3                           @ ../User/Bsp/MCP2515.c:0:3
	movs	r0, #0
	.loc	7 88 3 is_stmt 1                @ ../User/Bsp/MCP2515.c:88:3
	strb.w	r0, [sp, #15]
	b	.LBB3_6
.LBB3_6:
	.loc	7 89 1                          @ ../User/Bsp/MCP2515.c:89:1
	ldrb.w	r0, [sp, #15]
	add	sp, #16
	pop	{r7, pc}
.Ltmp27:
.Lfunc_end3:
	.size	MCP2515_SetConfigMode, .Lfunc_end3-MCP2515_SetConfigMode
	.cfi_endproc
	.cantunwind
	.fnend
                                        @ -- End function
	.section	.text.MCP2515_WriteByte,"ax",%progbits
	.hidden	MCP2515_WriteByte               @ -- Begin function MCP2515_WriteByte
	.globl	MCP2515_WriteByte
	.p2align	2
	.type	MCP2515_WriteByte,%function
	.code	16                              @ @MCP2515_WriteByte
	.thumb_func
MCP2515_WriteByte:
.Lfunc_begin4:
	.loc	7 168 0                         @ ../User/Bsp/MCP2515.c:168:0
	.fnstart
	.cfi_startproc
@ %bb.0:
	.save	{r7, lr}
	push	{r7, lr}
	.cfi_def_cfa_offset 8
	.cfi_offset lr, -4
	.cfi_offset r7, -8
	.pad	#8
	sub	sp, #8
	.cfi_def_cfa_offset 16
                                        @ kill: def $r3 killed $r2
                                        @ kill: def $r3 killed $r1
	str	r0, [sp, #4]
	strb.w	r1, [sp, #3]
	strb.w	r2, [sp, #2]
.Ltmp28:
	.loc	7 169 22 prologue_end           @ ../User/Bsp/MCP2515.c:169:22
	ldr	r0, [sp, #4]
	.loc	7 169 3 is_stmt 0               @ ../User/Bsp/MCP2515.c:169:3
	bl	WHW_MCP2515_CS_LOW
	.loc	7 171 10 is_stmt 1              @ ../User/Bsp/MCP2515.c:171:10
	ldr	r0, [sp, #4]
	movs	r1, #2
	.loc	7 171 3 is_stmt 0               @ ../User/Bsp/MCP2515.c:171:3
	bl	SPI_Tx
	.loc	7 172 10 is_stmt 1              @ ../User/Bsp/MCP2515.c:172:10
	ldr	r0, [sp, #4]
	.loc	7 172 16 is_stmt 0              @ ../User/Bsp/MCP2515.c:172:16
	ldrb.w	r1, [sp, #3]
	.loc	7 172 3                         @ ../User/Bsp/MCP2515.c:172:3
	bl	SPI_Tx
	.loc	7 173 10 is_stmt 1              @ ../User/Bsp/MCP2515.c:173:10
	ldr	r0, [sp, #4]
	.loc	7 173 16 is_stmt 0              @ ../User/Bsp/MCP2515.c:173:16
	ldrb.w	r1, [sp, #2]
	.loc	7 173 3                         @ ../User/Bsp/MCP2515.c:173:3
	bl	SPI_Tx
	.loc	7 175 23 is_stmt 1              @ ../User/Bsp/MCP2515.c:175:23
	ldr	r0, [sp, #4]
	.loc	7 175 3 is_stmt 0               @ ../User/Bsp/MCP2515.c:175:3
	bl	WHW_MCP2515_CS_HIGH
	.loc	7 176 1 is_stmt 1               @ ../User/Bsp/MCP2515.c:176:1
	add	sp, #8
	pop	{r7, pc}
.Ltmp29:
.Lfunc_end4:
	.size	MCP2515_WriteByte, .Lfunc_end4-MCP2515_WriteByte
	.cfi_endproc
	.cantunwind
	.fnend
                                        @ -- End function
	.section	.text.MCP2515_ReadByte,"ax",%progbits
	.hidden	MCP2515_ReadByte                @ -- Begin function MCP2515_ReadByte
	.globl	MCP2515_ReadByte
	.p2align	2
	.type	MCP2515_ReadByte,%function
	.code	16                              @ @MCP2515_ReadByte
	.thumb_func
MCP2515_ReadByte:
.Lfunc_begin5:
	.loc	7 141 0                         @ ../User/Bsp/MCP2515.c:141:0
	.fnstart
	.cfi_startproc
@ %bb.0:
	.save	{r7, lr}
	push	{r7, lr}
	.cfi_def_cfa_offset 8
	.cfi_offset lr, -4
	.cfi_offset r7, -8
	.pad	#8
	sub	sp, #8
	.cfi_def_cfa_offset 16
                                        @ kill: def $r2 killed $r1
	str	r0, [sp, #4]
	strb.w	r1, [sp, #3]
.Ltmp30:
	.loc	7 144 22 prologue_end           @ ../User/Bsp/MCP2515.c:144:22
	ldr	r0, [sp, #4]
	.loc	7 144 3 is_stmt 0               @ ../User/Bsp/MCP2515.c:144:3
	bl	WHW_MCP2515_CS_LOW
	.loc	7 146 10 is_stmt 1              @ ../User/Bsp/MCP2515.c:146:10
	ldr	r0, [sp, #4]
	movs	r1, #3
	.loc	7 146 3 is_stmt 0               @ ../User/Bsp/MCP2515.c:146:3
	bl	SPI_Tx
	.loc	7 147 10 is_stmt 1              @ ../User/Bsp/MCP2515.c:147:10
	ldr	r0, [sp, #4]
	.loc	7 147 16 is_stmt 0              @ ../User/Bsp/MCP2515.c:147:16
	ldrb.w	r1, [sp, #3]
	.loc	7 147 3                         @ ../User/Bsp/MCP2515.c:147:3
	bl	SPI_Tx
	.loc	7 148 19 is_stmt 1              @ ../User/Bsp/MCP2515.c:148:19
	ldr	r0, [sp, #4]
	.loc	7 148 12 is_stmt 0              @ ../User/Bsp/MCP2515.c:148:12
	bl	SPI_Rx
	.loc	7 148 10                        @ ../User/Bsp/MCP2515.c:148:10
	strb.w	r0, [sp, #2]
	.loc	7 150 23 is_stmt 1              @ ../User/Bsp/MCP2515.c:150:23
	ldr	r0, [sp, #4]
	.loc	7 150 3 is_stmt 0               @ ../User/Bsp/MCP2515.c:150:3
	bl	WHW_MCP2515_CS_HIGH
	.loc	7 152 10 is_stmt 1              @ ../User/Bsp/MCP2515.c:152:10
	ldrb.w	r0, [sp, #2]
	.loc	7 152 3 is_stmt 0               @ ../User/Bsp/MCP2515.c:152:3
	add	sp, #8
	pop	{r7, pc}
.Ltmp31:
.Lfunc_end5:
	.size	MCP2515_ReadByte, .Lfunc_end5-MCP2515_ReadByte
	.cfi_endproc
	.cantunwind
	.fnend
                                        @ -- End function
	.section	.text.MCP2515_SetNormalMode,"ax",%progbits
	.hidden	MCP2515_SetNormalMode           @ -- Begin function MCP2515_SetNormalMode
	.globl	MCP2515_SetNormalMode
	.p2align	2
	.type	MCP2515_SetNormalMode,%function
	.code	16                              @ @MCP2515_SetNormalMode
	.thumb_func
MCP2515_SetNormalMode:
.Lfunc_begin6:
	.loc	7 93 0 is_stmt 1                @ ../User/Bsp/MCP2515.c:93:0
	.fnstart
	.cfi_startproc
@ %bb.0:
	.save	{r7, lr}
	push	{r7, lr}
	.cfi_def_cfa_offset 8
	.cfi_offset lr, -4
	.cfi_offset r7, -8
	.pad	#16
	sub	sp, #16
	.cfi_def_cfa_offset 24
	str	r0, [sp, #8]
.Ltmp32:
	.loc	7 95 21 prologue_end            @ ../User/Bsp/MCP2515.c:95:21
	ldr	r0, [sp, #8]
	movs	r1, #15
	movs	r2, #0
	.loc	7 95 3 is_stmt 0                @ ../User/Bsp/MCP2515.c:95:3
	bl	MCP2515_WriteByte
	movs	r0, #10
	.loc	7 97 11 is_stmt 1               @ ../User/Bsp/MCP2515.c:97:11
	strb.w	r0, [sp, #7]
	.loc	7 99 3                          @ ../User/Bsp/MCP2515.c:99:3
	b	.LBB6_1
.LBB6_1:                                @ =>This Inner Loop Header: Depth=1
.Ltmp33:
	.loc	7 101 26                        @ ../User/Bsp/MCP2515.c:101:26
	ldr	r0, [sp, #8]
	movs	r1, #14
	.loc	7 101 9 is_stmt 0               @ ../User/Bsp/MCP2515.c:101:9
	bl	MCP2515_ReadByte
.Ltmp34:
	.loc	7 101 8                         @ ../User/Bsp/MCP2515.c:101:8
	tst.w	r0, #224
	bne	.LBB6_3
	b	.LBB6_2
.LBB6_2:
	.loc	7 0 8                           @ ../User/Bsp/MCP2515.c:0:8
	movs	r0, #1
.Ltmp35:
	.loc	7 102 7 is_stmt 1               @ ../User/Bsp/MCP2515.c:102:7
	strb.w	r0, [sp, #15]
	b	.LBB6_6
.Ltmp36:
.LBB6_3:                                @   in Loop: Header=BB6_1 Depth=1
	.loc	7 104 9                         @ ../User/Bsp/MCP2515.c:104:9
	ldrb.w	r0, [sp, #7]
	subs	r0, #1
	strb.w	r0, [sp, #7]
	.loc	7 105 3                         @ ../User/Bsp/MCP2515.c:105:3
	b	.LBB6_4
.Ltmp37:
.LBB6_4:                                @   in Loop: Header=BB6_1 Depth=1
	.loc	7 105 11 is_stmt 0              @ ../User/Bsp/MCP2515.c:105:11
	ldrb.w	r0, [sp, #7]
.Ltmp38:
	.loc	7 105 3                         @ ../User/Bsp/MCP2515.c:105:3
	cmp	r0, #0
	bgt	.LBB6_1
	b	.LBB6_5
.Ltmp39:
.LBB6_5:
	.loc	7 0 3                           @ ../User/Bsp/MCP2515.c:0:3
	movs	r0, #0
	.loc	7 107 3 is_stmt 1               @ ../User/Bsp/MCP2515.c:107:3
	strb.w	r0, [sp, #15]
	b	.LBB6_6
.LBB6_6:
	.loc	7 108 1                         @ ../User/Bsp/MCP2515.c:108:1
	ldrb.w	r0, [sp, #15]
	add	sp, #16
	pop	{r7, pc}
.Ltmp40:
.Lfunc_end6:
	.size	MCP2515_SetNormalMode, .Lfunc_end6-MCP2515_SetNormalMode
	.cfi_endproc
	.cantunwind
	.fnend
                                        @ -- End function
	.section	.text.MCP2515_SetSleepMode,"ax",%progbits
	.hidden	MCP2515_SetSleepMode            @ -- Begin function MCP2515_SetSleepMode
	.globl	MCP2515_SetSleepMode
	.p2align	2
	.type	MCP2515_SetSleepMode,%function
	.code	16                              @ @MCP2515_SetSleepMode
	.thumb_func
MCP2515_SetSleepMode:
.Lfunc_begin7:
	.loc	7 112 0                         @ ../User/Bsp/MCP2515.c:112:0
	.fnstart
	.cfi_startproc
@ %bb.0:
	.save	{r7, lr}
	push	{r7, lr}
	.cfi_def_cfa_offset 8
	.cfi_offset lr, -4
	.cfi_offset r7, -8
	.pad	#16
	sub	sp, #16
	.cfi_def_cfa_offset 24
	str	r0, [sp, #8]
.Ltmp41:
	.loc	7 114 21 prologue_end           @ ../User/Bsp/MCP2515.c:114:21
	ldr	r0, [sp, #8]
	movs	r1, #15
	movs	r2, #32
	.loc	7 114 3 is_stmt 0               @ ../User/Bsp/MCP2515.c:114:3
	bl	MCP2515_WriteByte
	movs	r0, #10
	.loc	7 116 11 is_stmt 1              @ ../User/Bsp/MCP2515.c:116:11
	strb.w	r0, [sp, #7]
	.loc	7 118 3                         @ ../User/Bsp/MCP2515.c:118:3
	b	.LBB7_1
.LBB7_1:                                @ =>This Inner Loop Header: Depth=1
.Ltmp42:
	.loc	7 120 26                        @ ../User/Bsp/MCP2515.c:120:26
	ldr	r0, [sp, #8]
	movs	r1, #14
	.loc	7 120 9 is_stmt 0               @ ../User/Bsp/MCP2515.c:120:9
	bl	MCP2515_ReadByte
	.loc	7 120 38                        @ ../User/Bsp/MCP2515.c:120:38
	and	r0, r0, #224
.Ltmp43:
	.loc	7 120 8                         @ ../User/Bsp/MCP2515.c:120:8
	cmp	r0, #32
	bne	.LBB7_3
	b	.LBB7_2
.LBB7_2:
	.loc	7 0 8                           @ ../User/Bsp/MCP2515.c:0:8
	movs	r0, #1
.Ltmp44:
	.loc	7 121 7 is_stmt 1               @ ../User/Bsp/MCP2515.c:121:7
	strb.w	r0, [sp, #15]
	b	.LBB7_6
.Ltmp45:
.LBB7_3:                                @   in Loop: Header=BB7_1 Depth=1
	.loc	7 123 9                         @ ../User/Bsp/MCP2515.c:123:9
	ldrb.w	r0, [sp, #7]
	subs	r0, #1
	strb.w	r0, [sp, #7]
	.loc	7 124 3                         @ ../User/Bsp/MCP2515.c:124:3
	b	.LBB7_4
.Ltmp46:
.LBB7_4:                                @   in Loop: Header=BB7_1 Depth=1
	.loc	7 124 11 is_stmt 0              @ ../User/Bsp/MCP2515.c:124:11
	ldrb.w	r0, [sp, #7]
.Ltmp47:
	.loc	7 124 3                         @ ../User/Bsp/MCP2515.c:124:3
	cmp	r0, #0
	bgt	.LBB7_1
	b	.LBB7_5
.Ltmp48:
.LBB7_5:
	.loc	7 0 3                           @ ../User/Bsp/MCP2515.c:0:3
	movs	r0, #0
	.loc	7 126 3 is_stmt 1               @ ../User/Bsp/MCP2515.c:126:3
	strb.w	r0, [sp, #15]
	b	.LBB7_6
.LBB7_6:
	.loc	7 127 1                         @ ../User/Bsp/MCP2515.c:127:1
	ldrb.w	r0, [sp, #15]
	add	sp, #16
	pop	{r7, pc}
.Ltmp49:
.Lfunc_end7:
	.size	MCP2515_SetSleepMode, .Lfunc_end7-MCP2515_SetSleepMode
	.cfi_endproc
	.cantunwind
	.fnend
                                        @ -- End function
	.section	.text.MCP2515_Reset,"ax",%progbits
	.hidden	MCP2515_Reset                   @ -- Begin function MCP2515_Reset
	.globl	MCP2515_Reset
	.p2align	2
	.type	MCP2515_Reset,%function
	.code	16                              @ @MCP2515_Reset
	.thumb_func
MCP2515_Reset:
.Lfunc_begin8:
	.loc	7 131 0                         @ ../User/Bsp/MCP2515.c:131:0
	.fnstart
	.cfi_startproc
@ %bb.0:
	.save	{r7, lr}
	push	{r7, lr}
	.cfi_def_cfa_offset 8
	.cfi_offset lr, -4
	.cfi_offset r7, -8
	.pad	#8
	sub	sp, #8
	.cfi_def_cfa_offset 16
	str	r0, [sp, #4]
.Ltmp50:
	.loc	7 132 22 prologue_end           @ ../User/Bsp/MCP2515.c:132:22
	ldr	r0, [sp, #4]
	.loc	7 132 3 is_stmt 0               @ ../User/Bsp/MCP2515.c:132:3
	bl	WHW_MCP2515_CS_LOW
	.loc	7 134 10 is_stmt 1              @ ../User/Bsp/MCP2515.c:134:10
	ldr	r0, [sp, #4]
	movs	r1, #192
	.loc	7 134 3 is_stmt 0               @ ../User/Bsp/MCP2515.c:134:3
	bl	SPI_Tx
	.loc	7 136 23 is_stmt 1              @ ../User/Bsp/MCP2515.c:136:23
	ldr	r0, [sp, #4]
	.loc	7 136 3 is_stmt 0               @ ../User/Bsp/MCP2515.c:136:3
	bl	WHW_MCP2515_CS_HIGH
	.loc	7 137 1 is_stmt 1               @ ../User/Bsp/MCP2515.c:137:1
	add	sp, #8
	pop	{r7, pc}
.Ltmp51:
.Lfunc_end8:
	.size	MCP2515_Reset, .Lfunc_end8-MCP2515_Reset
	.cfi_endproc
	.cantunwind
	.fnend
                                        @ -- End function
	.section	.text.SPI_Tx,"ax",%progbits
	.p2align	2                               @ -- Begin function SPI_Tx
	.type	SPI_Tx,%function
	.code	16                              @ @SPI_Tx
	.thumb_func
SPI_Tx:
.Lfunc_begin9:
	.loc	7 269 0                         @ ../User/Bsp/MCP2515.c:269:0
	.fnstart
	.cfi_startproc
@ %bb.0:
	.save	{r7, lr}
	push	{r7, lr}
	.cfi_def_cfa_offset 8
	.cfi_offset lr, -4
	.cfi_offset r7, -8
	.pad	#8
	sub	sp, #8
	.cfi_def_cfa_offset 16
                                        @ kill: def $r2 killed $r1
	str	r0, [sp, #4]
	strb.w	r1, [sp, #3]
.Ltmp52:
	.loc	7 270 20 prologue_end           @ ../User/Bsp/MCP2515.c:270:20
	ldr	r0, [sp, #4]
	add.w	r1, sp, #3
	movs	r2, #1
	movs	r3, #10
	.loc	7 270 3 is_stmt 0               @ ../User/Bsp/MCP2515.c:270:3
	bl	HAL_SPI_Transmit
	.loc	7 271 1 is_stmt 1               @ ../User/Bsp/MCP2515.c:271:1
	add	sp, #8
	pop	{r7, pc}
.Ltmp53:
.Lfunc_end9:
	.size	SPI_Tx, .Lfunc_end9-SPI_Tx
	.cfi_endproc
	.cantunwind
	.fnend
                                        @ -- End function
	.section	.text.SPI_Rx,"ax",%progbits
	.p2align	2                               @ -- Begin function SPI_Rx
	.type	SPI_Rx,%function
	.code	16                              @ @SPI_Rx
	.thumb_func
SPI_Rx:
.Lfunc_begin10:
	.loc	7 281 0                         @ ../User/Bsp/MCP2515.c:281:0
	.fnstart
	.cfi_startproc
@ %bb.0:
	.save	{r7, lr}
	push	{r7, lr}
	.cfi_def_cfa_offset 8
	.cfi_offset lr, -4
	.cfi_offset r7, -8
	.pad	#8
	sub	sp, #8
	.cfi_def_cfa_offset 16
	str	r0, [sp, #4]
.Ltmp54:
	.loc	7 283 19 prologue_end           @ ../User/Bsp/MCP2515.c:283:19
	ldr	r0, [sp, #4]
	add.w	r1, sp, #3
	movs	r2, #1
	movs	r3, #10
	.loc	7 283 3 is_stmt 0               @ ../User/Bsp/MCP2515.c:283:3
	bl	HAL_SPI_Receive
	.loc	7 284 10 is_stmt 1              @ ../User/Bsp/MCP2515.c:284:10
	ldrb.w	r0, [sp, #3]
	.loc	7 284 3 is_stmt 0               @ ../User/Bsp/MCP2515.c:284:3
	add	sp, #8
	pop	{r7, pc}
.Ltmp55:
.Lfunc_end10:
	.size	SPI_Rx, .Lfunc_end10-SPI_Rx
	.cfi_endproc
	.cantunwind
	.fnend
                                        @ -- End function
	.section	.text.MCP2515_ReadRxSequence,"ax",%progbits
	.hidden	MCP2515_ReadRxSequence          @ -- Begin function MCP2515_ReadRxSequence
	.globl	MCP2515_ReadRxSequence
	.p2align	2
	.type	MCP2515_ReadRxSequence,%function
	.code	16                              @ @MCP2515_ReadRxSequence
	.thumb_func
MCP2515_ReadRxSequence:
.Lfunc_begin11:
	.loc	7 157 0 is_stmt 1               @ ../User/Bsp/MCP2515.c:157:0
	.fnstart
	.cfi_startproc
@ %bb.0:
	.save	{r7, lr}
	push	{r7, lr}
	.cfi_def_cfa_offset 8
	.cfi_offset lr, -4
	.cfi_offset r7, -8
	.pad	#16
	sub	sp, #16
	.cfi_def_cfa_offset 24
                                        @ kill: def $r12 killed $r3
                                        @ kill: def $r12 killed $r1
	str	r0, [sp, #12]
	strb.w	r1, [sp, #11]
	str	r2, [sp, #4]
	strb.w	r3, [sp, #3]
.Ltmp56:
	.loc	7 158 22 prologue_end           @ ../User/Bsp/MCP2515.c:158:22
	ldr	r0, [sp, #12]
	.loc	7 158 3 is_stmt 0               @ ../User/Bsp/MCP2515.c:158:3
	bl	WHW_MCP2515_CS_LOW
	.loc	7 160 10 is_stmt 1              @ ../User/Bsp/MCP2515.c:160:10
	ldr	r0, [sp, #12]
	.loc	7 160 16 is_stmt 0              @ ../User/Bsp/MCP2515.c:160:16
	ldrb.w	r1, [sp, #11]
	.loc	7 160 3                         @ ../User/Bsp/MCP2515.c:160:3
	bl	SPI_Tx
	.loc	7 161 16 is_stmt 1              @ ../User/Bsp/MCP2515.c:161:16
	ldr	r0, [sp, #12]
	.loc	7 161 22 is_stmt 0              @ ../User/Bsp/MCP2515.c:161:22
	ldr	r1, [sp, #4]
	.loc	7 161 28                        @ ../User/Bsp/MCP2515.c:161:28
	ldrb.w	r2, [sp, #3]
	.loc	7 161 3                         @ ../User/Bsp/MCP2515.c:161:3
	bl	SPI_RxBuffer
	.loc	7 163 23 is_stmt 1              @ ../User/Bsp/MCP2515.c:163:23
	ldr	r0, [sp, #12]
	.loc	7 163 3 is_stmt 0               @ ../User/Bsp/MCP2515.c:163:3
	bl	WHW_MCP2515_CS_HIGH
	.loc	7 164 1 is_stmt 1               @ ../User/Bsp/MCP2515.c:164:1
	add	sp, #16
	pop	{r7, pc}
.Ltmp57:
.Lfunc_end11:
	.size	MCP2515_ReadRxSequence, .Lfunc_end11-MCP2515_ReadRxSequence
	.cfi_endproc
	.cantunwind
	.fnend
                                        @ -- End function
	.section	.text.SPI_RxBuffer,"ax",%progbits
	.p2align	2                               @ -- Begin function SPI_RxBuffer
	.type	SPI_RxBuffer,%function
	.code	16                              @ @SPI_RxBuffer
	.thumb_func
SPI_RxBuffer:
.Lfunc_begin12:
	.loc	7 289 0                         @ ../User/Bsp/MCP2515.c:289:0
	.fnstart
	.cfi_startproc
@ %bb.0:
	.save	{r7, lr}
	push	{r7, lr}
	.cfi_def_cfa_offset 8
	.cfi_offset lr, -4
	.cfi_offset r7, -8
	.pad	#16
	sub	sp, #16
	.cfi_def_cfa_offset 24
                                        @ kill: def $r3 killed $r2
	str	r0, [sp, #12]
	str	r1, [sp, #8]
	strb.w	r2, [sp, #7]
.Ltmp58:
	.loc	7 290 19 prologue_end           @ ../User/Bsp/MCP2515.c:290:19
	ldr	r0, [sp, #12]
	.loc	7 290 25 is_stmt 0              @ ../User/Bsp/MCP2515.c:290:25
	ldr	r1, [sp, #8]
	.loc	7 290 33                        @ ../User/Bsp/MCP2515.c:290:33
	ldrb.w	r2, [sp, #7]
	movs	r3, #10
	.loc	7 290 3                         @ ../User/Bsp/MCP2515.c:290:3
	bl	HAL_SPI_Receive
	.loc	7 291 1 is_stmt 1               @ ../User/Bsp/MCP2515.c:291:1
	add	sp, #16
	pop	{r7, pc}
.Ltmp59:
.Lfunc_end12:
	.size	SPI_RxBuffer, .Lfunc_end12-SPI_RxBuffer
	.cfi_endproc
	.cantunwind
	.fnend
                                        @ -- End function
	.section	.text.MCP2515_WriteByteSequence,"ax",%progbits
	.hidden	MCP2515_WriteByteSequence       @ -- Begin function MCP2515_WriteByteSequence
	.globl	MCP2515_WriteByteSequence
	.p2align	2
	.type	MCP2515_WriteByteSequence,%function
	.code	16                              @ @MCP2515_WriteByteSequence
	.thumb_func
MCP2515_WriteByteSequence:
.Lfunc_begin13:
	.loc	7 180 0                         @ ../User/Bsp/MCP2515.c:180:0
	.fnstart
	.cfi_startproc
@ %bb.0:
	.save	{r7, lr}
	push	{r7, lr}
	.cfi_def_cfa_offset 8
	.cfi_offset lr, -4
	.cfi_offset r7, -8
	.pad	#16
	sub	sp, #16
	.cfi_def_cfa_offset 24
                                        @ kill: def $r12 killed $r2
                                        @ kill: def $r12 killed $r1
	str	r0, [sp, #12]
	strb.w	r1, [sp, #11]
	strb.w	r2, [sp, #10]
	str	r3, [sp, #4]
.Ltmp60:
	.loc	7 181 22 prologue_end           @ ../User/Bsp/MCP2515.c:181:22
	ldr	r0, [sp, #12]
	.loc	7 181 3 is_stmt 0               @ ../User/Bsp/MCP2515.c:181:3
	bl	WHW_MCP2515_CS_LOW
	.loc	7 183 10 is_stmt 1              @ ../User/Bsp/MCP2515.c:183:10
	ldr	r0, [sp, #12]
	movs	r1, #2
	.loc	7 183 3 is_stmt 0               @ ../User/Bsp/MCP2515.c:183:3
	bl	SPI_Tx
	.loc	7 184 10 is_stmt 1              @ ../User/Bsp/MCP2515.c:184:10
	ldr	r0, [sp, #12]
	.loc	7 184 16 is_stmt 0              @ ../User/Bsp/MCP2515.c:184:16
	ldrb.w	r1, [sp, #11]
	.loc	7 184 3                         @ ../User/Bsp/MCP2515.c:184:3
	bl	SPI_Tx
	.loc	7 185 16 is_stmt 1              @ ../User/Bsp/MCP2515.c:185:16
	ldr	r0, [sp, #12]
	.loc	7 185 22 is_stmt 0              @ ../User/Bsp/MCP2515.c:185:22
	ldr	r1, [sp, #4]
	.loc	7 185 29                        @ ../User/Bsp/MCP2515.c:185:29
	ldrb.w	r2, [sp, #10]
	.loc	7 185 42                        @ ../User/Bsp/MCP2515.c:185:42
	ldrb.w	r3, [sp, #11]
	.loc	7 185 40                        @ ../User/Bsp/MCP2515.c:185:40
	subs	r2, r2, r3
	.loc	7 185 55                        @ ../User/Bsp/MCP2515.c:185:55
	adds	r2, #1
	.loc	7 185 3                         @ ../User/Bsp/MCP2515.c:185:3
	uxtb	r2, r2
	bl	SPI_TxBuffer
	.loc	7 187 23 is_stmt 1              @ ../User/Bsp/MCP2515.c:187:23
	ldr	r0, [sp, #12]
	.loc	7 187 3 is_stmt 0               @ ../User/Bsp/MCP2515.c:187:3
	bl	WHW_MCP2515_CS_HIGH
	.loc	7 188 1 is_stmt 1               @ ../User/Bsp/MCP2515.c:188:1
	add	sp, #16
	pop	{r7, pc}
.Ltmp61:
.Lfunc_end13:
	.size	MCP2515_WriteByteSequence, .Lfunc_end13-MCP2515_WriteByteSequence
	.cfi_endproc
	.cantunwind
	.fnend
                                        @ -- End function
	.section	.text.SPI_TxBuffer,"ax",%progbits
	.p2align	2                               @ -- Begin function SPI_TxBuffer
	.type	SPI_TxBuffer,%function
	.code	16                              @ @SPI_TxBuffer
	.thumb_func
SPI_TxBuffer:
.Lfunc_begin14:
	.loc	7 275 0                         @ ../User/Bsp/MCP2515.c:275:0
	.fnstart
	.cfi_startproc
@ %bb.0:
	.save	{r7, lr}
	push	{r7, lr}
	.cfi_def_cfa_offset 8
	.cfi_offset lr, -4
	.cfi_offset r7, -8
	.pad	#16
	sub	sp, #16
	.cfi_def_cfa_offset 24
                                        @ kill: def $r3 killed $r2
	str	r0, [sp, #12]
	str	r1, [sp, #8]
	strb.w	r2, [sp, #7]
.Ltmp62:
	.loc	7 276 20 prologue_end           @ ../User/Bsp/MCP2515.c:276:20
	ldr	r0, [sp, #12]
	.loc	7 276 26 is_stmt 0              @ ../User/Bsp/MCP2515.c:276:26
	ldr	r1, [sp, #8]
	.loc	7 276 34                        @ ../User/Bsp/MCP2515.c:276:34
	ldrb.w	r2, [sp, #7]
	movs	r3, #10
	.loc	7 276 3                         @ ../User/Bsp/MCP2515.c:276:3
	bl	HAL_SPI_Transmit
	.loc	7 277 1 is_stmt 1               @ ../User/Bsp/MCP2515.c:277:1
	add	sp, #16
	pop	{r7, pc}
.Ltmp63:
.Lfunc_end14:
	.size	SPI_TxBuffer, .Lfunc_end14-SPI_TxBuffer
	.cfi_endproc
	.cantunwind
	.fnend
                                        @ -- End function
	.section	.text.MCP2515_LoadTxSequence,"ax",%progbits
	.hidden	MCP2515_LoadTxSequence          @ -- Begin function MCP2515_LoadTxSequence
	.globl	MCP2515_LoadTxSequence
	.p2align	2
	.type	MCP2515_LoadTxSequence,%function
	.code	16                              @ @MCP2515_LoadTxSequence
	.thumb_func
MCP2515_LoadTxSequence:
.Lfunc_begin15:
	.loc	7 192 0                         @ ../User/Bsp/MCP2515.c:192:0
	.fnstart
	.cfi_startproc
@ %bb.0:
	.save	{r7, lr}
	push	{r7, lr}
	.cfi_def_cfa_offset 8
	.cfi_offset lr, -4
	.cfi_offset r7, -8
	.pad	#16
	sub	sp, #16
	.cfi_def_cfa_offset 24
	ldr.w	r12, [sp, #24]
                                        @ kill: def $r12 killed $r3
                                        @ kill: def $r12 killed $r1
	str	r0, [sp, #12]
	strb.w	r1, [sp, #11]
	str	r2, [sp, #4]
	strb.w	r3, [sp, #3]
.Ltmp64:
	.loc	7 193 22 prologue_end           @ ../User/Bsp/MCP2515.c:193:22
	ldr	r0, [sp, #12]
	.loc	7 193 3 is_stmt 0               @ ../User/Bsp/MCP2515.c:193:3
	bl	WHW_MCP2515_CS_LOW
	.loc	7 195 10 is_stmt 1              @ ../User/Bsp/MCP2515.c:195:10
	ldr	r0, [sp, #12]
	.loc	7 195 16 is_stmt 0              @ ../User/Bsp/MCP2515.c:195:16
	ldrb.w	r1, [sp, #11]
	.loc	7 195 3                         @ ../User/Bsp/MCP2515.c:195:3
	bl	SPI_Tx
	.loc	7 196 16 is_stmt 1              @ ../User/Bsp/MCP2515.c:196:16
	ldr	r0, [sp, #12]
	.loc	7 196 22 is_stmt 0              @ ../User/Bsp/MCP2515.c:196:22
	ldr	r1, [sp, #4]
	movs	r2, #4
	.loc	7 196 3                         @ ../User/Bsp/MCP2515.c:196:3
	bl	SPI_TxBuffer
	.loc	7 197 10 is_stmt 1              @ ../User/Bsp/MCP2515.c:197:10
	ldr	r0, [sp, #12]
	.loc	7 197 16 is_stmt 0              @ ../User/Bsp/MCP2515.c:197:16
	ldrb.w	r1, [sp, #3]
	.loc	7 197 3                         @ ../User/Bsp/MCP2515.c:197:3
	bl	SPI_Tx
	.loc	7 198 16 is_stmt 1              @ ../User/Bsp/MCP2515.c:198:16
	ldr	r0, [sp, #12]
	.loc	7 198 22 is_stmt 0              @ ../User/Bsp/MCP2515.c:198:22
	ldr	r1, [sp, #24]
	.loc	7 198 28                        @ ../User/Bsp/MCP2515.c:198:28
	ldrb.w	r2, [sp, #3]
	.loc	7 198 3                         @ ../User/Bsp/MCP2515.c:198:3
	bl	SPI_TxBuffer
	.loc	7 200 23 is_stmt 1              @ ../User/Bsp/MCP2515.c:200:23
	ldr	r0, [sp, #12]
	.loc	7 200 3 is_stmt 0               @ ../User/Bsp/MCP2515.c:200:3
	bl	WHW_MCP2515_CS_HIGH
	.loc	7 201 1 is_stmt 1               @ ../User/Bsp/MCP2515.c:201:1
	add	sp, #16
	pop	{r7, pc}
.Ltmp65:
.Lfunc_end15:
	.size	MCP2515_LoadTxSequence, .Lfunc_end15-MCP2515_LoadTxSequence
	.cfi_endproc
	.cantunwind
	.fnend
                                        @ -- End function
	.section	.text.MCP2515_LoadTxBuffer,"ax",%progbits
	.hidden	MCP2515_LoadTxBuffer            @ -- Begin function MCP2515_LoadTxBuffer
	.globl	MCP2515_LoadTxBuffer
	.p2align	2
	.type	MCP2515_LoadTxBuffer,%function
	.code	16                              @ @MCP2515_LoadTxBuffer
	.thumb_func
MCP2515_LoadTxBuffer:
.Lfunc_begin16:
	.loc	7 205 0                         @ ../User/Bsp/MCP2515.c:205:0
	.fnstart
	.cfi_startproc
@ %bb.0:
	.save	{r7, lr}
	push	{r7, lr}
	.cfi_def_cfa_offset 8
	.cfi_offset lr, -4
	.cfi_offset r7, -8
	.pad	#8
	sub	sp, #8
	.cfi_def_cfa_offset 16
                                        @ kill: def $r3 killed $r2
                                        @ kill: def $r3 killed $r1
	str	r0, [sp, #4]
	strb.w	r1, [sp, #3]
	strb.w	r2, [sp, #2]
.Ltmp66:
	.loc	7 206 22 prologue_end           @ ../User/Bsp/MCP2515.c:206:22
	ldr	r0, [sp, #4]
	.loc	7 206 3 is_stmt 0               @ ../User/Bsp/MCP2515.c:206:3
	bl	WHW_MCP2515_CS_LOW
	.loc	7 208 10 is_stmt 1              @ ../User/Bsp/MCP2515.c:208:10
	ldr	r0, [sp, #4]
	.loc	7 208 16 is_stmt 0              @ ../User/Bsp/MCP2515.c:208:16
	ldrb.w	r1, [sp, #3]
	.loc	7 208 3                         @ ../User/Bsp/MCP2515.c:208:3
	bl	SPI_Tx
	.loc	7 209 10 is_stmt 1              @ ../User/Bsp/MCP2515.c:209:10
	ldr	r0, [sp, #4]
	.loc	7 209 16 is_stmt 0              @ ../User/Bsp/MCP2515.c:209:16
	ldrb.w	r1, [sp, #2]
	.loc	7 209 3                         @ ../User/Bsp/MCP2515.c:209:3
	bl	SPI_Tx
	.loc	7 211 23 is_stmt 1              @ ../User/Bsp/MCP2515.c:211:23
	ldr	r0, [sp, #4]
	.loc	7 211 3 is_stmt 0               @ ../User/Bsp/MCP2515.c:211:3
	bl	WHW_MCP2515_CS_HIGH
	.loc	7 212 1 is_stmt 1               @ ../User/Bsp/MCP2515.c:212:1
	add	sp, #8
	pop	{r7, pc}
.Ltmp67:
.Lfunc_end16:
	.size	MCP2515_LoadTxBuffer, .Lfunc_end16-MCP2515_LoadTxBuffer
	.cfi_endproc
	.cantunwind
	.fnend
                                        @ -- End function
	.section	.text.MCP2515_RequestToSend,"ax",%progbits
	.hidden	MCP2515_RequestToSend           @ -- Begin function MCP2515_RequestToSend
	.globl	MCP2515_RequestToSend
	.p2align	2
	.type	MCP2515_RequestToSend,%function
	.code	16                              @ @MCP2515_RequestToSend
	.thumb_func
MCP2515_RequestToSend:
.Lfunc_begin17:
	.loc	7 216 0                         @ ../User/Bsp/MCP2515.c:216:0
	.fnstart
	.cfi_startproc
@ %bb.0:
	.save	{r7, lr}
	push	{r7, lr}
	.cfi_def_cfa_offset 8
	.cfi_offset lr, -4
	.cfi_offset r7, -8
	.pad	#8
	sub	sp, #8
	.cfi_def_cfa_offset 16
                                        @ kill: def $r2 killed $r1
	str	r0, [sp, #4]
	strb.w	r1, [sp, #3]
.Ltmp68:
	.loc	7 217 22 prologue_end           @ ../User/Bsp/MCP2515.c:217:22
	ldr	r0, [sp, #4]
	.loc	7 217 3 is_stmt 0               @ ../User/Bsp/MCP2515.c:217:3
	bl	WHW_MCP2515_CS_LOW
	.loc	7 219 10 is_stmt 1              @ ../User/Bsp/MCP2515.c:219:10
	ldr	r0, [sp, #4]
	.loc	7 219 16 is_stmt 0              @ ../User/Bsp/MCP2515.c:219:16
	ldrb.w	r1, [sp, #3]
	.loc	7 219 3                         @ ../User/Bsp/MCP2515.c:219:3
	bl	SPI_Tx
	.loc	7 221 23 is_stmt 1              @ ../User/Bsp/MCP2515.c:221:23
	ldr	r0, [sp, #4]
	.loc	7 221 3 is_stmt 0               @ ../User/Bsp/MCP2515.c:221:3
	bl	WHW_MCP2515_CS_HIGH
	.loc	7 222 1 is_stmt 1               @ ../User/Bsp/MCP2515.c:222:1
	add	sp, #8
	pop	{r7, pc}
.Ltmp69:
.Lfunc_end17:
	.size	MCP2515_RequestToSend, .Lfunc_end17-MCP2515_RequestToSend
	.cfi_endproc
	.cantunwind
	.fnend
                                        @ -- End function
	.section	.text.MCP2515_ReadStatus,"ax",%progbits
	.hidden	MCP2515_ReadStatus              @ -- Begin function MCP2515_ReadStatus
	.globl	MCP2515_ReadStatus
	.p2align	2
	.type	MCP2515_ReadStatus,%function
	.code	16                              @ @MCP2515_ReadStatus
	.thumb_func
MCP2515_ReadStatus:
.Lfunc_begin18:
	.loc	7 226 0                         @ ../User/Bsp/MCP2515.c:226:0
	.fnstart
	.cfi_startproc
@ %bb.0:
	.save	{r7, lr}
	push	{r7, lr}
	.cfi_def_cfa_offset 8
	.cfi_offset lr, -4
	.cfi_offset r7, -8
	.pad	#8
	sub	sp, #8
	.cfi_def_cfa_offset 16
	str	r0, [sp, #4]
.Ltmp70:
	.loc	7 229 22 prologue_end           @ ../User/Bsp/MCP2515.c:229:22
	ldr	r0, [sp, #4]
	.loc	7 229 3 is_stmt 0               @ ../User/Bsp/MCP2515.c:229:3
	bl	WHW_MCP2515_CS_LOW
	.loc	7 231 10 is_stmt 1              @ ../User/Bsp/MCP2515.c:231:10
	ldr	r0, [sp, #4]
	movs	r1, #160
	.loc	7 231 3 is_stmt 0               @ ../User/Bsp/MCP2515.c:231:3
	bl	SPI_Tx
	.loc	7 232 19 is_stmt 1              @ ../User/Bsp/MCP2515.c:232:19
	ldr	r0, [sp, #4]
	.loc	7 232 12 is_stmt 0              @ ../User/Bsp/MCP2515.c:232:12
	bl	SPI_Rx
	.loc	7 232 10                        @ ../User/Bsp/MCP2515.c:232:10
	strb.w	r0, [sp, #3]
	.loc	7 234 23 is_stmt 1              @ ../User/Bsp/MCP2515.c:234:23
	ldr	r0, [sp, #4]
	.loc	7 234 3 is_stmt 0               @ ../User/Bsp/MCP2515.c:234:3
	bl	WHW_MCP2515_CS_HIGH
	.loc	7 236 10 is_stmt 1              @ ../User/Bsp/MCP2515.c:236:10
	ldrb.w	r0, [sp, #3]
	.loc	7 236 3 is_stmt 0               @ ../User/Bsp/MCP2515.c:236:3
	add	sp, #8
	pop	{r7, pc}
.Ltmp71:
.Lfunc_end18:
	.size	MCP2515_ReadStatus, .Lfunc_end18-MCP2515_ReadStatus
	.cfi_endproc
	.cantunwind
	.fnend
                                        @ -- End function
	.section	.text.MCP2515_GetRxStatus,"ax",%progbits
	.hidden	MCP2515_GetRxStatus             @ -- Begin function MCP2515_GetRxStatus
	.globl	MCP2515_GetRxStatus
	.p2align	2
	.type	MCP2515_GetRxStatus,%function
	.code	16                              @ @MCP2515_GetRxStatus
	.thumb_func
MCP2515_GetRxStatus:
.Lfunc_begin19:
	.loc	7 241 0 is_stmt 1               @ ../User/Bsp/MCP2515.c:241:0
	.fnstart
	.cfi_startproc
@ %bb.0:
	.save	{r7, lr}
	push	{r7, lr}
	.cfi_def_cfa_offset 8
	.cfi_offset lr, -4
	.cfi_offset r7, -8
	.pad	#8
	sub	sp, #8
	.cfi_def_cfa_offset 16
	str	r0, [sp, #4]
.Ltmp72:
	.loc	7 244 22 prologue_end           @ ../User/Bsp/MCP2515.c:244:22
	ldr	r0, [sp, #4]
	.loc	7 244 3 is_stmt 0               @ ../User/Bsp/MCP2515.c:244:3
	bl	WHW_MCP2515_CS_LOW
	.loc	7 246 10 is_stmt 1              @ ../User/Bsp/MCP2515.c:246:10
	ldr	r0, [sp, #4]
	movs	r1, #176
	.loc	7 246 3 is_stmt 0               @ ../User/Bsp/MCP2515.c:246:3
	bl	SPI_Tx
	.loc	7 247 19 is_stmt 1              @ ../User/Bsp/MCP2515.c:247:19
	ldr	r0, [sp, #4]
	.loc	7 247 12 is_stmt 0              @ ../User/Bsp/MCP2515.c:247:12
	bl	SPI_Rx
	.loc	7 247 10                        @ ../User/Bsp/MCP2515.c:247:10
	strb.w	r0, [sp, #3]
	.loc	7 249 23 is_stmt 1              @ ../User/Bsp/MCP2515.c:249:23
	ldr	r0, [sp, #4]
	.loc	7 249 3 is_stmt 0               @ ../User/Bsp/MCP2515.c:249:3
	bl	WHW_MCP2515_CS_HIGH
	.loc	7 251 10 is_stmt 1              @ ../User/Bsp/MCP2515.c:251:10
	ldrb.w	r0, [sp, #3]
	.loc	7 251 3 is_stmt 0               @ ../User/Bsp/MCP2515.c:251:3
	add	sp, #8
	pop	{r7, pc}
.Ltmp73:
.Lfunc_end19:
	.size	MCP2515_GetRxStatus, .Lfunc_end19-MCP2515_GetRxStatus
	.cfi_endproc
	.cantunwind
	.fnend
                                        @ -- End function
	.section	.text.MCP2515_BitModify,"ax",%progbits
	.hidden	MCP2515_BitModify               @ -- Begin function MCP2515_BitModify
	.globl	MCP2515_BitModify
	.p2align	2
	.type	MCP2515_BitModify,%function
	.code	16                              @ @MCP2515_BitModify
	.thumb_func
MCP2515_BitModify:
.Lfunc_begin20:
	.loc	7 256 0 is_stmt 1               @ ../User/Bsp/MCP2515.c:256:0
	.fnstart
	.cfi_startproc
@ %bb.0:
	.save	{r7, lr}
	push	{r7, lr}
	.cfi_def_cfa_offset 8
	.cfi_offset lr, -4
	.cfi_offset r7, -8
	.pad	#8
	sub	sp, #8
	.cfi_def_cfa_offset 16
                                        @ kill: def $r12 killed $r3
                                        @ kill: def $r12 killed $r2
                                        @ kill: def $r12 killed $r1
	str	r0, [sp, #4]
	strb.w	r1, [sp, #3]
	strb.w	r2, [sp, #2]
	strb.w	r3, [sp, #1]
.Ltmp74:
	.loc	7 257 22 prologue_end           @ ../User/Bsp/MCP2515.c:257:22
	ldr	r0, [sp, #4]
	.loc	7 257 3 is_stmt 0               @ ../User/Bsp/MCP2515.c:257:3
	bl	WHW_MCP2515_CS_LOW
	.loc	7 259 10 is_stmt 1              @ ../User/Bsp/MCP2515.c:259:10
	ldr	r0, [sp, #4]
	movs	r1, #5
	.loc	7 259 3 is_stmt 0               @ ../User/Bsp/MCP2515.c:259:3
	bl	SPI_Tx
	.loc	7 260 10 is_stmt 1              @ ../User/Bsp/MCP2515.c:260:10
	ldr	r0, [sp, #4]
	.loc	7 260 16 is_stmt 0              @ ../User/Bsp/MCP2515.c:260:16
	ldrb.w	r1, [sp, #3]
	.loc	7 260 3                         @ ../User/Bsp/MCP2515.c:260:3
	bl	SPI_Tx
	.loc	7 261 10 is_stmt 1              @ ../User/Bsp/MCP2515.c:261:10
	ldr	r0, [sp, #4]
	.loc	7 261 16 is_stmt 0              @ ../User/Bsp/MCP2515.c:261:16
	ldrb.w	r1, [sp, #2]
	.loc	7 261 3                         @ ../User/Bsp/MCP2515.c:261:3
	bl	SPI_Tx
	.loc	7 262 10 is_stmt 1              @ ../User/Bsp/MCP2515.c:262:10
	ldr	r0, [sp, #4]
	.loc	7 262 16 is_stmt 0              @ ../User/Bsp/MCP2515.c:262:16
	ldrb.w	r1, [sp, #1]
	.loc	7 262 3                         @ ../User/Bsp/MCP2515.c:262:3
	bl	SPI_Tx
	.loc	7 264 23 is_stmt 1              @ ../User/Bsp/MCP2515.c:264:23
	ldr	r0, [sp, #4]
	.loc	7 264 3 is_stmt 0               @ ../User/Bsp/MCP2515.c:264:3
	bl	WHW_MCP2515_CS_HIGH
	.loc	7 265 1 is_stmt 1               @ ../User/Bsp/MCP2515.c:265:1
	add	sp, #8
	pop	{r7, pc}
.Ltmp75:
.Lfunc_end20:
	.size	MCP2515_BitModify, .Lfunc_end20-MCP2515_BitModify
	.cfi_endproc
	.cantunwind
	.fnend
                                        @ -- End function
	.section	".note.GNU-stack","",%progbits
	.eabi_attribute	30, 6	@ Tag_ABI_optimization_goals
	.ARM_attribute	16, 1	@ Tag_AV_eba