	.text
	.syntax unified
	.eabi_attribute	67, "2.09"	@ Tag_conformance
	.cpu	cortex-m4
	.eabi_attribute	6, 13	@ Tag_CPU_arch
	.eabi_attribute	7, 77	@ Tag_CPU_arch_profile
	.eabi_attribute	8, 0	@ Tag_ARM_ISA_use
	.eabi_attribute	9, 2	@ Tag_THUMB_ISA_use
	.fpu	fpv4-sp-d16
	.eabi_attribute	27, 1	@ Tag_ABI_HardFP_use
	.eabi_attribute	36, 1	@ Tag_FP_HP_extension
	.eabi_attribute	34, 1	@ Tag_CPU_unaligned_access
	.eabi_attribute	17, 1	@ Tag_ABI_PCS_GOT_use
	.eabi_attribute	20, 2	@ Tag_ABI_FP_denormal
	.eabi_attribute	21, 0	@ Tag_ABI_FP_exceptions
	.eabi_attribute	23, 3	@ Tag_ABI_FP_number_model
	.eabi_attribute	24, 1	@ Tag_ABI_align_needed
	.eabi_attribute	25, 1	@ Tag_ABI_align_preserved
	.eabi_attribute	28, 1	@ Tag_ABI_VFP_args
	.eabi_attribute	38, 1	@ Tag_ABI_FP_16bit_format
	.eabi_attribute	18, 2	@ Tag_ABI_PCS_wchar_t
	.eabi_attribute	26, 1	@ Tag_ABI_enum_size
	.eabi_attribute	14, 0	@ Tag_ABI_PCS_R9_use
	.file	"NIMING.c"
	.file	1 "D:\\" "kevil\\ARM\\ARMCLANG\\Bin\\..\\include\\stdint.h"
	.file	2 "D:\\horizon\\Horizon_Infantry (2)\\MDK-ARM" "../User/Bsp/NIMING.c"
	.section	.text.Anonymity_TX,"ax",%progbits
	.hidden	Anonymity_TX                    @ -- Begin function Anonymity_TX
	.globl	Anonymity_TX
	.p2align	2
	.type	Anonymity_TX,%function
	.code	16                              @ @Anonymity_TX
	.thumb_func
Anonymity_TX:
.Lfunc_begin0:
	.loc	2 22 0                          @ ../User/Bsp/NIMING.c:22:0
	.fnstart
	.cfi_sections .debug_frame
	.cfi_startproc
@ %bb.0:
	.save	{r4, r5, r6, r7, lr}
	push	{r4, r5, r6, r7, lr}
	.cfi_def_cfa_offset 20
	.cfi_offset lr, -4
	.cfi_offset r7, -8
	.cfi_offset r6, -12
	.cfi_offset r5, -16
	.cfi_offset r4, -20
	.pad	#28
	sub	sp, #28
	.cfi_def_cfa_offset 48
	mov	lr, r3
	mov	r4, r2
	mov	r5, r1
	mov	r6, r0
	ldr	r0, [sp, #68]
	ldr	r0, [sp, #64]
	ldr	r1, [sp, #60]
	ldr	r2, [sp, #56]
	ldr	r3, [sp, #52]
	ldr.w	r12, [sp, #48]
                                        @ kill: def $r7 killed $lr
                                        @ kill: def $r7 killed $r4
                                        @ kill: def $r7 killed $r5
                                        @ kill: def $r7 killed $r6
	strh.w	r6, [sp, #26]
	strh.w	r5, [sp, #24]
	strh.w	r4, [sp, #22]
	strh.w	lr, [sp, #20]
	strh.w	r12, [sp, #18]
	strh.w	r3, [sp, #16]
	strh.w	r2, [sp, #14]
	strh.w	r1, [sp, #12]
	strh.w	r0, [sp, #10]
	movs	r0, #0
.Ltmp0:
	.loc	2 24 13 prologue_end            @ ../User/Bsp/NIMING.c:24:13
	strb.w	r0, [sp, #9]
	.loc	2 24 20 is_stmt 0               @ ../User/Bsp/NIMING.c:24:20
	strb.w	r0, [sp, #8]
	.loc	2 24 26                         @ ../User/Bsp/NIMING.c:24:26
	strb.w	r0, [sp, #7]
	.loc	2 24 32                         @ ../User/Bsp/NIMING.c:24:32
	strb.w	r0, [sp, #6]
	.loc	2 27 23 is_stmt 1               @ ../User/Bsp/NIMING.c:27:23
	ldrb.w	r3, [sp, #9]
	adds	r1, r3, #1
	strb.w	r1, [sp, #9]
	.loc	2 27 5 is_stmt 0                @ ../User/Bsp/NIMING.c:27:5
	movw	r2, :lower16:anonymity_au8
	movt	r2, :upper16:anonymity_au8
	str	r2, [sp]                        @ 4-byte Spill
	movs	r1, #170
	.loc	2 27 26                         @ ../User/Bsp/NIMING.c:27:26
	strb	r1, [r2, r3]
	.loc	2 28 23 is_stmt 1               @ ../User/Bsp/NIMING.c:28:23
	ldrb.w	r3, [sp, #9]
	adds	r1, r3, #1
	strb.w	r1, [sp, #9]
	movs	r1, #255
	.loc	2 28 26 is_stmt 0               @ ../User/Bsp/NIMING.c:28:26
	strb	r1, [r2, r3]
	.loc	2 29 23 is_stmt 1               @ ../User/Bsp/NIMING.c:29:23
	ldrb.w	r3, [sp, #9]
	adds	r1, r3, #1
	strb.w	r1, [sp, #9]
	movs	r1, #241
	.loc	2 29 26 is_stmt 0               @ ../User/Bsp/NIMING.c:29:26
	strb	r1, [r2, r3]
	.loc	2 30 23 is_stmt 1               @ ../User/Bsp/NIMING.c:30:23
	ldrb.w	r1, [sp, #9]
	adds	r3, r1, #1
	strb.w	r3, [sp, #9]
	.loc	2 30 26 is_stmt 0               @ ../User/Bsp/NIMING.c:30:26
	strb	r0, [r2, r1]
	.loc	2 32 13 is_stmt 1               @ ../User/Bsp/NIMING.c:32:13
	ldrh.w	r1, [sp, #26]
	.loc	2 32 11 is_stmt 0               @ ../User/Bsp/NIMING.c:32:11
	strh.w	r1, [sp, #4]
	.loc	2 33 29 is_stmt 1               @ ../User/Bsp/NIMING.c:33:29
	ldrb.w	r1, [sp, #4]
	.loc	2 33 23 is_stmt 0               @ ../User/Bsp/NIMING.c:33:23
	ldrb.w	r3, [sp, #9]
	add.w	r12, r3, #1
	strb.w	r12, [sp, #9]
	.loc	2 33 26                         @ ../User/Bsp/NIMING.c:33:26
	strb	r1, [r2, r3]
	.loc	2 34 29 is_stmt 1               @ ../User/Bsp/NIMING.c:34:29
	ldrb.w	r1, [sp, #5]
	.loc	2 34 23 is_stmt 0               @ ../User/Bsp/NIMING.c:34:23
	ldrb.w	r3, [sp, #9]
	add.w	r12, r3, #1
	strb.w	r12, [sp, #9]
	.loc	2 34 26                         @ ../User/Bsp/NIMING.c:34:26
	strb	r1, [r2, r3]
	.loc	2 35 13 is_stmt 1               @ ../User/Bsp/NIMING.c:35:13
	ldrh.w	r1, [sp, #24]
	.loc	2 35 11 is_stmt 0               @ ../User/Bsp/NIMING.c:35:11
	strh.w	r1, [sp, #4]
	.loc	2 36 29 is_stmt 1               @ ../User/Bsp/NIMING.c:36:29
	ldrb.w	r1, [sp, #4]
	.loc	2 36 23 is_stmt 0               @ ../User/Bsp/NIMING.c:36:23
	ldrb.w	r3, [sp, #9]
	add.w	r12, r3, #1
	strb.w	r12, [sp, #9]
	.loc	2 36 26                         @ ../User/Bsp/NIMING.c:36:26
	strb	r1, [r2, r3]
	.loc	2 37 29 is_stmt 1               @ ../User/Bsp/NIMING.c:37:29
	ldrb.w	r1, [sp, #5]
	.loc	2 37 23 is_stmt 0               @ ../User/Bsp/NIMING.c:37:23
	ldrb.w	r3, [sp, #9]
	add.w	r12, r3, #1
	strb.w	r12, [sp, #9]
	.loc	2 37 26                         @ ../User/Bsp/NIMING.c:37:26
	strb	r1, [r2, r3]
	.loc	2 38 13 is_stmt 1               @ ../User/Bsp/NIMING.c:38:13
	ldrh.w	r1, [sp, #22]
	.loc	2 38 11 is_stmt 0               @ ../User/Bsp/NIMING.c:38:11
	strh.w	r1, [sp, #4]
	.loc	2 39 29 is_stmt 1               @ ../User/Bsp/NIMING.c:39:29
	ldrb.w	r1, [sp, #4]
	.loc	2 39 23 is_stmt 0               @ ../User/Bsp/NIMING.c:39:23
	ldrb.w	r3, [sp, #9]
	add.w	r12, r3, #1
	strb.w	r12, [sp, #9]
	.loc	2 39 26                         @ ../User/Bsp/NIMING.c:39:26
	strb	r1, [r2, r3]
	.loc	2 40 29 is_stmt 1               @ ../User/Bsp/NIMING.c:40:29
	ldrb.w	r1, [sp, #5]
	.loc	2 40 23 is_stmt 0               @ ../User/Bsp/NIMING.c:40:23
	ldrb.w	r3, [sp, #9]
	add.w	r12, r3, #1
	strb.w	r12, [sp, #9]
	.loc	2 40 26                         @ ../User/Bsp/NIMING.c:40:26
	strb	r1, [r2, r3]
	.loc	2 42 13 is_stmt 1               @ ../User/Bsp/NIMING.c:42:13
	ldrh.w	r1, [sp, #20]
	.loc	2 42 11 is_stmt 0               @ ../User/Bsp/NIMING.c:42:11
	strh.w	r1, [sp, #4]
	.loc	2 43 29 is_stmt 1               @ ../User/Bsp/NIMING.c:43:29
	ldrb.w	r1, [sp, #4]
	.loc	2 43 23 is_stmt 0               @ ../User/Bsp/NIMING.c:43:23
	ldrb.w	r3, [sp, #9]
	add.w	r12, r3, #1
	strb.w	r12, [sp, #9]
	.loc	2 43 26                         @ ../User/Bsp/NIMING.c:43:26
	strb	r1, [r2, r3]
	.loc	2 44 29 is_stmt 1               @ ../User/Bsp/NIMING.c:44:29
	ldrb.w	r1, [sp, #5]
	.loc	2 44 23 is_stmt 0               @ ../User/Bsp/NIMING.c:44:23
	ldrb.w	r3, [sp, #9]
	add.w	r12, r3, #1
	strb.w	r12, [sp, #9]
	.loc	2 44 26                         @ ../User/Bsp/NIMING.c:44:26
	strb	r1, [r2, r3]
	.loc	2 45 13 is_stmt 1               @ ../User/Bsp/NIMING.c:45:13
	ldrh.w	r1, [sp, #18]
	.loc	2 45 11 is_stmt 0               @ ../User/Bsp/NIMING.c:45:11
	strh.w	r1, [sp, #4]
	.loc	2 46 29 is_stmt 1               @ ../User/Bsp/NIMING.c:46:29
	ldrb.w	r1, [sp, #4]
	.loc	2 46 23 is_stmt 0               @ ../User/Bsp/NIMING.c:46:23
	ldrb.w	r3, [sp, #9]
	add.w	r12, r3, #1
	strb.w	r12, [sp, #9]
	.loc	2 46 26                         @ ../User/Bsp/NIMING.c:46:26
	strb	r1, [r2, r3]
	.loc	2 47 29 is_stmt 1               @ ../User/Bsp/NIMING.c:47:29
	ldrb.w	r1, [sp, #5]
	.loc	2 47 23 is_stmt 0               @ ../User/Bsp/NIMING.c:47:23
	ldrb.w	r3, [sp, #9]
	add.w	r12, r3, #1
	strb.w	r12, [sp, #9]
	.loc	2 47 26                         @ ../User/Bsp/NIMING.c:47:26
	strb	r1, [r2, r3]
	.loc	2 48 13 is_stmt 1               @ ../User/Bsp/NIMING.c:48:13
	ldrh.w	r1, [sp, #16]
	.loc	2 48 11 is_stmt 0               @ ../User/Bsp/NIMING.c:48:11
	strh.w	r1, [sp, #4]
	.loc	2 49 29 is_stmt 1               @ ../User/Bsp/NIMING.c:49:29
	ldrb.w	r1, [sp, #4]
	.loc	2 49 23 is_stmt 0               @ ../User/Bsp/NIMING.c:49:23
	ldrb.w	r3, [sp, #9]
	add.w	r12, r3, #1
	strb.w	r12, [sp, #9]
	.loc	2 49 26                         @ ../User/Bsp/NIMING.c:49:26
	strb	r1, [r2, r3]
	.loc	2 50 29 is_stmt 1               @ ../User/Bsp/NIMING.c:50:29
	ldrb.w	r1, [sp, #5]
	.loc	2 50 23 is_stmt 0               @ ../User/Bsp/NIMING.c:50:23
	ldrb.w	r3, [sp, #9]
	add.w	r12, r3, #1
	strb.w	r12, [sp, #9]
	.loc	2 50 26                         @ ../User/Bsp/NIMING.c:50:26
	strb	r1, [r2, r3]
	.loc	2 52 13 is_stmt 1               @ ../User/Bsp/NIMING.c:52:13
	ldrh.w	r1, [sp, #14]
	.loc	2 52 11 is_stmt 0               @ ../User/Bsp/NIMING.c:52:11
	strh.w	r1, [sp, #4]
	.loc	2 53 29 is_stmt 1               @ ../User/Bsp/NIMING.c:53:29
	ldrb.w	r1, [sp, #4]
	.loc	2 53 23 is_stmt 0               @ ../User/Bsp/NIMING.c:53:23
	ldrb.w	r3, [sp, #9]
	add.w	r12, r3, #1
	strb.w	r12, [sp, #9]
	.loc	2 53 26                         @ ../User/Bsp/NIMING.c:53:26
	strb	r1, [r2, r3]
	.loc	2 54 29 is_stmt 1               @ ../User/Bsp/NIMING.c:54:29
	ldrb.w	r1, [sp, #5]
	.loc	2 54 23 is_stmt 0               @ ../User/Bsp/NIMING.c:54:23
	ldrb.w	r3, [sp, #9]
	add.w	r12, r3, #1
	strb.w	r12, [sp, #9]
	.loc	2 54 26                         @ ../User/Bsp/NIMING.c:54:26
	strb	r1, [r2, r3]
	.loc	2 55 13 is_stmt 1               @ ../User/Bsp/NIMING.c:55:13
	ldrh.w	r1, [sp, #12]
	.loc	2 55 11 is_stmt 0               @ ../User/Bsp/NIMING.c:55:11
	strh.w	r1, [sp, #4]
	.loc	2 56 29 is_stmt 1               @ ../User/Bsp/NIMING.c:56:29
	ldrb.w	r1, [sp, #4]
	.loc	2 56 23 is_stmt 0               @ ../User/Bsp/NIMING.c:56:23
	ldrb.w	r3, [sp, #9]
	add.w	r12, r3, #1
	strb.w	r12, [sp, #9]
	.loc	2 56 26                         @ ../User/Bsp/NIMING.c:56:26
	strb	r1, [r2, r3]
	.loc	2 57 29 is_stmt 1               @ ../User/Bsp/NIMING.c:57:29
	ldrb.w	r1, [sp, #5]
	.loc	2 57 23 is_stmt 0               @ ../User/Bsp/NIMING.c:57:23
	ldrb.w	r3, [sp, #9]
	add.w	r12, r3, #1
	strb.w	r12, [sp, #9]
	.loc	2 57 26                         @ ../User/Bsp/NIMING.c:57:26
	strb	r1, [r2, r3]
	.loc	2 58 13 is_stmt 1               @ ../User/Bsp/NIMING.c:58:13
	ldrh.w	r1, [sp, #10]
	.loc	2 58 11 is_stmt 0               @ ../User/Bsp/NIMING.c:58:11
	strh.w	r1, [sp, #4]
	.loc	2 59 29 is_stmt 1               @ ../User/Bsp/NIMING.c:59:29
	ldrb.w	r1, [sp, #4]
	.loc	2 59 23 is_stmt 0               @ ../User/Bsp/NIMING.c:59:23
	ldrb.w	r3, [sp, #9]
	add.w	r12, r3, #1
	strb.w	r12, [sp, #9]
	.loc	2 59 26                         @ ../User/Bsp/NIMING.c:59:26
	strb	r1, [r2, r3]
	.loc	2 60 29 is_stmt 1               @ ../User/Bsp/NIMING.c:60:29
	ldrb.w	r1, [sp, #5]
	.loc	2 60 23 is_stmt 0               @ ../User/Bsp/NIMING.c:60:23
	ldrb.w	r3, [sp, #9]
	add.w	r12, r3, #1
	strb.w	r12, [sp, #9]
	.loc	2 60 26                         @ ../User/Bsp/NIMING.c:60:26
	strb	r1, [r2, r3]
	.loc	2 62 24 is_stmt 1               @ ../User/Bsp/NIMING.c:62:24
	ldrb.w	r1, [sp, #9]
	.loc	2 62 28 is_stmt 0               @ ../User/Bsp/NIMING.c:62:28
	subs	r1, #4
	.loc	2 62 22                         @ ../User/Bsp/NIMING.c:62:22
	strb	r1, [r2, #3]
.Ltmp1:
	.loc	2 64 10 is_stmt 1               @ ../User/Bsp/NIMING.c:64:10
	strb.w	r0, [sp, #6]
	.loc	2 64 9 is_stmt 0                @ ../User/Bsp/NIMING.c:64:9
	b	.LBB0_1
.LBB0_1:                                @ =>This Inner Loop Header: Depth=1
.Ltmp2:
	.loc	2 64 15                         @ ../User/Bsp/NIMING.c:64:15
	ldrb.w	r0, [sp, #6]
	.loc	2 64 17                         @ ../User/Bsp/NIMING.c:64:17
	movw	r1, :lower16:anonymity_au8
	movt	r1, :upper16:anonymity_au8
	ldrb	r1, [r1, #3]
	.loc	2 64 33                         @ ../User/Bsp/NIMING.c:64:33
	adds	r1, #4
.Ltmp3:
	.loc	2 64 5                          @ ../User/Bsp/NIMING.c:64:5
	cmp	r0, r1
	bge	.LBB0_4
	b	.LBB0_2
.LBB0_2:                                @   in Loop: Header=BB0_1 Depth=1
.Ltmp4:
	.loc	2 66 34 is_stmt 1               @ ../User/Bsp/NIMING.c:66:34
	ldrb.w	r1, [sp, #6]
	.loc	2 66 20 is_stmt 0               @ ../User/Bsp/NIMING.c:66:20
	movw	r0, :lower16:anonymity_au8
	movt	r0, :upper16:anonymity_au8
	ldrb	r1, [r0, r1]
	.loc	2 66 17                         @ ../User/Bsp/NIMING.c:66:17
	ldrb.w	r0, [sp, #8]
	add	r0, r1
	strb.w	r0, [sp, #8]
	.loc	2 67 20 is_stmt 1               @ ../User/Bsp/NIMING.c:67:20
	ldrb.w	r1, [sp, #8]
	.loc	2 67 17 is_stmt 0               @ ../User/Bsp/NIMING.c:67:17
	ldrb.w	r0, [sp, #7]
	add	r0, r1
	strb.w	r0, [sp, #7]
	.loc	2 68 5 is_stmt 1                @ ../User/Bsp/NIMING.c:68:5
	b	.LBB0_3
.Ltmp5:
.LBB0_3:                                @   in Loop: Header=BB0_1 Depth=1
	.loc	2 64 39                         @ ../User/Bsp/NIMING.c:64:39
	ldrb.w	r0, [sp, #6]
	adds	r0, #1
	strb.w	r0, [sp, #6]
	.loc	2 64 5 is_stmt 0                @ ../User/Bsp/NIMING.c:64:5
	b	.LBB0_1
.Ltmp6:
.LBB0_4:
	.loc	2 69 27 is_stmt 1               @ ../User/Bsp/NIMING.c:69:27
	ldrb.w	r0, [sp, #8]
	.loc	2 69 23 is_stmt 0               @ ../User/Bsp/NIMING.c:69:23
	ldrb.w	r2, [sp, #9]
	adds	r1, r2, #1
	strb.w	r1, [sp, #9]
	.loc	2 69 5                          @ ../User/Bsp/NIMING.c:69:5
	movw	r1, :lower16:anonymity_au8
	movt	r1, :upper16:anonymity_au8
	.loc	2 69 26                         @ ../User/Bsp/NIMING.c:69:26
	strb	r0, [r1, r2]
	.loc	2 70 27 is_stmt 1               @ ../User/Bsp/NIMING.c:70:27
	ldrb.w	r0, [sp, #7]
	.loc	2 70 23 is_stmt 0               @ ../User/Bsp/NIMING.c:70:23
	ldrb.w	r2, [sp, #9]
	adds	r3, r2, #1
	strb.w	r3, [sp, #9]
	.loc	2 70 26                         @ ../User/Bsp/NIMING.c:70:26
	strb	r0, [r1, r2]
	.loc	2 74 1 is_stmt 1                @ ../User/Bsp/NIMING.c:74:1
	add	sp, #28
	pop	{r4, r5, r6, r7, pc}
.Ltmp7:
.Lfunc_end0:
	.size	Anonymity_TX, .Lfunc_end0-Anonymity_TX
	.cfi_endproc
	.cantunwind
	.fnend
                                        @ -- End function
	.hidden	anonymity_au8                   @ @anonymity_au8
	.type	anonymity_au8,%object
	.section	.bss.anonymity_au8,"aw",%nobits
	.globl	anonymity_au8
anonymity_au8:
	.zero	70
	.size	anonymity_au8, 70

	.section	".note.GNU-stack","",%progbits
	.eabi_attribute	30, 6	@ Tag_ABI_optimization_goals
	.ARM_attribute	16, 1	@ Tag_AV_eba