	.text
	.syntax unified
	.eabi_attribute	67, "2.09"	@ Tag_conformance
	.cpu	cortex-m4
	.eabi_attribute	6, 13	@ Tag_CPU_arch
	.eabi_attribute	7, 77	@ Tag_CPU_arch_profile
	.eabi_attribute	8, 0	@ Tag_ARM_ISA_use
	.eabi_attribute	9, 2	@ Tag_THUMB_ISA_use
	.fpu	fpv4-sp-d16
	.eabi_attribute	27, 1	@ Tag_ABI_HardFP_use
	.eabi_attribute	36, 1	@ Tag_FP_HP_extension
	.eabi_attribute	34, 1	@ Tag_CPU_unaligned_access
	.eabi_attribute	17, 1	@ Tag_ABI_PCS_GOT_use
	.eabi_attribute	20, 2	@ Tag_ABI_FP_denormal
	.eabi_attribute	21, 0	@ Tag_ABI_FP_exceptions
	.eabi_attribute	23, 3	@ Tag_ABI_FP_number_model
	.eabi_attribute	24, 1	@ Tag_ABI_align_needed
	.eabi_attribute	25, 1	@ Tag_ABI_align_preserved
	.eabi_attribute	28, 1	@ Tag_ABI_VFP_args
	.eabi_attribute	38, 1	@ Tag_ABI_FP_16bit_format
	.eabi_attribute	18, 2	@ Tag_ABI_PCS_wchar_t
	.eabi_attribute	26, 1	@ Tag_ABI_enum_size
	.eabi_attribute	14, 0	@ Tag_ABI_PCS_R9_use
	.file	"Power_Ctrl.c"
	.file	1 "D:\\horizon\\Horizon_Infantry (2)\\MDK-ARM" "../User/Algorithm/inc\\Power_Ctrl.h"
	.file	2 "D:\\horizon\\Horizon_Infantry (2)\\MDK-ARM" "../User/Algorithm/Power_Ctrl.c"
	.file	3 "D:\\horizon\\Horizon_Infantry (2)\\MDK-ARM" "../User/Algorithm/inc\\controller.h"
	.file	4 "D:\\" "kevil\\ARM\\ARMCLANG\\Bin\\..\\include\\stdint.h"
	.section	.text.Power_control_init,"ax",%progbits
	.hidden	Power_control_init              @ -- Begin function Power_control_init
	.globl	Power_control_init
	.p2align	2
	.type	Power_control_init,%function
	.code	16                              @ @Power_control_init
	.thumb_func
Power_control_init:
.Lfunc_begin0:
	.loc	2 4 0                           @ ../User/Algorithm/Power_Ctrl.c:4:0
	.fnstart
	.cfi_sections .debug_frame
	.cfi_startproc
@ %bb.0:
	.pad	#4
	sub	sp, #4
	.cfi_def_cfa_offset 4
	str	r0, [sp]
.Ltmp0:
	.loc	2 5 5 prologue_end              @ ../User/Algorithm/Power_Ctrl.c:5:5
	ldr	r1, [sp]
	mov.w	r0, #1073741824
	.loc	2 5 26 is_stmt 0                @ ../User/Algorithm/Power_Ctrl.c:5:26
	str	r0, [r1]
	.loc	2 6 5 is_stmt 1                 @ ../User/Algorithm/Power_Ctrl.c:6:5
	ldr	r1, [sp]
	movs	r0, #0
	.loc	2 6 26 is_stmt 0                @ ../User/Algorithm/Power_Ctrl.c:6:26
	str	r0, [r1, #4]
	.loc	2 7 5 is_stmt 1                 @ ../User/Algorithm/Power_Ctrl.c:7:5
	ldr	r1, [sp]
	.loc	2 7 26 is_stmt 0                @ ../User/Algorithm/Power_Ctrl.c:7:26
	str	r0, [r1, #8]
	.loc	2 8 5 is_stmt 1                 @ ../User/Algorithm/Power_Ctrl.c:8:5
	ldr	r1, [sp]
	.loc	2 8 27 is_stmt 0                @ ../User/Algorithm/Power_Ctrl.c:8:27
	str	r0, [r1, #12]
	.loc	2 9 5 is_stmt 1                 @ ../User/Algorithm/Power_Ctrl.c:9:5
	ldr	r1, [sp]
	movs	r0, #0
	movt	r0, #17096
	.loc	2 9 28 is_stmt 0                @ ../User/Algorithm/Power_Ctrl.c:9:28
	str	r0, [r1, #16]
	.loc	2 11 5 is_stmt 1                @ ../User/Algorithm/Power_Ctrl.c:11:5
	ldr	r1, [sp]
	movw	r0, #591
	movt	r0, #13830
	.loc	2 11 30 is_stmt 0               @ ../User/Algorithm/Power_Ctrl.c:11:30
	str	r0, [r1, #60]
	.loc	2 12 5 is_stmt 1                @ ../User/Algorithm/Power_Ctrl.c:12:5
	ldr	r1, [sp]
	movw	r0, #4604
	movt	r0, #13316
	.loc	2 12 14 is_stmt 0               @ ../User/Algorithm/Power_Ctrl.c:12:14
	str	r0, [r1, #64]
	.loc	2 13 5 is_stmt 1                @ ../User/Algorithm/Power_Ctrl.c:13:5
	ldr	r1, [sp]
	movw	r0, #963
	movt	r0, #13340
	.loc	2 13 15 is_stmt 0               @ ../User/Algorithm/Power_Ctrl.c:13:15
	str	r0, [r1, #68]
	.loc	2 14 5 is_stmt 1                @ ../User/Algorithm/Power_Ctrl.c:14:5
	ldr	r1, [sp]
	movw	r0, #38797
	movt	r0, #16514
	.loc	2 14 21 is_stmt 0               @ ../User/Algorithm/Power_Ctrl.c:14:21
	str	r0, [r1, #72]
	.loc	2 15 1 is_stmt 1                @ ../User/Algorithm/Power_Ctrl.c:15:1
	add	sp, #4
	bx	lr
.Ltmp1:
.Lfunc_end0:
	.size	Power_control_init, .Lfunc_end0-Power_control_init
	.cfi_endproc
	.cantunwind
	.fnend
                                        @ -- End function
	.section	.text.get_initial_power,"ax",%progbits
	.hidden	get_initial_power               @ -- Begin function get_initial_power
	.globl	get_initial_power
	.p2align	2
	.type	get_initial_power,%function
	.code	16                              @ @get_initial_power
	.thumb_func
get_initial_power:
.Lfunc_begin1:
	.loc	2 25 0                          @ ../User/Algorithm/Power_Ctrl.c:25:0
	.fnstart
	.cfi_startproc
@ %bb.0:
	.pad	#16
	sub	sp, #16
	.cfi_def_cfa_offset 16
	str	r0, [sp, #12]
	str	r1, [sp, #8]
.Ltmp2:
	.loc	2 28 34 prologue_end            @ ../User/Algorithm/Power_Ctrl.c:28:34
	ldr	r0, [sp, #12]
	.loc	2 28 46 is_stmt 0               @ ../User/Algorithm/Power_Ctrl.c:28:46
	ldrsh.w	r0, [r0, #16]
	.loc	2 28 13                         @ ../User/Algorithm/Power_Ctrl.c:28:13
	str	r0, [sp]
	.loc	2 30 21 is_stmt 1               @ ../User/Algorithm/Power_Ctrl.c:30:21
	ldr	r0, [sp, #12]
	.loc	2 30 35 is_stmt 0               @ ../User/Algorithm/Power_Ctrl.c:30:35
	ldr.w	r0, [r0, #438]
	vmov	s6, r0
	.loc	2 30 44                         @ ../User/Algorithm/Power_Ctrl.c:30:44
	ldr	r0, [sp, #8]
	.loc	2 30 51                         @ ../User/Algorithm/Power_Ctrl.c:30:51
	vldr	s4, [r0, #60]
	.loc	2 32 28 is_stmt 1               @ ../User/Algorithm/Power_Ctrl.c:32:28
	vldr	s0, [r0, #64]
	.loc	2 31 28                         @ ../User/Algorithm/Power_Ctrl.c:31:28
	vldr	s8, [r0, #68]
	.loc	2 32 83                         @ ../User/Algorithm/Power_Ctrl.c:32:83
	vldr	s2, [r0, #72]
	.loc	2 30 42                         @ ../User/Algorithm/Power_Ctrl.c:30:42
	vmul.f32	s4, s6, s4
	.loc	2 30 71 is_stmt 0               @ ../User/Algorithm/Power_Ctrl.c:30:71
	vldr	s10, [sp]
	vcvt.f32.s32	s10, s10
	.loc	2 31 31 is_stmt 1               @ ../User/Algorithm/Power_Ctrl.c:31:31
	vmul.f32	s8, s8, s10
	.loc	2 31 50 is_stmt 0               @ ../User/Algorithm/Power_Ctrl.c:31:50
	vmul.f32	s8, s8, s10
	.loc	2 30 88 is_stmt 1               @ ../User/Algorithm/Power_Ctrl.c:30:88
	vmul.f32	s4, s4, s10
	vadd.f32	s4, s4, s8
	.loc	2 32 30                         @ ../User/Algorithm/Power_Ctrl.c:32:30
	vmul.f32	s0, s0, s6
	.loc	2 31 69                         @ ../User/Algorithm/Power_Ctrl.c:31:69
	vmul.f32	s0, s0, s6
	vadd.f32	s0, s0, s4
	.loc	2 32 74                         @ ../User/Algorithm/Power_Ctrl.c:32:74
	vadd.f32	s0, s0, s2
	.loc	2 30 19                         @ ../User/Algorithm/Power_Ctrl.c:30:19
	vstr	s0, [sp, #4]
	.loc	2 34 12                         @ ../User/Algorithm/Power_Ctrl.c:34:12
	vldr	s0, [sp, #4]
	.loc	2 34 5 is_stmt 0                @ ../User/Algorithm/Power_Ctrl.c:34:5
	add	sp, #16
	bx	lr
.Ltmp3:
.Lfunc_end1:
	.size	get_initial_power, .Lfunc_end1-get_initial_power
	.cfi_endproc
	.cantunwind
	.fnend
                                        @ -- End function
	.section	.text.chassis_power_limit,"ax",%progbits
	.hidden	chassis_power_limit             @ -- Begin function chassis_power_limit
	.globl	chassis_power_limit
	.p2align	2
	.type	chassis_power_limit,%function
	.code	16                              @ @chassis_power_limit
	.thumb_func
chassis_power_limit:
.Lfunc_begin2:
	.loc	2 45 0 is_stmt 1                @ ../User/Algorithm/Power_Ctrl.c:45:0
	.fnstart
	.cfi_startproc
@ %bb.0:
	.save	{r7, lr}
	push	{r7, lr}
	.cfi_def_cfa_offset 8
	.cfi_offset lr, -4
	.cfi_offset r7, -8
	.pad	#40
	sub	sp, #40
	.cfi_def_cfa_offset 48
                                        @ kill: def $r3 killed $r1
	str	r0, [sp, #36]
	strb.w	r1, [sp, #35]
	str	r2, [sp, #28]
.Ltmp4:
	.loc	2 46 8 prologue_end             @ ../User/Algorithm/Power_Ctrl.c:46:8
	ldrb.w	r0, [sp, #35]
.Ltmp5:
	.loc	2 46 8 is_stmt 0                @ ../User/Algorithm/Power_Ctrl.c:46:8
	cmp.w	r0, #-1
	bgt	.LBB2_2
	b	.LBB2_1
.LBB2_1:
.Ltmp6:
	.loc	2 46 15                         @ ../User/Algorithm/Power_Ctrl.c:46:15
	b	.LBB2_11
.Ltmp7:
.LBB2_2:
	.loc	2 48 30 is_stmt 1               @ ../User/Algorithm/Power_Ctrl.c:48:30
	ldr	r0, [sp, #36]
	.loc	2 48 42 is_stmt 0               @ ../User/Algorithm/Power_Ctrl.c:48:42
	ldrsh.w	r0, [r0, #16]
	.loc	2 48 23                         @ ../User/Algorithm/Power_Ctrl.c:48:23
	vmov	s0, r0
	vcvt.f32.s32	s0, s0
	.loc	2 48 11                         @ ../User/Algorithm/Power_Ctrl.c:48:11
	vstr	s0, [sp, #24]
	.loc	2 49 15 is_stmt 1               @ ../User/Algorithm/Power_Ctrl.c:49:15
	ldr	r0, [sp, #28]
	.loc	2 49 22 is_stmt 0               @ ../User/Algorithm/Power_Ctrl.c:49:22
	vldr	s0, [r0, #60]
	.loc	2 49 42                         @ ../User/Algorithm/Power_Ctrl.c:49:42
	vldr	s2, [sp, #24]
	.loc	2 49 40                         @ ../User/Algorithm/Power_Ctrl.c:49:40
	vmul.f32	s0, s0, s2
	.loc	2 49 11                         @ ../User/Algorithm/Power_Ctrl.c:49:11
	vstr	s0, [sp, #20]
	.loc	2 50 15 is_stmt 1               @ ../User/Algorithm/Power_Ctrl.c:50:15
	ldr	r0, [sp, #28]
	.loc	2 50 27 is_stmt 0               @ ../User/Algorithm/Power_Ctrl.c:50:27
	vldr	s6, [sp, #24]
	.loc	2 50 22                         @ ../User/Algorithm/Power_Ctrl.c:50:22
	vldr	s2, [r0, #68]
	.loc	2 50 90                         @ ../User/Algorithm/Power_Ctrl.c:50:90
	vldr	s0, [r0, #72]
	.loc	2 50 25                         @ ../User/Algorithm/Power_Ctrl.c:50:25
	vmul.f32	s2, s2, s6
	.loc	2 50 76                         @ ../User/Algorithm/Power_Ctrl.c:50:76
	ldrb.w	r1, [sp, #35]
	.loc	2 50 51                         @ ../User/Algorithm/Power_Ctrl.c:50:51
	add.w	r0, r0, r1, lsl #2
	vldr	s4, [r0, #40]
	.loc	2 50 49                         @ ../User/Algorithm/Power_Ctrl.c:50:49
	vmul.f32	s2, s2, s6
	vsub.f32	s2, s2, s4
	.loc	2 50 81                         @ ../User/Algorithm/Power_Ctrl.c:50:81
	vadd.f32	s0, s0, s2
	.loc	2 50 11                         @ ../User/Algorithm/Power_Ctrl.c:50:11
	vstr	s0, [sp, #16]
.Ltmp8:
	.loc	2 53 8 is_stmt 1                @ ../User/Algorithm/Power_Ctrl.c:53:8
	ldr	r0, [sp, #36]
	.loc	2 53 21 is_stmt 0               @ ../User/Algorithm/Power_Ctrl.c:53:21
	ldr.w	r0, [r0, #438]
	vmov	s0, r0
.Ltmp9:
	.loc	2 53 8                          @ ../User/Algorithm/Power_Ctrl.c:53:8
	vcmp.f32	s0, #0
	vmrs	APSR_nzcv, fpscr
	ble	.LBB2_7
	b	.LBB2_3
.LBB2_3:
.Ltmp10:
	.loc	2 55 24 is_stmt 1               @ ../User/Algorithm/Power_Ctrl.c:55:24
	vldr	s0, [sp, #20]
	vstr	s0, [sp, #4]                    @ 4-byte Spill
	.loc	2 55 45 is_stmt 0               @ ../User/Algorithm/Power_Ctrl.c:55:45
	ldr	r0, [sp, #28]
	.loc	2 55 52                         @ ../User/Algorithm/Power_Ctrl.c:55:52
	vldr	s2, [r0, #64]
	vmov.f32	s4, #-4.000000e+00
	.loc	2 55 43                         @ ../User/Algorithm/Power_Ctrl.c:55:43
	vmul.f32	s2, s2, s4
	.loc	2 55 56                         @ ../User/Algorithm/Power_Ctrl.c:55:56
	vldr	s4, [sp, #16]
	.loc	2 55 54                         @ ../User/Algorithm/Power_Ctrl.c:55:54
	vmul.f32	s2, s2, s4
	.loc	2 55 39                         @ ../User/Algorithm/Power_Ctrl.c:55:39
	vmul.f32	s0, s0, s0
	vadd.f32	s0, s0, s2
	.loc	2 55 28                         @ ../User/Algorithm/Power_Ctrl.c:55:28
	bl	Sqrt
	vldr	s2, [sp, #4]                    @ 4-byte Reload
	.loc	2 55 26                         @ ../User/Algorithm/Power_Ctrl.c:55:26
	vsub.f32	s0, s0, s2
	.loc	2 55 67                         @ ../User/Algorithm/Power_Ctrl.c:55:67
	ldr	r0, [sp, #28]
	.loc	2 55 74                         @ ../User/Algorithm/Power_Ctrl.c:55:74
	vldr	s2, [r0, #64]
	.loc	2 55 65                         @ ../User/Algorithm/Power_Ctrl.c:55:65
	vadd.f32	s2, s2, s2
	.loc	2 55 60                         @ ../User/Algorithm/Power_Ctrl.c:55:60
	vdiv.f32	s0, s0, s2
	.loc	2 55 15                         @ ../User/Algorithm/Power_Ctrl.c:55:15
	vstr	s0, [sp, #12]
.Ltmp11:
	.loc	2 56 12 is_stmt 1               @ ../User/Algorithm/Power_Ctrl.c:56:12
	vldr	s0, [sp, #12]
	vldr	s2, .LCPI2_1
.Ltmp12:
	.loc	2 56 12 is_stmt 0               @ ../User/Algorithm/Power_Ctrl.c:56:12
	vcmp.f32	s0, s2
	vmrs	APSR_nzcv, fpscr
	ble	.LBB2_5
	b	.LBB2_4
.LBB2_4:
.Ltmp13:
	.loc	2 58 13 is_stmt 1               @ ../User/Algorithm/Power_Ctrl.c:58:13
	ldr	r1, [sp, #36]
	movs	r0, #0
	movt	r0, #18042
	.loc	2 58 33 is_stmt 0               @ ../User/Algorithm/Power_Ctrl.c:58:33
	str.w	r0, [r1, #438]
	.loc	2 59 9 is_stmt 1                @ ../User/Algorithm/Power_Ctrl.c:59:9
	b	.LBB2_6
.Ltmp14:
.LBB2_5:
	.loc	2 60 35                         @ ../User/Algorithm/Power_Ctrl.c:60:35
	ldr	r0, [sp, #12]
	.loc	2 60 13 is_stmt 0               @ ../User/Algorithm/Power_Ctrl.c:60:13
	ldr	r1, [sp, #36]
	.loc	2 60 33                         @ ../User/Algorithm/Power_Ctrl.c:60:33
	str.w	r0, [r1, #438]
	b	.LBB2_6
.Ltmp15:
.LBB2_6:
	.loc	2 62 5 is_stmt 1                @ ../User/Algorithm/Power_Ctrl.c:62:5
	b	.LBB2_11
.Ltmp16:
.LBB2_7:
	.loc	2 63 24                         @ ../User/Algorithm/Power_Ctrl.c:63:24
	vldr	s0, [sp, #20]
	.loc	2 63 23 is_stmt 0               @ ../User/Algorithm/Power_Ctrl.c:63:23
	vneg.f32	s2, s0
	vstr	s2, [sp]                        @ 4-byte Spill
	.loc	2 63 45                         @ ../User/Algorithm/Power_Ctrl.c:63:45
	ldr	r0, [sp, #28]
	.loc	2 63 52                         @ ../User/Algorithm/Power_Ctrl.c:63:52
	vldr	s2, [r0, #64]
	vmov.f32	s4, #-4.000000e+00
	.loc	2 63 43                         @ ../User/Algorithm/Power_Ctrl.c:63:43
	vmul.f32	s2, s2, s4
	.loc	2 63 56                         @ ../User/Algorithm/Power_Ctrl.c:63:56
	vldr	s4, [sp, #16]
	.loc	2 63 54                         @ ../User/Algorithm/Power_Ctrl.c:63:54
	vmul.f32	s2, s2, s4
	.loc	2 63 39                         @ ../User/Algorithm/Power_Ctrl.c:63:39
	vmul.f32	s0, s0, s0
	vadd.f32	s0, s0, s2
	.loc	2 63 28                         @ ../User/Algorithm/Power_Ctrl.c:63:28
	bl	Sqrt
	vmov.f32	s2, s0
	.loc	2 63 26                         @ ../User/Algorithm/Power_Ctrl.c:63:26
	vldr	s0, [sp]                        @ 4-byte Reload
	vsub.f32	s0, s0, s2
	.loc	2 63 67                         @ ../User/Algorithm/Power_Ctrl.c:63:67
	ldr	r0, [sp, #28]
	.loc	2 63 74                         @ ../User/Algorithm/Power_Ctrl.c:63:74
	vldr	s2, [r0, #64]
	.loc	2 63 65                         @ ../User/Algorithm/Power_Ctrl.c:63:65
	vadd.f32	s2, s2, s2
	.loc	2 63 60                         @ ../User/Algorithm/Power_Ctrl.c:63:60
	vdiv.f32	s0, s0, s2
	.loc	2 63 15                         @ ../User/Algorithm/Power_Ctrl.c:63:15
	vstr	s0, [sp, #8]
.Ltmp17:
	.loc	2 64 13 is_stmt 1               @ ../User/Algorithm/Power_Ctrl.c:64:13
	vldr	s0, [sp, #8]
	vldr	s2, .LCPI2_0
.Ltmp18:
	.loc	2 64 13 is_stmt 0               @ ../User/Algorithm/Power_Ctrl.c:64:13
	vcmp.f32	s0, s2
	vmrs	APSR_nzcv, fpscr
	bge	.LBB2_9
	b	.LBB2_8
.LBB2_8:
.Ltmp19:
	.loc	2 66 13 is_stmt 1               @ ../User/Algorithm/Power_Ctrl.c:66:13
	ldr	r1, [sp, #36]
	movs	r0, #0
	movt	r0, #50810
	.loc	2 66 33 is_stmt 0               @ ../User/Algorithm/Power_Ctrl.c:66:33
	str.w	r0, [r1, #438]
	.loc	2 67 9 is_stmt 1                @ ../User/Algorithm/Power_Ctrl.c:67:9
	b	.LBB2_10
.Ltmp20:
.LBB2_9:
	.loc	2 68 35                         @ ../User/Algorithm/Power_Ctrl.c:68:35
	ldr	r0, [sp, #8]
	.loc	2 68 13 is_stmt 0               @ ../User/Algorithm/Power_Ctrl.c:68:13
	ldr	r1, [sp, #36]
	.loc	2 68 33                         @ ../User/Algorithm/Power_Ctrl.c:68:33
	str.w	r0, [r1, #438]
	b	.LBB2_10
.Ltmp21:
.LBB2_10:
	.loc	2 0 33                          @ ../User/Algorithm/Power_Ctrl.c:0:33
	b	.LBB2_11
.LBB2_11:
	.loc	2 71 1 is_stmt 1                @ ../User/Algorithm/Power_Ctrl.c:71:1
	add	sp, #40
	pop	{r7, pc}
.Ltmp22:
	.p2align	2
@ %bb.12:
	.loc	2 0 1 is_stmt 0                 @ ../User/Algorithm/Power_Ctrl.c:0:1
.LCPI2_0:
	.long	0xc67a0000                      @ float -16000
.LCPI2_1:
	.long	0x467a0000                      @ float 16000
.Lfunc_end2:
	.size	chassis_power_limit, .Lfunc_end2-chassis_power_limit
	.cfi_endproc
	.cantunwind
	.fnend
                                        @ -- End function
	.section	.text.SectionLimit_f,"ax",%progbits
	.hidden	SectionLimit_f                  @ -- Begin function SectionLimit_f
	.globl	SectionLimit_f
	.p2align	2
	.type	SectionLimit_f,%function
	.code	16                              @ @SectionLimit_f
	.thumb_func
SectionLimit_f:
.Lfunc_begin3:
	.loc	2 74 0 is_stmt 1                @ ../User/Algorithm/Power_Ctrl.c:74:0
	.fnstart
	.cfi_startproc
@ %bb.0:
	.pad	#20
	sub	sp, #20
	.cfi_def_cfa_offset 20
	vstr	s0, [sp, #12]
	vstr	s1, [sp, #8]
	vstr	s2, [sp, #4]
	movs	r0, #0
.Ltmp23:
	.loc	2 75 11 prologue_end            @ ../User/Algorithm/Power_Ctrl.c:75:11
	str	r0, [sp]
.Ltmp24:
	.loc	2 76 8                          @ ../User/Algorithm/Power_Ctrl.c:76:8
	vldr	s0, [sp, #12]
	.loc	2 76 15 is_stmt 0               @ ../User/Algorithm/Power_Ctrl.c:76:15
	vldr	s2, [sp, #8]
.Ltmp25:
	.loc	2 76 8                          @ ../User/Algorithm/Power_Ctrl.c:76:8
	vcmp.f32	s0, s2
	vmrs	APSR_nzcv, fpscr
	blt	.LBB3_6
	b	.LBB3_1
.LBB3_1:
.Ltmp26:
	.loc	2 78 12 is_stmt 1               @ ../User/Algorithm/Power_Ctrl.c:78:12
	vldr	s0, [sp, #4]
	.loc	2 78 20 is_stmt 0               @ ../User/Algorithm/Power_Ctrl.c:78:20
	vldr	s2, [sp, #12]
.Ltmp27:
	.loc	2 78 12                         @ ../User/Algorithm/Power_Ctrl.c:78:12
	vcmp.f32	s0, s2
	vmrs	APSR_nzcv, fpscr
	blt	.LBB3_3
	b	.LBB3_2
.LBB3_2:
.Ltmp28:
	.loc	2 80 20 is_stmt 1               @ ../User/Algorithm/Power_Ctrl.c:80:20
	ldr	r0, [sp, #12]
	.loc	2 80 13 is_stmt 0               @ ../User/Algorithm/Power_Ctrl.c:80:13
	str	r0, [sp, #16]
	b	.LBB3_11
.Ltmp29:
.LBB3_3:
	.loc	2 82 18 is_stmt 1               @ ../User/Algorithm/Power_Ctrl.c:82:18
	vldr	s0, [sp, #4]
	.loc	2 82 26 is_stmt 0               @ ../User/Algorithm/Power_Ctrl.c:82:26
	vldr	s2, [sp, #8]
.Ltmp30:
	.loc	2 82 18                         @ ../User/Algorithm/Power_Ctrl.c:82:18
	vcmp.f32	s0, s2
	vmrs	APSR_nzcv, fpscr
	bgt	.LBB3_5
	b	.LBB3_4
.LBB3_4:
.Ltmp31:
	.loc	2 84 20 is_stmt 1               @ ../User/Algorithm/Power_Ctrl.c:84:20
	ldr	r0, [sp, #8]
	.loc	2 84 13 is_stmt 0               @ ../User/Algorithm/Power_Ctrl.c:84:13
	str	r0, [sp, #16]
	b	.LBB3_11
.Ltmp32:
.LBB3_5:
	.loc	2 88 20 is_stmt 1               @ ../User/Algorithm/Power_Ctrl.c:88:20
	ldr	r0, [sp, #4]
	.loc	2 88 13 is_stmt 0               @ ../User/Algorithm/Power_Ctrl.c:88:13
	str	r0, [sp, #16]
	b	.LBB3_11
.Ltmp33:
.LBB3_6:
	.loc	2 93 16 is_stmt 1               @ ../User/Algorithm/Power_Ctrl.c:93:16
	ldr	r0, [sp, #8]
	.loc	2 93 14 is_stmt 0               @ ../User/Algorithm/Power_Ctrl.c:93:14
	str	r0, [sp]
	.loc	2 94 15 is_stmt 1               @ ../User/Algorithm/Power_Ctrl.c:94:15
	ldr	r0, [sp, #12]
	.loc	2 94 13 is_stmt 0               @ ../User/Algorithm/Power_Ctrl.c:94:13
	str	r0, [sp, #8]
	.loc	2 95 15 is_stmt 1               @ ../User/Algorithm/Power_Ctrl.c:95:15
	ldr	r0, [sp]
	.loc	2 95 13 is_stmt 0               @ ../User/Algorithm/Power_Ctrl.c:95:13
	str	r0, [sp, #12]
.Ltmp34:
	.loc	2 97 12 is_stmt 1               @ ../User/Algorithm/Power_Ctrl.c:97:12
	vldr	s0, [sp, #4]
	.loc	2 97 20 is_stmt 0               @ ../User/Algorithm/Power_Ctrl.c:97:20
	vldr	s2, [sp, #12]
.Ltmp35:
	.loc	2 97 12                         @ ../User/Algorithm/Power_Ctrl.c:97:12
	vcmp.f32	s0, s2
	vmrs	APSR_nzcv, fpscr
	blt	.LBB3_8
	b	.LBB3_7
.LBB3_7:
.Ltmp36:
	.loc	2 99 20 is_stmt 1               @ ../User/Algorithm/Power_Ctrl.c:99:20
	ldr	r0, [sp, #12]
	.loc	2 99 13 is_stmt 0               @ ../User/Algorithm/Power_Ctrl.c:99:13
	str	r0, [sp, #16]
	b	.LBB3_11
.Ltmp37:
.LBB3_8:
	.loc	2 101 18 is_stmt 1              @ ../User/Algorithm/Power_Ctrl.c:101:18
	vldr	s0, [sp, #4]
	.loc	2 101 26 is_stmt 0              @ ../User/Algorithm/Power_Ctrl.c:101:26
	vldr	s2, [sp, #8]
.Ltmp38:
	.loc	2 101 18                        @ ../User/Algorithm/Power_Ctrl.c:101:18
	vcmp.f32	s0, s2
	vmrs	APSR_nzcv, fpscr
	bgt	.LBB3_10
	b	.LBB3_9
.LBB3_9:
.Ltmp39:
	.loc	2 103 20 is_stmt 1              @ ../User/Algorithm/Power_Ctrl.c:103:20
	ldr	r0, [sp, #8]
	.loc	2 103 13 is_stmt 0              @ ../User/Algorithm/Power_Ctrl.c:103:13
	str	r0, [sp, #16]
	b	.LBB3_11
.Ltmp40:
.LBB3_10:
	.loc	2 107 20 is_stmt 1              @ ../User/Algorithm/Power_Ctrl.c:107:20
	ldr	r0, [sp, #4]
	.loc	2 107 13 is_stmt 0              @ ../User/Algorithm/Power_Ctrl.c:107:13
	str	r0, [sp, #16]
	b	.LBB3_11
.Ltmp41:
.LBB3_11:
	.loc	2 110 1 is_stmt 1               @ ../User/Algorithm/Power_Ctrl.c:110:1
	vldr	s0, [sp, #16]
	add	sp, #20
	bx	lr
.Ltmp42:
.Lfunc_end3:
	.size	SectionLimit_f, .Lfunc_end3-SectionLimit_f
	.cfi_endproc
	.cantunwind
	.fnend
                                        @ -- End function
	.section	.text.PID_buffer,"ax",%progbits
	.hidden	PID_buffer                      @ -- Begin function PID_buffer
	.globl	PID_buffer
	.p2align	2
	.type	PID_buffer,%function
	.code	16                              @ @PID_buffer
	.thumb_func
PID_buffer:
.Lfunc_begin4:
	.loc	2 120 0                         @ ../User/Algorithm/Power_Ctrl.c:120:0
	.fnstart
	.cfi_startproc
@ %bb.0:
	.save	{r7, lr}
	push	{r7, lr}
	.cfi_def_cfa_offset 8
	.cfi_offset lr, -4
	.cfi_offset r7, -8
	.pad	#16
	sub	sp, #16
	.cfi_def_cfa_offset 24
	str	r0, [sp, #12]
	vstr	s0, [sp, #8]
	vstr	s1, [sp, #4]
.Ltmp43:
	.loc	2 121 28 prologue_end           @ ../User/Algorithm/Power_Ctrl.c:121:28
	vldr	s0, [sp, #4]
	.loc	2 121 35 is_stmt 0              @ ../User/Algorithm/Power_Ctrl.c:121:35
	vldr	s2, [sp, #8]
	.loc	2 121 33                        @ ../User/Algorithm/Power_Ctrl.c:121:33
	vsub.f32	s0, s0, s2
	.loc	2 121 5                         @ ../User/Algorithm/Power_Ctrl.c:121:5
	ldr	r0, [sp, #12]
	.loc	2 121 26                        @ ../User/Algorithm/Power_Ctrl.c:121:26
	vstr	s0, [r0, #20]
	.loc	2 123 26 is_stmt 1              @ ../User/Algorithm/Power_Ctrl.c:123:26
	ldr	r0, [sp, #12]
	.loc	2 123 61 is_stmt 0              @ ../User/Algorithm/Power_Ctrl.c:123:61
	vldr	s2, [r0]
	.loc	2 123 26                        @ ../User/Algorithm/Power_Ctrl.c:123:26
	vldr	s0, [r0, #20]
	.loc	2 123 47                        @ ../User/Algorithm/Power_Ctrl.c:123:47
	vmul.f32	s0, s0, s2
	.loc	2 123 23                        @ ../User/Algorithm/Power_Ctrl.c:123:23
	vstr	s0, [r0, #28]
	.loc	2 125 27 is_stmt 1              @ ../User/Algorithm/Power_Ctrl.c:125:27
	ldr	r0, [sp, #12]
	.loc	2 125 62 is_stmt 0              @ ../User/Algorithm/Power_Ctrl.c:125:62
	vldr	s4, [r0, #4]
	.loc	2 125 27                        @ ../User/Algorithm/Power_Ctrl.c:125:27
	vldr	s0, [r0, #20]
	.loc	2 125 23                        @ ../User/Algorithm/Power_Ctrl.c:125:23
	vldr	s2, [r0, #32]
	vmul.f32	s0, s0, s4
	vadd.f32	s0, s0, s2
	vstr	s0, [r0, #32]
	.loc	2 127 40 is_stmt 1              @ ../User/Algorithm/Power_Ctrl.c:127:40
	ldr	r0, [sp, #12]
	.loc	2 127 52 is_stmt 0              @ ../User/Algorithm/Power_Ctrl.c:127:52
	vldr	s0, [r0, #12]
	.loc	2 127 87                        @ ../User/Algorithm/Power_Ctrl.c:127:87
	vldr	s2, [r0, #32]
	.loc	2 127 57                        @ ../User/Algorithm/Power_Ctrl.c:127:57
	vneg.f32	s1, s0
	.loc	2 127 25                        @ ../User/Algorithm/Power_Ctrl.c:127:25
	bl	SectionLimit_f
	.loc	2 127 5                         @ ../User/Algorithm/Power_Ctrl.c:127:5
	ldr	r0, [sp, #12]
	.loc	2 127 23                        @ ../User/Algorithm/Power_Ctrl.c:127:23
	vstr	s0, [r0, #32]
	.loc	2 129 27 is_stmt 1              @ ../User/Algorithm/Power_Ctrl.c:129:27
	ldr	r0, [sp, #12]
	.loc	2 129 86 is_stmt 0              @ ../User/Algorithm/Power_Ctrl.c:129:86
	vldr	s2, [r0, #8]
	.loc	2 129 27                        @ ../User/Algorithm/Power_Ctrl.c:129:27
	vldr	s4, [r0, #20]
	.loc	2 129 50                        @ ../User/Algorithm/Power_Ctrl.c:129:50
	vldr	s0, [r0, #24]
	.loc	2 129 48                        @ ../User/Algorithm/Power_Ctrl.c:129:48
	vsub.f32	s0, s0, s4
	.loc	2 129 72                        @ ../User/Algorithm/Power_Ctrl.c:129:72
	vmul.f32	s0, s0, s2
	.loc	2 129 23                        @ ../User/Algorithm/Power_Ctrl.c:129:23
	vstr	s0, [r0, #36]
	.loc	2 131 28 is_stmt 1              @ ../User/Algorithm/Power_Ctrl.c:131:28
	ldr	r1, [sp, #12]
	ldr	r0, [r1, #20]
	.loc	2 131 26 is_stmt 0              @ ../User/Algorithm/Power_Ctrl.c:131:26
	str	r0, [r1, #24]
	.loc	2 133 28 is_stmt 1              @ ../User/Algorithm/Power_Ctrl.c:133:28
	ldr	r0, [sp, #12]
	.loc	2 133 40 is_stmt 0              @ ../User/Algorithm/Power_Ctrl.c:133:40
	vldr	s0, [r0, #28]
	.loc	2 133 60                        @ ../User/Algorithm/Power_Ctrl.c:133:60
	vldr	s4, [r0, #32]
	.loc	2 133 80                        @ ../User/Algorithm/Power_Ctrl.c:133:80
	vldr	s2, [r0, #36]
	.loc	2 133 46                        @ ../User/Algorithm/Power_Ctrl.c:133:46
	vadd.f32	s0, s0, s4
	.loc	2 133 66                        @ ../User/Algorithm/Power_Ctrl.c:133:66
	vadd.f32	s0, s0, s2
	.loc	2 133 25                        @ ../User/Algorithm/Power_Ctrl.c:133:25
	vstr	s0, [r0, #40]
	.loc	2 135 42 is_stmt 1              @ ../User/Algorithm/Power_Ctrl.c:135:42
	ldr	r0, [sp, #12]
	.loc	2 135 54 is_stmt 0              @ ../User/Algorithm/Power_Ctrl.c:135:54
	vldr	s0, [r0, #16]
	.loc	2 135 91                        @ ../User/Algorithm/Power_Ctrl.c:135:91
	vldr	s2, [r0, #40]
	.loc	2 135 60                        @ ../User/Algorithm/Power_Ctrl.c:135:60
	vneg.f32	s1, s0
	.loc	2 135 27                        @ ../User/Algorithm/Power_Ctrl.c:135:27
	bl	SectionLimit_f
	.loc	2 135 5                         @ ../User/Algorithm/Power_Ctrl.c:135:5
	ldr	r0, [sp, #12]
	.loc	2 135 25                        @ ../User/Algorithm/Power_Ctrl.c:135:25
	vstr	s0, [r0, #40]
	.loc	2 136 1 is_stmt 1               @ ../User/Algorithm/Power_Ctrl.c:136:1
	add	sp, #16
	pop	{r7, pc}
.Ltmp44:
.Lfunc_end4:
	.size	PID_buffer, .Lfunc_end4-PID_buffer
	.cfi_endproc
	.cantunwind
	.fnend
                                        @ -- End function
	.section	.text.chassis_power_control,"ax",%progbits
	.hidden	chassis_power_control           @ -- Begin function chassis_power_control
	.globl	chassis_power_control
	.p2align	2
	.type	chassis_power_control,%function
	.code	16                              @ @chassis_power_control
	.thumb_func
chassis_power_control:
.Lfunc_begin5:
	.loc	2 150 0                         @ ../User/Algorithm/Power_Ctrl.c:150:0
	.fnstart
	.cfi_startproc
@ %bb.0:
	.save	{r7, lr}
	push	{r7, lr}
	.cfi_def_cfa_offset 8
	.cfi_offset lr, -4
	.cfi_offset r7, -8
	.pad	#72
	sub	sp, #72
	.cfi_def_cfa_offset 80
	add.w	r12, sp, #8
	str.w	r12, [sp]                       @ 4-byte Spill
	ldr.w	r12, [sp, #80]
	str	r0, [sp, #68]
	str	r1, [sp, #64]
	str	r2, [sp, #60]
	str	r3, [sp, #56]
	movs	r0, #15
.Ltmp45:
	.loc	2 152 19 prologue_end           @ ../User/Algorithm/Power_Ctrl.c:152:19
	strh.w	r0, [sp, #54]
	movs	r0, #200
	.loc	2 153 20                        @ ../User/Algorithm/Power_Ctrl.c:153:20
	strh.w	r0, [sp, #52]
	movs	r0, #170
	.loc	2 154 20                        @ ../User/Algorithm/Power_Ctrl.c:154:20
	strh.w	r0, [sp, #50]
	movs	r0, #80
	.loc	2 157 14                        @ ../User/Algorithm/Power_Ctrl.c:157:14
	strh.w	r0, [sp, #48]
	movs	r0, #0
	.loc	2 158 11                        @ ../User/Algorithm/Power_Ctrl.c:158:11
	str	r0, [sp, #44]
	.loc	2 159 11                        @ ../User/Algorithm/Power_Ctrl.c:159:11
	str	r0, [sp, #40]
	.loc	2 161 11                        @ ../User/Algorithm/Power_Ctrl.c:161:11
	str	r0, [sp, #20]
.Ltmp46:
	.loc	2 163 8                         @ ../User/Algorithm/Power_Ctrl.c:163:8
	ldr	r0, [sp, #64]
	.loc	2 163 31 is_stmt 0              @ ../User/Algorithm/Power_Ctrl.c:163:31
	ldrh	r0, [r0, #44]
.Ltmp47:
	.loc	2 163 8                         @ ../User/Algorithm/Power_Ctrl.c:163:8
	cbz	r0, .LBB5_2
	b	.LBB5_1
.LBB5_1:
.Ltmp48:
	.loc	2 165 27 is_stmt 1              @ ../User/Algorithm/Power_Ctrl.c:165:27
	ldr	r0, [sp, #64]
	.loc	2 165 50 is_stmt 0              @ ../User/Algorithm/Power_Ctrl.c:165:50
	ldrh	r0, [r0, #44]
	.loc	2 165 25                        @ ../User/Algorithm/Power_Ctrl.c:165:25
	strh.w	r0, [sp, #48]
	.loc	2 166 5 is_stmt 1               @ ../User/Algorithm/Power_Ctrl.c:166:5
	b	.LBB5_2
.Ltmp49:
.LBB5_2:
	.loc	2 168 34                        @ ../User/Algorithm/Power_Ctrl.c:168:34
	ldr	r0, [sp]                        @ 4-byte Reload
	ldr	r1, [sp, #64]
	.loc	2 168 60 is_stmt 0              @ ../User/Algorithm/Power_Ctrl.c:168:60
	ldrh.w	r1, [r1, #55]
	.loc	2 168 34                        @ ../User/Algorithm/Power_Ctrl.c:168:34
	vmov	s0, r1
	vcvt.f32.u32	s0, s0
	.loc	2 168 11                        @ ../User/Algorithm/Power_Ctrl.c:168:11
	vstr	s0, [r0, #8]
	.loc	2 173 26 is_stmt 1              @ ../User/Algorithm/Power_Ctrl.c:173:26
	ldrh.w	r1, [sp, #48]
	.loc	2 173 19 is_stmt 0              @ ../User/Algorithm/Power_Ctrl.c:173:19
	vmov	s0, r1
	vcvt.f32.u32	s0, s0
	.loc	2 173 44                        @ ../User/Algorithm/Power_Ctrl.c:173:44
	ldr	r1, [sp, #60]
	.loc	2 173 62                        @ ../User/Algorithm/Power_Ctrl.c:173:62
	vldr	s2, [r1, #40]
	.loc	2 173 42                        @ ../User/Algorithm/Power_Ctrl.c:173:42
	vsub.f32	s0, s0, s2
	.loc	2 173 17                        @ ../User/Algorithm/Power_Ctrl.c:173:17
	vstr	s0, [r0, #36]
.Ltmp50:
	.loc	2 175 8 is_stmt 1               @ ../User/Algorithm/Power_Ctrl.c:175:8
	ldr	r0, [sp, #56]
	.loc	2 175 17 is_stmt 0              @ ../User/Algorithm/Power_Ctrl.c:175:17
	vldr	s0, [r0, #4]
	vldr	s2, .LCPI5_0
.Ltmp51:
	.loc	2 175 8                         @ ../User/Algorithm/Power_Ctrl.c:175:8
	vcmp.f32	s0, s2
	vmrs	APSR_nzcv, fpscr
	ble	.LBB5_7
	b	.LBB5_3
.LBB5_3:
.Ltmp52:
	.loc	2 177 12 is_stmt 1              @ ../User/Algorithm/Power_Ctrl.c:177:12
	ldr	r0, [sp, #68]
	.loc	2 177 35 is_stmt 0              @ ../User/Algorithm/Power_Ctrl.c:177:35
	ldrb	r0, [r0, #28]
.Ltmp53:
	.loc	2 177 12                        @ ../User/Algorithm/Power_Ctrl.c:177:12
	cbnz	r0, .LBB5_5
	b	.LBB5_4
.LBB5_4:
.Ltmp54:
	.loc	2 180 33 is_stmt 1              @ ../User/Algorithm/Power_Ctrl.c:180:33
	ldr	r0, [sp]                        @ 4-byte Reload
	vldr	s0, [r0, #36]
	vmov.f32	s2, #1.500000e+01
	.loc	2 180 45 is_stmt 0              @ ../User/Algorithm/Power_Ctrl.c:180:45
	vadd.f32	s0, s0, s2
	.loc	2 180 31                        @ ../User/Algorithm/Power_Ctrl.c:180:31
	vstr	s0, [r0, #32]
	.loc	2 181 9 is_stmt 1               @ ../User/Algorithm/Power_Ctrl.c:181:9
	b	.LBB5_6
.Ltmp55:
.LBB5_5:
	.loc	2 184 33                        @ ../User/Algorithm/Power_Ctrl.c:184:33
	ldr	r0, [sp]                        @ 4-byte Reload
	vldr	s0, [r0, #36]
	vldr	s2, .LCPI5_1
	.loc	2 184 45 is_stmt 0              @ ../User/Algorithm/Power_Ctrl.c:184:45
	vadd.f32	s0, s0, s2
	.loc	2 184 31                        @ ../User/Algorithm/Power_Ctrl.c:184:31
	vstr	s0, [r0, #32]
	b	.LBB5_6
.Ltmp56:
.LBB5_6:
	.loc	2 186 5 is_stmt 1               @ ../User/Algorithm/Power_Ctrl.c:186:5
	b	.LBB5_8
.Ltmp57:
.LBB5_7:
	.loc	2 190 29                        @ ../User/Algorithm/Power_Ctrl.c:190:29
	ldr	r0, [sp, #44]
	.loc	2 190 27 is_stmt 0              @ ../User/Algorithm/Power_Ctrl.c:190:27
	str	r0, [sp, #40]
	b	.LBB5_8
.Ltmp58:
.LBB5_8:
	.loc	2 194 48 is_stmt 1              @ ../User/Algorithm/Power_Ctrl.c:194:48
	ldr	r0, [sp, #80]
	.loc	2 194 55 is_stmt 0              @ ../User/Algorithm/Power_Ctrl.c:194:55
	add.w	r0, r0, #2928
	.loc	2 194 75                        @ ../User/Algorithm/Power_Ctrl.c:194:75
	ldr	r1, [sp, #60]
	.loc	2 194 29                        @ ../User/Algorithm/Power_Ctrl.c:194:29
	bl	get_initial_power
	ldr	r0, [sp]                        @ 4-byte Reload
	.loc	2 194 27                        @ ../User/Algorithm/Power_Ctrl.c:194:27
	vstr	s0, [r0, #16]
	.loc	2 195 48 is_stmt 1              @ ../User/Algorithm/Power_Ctrl.c:195:48
	ldr	r0, [sp, #80]
	.loc	2 195 55 is_stmt 0              @ ../User/Algorithm/Power_Ctrl.c:195:55
	add.w	r0, r0, #3488
	.loc	2 195 75                        @ ../User/Algorithm/Power_Ctrl.c:195:75
	ldr	r1, [sp, #60]
	.loc	2 195 29                        @ ../User/Algorithm/Power_Ctrl.c:195:29
	bl	get_initial_power
	ldr	r0, [sp]                        @ 4-byte Reload
	.loc	2 195 27                        @ ../User/Algorithm/Power_Ctrl.c:195:27
	vstr	s0, [r0, #20]
	.loc	2 196 48 is_stmt 1              @ ../User/Algorithm/Power_Ctrl.c:196:48
	ldr	r0, [sp, #80]
	.loc	2 196 55 is_stmt 0              @ ../User/Algorithm/Power_Ctrl.c:196:55
	add.w	r0, r0, #4048
	.loc	2 196 75                        @ ../User/Algorithm/Power_Ctrl.c:196:75
	ldr	r1, [sp, #60]
	.loc	2 196 29                        @ ../User/Algorithm/Power_Ctrl.c:196:29
	bl	get_initial_power
	ldr	r0, [sp]                        @ 4-byte Reload
	.loc	2 196 27                        @ ../User/Algorithm/Power_Ctrl.c:196:27
	vstr	s0, [r0, #24]
	.loc	2 197 48 is_stmt 1              @ ../User/Algorithm/Power_Ctrl.c:197:48
	ldr	r0, [sp, #80]
	.loc	2 197 55 is_stmt 0              @ ../User/Algorithm/Power_Ctrl.c:197:55
	add.w	r0, r0, #4608
	.loc	2 197 75                        @ ../User/Algorithm/Power_Ctrl.c:197:75
	ldr	r1, [sp, #60]
	.loc	2 197 29                        @ ../User/Algorithm/Power_Ctrl.c:197:29
	bl	get_initial_power
	ldr	r0, [sp]                        @ 4-byte Reload
	.loc	2 197 27                        @ ../User/Algorithm/Power_Ctrl.c:197:27
	vstr	s0, [r0, #28]
	movs	r0, #0
.Ltmp59:
	.loc	2 199 17 is_stmt 1              @ ../User/Algorithm/Power_Ctrl.c:199:17
	strb.w	r0, [sp, #15]
	.loc	2 199 9 is_stmt 0               @ ../User/Algorithm/Power_Ctrl.c:199:9
	b	.LBB5_9
.LBB5_9:                                @ =>This Inner Loop Header: Depth=1
.Ltmp60:
	.loc	2 199 24                        @ ../User/Algorithm/Power_Ctrl.c:199:24
	ldrb.w	r0, [sp, #15]
.Ltmp61:
	.loc	2 199 5                         @ ../User/Algorithm/Power_Ctrl.c:199:5
	cmp	r0, #3
	bgt	.LBB5_14
	b	.LBB5_10
.LBB5_10:                               @   in Loop: Header=BB5_9 Depth=1
.Ltmp62:
	.loc	2 201 32 is_stmt 1              @ ../User/Algorithm/Power_Ctrl.c:201:32
	ldrb.w	r1, [sp, #15]
	add	r0, sp, #24
	.loc	2 201 13 is_stmt 0              @ ../User/Algorithm/Power_Ctrl.c:201:13
	add.w	r0, r0, r1, lsl #2
	vldr	s0, [r0]
.Ltmp63:
	.loc	2 201 13                        @ ../User/Algorithm/Power_Ctrl.c:201:13
	vcmp.f32	s0, #0
	vmrs	APSR_nzcv, fpscr
	bge	.LBB5_12
	b	.LBB5_11
.LBB5_11:                               @   in Loop: Header=BB5_9 Depth=1
.Ltmp64:
	.loc	2 202 13 is_stmt 1              @ ../User/Algorithm/Power_Ctrl.c:202:13
	b	.LBB5_13
.Ltmp65:
.LBB5_12:                               @   in Loop: Header=BB5_9 Depth=1
	.loc	2 203 51                        @ ../User/Algorithm/Power_Ctrl.c:203:51
	ldr	r0, [sp]                        @ 4-byte Reload
	ldrb.w	r2, [sp, #15]
	add	r1, sp, #24
	.loc	2 203 32 is_stmt 0              @ ../User/Algorithm/Power_Ctrl.c:203:32
	add.w	r1, r1, r2, lsl #2
	vldr	s2, [r1]
	.loc	2 203 29                        @ ../User/Algorithm/Power_Ctrl.c:203:29
	vldr	s0, [r0, #12]
	vadd.f32	s0, s0, s2
	vstr	s0, [r0, #12]
	.loc	2 204 5 is_stmt 1               @ ../User/Algorithm/Power_Ctrl.c:204:5
	b	.LBB5_13
.Ltmp66:
.LBB5_13:                               @   in Loop: Header=BB5_9 Depth=1
	.loc	2 199 32                        @ ../User/Algorithm/Power_Ctrl.c:199:32
	ldrb.w	r0, [sp, #15]
	adds	r0, #1
	strb.w	r0, [sp, #15]
	.loc	2 199 5 is_stmt 0               @ ../User/Algorithm/Power_Ctrl.c:199:5
	b	.LBB5_9
.Ltmp67:
.LBB5_14:
	.loc	2 206 9 is_stmt 1               @ ../User/Algorithm/Power_Ctrl.c:206:9
	ldr	r0, [sp]                        @ 4-byte Reload
	vldr	s0, [r0, #12]
	.loc	2 206 31 is_stmt 0              @ ../User/Algorithm/Power_Ctrl.c:206:31
	vldr	s2, [r0, #32]
.Ltmp68:
	.loc	2 206 9                         @ ../User/Algorithm/Power_Ctrl.c:206:9
	vcmp.f32	s0, s2
	vmrs	APSR_nzcv, fpscr
	ble	.LBB5_20
	b	.LBB5_15
.LBB5_15:
.Ltmp69:
	.loc	2 208 29 is_stmt 1              @ ../User/Algorithm/Power_Ctrl.c:208:29
	ldr	r0, [sp]                        @ 4-byte Reload
	vldr	s0, [r0, #32]
	.loc	2 208 49 is_stmt 0              @ ../User/Algorithm/Power_Ctrl.c:208:49
	vldr	s2, [r0, #12]
	.loc	2 208 47                        @ ../User/Algorithm/Power_Ctrl.c:208:47
	vdiv.f32	s0, s0, s2
	.loc	2 208 15                        @ ../User/Algorithm/Power_Ctrl.c:208:15
	vstr	s0, [r0]
	movs	r0, #0
.Ltmp70:
	.loc	2 210 21 is_stmt 1              @ ../User/Algorithm/Power_Ctrl.c:210:21
	strb.w	r0, [sp, #7]
	.loc	2 210 13 is_stmt 0              @ ../User/Algorithm/Power_Ctrl.c:210:13
	b	.LBB5_16
.LBB5_16:                               @ =>This Inner Loop Header: Depth=1
.Ltmp71:
	.loc	2 210 28                        @ ../User/Algorithm/Power_Ctrl.c:210:28
	ldrb.w	r0, [sp, #7]
.Ltmp72:
	.loc	2 210 9                         @ ../User/Algorithm/Power_Ctrl.c:210:9
	cmp	r0, #3
	bgt	.LBB5_19
	b	.LBB5_17
.LBB5_17:                               @   in Loop: Header=BB5_16 Depth=1
.Ltmp73:
	.loc	2 212 62 is_stmt 1              @ ../User/Algorithm/Power_Ctrl.c:212:62
	ldr	r0, [sp]                        @ 4-byte Reload
	ldrb.w	r1, [sp, #7]
	add	r2, sp, #24
	.loc	2 212 43 is_stmt 0              @ ../User/Algorithm/Power_Ctrl.c:212:43
	add.w	r2, r2, r1, lsl #2
	vldr	s0, [r2]
	.loc	2 212 67                        @ ../User/Algorithm/Power_Ctrl.c:212:67
	vldr	s2, [r0]
	.loc	2 212 65                        @ ../User/Algorithm/Power_Ctrl.c:212:65
	vmul.f32	s0, s0, s2
	.loc	2 212 13                        @ ../User/Algorithm/Power_Ctrl.c:212:13
	ldr	r0, [sp, #60]
	.loc	2 212 20                        @ ../User/Algorithm/Power_Ctrl.c:212:20
	add.w	r0, r0, r1, lsl #2
	.loc	2 212 41                        @ ../User/Algorithm/Power_Ctrl.c:212:41
	vstr	s0, [r0, #44]
	.loc	2 213 9 is_stmt 1               @ ../User/Algorithm/Power_Ctrl.c:213:9
	b	.LBB5_18
.Ltmp74:
.LBB5_18:                               @   in Loop: Header=BB5_16 Depth=1
	.loc	2 210 36                        @ ../User/Algorithm/Power_Ctrl.c:210:36
	ldrb.w	r0, [sp, #7]
	adds	r0, #1
	strb.w	r0, [sp, #7]
	.loc	2 210 9 is_stmt 0               @ ../User/Algorithm/Power_Ctrl.c:210:9
	b	.LBB5_16
.Ltmp75:
.LBB5_19:
	.loc	2 216 30 is_stmt 1              @ ../User/Algorithm/Power_Ctrl.c:216:30
	ldr	r0, [sp, #80]
	.loc	2 216 37 is_stmt 0              @ ../User/Algorithm/Power_Ctrl.c:216:37
	add.w	r0, r0, #2928
	.loc	2 216 60                        @ ../User/Algorithm/Power_Ctrl.c:216:60
	ldr	r2, [sp, #60]
	movs	r1, #1
	.loc	2 216 9                         @ ../User/Algorithm/Power_Ctrl.c:216:9
	bl	chassis_power_limit
	.loc	2 217 30 is_stmt 1              @ ../User/Algorithm/Power_Ctrl.c:217:30
	ldr	r0, [sp, #80]
	.loc	2 217 37 is_stmt 0              @ ../User/Algorithm/Power_Ctrl.c:217:37
	add.w	r0, r0, #3488
	.loc	2 217 60                        @ ../User/Algorithm/Power_Ctrl.c:217:60
	ldr	r2, [sp, #60]
	movs	r1, #2
	.loc	2 217 9                         @ ../User/Algorithm/Power_Ctrl.c:217:9
	bl	chassis_power_limit
	.loc	2 218 30 is_stmt 1              @ ../User/Algorithm/Power_Ctrl.c:218:30
	ldr	r0, [sp, #80]
	.loc	2 218 37 is_stmt 0              @ ../User/Algorithm/Power_Ctrl.c:218:37
	add.w	r0, r0, #4048
	.loc	2 218 60                        @ ../User/Algorithm/Power_Ctrl.c:218:60
	ldr	r2, [sp, #60]
	movs	r1, #3
	.loc	2 218 9                         @ ../User/Algorithm/Power_Ctrl.c:218:9
	bl	chassis_power_limit
	.loc	2 219 30 is_stmt 1              @ ../User/Algorithm/Power_Ctrl.c:219:30
	ldr	r0, [sp, #80]
	.loc	2 219 37 is_stmt 0              @ ../User/Algorithm/Power_Ctrl.c:219:37
	add.w	r0, r0, #4608
	.loc	2 219 60                        @ ../User/Algorithm/Power_Ctrl.c:219:60
	ldr	r2, [sp, #60]
	movs	r1, #4
	.loc	2 219 9                         @ ../User/Algorithm/Power_Ctrl.c:219:9
	bl	chassis_power_limit
	.loc	2 220 5 is_stmt 1               @ ../User/Algorithm/Power_Ctrl.c:220:5
	b	.LBB5_20
.Ltmp76:
.LBB5_20:
	.loc	2 0 5 is_stmt 0                 @ ../User/Algorithm/Power_Ctrl.c:0:5
	movs	r0, #1
	.loc	2 221 5 is_stmt 1               @ ../User/Algorithm/Power_Ctrl.c:221:5
	add	sp, #72
	pop	{r7, pc}
.Ltmp77:
	.p2align	2
@ %bb.21:
	.loc	2 0 5 is_stmt 0                 @ ../User/Algorithm/Power_Ctrl.c:0:5
.LCPI5_0:
	.long	0x432a0000                      @ float 170
.LCPI5_1:
	.long	0x43480000                      @ float 200
.Lfunc_end5:
	.size	chassis_power_control, .Lfunc_end5-chassis_power_control
	.cfi_endproc
	.cantunwind
	.fnend
                                        @ -- End function
	.section	.text.heat_control_task,"ax",%progbits
	.hidden	heat_control_task               @ -- Begin function heat_control_task
	.globl	heat_control_task
	.p2align	2
	.type	heat_control_task,%function
	.code	16                              @ @heat_control_task
	.thumb_func
heat_control_task:
.Lfunc_begin6:
	.loc	2 224 0 is_stmt 1               @ ../User/Algorithm/Power_Ctrl.c:224:0
	.fnstart
	.cfi_startproc
@ %bb.0:
	.pad	#8
	sub	sp, #8
	.cfi_def_cfa_offset 8
                                        @ kill: def $r2 killed $r1
	str	r0, [sp, #4]
	strb.w	r1, [sp, #3]
.Ltmp78:
	.loc	2 225 32 prologue_end           @ ../User/Algorithm/Power_Ctrl.c:225:32
	ldrb.w	r0, [sp, #3]
	.loc	2 225 38 is_stmt 0              @ ../User/Algorithm/Power_Ctrl.c:225:38
	add.w	r1, r0, r0, lsl #2
	movs	r0, #90
	.loc	2 225 30                        @ ../User/Algorithm/Power_Ctrl.c:225:30
	add.w	r0, r0, r1, lsl #1
	.loc	2 225 2                         @ ../User/Algorithm/Power_Ctrl.c:225:2
	ldr	r1, [sp, #4]
	.loc	2 225 25                        @ ../User/Algorithm/Power_Ctrl.c:225:25
	strh	r0, [r1, #2]
	.loc	2 226 35 is_stmt 1              @ ../User/Algorithm/Power_Ctrl.c:226:35
	ldrb.w	r0, [sp, #3]
	.loc	2 226 41 is_stmt 0              @ ../User/Algorithm/Power_Ctrl.c:226:41
	add.w	r1, r0, r0, lsl #2
	movs	r0, #10
	.loc	2 226 33                        @ ../User/Algorithm/Power_Ctrl.c:226:33
	add.w	r0, r0, r1, lsl #1
	.loc	2 226 2                         @ ../User/Algorithm/Power_Ctrl.c:226:2
	ldr	r1, [sp, #4]
	.loc	2 226 28                        @ ../User/Algorithm/Power_Ctrl.c:226:28
	strh	r0, [r1, #4]
.Ltmp79:
	.loc	2 227 5 is_stmt 1               @ ../User/Algorithm/Power_Ctrl.c:227:5
	ldr	r0, [sp, #4]
	.loc	2 227 11 is_stmt 0              @ ../User/Algorithm/Power_Ctrl.c:227:11
	ldrh	r0, [r0, #10]
.Ltmp80:
	.loc	2 227 5                         @ ../User/Algorithm/Power_Ctrl.c:227:5
	cmp	r0, #1
	blt	.LBB6_4
	b	.LBB6_1
.LBB6_1:
.Ltmp81:
	.loc	2 228 4 is_stmt 1               @ ../User/Algorithm/Power_Ctrl.c:228:4
	ldr	r1, [sp, #4]
	.loc	2 228 16 is_stmt 0              @ ../User/Algorithm/Power_Ctrl.c:228:16
	ldrh	r0, [r1, #6]
	adds	r0, #1
	strh	r0, [r1, #6]
.Ltmp82:
	.loc	2 229 7 is_stmt 1               @ ../User/Algorithm/Power_Ctrl.c:229:7
	ldr	r0, [sp, #4]
	.loc	2 229 13 is_stmt 0              @ ../User/Algorithm/Power_Ctrl.c:229:13
	ldrh	r0, [r0, #6]
.Ltmp83:
	.loc	2 229 7                         @ ../User/Algorithm/Power_Ctrl.c:229:7
	cmp.w	r0, #1000
	blt	.LBB6_3
	b	.LBB6_2
.LBB6_2:
.Ltmp84:
	.loc	2 230 8 is_stmt 1               @ ../User/Algorithm/Power_Ctrl.c:230:8
	ldr	r1, [sp, #4]
	movs	r0, #0
	.loc	2 230 20 is_stmt 0              @ ../User/Algorithm/Power_Ctrl.c:230:20
	strh	r0, [r1, #6]
	.loc	2 230 39                        @ ../User/Algorithm/Power_Ctrl.c:230:39
	ldr	r1, [sp, #4]
	ldrh	r2, [r1, #4]
	.loc	2 230 37                        @ ../User/Algorithm/Power_Ctrl.c:230:37
	ldrh	r0, [r1, #10]
	subs	r0, r0, r2
	strh	r0, [r1, #10]
	.loc	2 230 65                        @ ../User/Algorithm/Power_Ctrl.c:230:65
	b	.LBB6_3
.Ltmp85:
.LBB6_3:
	.loc	2 231 5 is_stmt 1               @ ../User/Algorithm/Power_Ctrl.c:231:5
	b	.LBB6_4
.Ltmp86:
.LBB6_4:
	.loc	2 232 8                         @ ../User/Algorithm/Power_Ctrl.c:232:8
	ldr	r0, [sp, #4]
	.loc	2 232 14 is_stmt 0              @ ../User/Algorithm/Power_Ctrl.c:232:14
	ldrh	r0, [r0, #10]
.Ltmp87:
	.loc	2 232 8                         @ ../User/Algorithm/Power_Ctrl.c:232:8
	cmp	r0, #0
	bgt	.LBB6_6
	b	.LBB6_5
.LBB6_5:
.Ltmp88:
	.loc	2 232 27                        @ ../User/Algorithm/Power_Ctrl.c:232:27
	ldr	r1, [sp, #4]
	movs	r0, #0
	.loc	2 232 41                        @ ../User/Algorithm/Power_Ctrl.c:232:41
	strh	r0, [r1, #10]
	.loc	2 232 44                        @ ../User/Algorithm/Power_Ctrl.c:232:44
	b	.LBB6_6
.Ltmp89:
.LBB6_6:
	.loc	2 233 3 is_stmt 1               @ ../User/Algorithm/Power_Ctrl.c:233:3
	b	.LBB6_7
.LBB6_7:                                @ =>This Inner Loop Header: Depth=1
	.loc	2 233 10 is_stmt 0              @ ../User/Algorithm/Power_Ctrl.c:233:10
	ldr	r0, [sp, #4]
	.loc	2 233 16                        @ ../User/Algorithm/Power_Ctrl.c:233:16
	ldrh	r0, [r0, #8]
	.loc	2 233 3                         @ ../User/Algorithm/Power_Ctrl.c:233:3
	cbz	r0, .LBB6_9
	b	.LBB6_8
.LBB6_8:                                @   in Loop: Header=BB6_7 Depth=1
.Ltmp90:
	.loc	2 235 9 is_stmt 1               @ ../User/Algorithm/Power_Ctrl.c:235:9
	ldr	r1, [sp, #4]
	.loc	2 235 23 is_stmt 0              @ ../User/Algorithm/Power_Ctrl.c:235:23
	ldrh	r0, [r1, #10]
	adds	r0, #10
	strh	r0, [r1, #10]
	.loc	2 236 9 is_stmt 1               @ ../User/Algorithm/Power_Ctrl.c:236:9
	ldr	r1, [sp, #4]
	.loc	2 236 26 is_stmt 0              @ ../User/Algorithm/Power_Ctrl.c:236:26
	ldrh	r0, [r1, #8]
	subs	r0, #1
	strh	r0, [r1, #8]
.Ltmp91:
	.loc	2 233 3 is_stmt 1               @ ../User/Algorithm/Power_Ctrl.c:233:3
	b	.LBB6_7
.LBB6_9:
	.loc	2 238 22                        @ ../User/Algorithm/Power_Ctrl.c:238:22
	ldr	r1, [sp, #4]
	ldrh	r0, [r1, #2]
	.loc	2 238 45 is_stmt 0              @ ../User/Algorithm/Power_Ctrl.c:238:45
	ldrh	r2, [r1, #10]
	.loc	2 238 44                        @ ../User/Algorithm/Power_Ctrl.c:238:44
	subs	r0, r0, r2
	.loc	2 238 21                        @ ../User/Algorithm/Power_Ctrl.c:238:21
	strh	r0, [r1]
	.loc	2 239 1 is_stmt 1               @ ../User/Algorithm/Power_Ctrl.c:239:1
	add	sp, #8
	bx	lr
.Ltmp92:
.Lfunc_end6:
	.size	heat_control_task, .Lfunc_end6-heat_control_task
	.cfi_endproc
	.cantunwind
	.fnend
                                        @ -- End function
	.section	.text.CAN_POWER_Rx,"ax",%progbits
	.hidden	CAN_POWER_Rx                    @ -- Begin function CAN_POWER_Rx
	.globl	CAN_POWER_Rx
	.p2align	2
	.type	CAN_POWER_Rx,%function
	.code	16                              @ @CAN_POWER_Rx
	.thumb_func
CAN_POWER_Rx:
.Lfunc_begin7:
	.loc	2 241 0                         @ ../User/Algorithm/Power_Ctrl.c:241:0
	.fnstart
	.cfi_startproc
@ %bb.0:
	.pad	#16
	sub	sp, #16
	.cfi_def_cfa_offset 16
	str	r0, [sp, #12]
	str	r1, [sp, #8]
.Ltmp93:
	.loc	2 242 44 prologue_end           @ ../User/Algorithm/Power_Ctrl.c:242:44
	ldr	r0, [sp, #8]
	.loc	2 242 35 is_stmt 0              @ ../User/Algorithm/Power_Ctrl.c:242:35
	ldrb	r1, [r0]
	.loc	2 242 62                        @ ../User/Algorithm/Power_Ctrl.c:242:62
	ldrb	r0, [r0, #1]
	.loc	2 242 60                        @ ../User/Algorithm/Power_Ctrl.c:242:60
	orr.w	r0, r0, r1, lsl #8
	.loc	2 242 13                        @ ../User/Algorithm/Power_Ctrl.c:242:13
	strh.w	r0, [sp, #6]
	.loc	2 243 42 is_stmt 1              @ ../User/Algorithm/Power_Ctrl.c:243:42
	ldr	r0, [sp, #8]
	.loc	2 243 33 is_stmt 0              @ ../User/Algorithm/Power_Ctrl.c:243:33
	ldrb	r1, [r0, #2]
	.loc	2 243 60                        @ ../User/Algorithm/Power_Ctrl.c:243:60
	ldrb	r0, [r0, #3]
	.loc	2 243 58                        @ ../User/Algorithm/Power_Ctrl.c:243:58
	orr.w	r0, r0, r1, lsl #8
	.loc	2 243 13                        @ ../User/Algorithm/Power_Ctrl.c:243:13
	strh.w	r0, [sp, #4]
	.loc	2 244 43 is_stmt 1              @ ../User/Algorithm/Power_Ctrl.c:244:43
	ldr	r0, [sp, #8]
	.loc	2 244 34 is_stmt 0              @ ../User/Algorithm/Power_Ctrl.c:244:34
	ldrb	r1, [r0, #4]
	.loc	2 244 61                        @ ../User/Algorithm/Power_Ctrl.c:244:61
	ldrb	r0, [r0, #5]
	.loc	2 244 59                        @ ../User/Algorithm/Power_Ctrl.c:244:59
	orr.w	r0, r0, r1, lsl #8
	.loc	2 244 13                        @ ../User/Algorithm/Power_Ctrl.c:244:13
	strh.w	r0, [sp, #2]
	.loc	2 245 42 is_stmt 1              @ ../User/Algorithm/Power_Ctrl.c:245:42
	ldr	r0, [sp, #8]
	.loc	2 245 33 is_stmt 0              @ ../User/Algorithm/Power_Ctrl.c:245:33
	ldrb	r1, [r0, #6]
	.loc	2 245 60                        @ ../User/Algorithm/Power_Ctrl.c:245:60
	ldrb	r0, [r0, #7]
	.loc	2 245 58                        @ ../User/Algorithm/Power_Ctrl.c:245:58
	orr.w	r0, r0, r1, lsl #8
	.loc	2 245 13                        @ ../User/Algorithm/Power_Ctrl.c:245:13
	strh.w	r0, [sp]
	.loc	2 247 32 is_stmt 1              @ ../User/Algorithm/Power_Ctrl.c:247:32
	ldrsh.w	r0, [sp, #6]
	.loc	2 247 25 is_stmt 0              @ ../User/Algorithm/Power_Ctrl.c:247:25
	vmov	s0, r0
	vcvt.f32.s32	s0, s0
	vldr	s2, .LCPI7_0
	.loc	2 247 42                        @ ../User/Algorithm/Power_Ctrl.c:247:42
	vdiv.f32	s0, s0, s2
	.loc	2 247 5                         @ ../User/Algorithm/Power_Ctrl.c:247:5
	ldr	r0, [sp, #12]
	.loc	2 247 23                        @ ../User/Algorithm/Power_Ctrl.c:247:23
	vstr	s0, [r0]
	.loc	2 248 30 is_stmt 1              @ ../User/Algorithm/Power_Ctrl.c:248:30
	ldrsh.w	r0, [sp, #4]
	.loc	2 248 23 is_stmt 0              @ ../User/Algorithm/Power_Ctrl.c:248:23
	vmov	s0, r0
	vcvt.f32.s32	s0, s0
	.loc	2 248 38                        @ ../User/Algorithm/Power_Ctrl.c:248:38
	vdiv.f32	s0, s0, s2
	.loc	2 248 5                         @ ../User/Algorithm/Power_Ctrl.c:248:5
	ldr	r0, [sp, #12]
	.loc	2 248 21                        @ ../User/Algorithm/Power_Ctrl.c:248:21
	vstr	s0, [r0, #4]
	.loc	2 249 29 is_stmt 1              @ ../User/Algorithm/Power_Ctrl.c:249:29
	ldrsh.w	r0, [sp, #2]
	.loc	2 249 22 is_stmt 0              @ ../User/Algorithm/Power_Ctrl.c:249:22
	vmov	s0, r0
	vcvt.f32.s32	s0, s0
	.loc	2 249 38                        @ ../User/Algorithm/Power_Ctrl.c:249:38
	vdiv.f32	s0, s0, s2
	.loc	2 249 5                         @ ../User/Algorithm/Power_Ctrl.c:249:5
	ldr	r0, [sp, #12]
	.loc	2 249 20                        @ ../User/Algorithm/Power_Ctrl.c:249:20
	vstr	s0, [r0, #8]
	.loc	2 251 20 is_stmt 1              @ ../User/Algorithm/Power_Ctrl.c:251:20
	ldr	r0, [sp, #12]
	.loc	2 251 27 is_stmt 0              @ ../User/Algorithm/Power_Ctrl.c:251:27
	vldr	s0, [r0, #4]
	.loc	2 251 45                        @ ../User/Algorithm/Power_Ctrl.c:251:45
	vldr	s2, [r0, #8]
	.loc	2 251 36                        @ ../User/Algorithm/Power_Ctrl.c:251:36
	vmul.f32	s0, s0, s2
	.loc	2 251 18                        @ ../User/Algorithm/Power_Ctrl.c:251:18
	vstr	s0, [r0, #12]
	.loc	2 252 1 is_stmt 1               @ ../User/Algorithm/Power_Ctrl.c:252:1
	add	sp, #16
	bx	lr
.Ltmp94:
	.p2align	2
@ %bb.1:
	.loc	2 0 1 is_stmt 0                 @ ../User/Algorithm/Power_Ctrl.c:0:1
.LCPI7_0:
	.long	0x447a0000                      @ float 1000
.Lfunc_end7:
	.size	CAN_POWER_Rx, .Lfunc_end7-CAN_POWER_Rx
	.cfi_endproc
	.cantunwind
	.fnend
                                        @ -- End function
	.hidden	All_Power                       @ @All_Power
	.type	All_Power,%object
	.section	.bss.All_Power,"aw",%nobits
	.globl	All_Power
	.p2align	2
All_Power:
	.zero	80
	.size	All_Power, 80

	.file	5 "D:\\horizon\\Horizon_Infantry (2)\\MDK-ARM" "../User/Bsp/inc\\DJI_Motor.h"
	.file	6 "D:\\horizon\\Horizon_Infantry (2)\\MDK-ARM" "../User/Algorithm/inc/user_lib.h"
	.file	7 "D:\\horizon\\Horizon_Infantry (2)\\MDK-ARM" "../User/Start/Inc\\Motors.h"
	.file	8 "D:\\horizon\\Horizon_Infantry (2)\\MDK-ARM" "../User/Bsp/inc\\Referee.h"
	.file	9 "D:\\horizon\\Horizon_Infantry (2)\\MDK-ARM" "../User/Bsp/inc\\Power_CAP.h"
	.file	10 "D:\\horizon\\Horizon_Infantry (2)\\MDK-ARM" "../User/Bsp/inc\\DM_Motor.h"
	.section	".note.GNU-stack","",%progbits
	.eabi_attribute	30, 6	@ Tag_ABI_optimization_goals
	.ARM_attribute	16, 1	@ Tag_AV_eba