	.text
	.syntax unified
	.eabi_attribute	67, "2.09"	@ Tag_conformance
	.cpu	cortex-m4
	.eabi_attribute	6, 13	@ Tag_CPU_arch
	.eabi_attribute	7, 77	@ Tag_CPU_arch_profile
	.eabi_attribute	8, 0	@ Tag_ARM_ISA_use
	.eabi_attribute	9, 2	@ Tag_THUMB_ISA_use
	.fpu	fpv4-sp-d16
	.eabi_attribute	27, 1	@ Tag_ABI_HardFP_use
	.eabi_attribute	36, 1	@ Tag_FP_HP_extension
	.eabi_attribute	34, 1	@ Tag_CPU_unaligned_access
	.eabi_attribute	17, 1	@ Tag_ABI_PCS_GOT_use
	.eabi_attribute	20, 2	@ Tag_ABI_FP_denormal
	.eabi_attribute	21, 0	@ Tag_ABI_FP_exceptions
	.eabi_attribute	23, 3	@ Tag_ABI_FP_number_model
	.eabi_attribute	24, 1	@ Tag_ABI_align_needed
	.eabi_attribute	25, 1	@ Tag_ABI_align_preserved
	.eabi_attribute	28, 1	@ Tag_ABI_VFP_args
	.eabi_attribute	38, 1	@ Tag_ABI_FP_16bit_format
	.eabi_attribute	18, 2	@ Tag_ABI_PCS_wchar_t
	.eabi_attribute	26, 1	@ Tag_ABI_enum_size
	.eabi_attribute	14, 0	@ Tag_ABI_PCS_R9_use
	.file	"Power_CAP.c"
	.file	1 "D:\\horizon\\Horizon_Infantry (2)\\MDK-ARM" "../Drivers/CMSIS/Device/ST/STM32F4xx/Include\\stm32f4xx.h"
	.file	2 "D:\\horizon\\Horizon_Infantry (2)\\MDK-ARM" "../Drivers/STM32F4xx_HAL_Driver/Inc\\stm32f4xx_hal_can.h"
	.file	3 "D:\\" "kevil\\ARM\\ARMCLANG\\Bin\\..\\include\\stdint.h"
	.section	.text.Power_CAP_CAN_RX,"ax",%progbits
	.hidden	Power_CAP_CAN_RX                @ -- Begin function Power_CAP_CAN_RX
	.globl	Power_CAP_CAN_RX
	.p2align	2
	.type	Power_CAP_CAN_RX,%function
	.code	16                              @ @Power_CAP_CAN_RX
	.thumb_func
Power_CAP_CAN_RX:
.Lfunc_begin0:
	.file	4 "D:\\horizon\\Horizon_Infantry (2)\\MDK-ARM" "../User/Bsp/Power_CAP.c"
	.loc	4 11 0                          @ ../User/Bsp/Power_CAP.c:11:0
	.fnstart
	.cfi_sections .debug_frame
	.cfi_startproc
@ %bb.0:
	.pad	#8
	sub	sp, #8
	.cfi_def_cfa_offset 8
	str	r0, [sp, #4]
	str	r1, [sp]
.Ltmp0:
	.loc	4 12 40 prologue_end            @ ../User/Bsp/Power_CAP.c:12:40
	ldr	r0, [sp]
	.loc	4 12 55 is_stmt 0               @ ../User/Bsp/Power_CAP.c:12:55
	ldrh	r0, [r0]
	lsls	r0, r0, #16
	rev	r0, r0
	.loc	4 12 30                         @ ../User/Bsp/Power_CAP.c:12:30
	vmov	s0, r0
	vcvt.f32.s32	s0, s0
	.loc	4 12 5                          @ ../User/Bsp/Power_CAP.c:12:5
	ldr	r0, [sp, #4]
	.loc	4 12 28                         @ ../User/Bsp/Power_CAP.c:12:28
	vstr	s0, [r0, #12]
	.loc	4 14 41 is_stmt 1               @ ../User/Bsp/Power_CAP.c:14:41
	ldr	r0, [sp]
	.loc	4 14 56 is_stmt 0               @ ../User/Bsp/Power_CAP.c:14:56
	ldrh	r0, [r0, #2]
	lsls	r0, r0, #16
	rev	r0, r0
	.loc	4 14 31                         @ ../User/Bsp/Power_CAP.c:14:31
	vmov	s0, r0
	vcvt.f32.s32	s0, s0
	.loc	4 14 5                          @ ../User/Bsp/Power_CAP.c:14:5
	ldr	r0, [sp, #4]
	.loc	4 14 29                         @ ../User/Bsp/Power_CAP.c:14:29
	vstr	s0, [r0, #16]
	.loc	4 16 5 is_stmt 1                @ ../User/Bsp/Power_CAP.c:16:5
	ldr	r0, [sp, #4]
	.loc	4 16 29 is_stmt 0               @ ../User/Bsp/Power_CAP.c:16:29
	vldr	s0, [r0, #16]
	vldr	s2, .LCPI0_0
	vmul.f32	s0, s0, s2
	vstr	s0, [r0, #16]
	.loc	4 18 5 is_stmt 1                @ ../User/Bsp/Power_CAP.c:18:5
	ldr	r1, [sp, #4]
	movs	r0, #15
	.loc	4 18 37 is_stmt 0               @ ../User/Bsp/Power_CAP.c:18:37
	strb	r0, [r1, #22]
	.loc	4 19 1 is_stmt 1                @ ../User/Bsp/Power_CAP.c:19:1
	add	sp, #8
	bx	lr
.Ltmp1:
	.p2align	2
@ %bb.1:
	.loc	4 0 1 is_stmt 0                 @ ../User/Bsp/Power_CAP.c:0:1
.LCPI0_0:
	.long	0x3c23d70a                      @ float 0.00999999977
.Lfunc_end0:
	.size	Power_CAP_CAN_RX, .Lfunc_end0-Power_CAP_CAN_RX
	.cfi_endproc
	.cantunwind
	.fnend
                                        @ -- End function
	.section	.text.Power_CAP_CAN_TX,"ax",%progbits
	.hidden	Power_CAP_CAN_TX                @ -- Begin function Power_CAP_CAN_TX
	.globl	Power_CAP_CAN_TX
	.p2align	2
	.type	Power_CAP_CAN_TX,%function
	.code	16                              @ @Power_CAP_CAN_TX
	.thumb_func
Power_CAP_CAN_TX:
.Lfunc_begin1:
	.loc	4 22 0 is_stmt 1                @ ../User/Bsp/Power_CAP.c:22:0
	.fnstart
	.cfi_startproc
@ %bb.0:
	.save	{r7, lr}
	push	{r7, lr}
	.cfi_def_cfa_offset 8
	.cfi_offset lr, -4
	.cfi_offset r7, -8
	.pad	#16
	sub	sp, #16
	.cfi_def_cfa_offset 24
                                        @ kill: def $r12 killed $r1
	str	r0, [sp, #12]
	strh.w	r1, [sp, #10]
	str	r2, [sp, #4]
	str	r3, [sp]
.Ltmp2:
	.loc	4 23 43 prologue_end            @ ../User/Bsp/Power_CAP.c:23:43
	ldr	r0, [sp]
	.loc	4 23 67 is_stmt 0               @ ../User/Bsp/Power_CAP.c:23:67
	ldrb.w	r0, [r0, #44]
	.loc	4 23 5                          @ ../User/Bsp/Power_CAP.c:23:5
	ldr	r1, [sp, #4]
	.loc	4 23 32                         @ ../User/Bsp/Power_CAP.c:23:32
	strb	r0, [r1, #1]
	.loc	4 24 44 is_stmt 1               @ ../User/Bsp/Power_CAP.c:24:44
	ldr	r0, [sp]
	.loc	4 24 71 is_stmt 0               @ ../User/Bsp/Power_CAP.c:24:71
	ldrb.w	r0, [r0, #55]
	.loc	4 24 5                          @ ../User/Bsp/Power_CAP.c:24:5
	ldr	r1, [sp, #4]
	.loc	4 24 33                         @ ../User/Bsp/Power_CAP.c:24:33
	strb	r0, [r1]
	.loc	4 26 38 is_stmt 1               @ ../User/Bsp/Power_CAP.c:26:38
	bl	get_battery_voltage
	.loc	4 26 29 is_stmt 0               @ ../User/Bsp/Power_CAP.c:26:29
	vcvt.s32.f32	s0, s0
	vmov	r0, s0
	.loc	4 26 5                          @ ../User/Bsp/Power_CAP.c:26:5
	ldr	r1, [sp, #4]
	.loc	4 26 27                         @ ../User/Bsp/Power_CAP.c:26:27
	strb	r0, [r1, #2]
	.loc	4 28 20 is_stmt 1               @ ../User/Bsp/Power_CAP.c:28:20
	ldr	r0, [sp, #12]
	.loc	4 28 26 is_stmt 0               @ ../User/Bsp/Power_CAP.c:28:26
	ldrh.w	r1, [sp, #10]
	.loc	4 28 34                         @ ../User/Bsp/Power_CAP.c:28:34
	ldr	r2, [sp, #4]
	.loc	4 28 5                          @ ../User/Bsp/Power_CAP.c:28:5
	bl	canx_send_data
	.loc	4 29 1 is_stmt 1                @ ../User/Bsp/Power_CAP.c:29:1
	add	sp, #16
	pop	{r7, pc}
.Ltmp3:
.Lfunc_end1:
	.size	Power_CAP_CAN_TX, .Lfunc_end1-Power_CAP_CAN_TX
	.cfi_endproc
	.cantunwind
	.fnend
                                        @ -- End function
	.file	5 "D:\\horizon\\Horizon_Infantry (2)\\MDK-ARM" "../User/Bsp/inc\\Power_CAP.h"
	.file	6 "D:\\horizon\\Horizon_Infantry (2)\\MDK-ARM" "../Drivers/CMSIS/Device/ST/STM32F4xx/Include/stm32f407xx.h"
	.file	7 "D:\\horizon\\Horizon_Infantry (2)\\MDK-ARM" "../User/Bsp/inc/can_bsp.h"
	.file	8 "D:\\horizon\\Horizon_Infantry (2)\\MDK-ARM" "../User/Bsp/inc/Referee.h"
	.section	".note.GNU-stack","",%progbits
	.eabi_attribute	30, 6	@ Tag_ABI_optimization_goals
	.ARM_attribute	16, 1	@ Tag_AV_eba