	.text
	.syntax unified
	.eabi_attribute	67, "2.09"	@ Tag_conformance
	.cpu	cortex-m4
	.eabi_attribute	6, 13	@ Tag_CPU_arch
	.eabi_attribute	7, 77	@ Tag_CPU_arch_profile
	.eabi_attribute	8, 0	@ Tag_ARM_ISA_use
	.eabi_attribute	9, 2	@ Tag_THUMB_ISA_use
	.fpu	fpv4-sp-d16
	.eabi_attribute	27, 1	@ Tag_ABI_HardFP_use
	.eabi_attribute	36, 1	@ Tag_FP_HP_extension
	.eabi_attribute	34, 1	@ Tag_CPU_unaligned_access
	.eabi_attribute	17, 1	@ Tag_ABI_PCS_GOT_use
	.eabi_attribute	20, 2	@ Tag_ABI_FP_denormal
	.eabi_attribute	21, 0	@ Tag_ABI_FP_exceptions
	.eabi_attribute	23, 3	@ Tag_ABI_FP_number_model
	.eabi_attribute	24, 1	@ Tag_ABI_align_needed
	.eabi_attribute	25, 1	@ Tag_ABI_align_preserved
	.eabi_attribute	28, 1	@ Tag_ABI_VFP_args
	.eabi_attribute	38, 1	@ Tag_ABI_FP_16bit_format
	.eabi_attribute	18, 2	@ Tag_ABI_PCS_wchar_t
	.eabi_attribute	26, 1	@ Tag_ABI_enum_size
	.eabi_attribute	14, 0	@ Tag_ABI_PCS_R9_use
	.file	"Referee.c"
	.file	1 "D:\\" "kevil\\ARM\\ARMCLANG\\Bin\\..\\include\\stdint.h"
	.section	.text.Referee_System_Frame_Update,"ax",%progbits
	.hidden	Referee_System_Frame_Update     @ -- Begin function Referee_System_Frame_Update
	.globl	Referee_System_Frame_Update
	.p2align	2
	.type	Referee_System_Frame_Update,%function
	.code	16                              @ @Referee_System_Frame_Update
	.thumb_func
Referee_System_Frame_Update:
.Lfunc_begin0:
	.file	2 "D:\\horizon\\Horizon_Infantry (2)\\MDK-ARM" "../User/Bsp/Referee.c"
	.loc	2 10 0                          @ ../User/Bsp/Referee.c:10:0
	.fnstart
	.cfi_sections .debug_frame
	.cfi_startproc
@ %bb.0:
	.save	{r7, lr}
	push	{r7, lr}
	.cfi_def_cfa_offset 8
	.cfi_offset lr, -4
	.cfi_offset r7, -8
	.pad	#16
	sub	sp, #16
	.cfi_def_cfa_offset 24
                                        @ kill: def $r2 killed $r1
	str	r0, [sp, #12]
	strh.w	r1, [sp, #10]
	movs	r0, #0
.Ltmp0:
	.loc	2 11 14 prologue_end            @ ../User/Bsp/Referee.c:11:14
	strh.w	r0, [sp, #8]
	.loc	2 12 14                         @ ../User/Bsp/Referee.c:12:14
	strh.w	r0, [sp, #6]
	.loc	2 13 14                         @ ../User/Bsp/Referee.c:13:14
	strh.w	r0, [sp, #4]
.Ltmp1:
	.loc	2 16 12                         @ ../User/Bsp/Referee.c:16:12
	strh.w	r0, [sp, #8]
	.loc	2 16 10 is_stmt 0               @ ../User/Bsp/Referee.c:16:10
	b	.LBB0_1
.LBB0_1:                                @ =>This Inner Loop Header: Depth=1
.Ltmp2:
	.loc	2 16 17                         @ ../User/Bsp/Referee.c:16:17
	ldrh.w	r0, [sp, #8]
	.loc	2 16 21                         @ ../User/Bsp/Referee.c:16:21
	ldrh.w	r1, [sp, #10]
	.loc	2 16 26                         @ ../User/Bsp/Referee.c:16:26
	subs	r1, #5
.Ltmp3:
	.loc	2 16 5                          @ ../User/Bsp/Referee.c:16:5
	cmp	r0, r1
	bhs	.LBB0_11
	b	.LBB0_2
.LBB0_2:                                @   in Loop: Header=BB0_1 Depth=1
.Ltmp4:
	.loc	2 18 13 is_stmt 1               @ ../User/Bsp/Referee.c:18:13
	ldr	r0, [sp, #12]
	.loc	2 18 18 is_stmt 0               @ ../User/Bsp/Referee.c:18:18
	ldrh.w	r1, [sp, #8]
	.loc	2 18 13                         @ ../User/Bsp/Referee.c:18:13
	ldrb	r0, [r0, r1]
.Ltmp5:
	.loc	2 18 13                         @ ../User/Bsp/Referee.c:18:13
	cmp	r0, #165
	bne	.LBB0_10
	b	.LBB0_3
.LBB0_3:                                @   in Loop: Header=BB0_1 Depth=1
.Ltmp6:
	.loc	2 21 40 is_stmt 1               @ ../User/Bsp/Referee.c:21:40
	ldr	r0, [sp, #12]
	.loc	2 21 45 is_stmt 0               @ ../User/Bsp/Referee.c:21:45
	ldrh.w	r1, [sp, #8]
	.loc	2 21 40                         @ ../User/Bsp/Referee.c:21:40
	add	r0, r1
	movs	r1, #5
	.loc	2 21 17                         @ ../User/Bsp/Referee.c:21:17
	bl	Verify_CRC8_Check_Sum
.Ltmp7:
	.loc	2 21 17                         @ ../User/Bsp/Referee.c:21:17
	cmp	r0, #1
	bne	.LBB0_9
	b	.LBB0_4
.LBB0_4:                                @   in Loop: Header=BB0_1 Depth=1
.Ltmp8:
	.loc	2 24 42 is_stmt 1               @ ../User/Bsp/Referee.c:24:42
	ldr	r1, [sp, #12]
	.loc	2 24 47 is_stmt 0               @ ../User/Bsp/Referee.c:24:47
	ldrh.w	r0, [sp, #8]
	.loc	2 24 48                         @ ../User/Bsp/Referee.c:24:48
	add	r1, r0
	.loc	2 24 59                         @ ../User/Bsp/Referee.c:24:59
	ldrb	r0, [r1, #1]
	.loc	2 24 42                         @ ../User/Bsp/Referee.c:24:42
	ldrb	r1, [r1, #2]
	.loc	2 24 57                         @ ../User/Bsp/Referee.c:24:57
	orr.w	r0, r0, r1, lsl #8
	.loc	2 27 29 is_stmt 1               @ ../User/Bsp/Referee.c:27:29
	adds	r0, #9
	.loc	2 24 29                         @ ../User/Bsp/Referee.c:24:29
	strh.w	r0, [sp, #6]
.Ltmp9:
	.loc	2 29 21                         @ ../User/Bsp/Referee.c:29:21
	ldrh.w	r0, [sp, #8]
	.loc	2 29 25 is_stmt 0               @ ../User/Bsp/Referee.c:29:25
	ldrh.w	r1, [sp, #6]
	.loc	2 29 23                         @ ../User/Bsp/Referee.c:29:23
	add	r0, r1
	.loc	2 29 40                         @ ../User/Bsp/Referee.c:29:40
	ldrh.w	r1, [sp, #10]
.Ltmp10:
	.loc	2 29 21                         @ ../User/Bsp/Referee.c:29:21
	cmp	r0, r1
	bgt	.LBB0_8
	b	.LBB0_5
.LBB0_5:                                @   in Loop: Header=BB0_1 Depth=1
.Ltmp11:
	.loc	2 32 49 is_stmt 1               @ ../User/Bsp/Referee.c:32:49
	ldr	r0, [sp, #12]
	.loc	2 32 54 is_stmt 0               @ ../User/Bsp/Referee.c:32:54
	ldrh.w	r1, [sp, #8]
	.loc	2 32 49                         @ ../User/Bsp/Referee.c:32:49
	add	r0, r1
	.loc	2 32 58                         @ ../User/Bsp/Referee.c:32:58
	ldrh.w	r1, [sp, #6]
	.loc	2 32 25                         @ ../User/Bsp/Referee.c:32:25
	bl	Verify_CRC16_Check_Sum
.Ltmp12:
	.loc	2 32 25                         @ ../User/Bsp/Referee.c:32:25
	cmp	r0, #1
	bne	.LBB0_7
	b	.LBB0_6
.LBB0_6:                                @   in Loop: Header=BB0_1 Depth=1
.Ltmp13:
	.loc	2 35 45 is_stmt 1               @ ../User/Bsp/Referee.c:35:45
	ldr	r1, [sp, #12]
	.loc	2 35 50 is_stmt 0               @ ../User/Bsp/Referee.c:35:50
	ldrh.w	r0, [sp, #8]
	.loc	2 35 52                         @ ../User/Bsp/Referee.c:35:52
	add	r1, r0
	.loc	2 36 45 is_stmt 1               @ ../User/Bsp/Referee.c:36:45
	ldrb	r0, [r1, #5]
	.loc	2 35 45                         @ ../User/Bsp/Referee.c:35:45
	ldrb	r1, [r1, #6]
	.loc	2 36 43                         @ ../User/Bsp/Referee.c:36:43
	orr.w	r0, r0, r1, lsl #8
	.loc	2 35 32                         @ ../User/Bsp/Referee.c:35:32
	strh.w	r0, [sp, #4]
	.loc	2 39 37                         @ ../User/Bsp/Referee.c:39:37
	ldr	r1, [sp, #12]
	.loc	2 39 42 is_stmt 0               @ ../User/Bsp/Referee.c:39:42
	ldrh.w	r0, [sp, #8]
	.loc	2 39 44                         @ ../User/Bsp/Referee.c:39:44
	add	r0, r1
	.loc	2 39 37                         @ ../User/Bsp/Referee.c:39:37
	adds	r0, #7
	.loc	2 39 34                         @ ../User/Bsp/Referee.c:39:34
	str	r0, [sp]
	.loc	2 41 52 is_stmt 1               @ ../User/Bsp/Referee.c:41:52
	ldrh.w	r0, [sp, #4]
	.loc	2 41 60 is_stmt 0               @ ../User/Bsp/Referee.c:41:60
	ldr	r1, [sp]
	.loc	2 41 25                         @ ../User/Bsp/Referee.c:41:25
	movw	r2, :lower16:User_data
	movt	r2, :upper16:User_data
	bl	Referee_System_Info_Update
	.loc	2 43 30 is_stmt 1               @ ../User/Bsp/Referee.c:43:30
	ldrh.w	r1, [sp, #6]
	.loc	2 43 27 is_stmt 0               @ ../User/Bsp/Referee.c:43:27
	ldrh.w	r0, [sp, #8]
	add	r0, r1
	strh.w	r0, [sp, #8]
	.loc	2 44 25 is_stmt 1               @ ../User/Bsp/Referee.c:44:25
	b	.LBB0_1
.Ltmp14:
.LBB0_7:                                @   in Loop: Header=BB0_1 Depth=1
	.loc	2 46 17                         @ ../User/Bsp/Referee.c:46:17
	b	.LBB0_8
.Ltmp15:
.LBB0_8:                                @   in Loop: Header=BB0_1 Depth=1
	.loc	2 47 13                         @ ../User/Bsp/Referee.c:47:13
	b	.LBB0_9
.Ltmp16:
.LBB0_9:                                @   in Loop: Header=BB0_1 Depth=1
	.loc	2 48 9                          @ ../User/Bsp/Referee.c:48:9
	b	.LBB0_10
.Ltmp17:
.LBB0_10:                               @   in Loop: Header=BB0_1 Depth=1
	.loc	2 50 10                         @ ../User/Bsp/Referee.c:50:10
	ldrh.w	r0, [sp, #8]
	adds	r0, #1
	strh.w	r0, [sp, #8]
.Ltmp18:
	.loc	2 16 5                          @ ../User/Bsp/Referee.c:16:5
	b	.LBB0_1
.Ltmp19:
.LBB0_11:
	.loc	2 52 1                          @ ../User/Bsp/Referee.c:52:1
	add	sp, #16
	pop	{r7, pc}
.Ltmp20:
.Lfunc_end0:
	.size	Referee_System_Frame_Update, .Lfunc_end0-Referee_System_Frame_Update
	.cfi_endproc
	.cantunwind
	.fnend
                                        @ -- End function
	.section	.text.Referee_System_Info_Update,"ax",%progbits
	.p2align	2                               @ -- Begin function Referee_System_Info_Update
	.type	Referee_System_Info_Update,%function
	.code	16                              @ @Referee_System_Info_Update
	.thumb_func
Referee_System_Info_Update:
.Lfunc_begin1:
	.loc	2 55 0                          @ ../User/Bsp/Referee.c:55:0
	.fnstart
	.cfi_startproc
@ %bb.0:
	.save	{r7, lr}
	push	{r7, lr}
	.cfi_def_cfa_offset 8
	.cfi_offset lr, -4
	.cfi_offset r7, -8
	.pad	#16
	sub	sp, #16
	.cfi_def_cfa_offset 24
                                        @ kill: def $r3 killed $r0
	strh.w	r0, [sp, #14]
	str	r1, [sp, #8]
	str	r2, [sp, #4]
.Ltmp21:
	.loc	2 56 13 prologue_end            @ ../User/Bsp/Referee.c:56:13
	ldrh.w	r0, [sp, #14]
	.loc	2 56 5 is_stmt 0                @ ../User/Bsp/Referee.c:56:5
	mov	r1, r0
	str	r1, [sp]                        @ 4-byte Spill
	cmp	r0, #1
	beq	.LBB1_20
	b	.LBB1_1
.LBB1_1:
	ldr	r0, [sp]                        @ 4-byte Reload
	cmp	r0, #2
	beq.w	.LBB1_21
	b	.LBB1_2
.LBB1_2:
	ldr	r0, [sp]                        @ 4-byte Reload
	cmp	r0, #3
	beq.w	.LBB1_22
	b	.LBB1_3
.LBB1_3:
	.loc	2 0 5                           @ ../User/Bsp/Referee.c:0:5
	ldr	r0, [sp]                        @ 4-byte Reload
	movw	r1, #257
	.loc	2 56 5                          @ ../User/Bsp/Referee.c:56:5
	cmp	r0, r1
	beq.w	.LBB1_23
	b	.LBB1_4
.LBB1_4:
	ldr	r0, [sp]                        @ 4-byte Reload
	cmp.w	r0, #260
	beq.w	.LBB1_24
	b	.LBB1_5
.LBB1_5:
	.loc	2 0 5                           @ ../User/Bsp/Referee.c:0:5
	ldr	r0, [sp]                        @ 4-byte Reload
	movw	r1, #261
	.loc	2 56 5                          @ ../User/Bsp/Referee.c:56:5
	cmp	r0, r1
	beq.w	.LBB1_25
	b	.LBB1_6
.LBB1_6:
	.loc	2 0 5                           @ ../User/Bsp/Referee.c:0:5
	ldr	r0, [sp]                        @ 4-byte Reload
	movw	r1, #513
	.loc	2 56 5                          @ ../User/Bsp/Referee.c:56:5
	cmp	r0, r1
	beq.w	.LBB1_26
	b	.LBB1_7
.LBB1_7:
	.loc	2 0 5                           @ ../User/Bsp/Referee.c:0:5
	ldr	r0, [sp]                        @ 4-byte Reload
	movw	r1, #514
	.loc	2 56 5                          @ ../User/Bsp/Referee.c:56:5
	cmp	r0, r1
	beq.w	.LBB1_27
	b	.LBB1_8
.LBB1_8:
	.loc	2 0 5                           @ ../User/Bsp/Referee.c:0:5
	ldr	r0, [sp]                        @ 4-byte Reload
	movw	r1, #515
	.loc	2 56 5                          @ ../User/Bsp/Referee.c:56:5
	cmp	r0, r1
	beq.w	.LBB1_28
	b	.LBB1_9
.LBB1_9:
	ldr	r0, [sp]                        @ 4-byte Reload
	cmp.w	r0, #516
	beq.w	.LBB1_29
	b	.LBB1_10
.LBB1_10:
	.loc	2 0 5                           @ ../User/Bsp/Referee.c:0:5
	ldr	r0, [sp]                        @ 4-byte Reload
	movw	r1, #518
	.loc	2 56 5                          @ ../User/Bsp/Referee.c:56:5
	cmp	r0, r1
	beq.w	.LBB1_30
	b	.LBB1_11
.LBB1_11:
	.loc	2 0 5                           @ ../User/Bsp/Referee.c:0:5
	ldr	r0, [sp]                        @ 4-byte Reload
	movw	r1, #519
	.loc	2 56 5                          @ ../User/Bsp/Referee.c:56:5
	cmp	r0, r1
	beq.w	.LBB1_31
	b	.LBB1_12
.LBB1_12:
	ldr	r0, [sp]                        @ 4-byte Reload
	cmp.w	r0, #520
	beq.w	.LBB1_32
	b	.LBB1_13
.LBB1_13:
	.loc	2 0 5                           @ ../User/Bsp/Referee.c:0:5
	ldr	r0, [sp]                        @ 4-byte Reload
	movw	r1, #521
	.loc	2 56 5                          @ ../User/Bsp/Referee.c:56:5
	cmp	r0, r1
	beq.w	.LBB1_33
	b	.LBB1_14
.LBB1_14:
	.loc	2 0 5                           @ ../User/Bsp/Referee.c:0:5
	ldr	r0, [sp]                        @ 4-byte Reload
	movw	r1, #522
	.loc	2 56 5                          @ ../User/Bsp/Referee.c:56:5
	cmp	r0, r1
	beq.w	.LBB1_34
	b	.LBB1_15
.LBB1_15:
	.loc	2 0 5                           @ ../User/Bsp/Referee.c:0:5
	ldr	r0, [sp]                        @ 4-byte Reload
	movw	r1, #523
	.loc	2 56 5                          @ ../User/Bsp/Referee.c:56:5
	cmp	r0, r1
	beq.w	.LBB1_35
	b	.LBB1_16
.LBB1_16:
	ldr	r0, [sp]                        @ 4-byte Reload
	cmp.w	r0, #524
	beq.w	.LBB1_36
	b	.LBB1_17
.LBB1_17:
	.loc	2 0 5                           @ ../User/Bsp/Referee.c:0:5
	ldr	r0, [sp]                        @ 4-byte Reload
	movw	r1, #525
	.loc	2 56 5                          @ ../User/Bsp/Referee.c:56:5
	cmp	r0, r1
	beq.w	.LBB1_37
	b	.LBB1_18
.LBB1_18:
	.loc	2 0 5                           @ ../User/Bsp/Referee.c:0:5
	ldr	r0, [sp]                        @ 4-byte Reload
	movw	r1, #526
	.loc	2 56 5                          @ ../User/Bsp/Referee.c:56:5
	cmp	r0, r1
	beq.w	.LBB1_38
	b	.LBB1_19
.LBB1_19:
	.loc	2 0 5                           @ ../User/Bsp/Referee.c:0:5
	ldr	r0, [sp]                        @ 4-byte Reload
	movw	r1, #771
	.loc	2 56 5                          @ ../User/Bsp/Referee.c:56:5
	cmp	r0, r1
	beq.w	.LBB1_39
	b	.LBB1_40
.LBB1_20:
.Ltmp22:
	.loc	2 59 21 is_stmt 1               @ ../User/Bsp/Referee.c:59:21
	ldr	r1, [sp, #4]
	.loc	2 59 44 is_stmt 0               @ ../User/Bsp/Referee.c:59:44
	ldr	r3, [sp, #8]
	.loc	2 59 13                         @ ../User/Bsp/Referee.c:59:13
	ldr	r0, [r3]
	ldr	r2, [r3, #4]
	ldr.w	r3, [r3, #7]
	str.w	r3, [r1, #7]
	str	r2, [r1, #4]
	str	r0, [r1]
	.loc	2 60 13 is_stmt 1               @ ../User/Bsp/Referee.c:60:13
	b	.LBB1_41
.LBB1_21:
	.loc	2 63 21                         @ ../User/Bsp/Referee.c:63:21
	ldr	r1, [sp, #4]
	.loc	2 63 44 is_stmt 0               @ ../User/Bsp/Referee.c:63:44
	ldr	r0, [sp, #8]
	.loc	2 63 13                         @ ../User/Bsp/Referee.c:63:13
	ldrb	r0, [r0]
	strb	r0, [r1, #11]
	.loc	2 64 13 is_stmt 1               @ ../User/Bsp/Referee.c:64:13
	b	.LBB1_41
.LBB1_22:
	.loc	2 67 21                         @ ../User/Bsp/Referee.c:67:21
	ldr	r1, [sp, #4]
	.loc	2 67 46 is_stmt 0               @ ../User/Bsp/Referee.c:67:46
	ldr.w	r12, [sp, #8]
	.loc	2 67 13                         @ ../User/Bsp/Referee.c:67:13
	ldr.w	r0, [r12]
	ldr.w	r2, [r12, #4]
	ldr.w	r3, [r12, #8]
	ldr.w	r12, [r12, #12]
	str.w	r12, [r1, #24]
	str	r3, [r1, #20]
	str	r2, [r1, #16]
	str	r0, [r1, #12]
	.loc	2 68 13 is_stmt 1               @ ../User/Bsp/Referee.c:68:13
	b	.LBB1_41
.LBB1_23:
	.loc	2 71 21                         @ ../User/Bsp/Referee.c:71:21
	ldr	r1, [sp, #4]
	.loc	2 71 43 is_stmt 0               @ ../User/Bsp/Referee.c:71:43
	ldr	r0, [sp, #8]
	.loc	2 71 13                         @ ../User/Bsp/Referee.c:71:13
	ldr	r0, [r0]
	str.w	r0, [r1, #169]
	.loc	2 72 13 is_stmt 1               @ ../User/Bsp/Referee.c:72:13
	b	.LBB1_41
.LBB1_24:
	.loc	2 75 21                         @ ../User/Bsp/Referee.c:75:21
	ldr	r1, [sp, #4]
	.loc	2 75 48 is_stmt 0               @ ../User/Bsp/Referee.c:75:48
	ldr	r0, [sp, #8]
	.loc	2 75 13                         @ ../User/Bsp/Referee.c:75:13
	ldrb	r2, [r0, #2]
	strb	r2, [r1, #30]
	ldrh	r0, [r0]
	strh	r0, [r1, #28]
	.loc	2 76 13 is_stmt 1               @ ../User/Bsp/Referee.c:76:13
	b	.LBB1_41
.LBB1_25:
	.loc	2 79 21                         @ ../User/Bsp/Referee.c:79:21
	ldr	r1, [sp, #4]
	.loc	2 79 42 is_stmt 0               @ ../User/Bsp/Referee.c:79:42
	ldr	r0, [sp, #8]
	.loc	2 79 13                         @ ../User/Bsp/Referee.c:79:13
	ldrb	r2, [r0, #2]
	strb.w	r2, [r1, #33]
	ldrh	r0, [r0]
	strh.w	r0, [r1, #31]
	.loc	2 80 13 is_stmt 1               @ ../User/Bsp/Referee.c:80:13
	b	.LBB1_41
.LBB1_26:
	.loc	2 83 21                         @ ../User/Bsp/Referee.c:83:21
	ldr	r1, [sp, #4]
	.loc	2 83 45 is_stmt 0               @ ../User/Bsp/Referee.c:83:45
	ldr	r3, [sp, #8]
	.loc	2 83 13                         @ ../User/Bsp/Referee.c:83:13
	ldrb	r0, [r3, #12]
	strb.w	r0, [r1, #46]
	ldr	r0, [r3]
	ldr	r2, [r3, #4]
	ldr	r3, [r3, #8]
	str.w	r3, [r1, #42]
	str.w	r2, [r1, #38]
	str.w	r0, [r1, #34]
	.loc	2 84 13 is_stmt 1               @ ../User/Bsp/Referee.c:84:13
	b	.LBB1_41
.LBB1_27:
	.loc	2 87 21                         @ ../User/Bsp/Referee.c:87:21
	ldr	r1, [sp, #4]
	.loc	2 87 48 is_stmt 0               @ ../User/Bsp/Referee.c:87:48
	ldr	r3, [sp, #8]
	.loc	2 87 13                         @ ../User/Bsp/Referee.c:87:13
	ldrh	r0, [r3, #12]
	strh.w	r0, [r1, #59]
	ldr	r0, [r3]
	ldr	r2, [r3, #4]
	ldr	r3, [r3, #8]
	str.w	r3, [r1, #55]
	str.w	r2, [r1, #51]
	str.w	r0, [r1, #47]
	.loc	2 88 13 is_stmt 1               @ ../User/Bsp/Referee.c:88:13
	b	.LBB1_41
.LBB1_28:
	.loc	2 91 21                         @ ../User/Bsp/Referee.c:91:21
	ldr	r1, [sp, #4]
	.loc	2 91 42 is_stmt 0               @ ../User/Bsp/Referee.c:91:42
	ldr	r3, [sp, #8]
	.loc	2 91 13                         @ ../User/Bsp/Referee.c:91:13
	ldr	r0, [r3]
	ldr	r2, [r3, #4]
	ldr	r3, [r3, #8]
	str.w	r3, [r1, #69]
	str.w	r2, [r1, #65]
	str.w	r0, [r1, #61]
	.loc	2 92 13 is_stmt 1               @ ../User/Bsp/Referee.c:92:13
	b	.LBB1_41
.LBB1_29:
	.loc	2 95 21                         @ ../User/Bsp/Referee.c:95:21
	ldr	r1, [sp, #4]
	.loc	2 95 37 is_stmt 0               @ ../User/Bsp/Referee.c:95:37
	ldr	r2, [sp, #8]
	.loc	2 95 13                         @ ../User/Bsp/Referee.c:95:13
	ldr	r0, [r2]
	ldr	r2, [r2, #4]
	str.w	r2, [r1, #77]
	str.w	r0, [r1, #73]
	.loc	2 96 13 is_stmt 1               @ ../User/Bsp/Referee.c:96:13
	b	.LBB1_41
.LBB1_30:
	.loc	2 99 21                         @ ../User/Bsp/Referee.c:99:21
	ldr	r1, [sp, #4]
	.loc	2 99 42 is_stmt 0               @ ../User/Bsp/Referee.c:99:42
	ldr	r0, [sp, #8]
	.loc	2 99 13                         @ ../User/Bsp/Referee.c:99:13
	ldrb	r0, [r0]
	strb.w	r0, [r1, #81]
	.loc	2 100 13 is_stmt 1              @ ../User/Bsp/Referee.c:100:13
	b	.LBB1_41
.LBB1_31:
	.loc	2 103 21                        @ ../User/Bsp/Referee.c:103:21
	ldr	r1, [sp, #4]
	.loc	2 103 43 is_stmt 0              @ ../User/Bsp/Referee.c:103:43
	ldr	r2, [sp, #8]
	.loc	2 103 13                        @ ../User/Bsp/Referee.c:103:13
	ldr	r0, [r2]
	ldr.w	r2, [r2, #3]
	str.w	r2, [r1, #85]
	str.w	r0, [r1, #82]
	.loc	2 104 13 is_stmt 1              @ ../User/Bsp/Referee.c:104:13
	b	.LBB1_41
.LBB1_32:
	.loc	2 107 21                        @ ../User/Bsp/Referee.c:107:21
	ldr	r1, [sp, #4]
	.loc	2 107 53 is_stmt 0              @ ../User/Bsp/Referee.c:107:53
	ldr	r2, [sp, #8]
	.loc	2 107 13                        @ ../User/Bsp/Referee.c:107:13
	ldr	r0, [r2]
	ldr	r2, [r2, #4]
	str.w	r2, [r1, #93]
	str.w	r0, [r1, #89]
	.loc	2 108 13 is_stmt 1              @ ../User/Bsp/Referee.c:108:13
	b	.LBB1_41
.LBB1_33:
	.loc	2 111 21                        @ ../User/Bsp/Referee.c:111:21
	ldr	r1, [sp, #4]
	.loc	2 111 44 is_stmt 0              @ ../User/Bsp/Referee.c:111:44
	ldr	r0, [sp, #8]
	.loc	2 111 13                        @ ../User/Bsp/Referee.c:111:13
	ldrb	r2, [r0, #4]
	strb.w	r2, [r1, #101]
	ldr	r0, [r0]
	str.w	r0, [r1, #97]
	.loc	2 112 13 is_stmt 1              @ ../User/Bsp/Referee.c:112:13
	b	.LBB1_41
.LBB1_34:
	.loc	2 115 21                        @ ../User/Bsp/Referee.c:115:21
	ldr	r1, [sp, #4]
	.loc	2 115 48 is_stmt 0              @ ../User/Bsp/Referee.c:115:48
	ldr	r0, [sp, #8]
	.loc	2 115 13                        @ ../User/Bsp/Referee.c:115:13
	ldrh	r2, [r0, #4]
	strh.w	r2, [r1, #106]
	ldr	r0, [r0]
	str.w	r0, [r1, #102]
	.loc	2 116 13 is_stmt 1              @ ../User/Bsp/Referee.c:116:13
	b	.LBB1_41
.LBB1_35:
	.loc	2 119 21                        @ ../User/Bsp/Referee.c:119:21
	ldr	r0, [sp, #4]
	.loc	2 119 31 is_stmt 0              @ ../User/Bsp/Referee.c:119:31
	adds	r0, #108
	.loc	2 119 54                        @ ../User/Bsp/Referee.c:119:54
	ldr	r1, [sp, #8]
	movs	r2, #40
	.loc	2 119 13                        @ ../User/Bsp/Referee.c:119:13
	bl	__aeabi_memcpy
	.loc	2 120 13 is_stmt 1              @ ../User/Bsp/Referee.c:120:13
	b	.LBB1_41
.LBB1_36:
	.loc	2 123 21                        @ ../User/Bsp/Referee.c:123:21
	ldr	r1, [sp, #4]
	.loc	2 123 48 is_stmt 0              @ ../User/Bsp/Referee.c:123:48
	ldr	r0, [sp, #8]
	.loc	2 123 13                        @ ../User/Bsp/Referee.c:123:13
	ldrh	r0, [r0]
	strh.w	r0, [r1, #148]
	.loc	2 124 13 is_stmt 1              @ ../User/Bsp/Referee.c:124:13
	b	.LBB1_41
.LBB1_37:
	.loc	2 127 21                        @ ../User/Bsp/Referee.c:127:21
	ldr	r1, [sp, #4]
	.loc	2 127 44 is_stmt 0              @ ../User/Bsp/Referee.c:127:44
	ldr	r0, [sp, #8]
	.loc	2 127 13                        @ ../User/Bsp/Referee.c:127:13
	ldrh	r2, [r0, #4]
	strh.w	r2, [r1, #154]
	ldr	r0, [r0]
	str.w	r0, [r1, #150]
	.loc	2 128 13 is_stmt 1              @ ../User/Bsp/Referee.c:128:13
	b	.LBB1_41
.LBB1_38:
	.loc	2 131 21                        @ ../User/Bsp/Referee.c:131:21
	ldr	r1, [sp, #4]
	.loc	2 131 43 is_stmt 0              @ ../User/Bsp/Referee.c:131:43
	ldr	r0, [sp, #8]
	.loc	2 131 13                        @ ../User/Bsp/Referee.c:131:13
	ldrb	r0, [r0]
	strb.w	r0, [r1, #156]
	.loc	2 132 13 is_stmt 1              @ ../User/Bsp/Referee.c:132:13
	b	.LBB1_41
.LBB1_39:
	.loc	2 135 21                        @ ../User/Bsp/Referee.c:135:21
	ldr	r1, [sp, #4]
	.loc	2 135 44 is_stmt 0              @ ../User/Bsp/Referee.c:135:44
	ldr	r3, [sp, #8]
	.loc	2 135 13                        @ ../User/Bsp/Referee.c:135:13
	ldr	r0, [r3]
	ldr	r2, [r3, #4]
	ldr	r3, [r3, #8]
	str.w	r3, [r1, #165]
	str.w	r2, [r1, #161]
	str.w	r0, [r1, #157]
	.loc	2 136 13 is_stmt 1              @ ../User/Bsp/Referee.c:136:13
	b	.LBB1_41
.LBB1_40:
	.loc	2 139 13                        @ ../User/Bsp/Referee.c:139:13
	b	.LBB1_41
.Ltmp23:
.LBB1_41:
	.loc	2 141 1                         @ ../User/Bsp/Referee.c:141:1
	add	sp, #16
	pop	{r7, pc}
.Ltmp24:
.Lfunc_end1:
	.size	Referee_System_Info_Update, .Lfunc_end1-Referee_System_Info_Update
	.cfi_endproc
	.cantunwind
	.fnend
                                        @ -- End function
	.file	3 "D:\\horizon\\Horizon_Infantry (2)\\MDK-ARM" "../User/Bsp/inc\\Referee.h"
	.section	".note.GNU-stack","",%progbits
	.eabi_attribute	30, 6	@ Tag_ABI_optimization_goals
	.ARM_attribute	16, 1	@ Tag_AV_eba