	.text
	.syntax unified
	.eabi_attribute	67, "2.09"	@ Tag_conformance
	.cpu	cortex-m4
	.eabi_attribute	6, 13	@ Tag_CPU_arch
	.eabi_attribute	7, 77	@ Tag_CPU_arch_profile
	.eabi_attribute	8, 0	@ Tag_ARM_ISA_use
	.eabi_attribute	9, 2	@ Tag_THUMB_ISA_use
	.fpu	fpv4-sp-d16
	.eabi_attribute	27, 1	@ Tag_ABI_HardFP_use
	.eabi_attribute	36, 1	@ Tag_FP_HP_extension
	.eabi_attribute	34, 1	@ Tag_CPU_unaligned_access
	.eabi_attribute	17, 1	@ Tag_ABI_PCS_GOT_use
	.eabi_attribute	20, 2	@ Tag_ABI_FP_denormal
	.eabi_attribute	21, 0	@ Tag_ABI_FP_exceptions
	.eabi_attribute	23, 3	@ Tag_ABI_FP_number_model
	.eabi_attribute	24, 1	@ Tag_ABI_align_needed
	.eabi_attribute	25, 1	@ Tag_ABI_align_preserved
	.eabi_attribute	28, 1	@ Tag_ABI_VFP_args
	.eabi_attribute	38, 1	@ Tag_ABI_FP_16bit_format
	.eabi_attribute	18, 2	@ Tag_ABI_PCS_wchar_t
	.eabi_attribute	26, 1	@ Tag_ABI_enum_size
	.eabi_attribute	14, 0	@ Tag_ABI_PCS_R9_use
	.file	"RGBctrl.c"
	.file	1 "D:\\" "kevil\\ARM\\ARMCLANG\\Bin\\..\\include\\stdint.h"
	.file	2 "D:\\horizon\\Horizon_Infantry (2)\\MDK-ARM" "../User/Bsp/RGBctrl.c"
	.file	3 "D:\\horizon\\Horizon_Infantry (2)\\MDK-ARM" "../Drivers/CMSIS/Device/ST/STM32F4xx/Include/stm32f407xx.h"
	.file	4 "D:\\horizon\\Horizon_Infantry (2)\\MDK-ARM" "../Drivers/STM32F4xx_HAL_Driver/Inc\\stm32f4xx_hal_gpio.h"
	.section	.text.RUI_F_LED,"ax",%progbits
	.hidden	RUI_F_LED                       @ -- Begin function RUI_F_LED
	.globl	RUI_F_LED
	.p2align	2
	.type	RUI_F_LED,%function
	.code	16                              @ @RUI_F_LED
	.thumb_func
RUI_F_LED:
.Lfunc_begin0:
	.loc	2 11 0                          @ ../User/Bsp/RGBctrl.c:11:0
	.fnstart
	.cfi_sections .debug_frame
	.cfi_startproc
@ %bb.0:
	.save	{r7, lr}
	push	{r7, lr}
	.cfi_def_cfa_offset 8
	.cfi_offset lr, -4
	.cfi_offset r7, -8
	.pad	#24
	sub	sp, #24
	.cfi_def_cfa_offset 32
                                        @ kill: def $r2 killed $r0
	strb.w	r0, [sp, #23]
	str	r1, [sp, #16]
.Ltmp0:
	.loc	2 14 35 prologue_end            @ ../User/Bsp/RGBctrl.c:14:35
	bl	DWT_GetTimeline_ms
	.loc	2 14 14 is_stmt 0               @ ../User/Bsp/RGBctrl.c:14:14
	vcvt.u32.f32	s0, s0
	vstr	s0, [sp, #12]
.Ltmp1:
	.loc	2 31 9 is_stmt 1                @ ../User/Bsp/RGBctrl.c:31:9
	ldrb.w	r0, [sp, #23]
	.loc	2 31 18 is_stmt 0               @ ../User/Bsp/RGBctrl.c:31:18
	movw	r1, :lower16:RUI_F_LED.status_LAST
	movt	r1, :upper16:RUI_F_LED.status_LAST
	ldrsb.w	r1, [r1]
.Ltmp2:
	.loc	2 31 9                          @ ../User/Bsp/RGBctrl.c:31:9
	cmp	r0, r1
	beq	.LBB0_6
	b	.LBB0_1
.LBB0_1:
	.loc	2 0 9                           @ ../User/Bsp/RGBctrl.c:0:9
	movs	r0, #0
.Ltmp3:
	.loc	2 33 18 is_stmt 1               @ ../User/Bsp/RGBctrl.c:33:18
	str	r0, [sp, #8]
	.loc	2 33 14 is_stmt 0               @ ../User/Bsp/RGBctrl.c:33:14
	b	.LBB0_2
.LBB0_2:                                @ =>This Inner Loop Header: Depth=1
.Ltmp4:
	.loc	2 33 25                         @ ../User/Bsp/RGBctrl.c:33:25
	ldr	r0, [sp, #8]
.Ltmp5:
	.loc	2 33 9                          @ ../User/Bsp/RGBctrl.c:33:9
	cmp	r0, #2
	bgt	.LBB0_5
	b	.LBB0_3
.LBB0_3:                                @   in Loop: Header=BB0_2 Depth=1
.Ltmp6:
	.loc	2 35 40 is_stmt 1               @ ../User/Bsp/RGBctrl.c:35:40
	ldr	r2, [sp, #8]
	.loc	2 35 31 is_stmt 0               @ ../User/Bsp/RGBctrl.c:35:31
	movw	r0, :lower16:RUI_F_LED.LED_PORT
	movt	r0, :upper16:RUI_F_LED.LED_PORT
	ldr.w	r0, [r0, r2, lsl #2]
	.loc	2 35 45                         @ ../User/Bsp/RGBctrl.c:35:45
	movw	r1, :lower16:RUI_F_LED.LED_PIN
	movt	r1, :upper16:RUI_F_LED.LED_PIN
	ldrh.w	r1, [r1, r2, lsl #1]
	movs	r2, #1
	.loc	2 35 13                         @ ../User/Bsp/RGBctrl.c:35:13
	bl	HAL_GPIO_WritePin
	.loc	2 36 9 is_stmt 1                @ ../User/Bsp/RGBctrl.c:36:9
	b	.LBB0_4
.Ltmp7:
.LBB0_4:                                @   in Loop: Header=BB0_2 Depth=1
	.loc	2 33 33                         @ ../User/Bsp/RGBctrl.c:33:33
	ldr	r0, [sp, #8]
	adds	r0, #1
	str	r0, [sp, #8]
	.loc	2 33 9 is_stmt 0                @ ../User/Bsp/RGBctrl.c:33:9
	b	.LBB0_2
.Ltmp8:
.LBB0_5:
	.loc	2 37 31 is_stmt 1               @ ../User/Bsp/RGBctrl.c:37:31
	ldrb.w	r0, [sp, #23]
	.loc	2 37 21 is_stmt 0               @ ../User/Bsp/RGBctrl.c:37:21
	movw	r1, :lower16:RUI_F_LED.status_LAST
	movt	r1, :upper16:RUI_F_LED.status_LAST
	strb	r0, [r1]
	.loc	2 38 5 is_stmt 1                @ ../User/Bsp/RGBctrl.c:38:5
	b	.LBB0_6
.Ltmp9:
.LBB0_6:
	.loc	2 40 10                         @ ../User/Bsp/RGBctrl.c:40:10
	ldr	r0, [sp, #12]
	.loc	2 40 21 is_stmt 0               @ ../User/Bsp/RGBctrl.c:40:21
	movw	r1, :lower16:RUI_F_LED.TIME_LAST
	movt	r1, :upper16:RUI_F_LED.TIME_LAST
	ldr	r1, [r1]
	.loc	2 40 19                         @ ../User/Bsp/RGBctrl.c:40:19
	subs	r0, r0, r1
	.loc	2 40 34                         @ ../User/Bsp/RGBctrl.c:40:34
	ldr	r1, [sp, #16]
.Ltmp10:
	.loc	2 40 9                          @ ../User/Bsp/RGBctrl.c:40:9
	cmp	r0, r1
	bls	.LBB0_8
	b	.LBB0_7
.LBB0_7:
.Ltmp11:
	.loc	2 42 16 is_stmt 1               @ ../User/Bsp/RGBctrl.c:42:16
	movw	r1, :lower16:RUI_F_LED.BIT
	movt	r1, :upper16:RUI_F_LED.BIT
	ldrb	r0, [r1]
	.loc	2 42 15 is_stmt 0               @ ../User/Bsp/RGBctrl.c:42:15
	clz	r0, r0
	lsrs	r0, r0, #5
	.loc	2 42 13                         @ ../User/Bsp/RGBctrl.c:42:13
	strb	r0, [r1]
	.loc	2 43 21 is_stmt 1               @ ../User/Bsp/RGBctrl.c:43:21
	ldr	r0, [sp, #12]
	.loc	2 43 19 is_stmt 0               @ ../User/Bsp/RGBctrl.c:43:19
	movw	r1, :lower16:RUI_F_LED.TIME_LAST
	movt	r1, :upper16:RUI_F_LED.TIME_LAST
	str	r0, [r1]
	.loc	2 44 5 is_stmt 1                @ ../User/Bsp/RGBctrl.c:44:5
	b	.LBB0_8
.Ltmp12:
.LBB0_8:
	.loc	2 0 5 is_stmt 0                 @ ../User/Bsp/RGBctrl.c:0:5
	movs	r0, #0
.Ltmp13:
	.loc	2 46 14 is_stmt 1               @ ../User/Bsp/RGBctrl.c:46:14
	str	r0, [sp, #4]
	.loc	2 46 10 is_stmt 0               @ ../User/Bsp/RGBctrl.c:46:10
	b	.LBB0_9
.LBB0_9:                                @ =>This Inner Loop Header: Depth=1
.Ltmp14:
	.loc	2 46 21                         @ ../User/Bsp/RGBctrl.c:46:21
	ldr	r0, [sp, #4]
.Ltmp15:
	.loc	2 46 5                          @ ../User/Bsp/RGBctrl.c:46:5
	cmp	r0, #2
	bgt	.LBB0_18
	b	.LBB0_10
.LBB0_10:                               @   in Loop: Header=BB0_9 Depth=1
.Ltmp16:
	.loc	2 48 24 is_stmt 1               @ ../User/Bsp/RGBctrl.c:48:24
	ldrb.w	r0, [sp, #23]
	.loc	2 48 13 is_stmt 0               @ ../User/Bsp/RGBctrl.c:48:13
	add.w	r1, r0, r0, lsl #1
	movw	r0, :lower16:RUI_F_LED.LED_CONFIG
	movt	r0, :upper16:RUI_F_LED.LED_CONFIG
	add	r0, r1
	.loc	2 48 31                         @ ../User/Bsp/RGBctrl.c:48:31
	ldr	r1, [sp, #4]
	.loc	2 48 13                         @ ../User/Bsp/RGBctrl.c:48:13
	ldrb	r0, [r0, r1]
.Ltmp17:
	.loc	2 48 13                         @ ../User/Bsp/RGBctrl.c:48:13
	cbz	r0, .LBB0_16
	b	.LBB0_11
.LBB0_11:                               @   in Loop: Header=BB0_9 Depth=1
.Ltmp18:
	.loc	2 50 7 is_stmt 1                @ ../User/Bsp/RGBctrl.c:50:7
	movw	r0, :lower16:RUI_F_LED.BIT
	movt	r0, :upper16:RUI_F_LED.BIT
	ldrsb.w	r0, [r0]
.Ltmp19:
	.loc	2 50 7 is_stmt 0                @ ../User/Bsp/RGBctrl.c:50:7
	cbnz	r0, .LBB0_13
	b	.LBB0_12
.LBB0_12:                               @   in Loop: Header=BB0_9 Depth=1
.Ltmp20:
	.loc	2 51 32 is_stmt 1               @ ../User/Bsp/RGBctrl.c:51:32
	ldr	r2, [sp, #4]
	.loc	2 51 23 is_stmt 0               @ ../User/Bsp/RGBctrl.c:51:23
	movw	r0, :lower16:RUI_F_LED.LED_PORT
	movt	r0, :upper16:RUI_F_LED.LED_PORT
	ldr.w	r0, [r0, r2, lsl #2]
	.loc	2 51 37                         @ ../User/Bsp/RGBctrl.c:51:37
	movw	r1, :lower16:RUI_F_LED.LED_PIN
	movt	r1, :upper16:RUI_F_LED.LED_PIN
	ldrh.w	r1, [r1, r2, lsl #1]
	movs	r2, #0
	.loc	2 51 5                          @ ../User/Bsp/RGBctrl.c:51:5
	bl	HAL_GPIO_WritePin
	b	.LBB0_13
.Ltmp21:
.LBB0_13:                               @   in Loop: Header=BB0_9 Depth=1
	.loc	2 52 7 is_stmt 1                @ ../User/Bsp/RGBctrl.c:52:7
	movw	r0, :lower16:RUI_F_LED.BIT
	movt	r0, :upper16:RUI_F_LED.BIT
	ldrsb.w	r0, [r0]
.Ltmp22:
	.loc	2 52 7 is_stmt 0                @ ../User/Bsp/RGBctrl.c:52:7
	cmp	r0, #1
	blt	.LBB0_15
	b	.LBB0_14
.LBB0_14:                               @   in Loop: Header=BB0_9 Depth=1
.Ltmp23:
	.loc	2 53 32 is_stmt 1               @ ../User/Bsp/RGBctrl.c:53:32
	ldr	r2, [sp, #4]
	.loc	2 53 23 is_stmt 0               @ ../User/Bsp/RGBctrl.c:53:23
	movw	r0, :lower16:RUI_F_LED.LED_PORT
	movt	r0, :upper16:RUI_F_LED.LED_PORT
	ldr.w	r0, [r0, r2, lsl #2]
	.loc	2 53 37                         @ ../User/Bsp/RGBctrl.c:53:37
	movw	r1, :lower16:RUI_F_LED.LED_PIN
	movt	r1, :upper16:RUI_F_LED.LED_PIN
	ldrh.w	r1, [r1, r2, lsl #1]
	movs	r2, #1
	.loc	2 53 5                          @ ../User/Bsp/RGBctrl.c:53:5
	bl	HAL_GPIO_WritePin
	b	.LBB0_15
.Ltmp24:
.LBB0_15:                               @   in Loop: Header=BB0_9 Depth=1
	.loc	2 54 9 is_stmt 1                @ ../User/Bsp/RGBctrl.c:54:9
	b	.LBB0_16
.Ltmp25:
.LBB0_16:                               @   in Loop: Header=BB0_9 Depth=1
	.loc	2 55 5                          @ ../User/Bsp/RGBctrl.c:55:5
	b	.LBB0_17
.Ltmp26:
.LBB0_17:                               @   in Loop: Header=BB0_9 Depth=1
	.loc	2 46 29                         @ ../User/Bsp/RGBctrl.c:46:29
	ldr	r0, [sp, #4]
	adds	r0, #1
	str	r0, [sp, #4]
	.loc	2 46 5 is_stmt 0                @ ../User/Bsp/RGBctrl.c:46:5
	b	.LBB0_9
.Ltmp27:
.LBB0_18:
	.loc	2 56 1 is_stmt 1                @ ../User/Bsp/RGBctrl.c:56:1
	add	sp, #24
	pop	{r7, pc}
.Ltmp28:
.Lfunc_end0:
	.size	RUI_F_LED, .Lfunc_end0-RUI_F_LED
	.cfi_endproc
	.cantunwind
	.fnend
                                        @ -- End function
	.type	RUI_F_LED.TIME_LAST,%object     @ @RUI_F_LED.TIME_LAST
	.section	.bss.RUI_F_LED.TIME_LAST,"aw",%nobits
	.p2align	2
RUI_F_LED.TIME_LAST:
	.long	0                               @ 0x0
	.size	RUI_F_LED.TIME_LAST, 4

	.type	RUI_F_LED.BIT,%object           @ @RUI_F_LED.BIT
	.section	.bss.RUI_F_LED.BIT,"aw",%nobits
RUI_F_LED.BIT:
	.byte	0                               @ 0x0
	.size	RUI_F_LED.BIT, 1

	.type	RUI_F_LED.status_LAST,%object   @ @RUI_F_LED.status_LAST
	.section	.data.RUI_F_LED.status_LAST,"aw",%progbits
RUI_F_LED.status_LAST:
	.byte	9                               @ 0x9
	.size	RUI_F_LED.status_LAST, 1

	.type	RUI_F_LED.LED_PORT,%object      @ @RUI_F_LED.LED_PORT
	.section	.data.RUI_F_LED.LED_PORT,"aw",%progbits
	.p2align	2
RUI_F_LED.LED_PORT:
	.long	1073880064
	.long	1073880064
	.long	1073880064
	.size	RUI_F_LED.LED_PORT, 12

	.type	RUI_F_LED.LED_PIN,%object       @ @RUI_F_LED.LED_PIN
	.section	.data.RUI_F_LED.LED_PIN,"aw",%progbits
	.p2align	1
RUI_F_LED.LED_PIN:
	.short	4096                            @ 0x1000
	.short	2048                            @ 0x800
	.short	1024                            @ 0x400
	.size	RUI_F_LED.LED_PIN, 6

	.type	RUI_F_LED.LED_CONFIG,%object    @ @RUI_F_LED.LED_CONFIG
	.section	.data.RUI_F_LED.LED_CONFIG,"aw",%progbits
RUI_F_LED.LED_CONFIG:
	.asciz	"\001\000"
	.asciz	"\000\001"
	.ascii	"\000\000\001"
	.asciz	"\001\001"
	.ascii	"\001\000\001"
	.ascii	"\000\001\001"
	.size	RUI_F_LED.LED_CONFIG, 18

	.section	".note.GNU-stack","",%progbits
	.eabi_attribute	30, 6	@ Tag_ABI_optimization_goals
	.ARM_attribute	16, 1	@ Tag_AV_eba