	.text
	.syntax unified
	.eabi_attribute	67, "2.09"	@ Tag_conformance
	.cpu	cortex-m4
	.eabi_attribute	6, 13	@ Tag_CPU_arch
	.eabi_attribute	7, 77	@ Tag_CPU_arch_profile
	.eabi_attribute	8, 0	@ Tag_ARM_ISA_use
	.eabi_attribute	9, 2	@ Tag_THUMB_ISA_use
	.fpu	fpv4-sp-d16
	.eabi_attribute	27, 1	@ Tag_ABI_HardFP_use
	.eabi_attribute	36, 1	@ Tag_FP_HP_extension
	.eabi_attribute	34, 1	@ Tag_CPU_unaligned_access
	.eabi_attribute	17, 1	@ Tag_ABI_PCS_GOT_use
	.eabi_attribute	20, 2	@ Tag_ABI_FP_denormal
	.eabi_attribute	21, 0	@ Tag_ABI_FP_exceptions
	.eabi_attribute	23, 3	@ Tag_ABI_FP_number_model
	.eabi_attribute	24, 1	@ Tag_ABI_align_needed
	.eabi_attribute	25, 1	@ Tag_ABI_align_preserved
	.eabi_attribute	28, 1	@ Tag_ABI_VFP_args
	.eabi_attribute	38, 1	@ Tag_ABI_FP_16bit_format
	.eabi_attribute	18, 2	@ Tag_ABI_PCS_wchar_t
	.eabi_attribute	26, 1	@ Tag_ABI_enum_size
	.eabi_attribute	14, 0	@ Tag_ABI_PCS_R9_use
	.file	"Robot.c"
	.file	1 "D:\\horizon\\Horizon_Infantry (2)\\MDK-ARM" "../User/App/Robot.c"
	.file	2 "D:\\" "kevil\\ARM\\ARMCLANG\\Bin\\..\\include\\stdint.h"
	.section	.text.RobotTask,"ax",%progbits
	.hidden	RobotTask                       @ -- Begin function RobotTask
	.globl	RobotTask
	.p2align	2
	.type	RobotTask,%function
	.code	16                              @ @RobotTask
	.thumb_func
RobotTask:
.Lfunc_begin0:
	.loc	1 21 0                          @ ../User/App/Robot.c:21:0
	.fnstart
	.cfi_sections .debug_frame
	.cfi_startproc
@ %bb.0:
	.save	{r7, lr}
	push	{r7, lr}
	.cfi_def_cfa_offset 8
	.cfi_offset lr, -4
	.cfi_offset r7, -8
	.pad	#112
	sub	sp, #112
	.cfi_def_cfa_offset 120
	ldr.w	r12, [sp, #128]
	ldr.w	r12, [sp, #124]
	ldr.w	r12, [sp, #120]
                                        @ kill: def $r12 killed $r0
	strb.w	r0, [sp, #111]
	str	r1, [sp, #104]
	str	r2, [sp, #100]
	str	r3, [sp, #96]
.Ltmp0:
	.loc	1 22 13 prologue_end            @ ../User/App/Robot.c:22:13
	ldrb.w	r0, [sp, #111]
	.loc	1 22 5 is_stmt 0                @ ../User/App/Robot.c:22:5
	subs	r0, #1
	mov	r1, r0
	str	r1, [sp, #48]                   @ 4-byte Spill
	cmp	r0, #3
	bhi.w	.LBB0_55
@ %bb.1:
	.loc	1 0 5                           @ ../User/App/Robot.c:0:5
	ldr	r1, [sp, #48]                   @ 4-byte Reload
.LCPI0_21:
	tbh	[pc, r1, lsl #1]
@ %bb.2:
.LJTI0_0:
	.short	(.LBB0_3-(.LCPI0_21+4))/2
	.short	(.LBB0_38-(.LCPI0_21+4))/2
	.short	(.LBB0_50-(.LCPI0_21+4))/2
	.short	(.LBB0_51-(.LCPI0_21+4))/2
	.p2align	1
.LBB0_3:
.Ltmp1:
	.loc	1 34 16 is_stmt 1               @ ../User/App/Robot.c:34:16
	ldr	r0, [sp, #104]
	.loc	1 34 31 is_stmt 0               @ ../User/App/Robot.c:34:31
	ldrb.w	r0, [r0, #69]
	lsrs	r0, r0, #2
	.loc	1 34 44                         @ ../User/App/Robot.c:34:44
	lsls	r0, r0, #31
	cbz	r0, .LBB0_7
	b	.LBB0_4
.LBB0_4:
	.loc	1 34 48                         @ ../User/App/Robot.c:34:48
	ldr	r0, [sp, #120]
	.loc	1 34 62                         @ ../User/App/Robot.c:34:62
	vldr	s0, [r0, #12]
	vldr	s2, __arm_cp.0_22
	.loc	1 34 80                         @ ../User/App/Robot.c:34:80
	vcmp.f32	s0, s2
	vmrs	APSR_nzcv, fpscr
	bgt	.LBB0_6
	b	.LBB0_5
.LBB0_5:
	.loc	1 34 83                         @ ../User/App/Robot.c:34:83
	ldr	r0, [sp, #128]
	.loc	1 34 89                         @ ../User/App/Robot.c:34:89
	ldrb	r0, [r0, #11]
.Ltmp2:
	.loc	1 34 16                         @ ../User/App/Robot.c:34:16
	cbnz	r0, .LBB0_7
	b	.LBB0_6
.LBB0_6:
	.loc	1 0 16                          @ ../User/App/Robot.c:0:16
	movs	r0, #0
	movt	r0, #17274
.Ltmp3:
	.loc	1 36 27 is_stmt 1               @ ../User/App/Robot.c:36:27
	str	r0, [sp, #92]
	.loc	1 37 13                         @ ../User/App/Robot.c:37:13
	b	.LBB0_11
.Ltmp4:
.LBB0_7:
	.loc	1 40 30                         @ ../User/App/Robot.c:40:30
	ldr	r0, [sp, #96]
	.loc	1 40 54 is_stmt 0               @ ../User/App/Robot.c:40:54
	ldrh	r0, [r0, #44]
	.loc	1 40 29                         @ ../User/App/Robot.c:40:29
	cbz	r0, .LBB0_9
	b	.LBB0_8
.LBB0_8:
	.loc	1 40 89                         @ ../User/App/Robot.c:40:89
	ldr	r0, [sp, #96]
	.loc	1 40 113                        @ ../User/App/Robot.c:40:113
	ldrh	r0, [r0, #44]
	.loc	1 40 82                         @ ../User/App/Robot.c:40:82
	vmov	s0, r0
	vcvt.f32.u32	s0, s0
	vstr	s0, [sp, #44]                   @ 4-byte Spill
	.loc	1 40 29                         @ ../User/App/Robot.c:40:29
	b	.LBB0_10
.LBB0_9:
	.loc	1 0 29                          @ ../User/App/Robot.c:0:29
	vldr	s0, __arm_cp.0_23
	vstr	s0, [sp, #44]                   @ 4-byte Spill
	.loc	1 40 29                         @ ../User/App/Robot.c:40:29
	b	.LBB0_10
.LBB0_10:
	vldr	s0, [sp, #44]                   @ 4-byte Reload
	.loc	1 40 27                         @ ../User/App/Robot.c:40:27
	vstr	s0, [sp, #92]
	b	.LBB0_11
.Ltmp5:
.LBB0_11:
	.loc	1 44 44 is_stmt 1               @ ../User/App/Robot.c:44:44
	ldr	r0, [sp, #104]
	.loc	1 44 57 is_stmt 0               @ ../User/App/Robot.c:44:57
	ldrsh.w	r2, [r0, #2]
	.loc	1 44 88                         @ ../User/App/Robot.c:44:88
	ldrb.w	r1, [r0, #57]
	.loc	1 44 107                        @ ../User/App/Robot.c:44:107
	and	r0, r1, #15
	.loc	1 44 90                         @ ../User/App/Robot.c:44:90
	rsb	r0, r0, r1, lsr #4
	mov.w	r1, #660
	.loc	1 44 69                         @ ../User/App/Robot.c:44:69
	smlabb	r0, r0, r1, r2
	.loc	1 44 33                         @ ../User/App/Robot.c:44:33
	vmov	s0, r0
	vcvt.f32.s32	s0, s0
	.loc	1 44 13                         @ ../User/App/Robot.c:44:13
	ldr	r0, [sp, #100]
	.loc	1 44 31                         @ ../User/App/Robot.c:44:31
	vstr	s0, [r0]
	.loc	1 45 44 is_stmt 1               @ ../User/App/Robot.c:45:44
	ldr	r0, [sp, #104]
	.loc	1 45 57 is_stmt 0               @ ../User/App/Robot.c:45:57
	ldrsh.w	r2, [r0, #4]
	.loc	1 45 88                         @ ../User/App/Robot.c:45:88
	ldrb.w	r3, [r0, #56]
	and	r0, r3, #15
	.loc	1 45 90                         @ ../User/App/Robot.c:45:90
	sub.w	r0, r0, r3, lsr #4
	.loc	1 45 69                         @ ../User/App/Robot.c:45:69
	smlabb	r0, r0, r1, r2
	.loc	1 45 33                         @ ../User/App/Robot.c:45:33
	vmov	s0, r0
	vcvt.f32.s32	s0, s0
	.loc	1 45 13                         @ ../User/App/Robot.c:45:13
	ldr	r0, [sp, #100]
	.loc	1 45 31                         @ ../User/App/Robot.c:45:31
	vstr	s0, [r0, #4]
	.loc	1 46 44 is_stmt 1               @ ../User/App/Robot.c:46:44
	ldr	r0, [sp, #104]
	.loc	1 46 57 is_stmt 0               @ ../User/App/Robot.c:46:57
	ldrsh.w	r2, [r0, #10]
	.loc	1 46 87                         @ ../User/App/Robot.c:46:87
	ldrb.w	r0, [r0, #58]
	.loc	1 46 72                         @ ../User/App/Robot.c:46:72
	and	r0, r0, #15
	.loc	1 46 70                         @ ../User/App/Robot.c:46:70
	smlabb	r0, r0, r1, r2
	.loc	1 46 33                         @ ../User/App/Robot.c:46:33
	vmov	s0, r0
	vcvt.f32.s32	s0, s0
	.loc	1 46 13                         @ ../User/App/Robot.c:46:13
	ldr	r0, [sp, #100]
	.loc	1 46 31                         @ ../User/App/Robot.c:46:31
	vstr	s0, [r0, #8]
.Ltmp6:
	.loc	1 49 16 is_stmt 1               @ ../User/App/Robot.c:49:16
	ldr	r0, [sp, #100]
	.loc	1 49 31 is_stmt 0               @ ../User/App/Robot.c:49:31
	vldr	s0, [r0]
	.loc	1 49 39                         @ ../User/App/Robot.c:49:39
	vcmp.f32	s0, #0
	vmrs	APSR_nzcv, fpscr
	bne	.LBB0_14
	b	.LBB0_12
.LBB0_12:
	.loc	1 49 42                         @ ../User/App/Robot.c:49:42
	ldr	r0, [sp, #100]
	.loc	1 49 57                         @ ../User/App/Robot.c:49:57
	vldr	s0, [r0, #4]
	.loc	1 49 65                         @ ../User/App/Robot.c:49:65
	vcmp.f32	s0, #0
	vmrs	APSR_nzcv, fpscr
	bne	.LBB0_14
	b	.LBB0_13
.LBB0_13:
	.loc	1 49 68                         @ ../User/App/Robot.c:49:68
	ldr	r0, [sp, #100]
	.loc	1 49 83                         @ ../User/App/Robot.c:49:83
	vldr	s0, [r0, #8]
.Ltmp7:
	.loc	1 49 16                         @ ../User/App/Robot.c:49:16
	vcmp.f32	s0, #0
	vmrs	APSR_nzcv, fpscr
	beq	.LBB0_17
	b	.LBB0_14
.LBB0_14:
.Ltmp8:
	.loc	1 51 28 is_stmt 1               @ ../User/App/Robot.c:51:28
	movw	r0, :lower16:RobotTask.SLOW_START
	movt	r0, :upper16:RobotTask.SLOW_START
	str	r0, [sp, #40]                   @ 4-byte Spill
	vldr	s0, [r0]
	vldr	s2, __arm_cp.0_24
	vadd.f32	s0, s0, s2
	vstr	s0, [r0]
	.loc	1 52 69                         @ ../User/App/Robot.c:52:69
	vldr	s0, [sp, #92]
	.loc	1 52 40 is_stmt 0               @ ../User/App/Robot.c:52:40
	bl	RUI_F_CHASSIS_GET_MAX_TARGET
	ldr	r0, [sp, #40]                   @ 4-byte Reload
	.loc	1 52 23                         @ ../User/App/Robot.c:52:23
	vstr	s0, [sp, #88]
.Ltmp9:
	.loc	1 53 20 is_stmt 1               @ ../User/App/Robot.c:53:20
	vldr	s0, [r0]
	.loc	1 53 33 is_stmt 0               @ ../User/App/Robot.c:53:33
	vldr	s2, [sp, #88]
.Ltmp10:
	.loc	1 53 20                         @ ../User/App/Robot.c:53:20
	vcmp.f32	s0, s2
	vmrs	APSR_nzcv, fpscr
	ble	.LBB0_16
	b	.LBB0_15
.LBB0_15:
.Ltmp11:
	.loc	1 55 34 is_stmt 1               @ ../User/App/Robot.c:55:34
	ldr	r0, [sp, #88]
	.loc	1 55 32 is_stmt 0               @ ../User/App/Robot.c:55:32
	movw	r1, :lower16:RobotTask.SLOW_START
	movt	r1, :upper16:RobotTask.SLOW_START
	str	r0, [r1]
	.loc	1 56 17 is_stmt 1               @ ../User/App/Robot.c:56:17
	b	.LBB0_16
.Ltmp12:
.LBB0_16:
	.loc	1 57 13                         @ ../User/App/Robot.c:57:13
	b	.LBB0_18
.Ltmp13:
.LBB0_17:
	.loc	1 60 28                         @ ../User/App/Robot.c:60:28
	movw	r1, :lower16:RobotTask.SLOW_START
	movt	r1, :upper16:RobotTask.SLOW_START
	movs	r0, #0
	str	r0, [r1]
	b	.LBB0_18
.Ltmp14:
.LBB0_18:
	.loc	1 63 93                         @ ../User/App/Robot.c:63:93
	movw	r0, :lower16:RobotTask.FIX_ANGLE
	movt	r0, :upper16:RobotTask.FIX_ANGLE
	str	r0, [sp, #24]                   @ 4-byte Spill
	vldr	s0, [r0]
	.loc	1 63 72 is_stmt 0               @ ../User/App/Robot.c:63:72
	bl	RUI_F_MATH_ABS_float
	vmov.f32	s2, s0
	vldr	s0, __arm_cp.0_25
	vstr	s0, [sp, #32]                   @ 4-byte Spill
	vldr	s1, __arm_cp.0_26
	vstr	s1, [sp, #28]                   @ 4-byte Spill
	.loc	1 63 40                         @ ../User/App/Robot.c:63:40
	bl	RUI_F_MATH_Limit_float
	ldr	r0, [sp, #24]                   @ 4-byte Reload
	vldr	s2, [sp, #32]                   @ 4-byte Reload
	.loc	1 63 105                        @ ../User/App/Robot.c:63:105
	vdiv.f32	s2, s0, s2
	vmov.f32	s0, #1.000000e+00
	vstr	s0, [sp, #36]                   @ 4-byte Spill
	.loc	1 63 38                         @ ../User/App/Robot.c:63:38
	vsub.f32	s2, s0, s2
	.loc	1 63 13                         @ ../User/App/Robot.c:63:13
	ldr	r1, [sp, #100]
	.loc	1 63 31                         @ ../User/App/Robot.c:63:31
	vldr	s0, [r1]
	vmul.f32	s0, s0, s2
	vstr	s0, [r1]
	.loc	1 64 93 is_stmt 1               @ ../User/App/Robot.c:64:93
	vldr	s0, [r0]
	.loc	1 64 72 is_stmt 0               @ ../User/App/Robot.c:64:72
	bl	RUI_F_MATH_ABS_float
	vldr	s1, [sp, #28]                   @ 4-byte Reload
	vmov.f32	s2, s0
	.loc	1 64 40                         @ ../User/App/Robot.c:64:40
	vldr	s0, [sp, #32]                   @ 4-byte Reload
	bl	RUI_F_MATH_Limit_float
	vldr	s4, [sp, #32]                   @ 4-byte Reload
	vmov.f32	s2, s0
	.loc	1 64 105                        @ ../User/App/Robot.c:64:105
	vldr	s0, [sp, #36]                   @ 4-byte Reload
	vdiv.f32	s2, s2, s4
	.loc	1 64 38                         @ ../User/App/Robot.c:64:38
	vsub.f32	s2, s0, s2
	.loc	1 64 13                         @ ../User/App/Robot.c:64:13
	ldr	r0, [sp, #100]
	.loc	1 64 31                         @ ../User/App/Robot.c:64:31
	vldr	s0, [r0, #4]
	vmul.f32	s0, s0, s2
	vstr	s0, [r0, #4]
	.loc	1 66 34 is_stmt 1               @ ../User/App/Robot.c:66:34
	movw	r0, :lower16:RobotTask.SLOW_START
	movt	r0, :upper16:RobotTask.SLOW_START
	vldr	s2, [r0]
	.loc	1 66 13 is_stmt 0               @ ../User/App/Robot.c:66:13
	ldr	r1, [sp, #100]
	.loc	1 66 31                         @ ../User/App/Robot.c:66:31
	vldr	s0, [r1]
	vmul.f32	s0, s0, s2
	vstr	s0, [r1]
	.loc	1 67 34 is_stmt 1               @ ../User/App/Robot.c:67:34
	vldr	s2, [r0]
	.loc	1 67 13 is_stmt 0               @ ../User/App/Robot.c:67:13
	ldr	r1, [sp, #100]
	.loc	1 67 31                         @ ../User/App/Robot.c:67:31
	vldr	s0, [r1, #4]
	vmul.f32	s0, s0, s2
	vstr	s0, [r1, #4]
	.loc	1 68 34 is_stmt 1               @ ../User/App/Robot.c:68:34
	vldr	s2, [r0]
	.loc	1 68 13 is_stmt 0               @ ../User/App/Robot.c:68:13
	ldr	r0, [sp, #100]
	.loc	1 68 31                         @ ../User/App/Robot.c:68:31
	vldr	s0, [r0, #8]
	vmul.f32	s0, s0, s2
	vstr	s0, [r0, #8]
.Ltmp15:
	.loc	1 71 17 is_stmt 1               @ ../User/App/Robot.c:71:17
	ldr	r0, [sp, #104]
	.loc	1 71 32 is_stmt 0               @ ../User/App/Robot.c:71:32
	ldrb.w	r0, [r0, #63]
.Ltmp16:
	.loc	1 71 17                         @ ../User/App/Robot.c:71:17
	lsls	r0, r0, #28
	cbz	r0, .LBB0_20
	b	.LBB0_19
.LBB0_19:
.Ltmp17:
	.loc	1 73 17 is_stmt 1               @ ../User/App/Robot.c:73:17
	ldr	r0, [sp, #100]
	.loc	1 73 35 is_stmt 0               @ ../User/App/Robot.c:73:35
	vldr	s0, [r0, #8]
	vldr	s2, __arm_cp.0_27
	vmul.f32	s0, s0, s2
	vstr	s0, [r0, #8]
	.loc	1 74 13 is_stmt 1               @ ../User/App/Robot.c:74:13
	b	.LBB0_20
.Ltmp18:
.LBB0_20:
	.loc	1 76 16                         @ ../User/App/Robot.c:76:16
	ldr	r0, [sp, #100]
	.loc	1 76 31 is_stmt 0               @ ../User/App/Robot.c:76:31
	vldr	s0, [r0, #8]
	.loc	1 76 39                         @ ../User/App/Robot.c:76:39
	vcmp.f32	s0, #0
	vmrs	APSR_nzcv, fpscr
	bne	.LBB0_22
	b	.LBB0_21
.LBB0_21:
	.loc	1 76 42                         @ ../User/App/Robot.c:76:42
	ldr	r0, [sp, #128]
	.loc	1 76 48                         @ ../User/App/Robot.c:76:48
	ldrb	r0, [r0]
.Ltmp19:
	.loc	1 76 16                         @ ../User/App/Robot.c:76:16
	cbnz	r0, .LBB0_36
	b	.LBB0_22
.LBB0_22:
.Ltmp20:
	.loc	1 78 27 is_stmt 1               @ ../User/App/Robot.c:78:27
	movw	r1, :lower16:RobotTask.FIX_ANGLE
	movt	r1, :upper16:RobotTask.FIX_ANGLE
	movs	r0, #0
	str	r0, [r1]
	.loc	1 79 13                         @ ../User/App/Robot.c:79:13
	b	.LBB0_37
.Ltmp21:
	.p2align	2
@ %bb.23:
	.loc	1 0 13 is_stmt 0                @ ../User/App/Robot.c:0:13
__arm_cp.0_22:
	.long	0x43340000                      @ float 180
.Lcpi_end0:
	.size	__arm_cp.0_22, .Lcpi_end0-__arm_cp.0_22
	.p2align	2
@ %bb.24:
__arm_cp.0_23:
	.long	0x42340000                      @ float 45
.Lcpi_end1:
	.size	__arm_cp.0_23, .Lcpi_end1-__arm_cp.0_23
	.p2align	2
@ %bb.25:
__arm_cp.0_24:
	.long	0x3b03126f                      @ float 0.00200000009
.Lcpi_end2:
	.size	__arm_cp.0_24, .Lcpi_end2-__arm_cp.0_24
	.p2align	2
@ %bb.26:
__arm_cp.0_25:
	.long	0x452be000                      @ float 2750
.Lcpi_end3:
	.size	__arm_cp.0_25, .Lcpi_end3-__arm_cp.0_25
	.p2align	2
@ %bb.27:
__arm_cp.0_26:
	.long	0x00000000                      @ float 0
.Lcpi_end4:
	.size	__arm_cp.0_26, .Lcpi_end4-__arm_cp.0_26
	.p2align	2
@ %bb.28:
__arm_cp.0_27:
	.long	0x3ecccccd                      @ float 0.400000006
.Lcpi_end5:
	.size	__arm_cp.0_27, .Lcpi_end5-__arm_cp.0_27
	.p2align	2
@ %bb.29:
__arm_cp.0_28:
	.long	0x44250000                      @ float 660
.Lcpi_end6:
	.size	__arm_cp.0_28, .Lcpi_end6-__arm_cp.0_28
	.p2align	2
@ %bb.30:
__arm_cp.0_29:
	.long	0xc4250000                      @ float -660
.Lcpi_end7:
	.size	__arm_cp.0_29, .Lcpi_end7-__arm_cp.0_29
	.p2align	2
@ %bb.31:
__arm_cp.0_30:
	.long	0xc35c0000                      @ float -220
.Lcpi_end8:
	.size	__arm_cp.0_30, .Lcpi_end8-__arm_cp.0_30
	.p2align	2
@ %bb.32:
__arm_cp.0_31:
	.long	0x3727c5ac                      @ float 9.99999974E-6
.Lcpi_end9:
	.size	__arm_cp.0_31, .Lcpi_end9-__arm_cp.0_31
	.p2align	2
@ %bb.33:
__arm_cp.0_32:
	.long	0x3d4ccccd                      @ float 0.0500000007
.Lcpi_end10:
	.size	__arm_cp.0_32, .Lcpi_end10-__arm_cp.0_32
	.p2align	2
@ %bb.34:
__arm_cp.0_33:
	.long	0x45800000                      @ float 4096
.Lcpi_end11:
	.size	__arm_cp.0_33, .Lcpi_end11-__arm_cp.0_33
	.p2align	2
@ %bb.35:
__arm_cp.0_34:
	.long	0xba494fe8                      @ float -7.67944846E-4
.Lcpi_end12:
	.size	__arm_cp.0_34, .Lcpi_end12-__arm_cp.0_34
	.p2align	1
.LBB0_36:
.Ltmp22:
	.loc	1 82 45 is_stmt 1               @ ../User/App/Robot.c:82:45
	ldr	r0, [sp, #104]
	.loc	1 82 58 is_stmt 0               @ ../User/App/Robot.c:82:58
	ldrsh.w	r1, [r0, #6]
	.loc	1 82 37                         @ ../User/App/Robot.c:82:37
	vmov	s0, r1
	vcvt.f32.s32	s0, s0
	vstr	s0, [sp, #8]                    @ 4-byte Spill
	.loc	1 82 116                        @ ../User/App/Robot.c:82:116
	vldr	s2, [r0, #16]
	vldr	s0, __arm_cp.0_28
	vstr	s0, [sp, #16]                   @ 4-byte Spill
	vldr	s1, __arm_cp.0_29
	vstr	s1, [sp, #12]                   @ 4-byte Spill
	.loc	1 82 70                         @ ../User/App/Robot.c:82:70
	bl	RUI_F_MATH_Limit_float
	vmov.f32	s2, s0
	.loc	1 82 68                         @ ../User/App/Robot.c:82:68
	vldr	s0, [sp, #8]                    @ 4-byte Reload
	vadd.f32	s0, s0, s2
	vldr	s2, __arm_cp.0_30
	.loc	1 82 124                        @ ../User/App/Robot.c:82:124
	vdiv.f32	s2, s0, s2
	vmov.f32	s0, #3.000000e+00
	.loc	1 82 33                         @ ../User/App/Robot.c:82:33
	vadd.f32	s2, s2, s0
	.loc	1 82 23                         @ ../User/App/Robot.c:82:23
	vstr	s2, [sp, #84]
	.loc	1 83 57 is_stmt 1               @ ../User/App/Robot.c:83:57
	vldr	s2, [sp, #84]
	vmov.f32	s1, #5.000000e-01
	.loc	1 83 22 is_stmt 0               @ ../User/App/Robot.c:83:22
	bl	RUI_F_MATH_Limit_float
	.loc	1 83 20                         @ ../User/App/Robot.c:83:20
	vstr	s0, [sp, #84]
	.loc	1 85 47 is_stmt 1               @ ../User/App/Robot.c:85:47
	ldr	r0, [sp, #100]
	.loc	1 85 58 is_stmt 0               @ ../User/App/Robot.c:85:58
	ldrsh.w	r0, [r0, #76]
	.loc	1 85 74                         @ ../User/App/Robot.c:85:74
	vldr	s0, [sp, #84]
	vldr	s1, __arm_cp.0_31
	vldr	s2, __arm_cp.0_32
	.loc	1 85 29                         @ ../User/App/Robot.c:85:29
	bl	RUI_F_CHASSIS_PID
	vldr	s1, [sp, #12]                   @ 4-byte Reload
	vmov.f32	s2, s0
	.loc	1 85 27                         @ ../User/App/Robot.c:85:27
	vldr	s0, [sp, #16]                   @ 4-byte Reload
	movw	r0, :lower16:RobotTask.FIX_ANGLE
	movt	r0, :upper16:RobotTask.FIX_ANGLE
	vstr	s2, [r0]
	.loc	1 87 50 is_stmt 1               @ ../User/App/Robot.c:87:50
	ldr	r0, [sp, #104]
	.loc	1 87 63 is_stmt 0               @ ../User/App/Robot.c:87:63
	ldrsh.w	r1, [r0, #6]
	.loc	1 87 73                         @ ../User/App/Robot.c:87:73
	lsls	r1, r1, #2
	.loc	1 87 40                         @ ../User/App/Robot.c:87:40
	vmov	s2, r1
	vcvt.f32.s32	s2, s2
	vstr	s2, [sp, #20]                   @ 4-byte Spill
	.loc	1 87 128                        @ ../User/App/Robot.c:87:128
	vldr	s2, [r0, #16]
	vmov.f32	s4, #1.200000e+01
	.loc	1 87 134                        @ ../User/App/Robot.c:87:134
	vmul.f32	s2, s2, s4
	.loc	1 87 82                         @ ../User/App/Robot.c:87:82
	bl	RUI_F_MATH_Limit_float
	vmov.f32	s2, s0
	.loc	1 87 80                         @ ../User/App/Robot.c:87:80
	vldr	s0, [sp, #20]                   @ 4-byte Reload
	vadd.f32	s0, s0, s2
	.loc	1 87 38                         @ ../User/App/Robot.c:87:38
	movw	r0, :lower16:RobotTask.RUI_V_FOLLOW_PREDICT
	movt	r0, :upper16:RobotTask.RUI_V_FOLLOW_PREDICT
	vstr	s0, [r0]
	b	.LBB0_37
.Ltmp23:
.LBB0_37:
	.loc	1 91 42 is_stmt 1               @ ../User/App/Robot.c:91:42
	ldr	r0, [sp, #100]
	.loc	1 91 53 is_stmt 0               @ ../User/App/Robot.c:91:53
	ldrsh.w	r0, [r0, #76]
	.loc	1 91 34                         @ ../User/App/Robot.c:91:34
	vmov	s0, r0
	vcvt.f32.s32	s0, s0
	vldr	s2, __arm_cp.0_33
	.loc	1 91 68                         @ ../User/App/Robot.c:91:68
	vadd.f32	s0, s0, s2
	.loc	1 91 19                         @ ../User/App/Robot.c:91:19
	vstr	s0, [sp, #80]
	.loc	1 92 32 is_stmt 1               @ ../User/App/Robot.c:92:32
	vldr	s0, [sp, #80]
	vldr	s2, __arm_cp.0_34
	.loc	1 92 45 is_stmt 0               @ ../User/App/Robot.c:92:45
	vmul.f32	s0, s0, s2
	.loc	1 92 19                         @ ../User/App/Robot.c:92:19
	vstr	s0, [sp, #76]
	.loc	1 94 43 is_stmt 1               @ ../User/App/Robot.c:94:43
	vldr	s0, [sp, #76]
	.loc	1 94 31 is_stmt 0               @ ../User/App/Robot.c:94:31
	bl	arm_cos_f32
	.loc	1 94 19                         @ ../User/App/Robot.c:94:19
	vstr	s0, [sp, #72]
	.loc	1 95 43 is_stmt 1               @ ../User/App/Robot.c:95:43
	vldr	s0, [sp, #76]
	.loc	1 95 31 is_stmt 0               @ ../User/App/Robot.c:95:31
	bl	arm_sin_f32
	.loc	1 95 19                         @ ../User/App/Robot.c:95:19
	vstr	s0, [sp, #68]
	.loc	1 97 32 is_stmt 1               @ ../User/App/Robot.c:97:32
	ldr	r0, [sp, #100]
	.loc	1 97 52 is_stmt 0               @ ../User/App/Robot.c:97:52
	vldr	s4, [sp, #72]
	.loc	1 97 47                         @ ../User/App/Robot.c:97:47
	vldr	s0, [r0]
	.loc	1 97 79                         @ ../User/App/Robot.c:97:79
	vldr	s2, [r0, #4]
	.loc	1 97 84                         @ ../User/App/Robot.c:97:84
	vldr	s6, [sp, #68]
	.loc	1 97 82                         @ ../User/App/Robot.c:97:82
	vmul.f32	s2, s2, s6
	.loc	1 97 62                         @ ../User/App/Robot.c:97:62
	vmul.f32	s0, s0, s4
	vsub.f32	s0, s0, s2
	.loc	1 97 19                         @ ../User/App/Robot.c:97:19
	vstr	s0, [sp, #64]
	.loc	1 98 32 is_stmt 1               @ ../User/App/Robot.c:98:32
	ldr	r0, [sp, #100]
	.loc	1 98 52 is_stmt 0               @ ../User/App/Robot.c:98:52
	vldr	s4, [sp, #68]
	.loc	1 98 47                         @ ../User/App/Robot.c:98:47
	vldr	s0, [r0]
	.loc	1 98 79                         @ ../User/App/Robot.c:98:79
	vldr	s2, [r0, #4]
	.loc	1 98 84                         @ ../User/App/Robot.c:98:84
	vldr	s6, [sp, #72]
	.loc	1 98 82                         @ ../User/App/Robot.c:98:82
	vmul.f32	s2, s2, s6
	.loc	1 98 62                         @ ../User/App/Robot.c:98:62
	vmul.f32	s0, s0, s4
	vadd.f32	s0, s0, s2
	.loc	1 98 19                         @ ../User/App/Robot.c:98:19
	vstr	s0, [sp, #60]
	.loc	1 101 39 is_stmt 1              @ ../User/App/Robot.c:101:39
	vldr	s2, [sp, #64]
	.loc	1 101 52 is_stmt 0              @ ../User/App/Robot.c:101:52
	vldr	s0, [sp, #60]
	.loc	1 101 50                        @ ../User/App/Robot.c:101:50
	vsub.f32	s2, s0, s2
	.loc	1 101 67                        @ ../User/App/Robot.c:101:67
	ldr	r0, [sp, #100]
	.loc	1 101 82                        @ ../User/App/Robot.c:101:82
	vldr	s0, [r0, #8]
	.loc	1 101 87                        @ ../User/App/Robot.c:101:87
	movw	r2, :lower16:RobotTask.FIX_ANGLE
	movt	r2, :upper16:RobotTask.FIX_ANGLE
	vldr	s4, [r2]
	.loc	1 101 85                        @ ../User/App/Robot.c:101:85
	vadd.f32	s0, s0, s4
	.loc	1 101 99                        @ ../User/App/Robot.c:101:99
	movw	r1, :lower16:RobotTask.RUI_V_FOLLOW_PREDICT
	movt	r1, :upper16:RobotTask.RUI_V_FOLLOW_PREDICT
	vldr	s4, [r1]
	.loc	1 101 97                        @ ../User/App/Robot.c:101:97
	vadd.f32	s0, s0, s4
	.loc	1 101 64                        @ ../User/App/Robot.c:101:64
	vadd.f32	s0, s0, s2
	.loc	1 101 35                        @ ../User/App/Robot.c:101:35
	vstr	s0, [r0, #12]
	.loc	1 102 38 is_stmt 1              @ ../User/App/Robot.c:102:38
	vldr	s0, [sp, #64]
	.loc	1 102 51 is_stmt 0              @ ../User/App/Robot.c:102:51
	vldr	s2, [sp, #60]
	.loc	1 102 49                        @ ../User/App/Robot.c:102:49
	vadd.f32	s0, s0, s2
	.loc	1 102 66                        @ ../User/App/Robot.c:102:66
	ldr	r0, [sp, #100]
	.loc	1 102 81                        @ ../User/App/Robot.c:102:81
	vldr	s2, [r0, #8]
	.loc	1 102 86                        @ ../User/App/Robot.c:102:86
	vldr	s4, [r2]
	.loc	1 102 84                        @ ../User/App/Robot.c:102:84
	vadd.f32	s2, s2, s4
	.loc	1 102 98                        @ ../User/App/Robot.c:102:98
	vldr	s4, [r1]
	.loc	1 102 96                        @ ../User/App/Robot.c:102:96
	vadd.f32	s2, s2, s4
	.loc	1 102 63                        @ ../User/App/Robot.c:102:63
	vadd.f32	s0, s0, s2
	.loc	1 102 35                        @ ../User/App/Robot.c:102:35
	vstr	s0, [r0, #16]
	.loc	1 103 38 is_stmt 1              @ ../User/App/Robot.c:103:38
	vldr	s0, [sp, #64]
	.loc	1 103 51 is_stmt 0              @ ../User/App/Robot.c:103:51
	vldr	s2, [sp, #60]
	.loc	1 103 49                        @ ../User/App/Robot.c:103:49
	vsub.f32	s0, s0, s2
	.loc	1 103 66                        @ ../User/App/Robot.c:103:66
	ldr	r0, [sp, #100]
	.loc	1 103 81                        @ ../User/App/Robot.c:103:81
	vldr	s2, [r0, #8]
	.loc	1 103 86                        @ ../User/App/Robot.c:103:86
	vldr	s4, [r2]
	.loc	1 103 84                        @ ../User/App/Robot.c:103:84
	vadd.f32	s2, s2, s4
	.loc	1 103 98                        @ ../User/App/Robot.c:103:98
	vldr	s4, [r1]
	.loc	1 103 96                        @ ../User/App/Robot.c:103:96
	vadd.f32	s2, s2, s4
	.loc	1 103 63                        @ ../User/App/Robot.c:103:63
	vadd.f32	s0, s0, s2
	.loc	1 103 35                        @ ../User/App/Robot.c:103:35
	vstr	s0, [r0, #20]
	.loc	1 104 39 is_stmt 1              @ ../User/App/Robot.c:104:39
	vldr	s0, [sp, #64]
	.loc	1 104 38 is_stmt 0              @ ../User/App/Robot.c:104:38
	vneg.f32	s0, s0
	.loc	1 104 52                        @ ../User/App/Robot.c:104:52
	vldr	s2, [sp, #60]
	.loc	1 104 50                        @ ../User/App/Robot.c:104:50
	vsub.f32	s0, s0, s2
	.loc	1 104 67                        @ ../User/App/Robot.c:104:67
	ldr	r0, [sp, #100]
	.loc	1 104 82                        @ ../User/App/Robot.c:104:82
	vldr	s2, [r0, #8]
	.loc	1 104 87                        @ ../User/App/Robot.c:104:87
	vldr	s4, [r2]
	.loc	1 104 85                        @ ../User/App/Robot.c:104:85
	vadd.f32	s2, s2, s4
	.loc	1 104 99                        @ ../User/App/Robot.c:104:99
	vldr	s4, [r1]
	.loc	1 104 97                        @ ../User/App/Robot.c:104:97
	vadd.f32	s2, s2, s4
	.loc	1 104 64                        @ ../User/App/Robot.c:104:64
	vadd.f32	s0, s0, s2
	.loc	1 104 35                        @ ../User/App/Robot.c:104:35
	vstr	s0, [r0, #24]
.Ltmp24:
	.loc	1 106 11 is_stmt 1              @ ../User/App/Robot.c:106:11
	b	.LBB0_55
.LBB0_38:
.Ltmp25:
	.loc	1 112 40                        @ ../User/App/Robot.c:112:40
	ldr	r0, [sp, #104]
	.loc	1 112 53 is_stmt 0              @ ../User/App/Robot.c:112:53
	ldrb	r0, [r0, #13]
	.loc	1 112 65                        @ ../User/App/Robot.c:112:65
	cmp	r0, #2
	beq	.LBB0_40
	b	.LBB0_39
.LBB0_39:
	.loc	1 112 85                        @ ../User/App/Robot.c:112:85
	movw	r0, :lower16:VT13_DBUS
	movt	r0, :upper16:VT13_DBUS
	ldrb.w	r0, [r0, #52]
	and	r1, r0, #15
	movs	r0, #0
	.loc	1 112 100                       @ ../User/App/Robot.c:112:100
	cmp	r1, #2
	str	r0, [sp, #4]                    @ 4-byte Spill
	bne	.LBB0_43
	b	.LBB0_40
.LBB0_40:
	.loc	1 113 57 is_stmt 1              @ ../User/App/Robot.c:113:57
	movw	r0, :lower16:VisionRxDataTemp
	movt	r0, :upper16:VisionRxDataTemp
	ldrb.w	r0, [r0, #52]
	lsrs	r1, r0, #4
	movs	r0, #0
	.loc	1 113 70 is_stmt 0              @ ../User/App/Robot.c:113:70
	lsls	r1, r1, #31
	str	r0, [sp]                        @ 4-byte Spill
	cbz	r1, .LBB0_42
	b	.LBB0_41
.LBB0_41:
	.loc	1 113 91                        @ ../User/App/Robot.c:113:91
	movw	r0, :lower16:VisionRxDataTemp
	movt	r0, :upper16:VisionRxDataTemp
	ldrh	r1, [r0, #40]
	movs	r0, #0
	.loc	1 113 103                       @ ../User/App/Robot.c:113:103
	cmp.w	r1, #900
	it	le
	movle	r0, #1
	str	r0, [sp]                        @ 4-byte Spill
	b	.LBB0_42
.LBB0_42:
	.loc	1 0 0                           @ ../User/App/Robot.c:0:0
	ldr	r0, [sp]                        @ 4-byte Reload
	str	r0, [sp, #4]                    @ 4-byte Spill
	b	.LBB0_43
.LBB0_43:
	ldr	r0, [sp, #4]                    @ 4-byte Reload
	.loc	1 112 38 is_stmt 1              @ ../User/App/Robot.c:112:38
	and	r0, r0, #1
	.loc	1 112 21 is_stmt 0              @ ../User/App/Robot.c:112:21
	strb.w	r0, [sp, #59]
.Ltmp26:
	.loc	1 115 17 is_stmt 1              @ ../User/App/Robot.c:115:17
	ldr	r0, [sp, #104]
	.loc	1 115 30 is_stmt 0              @ ../User/App/Robot.c:115:30
	ldrb	r0, [r0, #13]
.Ltmp27:
	.loc	1 115 17                        @ ../User/App/Robot.c:115:17
	cmp	r0, #1
	bne	.LBB0_45
	b	.LBB0_44
.LBB0_44:
.Ltmp28:
	.loc	1 118 47 is_stmt 1              @ ../User/App/Robot.c:118:47
	movw	r0, :lower16:IMU_Data
	movt	r0, :upper16:IMU_Data
	vldr	s0, [r0, #56]
	vldr	s2, .LCPI0_6
	.loc	1 118 53 is_stmt 0              @ ../User/App/Robot.c:118:53
	vmul.f32	s0, s0, s2
	.loc	1 118 17                        @ ../User/App/Robot.c:118:17
	ldr	r1, [sp, #100]
	.loc	1 118 36                        @ ../User/App/Robot.c:118:36
	vstr	s0, [r1, #32]
	.loc	1 119 45 is_stmt 1              @ ../User/App/Robot.c:119:45
	vldr	s0, [r0, #68]
	vldr	s2, .LCPI0_7
	.loc	1 119 59 is_stmt 0              @ ../User/App/Robot.c:119:59
	vmul.f32	s0, s0, s2
	.loc	1 119 17                        @ ../User/App/Robot.c:119:17
	ldr	r0, [sp, #100]
	.loc	1 119 34                        @ ../User/App/Robot.c:119:34
	vstr	s0, [r0, #44]
	.loc	1 122 21 is_stmt 1              @ ../User/App/Robot.c:122:21
	ldr	r0, [sp, #100]
	.loc	1 122 34 is_stmt 0              @ ../User/App/Robot.c:122:34
	vldr	s0, [r0, #32]
	.loc	1 122 19                        @ ../User/App/Robot.c:122:19
	vcvt.s32.f32	s0, s0
	movw	r0, :lower16:a
	movt	r0, :upper16:a
	vstr	s0, [r0]
	.loc	1 123 21 is_stmt 1              @ ../User/App/Robot.c:123:21
	ldr	r0, [sp, #100]
	.loc	1 123 34 is_stmt 0              @ ../User/App/Robot.c:123:34
	vldr	s0, [r0, #44]
	.loc	1 123 19                        @ ../User/App/Robot.c:123:19
	vcvt.s32.f32	s0, s0
	movw	r0, :lower16:b
	movt	r0, :upper16:b
	vstr	s0, [r0]
	.loc	1 124 35 is_stmt 1              @ ../User/App/Robot.c:124:35
	movw	r1, :lower16:all_ui
	movt	r1, :upper16:all_ui
	movs	r0, #0
	strb	r0, [r1, #12]
	.loc	1 125 13                        @ ../User/App/Robot.c:125:13
	b	.LBB0_49
.Ltmp29:
.LBB0_45:
	.loc	1 126 22                        @ ../User/App/Robot.c:126:22
	ldrb.w	r0, [sp, #59]
.Ltmp30:
	.loc	1 126 22 is_stmt 0              @ ../User/App/Robot.c:126:22
	cmp	r0, #0
	beq	.LBB0_47
	b	.LBB0_46
.LBB0_46:
.Ltmp31:
	.loc	1 130 55 is_stmt 1              @ ../User/App/Robot.c:130:55
	movw	r0, :lower16:VisionRxDataTemp
	movt	r0, :upper16:VisionRxDataTemp
	vldr	s0, [r0, #24]
	.loc	1 130 68 is_stmt 0              @ ../User/App/Robot.c:130:68
	movw	r1, :lower16:pitchvison
	movt	r1, :upper16:pitchvison
	vldr	s4, [r1]
	.loc	1 130 89                        @ ../User/App/Robot.c:130:89
	ldr	r1, [sp, #104]
	.loc	1 130 102                       @ ../User/App/Robot.c:130:102
	ldrsh.w	r1, [r1, #8]
	.loc	1 130 81                        @ ../User/App/Robot.c:130:81
	vmov	s2, r1
	vcvt.f32.s32	s2, s2
	vldr	s6, .LCPI0_5
	.loc	1 130 113                       @ ../User/App/Robot.c:130:113
	vmul.f32	s2, s2, s6
	.loc	1 130 79                        @ ../User/App/Robot.c:130:79
	vmul.f32	s0, s0, s4
	vsub.f32	s0, s0, s2
	.loc	1 130 17                        @ ../User/App/Robot.c:130:17
	ldr	r1, [sp, #100]
	.loc	1 130 36                        @ ../User/App/Robot.c:130:36
	vstr	s0, [r1, #32]
	.loc	1 131 53 is_stmt 1              @ ../User/App/Robot.c:131:53
	vldr	s0, [r0, #28]
	.loc	1 131 64 is_stmt 0              @ ../User/App/Robot.c:131:64
	movw	r0, :lower16:yawvison
	movt	r0, :upper16:yawvison
	vldr	s4, [r0]
	.loc	1 131 83                        @ ../User/App/Robot.c:131:83
	ldr	r0, [sp, #104]
	.loc	1 131 96                        @ ../User/App/Robot.c:131:96
	ldrsh.w	r0, [r0, #6]
	.loc	1 131 75                        @ ../User/App/Robot.c:131:75
	vmov	s2, r0
	vcvt.f32.s32	s2, s2
	.loc	1 131 107                       @ ../User/App/Robot.c:131:107
	vmul.f32	s2, s2, s6
	.loc	1 131 73                        @ ../User/App/Robot.c:131:73
	vmul.f32	s0, s0, s4
	vsub.f32	s0, s0, s2
	.loc	1 131 17                        @ ../User/App/Robot.c:131:17
	ldr	r0, [sp, #100]
	.loc	1 131 34                        @ ../User/App/Robot.c:131:34
	vstr	s0, [r0, #44]
	.loc	1 133 35 is_stmt 1              @ ../User/App/Robot.c:133:35
	movw	r1, :lower16:all_ui
	movt	r1, :upper16:all_ui
	movs	r0, #1
	strb	r0, [r1, #12]
	.loc	1 136 61                        @ ../User/App/Robot.c:136:61
	ldr	r0, [sp, #100]
	.loc	1 136 122 is_stmt 0             @ ../User/App/Robot.c:136:122
	vldr	s2, [r0, #32]
	.loc	1 136 74                        @ ../User/App/Robot.c:136:74
	vldr	s0, [r0, #36]
	.loc	1 136 98                        @ ../User/App/Robot.c:136:98
	vldr	s1, [r0, #40]
	.loc	1 136 38                        @ ../User/App/Robot.c:136:38
	bl	RUI_F_MATH_Limit_float
	.loc	1 136 17                        @ ../User/App/Robot.c:136:17
	ldr	r0, [sp, #100]
	.loc	1 136 36                        @ ../User/App/Robot.c:136:36
	vstr	s0, [r0, #32]
	.loc	1 137 59 is_stmt 1              @ ../User/App/Robot.c:137:59
	movw	r0, :lower16:b
	movt	r0, :upper16:b
	vldr	s0, [r0]
	vcvt.f32.s32	s2, s0
	vldr	s4, .LCPI0_4
	.loc	1 137 61 is_stmt 0              @ ../User/App/Robot.c:137:61
	vadd.f32	s0, s2, s4
	.loc	1 137 73                        @ ../User/App/Robot.c:137:73
	vsub.f32	s1, s2, s4
	.loc	1 137 83                        @ ../User/App/Robot.c:137:83
	ldr	r0, [sp, #100]
	.loc	1 137 96                        @ ../User/App/Robot.c:137:96
	vldr	s2, [r0, #44]
	.loc	1 137 36                        @ ../User/App/Robot.c:137:36
	bl	RUI_F_MATH_Limit_float
	.loc	1 137 17                        @ ../User/App/Robot.c:137:17
	ldr	r0, [sp, #100]
	.loc	1 137 34                        @ ../User/App/Robot.c:137:34
	vstr	s0, [r0, #44]
	.loc	1 138 13 is_stmt 1              @ ../User/App/Robot.c:138:13
	b	.LBB0_48
.Ltmp32:
.LBB0_47:
	.loc	1 143 48                        @ ../User/App/Robot.c:143:48
	ldr	r0, [sp, #104]
	.loc	1 143 61 is_stmt 0              @ ../User/App/Robot.c:143:61
	ldrsh.w	r0, [r0, #8]
	.loc	1 143 40                        @ ../User/App/Robot.c:143:40
	vmov	s0, r0
	vcvt.f32.s32	s0, s0
	.loc	1 143 98                        @ ../User/App/Robot.c:143:98
	movw	r0, :lower16:VT13_DBUS
	movt	r0, :upper16:VT13_DBUS
	vldr	s2, [r0, #28]
	vldr	s6, .LCPI0_2
	.loc	1 143 104                       @ ../User/App/Robot.c:143:104
	vmul.f32	s2, s2, s6
	vldr	s4, .LCPI0_3
	.loc	1 143 80                        @ ../User/App/Robot.c:143:80
	vmul.f32	s0, s0, s4
	vadd.f32	s2, s0, s2
	.loc	1 143 17                        @ ../User/App/Robot.c:143:17
	ldr	r1, [sp, #100]
	.loc	1 143 36                        @ ../User/App/Robot.c:143:36
	vldr	s0, [r1, #32]
	vsub.f32	s0, s0, s2
	vstr	s0, [r1, #32]
	.loc	1 144 46 is_stmt 1              @ ../User/App/Robot.c:144:46
	ldr	r1, [sp, #104]
	.loc	1 144 59 is_stmt 0              @ ../User/App/Robot.c:144:59
	ldrsh.w	r1, [r1, #6]
	.loc	1 144 38                        @ ../User/App/Robot.c:144:38
	vmov	s0, r1
	vcvt.f32.s32	s0, s0
	.loc	1 144 96                        @ ../User/App/Robot.c:144:96
	vldr	s2, [r0, #16]
	.loc	1 144 102                       @ ../User/App/Robot.c:144:102
	vmul.f32	s2, s2, s6
	.loc	1 144 78                        @ ../User/App/Robot.c:144:78
	vmul.f32	s0, s0, s4
	vadd.f32	s2, s0, s2
	.loc	1 144 17                        @ ../User/App/Robot.c:144:17
	ldr	r0, [sp, #100]
	.loc	1 144 34                        @ ../User/App/Robot.c:144:34
	vldr	s0, [r0, #44]
	vsub.f32	s0, s0, s2
	vstr	s0, [r0, #44]
	.loc	1 146 35 is_stmt 1              @ ../User/App/Robot.c:146:35
	movw	r1, :lower16:all_ui
	movt	r1, :upper16:all_ui
	movs	r0, #0
	strb	r0, [r1, #12]
	.loc	1 149 61                        @ ../User/App/Robot.c:149:61
	ldr	r0, [sp, #100]
	.loc	1 149 122 is_stmt 0             @ ../User/App/Robot.c:149:122
	vldr	s2, [r0, #32]
	.loc	1 149 74                        @ ../User/App/Robot.c:149:74
	vldr	s0, [r0, #36]
	.loc	1 149 98                        @ ../User/App/Robot.c:149:98
	vldr	s1, [r0, #40]
	.loc	1 149 38                        @ ../User/App/Robot.c:149:38
	bl	RUI_F_MATH_Limit_float
	.loc	1 149 17                        @ ../User/App/Robot.c:149:17
	ldr	r0, [sp, #100]
	.loc	1 149 36                        @ ../User/App/Robot.c:149:36
	vstr	s0, [r0, #32]
	.loc	1 150 59 is_stmt 1              @ ../User/App/Robot.c:150:59
	movw	r0, :lower16:b
	movt	r0, :upper16:b
	vldr	s0, [r0]
	vcvt.f32.s32	s2, s0
	vldr	s4, .LCPI0_4
	.loc	1 150 61 is_stmt 0              @ ../User/App/Robot.c:150:61
	vadd.f32	s0, s2, s4
	.loc	1 150 73                        @ ../User/App/Robot.c:150:73
	vsub.f32	s1, s2, s4
	.loc	1 150 83                        @ ../User/App/Robot.c:150:83
	ldr	r0, [sp, #100]
	.loc	1 150 96                        @ ../User/App/Robot.c:150:96
	vldr	s2, [r0, #44]
	.loc	1 150 36                        @ ../User/App/Robot.c:150:36
	bl	RUI_F_MATH_Limit_float
	.loc	1 150 17                        @ ../User/App/Robot.c:150:17
	ldr	r0, [sp, #100]
	.loc	1 150 34                        @ ../User/App/Robot.c:150:34
	vstr	s0, [r0, #44]
	b	.LBB0_48
.Ltmp33:
.LBB0_48:
	.loc	1 0 34                          @ ../User/App/Robot.c:0:34
	b	.LBB0_49
.LBB0_49:
	.loc	1 152 11 is_stmt 1              @ ../User/App/Robot.c:152:11
	b	.LBB0_55
.LBB0_50:
	.loc	1 157 11                        @ ../User/App/Robot.c:157:11
	b	.LBB0_55
.LBB0_51:
.Ltmp34:
	.loc	1 162 61                        @ ../User/App/Robot.c:162:61
	ldr	r0, [sp, #100]
	.loc	1 162 69 is_stmt 0              @ ../User/App/Robot.c:162:69
	ldr	r1, [sp, #104]
	.loc	1 162 75                        @ ../User/App/Robot.c:162:75
	ldr	r2, [sp, #96]
	.loc	1 162 86                        @ ../User/App/Robot.c:162:86
	ldr	r3, [sp, #128]
	.loc	1 162 35                        @ ../User/App/Robot.c:162:35
	bl	RUI_F_GET_FIRE_WIPE_SPEED
	.loc	1 162 17                        @ ../User/App/Robot.c:162:17
	vstr	s0, [sp, #52]
.Ltmp35:
	.loc	1 164 10 is_stmt 1              @ ../User/App/Robot.c:164:10
	vldr	s0, [sp, #52]
	vldr	s2, .LCPI0_0
.Ltmp36:
	.loc	1 164 10 is_stmt 0              @ ../User/App/Robot.c:164:10
	vcmp.f32	s0, s2
	vmrs	APSR_nzcv, fpscr
	blt	.LBB0_53
	b	.LBB0_52
.LBB0_52:
.Ltmp37:
	.loc	1 165 33 is_stmt 1              @ ../User/App/Robot.c:165:33
	vldr	s2, [sp, #52]
	vldr	s0, .LCPI0_1
	.loc	1 165 48 is_stmt 0              @ ../User/App/Robot.c:165:48
	vsub.f32	s0, s0, s2
	.loc	1 165 8                         @ ../User/App/Robot.c:165:8
	ldr	r0, [sp, #100]
	.loc	1 165 30                        @ ../User/App/Robot.c:165:30
	vstr	s0, [r0, #48]
	.loc	1 165 52                        @ ../User/App/Robot.c:165:52
	b	.LBB0_54
.Ltmp38:
.LBB0_53:
	.loc	1 167 33 is_stmt 1              @ ../User/App/Robot.c:167:33
	vldr	s0, [sp, #52]
	.loc	1 167 32 is_stmt 0              @ ../User/App/Robot.c:167:32
	vneg.f32	s0, s0
	.loc	1 167 8                         @ ../User/App/Robot.c:167:8
	ldr	r0, [sp, #100]
	.loc	1 167 30                        @ ../User/App/Robot.c:167:30
	vstr	s0, [r0, #48]
	b	.LBB0_54
.Ltmp39:
.LBB0_54:
	.loc	1 168 38 is_stmt 1              @ ../User/App/Robot.c:168:38
	ldr	r0, [sp, #52]
	.loc	1 168 13 is_stmt 0              @ ../User/App/Robot.c:168:13
	ldr	r1, [sp, #100]
	.loc	1 168 35                        @ ../User/App/Robot.c:168:35
	str	r0, [r1, #52]
	.loc	1 196 71 is_stmt 1              @ ../User/App/Robot.c:196:71
	ldr	r0, [sp, #104]
	.loc	1 196 77 is_stmt 0              @ ../User/App/Robot.c:196:77
	ldr	r1, [sp, #100]
	.loc	1 196 85                        @ ../User/App/Robot.c:196:85
	ldr	r2, [sp, #96]
	.loc	1 196 52                        @ ../User/App/Robot.c:196:52
	bl	RUI_F_GET_FIRE_AIM
	.loc	1 196 44                        @ ../User/App/Robot.c:196:44
	bl	__aeabi_l2f
	.loc	1 196 20                        @ ../User/App/Robot.c:196:20
	ldr	r1, [sp, #100]
	.loc	1 196 42                        @ ../User/App/Robot.c:196:42
	str	r0, [r1, #56]
.Ltmp40:
	.loc	1 199 11 is_stmt 1              @ ../User/App/Robot.c:199:11
	b	.LBB0_55
.Ltmp41:
.LBB0_55:
	.loc	1 201 1                         @ ../User/App/Robot.c:201:1
	add	sp, #112
	pop	{r7, pc}
.Ltmp42:
	.p2align	2
@ %bb.56:
	.loc	1 0 1 is_stmt 0                 @ ../User/App/Robot.c:0:1
.LCPI0_0:
	.long	0x44fa0000                      @ float 2000
.LCPI0_1:
	.long	0xc2480000                      @ float -50
.LCPI0_2:
	.long	0x3d8f5c29                      @ float 0.0700000003
.LCPI0_3:
	.long	0x3c23d70a                      @ float 0.00999999977
.LCPI0_4:
	.long	0x44610000                      @ float 900
.LCPI0_5:
	.long	0x3a83126f                      @ float 0.00100000005
.LCPI0_6:
	.long	0x42480000                      @ float 50
.LCPI0_7:
	.long	0x41b60000                      @ float 22.75
.Lfunc_end0:
	.size	RobotTask, .Lfunc_end0-RobotTask
	.cfi_endproc
	.cantunwind
	.fnend
                                        @ -- End function
	.section	.text.RUI_F_CHASSIS_GET_MAX_TARGET,"ax",%progbits
	.hidden	RUI_F_CHASSIS_GET_MAX_TARGET    @ -- Begin function RUI_F_CHASSIS_GET_MAX_TARGET
	.globl	RUI_F_CHASSIS_GET_MAX_TARGET
	.p2align	2
	.type	RUI_F_CHASSIS_GET_MAX_TARGET,%function
	.code	16                              @ @RUI_F_CHASSIS_GET_MAX_TARGET
	.thumb_func
RUI_F_CHASSIS_GET_MAX_TARGET:
.Lfunc_begin1:
	.loc	1 331 0 is_stmt 1               @ ../User/App/Robot.c:331:0
	.fnstart
	.cfi_startproc
@ %bb.0:
	.pad	#8
	sub	sp, #8
	.cfi_def_cfa_offset 8
	vstr	s0, [sp]
.Ltmp43:
	.loc	1 343 9 prologue_end            @ ../User/App/Robot.c:343:9
	vldr	s0, [sp]
	vldr	s2, .LCPI1_0
.Ltmp44:
	.loc	1 343 9 is_stmt 0               @ ../User/App/Robot.c:343:9
	vcmp.f32	s0, s2
	vmrs	APSR_nzcv, fpscr
	bne	.LBB1_2
	b	.LBB1_1
.LBB1_1:
.Ltmp45:
	.loc	1 345 24 is_stmt 1              @ ../User/App/Robot.c:345:24
	vldr	s0, [sp]
	vldr	s2, .LCPI1_18
	.loc	1 345 22 is_stmt 0              @ ../User/App/Robot.c:345:22
	vmul.f32	s0, s0, s2
	.loc	1 345 9                         @ ../User/App/Robot.c:345:9
	vstr	s0, [sp, #4]
	b	.LBB1_20
.Ltmp46:
.LBB1_2:
	.loc	1 346 16 is_stmt 1              @ ../User/App/Robot.c:346:16
	vldr	s0, [sp]
	vldr	s2, .LCPI1_1
	.loc	1 346 32 is_stmt 0              @ ../User/App/Robot.c:346:32
	vcmp.f32	s0, s2
	vmrs	APSR_nzcv, fpscr
	beq	.LBB1_4
	b	.LBB1_3
.LBB1_3:
	.loc	1 346 35                        @ ../User/App/Robot.c:346:35
	vldr	s0, [sp]
	vldr	s2, .LCPI1_2
.Ltmp47:
	.loc	1 346 16                        @ ../User/App/Robot.c:346:16
	vcmp.f32	s0, s2
	vmrs	APSR_nzcv, fpscr
	bne	.LBB1_5
	b	.LBB1_4
.LBB1_4:
.Ltmp48:
	.loc	1 348 24 is_stmt 1              @ ../User/App/Robot.c:348:24
	vldr	s0, [sp]
	vldr	s2, .LCPI1_17
	.loc	1 348 22 is_stmt 0              @ ../User/App/Robot.c:348:22
	vmul.f32	s0, s0, s2
	.loc	1 348 9                         @ ../User/App/Robot.c:348:9
	vstr	s0, [sp, #4]
	b	.LBB1_20
.Ltmp49:
.LBB1_5:
	.loc	1 349 16 is_stmt 1              @ ../User/App/Robot.c:349:16
	vldr	s0, [sp]
	vldr	s2, .LCPI1_3
.Ltmp50:
	.loc	1 349 16 is_stmt 0              @ ../User/App/Robot.c:349:16
	vcmp.f32	s0, s2
	vmrs	APSR_nzcv, fpscr
	bne	.LBB1_7
	b	.LBB1_6
.LBB1_6:
.Ltmp51:
	.loc	1 351 24 is_stmt 1              @ ../User/App/Robot.c:351:24
	vldr	s0, [sp]
	vldr	s2, .LCPI1_16
	.loc	1 351 22 is_stmt 0              @ ../User/App/Robot.c:351:22
	vmul.f32	s0, s0, s2
	.loc	1 351 9                         @ ../User/App/Robot.c:351:9
	vstr	s0, [sp, #4]
	b	.LBB1_20
.Ltmp52:
.LBB1_7:
	.loc	1 352 16 is_stmt 1              @ ../User/App/Robot.c:352:16
	vldr	s0, [sp]
	vldr	s2, .LCPI1_4
	.loc	1 352 32 is_stmt 0              @ ../User/App/Robot.c:352:32
	vcmp.f32	s0, s2
	vmrs	APSR_nzcv, fpscr
	beq	.LBB1_9
	b	.LBB1_8
.LBB1_8:
	.loc	1 352 35                        @ ../User/App/Robot.c:352:35
	vldr	s0, [sp]
	vldr	s2, .LCPI1_5
.Ltmp53:
	.loc	1 352 16                        @ ../User/App/Robot.c:352:16
	vcmp.f32	s0, s2
	vmrs	APSR_nzcv, fpscr
	bne	.LBB1_10
	b	.LBB1_9
.LBB1_9:
.Ltmp54:
	.loc	1 354 24 is_stmt 1              @ ../User/App/Robot.c:354:24
	vldr	s0, [sp]
	vldr	s2, .LCPI1_15
	.loc	1 354 22 is_stmt 0              @ ../User/App/Robot.c:354:22
	vmul.f32	s0, s0, s2
	.loc	1 354 9                         @ ../User/App/Robot.c:354:9
	vstr	s0, [sp, #4]
	b	.LBB1_20
.Ltmp55:
.LBB1_10:
	.loc	1 355 16 is_stmt 1              @ ../User/App/Robot.c:355:16
	vldr	s0, [sp]
	vldr	s2, .LCPI1_6
.Ltmp56:
	.loc	1 355 16 is_stmt 0              @ ../User/App/Robot.c:355:16
	vcmp.f32	s0, s2
	vmrs	APSR_nzcv, fpscr
	bne	.LBB1_12
	b	.LBB1_11
.LBB1_11:
.Ltmp57:
	.loc	1 357 23 is_stmt 1              @ ../User/App/Robot.c:357:23
	vldr	s0, [sp]
	vldr	s2, .LCPI1_11
	.loc	1 357 21 is_stmt 0              @ ../User/App/Robot.c:357:21
	vmul.f32	s0, s0, s2
	.loc	1 357 9                         @ ../User/App/Robot.c:357:9
	vstr	s0, [sp, #4]
	b	.LBB1_20
.Ltmp58:
.LBB1_12:
	.loc	1 358 16 is_stmt 1              @ ../User/App/Robot.c:358:16
	vldr	s0, [sp]
	vldr	s2, .LCPI1_7
.Ltmp59:
	.loc	1 358 16 is_stmt 0              @ ../User/App/Robot.c:358:16
	vcmp.f32	s0, s2
	vmrs	APSR_nzcv, fpscr
	bne	.LBB1_14
	b	.LBB1_13
.LBB1_13:
.Ltmp60:
	.loc	1 360 24 is_stmt 1              @ ../User/App/Robot.c:360:24
	vldr	s0, [sp]
	vldr	s2, .LCPI1_14
	.loc	1 360 22 is_stmt 0              @ ../User/App/Robot.c:360:22
	vmul.f32	s0, s0, s2
	.loc	1 360 9                         @ ../User/App/Robot.c:360:9
	vstr	s0, [sp, #4]
	b	.LBB1_20
.Ltmp61:
.LBB1_14:
	.loc	1 361 16 is_stmt 1              @ ../User/App/Robot.c:361:16
	vldr	s0, [sp]
	vldr	s2, .LCPI1_8
.Ltmp62:
	.loc	1 361 16 is_stmt 0              @ ../User/App/Robot.c:361:16
	vcmp.f32	s0, s2
	vmrs	APSR_nzcv, fpscr
	bne	.LBB1_16
	b	.LBB1_15
.LBB1_15:
.Ltmp63:
	.loc	1 363 24 is_stmt 1              @ ../User/App/Robot.c:363:24
	vldr	s0, [sp]
	vldr	s2, .LCPI1_13
	.loc	1 363 22 is_stmt 0              @ ../User/App/Robot.c:363:22
	vmul.f32	s0, s0, s2
	.loc	1 363 9                         @ ../User/App/Robot.c:363:9
	vstr	s0, [sp, #4]
	b	.LBB1_20
.Ltmp64:
.LBB1_16:
	.loc	1 364 16 is_stmt 1              @ ../User/App/Robot.c:364:16
	vldr	s0, [sp]
	vldr	s2, .LCPI1_9
	.loc	1 364 32 is_stmt 0              @ ../User/App/Robot.c:364:32
	vcmp.f32	s0, s2
	vmrs	APSR_nzcv, fpscr
	beq	.LBB1_18
	b	.LBB1_17
.LBB1_17:
	.loc	1 364 35                        @ ../User/App/Robot.c:364:35
	vldr	s0, [sp]
	vldr	s2, .LCPI1_10
.Ltmp65:
	.loc	1 364 16                        @ ../User/App/Robot.c:364:16
	vcmp.f32	s0, s2
	vmrs	APSR_nzcv, fpscr
	bne	.LBB1_19
	b	.LBB1_18
.LBB1_18:
.Ltmp66:
	.loc	1 366 25 is_stmt 1              @ ../User/App/Robot.c:366:25
	vldr	s0, [sp]
	vldr	s2, .LCPI1_12
	.loc	1 366 23 is_stmt 0              @ ../User/App/Robot.c:366:23
	vmul.f32	s0, s0, s2
	.loc	1 366 9                         @ ../User/App/Robot.c:366:9
	vstr	s0, [sp, #4]
	b	.LBB1_20
.Ltmp67:
.LBB1_19:
	.loc	1 369 23 is_stmt 1              @ ../User/App/Robot.c:369:23
	vldr	s0, [sp]
	vldr	s2, .LCPI1_11
	.loc	1 369 21 is_stmt 0              @ ../User/App/Robot.c:369:21
	vmul.f32	s0, s0, s2
	.loc	1 369 9                         @ ../User/App/Robot.c:369:9
	vstr	s0, [sp, #4]
	b	.LBB1_20
.Ltmp68:
.LBB1_20:
	.loc	1 371 1 is_stmt 1               @ ../User/App/Robot.c:371:1
	vldr	s0, [sp, #4]
	add	sp, #8
	bx	lr
.Ltmp69:
	.p2align	2
@ %bb.21:
	.loc	1 0 1 is_stmt 0                 @ ../User/App/Robot.c:0:1
.LCPI1_0:
	.long	0x42340000                      @ float 45
.LCPI1_1:
	.long	0x42480000                      @ float 50
.LCPI1_2:
	.long	0x43480000                      @ float 200
.LCPI1_3:
	.long	0x425c0000                      @ float 55
.LCPI1_4:
	.long	0x42700000                      @ float 60
.LCPI1_5:
	.long	0x42960000                      @ float 75
.LCPI1_6:
	.long	0x42820000                      @ float 65
.LCPI1_7:
	.long	0x428c0000                      @ float 70
.LCPI1_8:
	.long	0x42a00000                      @ float 80
.LCPI1_9:
	.long	0x42b40000                      @ float 90
.LCPI1_10:
	.long	0x42c80000                      @ float 100
.LCPI1_11:
	.long	0x3dcccccd                      @ float 0.100000001
.LCPI1_12:
	.long	0x3d851eb8                      @ float 0.0649999976
.LCPI1_13:
	.long	0x3d8f5c29                      @ float 0.0700000003
.LCPI1_14:
	.long	0x3db851ec                      @ float 0.0900000035
.LCPI1_15:
	.long	0x3da3d70a                      @ float 0.0799999982
.LCPI1_16:
	.long	0x3d75c28f                      @ float 0.0599999987
.LCPI1_17:
	.long	0x3d23d70a                      @ float 0.0399999991
.LCPI1_18:
	.long	0x3cf5c28f                      @ float 0.0299999993
.Lfunc_end1:
	.size	RUI_F_CHASSIS_GET_MAX_TARGET, .Lfunc_end1-RUI_F_CHASSIS_GET_MAX_TARGET
	.cfi_endproc
	.cantunwind
	.fnend
                                        @ -- End function
	.section	.text.RUI_F_CHASSIS_PID,"ax",%progbits
	.hidden	RUI_F_CHASSIS_PID               @ -- Begin function RUI_F_CHASSIS_PID
	.globl	RUI_F_CHASSIS_PID
	.p2align	2
	.type	RUI_F_CHASSIS_PID,%function
	.code	16                              @ @RUI_F_CHASSIS_PID
	.thumb_func
RUI_F_CHASSIS_PID:
.Lfunc_begin2:
	.loc	1 381 0 is_stmt 1               @ ../User/App/Robot.c:381:0
	.fnstart
	.cfi_startproc
@ %bb.0:
	.save	{r7, lr}
	push	{r7, lr}
	.cfi_def_cfa_offset 8
	.cfi_offset lr, -4
	.cfi_offset r7, -8
	.pad	#40
	sub	sp, #40
	.cfi_def_cfa_offset 48
                                        @ kill: def $r1 killed $r0
	strh.w	r0, [sp, #38]
	vstr	s0, [sp, #32]
	vstr	s1, [sp, #28]
	vstr	s2, [sp, #24]
	movs	r0, #0
.Ltmp70:
	.loc	1 383 11 prologue_end           @ ../User/App/Robot.c:383:11
	str	r0, [sp, #20]
	str	r0, [sp, #16]
	.loc	1 384 26                        @ ../User/App/Robot.c:384:26
	ldrsh.w	r0, [sp, #38]
	.loc	1 384 18 is_stmt 0              @ ../User/App/Robot.c:384:18
	vmov	s0, r0
	vcvt.f32.s32	s0, s0
	.loc	1 384 16                        @ ../User/App/Robot.c:384:16
	vstr	s0, [sp, #20]
	.loc	1 386 19 is_stmt 1              @ ../User/App/Robot.c:386:19
	vldr	s0, [sp, #20]
	.loc	1 386 32 is_stmt 0              @ ../User/App/Robot.c:386:32
	vldr	s4, [sp, #28]
	.loc	1 386 14                        @ ../User/App/Robot.c:386:14
	movw	r0, :lower16:RUI_F_CHASSIS_PID.INTEGRAL
	movt	r0, :upper16:RUI_F_CHASSIS_PID.INTEGRAL
	str	r0, [sp, #4]                    @ 4-byte Spill
	vldr	s2, [r0]
	vmul.f32	s0, s0, s4
	vadd.f32	s0, s0, s2
	vstr	s0, [r0]
	.loc	1 387 50 is_stmt 1              @ ../User/App/Robot.c:387:50
	vldr	s2, [r0]
	vldr	s0, .LCPI2_0
	vldr	s1, .LCPI2_1
	.loc	1 387 16 is_stmt 0              @ ../User/App/Robot.c:387:16
	bl	RUI_F_MATH_Limit_float
	ldr	r0, [sp, #4]                    @ 4-byte Reload
	.loc	1 387 14                        @ ../User/App/Robot.c:387:14
	vstr	s0, [r0]
	.loc	1 390 33 is_stmt 1              @ ../User/App/Robot.c:390:33
	vldr	s2, [sp, #16]
	.loc	1 390 20 is_stmt 0              @ ../User/App/Robot.c:390:20
	vldr	s0, [sp, #20]
	.loc	1 390 31                        @ ../User/App/Robot.c:390:31
	vsub.f32	s0, s0, s2
	.loc	1 390 48                        @ ../User/App/Robot.c:390:48
	vldr	s2, [sp, #24]
	.loc	1 390 46                        @ ../User/App/Robot.c:390:46
	vmul.f32	s0, s0, s2
	.loc	1 390 16                        @ ../User/App/Robot.c:390:16
	vstr	s0, [sp, #12]
	.loc	1 392 18 is_stmt 1              @ ../User/App/Robot.c:392:18
	ldr	r1, [sp, #20]
	.loc	1 392 16 is_stmt 0              @ ../User/App/Robot.c:392:16
	str	r1, [sp, #16]
	.loc	1 393 58 is_stmt 1              @ ../User/App/Robot.c:393:58
	vldr	s0, [sp, #32]
	.loc	1 393 63 is_stmt 0              @ ../User/App/Robot.c:393:63
	vldr	s4, [sp, #20]
	.loc	1 393 76                        @ ../User/App/Robot.c:393:76
	vldr	s2, [r0]
	.loc	1 393 74                        @ ../User/App/Robot.c:393:74
	vmul.f32	s0, s0, s4
	vadd.f32	s0, s0, s2
	.loc	1 393 87                        @ ../User/App/Robot.c:393:87
	vldr	s2, [sp, #12]
	.loc	1 393 85                        @ ../User/App/Robot.c:393:85
	vadd.f32	s2, s0, s2
	vldr	s0, .LCPI2_2
	vldr	s1, .LCPI2_3
	.loc	1 393 20                        @ ../User/App/Robot.c:393:20
	bl	RUI_F_MATH_Limit_float
	.loc	1 393 11                        @ ../User/App/Robot.c:393:11
	vstr	s0, [sp, #8]
	.loc	1 395 12 is_stmt 1              @ ../User/App/Robot.c:395:12
	vldr	s0, [sp, #8]
	.loc	1 395 5 is_stmt 0               @ ../User/App/Robot.c:395:5
	add	sp, #40
	pop	{r7, pc}
.Ltmp71:
	.p2align	2
@ %bb.1:
	.loc	1 0 5                           @ ../User/App/Robot.c:0:5
.LCPI2_0:
	.long	0x42c80000                      @ float 100
.LCPI2_1:
	.long	0xc2c80000                      @ float -100
.LCPI2_2:
	.long	0x453b8000                      @ float 3000
.LCPI2_3:
	.long	0xc53b8000                      @ float -3000
.Lfunc_end2:
	.size	RUI_F_CHASSIS_PID, .Lfunc_end2-RUI_F_CHASSIS_PID
	.cfi_endproc
	.cantunwind
	.fnend
                                        @ -- End function
	.section	.text.RUI_F_GET_FIRE_WIPE_SPEED,"ax",%progbits
	.hidden	RUI_F_GET_FIRE_WIPE_SPEED       @ -- Begin function RUI_F_GET_FIRE_WIPE_SPEED
	.globl	RUI_F_GET_FIRE_WIPE_SPEED
	.p2align	3
	.type	RUI_F_GET_FIRE_WIPE_SPEED,%function
	.code	16                              @ @RUI_F_GET_FIRE_WIPE_SPEED
	.thumb_func
RUI_F_GET_FIRE_WIPE_SPEED:
.Lfunc_begin3:
	.loc	1 222 0 is_stmt 1               @ ../User/App/Robot.c:222:0
	.fnstart
	.cfi_startproc
@ %bb.0:
	.save	{r7, lr}
	push	{r7, lr}
	.cfi_def_cfa_offset 8
	.cfi_offset lr, -4
	.cfi_offset r7, -8
	.pad	#24
	sub	sp, #24
	.cfi_def_cfa_offset 32
	str	r0, [sp, #20]
	str	r1, [sp, #16]
	str	r2, [sp, #12]
	str	r3, [sp, #8]
.Ltmp72:
	.loc	1 226 5 prologue_end            @ ../User/App/Robot.c:226:5
	ldr	r0, [sp, #16]
	.loc	1 226 18 is_stmt 0              @ ../User/App/Robot.c:226:18
	ldrb	r0, [r0, #12]
	.loc	1 226 26                        @ ../User/App/Robot.c:226:26
	cmp	r0, #1
	beq	.LBB3_2
	b	.LBB3_1
.LBB3_1:
	.loc	1 226 28                        @ ../User/App/Robot.c:226:28
	ldr	r0, [sp, #16]
	.loc	1 226 41                        @ ../User/App/Robot.c:226:41
	ldrb	r0, [r0, #12]
.Ltmp73:
	.loc	1 226 5                         @ ../User/App/Robot.c:226:5
	cmp	r0, #3
	bne	.LBB3_5
	b	.LBB3_2
.LBB3_2:
.Ltmp74:
	.loc	1 229 10 is_stmt 1              @ ../User/App/Robot.c:229:10
	movw	r0, :lower16:fireaim
	movt	r0, :upper16:fireaim
	str	r0, [sp, #4]                    @ 4-byte Spill
	ldr	r0, [r0]
	bl	__aeabi_f2d
	vmov	d0, r0, r1
	vldr	d1, .LCPI3_1
	vmov	r2, r3, d1
	vmov	r0, r1, d0
	bl	__aeabi_dadd
	vmov	d0, r0, r1
	vmov	r0, r1, d0
	bl	__aeabi_d2f
	mov	r1, r0
	ldr	r0, [sp, #4]                    @ 4-byte Reload
	str	r1, [r0]
.Ltmp75:
	.loc	1 230 6                         @ ../User/App/Robot.c:230:6
	vldr	s0, [r0]
	vldr	s2, .LCPI3_2
.Ltmp76:
	.loc	1 230 6 is_stmt 0               @ ../User/App/Robot.c:230:6
	vcmp.f32	s0, s2
	vmrs	APSR_nzcv, fpscr
	blt	.LBB3_4
	b	.LBB3_3
.LBB3_3:
.Ltmp77:
	.loc	1 231 11 is_stmt 1              @ ../User/App/Robot.c:231:11
	movw	r1, :lower16:fireaim
	movt	r1, :upper16:fireaim
	movw	r0, #49152
	movt	r0, #17882
	str	r0, [r1]
	.loc	1 231 17 is_stmt 0              @ ../User/App/Robot.c:231:17
	b	.LBB3_4
.Ltmp78:
.LBB3_4:
	.loc	1 232 2 is_stmt 1               @ ../User/App/Robot.c:232:2
	b	.LBB3_8
.Ltmp79:
.LBB3_5:
	.loc	1 235 11                        @ ../User/App/Robot.c:235:11
	movw	r0, :lower16:fireaim
	movt	r0, :upper16:fireaim
	str	r0, [sp]                        @ 4-byte Spill
	ldr	r0, [r0]
	bl	__aeabi_f2d
	vmov	d0, r0, r1
	vldr	d1, .LCPI3_0
	vmov	r2, r3, d1
	vmov	r0, r1, d0
	bl	__aeabi_dadd
	vmov	d0, r0, r1
	vmov	r0, r1, d0
	bl	__aeabi_d2f
	mov	r1, r0
	ldr	r0, [sp]                        @ 4-byte Reload
	str	r1, [r0]
.Ltmp80:
	.loc	1 236 6                         @ ../User/App/Robot.c:236:6
	vldr	s0, [r0]
.Ltmp81:
	.loc	1 236 6 is_stmt 0               @ ../User/App/Robot.c:236:6
	vcmp.f32	s0, #0
	vmrs	APSR_nzcv, fpscr
	bgt	.LBB3_7
	b	.LBB3_6
.LBB3_6:
.Ltmp82:
	.loc	1 237 11 is_stmt 1              @ ../User/App/Robot.c:237:11
	movw	r1, :lower16:fireaim
	movt	r1, :upper16:fireaim
	movs	r0, #0
	str	r0, [r1]
	.loc	1 237 14 is_stmt 0              @ ../User/App/Robot.c:237:14
	b	.LBB3_7
.Ltmp83:
.LBB3_7:
	.loc	1 0 14                          @ ../User/App/Robot.c:0:14
	b	.LBB3_8
.LBB3_8:
	.loc	1 239 7 is_stmt 1               @ ../User/App/Robot.c:239:7
	movw	r0, :lower16:fireaim
	movt	r0, :upper16:fireaim
	ldr	r1, [r0]
	.loc	1 239 6 is_stmt 0               @ ../User/App/Robot.c:239:6
	movw	r0, :lower16:RUI_F_GET_FIRE_WIPE_SPEED.AIM
	movt	r0, :upper16:RUI_F_GET_FIRE_WIPE_SPEED.AIM
	str	r1, [r0]
	.loc	1 241 12 is_stmt 1              @ ../User/App/Robot.c:241:12
	vldr	s0, [r0]
	.loc	1 241 5 is_stmt 0               @ ../User/App/Robot.c:241:5
	add	sp, #24
	pop	{r7, pc}
.Ltmp84:
	.p2align	3
@ %bb.9:
	.loc	1 0 5                           @ ../User/App/Robot.c:0:5
.LCPI3_0:
	.long	858993459                       @ double -1.7
	.long	3220910899
.LCPI3_1:
	.long	858993459                       @ double 1.7
	.long	1073427251
.LCPI3_2:
	.long	0x45dac000                      @ float 7000
.Lfunc_end3:
	.size	RUI_F_GET_FIRE_WIPE_SPEED, .Lfunc_end3-RUI_F_GET_FIRE_WIPE_SPEED
	.cfi_endproc
	.cantunwind
	.fnend
                                        @ -- End function
	.section	.text.RUI_F_GET_FIRE_AIM,"ax",%progbits
	.p2align	3                               @ -- Begin function RUI_F_GET_FIRE_AIM
	.type	RUI_F_GET_FIRE_AIM,%function
	.code	16                              @ @RUI_F_GET_FIRE_AIM
	.thumb_func
RUI_F_GET_FIRE_AIM:
.Lfunc_begin4:
	.loc	1 254 0 is_stmt 1               @ ../User/App/Robot.c:254:0
	.fnstart
	.cfi_startproc
@ %bb.0:
	.save	{r7, lr}
	push	{r7, lr}
	.cfi_def_cfa_offset 8
	.cfi_offset lr, -4
	.cfi_offset r7, -8
	.pad	#80
	sub	sp, #80
	.cfi_def_cfa_offset 88
	str	r0, [sp, #76]
	str	r1, [sp, #72]
	str	r2, [sp, #68]
.Ltmp85:
	.loc	1 258 19 prologue_end           @ ../User/App/Robot.c:258:19
	ldr	r0, [sp, #76]
	.loc	1 258 32 is_stmt 0              @ ../User/App/Robot.c:258:32
	ldrb	r0, [r0, #12]
	.loc	1 258 13                        @ ../User/App/Robot.c:258:13
	strb.w	r0, [sp, #67]
.Ltmp86:
	.loc	1 259 7 is_stmt 1               @ ../User/App/Robot.c:259:7
	ldrb.w	r0, [sp, #67]
.Ltmp87:
	.loc	1 259 7 is_stmt 0               @ ../User/App/Robot.c:259:7
	cmp	r0, #2
	bne	.LBB4_2
	b	.LBB4_1
.LBB4_1:
.Ltmp88:
	.loc	1 260 10 is_stmt 1              @ ../User/App/Robot.c:260:10
	ldr	r0, [sp, #72]
	.loc	1 260 29 is_stmt 0              @ ../User/App/Robot.c:260:29
	ldr	r2, [r0, #92]
	asrs	r0, r2, #31
	.loc	1 260 8                         @ ../User/App/Robot.c:260:8
	movw	r1, :lower16:RUI_F_GET_FIRE_AIM.AIM
	movt	r1, :upper16:RUI_F_GET_FIRE_AIM.AIM
	str	r2, [r1]
	str	r0, [r1, #4]
	.loc	1 260 35                        @ ../User/App/Robot.c:260:35
	b	.LBB4_2
.Ltmp89:
.LBB4_2:
	.loc	1 261 9 is_stmt 1               @ ../User/App/Robot.c:261:9
	ldrb.w	r0, [sp, #67]
.Ltmp90:
	.loc	1 261 9 is_stmt 0               @ ../User/App/Robot.c:261:9
	cmp	r0, #3
	bne.w	.LBB4_37
	b	.LBB4_3
.LBB4_3:
.Ltmp91:
	.loc	1 264 26 is_stmt 1              @ ../User/App/Robot.c:264:26
	movw	r0, :lower16:VT13_DBUS
	movt	r0, :upper16:VT13_DBUS
	ldrb.w	r1, [r0, #52]
	movs	r0, #0
.Ltmp92:
	.loc	1 264 10 is_stmt 0              @ ../User/App/Robot.c:264:10
	cmp.w	r0, r1, lsr #4
	bne	.LBB4_5
	b	.LBB4_4
.LBB4_4:
.Ltmp93:
	.loc	1 265 21 is_stmt 1              @ ../User/App/Robot.c:265:21
	movw	r1, :lower16:RUI_F_GET_FIRE_AIM.SINGLE_LOCK2
	movt	r1, :upper16:RUI_F_GET_FIRE_AIM.SINGLE_LOCK2
	movs	r0, #0
	strb	r0, [r1]
	.loc	1 266 6                         @ ../User/App/Robot.c:266:6
	b	.LBB4_5
.Ltmp94:
.LBB4_5:
	.loc	1 267 10                        @ ../User/App/Robot.c:267:10
	ldr	r0, [sp, #76]
	.loc	1 267 23 is_stmt 0              @ ../User/App/Robot.c:267:23
	ldrsh.w	r0, [r0, #10]
	.loc	1 267 40                        @ ../User/App/Robot.c:267:40
	cmp.w	r0, #300
	bge	.LBB4_8
	b	.LBB4_6
.LBB4_6:
	.loc	1 267 43                        @ ../User/App/Robot.c:267:43
	ldr	r0, [sp, #76]
	.loc	1 267 56                        @ ../User/App/Robot.c:267:56
	ldrsh.w	r0, [r0, #10]
.Ltmp95:
	.loc	1 267 10                        @ ../User/App/Robot.c:267:10
	cmn.w	r0, #300
	ble	.LBB4_8
	b	.LBB4_7
.LBB4_7:
.Ltmp96:
	.loc	1 268 21 is_stmt 1              @ ../User/App/Robot.c:268:21
	movw	r1, :lower16:RUI_F_GET_FIRE_AIM.SINGLE_LOCK1
	movt	r1, :upper16:RUI_F_GET_FIRE_AIM.SINGLE_LOCK1
	movs	r0, #0
	strb	r0, [r1]
	.loc	1 269 6                         @ ../User/App/Robot.c:269:6
	b	.LBB4_8
.Ltmp97:
.LBB4_8:
	.loc	1 272 26                        @ ../User/App/Robot.c:272:26
	movw	r0, :lower16:VT13_DBUS
	movt	r0, :upper16:VT13_DBUS
	ldrb.w	r1, [r0, #52]
	movs	r0, #1
	.loc	1 272 39 is_stmt 0              @ ../User/App/Robot.c:272:39
	cmp.w	r0, r1, lsr #4
	bne	.LBB4_14
	b	.LBB4_9
.LBB4_9:
	.loc	1 272 42                        @ ../User/App/Robot.c:272:42
	movw	r0, :lower16:RUI_F_GET_FIRE_AIM.SINGLE_LOCK2
	movt	r0, :upper16:RUI_F_GET_FIRE_AIM.SINGLE_LOCK2
	ldrb	r0, [r0]
.Ltmp98:
	.loc	1 272 10                        @ ../User/App/Robot.c:272:10
	cmp	r0, #0
	bne	.LBB4_14
	b	.LBB4_10
.LBB4_10:
.Ltmp99:
	.loc	1 273 21 is_stmt 1              @ ../User/App/Robot.c:273:21
	movw	r1, :lower16:RUI_F_GET_FIRE_AIM.SINGLE_LOCK2
	movt	r1, :upper16:RUI_F_GET_FIRE_AIM.SINGLE_LOCK2
	movs	r0, #1
	strb	r0, [r1]
	.loc	1 274 47                        @ ../User/App/Robot.c:274:47
	ldr	r0, [sp, #72]
	.loc	1 274 88 is_stmt 0              @ ../User/App/Robot.c:274:88
	ldr	r2, [r0, #64]
	ldr	r3, [r0, #68]
	.loc	1 274 66                        @ ../User/App/Robot.c:274:66
	ldr	r0, [r0, #92]
	asrs	r1, r0, #31
	.loc	1 274 72                        @ ../User/App/Robot.c:274:72
	bl	__aeabi_ldivmod
	mov	r0, r2
	mov	r1, r3
	.loc	1 274 24                        @ ../User/App/Robot.c:274:24
	bl	RUI_F_MATH_ABS_int64_t
	.loc	1 274 16                        @ ../User/App/Robot.c:274:16
	str	r1, [sp, #60]
	str	r0, [sp, #56]
.Ltmp100:
	.loc	1 275 12 is_stmt 1              @ ../User/App/Robot.c:275:12
	ldr	r0, [sp, #56]
	str	r0, [sp, #40]                   @ 4-byte Spill
	ldr	r0, [sp, #60]
	.loc	1 275 44 is_stmt 0              @ ../User/App/Robot.c:275:44
	str	r0, [sp, #44]                   @ 4-byte Spill
	ldr	r1, [sp, #72]
	.loc	1 275 58                        @ ../User/App/Robot.c:275:58
	ldr	r0, [r1, #64]
	ldr	r1, [r1, #68]
	.loc	1 275 21                        @ ../User/App/Robot.c:275:21
	bl	RUI_F_MATH_ABS_int64_t
	ldr	r3, [sp, #40]                   @ 4-byte Reload
	mov	r2, r0
	mov	r0, r1
	.loc	1 275 72                        @ ../User/App/Robot.c:275:72
	ldr	r1, [sp, #44]                   @ 4-byte Reload
	asrs.w	r0, r0, #1
	rrx	r2, r2
	.loc	1 275 18                        @ ../User/App/Robot.c:275:18
	subs	r2, r2, r3
	sbcs	r0, r1
.Ltmp101:
	.loc	1 275 12                        @ ../User/App/Robot.c:275:12
	bge	.LBB4_12
	b	.LBB4_11
.LBB4_11:
.Ltmp102:
	.loc	1 276 16 is_stmt 1              @ ../User/App/Robot.c:276:16
	ldr	r0, [sp, #72]
	.loc	1 276 35 is_stmt 0              @ ../User/App/Robot.c:276:35
	ldr	r2, [r0, #92]
	asrs	r0, r2, #31
	.loc	1 276 43                        @ ../User/App/Robot.c:276:43
	ldr	r3, [sp, #56]
	ldr	r1, [sp, #60]
	.loc	1 276 41                        @ ../User/App/Robot.c:276:41
	subs	r2, r2, r3
	sbcs	r0, r1
	.loc	1 276 14                        @ ../User/App/Robot.c:276:14
	movw	r1, :lower16:RUI_F_GET_FIRE_AIM.AIM
	movt	r1, :upper16:RUI_F_GET_FIRE_AIM.AIM
	str	r2, [r1]
	str	r0, [r1, #4]
	.loc	1 277 8 is_stmt 1               @ ../User/App/Robot.c:277:8
	b	.LBB4_13
.Ltmp103:
.LBB4_12:
	.loc	1 278 16                        @ ../User/App/Robot.c:278:16
	ldr	r0, [sp, #72]
	.loc	1 278 57 is_stmt 0              @ ../User/App/Robot.c:278:57
	ldr	r3, [r0, #64]
	ldr	r1, [r0, #68]
	.loc	1 278 35                        @ ../User/App/Robot.c:278:35
	ldr	r2, [r0, #92]
	asrs	r0, r2, #31
	.loc	1 278 41                        @ ../User/App/Robot.c:278:41
	adds	r2, r2, r3
	adcs	r0, r1
	.loc	1 278 72                        @ ../User/App/Robot.c:278:72
	ldr	r3, [sp, #56]
	ldr	r1, [sp, #60]
	.loc	1 278 70                        @ ../User/App/Robot.c:278:70
	adds	r2, r2, r3
	adcs	r0, r1
	.loc	1 278 14                        @ ../User/App/Robot.c:278:14
	movw	r1, :lower16:RUI_F_GET_FIRE_AIM.AIM
	movt	r1, :upper16:RUI_F_GET_FIRE_AIM.AIM
	str	r2, [r1]
	str	r0, [r1, #4]
	b	.LBB4_13
.Ltmp104:
.LBB4_13:
	.loc	1 279 27 is_stmt 1              @ ../User/App/Robot.c:279:27
	movw	r1, :lower16:all_ui
	movt	r1, :upper16:all_ui
	movs	r0, #1
	strb	r0, [r1, #17]
	.loc	1 280 6                         @ ../User/App/Robot.c:280:6
	b	.LBB4_15
.Ltmp105:
.LBB4_14:
	.loc	1 280 30 is_stmt 0              @ ../User/App/Robot.c:280:30
	movw	r1, :lower16:all_ui
	movt	r1, :upper16:all_ui
	movs	r0, #0
	strb	r0, [r1, #17]
	b	.LBB4_15
.Ltmp106:
.LBB4_15:
	.loc	1 283 10 is_stmt 1              @ ../User/App/Robot.c:283:10
	ldr	r0, [sp, #76]
	.loc	1 283 23 is_stmt 0              @ ../User/App/Robot.c:283:23
	ldrsh.w	r0, [r0, #10]
	movw	r1, #651
	.loc	1 283 40                        @ ../User/App/Robot.c:283:40
	cmp	r0, r1
	blt	.LBB4_21
	b	.LBB4_16
.LBB4_16:
	.loc	1 283 43                        @ ../User/App/Robot.c:283:43
	movw	r0, :lower16:RUI_F_GET_FIRE_AIM.SINGLE_LOCK1
	movt	r0, :upper16:RUI_F_GET_FIRE_AIM.SINGLE_LOCK1
	ldrb	r0, [r0]
.Ltmp107:
	.loc	1 283 10                        @ ../User/App/Robot.c:283:10
	cmp	r0, #0
	bne	.LBB4_21
	b	.LBB4_17
.LBB4_17:
.Ltmp108:
	.loc	1 284 21 is_stmt 1              @ ../User/App/Robot.c:284:21
	movw	r1, :lower16:RUI_F_GET_FIRE_AIM.SINGLE_LOCK1
	movt	r1, :upper16:RUI_F_GET_FIRE_AIM.SINGLE_LOCK1
	movs	r0, #1
	strb	r0, [r1]
	.loc	1 285 46                        @ ../User/App/Robot.c:285:46
	ldr	r0, [sp, #72]
	.loc	1 285 87 is_stmt 0              @ ../User/App/Robot.c:285:87
	ldr	r2, [r0, #64]
	ldr	r3, [r0, #68]
	.loc	1 285 65                        @ ../User/App/Robot.c:285:65
	ldr	r0, [r0, #92]
	asrs	r1, r0, #31
	.loc	1 285 71                        @ ../User/App/Robot.c:285:71
	bl	__aeabi_ldivmod
	mov	r0, r2
	mov	r1, r3
	.loc	1 285 23                        @ ../User/App/Robot.c:285:23
	bl	RUI_F_MATH_ABS_int64_t
	.loc	1 285 16                        @ ../User/App/Robot.c:285:16
	str	r1, [sp, #52]
	str	r0, [sp, #48]
.Ltmp109:
	.loc	1 286 12 is_stmt 1              @ ../User/App/Robot.c:286:12
	ldr	r0, [sp, #48]
	str	r0, [sp, #32]                   @ 4-byte Spill
	ldr	r0, [sp, #52]
	.loc	1 286 43 is_stmt 0              @ ../User/App/Robot.c:286:43
	str	r0, [sp, #36]                   @ 4-byte Spill
	ldr	r1, [sp, #72]
	.loc	1 286 57                        @ ../User/App/Robot.c:286:57
	ldr	r0, [r1, #64]
	ldr	r1, [r1, #68]
	.loc	1 286 20                        @ ../User/App/Robot.c:286:20
	bl	RUI_F_MATH_ABS_int64_t
	ldr	r3, [sp, #32]                   @ 4-byte Reload
	mov	r2, r0
	mov	r0, r1
	.loc	1 286 71                        @ ../User/App/Robot.c:286:71
	ldr	r1, [sp, #36]                   @ 4-byte Reload
	asrs.w	r0, r0, #1
	rrx	r2, r2
	.loc	1 286 17                        @ ../User/App/Robot.c:286:17
	subs	r2, r2, r3
	sbcs	r0, r1
.Ltmp110:
	.loc	1 286 12                        @ ../User/App/Robot.c:286:12
	bge	.LBB4_19
	b	.LBB4_18
.LBB4_18:
.Ltmp111:
	.loc	1 287 16 is_stmt 1              @ ../User/App/Robot.c:287:16
	ldr	r0, [sp, #72]
	.loc	1 287 35 is_stmt 0              @ ../User/App/Robot.c:287:35
	ldr	r2, [r0, #92]
	asrs	r0, r2, #31
	.loc	1 287 43                        @ ../User/App/Robot.c:287:43
	ldr	r3, [sp, #48]
	ldr	r1, [sp, #52]
	.loc	1 287 41                        @ ../User/App/Robot.c:287:41
	subs	r2, r2, r3
	sbcs	r0, r1
	.loc	1 287 14                        @ ../User/App/Robot.c:287:14
	movw	r1, :lower16:RUI_F_GET_FIRE_AIM.AIM
	movt	r1, :upper16:RUI_F_GET_FIRE_AIM.AIM
	str	r2, [r1]
	str	r0, [r1, #4]
	.loc	1 288 8 is_stmt 1               @ ../User/App/Robot.c:288:8
	b	.LBB4_20
.Ltmp112:
.LBB4_19:
	.loc	1 289 16                        @ ../User/App/Robot.c:289:16
	ldr	r0, [sp, #72]
	.loc	1 289 57 is_stmt 0              @ ../User/App/Robot.c:289:57
	ldr	r3, [r0, #64]
	ldr	r1, [r0, #68]
	.loc	1 289 35                        @ ../User/App/Robot.c:289:35
	ldr	r2, [r0, #92]
	asrs	r0, r2, #31
	.loc	1 289 41                        @ ../User/App/Robot.c:289:41
	adds	r2, r2, r3
	adcs	r0, r1
	.loc	1 289 72                        @ ../User/App/Robot.c:289:72
	ldr	r3, [sp, #48]
	ldr	r1, [sp, #52]
	.loc	1 289 70                        @ ../User/App/Robot.c:289:70
	adds	r2, r2, r3
	adcs	r0, r1
	.loc	1 289 14                        @ ../User/App/Robot.c:289:14
	movw	r1, :lower16:RUI_F_GET_FIRE_AIM.AIM
	movt	r1, :upper16:RUI_F_GET_FIRE_AIM.AIM
	str	r2, [r1]
	str	r0, [r1, #4]
	b	.LBB4_20
.Ltmp113:
.LBB4_20:
	.loc	1 290 27 is_stmt 1              @ ../User/App/Robot.c:290:27
	movw	r1, :lower16:all_ui
	movt	r1, :upper16:all_ui
	movs	r0, #1
	strb	r0, [r1, #15]
	.loc	1 291 6                         @ ../User/App/Robot.c:291:6
	b	.LBB4_22
.Ltmp114:
.LBB4_21:
	.loc	1 291 30 is_stmt 0              @ ../User/App/Robot.c:291:30
	movw	r1, :lower16:all_ui
	movt	r1, :upper16:all_ui
	movs	r0, #0
	strb	r0, [r1, #15]
	b	.LBB4_22
.Ltmp115:
.LBB4_22:
	.loc	1 294 26 is_stmt 1              @ ../User/App/Robot.c:294:26
	movw	r0, :lower16:VT13_DBUS
	movt	r0, :upper16:VT13_DBUS
	ldrb.w	r1, [r0, #52]
	movs	r0, #0
	.loc	1 294 39 is_stmt 0              @ ../User/App/Robot.c:294:39
	cmp.w	r0, r1, lsr #4
	bne	.LBB4_26
	b	.LBB4_23
.LBB4_23:
	.loc	1 295 8 is_stmt 1               @ ../User/App/Robot.c:295:8
	ldr	r0, [sp, #76]
	.loc	1 295 21 is_stmt 0              @ ../User/App/Robot.c:295:21
	ldrsh.w	r0, [r0, #10]
	.loc	1 295 38                        @ ../User/App/Robot.c:295:38
	cmp.w	r0, #300
	bge	.LBB4_26
	b	.LBB4_24
.LBB4_24:
	.loc	1 295 41                        @ ../User/App/Robot.c:295:41
	ldr	r0, [sp, #76]
	.loc	1 295 54                        @ ../User/App/Robot.c:295:54
	ldrsh.w	r0, [r0, #10]
.Ltmp116:
	.loc	1 294 10 is_stmt 1              @ ../User/App/Robot.c:294:10
	cmn.w	r0, #300
	ble	.LBB4_26
	b	.LBB4_25
.LBB4_25:
.Ltmp117:
	.loc	1 296 14                        @ ../User/App/Robot.c:296:14
	ldr	r0, [sp, #72]
	.loc	1 296 33 is_stmt 0              @ ../User/App/Robot.c:296:33
	ldr	r2, [r0, #92]
	asrs	r0, r2, #31
	.loc	1 296 12                        @ ../User/App/Robot.c:296:12
	movw	r1, :lower16:RUI_F_GET_FIRE_AIM.AIM
	movt	r1, :upper16:RUI_F_GET_FIRE_AIM.AIM
	str	r2, [r1]
	str	r0, [r1, #4]
	.loc	1 297 6 is_stmt 1               @ ../User/App/Robot.c:297:6
	b	.LBB4_26
.Ltmp118:
.LBB4_26:
	.loc	1 299 9                         @ ../User/App/Robot.c:299:9
	ldr	r0, [sp, #76]
	.loc	1 299 22 is_stmt 0              @ ../User/App/Robot.c:299:22
	ldrsh.w	r0, [r0, #10]
	movw	r1, #64885
	movt	r1, #65535
	.loc	1 299 38                        @ ../User/App/Robot.c:299:38
	cmp	r0, r1
	bgt	.LBB4_29
	b	.LBB4_27
.LBB4_27:
	.loc	1 299 41                        @ ../User/App/Robot.c:299:41
	movw	r0, :lower16:RUI_F_GET_FIRE_AIM.SINGLE_LOCK1
	movt	r0, :upper16:RUI_F_GET_FIRE_AIM.SINGLE_LOCK1
	ldrb	r0, [r0]
.Ltmp119:
	.loc	1 299 9                         @ ../User/App/Robot.c:299:9
	cbnz	r0, .LBB4_29
	b	.LBB4_28
.LBB4_28:
.Ltmp120:
	.loc	1 302 21 is_stmt 1              @ ../User/App/Robot.c:302:21
	movw	r1, :lower16:RUI_F_GET_FIRE_AIM.SINGLE_LOCK1
	movt	r1, :upper16:RUI_F_GET_FIRE_AIM.SINGLE_LOCK1
	movs	r0, #1
	strb	r0, [r1]
	.loc	1 303 15                        @ ../User/App/Robot.c:303:15
	ldr	r0, [sp, #72]
	.loc	1 303 34 is_stmt 0              @ ../User/App/Robot.c:303:34
	ldr	r0, [r0, #92]
	movw	r1, #15000
	.loc	1 303 40                        @ ../User/App/Robot.c:303:40
	adds	r2, r0, r1
	.loc	1 303 15                        @ ../User/App/Robot.c:303:15
	asrs	r0, r2, #31
	.loc	1 303 13                        @ ../User/App/Robot.c:303:13
	movw	r1, :lower16:RUI_F_GET_FIRE_AIM.AIM
	movt	r1, :upper16:RUI_F_GET_FIRE_AIM.AIM
	str	r2, [r1]
	str	r0, [r1, #4]
	.loc	1 304 5 is_stmt 1               @ ../User/App/Robot.c:304:5
	b	.LBB4_29
.Ltmp121:
.LBB4_29:
	.loc	1 306 25                        @ ../User/App/Robot.c:306:25
	movw	r0, :lower16:VisionRxDataTemp
	movt	r0, :upper16:VisionRxDataTemp
	ldrb.w	r0, [r0, #52]
	lsrs	r0, r0, #3
	.loc	1 306 34 is_stmt 0              @ ../User/App/Robot.c:306:34
	lsls	r0, r0, #31
	cmp	r0, #0
	beq	.LBB4_35
	b	.LBB4_30
.LBB4_30:
	.loc	1 306 53                        @ ../User/App/Robot.c:306:53
	movw	r0, :lower16:VisionRxDataTemp
	movt	r0, :upper16:VisionRxDataTemp
	ldrb.w	r0, [r0, #52]
	lsrs	r0, r0, #4
	.loc	1 306 62                        @ ../User/App/Robot.c:306:62
	lsls	r0, r0, #31
	cmp	r0, #0
	beq	.LBB4_35
	b	.LBB4_31
.LBB4_31:
	.loc	1 306 81                        @ ../User/App/Robot.c:306:81
	movw	r0, :lower16:VisionRxDataTemp
	movt	r0, :upper16:VisionRxDataTemp
	ldrh	r0, [r0, #40]
	.loc	1 306 97                        @ ../User/App/Robot.c:306:97
	cmp.w	r0, #900
	bgt	.LBB4_35
	b	.LBB4_32
.LBB4_32:
	.loc	1 306 99                        @ ../User/App/Robot.c:306:99
	ldr	r0, [sp, #76]
	.loc	1 306 112                       @ ../User/App/Robot.c:306:112
	ldrb	r0, [r0, #13]
	.loc	1 306 120                       @ ../User/App/Robot.c:306:120
	cmp	r0, #2
	bne	.LBB4_35
	b	.LBB4_33
.LBB4_33:
	.loc	1 306 122                       @ ../User/App/Robot.c:306:122
	movw	r0, :lower16:fireaim
	movt	r0, :upper16:fireaim
	vldr	s0, [r0]
	vldr	s2, .LCPI4_0
.Ltmp122:
	.loc	1 306 8                         @ ../User/App/Robot.c:306:8
	vcmp.f32	s0, s2
	vmrs	APSR_nzcv, fpscr
	blt	.LBB4_35
	b	.LBB4_34
.LBB4_34:
.Ltmp123:
	.loc	1 307 26 is_stmt 1              @ ../User/App/Robot.c:307:26
	ldr	r0, [sp, #72]
	.loc	1 307 67 is_stmt 0              @ ../User/App/Robot.c:307:67
	ldr	r1, [r0, #64]
	str	r1, [sp, #16]                   @ 4-byte Spill
	ldr	r1, [r0, #68]
	.loc	1 307 45                        @ ../User/App/Robot.c:307:45
	str	r1, [sp, #20]                   @ 4-byte Spill
	ldr	r0, [r0, #92]
	asrs	r1, r0, #31
	.loc	1 307 17                        @ ../User/App/Robot.c:307:17
	bl	__aeabi_l2d
	mov	r2, r0
	ldr	r0, [sp, #16]                   @ 4-byte Reload
	mov	r3, r1
	ldr	r1, [sp, #20]                   @ 4-byte Reload
	vmov	d0, r2, r3
	vstr	d0, [sp, #24]                   @ 8-byte Spill
	.loc	1 307 53                        @ ../User/App/Robot.c:307:53
	bl	__aeabi_l2d
	vmov	d0, r0, r1
	vldr	d1, .LCPI4_1
	.loc	1 307 51                        @ ../User/App/Robot.c:307:51
	vmov	r2, r3, d1
	vmov	r0, r1, d0
	bl	__aeabi_dmul
	vldr	d0, [sp, #24]                   @ 8-byte Reload
	vmov	r2, r3, d0
	vmov	d0, r0, r1
	vmov	r0, r1, d0
	bl	__aeabi_dadd
	vmov	d0, r0, r1
	.loc	1 307 17                        @ ../User/App/Robot.c:307:17
	vmov	r0, r1, d0
	bl	__aeabi_d2lz
	mov	r2, r1
	.loc	1 307 15                        @ ../User/App/Robot.c:307:15
	movw	r1, :lower16:RUI_F_GET_FIRE_AIM.AIM
	movt	r1, :upper16:RUI_F_GET_FIRE_AIM.AIM
	str	r2, [r1, #4]
	str	r0, [r1]
	.loc	1 307 103                       @ ../User/App/Robot.c:307:103
	movw	r1, :lower16:all_ui
	movt	r1, :upper16:all_ui
	movs	r0, #1
	strb	r0, [r1, #16]
	.loc	1 307 106                       @ ../User/App/Robot.c:307:106
	b	.LBB4_36
.Ltmp124:
.LBB4_35:
	.loc	1 308 31 is_stmt 1              @ ../User/App/Robot.c:308:31
	movw	r1, :lower16:all_ui
	movt	r1, :upper16:all_ui
	movs	r0, #0
	strb	r0, [r1, #16]
	b	.LBB4_36
.Ltmp125:
.LBB4_36:
	.loc	1 311 5                         @ ../User/App/Robot.c:311:5
	b	.LBB4_37
.Ltmp126:
.LBB4_37:
	.loc	1 312 30                        @ ../User/App/Robot.c:312:30
	movw	r0, :lower16:VT13_DBUS
	movt	r0, :upper16:VT13_DBUS
	ldrb.w	r1, [r0, #52]
	movs	r0, #2
	.loc	1 312 40 is_stmt 0              @ ../User/App/Robot.c:312:40
	cmp.w	r0, r1, lsr #4
	beq	.LBB4_39
	b	.LBB4_38
.LBB4_38:
	.loc	1 312 42                        @ ../User/App/Robot.c:312:42
	ldrb.w	r0, [sp, #67]
	.loc	1 312 51                        @ ../User/App/Robot.c:312:51
	cmp	r0, #1
	bne	.LBB4_42
	b	.LBB4_39
.LBB4_39:
	.loc	1 312 53                        @ ../User/App/Robot.c:312:53
	movw	r0, :lower16:fireaim
	movt	r0, :upper16:fireaim
	vldr	s0, [r0]
	vldr	s2, .LCPI4_0
	.loc	1 312 66                        @ ../User/App/Robot.c:312:66
	vcmp.f32	s0, s2
	vmrs	APSR_nzcv, fpscr
	blt	.LBB4_42
	b	.LBB4_40
.LBB4_40:
	.loc	1 312 83                        @ ../User/App/Robot.c:312:83
	movw	r0, :lower16:g_heat_watcher
	movt	r0, :upper16:g_heat_watcher
	ldrb	r0, [r0, #18]
.Ltmp127:
	.loc	1 312 13                        @ ../User/App/Robot.c:312:13
	cmp	r0, #1
	bne	.LBB4_42
	b	.LBB4_41
.LBB4_41:
.Ltmp128:
	.loc	1 315 31 is_stmt 1              @ ../User/App/Robot.c:315:31
	ldr	r0, [sp, #72]
	.loc	1 315 72 is_stmt 0              @ ../User/App/Robot.c:315:72
	ldr	r1, [r0, #64]
	str	r1, [sp]                        @ 4-byte Spill
	ldr	r1, [r0, #68]
	.loc	1 315 50                        @ ../User/App/Robot.c:315:50
	str	r1, [sp, #4]                    @ 4-byte Spill
	ldr	r0, [r0, #92]
	asrs	r1, r0, #31
	.loc	1 315 22                        @ ../User/App/Robot.c:315:22
	bl	__aeabi_l2d
	mov	r2, r0
	ldr	r0, [sp]                        @ 4-byte Reload
	mov	r3, r1
	ldr	r1, [sp, #4]                    @ 4-byte Reload
	vmov	d0, r2, r3
	vstr	d0, [sp, #8]                    @ 8-byte Spill
	.loc	1 315 58                        @ ../User/App/Robot.c:315:58
	bl	__aeabi_l2d
	vmov	d0, r0, r1
	vldr	d1, .LCPI4_2
	.loc	1 315 56                        @ ../User/App/Robot.c:315:56
	vmov	r2, r3, d1
	vmov	r0, r1, d0
	bl	__aeabi_dmul
	vldr	d0, [sp, #8]                    @ 8-byte Reload
	vmov	r2, r3, d0
	vmov	d0, r0, r1
	vmov	r0, r1, d0
	bl	__aeabi_dadd
	vmov	d0, r0, r1
	.loc	1 315 22                        @ ../User/App/Robot.c:315:22
	vmov	r0, r1, d0
	bl	__aeabi_d2lz
	mov	r2, r1
	.loc	1 315 20                        @ ../User/App/Robot.c:315:20
	movw	r1, :lower16:RUI_F_GET_FIRE_AIM.AIM
	movt	r1, :upper16:RUI_F_GET_FIRE_AIM.AIM
	str	r2, [r1, #4]
	str	r0, [r1]
.Ltmp129:
	.loc	1 316 32 is_stmt 1              @ ../User/App/Robot.c:316:32
	movw	r1, :lower16:all_ui
	movt	r1, :upper16:all_ui
	movs	r0, #1
	strb	r0, [r1, #14]
	.loc	1 317 9                         @ ../User/App/Robot.c:317:9
	b	.LBB4_43
.Ltmp130:
.LBB4_42:
	.loc	1 317 33 is_stmt 0              @ ../User/App/Robot.c:317:33
	movw	r1, :lower16:all_ui
	movt	r1, :upper16:all_ui
	movs	r0, #0
	strb	r0, [r1, #14]
	b	.LBB4_43
.Ltmp131:
.LBB4_43:
	.loc	1 318 16 is_stmt 1              @ ../User/App/Robot.c:318:16
	movw	r0, :lower16:all_ui
	movt	r0, :upper16:all_ui
	ldrb	r0, [r0, #14]
	.loc	1 318 27 is_stmt 0              @ ../User/App/Robot.c:318:27
	cbnz	r0, .LBB4_47
	b	.LBB4_44
.LBB4_44:
	.loc	1 318 36                        @ ../User/App/Robot.c:318:36
	movw	r0, :lower16:all_ui
	movt	r0, :upper16:all_ui
	ldrb	r0, [r0, #15]
	.loc	1 318 47                        @ ../User/App/Robot.c:318:47
	cbnz	r0, .LBB4_47
	b	.LBB4_45
.LBB4_45:
	.loc	1 318 56                        @ ../User/App/Robot.c:318:56
	movw	r0, :lower16:all_ui
	movt	r0, :upper16:all_ui
	ldrb	r0, [r0, #16]
	.loc	1 318 67                        @ ../User/App/Robot.c:318:67
	cbnz	r0, .LBB4_47
	b	.LBB4_46
.LBB4_46:
	.loc	1 318 76                        @ ../User/App/Robot.c:318:76
	movw	r0, :lower16:all_ui
	movt	r0, :upper16:all_ui
	ldrb	r0, [r0, #17]
.Ltmp132:
	.loc	1 318 9                         @ ../User/App/Robot.c:318:9
	cbz	r0, .LBB4_48
	b	.LBB4_47
.LBB4_47:
.Ltmp133:
	.loc	1 319 24 is_stmt 1              @ ../User/App/Robot.c:319:24
	movw	r1, :lower16:all_ui
	movt	r1, :upper16:all_ui
	movs	r0, #1
	strb	r0, [r1, #13]
	.loc	1 319 27 is_stmt 0              @ ../User/App/Robot.c:319:27
	b	.LBB4_49
.Ltmp134:
.LBB4_48:
	.loc	1 319 52                        @ ../User/App/Robot.c:319:52
	movw	r1, :lower16:all_ui
	movt	r1, :upper16:all_ui
	movs	r0, #0
	strb	r0, [r1, #13]
	b	.LBB4_49
.Ltmp135:
.LBB4_49:
	.loc	1 320 12 is_stmt 1              @ ../User/App/Robot.c:320:12
	movw	r1, :lower16:RUI_F_GET_FIRE_AIM.AIM
	movt	r1, :upper16:RUI_F_GET_FIRE_AIM.AIM
	ldr	r0, [r1]
	ldr	r1, [r1, #4]
	.loc	1 320 5 is_stmt 0               @ ../User/App/Robot.c:320:5
	add	sp, #80
	pop	{r7, pc}
.Ltmp136:
	.p2align	3
@ %bb.50:
	.loc	1 0 5                           @ ../User/App/Robot.c:0:5
.LCPI4_1:
	.long	3607772529                      @ double 0.23000000000000001
	.long	1070428323
.LCPI4_2:
	.long	1717986918                      @ double 0.34999999999999998
	.long	1071015526
.LCPI4_0:
	.long	0x45da7000                      @ float 6990
.Lfunc_end4:
	.size	RUI_F_GET_FIRE_AIM, .Lfunc_end4-RUI_F_GET_FIRE_AIM
	.cfi_endproc
	.cantunwind
	.fnend
                                        @ -- End function
	.section	.text.Shoot_Speed_P,"ax",%progbits
	.hidden	Shoot_Speed_P                   @ -- Begin function Shoot_Speed_P
	.globl	Shoot_Speed_P
	.p2align	2
	.type	Shoot_Speed_P,%function
	.code	16                              @ @Shoot_Speed_P
	.thumb_func
Shoot_Speed_P:
.Lfunc_begin5:
	.loc	1 211 0 is_stmt 1               @ ../User/App/Robot.c:211:0
	.fnstart
	.cfi_startproc
@ %bb.0:
	.save	{r7, lr}
	push	{r7, lr}
	.cfi_def_cfa_offset 8
	.cfi_offset lr, -4
	.cfi_offset r7, -8
	.pad	#24
	sub	sp, #24
	.cfi_def_cfa_offset 32
	vstr	s0, [sp, #20]
	vstr	s1, [sp, #16]
	vstr	s2, [sp, #12]
	vstr	s3, [sp, #8]
.Ltmp137:
	.loc	1 212 19 prologue_end           @ ../User/App/Robot.c:212:19
	vldr	s0, [sp, #12]
	.loc	1 212 25 is_stmt 0              @ ../User/App/Robot.c:212:25
	vldr	s2, [sp, #16]
	.loc	1 212 23                        @ ../User/App/Robot.c:212:23
	vsub.f32	s0, s0, s2
	.loc	1 212 11                        @ ../User/App/Robot.c:212:11
	vstr	s0, [sp, #4]
	.loc	1 214 21 is_stmt 1              @ ../User/App/Robot.c:214:21
	vldr	s0, [sp, #4]
	.loc	1 214 29 is_stmt 0              @ ../User/App/Robot.c:214:29
	vldr	s2, [sp, #20]
	.loc	1 214 27                        @ ../User/App/Robot.c:214:27
	vmul.f32	s0, s0, s2
	.loc	1 214 11                        @ ../User/App/Robot.c:214:11
	vstr	s0, [sp]
	.loc	1 216 38 is_stmt 1              @ ../User/App/Robot.c:216:38
	vldr	s0, [sp, #8]
	.loc	1 216 47 is_stmt 0              @ ../User/App/Robot.c:216:47
	vneg.f32	s1, s0
	.loc	1 216 57                        @ ../User/App/Robot.c:216:57
	vldr	s2, [sp]
	.loc	1 216 15                        @ ../User/App/Robot.c:216:15
	bl	RUI_F_MATH_Limit_float
	.loc	1 216 13                        @ ../User/App/Robot.c:216:13
	vstr	s0, [sp]
	.loc	1 218 12 is_stmt 1              @ ../User/App/Robot.c:218:12
	vldr	s0, [sp]
	.loc	1 218 5 is_stmt 0               @ ../User/App/Robot.c:218:5
	add	sp, #24
	pop	{r7, pc}
.Ltmp138:
.Lfunc_end5:
	.size	Shoot_Speed_P, .Lfunc_end5-Shoot_Speed_P
	.cfi_endproc
	.cantunwind
	.fnend
                                        @ -- End function
	.hidden	a                               @ @a
	.type	a,%object
	.section	.bss.a,"aw",%nobits
	.globl	a
	.p2align	2
a:
	.long	0                               @ 0x0
	.size	a, 4

	.hidden	b                               @ @b
	.type	b,%object
	.section	.bss.b,"aw",%nobits
	.globl	b
	.p2align	2
b:
	.long	0                               @ 0x0
	.size	b, 4

	.hidden	yawvison                        @ @yawvison
	.type	yawvison,%object
	.section	.data.yawvison,"aw",%progbits
	.globl	yawvison
	.p2align	2
yawvison:
	.long	0xc1b60000                      @ float -22.75
	.size	yawvison, 4

	.hidden	pitchvison                      @ @pitchvison
	.type	pitchvison,%object
	.section	.data.pitchvison,"aw",%progbits
	.globl	pitchvison
	.p2align	2
pitchvison:
	.long	0xc2480000                      @ float -50
	.size	pitchvison, 4

	.hidden	fireaim                         @ @fireaim
	.type	fireaim,%object
	.section	.bss.fireaim,"aw",%nobits
	.globl	fireaim
	.p2align	2
fireaim:
	.long	0x00000000                      @ float 0
	.size	fireaim, 4

	.type	RobotTask.SLOW_START,%object    @ @RobotTask.SLOW_START
	.section	.bss.RobotTask.SLOW_START,"aw",%nobits
	.p2align	2
RobotTask.SLOW_START:
	.long	0x00000000                      @ float 0
	.size	RobotTask.SLOW_START, 4

	.type	RobotTask.FIX_ANGLE,%object     @ @RobotTask.FIX_ANGLE
	.section	.bss.RobotTask.FIX_ANGLE,"aw",%nobits
	.p2align	2
RobotTask.FIX_ANGLE:
	.long	0x00000000                      @ float 0
	.size	RobotTask.FIX_ANGLE, 4

	.type	RobotTask.RUI_V_FOLLOW_PREDICT,%object @ @RobotTask.RUI_V_FOLLOW_PREDICT
	.section	.bss.RobotTask.RUI_V_FOLLOW_PREDICT,"aw",%nobits
	.p2align	2
RobotTask.RUI_V_FOLLOW_PREDICT:
	.long	0x00000000                      @ float 0
	.size	RobotTask.RUI_V_FOLLOW_PREDICT, 4

	.type	RUI_F_GET_FIRE_WIPE_SPEED.AIM,%object @ @RUI_F_GET_FIRE_WIPE_SPEED.AIM
	.section	.bss.RUI_F_GET_FIRE_WIPE_SPEED.AIM,"aw",%nobits
	.p2align	2
RUI_F_GET_FIRE_WIPE_SPEED.AIM:
	.long	0x00000000                      @ float 0
	.size	RUI_F_GET_FIRE_WIPE_SPEED.AIM, 4

	.type	RUI_F_CHASSIS_PID.INTEGRAL,%object @ @RUI_F_CHASSIS_PID.INTEGRAL
	.section	.bss.RUI_F_CHASSIS_PID.INTEGRAL,"aw",%nobits
	.p2align	2
RUI_F_CHASSIS_PID.INTEGRAL:
	.long	0x00000000                      @ float 0
	.size	RUI_F_CHASSIS_PID.INTEGRAL, 4

	.type	RUI_F_GET_FIRE_AIM.SINGLE_LOCK1,%object @ @RUI_F_GET_FIRE_AIM.SINGLE_LOCK1
	.section	.bss.RUI_F_GET_FIRE_AIM.SINGLE_LOCK1,"aw",%nobits
RUI_F_GET_FIRE_AIM.SINGLE_LOCK1:
	.byte	0                               @ 0x0
	.size	RUI_F_GET_FIRE_AIM.SINGLE_LOCK1, 1

	.type	RUI_F_GET_FIRE_AIM.SINGLE_LOCK2,%object @ @RUI_F_GET_FIRE_AIM.SINGLE_LOCK2
	.section	.bss.RUI_F_GET_FIRE_AIM.SINGLE_LOCK2,"aw",%nobits
RUI_F_GET_FIRE_AIM.SINGLE_LOCK2:
	.byte	0                               @ 0x0
	.size	RUI_F_GET_FIRE_AIM.SINGLE_LOCK2, 1

	.type	RUI_F_GET_FIRE_AIM.AIM,%object  @ @RUI_F_GET_FIRE_AIM.AIM
	.section	.bss.RUI_F_GET_FIRE_AIM.AIM,"aw",%nobits
	.p2align	3
RUI_F_GET_FIRE_AIM.AIM:
	.long	0                               @ 0x0
	.long	0
	.size	RUI_F_GET_FIRE_AIM.AIM, 8

	.file	3 "D:\\horizon\\Horizon_Infantry (2)\\MDK-ARM" "../User/Bsp/inc\\RUI_DBUS.h"
	.file	4 "D:\\horizon\\Horizon_Infantry (2)\\MDK-ARM" "../User/Start/Inc\\Motors.h"
	.file	5 "D:\\horizon\\Horizon_Infantry (2)\\MDK-ARM" "../User/Bsp/inc/Referee.h"
	.file	6 "D:\\horizon\\Horizon_Infantry (2)\\MDK-ARM" "../User/Bsp/inc\\Power_CAP.h"
	.file	7 "D:\\horizon\\Horizon_Infantry (2)\\MDK-ARM" "../User/Bsp/inc\\Vision.h"
	.section	".note.GNU-stack","",%progbits
	.eabi_attribute	30, 6	@ Tag_ABI_optimization_goals
	.ARM_attribute	16, 1	@ Tag_AV_eba