	.text
	.syntax unified
	.eabi_attribute	67, "2.09"	@ Tag_conformance
	.cpu	cortex-m4
	.eabi_attribute	6, 13	@ Tag_CPU_arch
	.eabi_attribute	7, 77	@ Tag_CPU_arch_profile
	.eabi_attribute	8, 0	@ Tag_ARM_ISA_use
	.eabi_attribute	9, 2	@ Tag_THUMB_ISA_use
	.fpu	fpv4-sp-d16
	.eabi_attribute	27, 1	@ Tag_ABI_HardFP_use
	.eabi_attribute	36, 1	@ Tag_FP_HP_extension
	.eabi_attribute	34, 1	@ Tag_CPU_unaligned_access
	.eabi_attribute	17, 1	@ Tag_ABI_PCS_GOT_use
	.eabi_attribute	20, 2	@ Tag_ABI_FP_denormal
	.eabi_attribute	21, 0	@ Tag_ABI_FP_exceptions
	.eabi_attribute	23, 3	@ Tag_ABI_FP_number_model
	.eabi_attribute	24, 1	@ Tag_ABI_align_needed
	.eabi_attribute	25, 1	@ Tag_ABI_align_preserved
	.eabi_attribute	28, 1	@ Tag_ABI_VFP_args
	.eabi_attribute	38, 1	@ Tag_ABI_FP_16bit_format
	.eabi_attribute	18, 2	@ Tag_ABI_PCS_wchar_t
	.eabi_attribute	26, 1	@ Tag_ABI_enum_size
	.eabi_attribute	14, 0	@ Tag_ABI_PCS_R9_use
	.file	"RUI_ROOT_INIT.c"
	.file	1 "D:\\" "kevil\\ARM\\ARMCLANG\\Bin\\..\\include\\stdint.h"
	.file	2 "D:\\horizon\\Horizon_Infantry (2)\\MDK-ARM" "../User/App/inc/RUI_ROOT_INIT.h"
	.file	3 "D:\\horizon\\Horizon_Infantry (2)\\MDK-ARM" "../User/App/RUI_ROOT_INIT.c"
	.file	4 "D:\\horizon\\Horizon_Infantry (2)\\MDK-ARM" "../User/Algorithm/inc\\controller.h"
	.section	.text.RUI_F_ROOT,"ax",%progbits
	.hidden	RUI_F_ROOT                      @ -- Begin function RUI_F_ROOT
	.globl	RUI_F_ROOT
	.p2align	2
	.type	RUI_F_ROOT,%function
	.code	16                              @ @RUI_F_ROOT
	.thumb_func
RUI_F_ROOT:
.Lfunc_begin0:
	.loc	3 34 0                          @ ../User/App/RUI_ROOT_INIT.c:34:0
	.fnstart
	.cfi_sections .debug_frame
	.cfi_startproc
@ %bb.0:
	.save	{r7, lr}
	push	{r7, lr}
	.cfi_def_cfa_offset 8
	.cfi_offset lr, -4
	.cfi_offset r7, -8
	.pad	#16
	sub	sp, #16
	.cfi_def_cfa_offset 24
	str	r0, [sp, #12]
	str	r1, [sp, #8]
	str	r2, [sp, #4]
	str	r3, [sp]
.Ltmp0:
	.loc	3 35 27 prologue_end            @ ../User/App/RUI_ROOT_INIT.c:35:27
	ldr	r0, [sp, #12]
	.loc	3 35 33 is_stmt 0               @ ../User/App/RUI_ROOT_INIT.c:35:33
	ldr	r1, [sp, #8]
	.loc	3 35 39                         @ ../User/App/RUI_ROOT_INIT.c:35:39
	ldr	r2, [sp, #4]
	.loc	3 35 46                         @ ../User/App/RUI_ROOT_INIT.c:35:46
	ldr	r3, [sp]
	.loc	3 35 5                          @ ../User/App/RUI_ROOT_INIT.c:35:5
	bl	RUI_F_ROOT_ALL_STATUS
	.loc	3 36 33 is_stmt 1               @ ../User/App/RUI_ROOT_INIT.c:36:33
	ldr	r0, [sp, #12]
	.loc	3 36 5 is_stmt 0                @ ../User/App/RUI_ROOT_INIT.c:36:5
	bl	RUI_F_MASTER_LOCATION_JUDGE
	.loc	3 37 27 is_stmt 1               @ ../User/App/RUI_ROOT_INIT.c:37:27
	ldr	r0, [sp, #12]
	.loc	3 37 5 is_stmt 0                @ ../User/App/RUI_ROOT_INIT.c:37:5
	bl	RUI_F_LED_SHOW_STATUS
	.loc	3 38 1 is_stmt 1                @ ../User/App/RUI_ROOT_INIT.c:38:1
	add	sp, #16
	pop	{r7, pc}
.Ltmp1:
.Lfunc_end0:
	.size	RUI_F_ROOT, .Lfunc_end0-RUI_F_ROOT
	.cfi_endproc
	.cantunwind
	.fnend
                                        @ -- End function
	.section	.text.RUI_F_ROOT_ALL_STATUS,"ax",%progbits
	.hidden	RUI_F_ROOT_ALL_STATUS           @ -- Begin function RUI_F_ROOT_ALL_STATUS
	.globl	RUI_F_ROOT_ALL_STATUS
	.p2align	2
	.type	RUI_F_ROOT_ALL_STATUS,%function
	.code	16                              @ @RUI_F_ROOT_ALL_STATUS
	.thumb_func
RUI_F_ROOT_ALL_STATUS:
.Lfunc_begin1:
	.loc	3 90 0                          @ ../User/App/RUI_ROOT_INIT.c:90:0
	.fnstart
	.cfi_startproc
@ %bb.0:
	.save	{r7, lr}
	push	{r7, lr}
	.cfi_def_cfa_offset 8
	.cfi_offset lr, -4
	.cfi_offset r7, -8
	.pad	#16
	sub	sp, #16
	.cfi_def_cfa_offset 24
	str	r0, [sp, #12]
	str	r1, [sp, #8]
	str	r2, [sp, #4]
	str	r3, [sp]
.Ltmp2:
	.loc	3 92 9 prologue_end             @ ../User/App/RUI_ROOT_INIT.c:92:9
	ldr	r0, [sp, #8]
	.loc	3 92 15 is_stmt 0               @ ../User/App/RUI_ROOT_INIT.c:92:15
	ldrb.w	r0, [r0, #70]
.Ltmp3:
	.loc	3 92 9                          @ ../User/App/RUI_ROOT_INIT.c:92:9
	cmp	r0, #4
	bgt	.LBB1_2
	b	.LBB1_1
.LBB1_1:
.Ltmp4:
	.loc	3 94 9 is_stmt 1                @ ../User/App/RUI_ROOT_INIT.c:94:9
	ldr	r1, [sp, #8]
	movs	r0, #3
	.loc	3 94 44 is_stmt 0               @ ../User/App/RUI_ROOT_INIT.c:94:44
	strb.w	r0, [r1, #70]
	.loc	3 95 9 is_stmt 1                @ ../User/App/RUI_ROOT_INIT.c:95:9
	ldr	r1, [sp, #12]
	movs	r0, #0
	.loc	3 95 23 is_stmt 0               @ ../User/App/RUI_ROOT_INIT.c:95:23
	strb	r0, [r1]
	.loc	3 96 5 is_stmt 1                @ ../User/App/RUI_ROOT_INIT.c:96:5
	b	.LBB1_3
.Ltmp5:
.LBB1_2:
	.loc	3 99 9                          @ ../User/App/RUI_ROOT_INIT.c:99:9
	ldr	r1, [sp, #12]
	movs	r0, #1
	.loc	3 99 23 is_stmt 0               @ ../User/App/RUI_ROOT_INIT.c:99:23
	strb	r0, [r1]
	b	.LBB1_3
.Ltmp6:
.LBB1_3:
	.loc	3 101 5 is_stmt 1               @ ../User/App/RUI_ROOT_INIT.c:101:5
	ldr	r1, [sp, #8]
	.loc	3 101 39 is_stmt 0              @ ../User/App/RUI_ROOT_INIT.c:101:39
	ldrb.w	r0, [r1, #70]
	subs	r0, #1
	strb.w	r0, [r1, #70]
.Ltmp7:
	.loc	3 104 8 is_stmt 1               @ ../User/App/RUI_ROOT_INIT.c:104:8
	ldr	r0, [sp]
	.loc	3 104 17 is_stmt 0              @ ../User/App/RUI_ROOT_INIT.c:104:17
	ldrsb.w	r0, [r0, #14]
.Ltmp8:
	.loc	3 104 8                         @ ../User/App/RUI_ROOT_INIT.c:104:8
	cmp	r0, #4
	bgt	.LBB1_5
	b	.LBB1_4
.LBB1_4:
.Ltmp9:
	.loc	3 106 9 is_stmt 1               @ ../User/App/RUI_ROOT_INIT.c:106:9
	ldr	r1, [sp]
	movs	r0, #3
	.loc	3 106 36 is_stmt 0              @ ../User/App/RUI_ROOT_INIT.c:106:36
	strb	r0, [r1, #14]
	.loc	3 107 9 is_stmt 1               @ ../User/App/RUI_ROOT_INIT.c:107:9
	ldr	r1, [sp, #12]
	movs	r0, #0
	.loc	3 107 21 is_stmt 0              @ ../User/App/RUI_ROOT_INIT.c:107:21
	strb	r0, [r1, #11]
	.loc	3 108 5 is_stmt 1               @ ../User/App/RUI_ROOT_INIT.c:108:5
	b	.LBB1_6
.Ltmp10:
.LBB1_5:
	.loc	3 111 9                         @ ../User/App/RUI_ROOT_INIT.c:111:9
	ldr	r1, [sp, #12]
	movs	r0, #1
	.loc	3 111 21 is_stmt 0              @ ../User/App/RUI_ROOT_INIT.c:111:21
	strb	r0, [r1, #11]
	b	.LBB1_6
.Ltmp11:
.LBB1_6:
	.loc	3 115 50 is_stmt 1              @ ../User/App/RUI_ROOT_INIT.c:115:50
	ldr	r0, [sp, #4]
	.loc	3 115 72 is_stmt 0              @ ../User/App/RUI_ROOT_INIT.c:115:72
	adds	r0, #136
	.loc	3 115 30                        @ ../User/App/RUI_ROOT_INIT.c:115:30
	bl	DJI_F_MOTOR_STATUS
	.loc	3 115 5                         @ ../User/App/RUI_ROOT_INIT.c:115:5
	ldr	r1, [sp, #12]
	.loc	3 115 28                        @ ../User/App/RUI_ROOT_INIT.c:115:28
	strb	r0, [r1, #2]
	.loc	3 116 48 is_stmt 1              @ ../User/App/RUI_ROOT_INIT.c:116:48
	ldr	r0, [sp, #4]
	.loc	3 116 68 is_stmt 0              @ ../User/App/RUI_ROOT_INIT.c:116:68
	add.w	r0, r0, #696
	.loc	3 116 28                        @ ../User/App/RUI_ROOT_INIT.c:116:28
	bl	DJI_F_MOTOR_STATUS
	.loc	3 116 5                         @ ../User/App/RUI_ROOT_INIT.c:116:5
	ldr	r1, [sp, #12]
	.loc	3 116 26                        @ ../User/App/RUI_ROOT_INIT.c:116:26
	strb	r0, [r1, #3]
	.loc	3 118 47 is_stmt 1              @ ../User/App/RUI_ROOT_INIT.c:118:47
	ldr	r0, [sp, #4]
	.loc	3 118 71 is_stmt 0              @ ../User/App/RUI_ROOT_INIT.c:118:71
	add.w	r0, r0, #1256
	.loc	3 118 27                        @ ../User/App/RUI_ROOT_INIT.c:118:27
	bl	DJI_F_MOTOR_STATUS
	.loc	3 118 5                         @ ../User/App/RUI_ROOT_INIT.c:118:5
	ldr	r1, [sp, #12]
	.loc	3 118 25                        @ ../User/App/RUI_ROOT_INIT.c:118:25
	strb	r0, [r1, #4]
	.loc	3 119 47 is_stmt 1              @ ../User/App/RUI_ROOT_INIT.c:119:47
	ldr	r0, [sp, #4]
	.loc	3 119 71 is_stmt 0              @ ../User/App/RUI_ROOT_INIT.c:119:71
	add.w	r0, r0, #1816
	.loc	3 119 27                        @ ../User/App/RUI_ROOT_INIT.c:119:27
	bl	DJI_F_MOTOR_STATUS
	.loc	3 119 5                         @ ../User/App/RUI_ROOT_INIT.c:119:5
	ldr	r1, [sp, #12]
	.loc	3 119 25                        @ ../User/App/RUI_ROOT_INIT.c:119:25
	strb	r0, [r1, #5]
	.loc	3 120 47 is_stmt 1              @ ../User/App/RUI_ROOT_INIT.c:120:47
	ldr	r0, [sp, #4]
	.loc	3 120 71 is_stmt 0              @ ../User/App/RUI_ROOT_INIT.c:120:71
	addw	r0, r0, #2376
	.loc	3 120 27                        @ ../User/App/RUI_ROOT_INIT.c:120:27
	bl	DJI_F_MOTOR_STATUS
	.loc	3 120 5                         @ ../User/App/RUI_ROOT_INIT.c:120:5
	ldr	r1, [sp, #12]
	.loc	3 120 25                        @ ../User/App/RUI_ROOT_INIT.c:120:25
	strb	r0, [r1, #6]
	.loc	3 122 49 is_stmt 1              @ ../User/App/RUI_ROOT_INIT.c:122:49
	ldr	r0, [sp, #4]
	.loc	3 122 75 is_stmt 0              @ ../User/App/RUI_ROOT_INIT.c:122:75
	addw	r0, r0, #2936
	.loc	3 122 29                        @ ../User/App/RUI_ROOT_INIT.c:122:29
	bl	DJI_F_MOTOR_STATUS
	.loc	3 122 5                         @ ../User/App/RUI_ROOT_INIT.c:122:5
	ldr	r1, [sp, #12]
	.loc	3 122 27                        @ ../User/App/RUI_ROOT_INIT.c:122:27
	strb	r0, [r1, #7]
	.loc	3 123 49 is_stmt 1              @ ../User/App/RUI_ROOT_INIT.c:123:49
	ldr	r0, [sp, #4]
	.loc	3 123 75 is_stmt 0              @ ../User/App/RUI_ROOT_INIT.c:123:75
	addw	r0, r0, #3496
	.loc	3 123 29                        @ ../User/App/RUI_ROOT_INIT.c:123:29
	bl	DJI_F_MOTOR_STATUS
	.loc	3 123 5                         @ ../User/App/RUI_ROOT_INIT.c:123:5
	ldr	r1, [sp, #12]
	.loc	3 123 27                        @ ../User/App/RUI_ROOT_INIT.c:123:27
	strb	r0, [r1, #8]
	.loc	3 124 49 is_stmt 1              @ ../User/App/RUI_ROOT_INIT.c:124:49
	ldr	r0, [sp, #4]
	.loc	3 124 75 is_stmt 0              @ ../User/App/RUI_ROOT_INIT.c:124:75
	addw	r0, r0, #4056
	.loc	3 124 29                        @ ../User/App/RUI_ROOT_INIT.c:124:29
	bl	DJI_F_MOTOR_STATUS
	.loc	3 124 5                         @ ../User/App/RUI_ROOT_INIT.c:124:5
	ldr	r1, [sp, #12]
	.loc	3 124 27                        @ ../User/App/RUI_ROOT_INIT.c:124:27
	strb	r0, [r1, #9]
	.loc	3 125 49 is_stmt 1              @ ../User/App/RUI_ROOT_INIT.c:125:49
	ldr	r0, [sp, #4]
	movw	r1, #4616
	.loc	3 125 75 is_stmt 0              @ ../User/App/RUI_ROOT_INIT.c:125:75
	add	r0, r1
	.loc	3 125 29                        @ ../User/App/RUI_ROOT_INIT.c:125:29
	bl	DJI_F_MOTOR_STATUS
	.loc	3 125 5                         @ ../User/App/RUI_ROOT_INIT.c:125:5
	ldr	r1, [sp, #12]
	.loc	3 125 27                        @ ../User/App/RUI_ROOT_INIT.c:125:27
	strb	r0, [r1, #10]
	.loc	3 126 1 is_stmt 1               @ ../User/App/RUI_ROOT_INIT.c:126:1
	add	sp, #16
	pop	{r7, pc}
.Ltmp12:
.Lfunc_end1:
	.size	RUI_F_ROOT_ALL_STATUS, .Lfunc_end1-RUI_F_ROOT_ALL_STATUS
	.cfi_endproc
	.cantunwind
	.fnend
                                        @ -- End function
	.section	.text.RUI_F_MASTER_LOCATION_JUDGE,"ax",%progbits
	.hidden	RUI_F_MASTER_LOCATION_JUDGE     @ -- Begin function RUI_F_MASTER_LOCATION_JUDGE
	.globl	RUI_F_MASTER_LOCATION_JUDGE
	.p2align	2
	.type	RUI_F_MASTER_LOCATION_JUDGE,%function
	.code	16                              @ @RUI_F_MASTER_LOCATION_JUDGE
	.thumb_func
RUI_F_MASTER_LOCATION_JUDGE:
.Lfunc_begin2:
	.loc	3 136 0                         @ ../User/App/RUI_ROOT_INIT.c:136:0
	.fnstart
	.cfi_startproc
@ %bb.0:
	.pad	#4
	sub	sp, #4
	.cfi_def_cfa_offset 4
	str	r0, [sp]
.Ltmp13:
	.loc	3 137 5 prologue_end            @ ../User/App/RUI_ROOT_INIT.c:137:5
	ldr	r1, [sp]
	movs	r0, #1
	.loc	3 137 27 is_stmt 0              @ ../User/App/RUI_ROOT_INIT.c:137:27
	strb	r0, [r1, #12]
	.loc	3 138 5 is_stmt 1               @ ../User/App/RUI_ROOT_INIT.c:138:5
	add	sp, #4
	bx	lr
.Ltmp14:
.Lfunc_end2:
	.size	RUI_F_MASTER_LOCATION_JUDGE, .Lfunc_end2-RUI_F_MASTER_LOCATION_JUDGE
	.cfi_endproc
	.cantunwind
	.fnend
                                        @ -- End function
	.section	.text.RUI_F_LED_SHOW_STATUS,"ax",%progbits
	.hidden	RUI_F_LED_SHOW_STATUS           @ -- Begin function RUI_F_LED_SHOW_STATUS
	.globl	RUI_F_LED_SHOW_STATUS
	.p2align	2
	.type	RUI_F_LED_SHOW_STATUS,%function
	.code	16                              @ @RUI_F_LED_SHOW_STATUS
	.thumb_func
RUI_F_LED_SHOW_STATUS:
.Lfunc_begin3:
	.loc	3 151 0                         @ ../User/App/RUI_ROOT_INIT.c:151:0
	.fnstart
	.cfi_startproc
@ %bb.0:
	.pad	#4
	sub	sp, #4
	.cfi_def_cfa_offset 4
	str	r0, [sp]
.Ltmp15:
	.loc	3 202 1 prologue_end            @ ../User/App/RUI_ROOT_INIT.c:202:1
	add	sp, #4
	bx	lr
.Ltmp16:
.Lfunc_end3:
	.size	RUI_F_LED_SHOW_STATUS, .Lfunc_end3-RUI_F_LED_SHOW_STATUS
	.cfi_endproc
	.cantunwind
	.fnend
                                        @ -- End function
	.section	.text.DJI_F_MOTOR_STATUS,"ax",%progbits
	.hidden	DJI_F_MOTOR_STATUS              @ -- Begin function DJI_F_MOTOR_STATUS
	.globl	DJI_F_MOTOR_STATUS
	.p2align	2
	.type	DJI_F_MOTOR_STATUS,%function
	.code	16                              @ @DJI_F_MOTOR_STATUS
	.thumb_func
DJI_F_MOTOR_STATUS:
.Lfunc_begin4:
	.loc	3 48 0                          @ ../User/App/RUI_ROOT_INIT.c:48:0
	.fnstart
	.cfi_startproc
@ %bb.0:
	.pad	#8
	sub	sp, #8
	.cfi_def_cfa_offset 8
	str	r0, [sp]
.Ltmp17:
	.loc	3 49 5 prologue_end             @ ../User/App/RUI_ROOT_INIT.c:49:5
	ldr	r1, [sp]
	.loc	3 49 28 is_stmt 0               @ ../User/App/RUI_ROOT_INIT.c:49:28
	ldrb	r0, [r1]
	subs	r0, #1
	strb	r0, [r1]
.Ltmp18:
	.loc	3 51 9 is_stmt 1                @ ../User/App/RUI_ROOT_INIT.c:51:9
	ldr	r0, [sp]
	.loc	3 51 15 is_stmt 0               @ ../User/App/RUI_ROOT_INIT.c:51:15
	ldrsb.w	r0, [r0]
.Ltmp19:
	.loc	3 51 9                          @ ../User/App/RUI_ROOT_INIT.c:51:9
	cmp	r0, #4
	bgt	.LBB4_2
	b	.LBB4_1
.LBB4_1:
.Ltmp20:
	.loc	3 53 9 is_stmt 1                @ ../User/App/RUI_ROOT_INIT.c:53:9
	ldr	r1, [sp]
	movs	r0, #0
	.loc	3 53 33 is_stmt 0               @ ../User/App/RUI_ROOT_INIT.c:53:33
	strb	r0, [r1]
	.loc	3 54 9 is_stmt 1                @ ../User/App/RUI_ROOT_INIT.c:54:9
	strb.w	r0, [sp, #7]
	b	.LBB4_3
.Ltmp21:
.LBB4_2:
	.loc	3 0 9 is_stmt 0                 @ ../User/App/RUI_ROOT_INIT.c:0:9
	movs	r0, #1
	.loc	3 57 9 is_stmt 1                @ ../User/App/RUI_ROOT_INIT.c:57:9
	strb.w	r0, [sp, #7]
	b	.LBB4_3
.Ltmp22:
.LBB4_3:
	.loc	3 58 1                          @ ../User/App/RUI_ROOT_INIT.c:58:1
	ldrb.w	r0, [sp, #7]
	add	sp, #8
	bx	lr
.Ltmp23:
.Lfunc_end4:
	.size	DJI_F_MOTOR_STATUS, .Lfunc_end4-DJI_F_MOTOR_STATUS
	.cfi_endproc
	.cantunwind
	.fnend
                                        @ -- End function
	.section	.text.DM_F_MOTOR_STATUS,"ax",%progbits
	.hidden	DM_F_MOTOR_STATUS               @ -- Begin function DM_F_MOTOR_STATUS
	.globl	DM_F_MOTOR_STATUS
	.p2align	2
	.type	DM_F_MOTOR_STATUS,%function
	.code	16                              @ @DM_F_MOTOR_STATUS
	.thumb_func
DM_F_MOTOR_STATUS:
.Lfunc_begin5:
	.loc	3 68 0                          @ ../User/App/RUI_ROOT_INIT.c:68:0
	.fnstart
	.cfi_startproc
@ %bb.0:
	.pad	#8
	sub	sp, #8
	.cfi_def_cfa_offset 8
	str	r0, [sp]
.Ltmp24:
	.loc	3 69 3 prologue_end             @ ../User/App/RUI_ROOT_INIT.c:69:3
	ldr	r1, [sp]
	.loc	3 69 26 is_stmt 0               @ ../User/App/RUI_ROOT_INIT.c:69:26
	ldrb.w	r0, [r1, #112]
	subs	r0, #1
	strb.w	r0, [r1, #112]
.Ltmp25:
	.loc	3 71 7 is_stmt 1                @ ../User/App/RUI_ROOT_INIT.c:71:7
	ldr	r0, [sp]
	.loc	3 71 13 is_stmt 0               @ ../User/App/RUI_ROOT_INIT.c:71:13
	ldrsb.w	r0, [r0, #112]
.Ltmp26:
	.loc	3 71 7                          @ ../User/App/RUI_ROOT_INIT.c:71:7
	cmp	r0, #4
	bgt	.LBB5_2
	b	.LBB5_1
.LBB5_1:
.Ltmp27:
	.loc	3 73 5 is_stmt 1                @ ../User/App/RUI_ROOT_INIT.c:73:5
	ldr	r1, [sp]
	movs	r0, #0
	.loc	3 73 29 is_stmt 0               @ ../User/App/RUI_ROOT_INIT.c:73:29
	strb.w	r0, [r1, #112]
	.loc	3 74 5 is_stmt 1                @ ../User/App/RUI_ROOT_INIT.c:74:5
	strb.w	r0, [sp, #7]
	b	.LBB5_3
.Ltmp28:
.LBB5_2:
	.loc	3 0 5 is_stmt 0                 @ ../User/App/RUI_ROOT_INIT.c:0:5
	movs	r0, #1
	.loc	3 77 5 is_stmt 1                @ ../User/App/RUI_ROOT_INIT.c:77:5
	strb.w	r0, [sp, #7]
	b	.LBB5_3
.Ltmp29:
.LBB5_3:
	.loc	3 78 1                          @ ../User/App/RUI_ROOT_INIT.c:78:1
	ldrb.w	r0, [sp, #7]
	add	sp, #8
	bx	lr
.Ltmp30:
.Lfunc_end5:
	.size	DM_F_MOTOR_STATUS, .Lfunc_end5-DM_F_MOTOR_STATUS
	.cfi_endproc
	.cantunwind
	.fnend
                                        @ -- End function
	.section	.text.all_ui_Assign,"ax",%progbits
	.hidden	all_ui_Assign                   @ -- Begin function all_ui_Assign
	.globl	all_ui_Assign
	.p2align	2
	.type	all_ui_Assign,%function
	.code	16                              @ @all_ui_Assign
	.thumb_func
all_ui_Assign:
.Lfunc_begin6:
	.loc	3 206 0                         @ ../User/App/RUI_ROOT_INIT.c:206:0
	.fnstart
	.cfi_startproc
@ %bb.0:
	.loc	3 208 1 prologue_end            @ ../User/App/RUI_ROOT_INIT.c:208:1
	bx	lr
.Ltmp31:
.Lfunc_end6:
	.size	all_ui_Assign, .Lfunc_end6-all_ui_Assign
	.cfi_endproc
	.cantunwind
	.fnend
                                        @ -- End function
	.section	.text.online_time_control,"ax",%progbits
	.hidden	online_time_control             @ -- Begin function online_time_control
	.globl	online_time_control
	.p2align	2
	.type	online_time_control,%function
	.code	16                              @ @online_time_control
	.thumb_func
online_time_control:
.Lfunc_begin7:
	.loc	3 211 0                         @ ../User/App/RUI_ROOT_INIT.c:211:0
	.fnstart
	.cfi_startproc
@ %bb.0:
	.save	{r7, lr}
	push	{r7, lr}
	.cfi_def_cfa_offset 8
	.cfi_offset lr, -4
	.cfi_offset r7, -8
	.pad	#8
	sub	sp, #8
	.cfi_def_cfa_offset 16
	str	r0, [sp, #4]
.Ltmp32:
	.loc	3 212 5 prologue_end            @ ../User/App/RUI_ROOT_INIT.c:212:5
	ldr	r1, [sp, #4]
	.loc	3 212 18 is_stmt 0              @ ../User/App/RUI_ROOT_INIT.c:212:18
	ldrb	r0, [r1]
	adds	r0, #1
	strb	r0, [r1]
	.loc	3 213 5 is_stmt 1               @ ../User/App/RUI_ROOT_INIT.c:213:5
	ldr	r1, [sp, #4]
	.loc	3 213 17 is_stmt 0              @ ../User/App/RUI_ROOT_INIT.c:213:17
	ldrb	r0, [r1, #1]
	adds	r0, #1
	strb	r0, [r1, #1]
	.loc	3 214 5 is_stmt 1               @ ../User/App/RUI_ROOT_INIT.c:214:5
	ldr	r1, [sp, #4]
	.loc	3 214 27 is_stmt 0              @ ../User/App/RUI_ROOT_INIT.c:214:27
	ldrb	r0, [r1, #2]
	adds	r0, #1
	strb	r0, [r1, #2]
	.loc	3 215 5 is_stmt 1               @ ../User/App/RUI_ROOT_INIT.c:215:5
	ldr	r1, [sp, #4]
	.loc	3 215 25 is_stmt 0              @ ../User/App/RUI_ROOT_INIT.c:215:25
	ldrb	r0, [r1, #3]
	adds	r0, #1
	strb	r0, [r1, #3]
	.loc	3 216 5 is_stmt 1               @ ../User/App/RUI_ROOT_INIT.c:216:5
	ldr	r1, [sp, #4]
	.loc	3 216 24 is_stmt 0              @ ../User/App/RUI_ROOT_INIT.c:216:24
	ldrb	r0, [r1, #4]
	adds	r0, #1
	strb	r0, [r1, #4]
	.loc	3 217 5 is_stmt 1               @ ../User/App/RUI_ROOT_INIT.c:217:5
	ldr	r1, [sp, #4]
	.loc	3 217 24 is_stmt 0              @ ../User/App/RUI_ROOT_INIT.c:217:24
	ldrb	r0, [r1, #5]
	adds	r0, #1
	strb	r0, [r1, #5]
	.loc	3 218 5 is_stmt 1               @ ../User/App/RUI_ROOT_INIT.c:218:5
	ldr	r1, [sp, #4]
	.loc	3 218 24 is_stmt 0              @ ../User/App/RUI_ROOT_INIT.c:218:24
	ldrb	r0, [r1, #6]
	adds	r0, #1
	strb	r0, [r1, #6]
.Ltmp33:
	.loc	3 219 9 is_stmt 1               @ ../User/App/RUI_ROOT_INIT.c:219:9
	ldr	r0, [sp, #4]
	.loc	3 219 15 is_stmt 0              @ ../User/App/RUI_ROOT_INIT.c:219:15
	ldrb	r0, [r0]
.Ltmp34:
	.loc	3 219 9                         @ ../User/App/RUI_ROOT_INIT.c:219:9
	cmp	r0, #200
	blt	.LBB7_2
	b	.LBB7_1
.LBB7_1:
.Ltmp35:
	.loc	3 221 9 is_stmt 1               @ ../User/App/RUI_ROOT_INIT.c:221:9
	ldr	r1, [sp, #4]
	movs	r0, #200
	.loc	3 221 23 is_stmt 0              @ ../User/App/RUI_ROOT_INIT.c:221:23
	strb	r0, [r1]
	.loc	3 222 9 is_stmt 1               @ ../User/App/RUI_ROOT_INIT.c:222:9
	ldr	r1, [sp, #4]
	.loc	3 222 39 is_stmt 0              @ ../User/App/RUI_ROOT_INIT.c:222:39
	ldrb	r0, [r1, #10]
	and	r0, r0, #254
	strb	r0, [r1, #10]
	.loc	3 223 5 is_stmt 1               @ ../User/App/RUI_ROOT_INIT.c:223:5
	b	.LBB7_3
.Ltmp36:
.LBB7_2:
	.loc	3 223 12 is_stmt 0              @ ../User/App/RUI_ROOT_INIT.c:223:12
	ldr	r1, [sp, #4]
	.loc	3 223 42                        @ ../User/App/RUI_ROOT_INIT.c:223:42
	ldrb	r0, [r1, #10]
	orr	r0, r0, #1
	strb	r0, [r1, #10]
	b	.LBB7_3
.Ltmp37:
.LBB7_3:
	.loc	3 224 9 is_stmt 1               @ ../User/App/RUI_ROOT_INIT.c:224:9
	ldr	r0, [sp, #4]
	.loc	3 224 15 is_stmt 0              @ ../User/App/RUI_ROOT_INIT.c:224:15
	ldrb	r0, [r0, #1]
.Ltmp38:
	.loc	3 224 9                         @ ../User/App/RUI_ROOT_INIT.c:224:9
	cmp	r0, #200
	blt	.LBB7_5
	b	.LBB7_4
.LBB7_4:
.Ltmp39:
	.loc	3 226 9 is_stmt 1               @ ../User/App/RUI_ROOT_INIT.c:226:9
	ldr	r1, [sp, #4]
	movs	r0, #200
	.loc	3 226 22 is_stmt 0              @ ../User/App/RUI_ROOT_INIT.c:226:22
	strb	r0, [r1, #1]
	.loc	3 227 9 is_stmt 1               @ ../User/App/RUI_ROOT_INIT.c:227:9
	ldr	r1, [sp, #4]
	.loc	3 227 38 is_stmt 0              @ ../User/App/RUI_ROOT_INIT.c:227:38
	ldrb	r0, [r1, #10]
	and	r0, r0, #253
	strb	r0, [r1, #10]
	.loc	3 228 5 is_stmt 1               @ ../User/App/RUI_ROOT_INIT.c:228:5
	b	.LBB7_6
.Ltmp40:
.LBB7_5:
	.loc	3 228 12 is_stmt 0              @ ../User/App/RUI_ROOT_INIT.c:228:12
	ldr	r1, [sp, #4]
	.loc	3 228 41                        @ ../User/App/RUI_ROOT_INIT.c:228:41
	ldrb	r0, [r1, #10]
	orr	r0, r0, #2
	strb	r0, [r1, #10]
	b	.LBB7_6
.Ltmp41:
.LBB7_6:
	.loc	3 229 9 is_stmt 1               @ ../User/App/RUI_ROOT_INIT.c:229:9
	ldr	r0, [sp, #4]
	.loc	3 229 15 is_stmt 0              @ ../User/App/RUI_ROOT_INIT.c:229:15
	ldrb	r0, [r0, #2]
.Ltmp42:
	.loc	3 229 9                         @ ../User/App/RUI_ROOT_INIT.c:229:9
	cmp	r0, #200
	blt	.LBB7_8
	b	.LBB7_7
.LBB7_7:
.Ltmp43:
	.loc	3 231 9 is_stmt 1               @ ../User/App/RUI_ROOT_INIT.c:231:9
	ldr	r1, [sp, #4]
	movs	r0, #200
	.loc	3 231 32 is_stmt 0              @ ../User/App/RUI_ROOT_INIT.c:231:32
	strb	r0, [r1, #2]
	.loc	3 232 9 is_stmt 1               @ ../User/App/RUI_ROOT_INIT.c:232:9
	ldr	r1, [sp, #4]
	.loc	3 232 48 is_stmt 0              @ ../User/App/RUI_ROOT_INIT.c:232:48
	ldrb	r0, [r1, #10]
	and	r0, r0, #251
	strb	r0, [r1, #10]
	.loc	3 233 5 is_stmt 1               @ ../User/App/RUI_ROOT_INIT.c:233:5
	b	.LBB7_9
.Ltmp44:
.LBB7_8:
	.loc	3 233 12 is_stmt 0              @ ../User/App/RUI_ROOT_INIT.c:233:12
	ldr	r1, [sp, #4]
	.loc	3 233 51                        @ ../User/App/RUI_ROOT_INIT.c:233:51
	ldrb	r0, [r1, #10]
	orr	r0, r0, #4
	strb	r0, [r1, #10]
	b	.LBB7_9
.Ltmp45:
.LBB7_9:
	.loc	3 234 9 is_stmt 1               @ ../User/App/RUI_ROOT_INIT.c:234:9
	ldr	r0, [sp, #4]
	.loc	3 234 15 is_stmt 0              @ ../User/App/RUI_ROOT_INIT.c:234:15
	ldrb	r0, [r0, #3]
.Ltmp46:
	.loc	3 234 9                         @ ../User/App/RUI_ROOT_INIT.c:234:9
	cmp	r0, #200
	blt	.LBB7_11
	b	.LBB7_10
.LBB7_10:
.Ltmp47:
	.loc	3 236 9 is_stmt 1               @ ../User/App/RUI_ROOT_INIT.c:236:9
	ldr	r1, [sp, #4]
	movs	r0, #200
	.loc	3 236 30 is_stmt 0              @ ../User/App/RUI_ROOT_INIT.c:236:30
	strb	r0, [r1, #3]
	.loc	3 237 9 is_stmt 1               @ ../User/App/RUI_ROOT_INIT.c:237:9
	ldr	r1, [sp, #4]
	.loc	3 237 46 is_stmt 0              @ ../User/App/RUI_ROOT_INIT.c:237:46
	ldrb	r0, [r1, #10]
	and	r0, r0, #247
	strb	r0, [r1, #10]
	.loc	3 238 5 is_stmt 1               @ ../User/App/RUI_ROOT_INIT.c:238:5
	b	.LBB7_12
.Ltmp48:
.LBB7_11:
	.loc	3 238 12 is_stmt 0              @ ../User/App/RUI_ROOT_INIT.c:238:12
	ldr	r1, [sp, #4]
	.loc	3 238 49                        @ ../User/App/RUI_ROOT_INIT.c:238:49
	ldrb	r0, [r1, #10]
	orr	r0, r0, #8
	strb	r0, [r1, #10]
	b	.LBB7_12
.Ltmp49:
.LBB7_12:
	.loc	3 239 9 is_stmt 1               @ ../User/App/RUI_ROOT_INIT.c:239:9
	ldr	r0, [sp, #4]
	.loc	3 239 15 is_stmt 0              @ ../User/App/RUI_ROOT_INIT.c:239:15
	ldrb	r0, [r0, #4]
.Ltmp50:
	.loc	3 239 9                         @ ../User/App/RUI_ROOT_INIT.c:239:9
	cmp	r0, #200
	blt	.LBB7_14
	b	.LBB7_13
.LBB7_13:
.Ltmp51:
	.loc	3 241 9 is_stmt 1               @ ../User/App/RUI_ROOT_INIT.c:241:9
	ldr	r1, [sp, #4]
	movs	r0, #200
	.loc	3 241 29 is_stmt 0              @ ../User/App/RUI_ROOT_INIT.c:241:29
	strb	r0, [r1, #4]
	.loc	3 242 9 is_stmt 1               @ ../User/App/RUI_ROOT_INIT.c:242:9
	ldr	r1, [sp, #4]
	.loc	3 242 45 is_stmt 0              @ ../User/App/RUI_ROOT_INIT.c:242:45
	ldrb	r0, [r1, #10]
	and	r0, r0, #239
	strb	r0, [r1, #10]
	.loc	3 243 5 is_stmt 1               @ ../User/App/RUI_ROOT_INIT.c:243:5
	b	.LBB7_15
.Ltmp52:
.LBB7_14:
	.loc	3 243 12 is_stmt 0              @ ../User/App/RUI_ROOT_INIT.c:243:12
	ldr	r1, [sp, #4]
	.loc	3 243 48                        @ ../User/App/RUI_ROOT_INIT.c:243:48
	ldrb	r0, [r1, #10]
	orr	r0, r0, #16
	strb	r0, [r1, #10]
	b	.LBB7_15
.Ltmp53:
.LBB7_15:
	.loc	3 244 9 is_stmt 1               @ ../User/App/RUI_ROOT_INIT.c:244:9
	ldr	r0, [sp, #4]
	.loc	3 244 15 is_stmt 0              @ ../User/App/RUI_ROOT_INIT.c:244:15
	ldrb	r0, [r0, #5]
.Ltmp54:
	.loc	3 244 9                         @ ../User/App/RUI_ROOT_INIT.c:244:9
	cmp	r0, #200
	blt	.LBB7_17
	b	.LBB7_16
.LBB7_16:
.Ltmp55:
	.loc	3 246 9 is_stmt 1               @ ../User/App/RUI_ROOT_INIT.c:246:9
	ldr	r1, [sp, #4]
	movs	r0, #200
	.loc	3 246 29 is_stmt 0              @ ../User/App/RUI_ROOT_INIT.c:246:29
	strb	r0, [r1, #5]
	.loc	3 247 9 is_stmt 1               @ ../User/App/RUI_ROOT_INIT.c:247:9
	ldr	r1, [sp, #4]
	.loc	3 247 45 is_stmt 0              @ ../User/App/RUI_ROOT_INIT.c:247:45
	ldrb	r0, [r1, #10]
	and	r0, r0, #223
	strb	r0, [r1, #10]
	.loc	3 248 5 is_stmt 1               @ ../User/App/RUI_ROOT_INIT.c:248:5
	b	.LBB7_18
.Ltmp56:
.LBB7_17:
	.loc	3 248 12 is_stmt 0              @ ../User/App/RUI_ROOT_INIT.c:248:12
	ldr	r1, [sp, #4]
	.loc	3 248 48                        @ ../User/App/RUI_ROOT_INIT.c:248:48
	ldrb	r0, [r1, #10]
	orr	r0, r0, #32
	strb	r0, [r1, #10]
	b	.LBB7_18
.Ltmp57:
.LBB7_18:
	.loc	3 249 9 is_stmt 1               @ ../User/App/RUI_ROOT_INIT.c:249:9
	ldr	r0, [sp, #4]
	.loc	3 249 15 is_stmt 0              @ ../User/App/RUI_ROOT_INIT.c:249:15
	ldrb	r0, [r0, #6]
.Ltmp58:
	.loc	3 249 9                         @ ../User/App/RUI_ROOT_INIT.c:249:9
	cmp	r0, #200
	blt	.LBB7_20
	b	.LBB7_19
.LBB7_19:
.Ltmp59:
	.loc	3 251 9 is_stmt 1               @ ../User/App/RUI_ROOT_INIT.c:251:9
	ldr	r1, [sp, #4]
	movs	r0, #200
	.loc	3 251 29 is_stmt 0              @ ../User/App/RUI_ROOT_INIT.c:251:29
	strb	r0, [r1, #6]
	.loc	3 252 9 is_stmt 1               @ ../User/App/RUI_ROOT_INIT.c:252:9
	ldr	r1, [sp, #4]
	.loc	3 252 45 is_stmt 0              @ ../User/App/RUI_ROOT_INIT.c:252:45
	ldrb	r0, [r1, #10]
	and	r0, r0, #191
	strb	r0, [r1, #10]
	.loc	3 253 5 is_stmt 1               @ ../User/App/RUI_ROOT_INIT.c:253:5
	b	.LBB7_21
.Ltmp60:
.LBB7_20:
	.loc	3 253 12 is_stmt 0              @ ../User/App/RUI_ROOT_INIT.c:253:12
	ldr	r1, [sp, #4]
	.loc	3 253 48                        @ ../User/App/RUI_ROOT_INIT.c:253:48
	ldrb	r0, [r1, #10]
	orr	r0, r0, #64
	strb	r0, [r1, #10]
	b	.LBB7_21
.Ltmp61:
.LBB7_21:
	.loc	3 257 7 is_stmt 1               @ ../User/App/RUI_ROOT_INIT.c:257:7
	ldr	r0, [sp, #4]
	.loc	3 257 23 is_stmt 0              @ ../User/App/RUI_ROOT_INIT.c:257:23
	ldrb	r0, [r0, #10]
	lsrs	r0, r0, #6
	.loc	3 257 42                        @ ../User/App/RUI_ROOT_INIT.c:257:42
	lsls	r0, r0, #31
	cbz	r0, .LBB7_27
	b	.LBB7_22
.LBB7_22:
	.loc	3 258 6 is_stmt 1               @ ../User/App/RUI_ROOT_INIT.c:258:6
	ldr	r0, [sp, #4]
	.loc	3 258 22 is_stmt 0              @ ../User/App/RUI_ROOT_INIT.c:258:22
	ldrb	r0, [r0, #10]
	lsrs	r0, r0, #5
	.loc	3 258 41                        @ ../User/App/RUI_ROOT_INIT.c:258:41
	lsls	r0, r0, #31
	cbz	r0, .LBB7_27
	b	.LBB7_23
.LBB7_23:
	.loc	3 259 7 is_stmt 1               @ ../User/App/RUI_ROOT_INIT.c:259:7
	ldr	r0, [sp, #4]
	.loc	3 259 23 is_stmt 0              @ ../User/App/RUI_ROOT_INIT.c:259:23
	ldrb	r0, [r0, #10]
	lsrs	r0, r0, #4
	.loc	3 259 42                        @ ../User/App/RUI_ROOT_INIT.c:259:42
	lsls	r0, r0, #31
	cbz	r0, .LBB7_27
	b	.LBB7_24
.LBB7_24:
	.loc	3 260 7 is_stmt 1               @ ../User/App/RUI_ROOT_INIT.c:260:7
	ldr	r0, [sp, #4]
	.loc	3 260 23 is_stmt 0              @ ../User/App/RUI_ROOT_INIT.c:260:23
	ldrb	r0, [r0, #10]
	lsrs	r0, r0, #3
	.loc	3 260 43                        @ ../User/App/RUI_ROOT_INIT.c:260:43
	lsls	r0, r0, #31
	cbz	r0, .LBB7_27
	b	.LBB7_25
.LBB7_25:
	.loc	3 261 7 is_stmt 1               @ ../User/App/RUI_ROOT_INIT.c:261:7
	ldr	r0, [sp, #4]
	.loc	3 261 23 is_stmt 0              @ ../User/App/RUI_ROOT_INIT.c:261:23
	ldrb	r0, [r0, #10]
	lsrs	r0, r0, #2
.Ltmp62:
	.loc	3 257 7 is_stmt 1               @ ../User/App/RUI_ROOT_INIT.c:257:7
	lsls	r0, r0, #31
	cbz	r0, .LBB7_27
	b	.LBB7_26
.LBB7_26:
	.loc	3 0 7 is_stmt 0                 @ ../User/App/RUI_ROOT_INIT.c:0:7
	movs	r0, #0
	movs	r1, #50
.Ltmp63:
	.loc	3 262 8 is_stmt 1               @ ../User/App/RUI_ROOT_INIT.c:262:8
	bl	RUI_F_LED
	.loc	3 262 25 is_stmt 0              @ ../User/App/RUI_ROOT_INIT.c:262:25
	b	.LBB7_28
.Ltmp64:
.LBB7_27:
	.loc	3 0 25                          @ ../User/App/RUI_ROOT_INIT.c:0:25
	movs	r0, #0
	movs	r1, #150
.Ltmp65:
	.loc	3 264 8 is_stmt 1               @ ../User/App/RUI_ROOT_INIT.c:264:8
	bl	RUI_F_LED
	b	.LBB7_28
.Ltmp66:
.LBB7_28:
	.loc	3 270 3                         @ ../User/App/RUI_ROOT_INIT.c:270:3
	ldr	r1, [sp, #4]
	movs	r0, #0
	.loc	3 270 21 is_stmt 0              @ ../User/App/RUI_ROOT_INIT.c:270:21
	strh	r0, [r1, #8]
	.loc	3 271 26 is_stmt 1              @ ../User/App/RUI_ROOT_INIT.c:271:26
	ldr	r1, [sp, #4]
	.loc	3 271 42 is_stmt 0              @ ../User/App/RUI_ROOT_INIT.c:271:42
	ldrb	r0, [r1, #10]
	ubfx	r2, r0, #2, #1
	.loc	3 271 23                        @ ../User/App/RUI_ROOT_INIT.c:271:23
	ldrh	r0, [r1, #8]
	add	r0, r2
	strh	r0, [r1, #8]
	.loc	3 272 26 is_stmt 1              @ ../User/App/RUI_ROOT_INIT.c:272:26
	ldr	r1, [sp, #4]
	.loc	3 272 42 is_stmt 0              @ ../User/App/RUI_ROOT_INIT.c:272:42
	ldrb	r0, [r1, #10]
	ubfx	r0, r0, #3, #1
	.loc	3 272 63                        @ ../User/App/RUI_ROOT_INIT.c:272:63
	orr.w	r2, r0, r0, lsl #2
	.loc	3 272 23                        @ ../User/App/RUI_ROOT_INIT.c:272:23
	ldrh	r0, [r1, #8]
	add.w	r0, r0, r2, lsl #1
	strh	r0, [r1, #8]
	.loc	3 273 26 is_stmt 1              @ ../User/App/RUI_ROOT_INIT.c:273:26
	ldr	r1, [sp, #4]
	.loc	3 273 42 is_stmt 0              @ ../User/App/RUI_ROOT_INIT.c:273:42
	ldrb	r0, [r1, #10]
	ubfx	r0, r0, #4, #1
	.loc	3 273 23                        @ ../User/App/RUI_ROOT_INIT.c:273:23
	ldrh	r3, [r1, #8]
	movs	r2, #100
	smlabb	r0, r0, r2, r3
	strh	r0, [r1, #8]
	.loc	3 274 26 is_stmt 1              @ ../User/App/RUI_ROOT_INIT.c:274:26
	ldr	r1, [sp, #4]
	.loc	3 274 42 is_stmt 0              @ ../User/App/RUI_ROOT_INIT.c:274:42
	ldrb	r0, [r1, #10]
	ubfx	r0, r0, #5, #1
	.loc	3 274 23                        @ ../User/App/RUI_ROOT_INIT.c:274:23
	ldrh	r3, [r1, #8]
	mov.w	r2, #1000
	smlabb	r0, r0, r2, r3
	strh	r0, [r1, #8]
	.loc	3 275 26 is_stmt 1              @ ../User/App/RUI_ROOT_INIT.c:275:26
	ldr	r1, [sp, #4]
	.loc	3 275 42 is_stmt 0              @ ../User/App/RUI_ROOT_INIT.c:275:42
	ldrb	r0, [r1, #10]
	ubfx	r0, r0, #6, #1
	.loc	3 275 23                        @ ../User/App/RUI_ROOT_INIT.c:275:23
	ldrh	r3, [r1, #8]
	movw	r2, #10000
	smlabb	r0, r0, r2, r3
	strh	r0, [r1, #8]
	.loc	3 277 1 is_stmt 1               @ ../User/App/RUI_ROOT_INIT.c:277:1
	add	sp, #8
	pop	{r7, pc}
.Ltmp67:
.Lfunc_end7:
	.size	online_time_control, .Lfunc_end7-online_time_control
	.cfi_endproc
	.cantunwind
	.fnend
                                        @ -- End function
	.hidden	all_ui                          @ @all_ui
	.type	all_ui,%object
	.section	.bss.all_ui,"aw",%nobits
	.globl	all_ui
	.p2align	2
all_ui:
	.zero	24
	.size	all_ui, 24

	.hidden	online_status                   @ @online_status
	.type	online_status,%object
	.section	.bss.online_status,"aw",%nobits
	.globl	online_status
	.p2align	1
online_status:
	.zero	12
	.size	online_status, 12

	.file	5 "D:\\horizon\\Horizon_Infantry (2)\\MDK-ARM" "../User/Start/Inc\\Motors.h"
	.file	6 "D:\\horizon\\Horizon_Infantry (2)\\MDK-ARM" "../User/Bsp/inc\\RUI_DBUS.h"
	.file	7 "D:\\horizon\\Horizon_Infantry (2)\\MDK-ARM" "../User/Bsp/inc\\DJI_Motor.h"
	.file	8 "D:\\horizon\\Horizon_Infantry (2)\\MDK-ARM" "../User/Algorithm/inc/user_lib.h"
	.file	9 "D:\\horizon\\Horizon_Infantry (2)\\MDK-ARM" "../User/Bsp/inc\\DM_Motor.h"
	.file	10 "D:\\horizon\\Horizon_Infantry (2)\\MDK-ARM" "../User/Bsp/inc\\Power_CAP.h"
	.section	".note.GNU-stack","",%progbits
	.eabi_attribute	30, 6	@ Tag_ABI_optimization_goals
	.ARM_attribute	16, 1	@ Tag_AV_eba