	.text
	.syntax unified
	.eabi_attribute	67, "2.09"	@ Tag_conformance
	.cpu	cortex-m4
	.eabi_attribute	6, 13	@ Tag_CPU_arch
	.eabi_attribute	7, 77	@ Tag_CPU_arch_profile
	.eabi_attribute	8, 0	@ Tag_ARM_ISA_use
	.eabi_attribute	9, 2	@ Tag_THUMB_ISA_use
	.fpu	fpv4-sp-d16
	.eabi_attribute	27, 1	@ Tag_ABI_HardFP_use
	.eabi_attribute	36, 1	@ Tag_FP_HP_extension
	.eabi_attribute	34, 1	@ Tag_CPU_unaligned_access
	.eabi_attribute	17, 1	@ Tag_ABI_PCS_GOT_use
	.eabi_attribute	20, 2	@ Tag_ABI_FP_denormal
	.eabi_attribute	21, 0	@ Tag_ABI_FP_exceptions
	.eabi_attribute	23, 3	@ Tag_ABI_FP_number_model
	.eabi_attribute	24, 1	@ Tag_ABI_align_needed
	.eabi_attribute	25, 1	@ Tag_ABI_align_preserved
	.eabi_attribute	28, 1	@ Tag_ABI_VFP_args
	.eabi_attribute	38, 1	@ Tag_ABI_FP_16bit_format
	.eabi_attribute	18, 2	@ Tag_ABI_PCS_wchar_t
	.eabi_attribute	26, 1	@ Tag_ABI_enum_size
	.eabi_attribute	14, 0	@ Tag_ABI_PCS_R9_use
	.file	"RUI_DBUS.c"
	.file	1 "D:\\" "kevil\\ARM\\ARMCLANG\\Bin\\..\\include\\stdint.h"
	.file	2 "D:\\horizon\\Horizon_Infantry (2)\\MDK-ARM" "../User/Bsp/RUI_DBUS.c"
	.section	.text.RUI_F_DUBS_Resovled,"ax",%progbits
	.hidden	RUI_F_DUBS_Resovled             @ -- Begin function RUI_F_DUBS_Resovled
	.globl	RUI_F_DUBS_Resovled
	.p2align	2
	.type	RUI_F_DUBS_Resovled,%function
	.code	16                              @ @RUI_F_DUBS_Resovled
	.thumb_func
RUI_F_DUBS_Resovled:
.Lfunc_begin0:
	.loc	2 18 0                          @ ../User/Bsp/RUI_DBUS.c:18:0
	.fnstart
	.cfi_sections .debug_frame
	.cfi_startproc
@ %bb.0:
	.save	{r7, lr}
	push	{r7, lr}
	.cfi_def_cfa_offset 8
	.cfi_offset lr, -4
	.cfi_offset r7, -8
	.pad	#48
	sub	sp, #48
	.cfi_def_cfa_offset 56
	str	r0, [sp, #44]
	str	r1, [sp, #40]
.Ltmp0:
	.loc	2 19 5 prologue_end             @ ../User/Bsp/RUI_DBUS.c:19:5
	ldr	r1, [sp, #40]
	movs	r0, #30
	.loc	2 19 46 is_stmt 0               @ ../User/Bsp/RUI_DBUS.c:19:46
	strb.w	r0, [r1, #70]
	.loc	2 20 23 is_stmt 1               @ ../User/Bsp/RUI_DBUS.c:20:23
	movw	lr, :lower16:.L__const.RUI_F_DUBS_Resovled.RUI_V_DBUS_UNION
	movt	lr, :upper16:.L__const.RUI_F_DUBS_Resovled.RUI_V_DBUS_UNION
	ldr.w	r0, [lr]
	ldr.w	r1, [lr, #4]
	ldr.w	r2, [lr, #8]
	ldr.w	r3, [lr, #12]
	ldr.w	r12, [lr, #16]
	ldr.w	lr, [lr, #20]
	str.w	lr, [sp, #36]
	str.w	r12, [sp, #32]
	str	r3, [sp, #28]
	str	r2, [sp, #24]
	str	r1, [sp, #20]
	str	r0, [sp, #16]
	.loc	2 37 39                         @ ../User/Bsp/RUI_DBUS.c:37:39
	ldr	r1, [sp, #44]
	add	r0, sp, #16
	movs	r2, #19
	.loc	2 37 5 is_stmt 0                @ ../User/Bsp/RUI_DBUS.c:37:5
	bl	__aeabi_memcpy
	.loc	2 39 60 is_stmt 1               @ ../User/Bsp/RUI_DBUS.c:39:60
	ldr	r0, [sp, #20]
	.loc	2 39 32 is_stmt 0               @ ../User/Bsp/RUI_DBUS.c:39:32
	ubfx	r0, r0, #12, #2
	.loc	2 39 5                          @ ../User/Bsp/RUI_DBUS.c:39:5
	ldr	r1, [sp, #40]
	.loc	2 39 30                         @ ../User/Bsp/RUI_DBUS.c:39:30
	strb	r0, [r1, #12]
	.loc	2 40 60 is_stmt 1               @ ../User/Bsp/RUI_DBUS.c:40:60
	ldr	r0, [sp, #20]
	.loc	2 40 32 is_stmt 0               @ ../User/Bsp/RUI_DBUS.c:40:32
	ubfx	r0, r0, #14, #2
	.loc	2 40 5                          @ ../User/Bsp/RUI_DBUS.c:40:5
	ldr	r1, [sp, #40]
	.loc	2 40 30                         @ ../User/Bsp/RUI_DBUS.c:40:30
	strb	r0, [r1, #13]
	.loc	2 42 64 is_stmt 1               @ ../User/Bsp/RUI_DBUS.c:42:64
	ldr	r0, [sp, #16]
	.loc	2 42 36 is_stmt 0               @ ../User/Bsp/RUI_DBUS.c:42:36
	bfc	r0, #11, #21
	.loc	2 42 68                         @ ../User/Bsp/RUI_DBUS.c:42:68
	sub.w	r0, r0, #1024
	.loc	2 42 5                          @ ../User/Bsp/RUI_DBUS.c:42:5
	ldr	r1, [sp, #40]
	.loc	2 42 34                         @ ../User/Bsp/RUI_DBUS.c:42:34
	strh	r0, [r1, #2]
	.loc	2 43 64 is_stmt 1               @ ../User/Bsp/RUI_DBUS.c:43:64
	ldr	r0, [sp, #16]
	.loc	2 43 36 is_stmt 0               @ ../User/Bsp/RUI_DBUS.c:43:36
	ubfx	r0, r0, #11, #11
	.loc	2 43 68                         @ ../User/Bsp/RUI_DBUS.c:43:68
	sub.w	r0, r0, #1024
	.loc	2 43 5                          @ ../User/Bsp/RUI_DBUS.c:43:5
	ldr	r1, [sp, #40]
	.loc	2 43 34                         @ ../User/Bsp/RUI_DBUS.c:43:34
	strh	r0, [r1, #4]
	.loc	2 44 64 is_stmt 1               @ ../User/Bsp/RUI_DBUS.c:44:64
	ldr	r0, [sp, #16]
	ldr	r1, [sp, #20]
	lsrs	r0, r0, #22
	orr.w	r0, r0, r1, lsl #10
	.loc	2 44 36 is_stmt 0               @ ../User/Bsp/RUI_DBUS.c:44:36
	bfc	r0, #11, #21
	.loc	2 44 68                         @ ../User/Bsp/RUI_DBUS.c:44:68
	sub.w	r0, r0, #1024
	.loc	2 44 5                          @ ../User/Bsp/RUI_DBUS.c:44:5
	ldr	r1, [sp, #40]
	.loc	2 44 34                         @ ../User/Bsp/RUI_DBUS.c:44:34
	strh	r0, [r1, #6]
	.loc	2 45 64 is_stmt 1               @ ../User/Bsp/RUI_DBUS.c:45:64
	ldr	r0, [sp, #20]
	.loc	2 45 36 is_stmt 0               @ ../User/Bsp/RUI_DBUS.c:45:36
	ubfx	r0, r0, #1, #11
	.loc	2 45 68                         @ ../User/Bsp/RUI_DBUS.c:45:68
	sub.w	r0, r0, #1024
	.loc	2 45 5                          @ ../User/Bsp/RUI_DBUS.c:45:5
	ldr	r1, [sp, #40]
	.loc	2 45 34                         @ ../User/Bsp/RUI_DBUS.c:45:34
	strh	r0, [r1, #8]
	.loc	2 46 65 is_stmt 1               @ ../User/Bsp/RUI_DBUS.c:46:65
	ldr	r0, [sp, #32]
	.loc	2 46 37 is_stmt 0               @ ../User/Bsp/RUI_DBUS.c:46:37
	bfc	r0, #11, #21
	.loc	2 46 75                         @ ../User/Bsp/RUI_DBUS.c:46:75
	sub.w	r0, r0, #1024
	.loc	2 46 5                          @ ../User/Bsp/RUI_DBUS.c:46:5
	ldr	r1, [sp, #40]
	.loc	2 46 35                         @ ../User/Bsp/RUI_DBUS.c:46:35
	strh	r0, [r1, #10]
	.loc	2 48 9 is_stmt 1                @ ../User/Bsp/RUI_DBUS.c:48:9
	ldrh.w	r0, [sp, #16]
	lsls	r0, r0, #21
	cbnz	r0, .LBB0_2
	b	.LBB0_1
.LBB0_1:
.Ltmp1:
	.loc	2 50 9                          @ ../User/Bsp/RUI_DBUS.c:50:9
	ldr	r1, [sp, #40]
	movs	r0, #0
	.loc	2 50 38 is_stmt 0               @ ../User/Bsp/RUI_DBUS.c:50:38
	strh	r0, [r1, #2]
	.loc	2 51 9 is_stmt 1                @ ../User/Bsp/RUI_DBUS.c:51:9
	ldr	r1, [sp, #40]
	.loc	2 51 38 is_stmt 0               @ ../User/Bsp/RUI_DBUS.c:51:38
	strh	r0, [r1, #4]
	.loc	2 52 9 is_stmt 1                @ ../User/Bsp/RUI_DBUS.c:52:9
	ldr	r1, [sp, #40]
	.loc	2 52 38 is_stmt 0               @ ../User/Bsp/RUI_DBUS.c:52:38
	strh	r0, [r1, #6]
	.loc	2 53 9 is_stmt 1                @ ../User/Bsp/RUI_DBUS.c:53:9
	ldr	r1, [sp, #40]
	.loc	2 53 38 is_stmt 0               @ ../User/Bsp/RUI_DBUS.c:53:38
	strh	r0, [r1, #8]
	.loc	2 54 9 is_stmt 1                @ ../User/Bsp/RUI_DBUS.c:54:9
	ldr	r1, [sp, #40]
	.loc	2 54 39 is_stmt 0               @ ../User/Bsp/RUI_DBUS.c:54:39
	strh	r0, [r1, #10]
	.loc	2 55 5 is_stmt 1                @ ../User/Bsp/RUI_DBUS.c:55:5
	b	.LBB0_2
.Ltmp2:
.LBB0_2:
	.loc	2 58 78                         @ ../User/Bsp/RUI_DBUS.c:58:78
	ldr	r0, [sp, #28]
	sbfx	r1, r0, #7, #1
	uxtb	r0, r0
	orr.w	r0, r0, r1, lsl #8
	.loc	2 58 88 is_stmt 0               @ ../User/Bsp/RUI_DBUS.c:58:88
	ldr	r2, [sp, #40]
	.loc	2 58 106                        @ ../User/Bsp/RUI_DBUS.c:58:106
	ldrb.w	r2, [r2, #53]
	.loc	2 58 33                         @ ../User/Bsp/RUI_DBUS.c:58:33
	bl	RUI_F_KEY_STATUS
	mov	r2, r0
	.loc	2 58 5                          @ ../User/Bsp/RUI_DBUS.c:58:5
	ldr	r1, [sp, #40]
	.loc	2 58 31                         @ ../User/Bsp/RUI_DBUS.c:58:31
	ldrb.w	r0, [r1, #52]
	and	r2, r2, #15
	and	r0, r0, #240
	add	r0, r2
	strb.w	r0, [r1, #52]
	.loc	2 59 78 is_stmt 1               @ ../User/Bsp/RUI_DBUS.c:59:78
	ldr	r0, [sp, #28]
	sbfx	r1, r0, #15, #1
	ubfx	r0, r0, #8, #8
	orr.w	r0, r0, r1, lsl #8
	.loc	2 59 88 is_stmt 0               @ ../User/Bsp/RUI_DBUS.c:59:88
	ldr	r2, [sp, #40]
	.loc	2 59 106                        @ ../User/Bsp/RUI_DBUS.c:59:106
	ldrb.w	r2, [r2, #54]
	.loc	2 59 33                         @ ../User/Bsp/RUI_DBUS.c:59:33
	bl	RUI_F_KEY_STATUS
	mov	r2, r0
	.loc	2 59 5                          @ ../User/Bsp/RUI_DBUS.c:59:5
	ldr	r1, [sp, #40]
	.loc	2 59 31                         @ ../User/Bsp/RUI_DBUS.c:59:31
	ldrb.w	r0, [r1, #52]
	and	r0, r0, #15
	orr.w	r0, r0, r2, lsl #4
	strb.w	r0, [r1, #52]
	.loc	2 62 75 is_stmt 1               @ ../User/Bsp/RUI_DBUS.c:62:75
	ldr.w	r0, [sp, #30]
	and	r0, r0, #1
	.loc	2 62 88 is_stmt 0               @ ../User/Bsp/RUI_DBUS.c:62:88
	ldr	r1, [sp, #40]
	.loc	2 62 109                        @ ../User/Bsp/RUI_DBUS.c:62:109
	ldrb.w	r2, [r1, #64]
	movs	r1, #0
	.loc	2 62 30                         @ ../User/Bsp/RUI_DBUS.c:62:30
	str	r1, [sp]                        @ 4-byte Spill
	bl	RUI_F_KEY_STATUS
	ldr	r1, [sp]                        @ 4-byte Reload
	mov	r3, r0
	.loc	2 62 5                          @ ../User/Bsp/RUI_DBUS.c:62:5
	ldr	r2, [sp, #40]
	.loc	2 62 28                         @ ../User/Bsp/RUI_DBUS.c:62:28
	ldrb.w	r0, [r2, #56]
	and	r3, r3, #15
	and	r0, r0, #240
	add	r0, r3
	strb.w	r0, [r2, #56]
	.loc	2 63 75 is_stmt 1               @ ../User/Bsp/RUI_DBUS.c:63:75
	ldr	r0, [sp, #28]
	ubfx	r0, r0, #18, #1
	.loc	2 63 88 is_stmt 0               @ ../User/Bsp/RUI_DBUS.c:63:88
	ldr	r2, [sp, #40]
	.loc	2 63 109                        @ ../User/Bsp/RUI_DBUS.c:63:109
	ldrb.w	r2, [r2, #66]
	.loc	2 63 30                         @ ../User/Bsp/RUI_DBUS.c:63:30
	bl	RUI_F_KEY_STATUS
	ldr	r1, [sp]                        @ 4-byte Reload
	mov	r3, r0
	.loc	2 63 5                          @ ../User/Bsp/RUI_DBUS.c:63:5
	ldr	r2, [sp, #40]
	.loc	2 63 28                         @ ../User/Bsp/RUI_DBUS.c:63:28
	ldrb.w	r0, [r2, #57]
	and	r3, r3, #15
	and	r0, r0, #240
	add	r0, r3
	strb.w	r0, [r2, #57]
	.loc	2 64 75 is_stmt 1               @ ../User/Bsp/RUI_DBUS.c:64:75
	ldr	r0, [sp, #28]
	ubfx	r0, r0, #17, #1
	.loc	2 64 88 is_stmt 0               @ ../User/Bsp/RUI_DBUS.c:64:88
	ldr	r2, [sp, #40]
	.loc	2 64 109                        @ ../User/Bsp/RUI_DBUS.c:64:109
	ldrb.w	r2, [r2, #65]
	.loc	2 64 30                         @ ../User/Bsp/RUI_DBUS.c:64:30
	bl	RUI_F_KEY_STATUS
	ldr	r1, [sp]                        @ 4-byte Reload
	mov	r3, r0
	.loc	2 64 5                          @ ../User/Bsp/RUI_DBUS.c:64:5
	ldr	r2, [sp, #40]
	.loc	2 64 28                         @ ../User/Bsp/RUI_DBUS.c:64:28
	ldrb.w	r0, [r2, #56]
	and	r0, r0, #15
	orr.w	r0, r0, r3, lsl #4
	strb.w	r0, [r2, #56]
	.loc	2 65 75 is_stmt 1               @ ../User/Bsp/RUI_DBUS.c:65:75
	ldr	r0, [sp, #28]
	ubfx	r0, r0, #19, #1
	.loc	2 65 88 is_stmt 0               @ ../User/Bsp/RUI_DBUS.c:65:88
	ldr	r2, [sp, #40]
	.loc	2 65 109                        @ ../User/Bsp/RUI_DBUS.c:65:109
	ldrb.w	r2, [r2, #67]
	.loc	2 65 30                         @ ../User/Bsp/RUI_DBUS.c:65:30
	bl	RUI_F_KEY_STATUS
	mov	r2, r0
	.loc	2 65 5                          @ ../User/Bsp/RUI_DBUS.c:65:5
	ldr	r1, [sp, #40]
	.loc	2 65 28                         @ ../User/Bsp/RUI_DBUS.c:65:28
	ldrb.w	r0, [r1, #57]
	and	r0, r0, #15
	orr.w	r0, r0, r2, lsl #4
	strb.w	r0, [r1, #57]
	.loc	2 68 41 is_stmt 1               @ ../User/Bsp/RUI_DBUS.c:68:41
	ldr	r0, [sp, #40]
	.loc	2 68 59 is_stmt 0               @ ../User/Bsp/RUI_DBUS.c:68:59
	vldr	s0, [r0, #16]
	vstr	s0, [sp, #4]                    @ 4-byte Spill
	.loc	2 68 103                        @ ../User/Bsp/RUI_DBUS.c:68:103
	ldr	r0, [sp, #20]
	asrs	r1, r0, #31
	lsrs	r0, r0, #16
	orr.w	r0, r0, r1, lsl #16
	.loc	2 68 67                         @ ../User/Bsp/RUI_DBUS.c:68:67
	bl	__aeabi_l2f
	vldr	s0, [sp, #4]                    @ 4-byte Reload
	vmov	s1, r0
	vldr	s2, __arm_cp.0_1
	vstr	s2, [sp, #12]                   @ 4-byte Spill
	.loc	2 68 31                         @ ../User/Bsp/RUI_DBUS.c:68:31
	bl	OneFilter
	.loc	2 68 5                          @ ../User/Bsp/RUI_DBUS.c:68:5
	ldr	r0, [sp, #40]
	.loc	2 68 29                         @ ../User/Bsp/RUI_DBUS.c:68:29
	vstr	s0, [r0, #16]
	.loc	2 69 41 is_stmt 1               @ ../User/Bsp/RUI_DBUS.c:69:41
	ldr	r0, [sp, #40]
	.loc	2 69 59 is_stmt 0               @ ../User/Bsp/RUI_DBUS.c:69:59
	vldr	s0, [r0, #28]
	vstr	s0, [sp, #8]                    @ 4-byte Spill
	.loc	2 69 103                        @ ../User/Bsp/RUI_DBUS.c:69:103
	ldr	r0, [sp, #24]
	sbfx	r1, r0, #15, #1
	pkhbt	r0, r0, r1, lsl #16
	.loc	2 69 67                         @ ../User/Bsp/RUI_DBUS.c:69:67
	bl	__aeabi_l2f
	vldr	s0, [sp, #8]                    @ 4-byte Reload
	vldr	s2, [sp, #12]                   @ 4-byte Reload
	vmov	s1, r0
	.loc	2 69 31                         @ ../User/Bsp/RUI_DBUS.c:69:31
	bl	OneFilter
	.loc	2 69 5                          @ ../User/Bsp/RUI_DBUS.c:69:5
	ldr	r0, [sp, #40]
	.loc	2 69 29                         @ ../User/Bsp/RUI_DBUS.c:69:29
	vstr	s0, [r0, #28]
	.loc	2 72 62 is_stmt 1               @ ../User/Bsp/RUI_DBUS.c:72:62
	ldr	r0, [sp, #28]
	.loc	2 72 34 is_stmt 0               @ ../User/Bsp/RUI_DBUS.c:72:34
	ubfx	r2, r0, #20, #1
	.loc	2 72 5                          @ ../User/Bsp/RUI_DBUS.c:72:5
	ldr	r1, [sp, #40]
	.loc	2 72 32                         @ ../User/Bsp/RUI_DBUS.c:72:32
	ldrb.w	r0, [r1, #58]
	and	r0, r0, #240
	add	r0, r2
	strb.w	r0, [r1, #58]
.Ltmp3:
	.loc	2 73 9 is_stmt 1                @ ../User/Bsp/RUI_DBUS.c:73:9
	ldr	r0, [sp, #40]
	.loc	2 73 30 is_stmt 0               @ ../User/Bsp/RUI_DBUS.c:73:30
	ldrb.w	r0, [r0, #58]
	and	r0, r0, #15
	.loc	2 73 41                         @ ../User/Bsp/RUI_DBUS.c:73:41
	cmp	r0, #1
	bne	.LBB0_5
	b	.LBB0_3
.LBB0_3:
	.loc	2 73 44                         @ ../User/Bsp/RUI_DBUS.c:73:44
	movw	r0, :lower16:RUI_F_DUBS_Resovled.Key_Shift_Lock
	movt	r0, :upper16:RUI_F_DUBS_Resovled.Key_Shift_Lock
	ldrb	r0, [r0]
.Ltmp4:
	.loc	2 73 9                          @ ../User/Bsp/RUI_DBUS.c:73:9
	cbnz	r0, .LBB0_5
	b	.LBB0_4
.LBB0_4:
.Ltmp5:
	.loc	2 75 50 is_stmt 1               @ ../User/Bsp/RUI_DBUS.c:75:50
	ldr	r2, [sp, #40]
	.loc	2 75 71 is_stmt 0               @ ../User/Bsp/RUI_DBUS.c:75:71
	ldrb.w	r1, [r2, #68]
	movs	r0, #1
	.loc	2 75 49                         @ ../User/Bsp/RUI_DBUS.c:75:49
	bic.w	r3, r0, r1
	.loc	2 75 47                         @ ../User/Bsp/RUI_DBUS.c:75:47
	and	r1, r1, #254
	add	r1, r3
	strb.w	r1, [r2, #68]
	.loc	2 76 24 is_stmt 1               @ ../User/Bsp/RUI_DBUS.c:76:24
	movw	r1, :lower16:RUI_F_DUBS_Resovled.Key_Shift_Lock
	movt	r1, :upper16:RUI_F_DUBS_Resovled.Key_Shift_Lock
	strb	r0, [r1]
	.loc	2 77 5                          @ ../User/Bsp/RUI_DBUS.c:77:5
	b	.LBB0_9
.Ltmp6:
.LBB0_5:
	.loc	2 78 14                         @ ../User/Bsp/RUI_DBUS.c:78:14
	ldr	r0, [sp, #40]
	.loc	2 78 35 is_stmt 0               @ ../User/Bsp/RUI_DBUS.c:78:35
	ldrb.w	r0, [r0, #58]
	.loc	2 78 46                         @ ../User/Bsp/RUI_DBUS.c:78:46
	lsls	r0, r0, #28
	cbnz	r0, .LBB0_8
	b	.LBB0_6
.LBB0_6:
	.loc	2 78 49                         @ ../User/Bsp/RUI_DBUS.c:78:49
	movw	r0, :lower16:RUI_F_DUBS_Resovled.Key_Shift_Lock
	movt	r0, :upper16:RUI_F_DUBS_Resovled.Key_Shift_Lock
	ldrb	r0, [r0]
.Ltmp7:
	.loc	2 78 14                         @ ../User/Bsp/RUI_DBUS.c:78:14
	cmp	r0, #1
	bne	.LBB0_8
	b	.LBB0_7
.LBB0_7:
.Ltmp8:
	.loc	2 80 24 is_stmt 1               @ ../User/Bsp/RUI_DBUS.c:80:24
	movw	r1, :lower16:RUI_F_DUBS_Resovled.Key_Shift_Lock
	movt	r1, :upper16:RUI_F_DUBS_Resovled.Key_Shift_Lock
	movs	r0, #0
	strb	r0, [r1]
	.loc	2 81 5                          @ ../User/Bsp/RUI_DBUS.c:81:5
	b	.LBB0_8
.Ltmp9:
.LBB0_8:
	.loc	2 0 5 is_stmt 0                 @ ../User/Bsp/RUI_DBUS.c:0:5
	b	.LBB0_9
.LBB0_9:
	.loc	2 83 61 is_stmt 1               @ ../User/Bsp/RUI_DBUS.c:83:61
	ldr	r0, [sp, #28]
	.loc	2 83 33 is_stmt 0               @ ../User/Bsp/RUI_DBUS.c:83:33
	ubfx	r2, r0, #21, #1
	.loc	2 83 5                          @ ../User/Bsp/RUI_DBUS.c:83:5
	ldr	r1, [sp, #40]
	.loc	2 83 31                         @ ../User/Bsp/RUI_DBUS.c:83:31
	ldrb.w	r0, [r1, #58]
	and	r0, r0, #15
	orr.w	r0, r0, r2, lsl #4
	strb.w	r0, [r1, #58]
.Ltmp10:
	.loc	2 84 9 is_stmt 1                @ ../User/Bsp/RUI_DBUS.c:84:9
	ldr	r0, [sp, #40]
	.loc	2 84 30 is_stmt 0               @ ../User/Bsp/RUI_DBUS.c:84:30
	ldrb.w	r1, [r0, #58]
	movs	r0, #1
	.loc	2 84 40                         @ ../User/Bsp/RUI_DBUS.c:84:40
	cmp.w	r0, r1, lsr #4
	bne	.LBB0_12
	b	.LBB0_10
.LBB0_10:
	.loc	2 84 43                         @ ../User/Bsp/RUI_DBUS.c:84:43
	movw	r0, :lower16:RUI_F_DUBS_Resovled.Key_Ctrl_Lock
	movt	r0, :upper16:RUI_F_DUBS_Resovled.Key_Ctrl_Lock
	ldrb	r0, [r0]
.Ltmp11:
	.loc	2 84 9                          @ ../User/Bsp/RUI_DBUS.c:84:9
	cbnz	r0, .LBB0_12
	b	.LBB0_11
.LBB0_11:
.Ltmp12:
	.loc	2 86 49 is_stmt 1               @ ../User/Bsp/RUI_DBUS.c:86:49
	ldr	r2, [sp, #40]
	.loc	2 86 70 is_stmt 0               @ ../User/Bsp/RUI_DBUS.c:86:70
	ldrb.w	r1, [r2, #68]
	movs	r0, #1
	.loc	2 86 48                         @ ../User/Bsp/RUI_DBUS.c:86:48
	bic.w	r3, r0, r1, lsr #1
	.loc	2 86 46                         @ ../User/Bsp/RUI_DBUS.c:86:46
	and	r1, r1, #253
	orr.w	r1, r1, r3, lsl #1
	strb.w	r1, [r2, #68]
	.loc	2 87 23 is_stmt 1               @ ../User/Bsp/RUI_DBUS.c:87:23
	movw	r1, :lower16:RUI_F_DUBS_Resovled.Key_Ctrl_Lock
	movt	r1, :upper16:RUI_F_DUBS_Resovled.Key_Ctrl_Lock
	strb	r0, [r1]
	.loc	2 88 5                          @ ../User/Bsp/RUI_DBUS.c:88:5
	b	.LBB0_16
.Ltmp13:
.LBB0_12:
	.loc	2 89 14                         @ ../User/Bsp/RUI_DBUS.c:89:14
	ldr	r0, [sp, #40]
	.loc	2 89 35 is_stmt 0               @ ../User/Bsp/RUI_DBUS.c:89:35
	ldrb.w	r1, [r0, #58]
	movs	r0, #0
	.loc	2 89 45                         @ ../User/Bsp/RUI_DBUS.c:89:45
	cmp.w	r0, r1, lsr #4
	bne	.LBB0_15
	b	.LBB0_13
.LBB0_13:
	.loc	2 89 48                         @ ../User/Bsp/RUI_DBUS.c:89:48
	movw	r0, :lower16:RUI_F_DUBS_Resovled.Key_Ctrl_Lock
	movt	r0, :upper16:RUI_F_DUBS_Resovled.Key_Ctrl_Lock
	ldrb	r0, [r0]
.Ltmp14:
	.loc	2 89 14                         @ ../User/Bsp/RUI_DBUS.c:89:14
	cmp	r0, #1
	bne	.LBB0_15
	b	.LBB0_14
.LBB0_14:
.Ltmp15:
	.loc	2 91 23 is_stmt 1               @ ../User/Bsp/RUI_DBUS.c:91:23
	movw	r1, :lower16:RUI_F_DUBS_Resovled.Key_Ctrl_Lock
	movt	r1, :upper16:RUI_F_DUBS_Resovled.Key_Ctrl_Lock
	movs	r0, #0
	strb	r0, [r1]
	.loc	2 92 5                          @ ../User/Bsp/RUI_DBUS.c:92:5
	b	.LBB0_15
.Ltmp16:
.LBB0_15:
	.loc	2 0 5 is_stmt 0                 @ ../User/Bsp/RUI_DBUS.c:0:5
	b	.LBB0_16
.LBB0_16:
	.loc	2 94 58 is_stmt 1               @ ../User/Bsp/RUI_DBUS.c:94:58
	ldr	r0, [sp, #28]
	.loc	2 94 30 is_stmt 0               @ ../User/Bsp/RUI_DBUS.c:94:30
	ubfx	r2, r0, #22, #1
	.loc	2 94 5                          @ ../User/Bsp/RUI_DBUS.c:94:5
	ldr	r1, [sp, #40]
	.loc	2 94 28                         @ ../User/Bsp/RUI_DBUS.c:94:28
	ldrb.w	r0, [r1, #59]
	and	r0, r0, #240
	add	r0, r2
	strb.w	r0, [r1, #59]
.Ltmp17:
	.loc	2 95 9 is_stmt 1                @ ../User/Bsp/RUI_DBUS.c:95:9
	ldr	r0, [sp, #40]
	.loc	2 95 30 is_stmt 0               @ ../User/Bsp/RUI_DBUS.c:95:30
	ldrb.w	r0, [r0, #59]
	and	r0, r0, #15
	.loc	2 95 37                         @ ../User/Bsp/RUI_DBUS.c:95:37
	cmp	r0, #1
	bne	.LBB0_19
	b	.LBB0_17
.LBB0_17:
	.loc	2 95 40                         @ ../User/Bsp/RUI_DBUS.c:95:40
	movw	r0, :lower16:RUI_F_DUBS_Resovled.Key_Q_Lock
	movt	r0, :upper16:RUI_F_DUBS_Resovled.Key_Q_Lock
	ldrb	r0, [r0]
.Ltmp18:
	.loc	2 95 9                          @ ../User/Bsp/RUI_DBUS.c:95:9
	cbnz	r0, .LBB0_19
	b	.LBB0_18
.LBB0_18:
.Ltmp19:
	.loc	2 97 46 is_stmt 1               @ ../User/Bsp/RUI_DBUS.c:97:46
	ldr	r2, [sp, #40]
	.loc	2 97 67 is_stmt 0               @ ../User/Bsp/RUI_DBUS.c:97:67
	ldrb.w	r1, [r2, #68]
	movs	r0, #1
	.loc	2 97 45                         @ ../User/Bsp/RUI_DBUS.c:97:45
	bic.w	r3, r0, r1, lsr #2
	.loc	2 97 43                         @ ../User/Bsp/RUI_DBUS.c:97:43
	and	r1, r1, #251
	orr.w	r1, r1, r3, lsl #2
	strb.w	r1, [r2, #68]
	.loc	2 98 20 is_stmt 1               @ ../User/Bsp/RUI_DBUS.c:98:20
	movw	r1, :lower16:RUI_F_DUBS_Resovled.Key_Q_Lock
	movt	r1, :upper16:RUI_F_DUBS_Resovled.Key_Q_Lock
	strb	r0, [r1]
	.loc	2 99 5                          @ ../User/Bsp/RUI_DBUS.c:99:5
	b	.LBB0_23
.Ltmp20:
.LBB0_19:
	.loc	2 100 14                        @ ../User/Bsp/RUI_DBUS.c:100:14
	ldr	r0, [sp, #40]
	.loc	2 100 35 is_stmt 0              @ ../User/Bsp/RUI_DBUS.c:100:35
	ldrb.w	r0, [r0, #59]
	.loc	2 100 42                        @ ../User/Bsp/RUI_DBUS.c:100:42
	lsls	r0, r0, #28
	cbnz	r0, .LBB0_22
	b	.LBB0_20
.LBB0_20:
	.loc	2 100 45                        @ ../User/Bsp/RUI_DBUS.c:100:45
	movw	r0, :lower16:RUI_F_DUBS_Resovled.Key_Q_Lock
	movt	r0, :upper16:RUI_F_DUBS_Resovled.Key_Q_Lock
	ldrb	r0, [r0]
.Ltmp21:
	.loc	2 100 14                        @ ../User/Bsp/RUI_DBUS.c:100:14
	cmp	r0, #1
	bne	.LBB0_22
	b	.LBB0_21
.LBB0_21:
.Ltmp22:
	.loc	2 102 20 is_stmt 1              @ ../User/Bsp/RUI_DBUS.c:102:20
	movw	r1, :lower16:RUI_F_DUBS_Resovled.Key_Q_Lock
	movt	r1, :upper16:RUI_F_DUBS_Resovled.Key_Q_Lock
	movs	r0, #0
	strb	r0, [r1]
	.loc	2 103 5                         @ ../User/Bsp/RUI_DBUS.c:103:5
	b	.LBB0_22
.Ltmp23:
.LBB0_22:
	.loc	2 0 5 is_stmt 0                 @ ../User/Bsp/RUI_DBUS.c:0:5
	b	.LBB0_23
.LBB0_23:
	.loc	2 105 58 is_stmt 1              @ ../User/Bsp/RUI_DBUS.c:105:58
	ldr	r0, [sp, #28]
	.loc	2 105 30 is_stmt 0              @ ../User/Bsp/RUI_DBUS.c:105:30
	ubfx	r2, r0, #23, #1
	.loc	2 105 5                         @ ../User/Bsp/RUI_DBUS.c:105:5
	ldr	r1, [sp, #40]
	.loc	2 105 28                        @ ../User/Bsp/RUI_DBUS.c:105:28
	ldrb.w	r0, [r1, #59]
	and	r0, r0, #15
	orr.w	r0, r0, r2, lsl #4
	strb.w	r0, [r1, #59]
.Ltmp24:
	.loc	2 106 9 is_stmt 1               @ ../User/Bsp/RUI_DBUS.c:106:9
	ldr	r0, [sp, #40]
	.loc	2 106 30 is_stmt 0              @ ../User/Bsp/RUI_DBUS.c:106:30
	ldrb.w	r1, [r0, #59]
	movs	r0, #1
	.loc	2 106 37                        @ ../User/Bsp/RUI_DBUS.c:106:37
	cmp.w	r0, r1, lsr #4
	bne	.LBB0_26
	b	.LBB0_24
.LBB0_24:
	.loc	2 106 40                        @ ../User/Bsp/RUI_DBUS.c:106:40
	movw	r0, :lower16:RUI_F_DUBS_Resovled.Key_E_Lock
	movt	r0, :upper16:RUI_F_DUBS_Resovled.Key_E_Lock
	ldrb	r0, [r0]
.Ltmp25:
	.loc	2 106 9                         @ ../User/Bsp/RUI_DBUS.c:106:9
	cbnz	r0, .LBB0_26
	b	.LBB0_25
.LBB0_25:
.Ltmp26:
	.loc	2 108 46 is_stmt 1              @ ../User/Bsp/RUI_DBUS.c:108:46
	ldr	r2, [sp, #40]
	.loc	2 108 67 is_stmt 0              @ ../User/Bsp/RUI_DBUS.c:108:67
	ldrb.w	r1, [r2, #68]
	movs	r0, #1
	.loc	2 108 45                        @ ../User/Bsp/RUI_DBUS.c:108:45
	bic.w	r3, r0, r1, lsr #3
	.loc	2 108 43                        @ ../User/Bsp/RUI_DBUS.c:108:43
	and	r1, r1, #247
	orr.w	r1, r1, r3, lsl #3
	strb.w	r1, [r2, #68]
	.loc	2 109 20 is_stmt 1              @ ../User/Bsp/RUI_DBUS.c:109:20
	movw	r1, :lower16:RUI_F_DUBS_Resovled.Key_E_Lock
	movt	r1, :upper16:RUI_F_DUBS_Resovled.Key_E_Lock
	strb	r0, [r1]
	.loc	2 110 5                         @ ../User/Bsp/RUI_DBUS.c:110:5
	b	.LBB0_30
.Ltmp27:
.LBB0_26:
	.loc	2 111 14                        @ ../User/Bsp/RUI_DBUS.c:111:14
	ldr	r0, [sp, #40]
	.loc	2 111 35 is_stmt 0              @ ../User/Bsp/RUI_DBUS.c:111:35
	ldrb.w	r1, [r0, #59]
	movs	r0, #0
	.loc	2 111 42                        @ ../User/Bsp/RUI_DBUS.c:111:42
	cmp.w	r0, r1, lsr #4
	bne	.LBB0_29
	b	.LBB0_27
.LBB0_27:
	.loc	2 111 45                        @ ../User/Bsp/RUI_DBUS.c:111:45
	movw	r0, :lower16:RUI_F_DUBS_Resovled.Key_E_Lock
	movt	r0, :upper16:RUI_F_DUBS_Resovled.Key_E_Lock
	ldrb	r0, [r0]
.Ltmp28:
	.loc	2 111 14                        @ ../User/Bsp/RUI_DBUS.c:111:14
	cmp	r0, #1
	bne	.LBB0_29
	b	.LBB0_28
.LBB0_28:
.Ltmp29:
	.loc	2 113 20 is_stmt 1              @ ../User/Bsp/RUI_DBUS.c:113:20
	movw	r1, :lower16:RUI_F_DUBS_Resovled.Key_E_Lock
	movt	r1, :upper16:RUI_F_DUBS_Resovled.Key_E_Lock
	movs	r0, #0
	strb	r0, [r1]
	.loc	2 114 5                         @ ../User/Bsp/RUI_DBUS.c:114:5
	b	.LBB0_29
.Ltmp30:
.LBB0_29:
	.loc	2 0 5 is_stmt 0                 @ ../User/Bsp/RUI_DBUS.c:0:5
	b	.LBB0_30
.LBB0_30:
	.loc	2 116 58 is_stmt 1              @ ../User/Bsp/RUI_DBUS.c:116:58
	ldrb.w	r0, [sp, #31]
	.loc	2 116 30 is_stmt 0              @ ../User/Bsp/RUI_DBUS.c:116:30
	and	r2, r0, #1
	.loc	2 116 5                         @ ../User/Bsp/RUI_DBUS.c:116:5
	ldr	r1, [sp, #40]
	.loc	2 116 28                        @ ../User/Bsp/RUI_DBUS.c:116:28
	ldrb.w	r0, [r1, #60]
	and	r0, r0, #240
	add	r0, r2
	strb.w	r0, [r1, #60]
.Ltmp31:
	.loc	2 117 9 is_stmt 1               @ ../User/Bsp/RUI_DBUS.c:117:9
	ldr	r0, [sp, #40]
	.loc	2 117 30 is_stmt 0              @ ../User/Bsp/RUI_DBUS.c:117:30
	ldrb.w	r0, [r0, #60]
	and	r0, r0, #15
	.loc	2 117 37                        @ ../User/Bsp/RUI_DBUS.c:117:37
	cmp	r0, #1
	bne	.LBB0_33
	b	.LBB0_31
.LBB0_31:
	.loc	2 117 40                        @ ../User/Bsp/RUI_DBUS.c:117:40
	movw	r0, :lower16:RUI_F_DUBS_Resovled.Key_R_Lock
	movt	r0, :upper16:RUI_F_DUBS_Resovled.Key_R_Lock
	ldrb	r0, [r0]
.Ltmp32:
	.loc	2 117 9                         @ ../User/Bsp/RUI_DBUS.c:117:9
	cbnz	r0, .LBB0_33
	b	.LBB0_32
.LBB0_32:
.Ltmp33:
	.loc	2 119 46 is_stmt 1              @ ../User/Bsp/RUI_DBUS.c:119:46
	ldr	r2, [sp, #40]
	.loc	2 119 67 is_stmt 0              @ ../User/Bsp/RUI_DBUS.c:119:67
	ldrb.w	r1, [r2, #68]
	movs	r0, #1
	.loc	2 119 45                        @ ../User/Bsp/RUI_DBUS.c:119:45
	bic.w	r3, r0, r1, lsr #4
	.loc	2 119 43                        @ ../User/Bsp/RUI_DBUS.c:119:43
	and	r1, r1, #239
	orr.w	r1, r1, r3, lsl #4
	strb.w	r1, [r2, #68]
	.loc	2 120 20 is_stmt 1              @ ../User/Bsp/RUI_DBUS.c:120:20
	movw	r1, :lower16:RUI_F_DUBS_Resovled.Key_R_Lock
	movt	r1, :upper16:RUI_F_DUBS_Resovled.Key_R_Lock
	strb	r0, [r1]
	.loc	2 121 5                         @ ../User/Bsp/RUI_DBUS.c:121:5
	b	.LBB0_37
.Ltmp34:
.LBB0_33:
	.loc	2 122 14                        @ ../User/Bsp/RUI_DBUS.c:122:14
	ldr	r0, [sp, #40]
	.loc	2 122 35 is_stmt 0              @ ../User/Bsp/RUI_DBUS.c:122:35
	ldrb.w	r0, [r0, #60]
	.loc	2 122 42                        @ ../User/Bsp/RUI_DBUS.c:122:42
	lsls	r0, r0, #28
	cbnz	r0, .LBB0_36
	b	.LBB0_34
.LBB0_34:
	.loc	2 122 45                        @ ../User/Bsp/RUI_DBUS.c:122:45
	movw	r0, :lower16:RUI_F_DUBS_Resovled.Key_R_Lock
	movt	r0, :upper16:RUI_F_DUBS_Resovled.Key_R_Lock
	ldrb	r0, [r0]
.Ltmp35:
	.loc	2 122 14                        @ ../User/Bsp/RUI_DBUS.c:122:14
	cmp	r0, #1
	bne	.LBB0_36
	b	.LBB0_35
.LBB0_35:
.Ltmp36:
	.loc	2 124 20 is_stmt 1              @ ../User/Bsp/RUI_DBUS.c:124:20
	movw	r1, :lower16:RUI_F_DUBS_Resovled.Key_R_Lock
	movt	r1, :upper16:RUI_F_DUBS_Resovled.Key_R_Lock
	movs	r0, #0
	strb	r0, [r1]
	.loc	2 125 5                         @ ../User/Bsp/RUI_DBUS.c:125:5
	b	.LBB0_36
.Ltmp37:
.LBB0_36:
	.loc	2 0 5 is_stmt 0                 @ ../User/Bsp/RUI_DBUS.c:0:5
	b	.LBB0_37
.LBB0_37:
	.loc	2 127 58 is_stmt 1              @ ../User/Bsp/RUI_DBUS.c:127:58
	ldr	r0, [sp, #28]
	.loc	2 127 30 is_stmt 0              @ ../User/Bsp/RUI_DBUS.c:127:30
	ubfx	r2, r0, #25, #1
	.loc	2 127 5                         @ ../User/Bsp/RUI_DBUS.c:127:5
	ldr	r1, [sp, #40]
	.loc	2 127 28                        @ ../User/Bsp/RUI_DBUS.c:127:28
	ldrb.w	r0, [r1, #60]
	and	r0, r0, #15
	orr.w	r0, r0, r2, lsl #4
	strb.w	r0, [r1, #60]
.Ltmp38:
	.loc	2 128 9 is_stmt 1               @ ../User/Bsp/RUI_DBUS.c:128:9
	ldr	r0, [sp, #40]
	.loc	2 128 30 is_stmt 0              @ ../User/Bsp/RUI_DBUS.c:128:30
	ldrb.w	r1, [r0, #60]
	movs	r0, #1
	.loc	2 128 37                        @ ../User/Bsp/RUI_DBUS.c:128:37
	cmp.w	r0, r1, lsr #4
	bne	.LBB0_40
	b	.LBB0_38
.LBB0_38:
	.loc	2 128 40                        @ ../User/Bsp/RUI_DBUS.c:128:40
	movw	r0, :lower16:RUI_F_DUBS_Resovled.Key_F_Lock
	movt	r0, :upper16:RUI_F_DUBS_Resovled.Key_F_Lock
	ldrb	r0, [r0]
.Ltmp39:
	.loc	2 128 9                         @ ../User/Bsp/RUI_DBUS.c:128:9
	cbnz	r0, .LBB0_40
	b	.LBB0_39
.LBB0_39:
.Ltmp40:
	.loc	2 130 46 is_stmt 1              @ ../User/Bsp/RUI_DBUS.c:130:46
	ldr	r2, [sp, #40]
	.loc	2 130 67 is_stmt 0              @ ../User/Bsp/RUI_DBUS.c:130:67
	ldrb.w	r1, [r2, #68]
	movs	r0, #1
	.loc	2 130 45                        @ ../User/Bsp/RUI_DBUS.c:130:45
	bic.w	r3, r0, r1, lsr #5
	.loc	2 130 43                        @ ../User/Bsp/RUI_DBUS.c:130:43
	and	r1, r1, #223
	orr.w	r1, r1, r3, lsl #5
	strb.w	r1, [r2, #68]
	.loc	2 131 20 is_stmt 1              @ ../User/Bsp/RUI_DBUS.c:131:20
	movw	r1, :lower16:RUI_F_DUBS_Resovled.Key_F_Lock
	movt	r1, :upper16:RUI_F_DUBS_Resovled.Key_F_Lock
	strb	r0, [r1]
	.loc	2 132 5                         @ ../User/Bsp/RUI_DBUS.c:132:5
	b	.LBB0_45
.Ltmp41:
.LBB0_40:
	.loc	2 133 14                        @ ../User/Bsp/RUI_DBUS.c:133:14
	ldr	r0, [sp, #40]
	.loc	2 133 35 is_stmt 0              @ ../User/Bsp/RUI_DBUS.c:133:35
	ldrb.w	r1, [r0, #60]
	movs	r0, #0
	.loc	2 133 42                        @ ../User/Bsp/RUI_DBUS.c:133:42
	cmp.w	r0, r1, lsr #4
	bne	.LBB0_44
	b	.LBB0_41
.LBB0_41:
	.loc	2 133 45                        @ ../User/Bsp/RUI_DBUS.c:133:45
	movw	r0, :lower16:RUI_F_DUBS_Resovled.Key_F_Lock
	movt	r0, :upper16:RUI_F_DUBS_Resovled.Key_F_Lock
	ldrb	r0, [r0]
.Ltmp42:
	.loc	2 133 14                        @ ../User/Bsp/RUI_DBUS.c:133:14
	cmp	r0, #1
	bne	.LBB0_44
	b	.LBB0_43
	.p2align	2
@ %bb.42:
	.loc	2 0 14                          @ ../User/Bsp/RUI_DBUS.c:0:14
__arm_cp.0_1:
	.long	0x43fa0000                      @ float 500
.Lcpi_end0:
	.size	__arm_cp.0_1, .Lcpi_end0-__arm_cp.0_1
	.p2align	1
.LBB0_43:
.Ltmp43:
	.loc	2 135 20 is_stmt 1              @ ../User/Bsp/RUI_DBUS.c:135:20
	movw	r1, :lower16:RUI_F_DUBS_Resovled.Key_F_Lock
	movt	r1, :upper16:RUI_F_DUBS_Resovled.Key_F_Lock
	movs	r0, #0
	strb	r0, [r1]
	.loc	2 136 5                         @ ../User/Bsp/RUI_DBUS.c:136:5
	b	.LBB0_44
.Ltmp44:
.LBB0_44:
	.loc	2 0 5 is_stmt 0                 @ ../User/Bsp/RUI_DBUS.c:0:5
	b	.LBB0_45
.LBB0_45:
	.loc	2 138 58 is_stmt 1              @ ../User/Bsp/RUI_DBUS.c:138:58
	ldr	r0, [sp, #28]
	.loc	2 138 30 is_stmt 0              @ ../User/Bsp/RUI_DBUS.c:138:30
	ubfx	r2, r0, #27, #1
	.loc	2 138 5                         @ ../User/Bsp/RUI_DBUS.c:138:5
	ldr	r1, [sp, #40]
	.loc	2 138 28                        @ ../User/Bsp/RUI_DBUS.c:138:28
	ldrb.w	r0, [r1, #61]
	and	r0, r0, #15
	orr.w	r0, r0, r2, lsl #4
	strb.w	r0, [r1, #61]
.Ltmp45:
	.loc	2 139 9 is_stmt 1               @ ../User/Bsp/RUI_DBUS.c:139:9
	ldr	r0, [sp, #40]
	.loc	2 139 30 is_stmt 0              @ ../User/Bsp/RUI_DBUS.c:139:30
	ldrb.w	r1, [r0, #61]
	movs	r0, #1
	.loc	2 139 37                        @ ../User/Bsp/RUI_DBUS.c:139:37
	cmp.w	r0, r1, lsr #4
	bne	.LBB0_48
	b	.LBB0_46
.LBB0_46:
	.loc	2 139 40                        @ ../User/Bsp/RUI_DBUS.c:139:40
	movw	r0, :lower16:RUI_F_DUBS_Resovled.Key_Z_Lock
	movt	r0, :upper16:RUI_F_DUBS_Resovled.Key_Z_Lock
	ldrb	r0, [r0]
.Ltmp46:
	.loc	2 139 9                         @ ../User/Bsp/RUI_DBUS.c:139:9
	cbnz	r0, .LBB0_48
	b	.LBB0_47
.LBB0_47:
.Ltmp47:
	.loc	2 141 46 is_stmt 1              @ ../User/Bsp/RUI_DBUS.c:141:46
	ldr	r2, [sp, #40]
	.loc	2 141 67 is_stmt 0              @ ../User/Bsp/RUI_DBUS.c:141:67
	ldrb.w	r1, [r2, #68]
	movs	r0, #1
	.loc	2 141 45                        @ ../User/Bsp/RUI_DBUS.c:141:45
	eor.w	r3, r0, r1, lsr #7
	.loc	2 141 43                        @ ../User/Bsp/RUI_DBUS.c:141:43
	and	r1, r1, #127
	orr.w	r1, r1, r3, lsl #7
	strb.w	r1, [r2, #68]
	.loc	2 142 20 is_stmt 1              @ ../User/Bsp/RUI_DBUS.c:142:20
	movw	r1, :lower16:RUI_F_DUBS_Resovled.Key_Z_Lock
	movt	r1, :upper16:RUI_F_DUBS_Resovled.Key_Z_Lock
	strb	r0, [r1]
	.loc	2 143 5                         @ ../User/Bsp/RUI_DBUS.c:143:5
	b	.LBB0_52
.Ltmp48:
.LBB0_48:
	.loc	2 144 14                        @ ../User/Bsp/RUI_DBUS.c:144:14
	ldr	r0, [sp, #40]
	.loc	2 144 35 is_stmt 0              @ ../User/Bsp/RUI_DBUS.c:144:35
	ldrb.w	r1, [r0, #61]
	movs	r0, #0
	.loc	2 144 42                        @ ../User/Bsp/RUI_DBUS.c:144:42
	cmp.w	r0, r1, lsr #4
	bne	.LBB0_51
	b	.LBB0_49
.LBB0_49:
	.loc	2 144 45                        @ ../User/Bsp/RUI_DBUS.c:144:45
	movw	r0, :lower16:RUI_F_DUBS_Resovled.Key_Z_Lock
	movt	r0, :upper16:RUI_F_DUBS_Resovled.Key_Z_Lock
	ldrb	r0, [r0]
.Ltmp49:
	.loc	2 144 14                        @ ../User/Bsp/RUI_DBUS.c:144:14
	cmp	r0, #1
	bne	.LBB0_51
	b	.LBB0_50
.LBB0_50:
.Ltmp50:
	.loc	2 146 20 is_stmt 1              @ ../User/Bsp/RUI_DBUS.c:146:20
	movw	r1, :lower16:RUI_F_DUBS_Resovled.Key_Z_Lock
	movt	r1, :upper16:RUI_F_DUBS_Resovled.Key_Z_Lock
	movs	r0, #0
	strb	r0, [r1]
	.loc	2 147 5                         @ ../User/Bsp/RUI_DBUS.c:147:5
	b	.LBB0_51
.Ltmp51:
.LBB0_51:
	.loc	2 0 5 is_stmt 0                 @ ../User/Bsp/RUI_DBUS.c:0:5
	b	.LBB0_52
.LBB0_52:
	.loc	2 149 58 is_stmt 1              @ ../User/Bsp/RUI_DBUS.c:149:58
	ldr	r0, [sp, #28]
	.loc	2 149 30 is_stmt 0              @ ../User/Bsp/RUI_DBUS.c:149:30
	ubfx	r2, r0, #26, #1
	.loc	2 149 5                         @ ../User/Bsp/RUI_DBUS.c:149:5
	ldr	r1, [sp, #40]
	.loc	2 149 28                        @ ../User/Bsp/RUI_DBUS.c:149:28
	ldrb.w	r0, [r1, #61]
	and	r0, r0, #240
	add	r0, r2
	strb.w	r0, [r1, #61]
.Ltmp52:
	.loc	2 150 9 is_stmt 1               @ ../User/Bsp/RUI_DBUS.c:150:9
	ldr	r0, [sp, #40]
	.loc	2 150 30 is_stmt 0              @ ../User/Bsp/RUI_DBUS.c:150:30
	ldrb.w	r0, [r0, #61]
	and	r0, r0, #15
	.loc	2 150 37                        @ ../User/Bsp/RUI_DBUS.c:150:37
	cmp	r0, #1
	bne	.LBB0_55
	b	.LBB0_53
.LBB0_53:
	.loc	2 150 40                        @ ../User/Bsp/RUI_DBUS.c:150:40
	movw	r0, :lower16:RUI_F_DUBS_Resovled.Key_G_Lock
	movt	r0, :upper16:RUI_F_DUBS_Resovled.Key_G_Lock
	ldrb	r0, [r0]
.Ltmp53:
	.loc	2 150 9                         @ ../User/Bsp/RUI_DBUS.c:150:9
	cbnz	r0, .LBB0_55
	b	.LBB0_54
.LBB0_54:
.Ltmp54:
	.loc	2 152 46 is_stmt 1              @ ../User/Bsp/RUI_DBUS.c:152:46
	ldr	r2, [sp, #40]
	.loc	2 152 67 is_stmt 0              @ ../User/Bsp/RUI_DBUS.c:152:67
	ldrb.w	r1, [r2, #68]
	movs	r0, #1
	.loc	2 152 45                        @ ../User/Bsp/RUI_DBUS.c:152:45
	bic.w	r3, r0, r1, lsr #6
	.loc	2 152 43                        @ ../User/Bsp/RUI_DBUS.c:152:43
	and	r1, r1, #191
	orr.w	r1, r1, r3, lsl #6
	strb.w	r1, [r2, #68]
	.loc	2 153 20 is_stmt 1              @ ../User/Bsp/RUI_DBUS.c:153:20
	movw	r1, :lower16:RUI_F_DUBS_Resovled.Key_G_Lock
	movt	r1, :upper16:RUI_F_DUBS_Resovled.Key_G_Lock
	strb	r0, [r1]
	.loc	2 154 5                         @ ../User/Bsp/RUI_DBUS.c:154:5
	b	.LBB0_59
.Ltmp55:
.LBB0_55:
	.loc	2 155 14                        @ ../User/Bsp/RUI_DBUS.c:155:14
	ldr	r0, [sp, #40]
	.loc	2 155 35 is_stmt 0              @ ../User/Bsp/RUI_DBUS.c:155:35
	ldrb.w	r0, [r0, #61]
	.loc	2 155 42                        @ ../User/Bsp/RUI_DBUS.c:155:42
	lsls	r0, r0, #28
	cbnz	r0, .LBB0_58
	b	.LBB0_56
.LBB0_56:
	.loc	2 155 45                        @ ../User/Bsp/RUI_DBUS.c:155:45
	movw	r0, :lower16:RUI_F_DUBS_Resovled.Key_G_Lock
	movt	r0, :upper16:RUI_F_DUBS_Resovled.Key_G_Lock
	ldrb	r0, [r0]
.Ltmp56:
	.loc	2 155 14                        @ ../User/Bsp/RUI_DBUS.c:155:14
	cmp	r0, #1
	bne	.LBB0_58
	b	.LBB0_57
.LBB0_57:
.Ltmp57:
	.loc	2 157 20 is_stmt 1              @ ../User/Bsp/RUI_DBUS.c:157:20
	movw	r1, :lower16:RUI_F_DUBS_Resovled.Key_G_Lock
	movt	r1, :upper16:RUI_F_DUBS_Resovled.Key_G_Lock
	movs	r0, #0
	strb	r0, [r1]
	.loc	2 158 5                         @ ../User/Bsp/RUI_DBUS.c:158:5
	b	.LBB0_58
.Ltmp58:
.LBB0_58:
	.loc	2 0 5 is_stmt 0                 @ ../User/Bsp/RUI_DBUS.c:0:5
	b	.LBB0_59
.LBB0_59:
	.loc	2 160 58 is_stmt 1              @ ../User/Bsp/RUI_DBUS.c:160:58
	ldr	r0, [sp, #28]
	.loc	2 160 30 is_stmt 0              @ ../User/Bsp/RUI_DBUS.c:160:30
	ubfx	r2, r0, #28, #1
	.loc	2 160 5                         @ ../User/Bsp/RUI_DBUS.c:160:5
	ldr	r1, [sp, #40]
	.loc	2 160 28                        @ ../User/Bsp/RUI_DBUS.c:160:28
	ldrb.w	r0, [r1, #62]
	and	r0, r0, #240
	add	r0, r2
	strb.w	r0, [r1, #62]
.Ltmp59:
	.loc	2 161 9 is_stmt 1               @ ../User/Bsp/RUI_DBUS.c:161:9
	ldr	r0, [sp, #40]
	.loc	2 161 30 is_stmt 0              @ ../User/Bsp/RUI_DBUS.c:161:30
	ldrb.w	r0, [r0, #62]
	and	r0, r0, #15
	.loc	2 161 37                        @ ../User/Bsp/RUI_DBUS.c:161:37
	cmp	r0, #1
	bne	.LBB0_62
	b	.LBB0_60
.LBB0_60:
	.loc	2 161 40                        @ ../User/Bsp/RUI_DBUS.c:161:40
	movw	r0, :lower16:RUI_F_DUBS_Resovled.Key_X_Lock
	movt	r0, :upper16:RUI_F_DUBS_Resovled.Key_X_Lock
	ldrb	r0, [r0]
.Ltmp60:
	.loc	2 161 9                         @ ../User/Bsp/RUI_DBUS.c:161:9
	cbnz	r0, .LBB0_62
	b	.LBB0_61
.LBB0_61:
.Ltmp61:
	.loc	2 163 46 is_stmt 1              @ ../User/Bsp/RUI_DBUS.c:163:46
	ldr	r2, [sp, #40]
	.loc	2 163 67 is_stmt 0              @ ../User/Bsp/RUI_DBUS.c:163:67
	ldrb.w	r1, [r2, #69]
	movs	r0, #1
	.loc	2 163 45                        @ ../User/Bsp/RUI_DBUS.c:163:45
	bic.w	r3, r0, r1
	.loc	2 163 43                        @ ../User/Bsp/RUI_DBUS.c:163:43
	and	r1, r1, #254
	add	r1, r3
	strb.w	r1, [r2, #69]
	.loc	2 164 20 is_stmt 1              @ ../User/Bsp/RUI_DBUS.c:164:20
	movw	r1, :lower16:RUI_F_DUBS_Resovled.Key_X_Lock
	movt	r1, :upper16:RUI_F_DUBS_Resovled.Key_X_Lock
	strb	r0, [r1]
	.loc	2 165 5                         @ ../User/Bsp/RUI_DBUS.c:165:5
	b	.LBB0_66
.Ltmp62:
.LBB0_62:
	.loc	2 166 14                        @ ../User/Bsp/RUI_DBUS.c:166:14
	ldr	r0, [sp, #40]
	.loc	2 166 35 is_stmt 0              @ ../User/Bsp/RUI_DBUS.c:166:35
	ldrb.w	r0, [r0, #62]
	.loc	2 166 42                        @ ../User/Bsp/RUI_DBUS.c:166:42
	lsls	r0, r0, #28
	cbnz	r0, .LBB0_65
	b	.LBB0_63
.LBB0_63:
	.loc	2 166 45                        @ ../User/Bsp/RUI_DBUS.c:166:45
	movw	r0, :lower16:RUI_F_DUBS_Resovled.Key_X_Lock
	movt	r0, :upper16:RUI_F_DUBS_Resovled.Key_X_Lock
	ldrb	r0, [r0]
.Ltmp63:
	.loc	2 166 14                        @ ../User/Bsp/RUI_DBUS.c:166:14
	cmp	r0, #1
	bne	.LBB0_65
	b	.LBB0_64
.LBB0_64:
.Ltmp64:
	.loc	2 168 20 is_stmt 1              @ ../User/Bsp/RUI_DBUS.c:168:20
	movw	r1, :lower16:RUI_F_DUBS_Resovled.Key_X_Lock
	movt	r1, :upper16:RUI_F_DUBS_Resovled.Key_X_Lock
	movs	r0, #0
	strb	r0, [r1]
	.loc	2 169 5                         @ ../User/Bsp/RUI_DBUS.c:169:5
	b	.LBB0_65
.Ltmp65:
.LBB0_65:
	.loc	2 0 5 is_stmt 0                 @ ../User/Bsp/RUI_DBUS.c:0:5
	b	.LBB0_66
.LBB0_66:
	.loc	2 171 58 is_stmt 1              @ ../User/Bsp/RUI_DBUS.c:171:58
	ldr	r0, [sp, #28]
	.loc	2 171 30 is_stmt 0              @ ../User/Bsp/RUI_DBUS.c:171:30
	ubfx	r2, r0, #29, #1
	.loc	2 171 5                         @ ../User/Bsp/RUI_DBUS.c:171:5
	ldr	r1, [sp, #40]
	.loc	2 171 28                        @ ../User/Bsp/RUI_DBUS.c:171:28
	ldrb.w	r0, [r1, #62]
	and	r0, r0, #15
	orr.w	r0, r0, r2, lsl #4
	strb.w	r0, [r1, #62]
.Ltmp66:
	.loc	2 172 9 is_stmt 1               @ ../User/Bsp/RUI_DBUS.c:172:9
	ldr	r0, [sp, #40]
	.loc	2 172 30 is_stmt 0              @ ../User/Bsp/RUI_DBUS.c:172:30
	ldrb.w	r1, [r0, #62]
	movs	r0, #1
	.loc	2 172 37                        @ ../User/Bsp/RUI_DBUS.c:172:37
	cmp.w	r0, r1, lsr #4
	bne	.LBB0_69
	b	.LBB0_67
.LBB0_67:
	.loc	2 172 40                        @ ../User/Bsp/RUI_DBUS.c:172:40
	movw	r0, :lower16:RUI_F_DUBS_Resovled.Key_C_Lock
	movt	r0, :upper16:RUI_F_DUBS_Resovled.Key_C_Lock
	ldrb	r0, [r0]
.Ltmp67:
	.loc	2 172 9                         @ ../User/Bsp/RUI_DBUS.c:172:9
	cbnz	r0, .LBB0_69
	b	.LBB0_68
.LBB0_68:
.Ltmp68:
	.loc	2 174 46 is_stmt 1              @ ../User/Bsp/RUI_DBUS.c:174:46
	ldr	r2, [sp, #40]
	.loc	2 174 67 is_stmt 0              @ ../User/Bsp/RUI_DBUS.c:174:67
	ldrb.w	r1, [r2, #69]
	movs	r0, #1
	.loc	2 174 45                        @ ../User/Bsp/RUI_DBUS.c:174:45
	bic.w	r3, r0, r1, lsr #1
	.loc	2 174 43                        @ ../User/Bsp/RUI_DBUS.c:174:43
	and	r1, r1, #253
	orr.w	r1, r1, r3, lsl #1
	strb.w	r1, [r2, #69]
	.loc	2 175 20 is_stmt 1              @ ../User/Bsp/RUI_DBUS.c:175:20
	movw	r1, :lower16:RUI_F_DUBS_Resovled.Key_C_Lock
	movt	r1, :upper16:RUI_F_DUBS_Resovled.Key_C_Lock
	strb	r0, [r1]
	.loc	2 176 5                         @ ../User/Bsp/RUI_DBUS.c:176:5
	b	.LBB0_73
.Ltmp69:
.LBB0_69:
	.loc	2 177 14                        @ ../User/Bsp/RUI_DBUS.c:177:14
	ldr	r0, [sp, #40]
	.loc	2 177 35 is_stmt 0              @ ../User/Bsp/RUI_DBUS.c:177:35
	ldrb.w	r1, [r0, #62]
	movs	r0, #0
	.loc	2 177 42                        @ ../User/Bsp/RUI_DBUS.c:177:42
	cmp.w	r0, r1, lsr #4
	bne	.LBB0_72
	b	.LBB0_70
.LBB0_70:
	.loc	2 177 45                        @ ../User/Bsp/RUI_DBUS.c:177:45
	movw	r0, :lower16:RUI_F_DUBS_Resovled.Key_C_Lock
	movt	r0, :upper16:RUI_F_DUBS_Resovled.Key_C_Lock
	ldrb	r0, [r0]
.Ltmp70:
	.loc	2 177 14                        @ ../User/Bsp/RUI_DBUS.c:177:14
	cmp	r0, #1
	bne	.LBB0_72
	b	.LBB0_71
.LBB0_71:
.Ltmp71:
	.loc	2 179 20 is_stmt 1              @ ../User/Bsp/RUI_DBUS.c:179:20
	movw	r1, :lower16:RUI_F_DUBS_Resovled.Key_C_Lock
	movt	r1, :upper16:RUI_F_DUBS_Resovled.Key_C_Lock
	movs	r0, #0
	strb	r0, [r1]
	.loc	2 180 5                         @ ../User/Bsp/RUI_DBUS.c:180:5
	b	.LBB0_72
.Ltmp72:
.LBB0_72:
	.loc	2 0 5 is_stmt 0                 @ ../User/Bsp/RUI_DBUS.c:0:5
	b	.LBB0_73
.LBB0_73:
	.loc	2 182 58 is_stmt 1              @ ../User/Bsp/RUI_DBUS.c:182:58
	ldr	r0, [sp, #28]
	.loc	2 182 30 is_stmt 0              @ ../User/Bsp/RUI_DBUS.c:182:30
	ubfx	r2, r0, #30, #1
	.loc	2 182 5                         @ ../User/Bsp/RUI_DBUS.c:182:5
	ldr	r1, [sp, #40]
	.loc	2 182 28                        @ ../User/Bsp/RUI_DBUS.c:182:28
	ldrb.w	r0, [r1, #63]
	and	r0, r0, #240
	add	r0, r2
	strb.w	r0, [r1, #63]
.Ltmp73:
	.loc	2 183 6 is_stmt 1               @ ../User/Bsp/RUI_DBUS.c:183:6
	ldr	r0, [sp, #40]
	.loc	2 183 27 is_stmt 0              @ ../User/Bsp/RUI_DBUS.c:183:27
	ldrb.w	r0, [r0, #63]
	and	r0, r0, #15
	.loc	2 183 34                        @ ../User/Bsp/RUI_DBUS.c:183:34
	cmp	r0, #1
	bne	.LBB0_76
	b	.LBB0_74
.LBB0_74:
	.loc	2 183 37                        @ ../User/Bsp/RUI_DBUS.c:183:37
	movw	r0, :lower16:RUI_F_DUBS_Resovled.Key_V_Lock
	movt	r0, :upper16:RUI_F_DUBS_Resovled.Key_V_Lock
	ldrb	r0, [r0]
.Ltmp74:
	.loc	2 183 6                         @ ../User/Bsp/RUI_DBUS.c:183:6
	cbnz	r0, .LBB0_76
	b	.LBB0_75
.LBB0_75:
.Ltmp75:
	.loc	2 185 46 is_stmt 1              @ ../User/Bsp/RUI_DBUS.c:185:46
	ldr	r2, [sp, #40]
	.loc	2 185 67 is_stmt 0              @ ../User/Bsp/RUI_DBUS.c:185:67
	ldrb.w	r1, [r2, #69]
	movs	r0, #1
	.loc	2 185 45                        @ ../User/Bsp/RUI_DBUS.c:185:45
	bic.w	r3, r0, r1, lsr #2
	.loc	2 185 43                        @ ../User/Bsp/RUI_DBUS.c:185:43
	and	r1, r1, #251
	orr.w	r1, r1, r3, lsl #2
	strb.w	r1, [r2, #69]
	.loc	2 186 20 is_stmt 1              @ ../User/Bsp/RUI_DBUS.c:186:20
	movw	r1, :lower16:RUI_F_DUBS_Resovled.Key_V_Lock
	movt	r1, :upper16:RUI_F_DUBS_Resovled.Key_V_Lock
	strb	r0, [r1]
	.loc	2 187 5                         @ ../User/Bsp/RUI_DBUS.c:187:5
	b	.LBB0_80
.Ltmp76:
.LBB0_76:
	.loc	2 188 14                        @ ../User/Bsp/RUI_DBUS.c:188:14
	ldr	r0, [sp, #40]
	.loc	2 188 35 is_stmt 0              @ ../User/Bsp/RUI_DBUS.c:188:35
	ldrb.w	r0, [r0, #63]
	.loc	2 188 42                        @ ../User/Bsp/RUI_DBUS.c:188:42
	lsls	r0, r0, #28
	cbnz	r0, .LBB0_79
	b	.LBB0_77
.LBB0_77:
	.loc	2 188 45                        @ ../User/Bsp/RUI_DBUS.c:188:45
	movw	r0, :lower16:RUI_F_DUBS_Resovled.Key_V_Lock
	movt	r0, :upper16:RUI_F_DUBS_Resovled.Key_V_Lock
	ldrb	r0, [r0]
.Ltmp77:
	.loc	2 188 14                        @ ../User/Bsp/RUI_DBUS.c:188:14
	cmp	r0, #1
	bne	.LBB0_79
	b	.LBB0_78
.LBB0_78:
.Ltmp78:
	.loc	2 190 20 is_stmt 1              @ ../User/Bsp/RUI_DBUS.c:190:20
	movw	r1, :lower16:RUI_F_DUBS_Resovled.Key_V_Lock
	movt	r1, :upper16:RUI_F_DUBS_Resovled.Key_V_Lock
	movs	r0, #0
	strb	r0, [r1]
	.loc	2 191 5                         @ ../User/Bsp/RUI_DBUS.c:191:5
	b	.LBB0_79
.Ltmp79:
.LBB0_79:
	.loc	2 0 5 is_stmt 0                 @ ../User/Bsp/RUI_DBUS.c:0:5
	b	.LBB0_80
.LBB0_80:
	.loc	2 193 58 is_stmt 1              @ ../User/Bsp/RUI_DBUS.c:193:58
	ldr	r1, [sp, #28]
	movs	r0, #16
	and.w	r2, r0, r1, lsr #27
	.loc	2 193 5 is_stmt 0               @ ../User/Bsp/RUI_DBUS.c:193:5
	ldr	r1, [sp, #40]
	.loc	2 193 28                        @ ../User/Bsp/RUI_DBUS.c:193:28
	ldrb.w	r0, [r1, #63]
	and	r0, r0, #15
	add	r0, r2
	strb.w	r0, [r1, #63]
.Ltmp80:
	.loc	2 194 6 is_stmt 1               @ ../User/Bsp/RUI_DBUS.c:194:6
	ldr	r0, [sp, #40]
	.loc	2 194 27 is_stmt 0              @ ../User/Bsp/RUI_DBUS.c:194:27
	ldrb.w	r1, [r0, #63]
	movs	r0, #1
	.loc	2 194 34                        @ ../User/Bsp/RUI_DBUS.c:194:34
	cmp.w	r0, r1, lsr #4
	bne	.LBB0_83
	b	.LBB0_81
.LBB0_81:
	.loc	2 194 37                        @ ../User/Bsp/RUI_DBUS.c:194:37
	movw	r0, :lower16:RUI_F_DUBS_Resovled.Key_B_Lock
	movt	r0, :upper16:RUI_F_DUBS_Resovled.Key_B_Lock
	ldrb	r0, [r0]
.Ltmp81:
	.loc	2 194 6                         @ ../User/Bsp/RUI_DBUS.c:194:6
	cbnz	r0, .LBB0_83
	b	.LBB0_82
.LBB0_82:
.Ltmp82:
	.loc	2 196 46 is_stmt 1              @ ../User/Bsp/RUI_DBUS.c:196:46
	ldr	r2, [sp, #40]
	.loc	2 196 67 is_stmt 0              @ ../User/Bsp/RUI_DBUS.c:196:67
	ldrb.w	r1, [r2, #69]
	movs	r0, #1
	.loc	2 196 45                        @ ../User/Bsp/RUI_DBUS.c:196:45
	bic.w	r3, r0, r1, lsr #3
	.loc	2 196 43                        @ ../User/Bsp/RUI_DBUS.c:196:43
	and	r1, r1, #247
	orr.w	r1, r1, r3, lsl #3
	strb.w	r1, [r2, #69]
	.loc	2 197 20 is_stmt 1              @ ../User/Bsp/RUI_DBUS.c:197:20
	movw	r1, :lower16:RUI_F_DUBS_Resovled.Key_B_Lock
	movt	r1, :upper16:RUI_F_DUBS_Resovled.Key_B_Lock
	strb	r0, [r1]
	.loc	2 198 5                         @ ../User/Bsp/RUI_DBUS.c:198:5
	b	.LBB0_87
.Ltmp83:
.LBB0_83:
	.loc	2 199 14                        @ ../User/Bsp/RUI_DBUS.c:199:14
	ldr	r0, [sp, #40]
	.loc	2 199 35 is_stmt 0              @ ../User/Bsp/RUI_DBUS.c:199:35
	ldrb.w	r1, [r0, #63]
	movs	r0, #0
	.loc	2 199 42                        @ ../User/Bsp/RUI_DBUS.c:199:42
	cmp.w	r0, r1, lsr #4
	bne	.LBB0_86
	b	.LBB0_84
.LBB0_84:
	.loc	2 199 45                        @ ../User/Bsp/RUI_DBUS.c:199:45
	movw	r0, :lower16:RUI_F_DUBS_Resovled.Key_B_Lock
	movt	r0, :upper16:RUI_F_DUBS_Resovled.Key_B_Lock
	ldrb	r0, [r0]
.Ltmp84:
	.loc	2 199 14                        @ ../User/Bsp/RUI_DBUS.c:199:14
	cmp	r0, #1
	bne	.LBB0_86
	b	.LBB0_85
.LBB0_85:
.Ltmp85:
	.loc	2 201 20 is_stmt 1              @ ../User/Bsp/RUI_DBUS.c:201:20
	movw	r1, :lower16:RUI_F_DUBS_Resovled.Key_B_Lock
	movt	r1, :upper16:RUI_F_DUBS_Resovled.Key_B_Lock
	movs	r0, #0
	strb	r0, [r1]
	.loc	2 202 5                         @ ../User/Bsp/RUI_DBUS.c:202:5
	b	.LBB0_86
.Ltmp86:
.LBB0_86:
	.loc	2 0 5 is_stmt 0                 @ ../User/Bsp/RUI_DBUS.c:0:5
	b	.LBB0_87
.LBB0_87:
	.loc	2 204 58 is_stmt 1              @ ../User/Bsp/RUI_DBUS.c:204:58
	ldrb.w	r2, [sp, #29]
	.loc	2 204 2 is_stmt 0               @ ../User/Bsp/RUI_DBUS.c:204:2
	ldr	r1, [sp, #40]
	.loc	2 204 28                        @ ../User/Bsp/RUI_DBUS.c:204:28
	ldrb.w	r0, [r1, #52]
	and	r0, r0, #15
	orr.w	r0, r0, r2, lsl #4
	strb.w	r0, [r1, #52]
.Ltmp87:
	.loc	2 205 6 is_stmt 1               @ ../User/Bsp/RUI_DBUS.c:205:6
	ldr	r0, [sp, #40]
	.loc	2 205 24 is_stmt 0              @ ../User/Bsp/RUI_DBUS.c:205:24
	ldrb.w	r1, [r0, #52]
	movs	r0, #1
	.loc	2 205 37                        @ ../User/Bsp/RUI_DBUS.c:205:37
	cmp.w	r0, r1, lsr #4
	bne	.LBB0_90
	b	.LBB0_88
.LBB0_88:
	.loc	2 205 40                        @ ../User/Bsp/RUI_DBUS.c:205:40
	movw	r0, :lower16:RUI_F_DUBS_Resovled.Mouse_L_Lock
	movt	r0, :upper16:RUI_F_DUBS_Resovled.Mouse_L_Lock
	ldrb	r0, [r0]
.Ltmp88:
	.loc	2 205 6                         @ ../User/Bsp/RUI_DBUS.c:205:6
	cbnz	r0, .LBB0_90
	b	.LBB0_89
.LBB0_89:
.Ltmp89:
	.loc	2 207 42 is_stmt 1              @ ../User/Bsp/RUI_DBUS.c:207:42
	ldr	r1, [sp, #40]
	.loc	2 207 60 is_stmt 0              @ ../User/Bsp/RUI_DBUS.c:207:60
	ldrb.w	r0, [r1, #54]
	.loc	2 207 41                        @ ../User/Bsp/RUI_DBUS.c:207:41
	clz	r0, r0
	lsrs	r0, r0, #5
	.loc	2 207 39                        @ ../User/Bsp/RUI_DBUS.c:207:39
	strb.w	r0, [r1, #54]
	.loc	2 208 22 is_stmt 1              @ ../User/Bsp/RUI_DBUS.c:208:22
	movw	r1, :lower16:RUI_F_DUBS_Resovled.Mouse_L_Lock
	movt	r1, :upper16:RUI_F_DUBS_Resovled.Mouse_L_Lock
	movs	r0, #1
	strb	r0, [r1]
	.loc	2 209 5                         @ ../User/Bsp/RUI_DBUS.c:209:5
	b	.LBB0_94
.Ltmp90:
.LBB0_90:
	.loc	2 210 14                        @ ../User/Bsp/RUI_DBUS.c:210:14
	ldr	r0, [sp, #40]
	.loc	2 210 32 is_stmt 0              @ ../User/Bsp/RUI_DBUS.c:210:32
	ldrb.w	r1, [r0, #52]
	movs	r0, #0
	.loc	2 210 45                        @ ../User/Bsp/RUI_DBUS.c:210:45
	cmp.w	r0, r1, lsr #4
	bne	.LBB0_93
	b	.LBB0_91
.LBB0_91:
	.loc	2 210 48                        @ ../User/Bsp/RUI_DBUS.c:210:48
	movw	r0, :lower16:RUI_F_DUBS_Resovled.Mouse_L_Lock
	movt	r0, :upper16:RUI_F_DUBS_Resovled.Mouse_L_Lock
	ldrb	r0, [r0]
.Ltmp91:
	.loc	2 210 14                        @ ../User/Bsp/RUI_DBUS.c:210:14
	cmp	r0, #1
	bne	.LBB0_93
	b	.LBB0_92
.LBB0_92:
.Ltmp92:
	.loc	2 212 22 is_stmt 1              @ ../User/Bsp/RUI_DBUS.c:212:22
	movw	r1, :lower16:RUI_F_DUBS_Resovled.Mouse_L_Lock
	movt	r1, :upper16:RUI_F_DUBS_Resovled.Mouse_L_Lock
	movs	r0, #0
	strb	r0, [r1]
	.loc	2 213 5                         @ ../User/Bsp/RUI_DBUS.c:213:5
	b	.LBB0_93
.Ltmp93:
.LBB0_93:
	.loc	2 0 5 is_stmt 0                 @ ../User/Bsp/RUI_DBUS.c:0:5
	b	.LBB0_94
.LBB0_94:
	.loc	2 215 58 is_stmt 1              @ ../User/Bsp/RUI_DBUS.c:215:58
	ldrb.w	r2, [sp, #28]
	.loc	2 215 2 is_stmt 0               @ ../User/Bsp/RUI_DBUS.c:215:2
	ldr	r1, [sp, #40]
	.loc	2 215 28                        @ ../User/Bsp/RUI_DBUS.c:215:28
	ldrb.w	r0, [r1, #52]
	and	r2, r2, #15
	and	r0, r0, #240
	add	r0, r2
	strb.w	r0, [r1, #52]
.Ltmp94:
	.loc	2 216 6 is_stmt 1               @ ../User/Bsp/RUI_DBUS.c:216:6
	ldr	r0, [sp, #40]
	.loc	2 216 24 is_stmt 0              @ ../User/Bsp/RUI_DBUS.c:216:24
	ldrb.w	r0, [r0, #52]
	and	r0, r0, #15
	.loc	2 216 37                        @ ../User/Bsp/RUI_DBUS.c:216:37
	cmp	r0, #1
	bne	.LBB0_97
	b	.LBB0_95
.LBB0_95:
	.loc	2 216 40                        @ ../User/Bsp/RUI_DBUS.c:216:40
	movw	r0, :lower16:RUI_F_DUBS_Resovled.Mouse_R_Lock
	movt	r0, :upper16:RUI_F_DUBS_Resovled.Mouse_R_Lock
	ldrb	r0, [r0]
.Ltmp95:
	.loc	2 216 6                         @ ../User/Bsp/RUI_DBUS.c:216:6
	cbnz	r0, .LBB0_97
	b	.LBB0_96
.LBB0_96:
.Ltmp96:
	.loc	2 218 42 is_stmt 1              @ ../User/Bsp/RUI_DBUS.c:218:42
	ldr	r1, [sp, #40]
	.loc	2 218 60 is_stmt 0              @ ../User/Bsp/RUI_DBUS.c:218:60
	ldrb.w	r0, [r1, #53]
	.loc	2 218 41                        @ ../User/Bsp/RUI_DBUS.c:218:41
	clz	r0, r0
	lsrs	r0, r0, #5
	.loc	2 218 39                        @ ../User/Bsp/RUI_DBUS.c:218:39
	strb.w	r0, [r1, #53]
	.loc	2 219 22 is_stmt 1              @ ../User/Bsp/RUI_DBUS.c:219:22
	movw	r1, :lower16:RUI_F_DUBS_Resovled.Mouse_R_Lock
	movt	r1, :upper16:RUI_F_DUBS_Resovled.Mouse_R_Lock
	movs	r0, #1
	strb	r0, [r1]
	.loc	2 220 5                         @ ../User/Bsp/RUI_DBUS.c:220:5
	b	.LBB0_101
.Ltmp97:
.LBB0_97:
	.loc	2 221 14                        @ ../User/Bsp/RUI_DBUS.c:221:14
	ldr	r0, [sp, #40]
	.loc	2 221 32 is_stmt 0              @ ../User/Bsp/RUI_DBUS.c:221:32
	ldrb.w	r0, [r0, #52]
	.loc	2 221 45                        @ ../User/Bsp/RUI_DBUS.c:221:45
	lsls	r0, r0, #28
	cbnz	r0, .LBB0_100
	b	.LBB0_98
.LBB0_98:
	.loc	2 221 48                        @ ../User/Bsp/RUI_DBUS.c:221:48
	movw	r0, :lower16:RUI_F_DUBS_Resovled.Mouse_R_Lock
	movt	r0, :upper16:RUI_F_DUBS_Resovled.Mouse_R_Lock
	ldrb	r0, [r0]
.Ltmp98:
	.loc	2 221 14                        @ ../User/Bsp/RUI_DBUS.c:221:14
	cmp	r0, #1
	bne	.LBB0_100
	b	.LBB0_99
.LBB0_99:
.Ltmp99:
	.loc	2 223 22 is_stmt 1              @ ../User/Bsp/RUI_DBUS.c:223:22
	movw	r1, :lower16:RUI_F_DUBS_Resovled.Mouse_R_Lock
	movt	r1, :upper16:RUI_F_DUBS_Resovled.Mouse_R_Lock
	movs	r0, #0
	strb	r0, [r1]
	.loc	2 224 5                         @ ../User/Bsp/RUI_DBUS.c:224:5
	b	.LBB0_100
.Ltmp100:
.LBB0_100:
	.loc	2 0 5 is_stmt 0                 @ ../User/Bsp/RUI_DBUS.c:0:5
	b	.LBB0_101
.LBB0_101:
	.loc	2 225 1 is_stmt 1               @ ../User/Bsp/RUI_DBUS.c:225:1
	add	sp, #48
	pop	{r7, pc}
.Ltmp101:
@ %bb.102:
.Lfunc_end0:
	.size	RUI_F_DUBS_Resovled, .Lfunc_end0-RUI_F_DUBS_Resovled
	.cfi_endproc
	.cantunwind
	.fnend
                                        @ -- End function
	.section	.text.RUI_F_KEY_STATUS,"ax",%progbits
	.hidden	RUI_F_KEY_STATUS                @ -- Begin function RUI_F_KEY_STATUS
	.globl	RUI_F_KEY_STATUS
	.p2align	2
	.type	RUI_F_KEY_STATUS,%function
	.code	16                              @ @RUI_F_KEY_STATUS
	.thumb_func
RUI_F_KEY_STATUS:
.Lfunc_begin1:
	.loc	2 260 0                         @ ../User/Bsp/RUI_DBUS.c:260:0
	.fnstart
	.cfi_startproc
@ %bb.0:
	.pad	#24
	sub	sp, #24
	.cfi_def_cfa_offset 24
                                        @ kill: def $r3 killed $r1
                                        @ kill: def $r3 killed $r0
                                        @ kill: def $r3 killed $r2
	str	r1, [sp, #12]
	str	r0, [sp, #8]
	strb.w	r2, [sp, #7]
.Ltmp102:
	.loc	2 261 9 prologue_end            @ ../User/Bsp/RUI_DBUS.c:261:9
	ldr	r0, [sp, #8]
	ldr	r1, [sp, #12]
	.loc	2 261 13 is_stmt 0              @ ../User/Bsp/RUI_DBUS.c:261:13
	eor	r0, r0, #1
	orrs	r0, r1
.Ltmp103:
	.loc	2 261 9                         @ ../User/Bsp/RUI_DBUS.c:261:9
	cbnz	r0, .LBB1_4
	b	.LBB1_1
.LBB1_1:
.Ltmp104:
	.loc	2 263 13 is_stmt 1              @ ../User/Bsp/RUI_DBUS.c:263:13
	ldrb.w	r0, [sp, #7]
.Ltmp105:
	.loc	2 263 13 is_stmt 0              @ ../User/Bsp/RUI_DBUS.c:263:13
	cmp	r0, #20
	bgt	.LBB1_3
	b	.LBB1_2
.LBB1_2:
.Ltmp106:
	.loc	2 265 23 is_stmt 1              @ ../User/Bsp/RUI_DBUS.c:265:23
	ldrb.w	r0, [sp, #7]
	adds	r0, #1
	strb.w	r0, [sp, #7]
	movs	r0, #1
	.loc	2 266 13                        @ ../User/Bsp/RUI_DBUS.c:266:13
	strb.w	r0, [sp, #23]
	b	.LBB1_5
.Ltmp107:
.LBB1_3:
	.loc	2 0 13 is_stmt 0                @ ../User/Bsp/RUI_DBUS.c:0:13
	movs	r0, #2
.Ltmp108:
	.loc	2 270 13 is_stmt 1              @ ../User/Bsp/RUI_DBUS.c:270:13
	strb.w	r0, [sp, #23]
	b	.LBB1_5
.Ltmp109:
.LBB1_4:
	.loc	2 0 13 is_stmt 0                @ ../User/Bsp/RUI_DBUS.c:0:13
	movs	r0, #0
.Ltmp110:
	.loc	2 275 20 is_stmt 1              @ ../User/Bsp/RUI_DBUS.c:275:20
	strb.w	r0, [sp, #7]
	.loc	2 276 9                         @ ../User/Bsp/RUI_DBUS.c:276:9
	strb.w	r0, [sp, #23]
	b	.LBB1_5
.Ltmp111:
.LBB1_5:
	.loc	2 279 1                         @ ../User/Bsp/RUI_DBUS.c:279:1
	ldrb.w	r0, [sp, #23]
	add	sp, #24
	bx	lr
.Ltmp112:
.Lfunc_end1:
	.size	RUI_F_KEY_STATUS, .Lfunc_end1-RUI_F_KEY_STATUS
	.cfi_endproc
	.cantunwind
	.fnend
                                        @ -- End function
	.section	.text.OneFilter,"ax",%progbits
	.hidden	OneFilter                       @ -- Begin function OneFilter
	.globl	OneFilter
	.p2align	2
	.type	OneFilter,%function
	.code	16                              @ @OneFilter
	.thumb_func
OneFilter:
.Lfunc_begin2:
	.loc	2 237 0                         @ ../User/Bsp/RUI_DBUS.c:237:0
	.fnstart
	.cfi_startproc
@ %bb.0:
	.save	{r7, lr}
	push	{r7, lr}
	.cfi_def_cfa_offset 8
	.cfi_offset lr, -4
	.cfi_offset r7, -8
	.pad	#32
	sub	sp, #32
	.cfi_def_cfa_offset 40
	vstr	s0, [sp, #24]
	vstr	s1, [sp, #20]
	vstr	s2, [sp, #16]
	movw	r0, #52429
	movt	r0, #16204
.Ltmp113:
	.loc	2 240 17 prologue_end           @ ../User/Bsp/RUI_DBUS.c:240:17
	str	r0, [sp, #12]
	movw	r0, #52429
	movt	r0, #15948
	.loc	2 241 17                        @ ../User/Bsp/RUI_DBUS.c:241:17
	str	r0, [sp, #8]
.Ltmp114:
	.loc	2 243 51                        @ ../User/Bsp/RUI_DBUS.c:243:51
	vldr	s0, [sp, #24]
	.loc	2 243 30 is_stmt 0              @ ../User/Bsp/RUI_DBUS.c:243:30
	bl	RUI_F_MATH_ABS_float
	vstr	s0, [sp, #4]                    @ 4-byte Spill
	.loc	2 243 80                        @ ../User/Bsp/RUI_DBUS.c:243:80
	vldr	s0, [sp, #20]
	.loc	2 243 59                        @ ../User/Bsp/RUI_DBUS.c:243:59
	bl	RUI_F_MATH_ABS_float
	vmov.f32	s2, s0
	.loc	2 243 57                        @ ../User/Bsp/RUI_DBUS.c:243:57
	vldr	s0, [sp, #4]                    @ 4-byte Reload
	vsub.f32	s0, s0, s2
	.loc	2 243 9                         @ ../User/Bsp/RUI_DBUS.c:243:9
	bl	RUI_F_MATH_ABS_float
	.loc	2 243 89                        @ ../User/Bsp/RUI_DBUS.c:243:89
	vldr	s2, [sp, #16]
.Ltmp115:
	.loc	2 243 9                         @ ../User/Bsp/RUI_DBUS.c:243:9
	vcmp.f32	s0, s2
	vmrs	APSR_nzcv, fpscr
	blt	.LBB2_2
	b	.LBB2_1
.LBB2_1:
.Ltmp116:
	.loc	2 245 25 is_stmt 1              @ ../User/Bsp/RUI_DBUS.c:245:25
	vldr	s0, [sp, #20]
	.loc	2 245 49 is_stmt 0              @ ../User/Bsp/RUI_DBUS.c:245:49
	vldr	s2, [sp, #24]
	vldr	s4, .LCPI2_2
	.loc	2 245 54                        @ ../User/Bsp/RUI_DBUS.c:245:54
	vmul.f32	s2, s2, s4
	vldr	s4, .LCPI2_0
	.loc	2 245 47                        @ ../User/Bsp/RUI_DBUS.c:245:47
	vmul.f32	s0, s0, s4
	vadd.f32	s0, s0, s2
	.loc	2 245 9                         @ ../User/Bsp/RUI_DBUS.c:245:9
	vstr	s0, [sp, #28]
	b	.LBB2_3
.Ltmp117:
.LBB2_2:
	.loc	2 249 25 is_stmt 1              @ ../User/Bsp/RUI_DBUS.c:249:25
	vldr	s0, [sp, #20]
	.loc	2 249 44 is_stmt 0              @ ../User/Bsp/RUI_DBUS.c:249:44
	vldr	s2, [sp, #24]
	vldr	s4, .LCPI2_0
	.loc	2 249 49                        @ ../User/Bsp/RUI_DBUS.c:249:49
	vmul.f32	s2, s2, s4
	vldr	s4, .LCPI2_1
	.loc	2 249 42                        @ ../User/Bsp/RUI_DBUS.c:249:42
	vmul.f32	s0, s0, s4
	vadd.f32	s0, s0, s2
	.loc	2 249 9                         @ ../User/Bsp/RUI_DBUS.c:249:9
	vstr	s0, [sp, #28]
	b	.LBB2_3
.Ltmp118:
.LBB2_3:
	.loc	2 251 1 is_stmt 1               @ ../User/Bsp/RUI_DBUS.c:251:1
	vldr	s0, [sp, #28]
	add	sp, #32
	pop	{r7, pc}
.Ltmp119:
	.p2align	2
@ %bb.4:
	.loc	2 0 1 is_stmt 0                 @ ../User/Bsp/RUI_DBUS.c:0:1
.LCPI2_0:
	.long	0x3f4ccccd                      @ float 0.800000011
.LCPI2_1:
	.long	0x3e4ccccd                      @ float 0.200000003
.LCPI2_2:
	.long	0x3e4ccccc                      @ float 0.199999988
.Lfunc_end2:
	.size	OneFilter, .Lfunc_end2-OneFilter
	.cfi_endproc
	.cantunwind
	.fnend
                                        @ -- End function
	.type	.L__const.RUI_F_DUBS_Resovled.RUI_V_DBUS_UNION,%object @ @__const.RUI_F_DUBS_Resovled.RUI_V_DBUS_UNION
	.section	.rodata..L__const.RUI_F_DUBS_Resovled.RUI_V_DBUS_UNION,"a",%progbits
	.p2align	3
.L__const.RUI_F_DUBS_Resovled.RUI_V_DBUS_UNION:
	.byte	0                               @ 0x0
	.byte	0                               @ 0x0
	.byte	0                               @ 0x0
	.byte	0                               @ 0x0
	.byte	0                               @ 0x0
	.byte	0                               @ 0x0
	.byte	0                               @ 0x0
	.byte	0                               @ 0x0
	.byte	0                               @ 0x0
	.byte	0                               @ 0x0
	.byte	0                               @ 0x0
	.byte	0                               @ 0x0
	.byte	0                               @ 0x0
	.byte	0                               @ 0x0
	.byte	0                               @ 0x0
	.byte	0                               @ 0x0
	.byte	0                               @ 0x0
	.byte	0                               @ 0x0
	.zero	6
	.size	.L__const.RUI_F_DUBS_Resovled.RUI_V_DBUS_UNION, 24

	.type	RUI_F_DUBS_Resovled.Key_Q_Lock,%object @ @RUI_F_DUBS_Resovled.Key_Q_Lock
	.section	.bss.RUI_F_DUBS_Resovled.Key_Q_Lock,"aw",%nobits
RUI_F_DUBS_Resovled.Key_Q_Lock:
	.byte	0                               @ 0x0
	.size	RUI_F_DUBS_Resovled.Key_Q_Lock, 1

	.type	RUI_F_DUBS_Resovled.Key_E_Lock,%object @ @RUI_F_DUBS_Resovled.Key_E_Lock
	.section	.bss.RUI_F_DUBS_Resovled.Key_E_Lock,"aw",%nobits
RUI_F_DUBS_Resovled.Key_E_Lock:
	.byte	0                               @ 0x0
	.size	RUI_F_DUBS_Resovled.Key_E_Lock, 1

	.type	RUI_F_DUBS_Resovled.Key_R_Lock,%object @ @RUI_F_DUBS_Resovled.Key_R_Lock
	.section	.bss.RUI_F_DUBS_Resovled.Key_R_Lock,"aw",%nobits
RUI_F_DUBS_Resovled.Key_R_Lock:
	.byte	0                               @ 0x0
	.size	RUI_F_DUBS_Resovled.Key_R_Lock, 1

	.type	RUI_F_DUBS_Resovled.Key_F_Lock,%object @ @RUI_F_DUBS_Resovled.Key_F_Lock
	.section	.bss.RUI_F_DUBS_Resovled.Key_F_Lock,"aw",%nobits
RUI_F_DUBS_Resovled.Key_F_Lock:
	.byte	0                               @ 0x0
	.size	RUI_F_DUBS_Resovled.Key_F_Lock, 1

	.type	RUI_F_DUBS_Resovled.Key_G_Lock,%object @ @RUI_F_DUBS_Resovled.Key_G_Lock
	.section	.bss.RUI_F_DUBS_Resovled.Key_G_Lock,"aw",%nobits
RUI_F_DUBS_Resovled.Key_G_Lock:
	.byte	0                               @ 0x0
	.size	RUI_F_DUBS_Resovled.Key_G_Lock, 1

	.type	RUI_F_DUBS_Resovled.Key_Z_Lock,%object @ @RUI_F_DUBS_Resovled.Key_Z_Lock
	.section	.bss.RUI_F_DUBS_Resovled.Key_Z_Lock,"aw",%nobits
RUI_F_DUBS_Resovled.Key_Z_Lock:
	.byte	0                               @ 0x0
	.size	RUI_F_DUBS_Resovled.Key_Z_Lock, 1

	.type	RUI_F_DUBS_Resovled.Key_X_Lock,%object @ @RUI_F_DUBS_Resovled.Key_X_Lock
	.section	.bss.RUI_F_DUBS_Resovled.Key_X_Lock,"aw",%nobits
RUI_F_DUBS_Resovled.Key_X_Lock:
	.byte	0                               @ 0x0
	.size	RUI_F_DUBS_Resovled.Key_X_Lock, 1

	.type	RUI_F_DUBS_Resovled.Key_C_Lock,%object @ @RUI_F_DUBS_Resovled.Key_C_Lock
	.section	.bss.RUI_F_DUBS_Resovled.Key_C_Lock,"aw",%nobits
RUI_F_DUBS_Resovled.Key_C_Lock:
	.byte	0                               @ 0x0
	.size	RUI_F_DUBS_Resovled.Key_C_Lock, 1

	.type	RUI_F_DUBS_Resovled.Key_V_Lock,%object @ @RUI_F_DUBS_Resovled.Key_V_Lock
	.section	.bss.RUI_F_DUBS_Resovled.Key_V_Lock,"aw",%nobits
RUI_F_DUBS_Resovled.Key_V_Lock:
	.byte	0                               @ 0x0
	.size	RUI_F_DUBS_Resovled.Key_V_Lock, 1

	.type	RUI_F_DUBS_Resovled.Key_B_Lock,%object @ @RUI_F_DUBS_Resovled.Key_B_Lock
	.section	.bss.RUI_F_DUBS_Resovled.Key_B_Lock,"aw",%nobits
RUI_F_DUBS_Resovled.Key_B_Lock:
	.byte	0                               @ 0x0
	.size	RUI_F_DUBS_Resovled.Key_B_Lock, 1

	.type	RUI_F_DUBS_Resovled.Key_Shift_Lock,%object @ @RUI_F_DUBS_Resovled.Key_Shift_Lock
	.section	.bss.RUI_F_DUBS_Resovled.Key_Shift_Lock,"aw",%nobits
RUI_F_DUBS_Resovled.Key_Shift_Lock:
	.byte	0                               @ 0x0
	.size	RUI_F_DUBS_Resovled.Key_Shift_Lock, 1

	.type	RUI_F_DUBS_Resovled.Key_Ctrl_Lock,%object @ @RUI_F_DUBS_Resovled.Key_Ctrl_Lock
	.section	.bss.RUI_F_DUBS_Resovled.Key_Ctrl_Lock,"aw",%nobits
RUI_F_DUBS_Resovled.Key_Ctrl_Lock:
	.byte	0                               @ 0x0
	.size	RUI_F_DUBS_Resovled.Key_Ctrl_Lock, 1

	.type	RUI_F_DUBS_Resovled.Mouse_R_Lock,%object @ @RUI_F_DUBS_Resovled.Mouse_R_Lock
	.section	.bss.RUI_F_DUBS_Resovled.Mouse_R_Lock,"aw",%nobits
RUI_F_DUBS_Resovled.Mouse_R_Lock:
	.byte	0                               @ 0x0
	.size	RUI_F_DUBS_Resovled.Mouse_R_Lock, 1

	.type	RUI_F_DUBS_Resovled.Mouse_L_Lock,%object @ @RUI_F_DUBS_Resovled.Mouse_L_Lock
	.section	.bss.RUI_F_DUBS_Resovled.Mouse_L_Lock,"aw",%nobits
RUI_F_DUBS_Resovled.Mouse_L_Lock:
	.byte	0                               @ 0x0
	.size	RUI_F_DUBS_Resovled.Mouse_L_Lock, 1

	.file	3 "D:\\horizon\\Horizon_Infantry (2)\\MDK-ARM" "../User/Bsp/inc\\RUI_DBUS.h"
	.section	".note.GNU-stack","",%progbits
	.eabi_attribute	30, 6	@ Tag_ABI_optimization_goals
	.ARM_attribute	16, 1	@ Tag_AV_eba