	.text
	.syntax unified
	.eabi_attribute	67, "2.09"	@ Tag_conformance
	.cpu	cortex-m4
	.eabi_attribute	6, 13	@ Tag_CPU_arch
	.eabi_attribute	7, 77	@ Tag_CPU_arch_profile
	.eabi_attribute	8, 0	@ Tag_ARM_ISA_use
	.eabi_attribute	9, 2	@ Tag_THUMB_ISA_use
	.fpu	fpv4-sp-d16
	.eabi_attribute	27, 1	@ Tag_ABI_HardFP_use
	.eabi_attribute	36, 1	@ Tag_FP_HP_extension
	.eabi_attribute	34, 1	@ Tag_CPU_unaligned_access
	.eabi_attribute	17, 1	@ Tag_ABI_PCS_GOT_use
	.eabi_attribute	20, 2	@ Tag_ABI_FP_denormal
	.eabi_attribute	21, 0	@ Tag_ABI_FP_exceptions
	.eabi_attribute	23, 3	@ Tag_ABI_FP_number_model
	.eabi_attribute	24, 1	@ Tag_ABI_align_needed
	.eabi_attribute	25, 1	@ Tag_ABI_align_preserved
	.eabi_attribute	28, 1	@ Tag_ABI_VFP_args
	.eabi_attribute	38, 1	@ Tag_ABI_FP_16bit_format
	.eabi_attribute	18, 2	@ Tag_ABI_PCS_wchar_t
	.eabi_attribute	26, 1	@ Tag_ABI_enum_size
	.eabi_attribute	14, 0	@ Tag_ABI_PCS_R9_use
	.file	"Shoot_Task.c"
	.file	1 "D:\\" "kevil\\ARM\\ARMCLANG\\Bin\\..\\include\\stdint.h"
	.file	2 "D:\\horizon\\Horizon_Infantry (2)\\MDK-ARM" "../User/App/Shoot_Task.c"
	.file	3 "D:\\horizon\\Horizon_Infantry (2)\\MDK-ARM" "../User/Algorithm/inc\\controller.h"
	.section	.text.kadanchack,"ax",%progbits
	.hidden	kadanchack                      @ -- Begin function kadanchack
	.globl	kadanchack
	.p2align	2
	.type	kadanchack,%function
	.code	16                              @ @kadanchack
	.thumb_func
kadanchack:
.Lfunc_begin0:
	.loc	2 18 0                          @ ../User/App/Shoot_Task.c:18:0
	.fnstart
	.cfi_sections .debug_frame
	.cfi_startproc
@ %bb.0:
	.pad	#4
	sub	sp, #4
	.cfi_def_cfa_offset 4
	movs	r0, #0
.Ltmp0:
	.loc	2 19 10 prologue_end            @ ../User/App/Shoot_Task.c:19:10
	strb.w	r0, [sp, #3]
.Ltmp1:
	.loc	2 20 25                         @ ../User/App/Shoot_Task.c:20:25
	movw	r0, :lower16:WHW_V_DBUS
	movt	r0, :upper16:WHW_V_DBUS
	ldrb	r0, [r0, #12]
	.loc	2 20 33 is_stmt 0               @ ../User/App/Shoot_Task.c:20:33
	cmp	r0, #1
	beq	.LBB0_2
	b	.LBB0_1
.LBB0_1:
	.loc	2 20 51                         @ ../User/App/Shoot_Task.c:20:51
	movw	r0, :lower16:VT13_DBUS
	movt	r0, :upper16:VT13_DBUS
	ldrb.w	r1, [r0, #52]
	movs	r0, #2
.Ltmp2:
	.loc	2 20 7                          @ ../User/App/Shoot_Task.c:20:7
	cmp.w	r0, r1, lsr #4
	bne	.LBB0_14
	b	.LBB0_2
.LBB0_2:
.Ltmp3:
	.loc	2 22 38 is_stmt 1               @ ../User/App/Shoot_Task.c:22:38
	movw	r0, :lower16:ALL_MOTOR
	movt	r0, :upper16:ALL_MOTOR
	ldrsh.w	r0, [r0, #2384]
.Ltmp4:
	.loc	2 22 6 is_stmt 0                @ ../User/App/Shoot_Task.c:22:6
	cmn.w	r0, #1000
	bge	.LBB0_4
	b	.LBB0_3
.LBB0_3:
.Ltmp5:
	.loc	2 23 10 is_stmt 1               @ ../User/App/Shoot_Task.c:23:10
	movw	r1, :lower16:time
	movt	r1, :upper16:time
	movs	r0, #0
	strh	r0, [r1]
	.loc	2 23 13 is_stmt 0               @ ../User/App/Shoot_Task.c:23:13
	b	.LBB0_4
.Ltmp6:
.LBB0_4:
	.loc	2 24 41 is_stmt 1               @ ../User/App/Shoot_Task.c:24:41
	movw	r0, :lower16:ALL_MOTOR
	movt	r0, :upper16:ALL_MOTOR
	ldrsh.w	r0, [r0, #2384]
	.loc	2 24 54 is_stmt 0               @ ../User/App/Shoot_Task.c:24:54
	cmp	r0, #99
	bgt	.LBB0_11
	b	.LBB0_5
.LBB0_5:
	.loc	2 24 88                         @ ../User/App/Shoot_Task.c:24:88
	movw	r0, :lower16:ALL_MOTOR
	movt	r0, :upper16:ALL_MOTOR
	ldrsh.w	r0, [r0, #2384]
.Ltmp7:
	.loc	2 24 9                          @ ../User/App/Shoot_Task.c:24:9
	cmn.w	r0, #99
	blt	.LBB0_11
	b	.LBB0_6
.LBB0_6:
.Ltmp8:
	.loc	2 26 11 is_stmt 1               @ ../User/App/Shoot_Task.c:26:11
	movw	r0, :lower16:time
	movt	r0, :upper16:time
	ldrh	r1, [r0]
	adds	r1, #1
	strh	r1, [r0]
.Ltmp9:
	.loc	2 27 10                         @ ../User/App/Shoot_Task.c:27:10
	ldrh	r0, [r0]
.Ltmp10:
	.loc	2 27 10 is_stmt 0               @ ../User/App/Shoot_Task.c:27:10
	cmp.w	r0, #1200
	blt	.LBB0_8
	b	.LBB0_7
.LBB0_7:
.Ltmp11:
	.loc	2 28 12 is_stmt 1               @ ../User/App/Shoot_Task.c:28:12
	movw	r1, :lower16:time
	movt	r1, :upper16:time
	movs	r0, #0
	strh	r0, [r1]
	.loc	2 28 15 is_stmt 0               @ ../User/App/Shoot_Task.c:28:15
	b	.LBB0_8
.Ltmp12:
.LBB0_8:
	.loc	2 29 10 is_stmt 1               @ ../User/App/Shoot_Task.c:29:10
	movw	r0, :lower16:time
	movt	r0, :upper16:time
	ldrh	r0, [r0]
.Ltmp13:
	.loc	2 29 10 is_stmt 0               @ ../User/App/Shoot_Task.c:29:10
	cmp.w	r0, #1000
	ble	.LBB0_10
	b	.LBB0_9
.LBB0_9:
.Ltmp14:
	.loc	2 31 13 is_stmt 1               @ ../User/App/Shoot_Task.c:31:13
	movw	r1, :lower16:kadan
	movt	r1, :upper16:kadan
	movs	r0, #1
	strh	r0, [r1]
	.loc	2 32 7                          @ ../User/App/Shoot_Task.c:32:7
	b	.LBB0_10
.Ltmp15:
.LBB0_10:
	.loc	2 33 7                          @ ../User/App/Shoot_Task.c:33:7
	b	.LBB0_11
.Ltmp16:
.LBB0_11:
	.loc	2 34 10                         @ ../User/App/Shoot_Task.c:34:10
	movw	r0, :lower16:time
	movt	r0, :upper16:time
	ldrh	r0, [r0]
.Ltmp17:
	.loc	2 34 10 is_stmt 0               @ ../User/App/Shoot_Task.c:34:10
	cmp.w	r0, #1000
	bgt	.LBB0_13
	b	.LBB0_12
.LBB0_12:
.Ltmp18:
	.loc	2 36 13 is_stmt 1               @ ../User/App/Shoot_Task.c:36:13
	movw	r1, :lower16:kadan
	movt	r1, :upper16:kadan
	movs	r0, #0
	strh	r0, [r1]
	.loc	2 37 7                          @ ../User/App/Shoot_Task.c:37:7
	b	.LBB0_13
.Ltmp19:
.LBB0_13:
	.loc	2 38 5                          @ ../User/App/Shoot_Task.c:38:5
	b	.LBB0_14
.Ltmp20:
.LBB0_14:
	.loc	2 58 1                          @ ../User/App/Shoot_Task.c:58:1
	add	sp, #4
	bx	lr
.Ltmp21:
.Lfunc_end0:
	.size	kadanchack, .Lfunc_end0-kadanchack
	.cfi_endproc
	.cantunwind
	.fnend
                                        @ -- End function
	.section	.text.MOTOR_PID_Shoot_INIT,"ax",%progbits
	.hidden	MOTOR_PID_Shoot_INIT            @ -- Begin function MOTOR_PID_Shoot_INIT
	.globl	MOTOR_PID_Shoot_INIT
	.p2align	2
	.type	MOTOR_PID_Shoot_INIT,%function
	.code	16                              @ @MOTOR_PID_Shoot_INIT
	.thumb_func
MOTOR_PID_Shoot_INIT:
.Lfunc_begin1:
	.loc	2 62 0                          @ ../User/App/Shoot_Task.c:62:0
	.fnstart
	.cfi_startproc
@ %bb.0:
	.save	{r7, lr}
	push	{r7, lr}
	.cfi_def_cfa_offset 8
	.cfi_offset lr, -4
	.cfi_offset r7, -8
	.pad	#160
	sub	sp, #160
	.cfi_def_cfa_offset 168
	str	r0, [sp, #156]
	movs	r0, #0
.Ltmp22:
	.loc	2 64 11 prologue_end            @ ../User/App/Shoot_Task.c:64:11
	str	r0, [sp, #40]                   @ 4-byte Spill
	str	r0, [sp, #152]
	str	r0, [sp, #148]
	str	r0, [sp, #144]
	.loc	2 65 9                          @ ../User/App/Shoot_Task.c:65:9
	str	r0, [sp, #140]
	str	r0, [sp, #136]
	str	r0, [sp, #132]
	.loc	2 66 11                         @ ../User/App/Shoot_Task.c:66:11
	movw	r2, :lower16:.L__const.MOTOR_PID_Shoot_INIT.PID_S_L
	movt	r2, :upper16:.L__const.MOTOR_PID_Shoot_INIT.PID_S_L
	ldr	r0, [r2]
	ldr	r1, [r2, #4]
	ldr	r2, [r2, #8]
	str	r2, [sp, #128]
	str	r1, [sp, #124]
	str	r0, [sp, #120]
	.loc	2 67 23                         @ ../User/App/Shoot_Task.c:67:23
	ldr	r0, [sp, #156]
	.loc	2 67 47 is_stmt 0               @ ../User/App/Shoot_Task.c:67:47
	add.w	r0, r0, #1320
	vldr	s0, .LCPI1_0
	vstr	s0, [sp, #4]                    @ 4-byte Spill
	add	r1, sp, #144
	vmov.f32	s1, #5.000000e-01
	vstr	s1, [sp, #8]                    @ 4-byte Spill
	movs	r3, #2
	.loc	2 67 5                          @ ../User/App/Shoot_Task.c:67:5
	str	r3, [sp, #24]                   @ 4-byte Spill
	mov	r2, r3
	bl	Feedforward_Init
	ldr	r2, [sp, #24]                   @ 4-byte Reload
	.loc	2 69 13 is_stmt 1               @ ../User/App/Shoot_Task.c:69:13
	ldr	r0, [sp, #156]
	.loc	2 69 37 is_stmt 0               @ ../User/App/Shoot_Task.c:69:37
	add.w	r0, r0, #1464
	vldr	s0, .LCPI1_1
	vldr	s1, .LCPI1_2
	vstr	s1, [sp, #32]                   @ 4-byte Spill
	add	r1, sp, #132
	vldr	s3, .LCPI1_3
	vstr	s3, [sp, #36]                   @ 4-byte Spill
	vldr	s4, .LCPI1_4
	vstr	s4, [sp, #16]                   @ 4-byte Spill
	vldr	s5, .LCPI1_5
	vstr	s5, [sp, #20]                   @ 4-byte Spill
	movs	r3, #145
	.loc	2 69 3                          @ ../User/App/Shoot_Task.c:69:3
	str	r3, [sp, #28]                   @ 4-byte Spill
	vmov.f32	s2, s3
	bl	PID_Init
	vldr	s5, [sp, #16]                   @ 4-byte Reload
	ldr	r2, [sp, #24]                   @ 4-byte Reload
	vldr	s1, [sp, #32]                   @ 4-byte Reload
	vldr	s3, [sp, #36]                   @ 4-byte Reload
	.loc	2 74 15 is_stmt 1               @ ../User/App/Shoot_Task.c:74:15
	ldr	r0, [sp, #156]
	.loc	2 74 39 is_stmt 0               @ ../User/App/Shoot_Task.c:74:39
	addw	r0, r0, #1634
	vldr	s0, .LCPI1_6
	vstr	s0, [sp, #12]                   @ 4-byte Spill
	add	r1, sp, #120
	movs	r3, #183
	.loc	2 74 5                          @ ../User/App/Shoot_Task.c:74:5
	str	r3, [sp, #44]                   @ 4-byte Spill
	vmov.f32	s2, s3
	vmov.f32	s4, s5
	bl	PID_Init
	vldr	s0, [sp, #4]                    @ 4-byte Reload
	vldr	s1, [sp, #8]                    @ 4-byte Reload
	ldr	r3, [sp, #24]                   @ 4-byte Reload
	ldr	r0, [sp, #40]                   @ 4-byte Reload
	.loc	2 81 11 is_stmt 1               @ ../User/App/Shoot_Task.c:81:11
	str	r0, [sp, #116]
	str	r0, [sp, #112]
	str	r0, [sp, #108]
	.loc	2 82 9                          @ ../User/App/Shoot_Task.c:82:9
	str	r0, [sp, #104]
	str	r0, [sp, #100]
	str	r0, [sp, #96]
	.loc	2 83 11                         @ ../User/App/Shoot_Task.c:83:11
	movw	r2, :lower16:.L__const.MOTOR_PID_Shoot_INIT.PID_S_R
	movt	r2, :upper16:.L__const.MOTOR_PID_Shoot_INIT.PID_S_R
	ldr	r0, [r2]
	ldr	r1, [r2, #4]
	ldr	r2, [r2, #8]
	str	r2, [sp, #92]
	str	r1, [sp, #88]
	str	r0, [sp, #84]
	.loc	2 84 23                         @ ../User/App/Shoot_Task.c:84:23
	ldr	r0, [sp, #156]
	.loc	2 84 47 is_stmt 0               @ ../User/App/Shoot_Task.c:84:47
	add.w	r0, r0, #1880
	add	r1, sp, #108
	.loc	2 84 5                          @ ../User/App/Shoot_Task.c:84:5
	mov	r2, r3
	bl	Feedforward_Init
	vldr	s0, [sp, #12]                   @ 4-byte Reload
	vldr	s4, [sp, #16]                   @ 4-byte Reload
	vldr	s5, [sp, #20]                   @ 4-byte Reload
	ldr	r2, [sp, #24]                   @ 4-byte Reload
	ldr	r3, [sp, #28]                   @ 4-byte Reload
	vldr	s1, [sp, #32]                   @ 4-byte Reload
	vldr	s3, [sp, #36]                   @ 4-byte Reload
	.loc	2 86 13 is_stmt 1               @ ../User/App/Shoot_Task.c:86:13
	ldr	r0, [sp, #156]
	.loc	2 86 37 is_stmt 0               @ ../User/App/Shoot_Task.c:86:37
	add.w	r0, r0, #2024
	add	r1, sp, #96
	.loc	2 86 3                          @ ../User/App/Shoot_Task.c:86:3
	vmov.f32	s2, s3
	bl	PID_Init
	vldr	s0, [sp, #12]                   @ 4-byte Reload
	vldr	s5, [sp, #16]                   @ 4-byte Reload
	ldr	r2, [sp, #24]                   @ 4-byte Reload
	vldr	s1, [sp, #32]                   @ 4-byte Reload
	vldr	s3, [sp, #36]                   @ 4-byte Reload
	ldr	r3, [sp, #44]                   @ 4-byte Reload
	.loc	2 91 15 is_stmt 1               @ ../User/App/Shoot_Task.c:91:15
	ldr	r0, [sp, #156]
	.loc	2 91 39 is_stmt 0               @ ../User/App/Shoot_Task.c:91:39
	addw	r0, r0, #2194
	add	r1, sp, #84
	.loc	2 91 5                          @ ../User/App/Shoot_Task.c:91:5
	vmov.f32	s2, s3
	vmov.f32	s4, s5
	bl	PID_Init
	vldr	s0, [sp, #4]                    @ 4-byte Reload
	vldr	s1, [sp, #8]                    @ 4-byte Reload
	ldr	r3, [sp, #24]                   @ 4-byte Reload
	ldr	r0, [sp, #40]                   @ 4-byte Reload
	.loc	2 98 11 is_stmt 1               @ ../User/App/Shoot_Task.c:98:11
	str	r0, [sp, #80]
	str	r0, [sp, #76]
	str	r0, [sp, #72]
	.loc	2 99 11                         @ ../User/App/Shoot_Task.c:99:11
	movw	r2, :lower16:.L__const.MOTOR_PID_Shoot_INIT.PID_P_M
	movt	r2, :upper16:.L__const.MOTOR_PID_Shoot_INIT.PID_P_M
	ldr	r0, [r2]
	ldr	r1, [r2, #4]
	ldr	r2, [r2, #8]
	str	r2, [sp, #68]
	str	r1, [sp, #64]
	str	r0, [sp, #60]
	.loc	2 100 11                        @ ../User/App/Shoot_Task.c:100:11
	movw	r2, :lower16:.L__const.MOTOR_PID_Shoot_INIT.PID_S_M
	movt	r2, :upper16:.L__const.MOTOR_PID_Shoot_INIT.PID_S_M
	ldr	r0, [r2]
	ldr	r1, [r2, #4]
	ldr	r2, [r2, #8]
	str	r2, [sp, #56]
	str	r1, [sp, #52]
	str	r0, [sp, #48]
	.loc	2 101 23                        @ ../User/App/Shoot_Task.c:101:23
	ldr	r0, [sp, #156]
	.loc	2 101 47 is_stmt 0              @ ../User/App/Shoot_Task.c:101:47
	addw	r0, r0, #2440
	add	r1, sp, #72
	.loc	2 101 5                         @ ../User/App/Shoot_Task.c:101:5
	mov	r2, r3
	bl	Feedforward_Init
	vldr	s0, [sp, #12]                   @ 4-byte Reload
	vldr	s4, [sp, #16]                   @ 4-byte Reload
	vldr	s5, [sp, #20]                   @ 4-byte Reload
	ldr	r2, [sp, #24]                   @ 4-byte Reload
	ldr	r3, [sp, #28]                   @ 4-byte Reload
	vldr	s1, [sp, #32]                   @ 4-byte Reload
	vldr	s3, [sp, #36]                   @ 4-byte Reload
	.loc	2 103 15 is_stmt 1              @ ../User/App/Shoot_Task.c:103:15
	ldr	r0, [sp, #156]
	.loc	2 103 39 is_stmt 0              @ ../User/App/Shoot_Task.c:103:39
	addw	r0, r0, #2584
	add	r1, sp, #60
	.loc	2 103 5                         @ ../User/App/Shoot_Task.c:103:5
	vmov.f32	s2, s3
	bl	PID_Init
	vldr	s1, [sp, #32]                   @ 4-byte Reload
	vldr	s3, [sp, #36]                   @ 4-byte Reload
	ldr	r2, [sp, #40]                   @ 4-byte Reload
	ldr	r3, [sp, #44]                   @ 4-byte Reload
	.loc	2 108 15 is_stmt 1              @ ../User/App/Shoot_Task.c:108:15
	ldr	r0, [sp, #156]
	.loc	2 108 39 is_stmt 0              @ ../User/App/Shoot_Task.c:108:39
	addw	r0, r0, #2754
	vldr	s0, .LCPI1_7
	add	r1, sp, #48
	vldr	s5, .LCPI1_8
	.loc	2 108 5                         @ ../User/App/Shoot_Task.c:108:5
	vmov.f32	s2, s3
	vmov.f32	s4, s5
	bl	PID_Init
	movs	r0, #1
	.loc	2 115 5 is_stmt 1               @ ../User/App/Shoot_Task.c:115:5
	add	sp, #160
	pop	{r7, pc}
.Ltmp23:
	.p2align	2
@ %bb.1:
	.loc	2 0 5 is_stmt 0                 @ ../User/App/Shoot_Task.c:0:5
.LCPI1_0:
	.long	0x453b8000                      @ float 3000
.LCPI1_1:
	.long	0x45bb8000                      @ float 6000
.LCPI1_2:
	.long	0x44fa0000                      @ float 2000
.LCPI1_3:
	.long	0x447a0000                      @ float 1000
.LCPI1_4:
	.long	0x3f333333                      @ float 0.699999988
.LCPI1_5:
	.long	0x3e4ccccd                      @ float 0.200000003
.LCPI1_6:
	.long	0x46ea6000                      @ float 3.0E+4
.LCPI1_7:
	.long	0x466a6000                      @ float 15000
.LCPI1_8:
	.long	0x00000000                      @ float 0
.Lfunc_end1:
	.size	MOTOR_PID_Shoot_INIT, .Lfunc_end1-MOTOR_PID_Shoot_INIT
	.cfi_endproc
	.cantunwind
	.fnend
                                        @ -- End function
	.section	.text.RUI_F_JAM,"ax",%progbits
	.hidden	RUI_F_JAM                       @ -- Begin function RUI_F_JAM
	.globl	RUI_F_JAM
	.p2align	2
	.type	RUI_F_JAM,%function
	.code	16                              @ @RUI_F_JAM
	.thumb_func
RUI_F_JAM:
.Lfunc_begin2:
	.loc	2 142 0 is_stmt 1               @ ../User/App/Shoot_Task.c:142:0
	.fnstart
	.cfi_startproc
@ %bb.0:
	.pad	#8
	sub	sp, #8
	.cfi_def_cfa_offset 8
	str	r0, [sp, #4]
	str	r1, [sp]
	movs	r0, #1
.Ltmp24:
	.loc	2 160 5 prologue_end            @ ../User/App/Shoot_Task.c:160:5
	add	sp, #8
	bx	lr
.Ltmp25:
.Lfunc_end2:
	.size	RUI_F_JAM, .Lfunc_end2-RUI_F_JAM
	.cfi_endproc
	.cantunwind
	.fnend
                                        @ -- End function
	.section	.text.shoot_task,"ax",%progbits
	.hidden	shoot_task                      @ -- Begin function shoot_task
	.globl	shoot_task
	.p2align	3
	.type	shoot_task,%function
	.code	16                              @ @shoot_task
	.thumb_func
shoot_task:
.Lfunc_begin3:
	.loc	2 167 0                         @ ../User/App/Shoot_Task.c:167:0
	.fnstart
	.cfi_startproc
@ %bb.0:
	.save	{r7, lr}
	push	{r7, lr}
	.cfi_def_cfa_offset 8
	.cfi_offset lr, -4
	.cfi_offset r7, -8
	.pad	#40
	sub	sp, #40
	.cfi_def_cfa_offset 48
	str	r0, [sp, #32]
	str	r1, [sp, #28]
	str	r2, [sp, #24]
.Ltmp26:
	.loc	2 172 9 prologue_end            @ ../User/App/Shoot_Task.c:172:9
	movw	r0, :lower16:shoot_task.PID_INIT
	movt	r0, :upper16:shoot_task.PID_INIT
	ldrb	r0, [r0]
.Ltmp27:
	.loc	2 172 9 is_stmt 0               @ ../User/App/Shoot_Task.c:172:9
	cmp	r0, #1
	beq	.LBB3_2
	b	.LBB3_1
.LBB3_1:
.Ltmp28:
	.loc	2 174 41 is_stmt 1              @ ../User/App/Shoot_Task.c:174:41
	ldr	r0, [sp, #24]
	.loc	2 174 20 is_stmt 0              @ ../User/App/Shoot_Task.c:174:20
	bl	MOTOR_PID_Shoot_INIT
	.loc	2 174 18                        @ ../User/App/Shoot_Task.c:174:18
	movw	r1, :lower16:shoot_task.PID_INIT
	movt	r1, :upper16:shoot_task.PID_INIT
	strb	r0, [r1]
	movs	r0, #0
	.loc	2 175 9 is_stmt 1               @ ../User/App/Shoot_Task.c:175:9
	strb.w	r0, [sp, #39]
	b	.LBB3_9
.Ltmp29:
.LBB3_2:
	.loc	2 187 3                         @ ../User/App/Shoot_Task.c:187:3
	bl	kadanchack
	.loc	2 189 40                        @ ../User/App/Shoot_Task.c:189:40
	ldr	r0, [sp, #32]
	.loc	2 189 54 is_stmt 0              @ ../User/App/Shoot_Task.c:189:54
	ldr	r0, [r0, #48]
	.loc	2 189 5                         @ ../User/App/Shoot_Task.c:189:5
	ldr	r1, [sp, #24]
	.loc	2 189 38                        @ ../User/App/Shoot_Task.c:189:38
	str.w	r0, [r1, #1300]
	.loc	2 190 40 is_stmt 1              @ ../User/App/Shoot_Task.c:190:40
	ldr	r0, [sp, #32]
	.loc	2 190 54 is_stmt 0              @ ../User/App/Shoot_Task.c:190:54
	ldr	r0, [r0, #52]
	.loc	2 190 5                         @ ../User/App/Shoot_Task.c:190:5
	ldr	r1, [sp, #24]
	.loc	2 190 38                        @ ../User/App/Shoot_Task.c:190:38
	str.w	r0, [r1, #1860]
.Ltmp30:
	.loc	2 191 6 is_stmt 1               @ ../User/App/Shoot_Task.c:191:6
	movw	r0, :lower16:kadan
	movt	r0, :upper16:kadan
	ldrh	r0, [r0]
.Ltmp31:
	.loc	2 191 6 is_stmt 0               @ ../User/App/Shoot_Task.c:191:6
	cbnz	r0, .LBB3_4
	b	.LBB3_3
.LBB3_3:
.Ltmp32:
	.loc	2 192 41 is_stmt 1              @ ../User/App/Shoot_Task.c:192:41
	ldr	r0, [sp, #32]
	.loc	2 192 55 is_stmt 0              @ ../User/App/Shoot_Task.c:192:55
	ldr	r0, [r0, #56]
	.loc	2 192 6                         @ ../User/App/Shoot_Task.c:192:6
	ldr	r1, [sp, #24]
	.loc	2 192 39                        @ ../User/App/Shoot_Task.c:192:39
	str.w	r0, [r1, #2420]
	.loc	2 192 63                        @ ../User/App/Shoot_Task.c:192:63
	b	.LBB3_4
.Ltmp33:
.LBB3_4:
	.loc	2 193 8 is_stmt 1               @ ../User/App/Shoot_Task.c:193:8
	movw	r0, :lower16:kadan
	movt	r0, :upper16:kadan
	ldrh	r0, [r0]
.Ltmp34:
	.loc	2 193 8 is_stmt 0               @ ../User/App/Shoot_Task.c:193:8
	cmp	r0, #1
	bne	.LBB3_6
	b	.LBB3_5
.LBB3_5:
.Ltmp35:
	.loc	2 194 78 is_stmt 1              @ ../User/App/Shoot_Task.c:194:78
	movw	r0, :lower16:ALL_MOTOR
	movt	r0, :upper16:ALL_MOTOR
	ldrsh.w	r0, [r0, #2380]
	asrs	r1, r0, #31
	.loc	2 194 87 is_stmt 0              @ ../User/App/Shoot_Task.c:194:87
	adds	r0, #35
	adc	r1, r1, #0
	.loc	2 194 37                        @ ../User/App/Shoot_Task.c:194:37
	bl	__aeabi_l2f
	.loc	2 194 4                         @ ../User/App/Shoot_Task.c:194:4
	ldr	r1, [sp, #24]
	.loc	2 194 36                        @ ../User/App/Shoot_Task.c:194:36
	str.w	r0, [r1, #2420]
	.loc	2 194 91                        @ ../User/App/Shoot_Task.c:194:91
	b	.LBB3_6
.Ltmp36:
.LBB3_6:
	.loc	2 199 83 is_stmt 1              @ ../User/App/Shoot_Task.c:199:83
	movw	r0, :lower16:ALL_MOTOR
	movt	r0, :upper16:ALL_MOTOR
	str	r0, [sp, #8]                    @ 4-byte Spill
	ldrsh.w	r0, [r0, #2384]
	.loc	2 199 44 is_stmt 0              @ ../User/App/Shoot_Task.c:199:44
	vmov	s0, r0
	vcvt.f32.s32	s0, s0
	vmov	r0, s0
	bl	__aeabi_f2d
	vmov	d0, r0, r1
	vldr	d1, .LCPI3_0
	.loc	2 199 92                        @ ../User/App/Shoot_Task.c:199:92
	vmov	r2, r3, d1
	vmov	r0, r1, d0
	bl	__aeabi_dmul
	vmov	d0, r0, r1
	.loc	2 199 102                       @ ../User/App/Shoot_Task.c:199:102
	vmov	r0, r1, d0
	vldr	d0, .LCPI3_1
	vmov	r2, r3, d0
	bl	__aeabi_dmul
	vmov	d0, r0, r1
	.loc	2 199 112                       @ ../User/App/Shoot_Task.c:199:112
	vmov	r0, r1, d0
	vldr	d0, .LCPI3_2
	vmov	r2, r3, d0
	bl	__aeabi_dmul
	vmov	d0, r0, r1
	.loc	2 199 44                        @ ../User/App/Shoot_Task.c:199:44
	vmov	r0, r1, d0
	bl	__aeabi_d2f
	ldr	r1, [sp, #8]                    @ 4-byte Reload
	.loc	2 199 43                        @ ../User/App/Shoot_Task.c:199:43
	str.w	r0, [r1, #2432]
.Ltmp37:
	.loc	2 201 9 is_stmt 1               @ ../User/App/Shoot_Task.c:201:9
	ldr	r0, [sp, #28]
	.loc	2 201 15 is_stmt 0              @ ../User/App/Shoot_Task.c:201:15
	ldrb	r0, [r0]
.Ltmp38:
	.loc	2 201 8                         @ ../User/App/Shoot_Task.c:201:8
	cbnz	r0, .LBB3_8
	b	.LBB3_7
.LBB3_7:
.Ltmp39:
	.loc	2 203 9 is_stmt 1               @ ../User/App/Shoot_Task.c:203:9
	ldr	r1, [sp, #24]
	movs	r0, #0
	.loc	2 203 53 is_stmt 0              @ ../User/App/Shoot_Task.c:203:53
	str.w	r0, [r1, #1702]
	.loc	2 204 51 is_stmt 1              @ ../User/App/Shoot_Task.c:204:51
	ldr	r1, [sp, #24]
	.loc	2 204 80 is_stmt 0              @ ../User/App/Shoot_Task.c:204:80
	ldrsh.w	r2, [r1, #1264]
	.loc	2 204 44                        @ ../User/App/Shoot_Task.c:204:44
	vmov	s0, r2
	vcvt.f32.s32	s0, s0
	.loc	2 204 38                        @ ../User/App/Shoot_Task.c:204:38
	addw	r1, r1, #1300
	.loc	2 204 42                        @ ../User/App/Shoot_Task.c:204:42
	vstr	s0, [r1]
	.loc	2 206 9 is_stmt 1               @ ../User/App/Shoot_Task.c:206:9
	ldr	r1, [sp, #24]
	.loc	2 206 53 is_stmt 0              @ ../User/App/Shoot_Task.c:206:53
	str.w	r0, [r1, #2262]
	.loc	2 207 51 is_stmt 1              @ ../User/App/Shoot_Task.c:207:51
	ldr	r1, [sp, #24]
	.loc	2 207 80 is_stmt 0              @ ../User/App/Shoot_Task.c:207:80
	ldrsh.w	r2, [r1, #1824]
	.loc	2 207 44                        @ ../User/App/Shoot_Task.c:207:44
	vmov	s0, r2
	vcvt.f32.s32	s0, s0
	.loc	2 207 38                        @ ../User/App/Shoot_Task.c:207:38
	addw	r1, r1, #1860
	.loc	2 207 42                        @ ../User/App/Shoot_Task.c:207:42
	vstr	s0, [r1]
	.loc	2 209 9 is_stmt 1               @ ../User/App/Shoot_Task.c:209:9
	ldr	r1, [sp, #24]
	.loc	2 209 53 is_stmt 0              @ ../User/App/Shoot_Task.c:209:53
	str.w	r0, [r1, #2652]
	.loc	2 210 9 is_stmt 1               @ ../User/App/Shoot_Task.c:210:9
	ldr	r1, [sp, #24]
	.loc	2 210 53 is_stmt 0              @ ../User/App/Shoot_Task.c:210:53
	str.w	r0, [r1, #2822]
	.loc	2 211 51 is_stmt 1              @ ../User/App/Shoot_Task.c:211:51
	ldr	r1, [sp, #24]
	.loc	2 211 80 is_stmt 0              @ ../User/App/Shoot_Task.c:211:80
	addw	r2, r1, #2392
	.loc	2 211 44                        @ ../User/App/Shoot_Task.c:211:44
	vldr	s0, [r2]
	vcvt.f32.s32	s0, s0
	.loc	2 211 38                        @ ../User/App/Shoot_Task.c:211:38
	addw	r1, r1, #2420
	.loc	2 211 42                        @ ../User/App/Shoot_Task.c:211:42
	vstr	s0, [r1]
	.loc	2 213 18 is_stmt 1              @ ../User/App/Shoot_Task.c:213:18
	movw	r1, :lower16:shoot_task.PID_INIT
	movt	r1, :upper16:shoot_task.PID_INIT
	strb	r0, [r1]
	.loc	2 214 18                        @ ../User/App/Shoot_Task.c:214:18
	movw	r1, :lower16:shoot_task.AIM_INIT
	movt	r1, :upper16:shoot_task.AIM_INIT
	strb	r0, [r1]
	.loc	2 215 5                         @ ../User/App/Shoot_Task.c:215:5
	b	.LBB3_8
.Ltmp40:
.LBB3_8:
	.loc	2 227 28                        @ ../User/App/Shoot_Task.c:227:28
	ldr	r1, [sp, #24]
	.loc	2 227 52 is_stmt 0              @ ../User/App/Shoot_Task.c:227:52
	add.w	r0, r1, #1320
	.loc	2 228 56 is_stmt 1              @ ../User/App/Shoot_Task.c:228:56
	addw	r1, r1, #1300
	vldr	s0, [r1]
	.loc	2 227 5                         @ ../User/App/Shoot_Task.c:227:5
	bl	Feedforward_Calculate
	.loc	2 229 20                        @ ../User/App/Shoot_Task.c:229:20
	ldr	r1, [sp, #24]
	.loc	2 229 44 is_stmt 0              @ ../User/App/Shoot_Task.c:229:44
	addw	r0, r1, #1634
	.loc	2 230 55 is_stmt 1              @ ../User/App/Shoot_Task.c:230:55
	ldrsh.w	r2, [r1, #1264]
	.loc	2 230 19 is_stmt 0              @ ../User/App/Shoot_Task.c:230:19
	vmov	s0, r2
	vcvt.f32.s32	s0, s0
	.loc	2 231 48 is_stmt 1              @ ../User/App/Shoot_Task.c:231:48
	addw	r1, r1, #1300
	vldr	s1, [r1]
	.loc	2 229 5                         @ ../User/App/Shoot_Task.c:229:5
	bl	PID_Calculate
	.loc	2 234 28                        @ ../User/App/Shoot_Task.c:234:28
	ldr	r1, [sp, #24]
	.loc	2 234 52 is_stmt 0              @ ../User/App/Shoot_Task.c:234:52
	add.w	r0, r1, #1880
	.loc	2 235 56 is_stmt 1              @ ../User/App/Shoot_Task.c:235:56
	addw	r1, r1, #1860
	vldr	s0, [r1]
	.loc	2 234 5                         @ ../User/App/Shoot_Task.c:234:5
	bl	Feedforward_Calculate
	.loc	2 236 20                        @ ../User/App/Shoot_Task.c:236:20
	ldr	r1, [sp, #24]
	.loc	2 236 44 is_stmt 0              @ ../User/App/Shoot_Task.c:236:44
	addw	r0, r1, #2194
	.loc	2 237 55 is_stmt 1              @ ../User/App/Shoot_Task.c:237:55
	ldrsh.w	r2, [r1, #1824]
	.loc	2 237 19 is_stmt 0              @ ../User/App/Shoot_Task.c:237:19
	vmov	s0, r2
	vcvt.f32.s32	s0, s0
	.loc	2 238 48 is_stmt 1              @ ../User/App/Shoot_Task.c:238:48
	addw	r1, r1, #1860
	vldr	s1, [r1]
	.loc	2 236 5                         @ ../User/App/Shoot_Task.c:236:5
	bl	PID_Calculate
	.loc	2 243 20                        @ ../User/App/Shoot_Task.c:243:20
	ldr	r1, [sp, #24]
	.loc	2 243 44 is_stmt 0              @ ../User/App/Shoot_Task.c:243:44
	addw	r0, r1, #2584
	.loc	2 244 55 is_stmt 1              @ ../User/App/Shoot_Task.c:244:55
	addw	r2, r1, #2392
	.loc	2 244 19 is_stmt 0              @ ../User/App/Shoot_Task.c:244:19
	vldr	s0, [r2]
	vcvt.f32.s32	s0, s0
	.loc	2 245 48 is_stmt 1              @ ../User/App/Shoot_Task.c:245:48
	addw	r1, r1, #2420
	vldr	s1, [r1]
	.loc	2 243 5                         @ ../User/App/Shoot_Task.c:243:5
	bl	PID_Calculate
	.loc	2 246 20                        @ ../User/App/Shoot_Task.c:246:20
	ldr	r1, [sp, #24]
	.loc	2 246 44 is_stmt 0              @ ../User/App/Shoot_Task.c:246:44
	addw	r0, r1, #2754
	.loc	2 247 55 is_stmt 1              @ ../User/App/Shoot_Task.c:247:55
	ldrsh.w	r2, [r1, #2384]
	.loc	2 247 19 is_stmt 0              @ ../User/App/Shoot_Task.c:247:19
	vmov	s0, r2
	vcvt.f32.s32	s0, s0
	.loc	2 248 49 is_stmt 1              @ ../User/App/Shoot_Task.c:248:49
	addw	r1, r1, #2636
	vldr	s1, [r1]
	.loc	2 246 5                         @ ../User/App/Shoot_Task.c:246:5
	bl	PID_Calculate
	.loc	2 253 16                        @ ../User/App/Shoot_Task.c:253:16
	ldr	r0, [sp, #24]
	.loc	2 253 46 is_stmt 0              @ ../User/App/Shoot_Task.c:253:46
	add.w	r1, r0, #1456
	vldr	s0, [r1]
	.loc	2 254 46 is_stmt 1              @ ../User/App/Shoot_Task.c:254:46
	ldr.w	r0, [r0, #1686]
	vmov	s2, r0
	.loc	2 253 53                        @ ../User/App/Shoot_Task.c:253:53
	vadd.f32	s0, s0, s2
	.loc	2 253 14 is_stmt 0              @ ../User/App/Shoot_Task.c:253:14
	vstr	s0, [sp, #12]
	.loc	2 256 16 is_stmt 1              @ ../User/App/Shoot_Task.c:256:16
	ldr	r0, [sp, #24]
	.loc	2 256 46 is_stmt 0              @ ../User/App/Shoot_Task.c:256:46
	add.w	r1, r0, #2016
	vldr	s0, [r1]
	.loc	2 257 46 is_stmt 1              @ ../User/App/Shoot_Task.c:257:46
	ldr.w	r0, [r0, #2246]
	vmov	s2, r0
	.loc	2 256 53                        @ ../User/App/Shoot_Task.c:256:53
	vadd.f32	s0, s0, s2
	.loc	2 256 14 is_stmt 0              @ ../User/App/Shoot_Task.c:256:14
	vstr	s0, [sp, #16]
	.loc	2 259 16 is_stmt 1              @ ../User/App/Shoot_Task.c:259:16
	ldr	r0, [sp, #24]
	.loc	2 259 46 is_stmt 0              @ ../User/App/Shoot_Task.c:259:46
	add.w	r1, r0, #2576
	vldr	s0, [r1]
	.loc	2 260 46 is_stmt 1              @ ../User/App/Shoot_Task.c:260:46
	ldr.w	r0, [r0, #2806]
	vmov	s2, r0
	.loc	2 259 53                        @ ../User/App/Shoot_Task.c:259:53
	vadd.f32	s0, s0, s2
	.loc	2 259 14 is_stmt 0              @ ../User/App/Shoot_Task.c:259:14
	vstr	s0, [sp, #20]
	.loc	2 267 38 is_stmt 1              @ ../User/App/Shoot_Task.c:267:38
	ldr	r0, [sp, #24]
	.loc	2 267 67 is_stmt 0              @ ../User/App/Shoot_Task.c:267:67
	ldr.w	r0, [r0, #1300]
	.loc	2 267 5                         @ ../User/App/Shoot_Task.c:267:5
	ldr	r1, [sp, #32]
	.loc	2 267 36                        @ ../User/App/Shoot_Task.c:267:36
	str	r0, [r1, #96]
	.loc	2 268 38 is_stmt 1              @ ../User/App/Shoot_Task.c:268:38
	ldr	r0, [sp, #24]
	.loc	2 268 67 is_stmt 0              @ ../User/App/Shoot_Task.c:268:67
	ldr.w	r0, [r0, #1860]
	.loc	2 268 5                         @ ../User/App/Shoot_Task.c:268:5
	ldr	r1, [sp, #32]
	.loc	2 268 36                        @ ../User/App/Shoot_Task.c:268:36
	str	r0, [r1, #100]
	.loc	2 269 38 is_stmt 1              @ ../User/App/Shoot_Task.c:269:38
	ldr	r0, [sp, #24]
	.loc	2 269 67 is_stmt 0              @ ../User/App/Shoot_Task.c:269:67
	addw	r1, r0, #1300
	vldr	s0, [r1]
	.loc	2 270 74 is_stmt 1              @ ../User/App/Shoot_Task.c:270:74
	ldrsh.w	r0, [r0, #1264]
	.loc	2 270 38 is_stmt 0              @ ../User/App/Shoot_Task.c:270:38
	vmov	s2, r0
	vcvt.f32.s32	s2, s2
	.loc	2 269 71 is_stmt 1              @ ../User/App/Shoot_Task.c:269:71
	vsub.f32	s0, s0, s2
	.loc	2 269 5 is_stmt 0               @ ../User/App/Shoot_Task.c:269:5
	ldr	r0, [sp, #32]
	.loc	2 269 36                        @ ../User/App/Shoot_Task.c:269:36
	vstr	s0, [r0, #84]
	.loc	2 271 38 is_stmt 1              @ ../User/App/Shoot_Task.c:271:38
	ldr	r0, [sp, #24]
	.loc	2 271 67 is_stmt 0              @ ../User/App/Shoot_Task.c:271:67
	addw	r1, r0, #1860
	vldr	s0, [r1]
	.loc	2 272 74 is_stmt 1              @ ../User/App/Shoot_Task.c:272:74
	ldrsh.w	r0, [r0, #1824]
	.loc	2 272 38 is_stmt 0              @ ../User/App/Shoot_Task.c:272:38
	vmov	s2, r0
	vcvt.f32.s32	s2, s2
	.loc	2 271 71 is_stmt 1              @ ../User/App/Shoot_Task.c:271:71
	vsub.f32	s0, s0, s2
	.loc	2 271 5 is_stmt 0               @ ../User/App/Shoot_Task.c:271:5
	ldr	r0, [sp, #32]
	.loc	2 271 36                        @ ../User/App/Shoot_Task.c:271:36
	vstr	s0, [r0, #88]
	.loc	2 273 32 is_stmt 1              @ ../User/App/Shoot_Task.c:273:32
	ldr	r0, [sp, #24]
	.loc	2 273 61 is_stmt 0              @ ../User/App/Shoot_Task.c:273:61
	ldr.w	r0, [r0, #2392]
	.loc	2 273 5                         @ ../User/App/Shoot_Task.c:273:5
	ldr	r1, [sp, #32]
	.loc	2 273 30                        @ ../User/App/Shoot_Task.c:273:30
	str	r0, [r1, #92]
	.loc	2 274 46 is_stmt 1              @ ../User/App/Shoot_Task.c:274:46
	ldr	r0, [sp, #24]
	.loc	2 274 70 is_stmt 0              @ ../User/App/Shoot_Task.c:274:70
	addw	r0, r0, #2376
	.loc	2 274 76                        @ ../User/App/Shoot_Task.c:274:76
	ldr	r1, [sp, #32]
	.loc	2 274 35                        @ ../User/App/Shoot_Task.c:274:35
	bl	RUI_F_JAM
	.loc	2 274 5                         @ ../User/App/Shoot_Task.c:274:5
	ldr	r1, [sp, #32]
	.loc	2 274 33                        @ ../User/App/Shoot_Task.c:274:33
	strb.w	r0, [r1, #104]
	.loc	2 275 39 is_stmt 1              @ ../User/App/Shoot_Task.c:275:39
	ldr	r0, [sp, #24]
	.loc	2 275 68 is_stmt 0              @ ../User/App/Shoot_Task.c:275:68
	ldr.w	r0, [r0, #2392]
	asrs	r1, r0, #31
	.loc	2 275 85                        @ ../User/App/Shoot_Task.c:275:85
	ldr	r3, [sp, #32]
	.loc	2 275 99                        @ ../User/App/Shoot_Task.c:275:99
	str	r3, [sp, #4]                    @ 4-byte Spill
	ldr	r2, [r3, #64]
	ldr	r3, [r3, #68]
	.loc	2 275 83                        @ ../User/App/Shoot_Task.c:275:83
	bl	__aeabi_ldivmod
	ldr	r1, [sp, #4]                    @ 4-byte Reload
	.loc	2 275 37                        @ ../User/App/Shoot_Task.c:275:37
	str	r0, [r1, #108]
	movs	r0, #1
	.loc	2 277 5 is_stmt 1               @ ../User/App/Shoot_Task.c:277:5
	strb.w	r0, [sp, #39]
	b	.LBB3_9
.LBB3_9:
	.loc	2 278 1                         @ ../User/App/Shoot_Task.c:278:1
	ldrb.w	r0, [sp, #39]
	add	sp, #40
	pop	{r7, pc}
.Ltmp41:
	.p2align	3
@ %bb.10:
	.loc	2 0 1 is_stmt 0                 @ ../User/App/Shoot_Task.c:0:1
.LCPI3_0:
	.long	1304075766                      @ double 0.0166667
	.long	1066471699
.LCPI3_1:
	.long	3829104219                      @ double 0.027777699999999999
	.long	1067217345
.LCPI3_2:
	.long	0                               @ double 8
	.long	1075838976
.Lfunc_end3:
	.size	shoot_task, .Lfunc_end3-shoot_task
	.cfi_endproc
	.cantunwind
	.fnend
                                        @ -- End function
	.hidden	kadan                           @ @kadan
	.type	kadan,%object
	.section	.bss.kadan,"aw",%nobits
	.globl	kadan
	.p2align	1
kadan:
	.short	0                               @ 0x0
	.size	kadan, 2

	.hidden	time                            @ @time
	.type	time,%object
	.section	.bss.time,"aw",%nobits
	.globl	time
	.p2align	1
time:
	.short	0                               @ 0x0
	.size	time, 2

	.hidden	timedanfa                       @ @timedanfa
	.type	timedanfa,%object
	.section	.data.timedanfa,"aw",%progbits
	.globl	timedanfa
	.p2align	1
timedanfa:
	.short	10                              @ 0xa
	.size	timedanfa, 2

	.hidden	kadanfa                         @ @kadanfa
	.type	kadanfa,%object
	.section	.bss.kadanfa,"aw",%nobits
	.globl	kadanfa
	.p2align	2
kadanfa:
	.long	0                               @ 0x0
	.size	kadanfa, 4

	.type	.L__const.MOTOR_PID_Shoot_INIT.PID_S_L,%object @ @__const.MOTOR_PID_Shoot_INIT.PID_S_L
	.section	.rodata..L__const.MOTOR_PID_Shoot_INIT.PID_S_L,"a",%progbits
	.p2align	2
.L__const.MOTOR_PID_Shoot_INIT.PID_S_L:
	.long	0x40b00000                      @ float 5.5
	.long	0x00000000                      @ float 0
	.long	0x00000000                      @ float 0
	.size	.L__const.MOTOR_PID_Shoot_INIT.PID_S_L, 12

	.type	.L__const.MOTOR_PID_Shoot_INIT.PID_S_R,%object @ @__const.MOTOR_PID_Shoot_INIT.PID_S_R
	.section	.rodata..L__const.MOTOR_PID_Shoot_INIT.PID_S_R,"a",%progbits
	.p2align	2
.L__const.MOTOR_PID_Shoot_INIT.PID_S_R:
	.long	0x40b00000                      @ float 5.5
	.long	0x00000000                      @ float 0
	.long	0x00000000                      @ float 0
	.size	.L__const.MOTOR_PID_Shoot_INIT.PID_S_R, 12

	.type	.L__const.MOTOR_PID_Shoot_INIT.PID_P_M,%object @ @__const.MOTOR_PID_Shoot_INIT.PID_P_M
	.section	.rodata..L__const.MOTOR_PID_Shoot_INIT.PID_P_M,"a",%progbits
	.p2align	2
.L__const.MOTOR_PID_Shoot_INIT.PID_P_M:
	.long	0x3e570a3d                      @ float 0.209999993
	.long	0x00000000                      @ float 0
	.long	0x00000000                      @ float 0
	.size	.L__const.MOTOR_PID_Shoot_INIT.PID_P_M, 12

	.type	.L__const.MOTOR_PID_Shoot_INIT.PID_S_M,%object @ @__const.MOTOR_PID_Shoot_INIT.PID_S_M
	.section	.rodata..L__const.MOTOR_PID_Shoot_INIT.PID_S_M,"a",%progbits
	.p2align	2
.L__const.MOTOR_PID_Shoot_INIT.PID_S_M:
	.long	0x41100000                      @ float 9
	.long	0x00000000                      @ float 0
	.long	0x00000000                      @ float 0
	.size	.L__const.MOTOR_PID_Shoot_INIT.PID_S_M, 12

	.type	shoot_task.PID_INIT,%object     @ @shoot_task.PID_INIT
	.section	.bss.shoot_task.PID_INIT,"aw",%nobits
shoot_task.PID_INIT:
	.byte	0                               @ 0x0
	.size	shoot_task.PID_INIT, 1

	.type	shoot_task.AIM_INIT,%object     @ @shoot_task.AIM_INIT
	.section	.bss.shoot_task.AIM_INIT,"aw",%nobits
shoot_task.AIM_INIT:
	.byte	0                               @ 0x0
	.size	shoot_task.AIM_INIT, 1

	.file	4 "D:\\horizon\\Horizon_Infantry (2)\\MDK-ARM" "../User/Bsp/inc\\DJI_Motor.h"
	.file	5 "D:\\horizon\\Horizon_Infantry (2)\\MDK-ARM" "../User/Start/Inc\\Motors.h"
	.file	6 "D:\\horizon\\Horizon_Infantry (2)\\MDK-ARM" "../User/Algorithm/inc/user_lib.h"
	.file	7 "D:\\horizon\\Horizon_Infantry (2)\\MDK-ARM" "../User/Bsp/inc\\DM_Motor.h"
	.section	".note.GNU-stack","",%progbits
	.eabi_attribute	30, 6	@ Tag_ABI_optimization_goals
	.ARM_attribute	16, 1	@ Tag_AV_eba