	.text
	.syntax unified
	.eabi_attribute	67, "2.09"	@ Tag_conformance
	.cpu	cortex-m4
	.eabi_attribute	6, 13	@ Tag_CPU_arch
	.eabi_attribute	7, 77	@ Tag_CPU_arch_profile
	.eabi_attribute	8, 0	@ Tag_ARM_ISA_use
	.eabi_attribute	9, 2	@ Tag_THUMB_ISA_use
	.fpu	fpv4-sp-d16
	.eabi_attribute	27, 1	@ Tag_ABI_HardFP_use
	.eabi_attribute	36, 1	@ Tag_FP_HP_extension
	.eabi_attribute	34, 1	@ Tag_CPU_unaligned_access
	.eabi_attribute	17, 1	@ Tag_ABI_PCS_GOT_use
	.eabi_attribute	20, 2	@ Tag_ABI_FP_denormal
	.eabi_attribute	21, 0	@ Tag_ABI_FP_exceptions
	.eabi_attribute	23, 3	@ Tag_ABI_FP_number_model
	.eabi_attribute	24, 1	@ Tag_ABI_align_needed
	.eabi_attribute	25, 1	@ Tag_ABI_align_preserved
	.eabi_attribute	28, 1	@ Tag_ABI_VFP_args
	.eabi_attribute	38, 1	@ Tag_ABI_FP_16bit_format
	.eabi_attribute	18, 2	@ Tag_ABI_PCS_wchar_t
	.eabi_attribute	26, 1	@ Tag_ABI_enum_size
	.eabi_attribute	14, 0	@ Tag_ABI_PCS_R9_use
	.file	"spi.c"
	.file	1 "D:\\" "kevil\\ARM\\ARMCLANG\\Bin\\..\\include\\stdint.h"
	.file	2 "D:\\horizon\\Horizon_Infantry (2)\\MDK-ARM" "../Drivers/CMSIS/Device/ST/STM32F4xx/Include/stm32f407xx.h"
	.file	3 "D:\\horizon\\Horizon_Infantry (2)\\MDK-ARM" "../Drivers/STM32F4xx_HAL_Driver/Inc\\stm32f4xx_hal_spi.h"
	.file	4 "D:\\horizon\\Horizon_Infantry (2)\\MDK-ARM" "../Drivers/STM32F4xx_HAL_Driver/Inc\\stm32f4xx_hal_dma.h"
	.file	5 "D:\\horizon\\Horizon_Infantry (2)\\MDK-ARM" "../Drivers/STM32F4xx_HAL_Driver/Inc/stm32f4xx_hal_def.h"
	.file	6 "D:\\horizon\\Horizon_Infantry (2)\\MDK-ARM" "../Core/Src/spi.c"
	.section	.text.MX_SPI1_Init,"ax",%progbits
	.hidden	MX_SPI1_Init                    @ -- Begin function MX_SPI1_Init
	.globl	MX_SPI1_Init
	.p2align	2
	.type	MX_SPI1_Init,%function
	.code	16                              @ @MX_SPI1_Init
	.thumb_func
MX_SPI1_Init:
.Lfunc_begin0:
	.loc	6 34 0                          @ ../Core/Src/spi.c:34:0
	.fnstart
	.cfi_sections .debug_frame
	.cfi_startproc
@ %bb.0:
	.save	{r7, lr}
	push	{r7, lr}
	.cfi_def_cfa_offset 8
	.cfi_offset lr, -4
	.cfi_offset r7, -8
	.pad	#8
	sub	sp, #8
	.cfi_def_cfa_offset 16
.Ltmp0:
	.loc	6 43 18 prologue_end            @ ../Core/Src/spi.c:43:18
	movw	r0, :lower16:hspi1
	movt	r0, :upper16:hspi1
	str	r0, [sp, #4]                    @ 4-byte Spill
	movw	r1, #12288
	movt	r1, #16385
	str	r1, [r0]
	mov.w	r1, #260
	.loc	6 44 19                         @ ../Core/Src/spi.c:44:19
	str	r1, [r0, #4]
	movs	r1, #0
	.loc	6 45 24                         @ ../Core/Src/spi.c:45:24
	str	r1, [r0, #8]
	.loc	6 46 23                         @ ../Core/Src/spi.c:46:23
	str	r1, [r0, #12]
	movs	r2, #2
	.loc	6 47 26                         @ ../Core/Src/spi.c:47:26
	str	r2, [r0, #16]
	movs	r2, #1
	.loc	6 48 23                         @ ../Core/Src/spi.c:48:23
	str	r2, [r0, #20]
	mov.w	r2, #512
	.loc	6 49 18                         @ ../Core/Src/spi.c:49:18
	str	r2, [r0, #24]
	movs	r2, #16
	.loc	6 50 32                         @ ../Core/Src/spi.c:50:32
	str	r2, [r0, #28]
	.loc	6 51 23                         @ ../Core/Src/spi.c:51:23
	str	r1, [r0, #32]
	.loc	6 52 21                         @ ../Core/Src/spi.c:52:21
	str	r1, [r0, #36]
	.loc	6 53 29                         @ ../Core/Src/spi.c:53:29
	str	r1, [r0, #40]
	movs	r1, #10
	.loc	6 54 28                         @ ../Core/Src/spi.c:54:28
	str	r1, [r0, #44]
.Ltmp1:
	.loc	6 55 7                          @ ../Core/Src/spi.c:55:7
	bl	HAL_SPI_Init
.Ltmp2:
	.loc	6 55 7 is_stmt 0                @ ../Core/Src/spi.c:55:7
	cbz	r0, .LBB0_2
	b	.LBB0_1
.LBB0_1:
.Ltmp3:
	.loc	6 57 5 is_stmt 1                @ ../Core/Src/spi.c:57:5
	bl	Error_Handler
	.loc	6 58 3                          @ ../Core/Src/spi.c:58:3
	b	.LBB0_2
.Ltmp4:
.LBB0_2:
	.loc	6 63 1                          @ ../Core/Src/spi.c:63:1
	add	sp, #8
	pop	{r7, pc}
.Ltmp5:
.Lfunc_end0:
	.size	MX_SPI1_Init, .Lfunc_end0-MX_SPI1_Init
	.cfi_endproc
	.cantunwind
	.fnend
                                        @ -- End function
	.section	.text.MX_SPI2_Init,"ax",%progbits
	.hidden	MX_SPI2_Init                    @ -- Begin function MX_SPI2_Init
	.globl	MX_SPI2_Init
	.p2align	2
	.type	MX_SPI2_Init,%function
	.code	16                              @ @MX_SPI2_Init
	.thumb_func
MX_SPI2_Init:
.Lfunc_begin1:
	.loc	6 66 0                          @ ../Core/Src/spi.c:66:0
	.fnstart
	.cfi_startproc
@ %bb.0:
	.save	{r7, lr}
	push	{r7, lr}
	.cfi_def_cfa_offset 8
	.cfi_offset lr, -4
	.cfi_offset r7, -8
	.pad	#8
	sub	sp, #8
	.cfi_def_cfa_offset 16
.Ltmp6:
	.loc	6 75 18 prologue_end            @ ../Core/Src/spi.c:75:18
	movw	r0, :lower16:hspi2
	movt	r0, :upper16:hspi2
	str	r0, [sp, #4]                    @ 4-byte Spill
	movw	r1, #14336
	movt	r1, #16384
	str	r1, [r0]
	mov.w	r1, #260
	.loc	6 76 19                         @ ../Core/Src/spi.c:76:19
	str	r1, [r0, #4]
	movs	r1, #0
	.loc	6 77 24                         @ ../Core/Src/spi.c:77:24
	str	r1, [r0, #8]
	.loc	6 78 23                         @ ../Core/Src/spi.c:78:23
	str	r1, [r0, #12]
	.loc	6 79 26                         @ ../Core/Src/spi.c:79:26
	str	r1, [r0, #16]
	.loc	6 80 23                         @ ../Core/Src/spi.c:80:23
	str	r1, [r0, #20]
	mov.w	r2, #512
	.loc	6 81 18                         @ ../Core/Src/spi.c:81:18
	str	r2, [r0, #24]
	movs	r2, #16
	.loc	6 82 32                         @ ../Core/Src/spi.c:82:32
	str	r2, [r0, #28]
	.loc	6 83 23                         @ ../Core/Src/spi.c:83:23
	str	r1, [r0, #32]
	.loc	6 84 21                         @ ../Core/Src/spi.c:84:21
	str	r1, [r0, #36]
	.loc	6 85 29                         @ ../Core/Src/spi.c:85:29
	str	r1, [r0, #40]
	movs	r1, #10
	.loc	6 86 28                         @ ../Core/Src/spi.c:86:28
	str	r1, [r0, #44]
.Ltmp7:
	.loc	6 87 7                          @ ../Core/Src/spi.c:87:7
	bl	HAL_SPI_Init
.Ltmp8:
	.loc	6 87 7 is_stmt 0                @ ../Core/Src/spi.c:87:7
	cbz	r0, .LBB1_2
	b	.LBB1_1
.LBB1_1:
.Ltmp9:
	.loc	6 89 5 is_stmt 1                @ ../Core/Src/spi.c:89:5
	bl	Error_Handler
	.loc	6 90 3                          @ ../Core/Src/spi.c:90:3
	b	.LBB1_2
.Ltmp10:
.LBB1_2:
	.loc	6 95 1                          @ ../Core/Src/spi.c:95:1
	add	sp, #8
	pop	{r7, pc}
.Ltmp11:
.Lfunc_end1:
	.size	MX_SPI2_Init, .Lfunc_end1-MX_SPI2_Init
	.cfi_endproc
	.cantunwind
	.fnend
                                        @ -- End function
	.section	.text.HAL_SPI_MspInit,"ax",%progbits
	.hidden	HAL_SPI_MspInit                 @ -- Begin function HAL_SPI_MspInit
	.globl	HAL_SPI_MspInit
	.p2align	2
	.type	HAL_SPI_MspInit,%function
	.code	16                              @ @HAL_SPI_MspInit
	.thumb_func
HAL_SPI_MspInit:
.Lfunc_begin2:
	.loc	6 98 0                          @ ../Core/Src/spi.c:98:0
	.fnstart
	.cfi_startproc
@ %bb.0:
	.save	{r7, lr}
	push	{r7, lr}
	.cfi_def_cfa_offset 8
	.cfi_offset lr, -4
	.cfi_offset r7, -8
	.pad	#72
	sub	sp, #72
	.cfi_def_cfa_offset 80
	str	r0, [sp, #68]
	movs	r0, #0
.Ltmp12:
	.loc	6 100 20 prologue_end           @ ../Core/Src/spi.c:100:20
	str	r0, [sp, #64]
	str	r0, [sp, #60]
	str	r0, [sp, #56]
	str	r0, [sp, #52]
	str	r0, [sp, #48]
.Ltmp13:
	.loc	6 101 6                         @ ../Core/Src/spi.c:101:6
	ldr	r0, [sp, #68]
	.loc	6 101 17 is_stmt 0              @ ../Core/Src/spi.c:101:17
	ldr	r0, [r0]
	movw	r1, #12288
	movt	r1, #16385
.Ltmp14:
	.loc	6 101 6                         @ ../Core/Src/spi.c:101:6
	cmp	r0, r1
	bne.w	.LBB2_16
	b	.LBB2_1
.LBB2_1:
.Ltmp15:
	.loc	6 107 5 is_stmt 1               @ ../Core/Src/spi.c:107:5
	b	.LBB2_2
.LBB2_2:
	.loc	6 0 5 is_stmt 0                 @ ../Core/Src/spi.c:0:5
	movs	r0, #0
.Ltmp16:
	.loc	6 107 28                        @ ../Core/Src/spi.c:107:28
	str	r0, [sp, #44]
	movw	r0, #14404
	movt	r0, #16386
	.loc	6 107 117                       @ ../Core/Src/spi.c:107:117
	ldr	r1, [r0]
	orr	r1, r1, #4096
	str	r1, [r0]
	.loc	6 107 214                       @ ../Core/Src/spi.c:107:214
	ldr	r0, [r0]
	.loc	6 107 223                       @ ../Core/Src/spi.c:107:223
	and	r0, r0, #4096
	.loc	6 107 148                       @ ../Core/Src/spi.c:107:148
	str	r0, [sp, #44]
	.loc	6 107 252                       @ ../Core/Src/spi.c:107:252
	ldr	r0, [sp, #44]
	.loc	6 107 260                       @ ../Core/Src/spi.c:107:260
	b	.LBB2_3
.Ltmp17:
.LBB2_3:
	.loc	6 109 5 is_stmt 1               @ ../Core/Src/spi.c:109:5
	b	.LBB2_4
.LBB2_4:
	.loc	6 0 5 is_stmt 0                 @ ../Core/Src/spi.c:0:5
	movs	r0, #0
.Ltmp18:
	.loc	6 109 28                        @ ../Core/Src/spi.c:109:28
	str	r0, [sp, #40]
	movw	r0, #14384
	movt	r0, #16386
	.loc	6 109 117                       @ ../Core/Src/spi.c:109:117
	ldr	r1, [r0]
	orr	r1, r1, #2
	str	r1, [r0]
	.loc	6 109 213                       @ ../Core/Src/spi.c:109:213
	ldr	r0, [r0]
	.loc	6 109 222                       @ ../Core/Src/spi.c:109:222
	and	r0, r0, #2
	.loc	6 109 147                       @ ../Core/Src/spi.c:109:147
	str	r0, [sp, #40]
	.loc	6 109 250                       @ ../Core/Src/spi.c:109:250
	ldr	r0, [sp, #40]
	.loc	6 109 258                       @ ../Core/Src/spi.c:109:258
	b	.LBB2_5
.Ltmp19:
.LBB2_5:
	.loc	6 110 5 is_stmt 1               @ ../Core/Src/spi.c:110:5
	b	.LBB2_6
.LBB2_6:
	.loc	6 0 5 is_stmt 0                 @ ../Core/Src/spi.c:0:5
	movs	r0, #0
.Ltmp20:
	.loc	6 110 28                        @ ../Core/Src/spi.c:110:28
	str	r0, [sp, #36]
	movw	r0, #14384
	movt	r0, #16386
	.loc	6 110 117                       @ ../Core/Src/spi.c:110:117
	ldr	r1, [r0]
	orr	r1, r1, #1
	str	r1, [r0]
	.loc	6 110 213                       @ ../Core/Src/spi.c:110:213
	ldr	r0, [r0]
	.loc	6 110 222                       @ ../Core/Src/spi.c:110:222
	and	r0, r0, #1
	.loc	6 110 147                       @ ../Core/Src/spi.c:110:147
	str	r0, [sp, #36]
	.loc	6 110 250                       @ ../Core/Src/spi.c:110:250
	ldr	r0, [sp, #36]
	.loc	6 110 258                       @ ../Core/Src/spi.c:110:258
	b	.LBB2_7
.Ltmp21:
.LBB2_7:
	.loc	6 0 258                         @ ../Core/Src/spi.c:0:258
	movs	r0, #24
	.loc	6 116 25 is_stmt 1              @ ../Core/Src/spi.c:116:25
	str	r0, [sp, #48]
	movs	r0, #2
	.loc	6 117 26                        @ ../Core/Src/spi.c:117:26
	str	r0, [sp, #4]                    @ 4-byte Spill
	str	r0, [sp, #52]
	movs	r0, #1
	.loc	6 118 26                        @ ../Core/Src/spi.c:118:26
	str	r0, [sp, #8]                    @ 4-byte Spill
	str	r0, [sp, #56]
	movs	r0, #3
	.loc	6 119 27                        @ ../Core/Src/spi.c:119:27
	str	r0, [sp, #12]                   @ 4-byte Spill
	str	r0, [sp, #60]
	movs	r0, #5
	.loc	6 120 31                        @ ../Core/Src/spi.c:120:31
	str	r0, [sp, #16]                   @ 4-byte Spill
	str	r0, [sp, #64]
	movw	r0, #1024
	movt	r0, #16386
	add	r1, sp, #48
	.loc	6 121 5                         @ ../Core/Src/spi.c:121:5
	str	r1, [sp, #20]                   @ 4-byte Spill
	bl	HAL_GPIO_Init
	ldr.w	r12, [sp, #4]                   @ 4-byte Reload
	ldr	r3, [sp, #8]                    @ 4-byte Reload
	ldr	r2, [sp, #12]                   @ 4-byte Reload
	ldr	r0, [sp, #16]                   @ 4-byte Reload
	ldr	r1, [sp, #20]                   @ 4-byte Reload
	mov.w	lr, #128
	.loc	6 123 25                        @ ../Core/Src/spi.c:123:25
	str.w	lr, [sp, #48]
	.loc	6 124 26                        @ ../Core/Src/spi.c:124:26
	str.w	r12, [sp, #52]
	.loc	6 125 26                        @ ../Core/Src/spi.c:125:26
	str	r3, [sp, #56]
	.loc	6 126 27                        @ ../Core/Src/spi.c:126:27
	str	r2, [sp, #60]
	.loc	6 127 31                        @ ../Core/Src/spi.c:127:31
	str	r0, [sp, #64]
	movs	r0, #0
	movt	r0, #16386
	.loc	6 128 5                         @ ../Core/Src/spi.c:128:5
	bl	HAL_GPIO_Init
	.loc	6 132 27                        @ ../Core/Src/spi.c:132:27
	movw	r0, :lower16:hdma_spi1_rx
	movt	r0, :upper16:hdma_spi1_rx
	str	r0, [sp, #24]                   @ 4-byte Spill
	movw	r1, #25616
	movt	r1, #16386
	str	r1, [r0]
	mov.w	r1, #100663296
	.loc	6 133 31                        @ ../Core/Src/spi.c:133:31
	str	r1, [r0, #4]
	movs	r1, #0
	.loc	6 134 33                        @ ../Core/Src/spi.c:134:33
	str	r1, [r0, #8]
	.loc	6 135 33                        @ ../Core/Src/spi.c:135:33
	str	r1, [r0, #12]
	mov.w	r2, #1024
	.loc	6 136 30                        @ ../Core/Src/spi.c:136:30
	str	r2, [r0, #16]
	.loc	6 137 43                        @ ../Core/Src/spi.c:137:43
	str	r1, [r0, #20]
	.loc	6 138 40                        @ ../Core/Src/spi.c:138:40
	str	r1, [r0, #24]
	.loc	6 139 28                        @ ../Core/Src/spi.c:139:28
	str	r1, [r0, #28]
	mov.w	r2, #196608
	.loc	6 140 32                        @ ../Core/Src/spi.c:140:32
	str	r2, [r0, #32]
	.loc	6 141 32                        @ ../Core/Src/spi.c:141:32
	str	r1, [r0, #36]
.Ltmp22:
	.loc	6 142 9                         @ ../Core/Src/spi.c:142:9
	bl	HAL_DMA_Init
.Ltmp23:
	.loc	6 142 9 is_stmt 0               @ ../Core/Src/spi.c:142:9
	cbz	r0, .LBB2_9
	b	.LBB2_8
.LBB2_8:
.Ltmp24:
	.loc	6 144 7 is_stmt 1               @ ../Core/Src/spi.c:144:7
	bl	Error_Handler
	.loc	6 145 5                         @ ../Core/Src/spi.c:145:5
	b	.LBB2_9
.Ltmp25:
.LBB2_9:
	.loc	6 147 5                         @ ../Core/Src/spi.c:147:5
	b	.LBB2_10
.LBB2_10:
.Ltmp26:
	.loc	6 147 10 is_stmt 0              @ ../Core/Src/spi.c:147:10
	ldr	r0, [sp, #68]
	.loc	6 147 29                        @ ../Core/Src/spi.c:147:29
	movw	r1, :lower16:hdma_spi1_rx
	movt	r1, :upper16:hdma_spi1_rx
	str	r1, [r0, #76]
	.loc	6 147 73                        @ ../Core/Src/spi.c:147:73
	ldr	r0, [sp, #68]
	.loc	6 147 70                        @ ../Core/Src/spi.c:147:70
	str	r0, [r1, #56]
	.loc	6 147 85                        @ ../Core/Src/spi.c:147:85
	b	.LBB2_11
.Ltmp27:
.LBB2_11:
	.loc	6 150 27 is_stmt 1              @ ../Core/Src/spi.c:150:27
	movw	r0, :lower16:hdma_spi1_tx
	movt	r0, :upper16:hdma_spi1_tx
	str	r0, [sp]                        @ 4-byte Spill
	movw	r1, #25688
	movt	r1, #16386
	str	r1, [r0]
	mov.w	r1, #100663296
	.loc	6 151 31                        @ ../Core/Src/spi.c:151:31
	str	r1, [r0, #4]
	movs	r1, #64
	.loc	6 152 33                        @ ../Core/Src/spi.c:152:33
	str	r1, [r0, #8]
	movs	r1, #0
	.loc	6 153 33                        @ ../Core/Src/spi.c:153:33
	str	r1, [r0, #12]
	mov.w	r2, #1024
	.loc	6 154 30                        @ ../Core/Src/spi.c:154:30
	str	r2, [r0, #16]
	.loc	6 155 43                        @ ../Core/Src/spi.c:155:43
	str	r1, [r0, #20]
	.loc	6 156 40                        @ ../Core/Src/spi.c:156:40
	str	r1, [r0, #24]
	.loc	6 157 28                        @ ../Core/Src/spi.c:157:28
	str	r1, [r0, #28]
	mov.w	r2, #131072
	.loc	6 158 32                        @ ../Core/Src/spi.c:158:32
	str	r2, [r0, #32]
	.loc	6 159 32                        @ ../Core/Src/spi.c:159:32
	str	r1, [r0, #36]
.Ltmp28:
	.loc	6 160 9                         @ ../Core/Src/spi.c:160:9
	bl	HAL_DMA_Init
.Ltmp29:
	.loc	6 160 9 is_stmt 0               @ ../Core/Src/spi.c:160:9
	cbz	r0, .LBB2_13
	b	.LBB2_12
.LBB2_12:
.Ltmp30:
	.loc	6 162 7 is_stmt 1               @ ../Core/Src/spi.c:162:7
	bl	Error_Handler
	.loc	6 163 5                         @ ../Core/Src/spi.c:163:5
	b	.LBB2_13
.Ltmp31:
.LBB2_13:
	.loc	6 165 5                         @ ../Core/Src/spi.c:165:5
	b	.LBB2_14
.LBB2_14:
.Ltmp32:
	.loc	6 165 10 is_stmt 0              @ ../Core/Src/spi.c:165:10
	ldr	r0, [sp, #68]
	.loc	6 165 29                        @ ../Core/Src/spi.c:165:29
	movw	r1, :lower16:hdma_spi1_tx
	movt	r1, :upper16:hdma_spi1_tx
	str	r1, [r0, #72]
	.loc	6 165 73                        @ ../Core/Src/spi.c:165:73
	ldr	r0, [sp, #68]
	.loc	6 165 70                        @ ../Core/Src/spi.c:165:70
	str	r0, [r1, #56]
	.loc	6 165 85                        @ ../Core/Src/spi.c:165:85
	b	.LBB2_15
.Ltmp33:
.LBB2_15:
	.loc	6 170 3 is_stmt 1               @ ../Core/Src/spi.c:170:3
	b	.LBB2_23
.Ltmp34:
.LBB2_16:
	.loc	6 171 11                        @ ../Core/Src/spi.c:171:11
	ldr	r0, [sp, #68]
	.loc	6 171 22 is_stmt 0              @ ../Core/Src/spi.c:171:22
	ldr	r0, [r0]
	movw	r1, #14336
	movt	r1, #16384
.Ltmp35:
	.loc	6 171 11                        @ ../Core/Src/spi.c:171:11
	cmp	r0, r1
	bne	.LBB2_22
	b	.LBB2_17
.LBB2_17:
.Ltmp36:
	.loc	6 177 5 is_stmt 1               @ ../Core/Src/spi.c:177:5
	b	.LBB2_18
.LBB2_18:
	.loc	6 0 5 is_stmt 0                 @ ../Core/Src/spi.c:0:5
	movs	r0, #0
.Ltmp37:
	.loc	6 177 28                        @ ../Core/Src/spi.c:177:28
	str	r0, [sp, #32]
	movw	r0, #14400
	movt	r0, #16386
	.loc	6 177 117                       @ ../Core/Src/spi.c:177:117
	ldr	r1, [r0]
	orr	r1, r1, #16384
	str	r1, [r0]
	.loc	6 177 214                       @ ../Core/Src/spi.c:177:214
	ldr	r0, [r0]
	.loc	6 177 223                       @ ../Core/Src/spi.c:177:223
	and	r0, r0, #16384
	.loc	6 177 148                       @ ../Core/Src/spi.c:177:148
	str	r0, [sp, #32]
	.loc	6 177 252                       @ ../Core/Src/spi.c:177:252
	ldr	r0, [sp, #32]
	.loc	6 177 260                       @ ../Core/Src/spi.c:177:260
	b	.LBB2_19
.Ltmp38:
.LBB2_19:
	.loc	6 179 5 is_stmt 1               @ ../Core/Src/spi.c:179:5
	b	.LBB2_20
.LBB2_20:
	.loc	6 0 5 is_stmt 0                 @ ../Core/Src/spi.c:0:5
	movs	r0, #0
.Ltmp39:
	.loc	6 179 28                        @ ../Core/Src/spi.c:179:28
	str	r0, [sp, #28]
	movw	r0, #14384
	movt	r0, #16386
	.loc	6 179 117                       @ ../Core/Src/spi.c:179:117
	ldr	r1, [r0]
	orr	r1, r1, #2
	str	r1, [r0]
	.loc	6 179 213                       @ ../Core/Src/spi.c:179:213
	ldr	r0, [r0]
	.loc	6 179 222                       @ ../Core/Src/spi.c:179:222
	and	r0, r0, #2
	.loc	6 179 147                       @ ../Core/Src/spi.c:179:147
	str	r0, [sp, #28]
	.loc	6 179 250                       @ ../Core/Src/spi.c:179:250
	ldr	r0, [sp, #28]
	.loc	6 179 258                       @ ../Core/Src/spi.c:179:258
	b	.LBB2_21
.Ltmp40:
.LBB2_21:
	.loc	6 0 258                         @ ../Core/Src/spi.c:0:258
	mov.w	r0, #57344
	.loc	6 185 25 is_stmt 1              @ ../Core/Src/spi.c:185:25
	str	r0, [sp, #48]
	movs	r0, #2
	.loc	6 186 26                        @ ../Core/Src/spi.c:186:26
	str	r0, [sp, #52]
	movs	r0, #0
	.loc	6 187 26                        @ ../Core/Src/spi.c:187:26
	str	r0, [sp, #56]
	movs	r0, #3
	.loc	6 188 27                        @ ../Core/Src/spi.c:188:27
	str	r0, [sp, #60]
	movs	r0, #5
	.loc	6 189 31                        @ ../Core/Src/spi.c:189:31
	str	r0, [sp, #64]
	movw	r0, #1024
	movt	r0, #16386
	add	r1, sp, #48
	.loc	6 190 5                         @ ../Core/Src/spi.c:190:5
	bl	HAL_GPIO_Init
	.loc	6 195 3                         @ ../Core/Src/spi.c:195:3
	b	.LBB2_22
.Ltmp41:
.LBB2_22:
	.loc	6 0 3 is_stmt 0                 @ ../Core/Src/spi.c:0:3
	b	.LBB2_23
.LBB2_23:
	.loc	6 196 1 is_stmt 1               @ ../Core/Src/spi.c:196:1
	add	sp, #72
	pop	{r7, pc}
.Ltmp42:
.Lfunc_end2:
	.size	HAL_SPI_MspInit, .Lfunc_end2-HAL_SPI_MspInit
	.cfi_endproc
	.cantunwind
	.fnend
                                        @ -- End function
	.section	.text.HAL_SPI_MspDeInit,"ax",%progbits
	.hidden	HAL_SPI_MspDeInit               @ -- Begin function HAL_SPI_MspDeInit
	.globl	HAL_SPI_MspDeInit
	.p2align	2
	.type	HAL_SPI_MspDeInit,%function
	.code	16                              @ @HAL_SPI_MspDeInit
	.thumb_func
HAL_SPI_MspDeInit:
.Lfunc_begin3:
	.loc	6 199 0                         @ ../Core/Src/spi.c:199:0
	.fnstart
	.cfi_startproc
@ %bb.0:
	.save	{r7, lr}
	push	{r7, lr}
	.cfi_def_cfa_offset 8
	.cfi_offset lr, -4
	.cfi_offset r7, -8
	.pad	#8
	sub	sp, #8
	.cfi_def_cfa_offset 16
	str	r0, [sp, #4]
.Ltmp43:
	.loc	6 201 6 prologue_end            @ ../Core/Src/spi.c:201:6
	ldr	r0, [sp, #4]
	.loc	6 201 17 is_stmt 0              @ ../Core/Src/spi.c:201:17
	ldr	r0, [r0]
	movw	r1, #12288
	movt	r1, #16385
.Ltmp44:
	.loc	6 201 6                         @ ../Core/Src/spi.c:201:6
	cmp	r0, r1
	bne	.LBB3_2
	b	.LBB3_1
.LBB3_1:
	.loc	6 0 6                           @ ../Core/Src/spi.c:0:6
	movw	r1, #14404
	movt	r1, #16386
.Ltmp45:
	.loc	6 207 76 is_stmt 1              @ ../Core/Src/spi.c:207:76
	ldr	r0, [r1]
	bic	r0, r0, #4096
	str	r0, [r1]
	movw	r0, #1024
	movt	r0, #16386
	movs	r1, #24
	.loc	6 214 5                         @ ../Core/Src/spi.c:214:5
	bl	HAL_GPIO_DeInit
	movs	r0, #0
	movt	r0, #16386
	movs	r1, #128
	.loc	6 216 5                         @ ../Core/Src/spi.c:216:5
	bl	HAL_GPIO_DeInit
	.loc	6 219 20                        @ ../Core/Src/spi.c:219:20
	ldr	r0, [sp, #4]
	.loc	6 219 31 is_stmt 0              @ ../Core/Src/spi.c:219:31
	ldr	r0, [r0, #76]
	.loc	6 219 5                         @ ../Core/Src/spi.c:219:5
	bl	HAL_DMA_DeInit
	.loc	6 220 20 is_stmt 1              @ ../Core/Src/spi.c:220:20
	ldr	r0, [sp, #4]
	.loc	6 220 31 is_stmt 0              @ ../Core/Src/spi.c:220:31
	ldr	r0, [r0, #72]
	.loc	6 220 5                         @ ../Core/Src/spi.c:220:5
	bl	HAL_DMA_DeInit
	.loc	6 224 3 is_stmt 1               @ ../Core/Src/spi.c:224:3
	b	.LBB3_5
.Ltmp46:
.LBB3_2:
	.loc	6 225 11                        @ ../Core/Src/spi.c:225:11
	ldr	r0, [sp, #4]
	.loc	6 225 22 is_stmt 0              @ ../Core/Src/spi.c:225:22
	ldr	r0, [r0]
	movw	r1, #14336
	movt	r1, #16384
.Ltmp47:
	.loc	6 225 11                        @ ../Core/Src/spi.c:225:11
	cmp	r0, r1
	bne	.LBB3_4
	b	.LBB3_3
.LBB3_3:
	.loc	6 0 11                          @ ../Core/Src/spi.c:0:11
	movw	r1, #14400
	movt	r1, #16386
.Ltmp48:
	.loc	6 231 76 is_stmt 1              @ ../Core/Src/spi.c:231:76
	ldr	r0, [r1]
	bic	r0, r0, #16384
	str	r0, [r1]
	movw	r0, #1024
	movt	r0, #16386
	mov.w	r1, #57344
	.loc	6 238 5                         @ ../Core/Src/spi.c:238:5
	bl	HAL_GPIO_DeInit
	.loc	6 243 3                         @ ../Core/Src/spi.c:243:3
	b	.LBB3_4
.Ltmp49:
.LBB3_4:
	.loc	6 0 3 is_stmt 0                 @ ../Core/Src/spi.c:0:3
	b	.LBB3_5
.LBB3_5:
	.loc	6 244 1 is_stmt 1               @ ../Core/Src/spi.c:244:1
	add	sp, #8
	pop	{r7, pc}
.Ltmp50:
.Lfunc_end3:
	.size	HAL_SPI_MspDeInit, .Lfunc_end3-HAL_SPI_MspDeInit
	.cfi_endproc
	.cantunwind
	.fnend
                                        @ -- End function
	.hidden	hspi1                           @ @hspi1
	.type	hspi1,%object
	.section	.bss.hspi1,"aw",%nobits
	.globl	hspi1
	.p2align	2
hspi1:
	.zero	88
	.size	hspi1, 88

	.hidden	hspi2                           @ @hspi2
	.type	hspi2,%object
	.section	.bss.hspi2,"aw",%nobits
	.globl	hspi2
	.p2align	2
hspi2:
	.zero	88
	.size	hspi2, 88

	.hidden	hdma_spi1_rx                    @ @hdma_spi1_rx
	.type	hdma_spi1_rx,%object
	.section	.bss.hdma_spi1_rx,"aw",%nobits
	.globl	hdma_spi1_rx
	.p2align	2
hdma_spi1_rx:
	.zero	96
	.size	hdma_spi1_rx, 96

	.hidden	hdma_spi1_tx                    @ @hdma_spi1_tx
	.type	hdma_spi1_tx,%object
	.section	.bss.hdma_spi1_tx,"aw",%nobits
	.globl	hdma_spi1_tx
	.p2align	2
hdma_spi1_tx:
	.zero	96
	.size	hdma_spi1_tx, 96

	.file	7 "D:\\horizon\\Horizon_Infantry (2)\\MDK-ARM" "../Drivers/STM32F4xx_HAL_Driver/Inc\\stm32f4xx_hal_gpio.h"
	.section	".note.GNU-stack","",%progbits
	.eabi_attribute	30, 6	@ Tag_ABI_optimization_goals
	.ARM_attribute	16, 1	@ Tag_AV_eba