	.text
	.syntax unified
	.eabi_attribute	67, "2.09"	@ Tag_conformance
	.cpu	cortex-m4
	.eabi_attribute	6, 13	@ Tag_CPU_arch
	.eabi_attribute	7, 77	@ Tag_CPU_arch_profile
	.eabi_attribute	8, 0	@ Tag_ARM_ISA_use
	.eabi_attribute	9, 2	@ Tag_THUMB_ISA_use
	.fpu	fpv4-sp-d16
	.eabi_attribute	27, 1	@ Tag_ABI_HardFP_use
	.eabi_attribute	36, 1	@ Tag_FP_HP_extension
	.eabi_attribute	34, 1	@ Tag_CPU_unaligned_access
	.eabi_attribute	17, 1	@ Tag_ABI_PCS_GOT_use
	.eabi_attribute	20, 2	@ Tag_ABI_FP_denormal
	.eabi_attribute	21, 0	@ Tag_ABI_FP_exceptions
	.eabi_attribute	23, 1	@ Tag_ABI_FP_number_model
	.eabi_attribute	24, 1	@ Tag_ABI_align_needed
	.eabi_attribute	25, 1	@ Tag_ABI_align_preserved
	.eabi_attribute	28, 1	@ Tag_ABI_VFP_args
	.eabi_attribute	38, 1	@ Tag_ABI_FP_16bit_format
	.eabi_attribute	18, 2	@ Tag_ABI_PCS_wchar_t
	.eabi_attribute	26, 1	@ Tag_ABI_enum_size
	.eabi_attribute	14, 0	@ Tag_ABI_PCS_R9_use
	.file	"StatisticsFunctions.c"
	.file	1 "D:\\horizon\\Horizon_Infantry (2)\\MDK-ARM" "../Middlewares/CMSIS/DSP/Inc\\arm_math_types.h"
	.file	2 "D:\\" "kevil\\ARM\\ARMCLANG\\Bin\\..\\include\\stdint.h"
	.section	.text.arm_entropy_f32,"ax",%progbits
	.hidden	arm_entropy_f32                 @ -- Begin function arm_entropy_f32
	.globl	arm_entropy_f32
	.p2align	2
	.type	arm_entropy_f32,%function
	.code	16                              @ @arm_entropy_f32
	.thumb_func
arm_entropy_f32:
.Lfunc_begin0:
	.file	3 "D:\\horizon\\Horizon_Infantry (2)\\MDK-ARM" "../Middlewares/CMSIS/DSP/Src/StatisticsFunctions/arm_entropy_f32.c"
	.loc	3 148 0                         @ ../Middlewares/CMSIS/DSP/Src/StatisticsFunctions/arm_entropy_f32.c:148:0
	.fnstart
	.cfi_sections .debug_frame
	.cfi_startproc
@ %bb.0:
	.save	{r7, lr}
	push	{r7, lr}
	.cfi_def_cfa_offset 8
	.cfi_offset lr, -4
	.cfi_offset r7, -8
	.pad	#32
	sub	sp, #32
	.cfi_def_cfa_offset 40
	str	r0, [sp, #28]
	str	r1, [sp, #24]
.Ltmp0:
	.loc	3 153 11 prologue_end           @ ../Middlewares/CMSIS/DSP/Src/StatisticsFunctions/arm_entropy_f32.c:153:11
	ldr	r0, [sp, #28]
	.loc	3 153 9 is_stmt 0               @ ../Middlewares/CMSIS/DSP/Src/StatisticsFunctions/arm_entropy_f32.c:153:9
	str	r0, [sp, #20]
	.loc	3 154 14 is_stmt 1              @ ../Middlewares/CMSIS/DSP/Src/StatisticsFunctions/arm_entropy_f32.c:154:14
	ldr	r0, [sp, #24]
	.loc	3 154 12 is_stmt 0              @ ../Middlewares/CMSIS/DSP/Src/StatisticsFunctions/arm_entropy_f32.c:154:12
	str	r0, [sp, #16]
	movs	r0, #0
	.loc	3 156 11 is_stmt 1              @ ../Middlewares/CMSIS/DSP/Src/StatisticsFunctions/arm_entropy_f32.c:156:11
	str	r0, [sp, #12]
	.loc	3 158 5                         @ ../Middlewares/CMSIS/DSP/Src/StatisticsFunctions/arm_entropy_f32.c:158:5
	b	.LBB0_1
.LBB0_1:                                @ =>This Inner Loop Header: Depth=1
	.loc	3 158 11 is_stmt 0              @ ../Middlewares/CMSIS/DSP/Src/StatisticsFunctions/arm_entropy_f32.c:158:11
	ldr	r0, [sp, #16]
	.loc	3 158 5                         @ ../Middlewares/CMSIS/DSP/Src/StatisticsFunctions/arm_entropy_f32.c:158:5
	cbz	r0, .LBB0_3
	b	.LBB0_2
.LBB0_2:                                @   in Loop: Header=BB0_1 Depth=1
.Ltmp1:
	.loc	3 160 16 is_stmt 1              @ ../Middlewares/CMSIS/DSP/Src/StatisticsFunctions/arm_entropy_f32.c:160:16
	ldr	r0, [sp, #20]
	adds	r1, r0, #4
	str	r1, [sp, #20]
	.loc	3 160 12 is_stmt 0              @ ../Middlewares/CMSIS/DSP/Src/StatisticsFunctions/arm_entropy_f32.c:160:12
	ldr	r0, [r0]
	.loc	3 160 10                        @ ../Middlewares/CMSIS/DSP/Src/StatisticsFunctions/arm_entropy_f32.c:160:10
	str	r0, [sp, #8]
	.loc	3 161 17 is_stmt 1              @ ../Middlewares/CMSIS/DSP/Src/StatisticsFunctions/arm_entropy_f32.c:161:17
	vldr	s0, [sp, #8]
	vstr	s0, [sp, #4]                    @ 4-byte Spill
	.loc	3 161 21 is_stmt 0              @ ../Middlewares/CMSIS/DSP/Src/StatisticsFunctions/arm_entropy_f32.c:161:21
	bl	__hardfp_logf
	vmov.f32	s4, s0
	.loc	3 161 14                        @ ../Middlewares/CMSIS/DSP/Src/StatisticsFunctions/arm_entropy_f32.c:161:14
	vldr	s0, [sp, #4]                    @ 4-byte Reload
	vldr	s2, [sp, #12]
	vmul.f32	s0, s0, s4
	vadd.f32	s0, s0, s2
	vstr	s0, [sp, #12]
	.loc	3 163 14 is_stmt 1              @ ../Middlewares/CMSIS/DSP/Src/StatisticsFunctions/arm_entropy_f32.c:163:14
	ldr	r0, [sp, #16]
	subs	r0, #1
	str	r0, [sp, #16]
.Ltmp2:
	.loc	3 158 5                         @ ../Middlewares/CMSIS/DSP/Src/StatisticsFunctions/arm_entropy_f32.c:158:5
	b	.LBB0_1
.LBB0_3:
	.loc	3 167 13                        @ ../Middlewares/CMSIS/DSP/Src/StatisticsFunctions/arm_entropy_f32.c:167:13
	vldr	s0, [sp, #12]
	.loc	3 167 12 is_stmt 0              @ ../Middlewares/CMSIS/DSP/Src/StatisticsFunctions/arm_entropy_f32.c:167:12
	vneg.f32	s0, s0
	.loc	3 167 5                         @ ../Middlewares/CMSIS/DSP/Src/StatisticsFunctions/arm_entropy_f32.c:167:5
	add	sp, #32
	pop	{r7, pc}
.Ltmp3:
.Lfunc_end0:
	.size	arm_entropy_f32, .Lfunc_end0-arm_entropy_f32
	.cfi_endproc
	.cantunwind
	.fnend
                                        @ -- End function
	.section	.text.arm_entropy_f64,"ax",%progbits
	.hidden	arm_entropy_f64                 @ -- Begin function arm_entropy_f64
	.globl	arm_entropy_f64
	.p2align	2
	.type	arm_entropy_f64,%function
	.code	16                              @ @arm_entropy_f64
	.thumb_func
arm_entropy_f64:
.Lfunc_begin1:
	.file	4 "D:\\horizon\\Horizon_Infantry (2)\\MDK-ARM" "../Middlewares/CMSIS/DSP/Src/StatisticsFunctions/arm_entropy_f64.c"
	.loc	4 51 0 is_stmt 1                @ ../Middlewares/CMSIS/DSP/Src/StatisticsFunctions/arm_entropy_f64.c:51:0
	.fnstart
	.cfi_startproc
@ %bb.0:
	.save	{r7, lr}
	push	{r7, lr}
	.cfi_def_cfa_offset 8
	.cfi_offset lr, -4
	.cfi_offset r7, -8
	.pad	#56
	sub	sp, #56
	.cfi_def_cfa_offset 64
	str	r0, [sp, #52]
	str	r1, [sp, #48]
.Ltmp4:
	.loc	4 56 11 prologue_end            @ ../Middlewares/CMSIS/DSP/Src/StatisticsFunctions/arm_entropy_f64.c:56:11
	ldr	r0, [sp, #52]
	.loc	4 56 9 is_stmt 0                @ ../Middlewares/CMSIS/DSP/Src/StatisticsFunctions/arm_entropy_f64.c:56:9
	str	r0, [sp, #44]
	movs	r0, #0
	.loc	4 58 11 is_stmt 1               @ ../Middlewares/CMSIS/DSP/Src/StatisticsFunctions/arm_entropy_f64.c:58:11
	str	r0, [sp, #36]
	str	r0, [sp, #32]
	.loc	4 60 14                         @ ../Middlewares/CMSIS/DSP/Src/StatisticsFunctions/arm_entropy_f64.c:60:14
	ldr	r0, [sp, #48]
	.loc	4 60 12 is_stmt 0               @ ../Middlewares/CMSIS/DSP/Src/StatisticsFunctions/arm_entropy_f64.c:60:12
	str	r0, [sp, #40]
	.loc	4 62 5 is_stmt 1                @ ../Middlewares/CMSIS/DSP/Src/StatisticsFunctions/arm_entropy_f64.c:62:5
	b	.LBB1_1
.LBB1_1:                                @ =>This Inner Loop Header: Depth=1
	.loc	4 62 11 is_stmt 0               @ ../Middlewares/CMSIS/DSP/Src/StatisticsFunctions/arm_entropy_f64.c:62:11
	ldr	r0, [sp, #40]
	.loc	4 62 5                          @ ../Middlewares/CMSIS/DSP/Src/StatisticsFunctions/arm_entropy_f64.c:62:5
	cbz	r0, .LBB1_3
	b	.LBB1_2
.LBB1_2:                                @   in Loop: Header=BB1_1 Depth=1
.Ltmp5:
	.loc	4 64 17 is_stmt 1               @ ../Middlewares/CMSIS/DSP/Src/StatisticsFunctions/arm_entropy_f64.c:64:17
	ldr	r0, [sp, #44]
	add.w	r1, r0, #8
	str	r1, [sp, #44]
	.loc	4 64 13 is_stmt 0               @ ../Middlewares/CMSIS/DSP/Src/StatisticsFunctions/arm_entropy_f64.c:64:13
	vldr	d0, [r0]
	.loc	4 64 11                         @ ../Middlewares/CMSIS/DSP/Src/StatisticsFunctions/arm_entropy_f64.c:64:11
	vstr	d0, [sp, #24]
	.loc	4 66 18 is_stmt 1               @ ../Middlewares/CMSIS/DSP/Src/StatisticsFunctions/arm_entropy_f64.c:66:18
	vldr	d0, [sp, #24]
	vstr	d0, [sp]                        @ 8-byte Spill
	.loc	4 66 22 is_stmt 0               @ ../Middlewares/CMSIS/DSP/Src/StatisticsFunctions/arm_entropy_f64.c:66:22
	bl	__hardfp_log
	vldr	d1, [sp]                        @ 8-byte Reload
	.loc	4 66 15                         @ ../Middlewares/CMSIS/DSP/Src/StatisticsFunctions/arm_entropy_f64.c:66:15
	vldr	d2, [sp, #32]
	vstr	d2, [sp, #8]                    @ 8-byte Spill
	vmov	r0, r1, d1
	vmov	r2, r3, d0
	bl	__aeabi_dmul
	vldr	d0, [sp, #8]                    @ 8-byte Reload
	vmov	d1, r0, r1
	vmov	r0, r1, d1
	vmov	r2, r3, d0
	bl	__aeabi_dadd
	vmov	d0, r0, r1
	vstr	d0, [sp, #32]
	.loc	4 68 15 is_stmt 1               @ ../Middlewares/CMSIS/DSP/Src/StatisticsFunctions/arm_entropy_f64.c:68:15
	ldr	r0, [sp, #40]
	subs	r0, #1
	str	r0, [sp, #40]
.Ltmp6:
	.loc	4 62 5                          @ ../Middlewares/CMSIS/DSP/Src/StatisticsFunctions/arm_entropy_f64.c:62:5
	b	.LBB1_1
.LBB1_3:
	.loc	4 72 13                         @ ../Middlewares/CMSIS/DSP/Src/StatisticsFunctions/arm_entropy_f64.c:72:13
	vldr	d0, [sp, #32]
	.loc	4 72 12 is_stmt 0               @ ../Middlewares/CMSIS/DSP/Src/StatisticsFunctions/arm_entropy_f64.c:72:12
	vstr	d0, [sp, #16]
	ldrb.w	r0, [sp, #23]
	eor	r0, r0, #128
	strb.w	r0, [sp, #23]
	vldr	d0, [sp, #16]
	.loc	4 72 5                          @ ../Middlewares/CMSIS/DSP/Src/StatisticsFunctions/arm_entropy_f64.c:72:5
	add	sp, #56
	pop	{r7, pc}
.Ltmp7:
.Lfunc_end1:
	.size	arm_entropy_f64, .Lfunc_end1-arm_entropy_f64
	.cfi_endproc
	.cantunwind
	.fnend
                                        @ -- End function
	.section	.text.arm_kullback_leibler_f32,"ax",%progbits
	.hidden	arm_kullback_leibler_f32        @ -- Begin function arm_kullback_leibler_f32
	.globl	arm_kullback_leibler_f32
	.p2align	2
	.type	arm_kullback_leibler_f32,%function
	.code	16                              @ @arm_kullback_leibler_f32
	.thumb_func
arm_kullback_leibler_f32:
.Lfunc_begin2:
	.file	5 "D:\\horizon\\Horizon_Infantry (2)\\MDK-ARM" "../Middlewares/CMSIS/DSP/Src/StatisticsFunctions/arm_kullback_leibler_f32.c"
	.loc	5 165 0 is_stmt 1               @ ../Middlewares/CMSIS/DSP/Src/StatisticsFunctions/arm_kullback_leibler_f32.c:165:0
	.fnstart
	.cfi_startproc
@ %bb.0:
	.save	{r7, lr}
	push	{r7, lr}
	.cfi_def_cfa_offset 8
	.cfi_offset lr, -4
	.cfi_offset r7, -8
	.pad	#40
	sub	sp, #40
	.cfi_def_cfa_offset 48
	str	r0, [sp, #36]
	str	r1, [sp, #32]
	str	r2, [sp, #28]
.Ltmp8:
	.loc	5 170 12 prologue_end           @ ../Middlewares/CMSIS/DSP/Src/StatisticsFunctions/arm_kullback_leibler_f32.c:170:12
	ldr	r0, [sp, #36]
	.loc	5 170 10 is_stmt 0              @ ../Middlewares/CMSIS/DSP/Src/StatisticsFunctions/arm_kullback_leibler_f32.c:170:10
	str	r0, [sp, #24]
	.loc	5 171 12 is_stmt 1              @ ../Middlewares/CMSIS/DSP/Src/StatisticsFunctions/arm_kullback_leibler_f32.c:171:12
	ldr	r0, [sp, #32]
	.loc	5 171 10 is_stmt 0              @ ../Middlewares/CMSIS/DSP/Src/StatisticsFunctions/arm_kullback_leibler_f32.c:171:10
	str	r0, [sp, #20]
	.loc	5 172 14 is_stmt 1              @ ../Middlewares/CMSIS/DSP/Src/StatisticsFunctions/arm_kullback_leibler_f32.c:172:14
	ldr	r0, [sp, #28]
	.loc	5 172 12 is_stmt 0              @ ../Middlewares/CMSIS/DSP/Src/StatisticsFunctions/arm_kullback_leibler_f32.c:172:12
	str	r0, [sp, #16]
	movs	r0, #0
	.loc	5 174 11 is_stmt 1              @ ../Middlewares/CMSIS/DSP/Src/StatisticsFunctions/arm_kullback_leibler_f32.c:174:11
	str	r0, [sp, #12]
	.loc	5 176 5                         @ ../Middlewares/CMSIS/DSP/Src/StatisticsFunctions/arm_kullback_leibler_f32.c:176:5
	b	.LBB2_1
.LBB2_1:                                @ =>This Inner Loop Header: Depth=1
	.loc	5 176 11 is_stmt 0              @ ../Middlewares/CMSIS/DSP/Src/StatisticsFunctions/arm_kullback_leibler_f32.c:176:11
	ldr	r0, [sp, #16]
	.loc	5 176 5                         @ ../Middlewares/CMSIS/DSP/Src/StatisticsFunctions/arm_kullback_leibler_f32.c:176:5
	cbz	r0, .LBB2_3
	b	.LBB2_2
.LBB2_2:                                @   in Loop: Header=BB2_1 Depth=1
.Ltmp9:
	.loc	5 178 18 is_stmt 1              @ ../Middlewares/CMSIS/DSP/Src/StatisticsFunctions/arm_kullback_leibler_f32.c:178:18
	ldr	r0, [sp, #24]
	adds	r1, r0, #4
	str	r1, [sp, #24]
	.loc	5 178 13 is_stmt 0              @ ../Middlewares/CMSIS/DSP/Src/StatisticsFunctions/arm_kullback_leibler_f32.c:178:13
	ldr	r0, [r0]
	.loc	5 178 11                        @ ../Middlewares/CMSIS/DSP/Src/StatisticsFunctions/arm_kullback_leibler_f32.c:178:11
	str	r0, [sp, #8]
	.loc	5 179 18 is_stmt 1              @ ../Middlewares/CMSIS/DSP/Src/StatisticsFunctions/arm_kullback_leibler_f32.c:179:18
	ldr	r0, [sp, #20]
	adds	r1, r0, #4
	str	r1, [sp, #20]
	.loc	5 179 13 is_stmt 0              @ ../Middlewares/CMSIS/DSP/Src/StatisticsFunctions/arm_kullback_leibler_f32.c:179:13
	ldr	r0, [r0]
	.loc	5 179 11                        @ ../Middlewares/CMSIS/DSP/Src/StatisticsFunctions/arm_kullback_leibler_f32.c:179:11
	str	r0, [sp, #4]
	.loc	5 180 17 is_stmt 1              @ ../Middlewares/CMSIS/DSP/Src/StatisticsFunctions/arm_kullback_leibler_f32.c:180:17
	vldr	s2, [sp, #8]
	vstr	s2, [sp]                        @ 4-byte Spill
	.loc	5 180 27 is_stmt 0              @ ../Middlewares/CMSIS/DSP/Src/StatisticsFunctions/arm_kullback_leibler_f32.c:180:27
	vldr	s0, [sp, #4]
	.loc	5 180 30                        @ ../Middlewares/CMSIS/DSP/Src/StatisticsFunctions/arm_kullback_leibler_f32.c:180:30
	vdiv.f32	s0, s0, s2
	.loc	5 180 22                        @ ../Middlewares/CMSIS/DSP/Src/StatisticsFunctions/arm_kullback_leibler_f32.c:180:22
	bl	__hardfp_logf
	vmov.f32	s4, s0
	.loc	5 180 14                        @ ../Middlewares/CMSIS/DSP/Src/StatisticsFunctions/arm_kullback_leibler_f32.c:180:14
	vldr	s0, [sp]                        @ 4-byte Reload
	vldr	s2, [sp, #12]
	vmul.f32	s0, s0, s4
	vadd.f32	s0, s0, s2
	vstr	s0, [sp, #12]
	.loc	5 182 14 is_stmt 1              @ ../Middlewares/CMSIS/DSP/Src/StatisticsFunctions/arm_kullback_leibler_f32.c:182:14
	ldr	r0, [sp, #16]
	subs	r0, #1
	str	r0, [sp, #16]
.Ltmp10:
	.loc	5 176 5                         @ ../Middlewares/CMSIS/DSP/Src/StatisticsFunctions/arm_kullback_leibler_f32.c:176:5
	b	.LBB2_1
.LBB2_3:
	.loc	5 186 13                        @ ../Middlewares/CMSIS/DSP/Src/StatisticsFunctions/arm_kullback_leibler_f32.c:186:13
	vldr	s0, [sp, #12]
	.loc	5 186 12 is_stmt 0              @ ../Middlewares/CMSIS/DSP/Src/StatisticsFunctions/arm_kullback_leibler_f32.c:186:12
	vneg.f32	s0, s0
	.loc	5 186 5                         @ ../Middlewares/CMSIS/DSP/Src/StatisticsFunctions/arm_kullback_leibler_f32.c:186:5
	add	sp, #40
	pop	{r7, pc}
.Ltmp11:
.Lfunc_end2:
	.size	arm_kullback_leibler_f32, .Lfunc_end2-arm_kullback_leibler_f32
	.cfi_endproc
	.cantunwind
	.fnend
                                        @ -- End function
	.section	.text.arm_kullback_leibler_f64,"ax",%progbits
	.hidden	arm_kullback_leibler_f64        @ -- Begin function arm_kullback_leibler_f64
	.globl	arm_kullback_leibler_f64
	.p2align	2
	.type	arm_kullback_leibler_f64,%function
	.code	16                              @ @arm_kullback_leibler_f64
	.thumb_func
arm_kullback_leibler_f64:
.Lfunc_begin3:
	.file	6 "D:\\horizon\\Horizon_Infantry (2)\\MDK-ARM" "../Middlewares/CMSIS/DSP/Src/StatisticsFunctions/arm_kullback_leibler_f64.c"
	.loc	6 50 0 is_stmt 1                @ ../Middlewares/CMSIS/DSP/Src/StatisticsFunctions/arm_kullback_leibler_f64.c:50:0
	.fnstart
	.cfi_startproc
@ %bb.0:
	.save	{r7, lr}
	push	{r7, lr}
	.cfi_def_cfa_offset 8
	.cfi_offset lr, -4
	.cfi_offset r7, -8
	.pad	#72
	sub	sp, #72
	.cfi_def_cfa_offset 80
	str	r0, [sp, #68]
	str	r1, [sp, #64]
	str	r2, [sp, #60]
.Ltmp12:
	.loc	6 55 12 prologue_end            @ ../Middlewares/CMSIS/DSP/Src/StatisticsFunctions/arm_kullback_leibler_f64.c:55:12
	ldr	r0, [sp, #68]
	.loc	6 55 10 is_stmt 0               @ ../Middlewares/CMSIS/DSP/Src/StatisticsFunctions/arm_kullback_leibler_f64.c:55:10
	str	r0, [sp, #56]
	.loc	6 56 12 is_stmt 1               @ ../Middlewares/CMSIS/DSP/Src/StatisticsFunctions/arm_kullback_leibler_f64.c:56:12
	ldr	r0, [sp, #64]
	.loc	6 56 10 is_stmt 0               @ ../Middlewares/CMSIS/DSP/Src/StatisticsFunctions/arm_kullback_leibler_f64.c:56:10
	str	r0, [sp, #52]
	.loc	6 57 14 is_stmt 1               @ ../Middlewares/CMSIS/DSP/Src/StatisticsFunctions/arm_kullback_leibler_f64.c:57:14
	ldr	r0, [sp, #60]
	.loc	6 57 12 is_stmt 0               @ ../Middlewares/CMSIS/DSP/Src/StatisticsFunctions/arm_kullback_leibler_f64.c:57:12
	str	r0, [sp, #48]
	movs	r0, #0
	.loc	6 59 11 is_stmt 1               @ ../Middlewares/CMSIS/DSP/Src/StatisticsFunctions/arm_kullback_leibler_f64.c:59:11
	str	r0, [sp, #44]
	str	r0, [sp, #40]
	.loc	6 61 5                          @ ../Middlewares/CMSIS/DSP/Src/StatisticsFunctions/arm_kullback_leibler_f64.c:61:5
	b	.LBB3_1
.LBB3_1:                                @ =>This Inner Loop Header: Depth=1
	.loc	6 61 11 is_stmt 0               @ ../Middlewares/CMSIS/DSP/Src/StatisticsFunctions/arm_kullback_leibler_f64.c:61:11
	ldr	r0, [sp, #48]
	.loc	6 61 5                          @ ../Middlewares/CMSIS/DSP/Src/StatisticsFunctions/arm_kullback_leibler_f64.c:61:5
	cbz	r0, .LBB3_3
	b	.LBB3_2
.LBB3_2:                                @   in Loop: Header=BB3_1 Depth=1
.Ltmp13:
	.loc	6 63 19 is_stmt 1               @ ../Middlewares/CMSIS/DSP/Src/StatisticsFunctions/arm_kullback_leibler_f64.c:63:19
	ldr	r0, [sp, #56]
	add.w	r1, r0, #8
	str	r1, [sp, #56]
	.loc	6 63 14 is_stmt 0               @ ../Middlewares/CMSIS/DSP/Src/StatisticsFunctions/arm_kullback_leibler_f64.c:63:14
	vldr	d0, [r0]
	.loc	6 63 12                         @ ../Middlewares/CMSIS/DSP/Src/StatisticsFunctions/arm_kullback_leibler_f64.c:63:12
	vstr	d0, [sp, #32]
	.loc	6 64 19 is_stmt 1               @ ../Middlewares/CMSIS/DSP/Src/StatisticsFunctions/arm_kullback_leibler_f64.c:64:19
	ldr	r0, [sp, #52]
	add.w	r1, r0, #8
	str	r1, [sp, #52]
	.loc	6 64 14 is_stmt 0               @ ../Middlewares/CMSIS/DSP/Src/StatisticsFunctions/arm_kullback_leibler_f64.c:64:14
	vldr	d0, [r0]
	.loc	6 64 12                         @ ../Middlewares/CMSIS/DSP/Src/StatisticsFunctions/arm_kullback_leibler_f64.c:64:12
	vstr	d0, [sp, #24]
	.loc	6 66 18 is_stmt 1               @ ../Middlewares/CMSIS/DSP/Src/StatisticsFunctions/arm_kullback_leibler_f64.c:66:18
	vldr	d0, [sp, #32]
	.loc	6 66 27 is_stmt 0               @ ../Middlewares/CMSIS/DSP/Src/StatisticsFunctions/arm_kullback_leibler_f64.c:66:27
	vldr	d1, [sp, #24]
	.loc	6 66 30                         @ ../Middlewares/CMSIS/DSP/Src/StatisticsFunctions/arm_kullback_leibler_f64.c:66:30
	vmov	r0, r1, d1
	vmov	r2, r3, d0
	str	r3, [sp, #4]                    @ 4-byte Spill
	str	r2, [sp]                        @ 4-byte Spill
	bl	__aeabi_ddiv
	vmov	d0, r0, r1
	.loc	6 66 23                         @ ../Middlewares/CMSIS/DSP/Src/StatisticsFunctions/arm_kullback_leibler_f64.c:66:23
	bl	__hardfp_log
	ldr	r0, [sp]                        @ 4-byte Reload
	ldr	r1, [sp, #4]                    @ 4-byte Reload
	.loc	6 66 15                         @ ../Middlewares/CMSIS/DSP/Src/StatisticsFunctions/arm_kullback_leibler_f64.c:66:15
	vldr	d1, [sp, #40]
	vstr	d1, [sp, #8]                    @ 8-byte Spill
	vmov	r2, r3, d0
	bl	__aeabi_dmul
	vldr	d0, [sp, #8]                    @ 8-byte Reload
	vmov	d1, r0, r1
	vmov	r0, r1, d1
	vmov	r2, r3, d0
	bl	__aeabi_dadd
	vmov	d0, r0, r1
	vstr	d0, [sp, #40]
	.loc	6 68 15 is_stmt 1               @ ../Middlewares/CMSIS/DSP/Src/StatisticsFunctions/arm_kullback_leibler_f64.c:68:15
	ldr	r0, [sp, #48]
	subs	r0, #1
	str	r0, [sp, #48]
.Ltmp14:
	.loc	6 61 5                          @ ../Middlewares/CMSIS/DSP/Src/StatisticsFunctions/arm_kullback_leibler_f64.c:61:5
	b	.LBB3_1
.LBB3_3:
	.loc	6 71 13                         @ ../Middlewares/CMSIS/DSP/Src/StatisticsFunctions/arm_kullback_leibler_f64.c:71:13
	vldr	d0, [sp, #40]
	.loc	6 71 12 is_stmt 0               @ ../Middlewares/CMSIS/DSP/Src/StatisticsFunctions/arm_kullback_leibler_f64.c:71:12
	vstr	d0, [sp, #16]
	ldrb.w	r0, [sp, #23]
	eor	r0, r0, #128
	strb.w	r0, [sp, #23]
	vldr	d0, [sp, #16]
	.loc	6 71 5                          @ ../Middlewares/CMSIS/DSP/Src/StatisticsFunctions/arm_kullback_leibler_f64.c:71:5
	add	sp, #72
	pop	{r7, pc}
.Ltmp15:
.Lfunc_end3:
	.size	arm_kullback_leibler_f64, .Lfunc_end3-arm_kullback_leibler_f64
	.cfi_endproc
	.cantunwind
	.fnend
                                        @ -- End function
	.section	.text.arm_logsumexp_dot_prod_f32,"ax",%progbits
	.hidden	arm_logsumexp_dot_prod_f32      @ -- Begin function arm_logsumexp_dot_prod_f32
	.globl	arm_logsumexp_dot_prod_f32
	.p2align	2
	.type	arm_logsumexp_dot_prod_f32,%function
	.code	16                              @ @arm_logsumexp_dot_prod_f32
	.thumb_func
arm_logsumexp_dot_prod_f32:
.Lfunc_begin4:
	.file	7 "D:\\horizon\\Horizon_Infantry (2)\\MDK-ARM" "../Middlewares/CMSIS/DSP/Src/StatisticsFunctions/arm_logsumexp_dot_prod_f32.c"
	.loc	7 58 0 is_stmt 1                @ ../Middlewares/CMSIS/DSP/Src/StatisticsFunctions/arm_logsumexp_dot_prod_f32.c:58:0
	.fnstart
	.cfi_startproc
@ %bb.0:
	.save	{r7, lr}
	push	{r7, lr}
	.cfi_def_cfa_offset 8
	.cfi_offset lr, -4
	.cfi_offset r7, -8
	.pad	#24
	sub	sp, #24
	.cfi_def_cfa_offset 32
	str	r0, [sp, #20]
	str	r1, [sp, #16]
	str	r2, [sp, #12]
	str	r3, [sp, #8]
.Ltmp16:
	.loc	7 60 29 prologue_end            @ ../Middlewares/CMSIS/DSP/Src/StatisticsFunctions/arm_logsumexp_dot_prod_f32.c:60:29
	ldr	r0, [sp, #20]
	.loc	7 60 48 is_stmt 0               @ ../Middlewares/CMSIS/DSP/Src/StatisticsFunctions/arm_logsumexp_dot_prod_f32.c:60:48
	ldr	r1, [sp, #16]
	.loc	7 60 55                         @ ../Middlewares/CMSIS/DSP/Src/StatisticsFunctions/arm_logsumexp_dot_prod_f32.c:60:55
	ldr	r2, [sp, #8]
	.loc	7 60 67                         @ ../Middlewares/CMSIS/DSP/Src/StatisticsFunctions/arm_logsumexp_dot_prod_f32.c:60:67
	ldr	r3, [sp, #12]
	.loc	7 60 5                          @ ../Middlewares/CMSIS/DSP/Src/StatisticsFunctions/arm_logsumexp_dot_prod_f32.c:60:5
	bl	arm_add_f32
	.loc	7 62 32 is_stmt 1               @ ../Middlewares/CMSIS/DSP/Src/StatisticsFunctions/arm_logsumexp_dot_prod_f32.c:62:32
	ldr	r0, [sp, #8]
	.loc	7 62 44 is_stmt 0               @ ../Middlewares/CMSIS/DSP/Src/StatisticsFunctions/arm_logsumexp_dot_prod_f32.c:62:44
	ldr	r1, [sp, #12]
	.loc	7 62 14                         @ ../Middlewares/CMSIS/DSP/Src/StatisticsFunctions/arm_logsumexp_dot_prod_f32.c:62:14
	bl	arm_logsumexp_f32
	.loc	7 62 12                         @ ../Middlewares/CMSIS/DSP/Src/StatisticsFunctions/arm_logsumexp_dot_prod_f32.c:62:12
	vstr	s0, [sp, #4]
	.loc	7 63 12 is_stmt 1               @ ../Middlewares/CMSIS/DSP/Src/StatisticsFunctions/arm_logsumexp_dot_prod_f32.c:63:12
	vldr	s0, [sp, #4]
	.loc	7 63 5 is_stmt 0                @ ../Middlewares/CMSIS/DSP/Src/StatisticsFunctions/arm_logsumexp_dot_prod_f32.c:63:5
	add	sp, #24
	pop	{r7, pc}
.Ltmp17:
.Lfunc_end4:
	.size	arm_logsumexp_dot_prod_f32, .Lfunc_end4-arm_logsumexp_dot_prod_f32
	.cfi_endproc
	.cantunwind
	.fnend
                                        @ -- End function
	.section	.text.arm_logsumexp_f32,"ax",%progbits
	.hidden	arm_logsumexp_f32               @ -- Begin function arm_logsumexp_f32
	.globl	arm_logsumexp_f32
	.p2align	2
	.type	arm_logsumexp_f32,%function
	.code	16                              @ @arm_logsumexp_f32
	.thumb_func
arm_logsumexp_f32:
.Lfunc_begin5:
	.file	8 "D:\\horizon\\Horizon_Infantry (2)\\MDK-ARM" "../Middlewares/CMSIS/DSP/Src/StatisticsFunctions/arm_logsumexp_f32.c"
	.loc	8 233 0 is_stmt 1               @ ../Middlewares/CMSIS/DSP/Src/StatisticsFunctions/arm_logsumexp_f32.c:233:0
	.fnstart
	.cfi_startproc
@ %bb.0:
	.save	{r7, lr}
	push	{r7, lr}
	.cfi_def_cfa_offset 8
	.cfi_offset lr, -4
	.cfi_offset r7, -8
	.pad	#32
	sub	sp, #32
	.cfi_def_cfa_offset 40
	str	r0, [sp, #28]
	str	r1, [sp, #24]
.Ltmp18:
	.loc	8 240 11 prologue_end           @ ../Middlewares/CMSIS/DSP/Src/StatisticsFunctions/arm_logsumexp_f32.c:240:11
	ldr	r0, [sp, #28]
	.loc	8 240 9 is_stmt 0               @ ../Middlewares/CMSIS/DSP/Src/StatisticsFunctions/arm_logsumexp_f32.c:240:9
	str	r0, [sp, #12]
	.loc	8 241 14 is_stmt 1              @ ../Middlewares/CMSIS/DSP/Src/StatisticsFunctions/arm_logsumexp_f32.c:241:14
	ldr	r0, [sp, #24]
	.loc	8 241 12 is_stmt 0              @ ../Middlewares/CMSIS/DSP/Src/StatisticsFunctions/arm_logsumexp_f32.c:241:12
	str	r0, [sp, #8]
	.loc	8 243 18 is_stmt 1              @ ../Middlewares/CMSIS/DSP/Src/StatisticsFunctions/arm_logsumexp_f32.c:243:18
	ldr	r0, [sp, #12]
	adds	r1, r0, #4
	str	r1, [sp, #12]
	.loc	8 243 14 is_stmt 0              @ ../Middlewares/CMSIS/DSP/Src/StatisticsFunctions/arm_logsumexp_f32.c:243:14
	ldr	r0, [r0]
	.loc	8 243 12                        @ ../Middlewares/CMSIS/DSP/Src/StatisticsFunctions/arm_logsumexp_f32.c:243:12
	str	r0, [sp, #20]
	.loc	8 244 11 is_stmt 1              @ ../Middlewares/CMSIS/DSP/Src/StatisticsFunctions/arm_logsumexp_f32.c:244:11
	ldr	r0, [sp, #8]
	subs	r0, #1
	str	r0, [sp, #8]
	.loc	8 246 5                         @ ../Middlewares/CMSIS/DSP/Src/StatisticsFunctions/arm_logsumexp_f32.c:246:5
	b	.LBB5_1
.LBB5_1:                                @ =>This Inner Loop Header: Depth=1
	.loc	8 246 11 is_stmt 0              @ ../Middlewares/CMSIS/DSP/Src/StatisticsFunctions/arm_logsumexp_f32.c:246:11
	ldr	r0, [sp, #8]
	.loc	8 246 5                         @ ../Middlewares/CMSIS/DSP/Src/StatisticsFunctions/arm_logsumexp_f32.c:246:5
	cbz	r0, .LBB5_5
	b	.LBB5_2
.LBB5_2:                                @   in Loop: Header=BB5_1 Depth=1
.Ltmp19:
	.loc	8 248 18 is_stmt 1              @ ../Middlewares/CMSIS/DSP/Src/StatisticsFunctions/arm_logsumexp_f32.c:248:18
	ldr	r0, [sp, #12]
	adds	r1, r0, #4
	str	r1, [sp, #12]
	.loc	8 248 14 is_stmt 0              @ ../Middlewares/CMSIS/DSP/Src/StatisticsFunctions/arm_logsumexp_f32.c:248:14
	ldr	r0, [r0]
	.loc	8 248 12                        @ ../Middlewares/CMSIS/DSP/Src/StatisticsFunctions/arm_logsumexp_f32.c:248:12
	str	r0, [sp, #16]
.Ltmp20:
	.loc	8 250 12 is_stmt 1              @ ../Middlewares/CMSIS/DSP/Src/StatisticsFunctions/arm_logsumexp_f32.c:250:12
	vldr	s0, [sp, #16]
	.loc	8 250 18 is_stmt 0              @ ../Middlewares/CMSIS/DSP/Src/StatisticsFunctions/arm_logsumexp_f32.c:250:18
	vldr	s2, [sp, #20]
.Ltmp21:
	.loc	8 250 12                        @ ../Middlewares/CMSIS/DSP/Src/StatisticsFunctions/arm_logsumexp_f32.c:250:12
	vcmp.f32	s0, s2
	vmrs	APSR_nzcv, fpscr
	ble	.LBB5_4
	b	.LBB5_3
.LBB5_3:                                @   in Loop: Header=BB5_1 Depth=1
.Ltmp22:
	.loc	8 252 20 is_stmt 1              @ ../Middlewares/CMSIS/DSP/Src/StatisticsFunctions/arm_logsumexp_f32.c:252:20
	ldr	r0, [sp, #16]
	.loc	8 252 18 is_stmt 0              @ ../Middlewares/CMSIS/DSP/Src/StatisticsFunctions/arm_logsumexp_f32.c:252:18
	str	r0, [sp, #20]
	.loc	8 253 8 is_stmt 1               @ ../Middlewares/CMSIS/DSP/Src/StatisticsFunctions/arm_logsumexp_f32.c:253:8
	b	.LBB5_4
.Ltmp23:
.LBB5_4:                                @   in Loop: Header=BB5_1 Depth=1
	.loc	8 254 14                        @ ../Middlewares/CMSIS/DSP/Src/StatisticsFunctions/arm_logsumexp_f32.c:254:14
	ldr	r0, [sp, #8]
	subs	r0, #1
	str	r0, [sp, #8]
.Ltmp24:
	.loc	8 246 5                         @ ../Middlewares/CMSIS/DSP/Src/StatisticsFunctions/arm_logsumexp_f32.c:246:5
	b	.LBB5_1
.LBB5_5:
	.loc	8 258 14                        @ ../Middlewares/CMSIS/DSP/Src/StatisticsFunctions/arm_logsumexp_f32.c:258:14
	ldr	r0, [sp, #24]
	.loc	8 258 12 is_stmt 0              @ ../Middlewares/CMSIS/DSP/Src/StatisticsFunctions/arm_logsumexp_f32.c:258:12
	str	r0, [sp, #8]
	.loc	8 259 11 is_stmt 1              @ ../Middlewares/CMSIS/DSP/Src/StatisticsFunctions/arm_logsumexp_f32.c:259:11
	ldr	r0, [sp, #28]
	.loc	8 259 9 is_stmt 0               @ ../Middlewares/CMSIS/DSP/Src/StatisticsFunctions/arm_logsumexp_f32.c:259:9
	str	r0, [sp, #12]
	movs	r0, #0
	.loc	8 260 11 is_stmt 1              @ ../Middlewares/CMSIS/DSP/Src/StatisticsFunctions/arm_logsumexp_f32.c:260:11
	str	r0, [sp, #4]
	.loc	8 261 5                         @ ../Middlewares/CMSIS/DSP/Src/StatisticsFunctions/arm_logsumexp_f32.c:261:5
	b	.LBB5_6
.LBB5_6:                                @ =>This Inner Loop Header: Depth=1
	.loc	8 261 11 is_stmt 0              @ ../Middlewares/CMSIS/DSP/Src/StatisticsFunctions/arm_logsumexp_f32.c:261:11
	ldr	r0, [sp, #8]
	.loc	8 261 5                         @ ../Middlewares/CMSIS/DSP/Src/StatisticsFunctions/arm_logsumexp_f32.c:261:5
	cbz	r0, .LBB5_8
	b	.LBB5_7
.LBB5_7:                                @   in Loop: Header=BB5_6 Depth=1
.Ltmp25:
	.loc	8 263 18 is_stmt 1              @ ../Middlewares/CMSIS/DSP/Src/StatisticsFunctions/arm_logsumexp_f32.c:263:18
	ldr	r0, [sp, #12]
	adds	r1, r0, #4
	str	r1, [sp, #12]
	.loc	8 263 14 is_stmt 0              @ ../Middlewares/CMSIS/DSP/Src/StatisticsFunctions/arm_logsumexp_f32.c:263:14
	ldr	r0, [r0]
	.loc	8 263 12                        @ ../Middlewares/CMSIS/DSP/Src/StatisticsFunctions/arm_logsumexp_f32.c:263:12
	str	r0, [sp, #16]
	.loc	8 264 22 is_stmt 1              @ ../Middlewares/CMSIS/DSP/Src/StatisticsFunctions/arm_logsumexp_f32.c:264:22
	vldr	s0, [sp, #16]
	.loc	8 264 28 is_stmt 0              @ ../Middlewares/CMSIS/DSP/Src/StatisticsFunctions/arm_logsumexp_f32.c:264:28
	vldr	s2, [sp, #20]
	.loc	8 264 26                        @ ../Middlewares/CMSIS/DSP/Src/StatisticsFunctions/arm_logsumexp_f32.c:264:26
	vsub.f32	s0, s0, s2
	.loc	8 264 17                        @ ../Middlewares/CMSIS/DSP/Src/StatisticsFunctions/arm_logsumexp_f32.c:264:17
	bl	__hardfp_expf
	vmov.f32	s2, s0
	.loc	8 264 14                        @ ../Middlewares/CMSIS/DSP/Src/StatisticsFunctions/arm_logsumexp_f32.c:264:14
	vldr	s0, [sp, #4]
	vadd.f32	s0, s0, s2
	vstr	s0, [sp, #4]
	.loc	8 265 14 is_stmt 1              @ ../Middlewares/CMSIS/DSP/Src/StatisticsFunctions/arm_logsumexp_f32.c:265:14
	ldr	r0, [sp, #8]
	subs	r0, #1
	str	r0, [sp, #8]
.Ltmp26:
	.loc	8 261 5                         @ ../Middlewares/CMSIS/DSP/Src/StatisticsFunctions/arm_logsumexp_f32.c:261:5
	b	.LBB5_6
.LBB5_8:
	.loc	8 268 13                        @ ../Middlewares/CMSIS/DSP/Src/StatisticsFunctions/arm_logsumexp_f32.c:268:13
	vldr	s0, [sp, #20]
	vstr	s0, [sp]                        @ 4-byte Spill
	.loc	8 268 27 is_stmt 0              @ ../Middlewares/CMSIS/DSP/Src/StatisticsFunctions/arm_logsumexp_f32.c:268:27
	vldr	s0, [sp, #4]
	.loc	8 268 22                        @ ../Middlewares/CMSIS/DSP/Src/StatisticsFunctions/arm_logsumexp_f32.c:268:22
	bl	__hardfp_logf
	vmov.f32	s2, s0
	.loc	8 268 20                        @ ../Middlewares/CMSIS/DSP/Src/StatisticsFunctions/arm_logsumexp_f32.c:268:20
	vldr	s0, [sp]                        @ 4-byte Reload
	vadd.f32	s0, s0, s2
	.loc	8 268 11                        @ ../Middlewares/CMSIS/DSP/Src/StatisticsFunctions/arm_logsumexp_f32.c:268:11
	vstr	s0, [sp, #4]
	.loc	8 270 12 is_stmt 1              @ ../Middlewares/CMSIS/DSP/Src/StatisticsFunctions/arm_logsumexp_f32.c:270:12
	vldr	s0, [sp, #4]
	.loc	8 270 5 is_stmt 0               @ ../Middlewares/CMSIS/DSP/Src/StatisticsFunctions/arm_logsumexp_f32.c:270:5
	add	sp, #32
	pop	{r7, pc}
.Ltmp27:
.Lfunc_end5:
	.size	arm_logsumexp_f32, .Lfunc_end5-arm_logsumexp_f32
	.cfi_endproc
	.cantunwind
	.fnend
                                        @ -- End function
	.section	.text.arm_max_f32,"ax",%progbits
	.hidden	arm_max_f32                     @ -- Begin function arm_max_f32
	.globl	arm_max_f32
	.p2align	2
	.type	arm_max_f32,%function
	.code	16                              @ @arm_max_f32
	.thumb_func
arm_max_f32:
.Lfunc_begin6:
	.file	9 "D:\\horizon\\Horizon_Infantry (2)\\MDK-ARM" "../Middlewares/CMSIS/DSP/Src/StatisticsFunctions/arm_max_f32.c"
	.loc	9 268 0 is_stmt 1               @ ../Middlewares/CMSIS/DSP/Src/StatisticsFunctions/arm_max_f32.c:268:0
	.fnstart
	.cfi_startproc
@ %bb.0:
	.pad	#32
	sub	sp, #32
	.cfi_def_cfa_offset 32
	str	r0, [sp, #28]
	str	r1, [sp, #24]
	str	r2, [sp, #20]
	str	r3, [sp, #16]
	movs	r0, #0
.Ltmp28:
	.loc	9 277 12 prologue_end           @ ../Middlewares/CMSIS/DSP/Src/StatisticsFunctions/arm_max_f32.c:277:12
	str	r0, [sp]
	.loc	9 280 14                        @ ../Middlewares/CMSIS/DSP/Src/StatisticsFunctions/arm_max_f32.c:280:14
	ldr	r0, [sp, #28]
	adds	r1, r0, #4
	str	r1, [sp, #28]
	.loc	9 280 9 is_stmt 0               @ ../Middlewares/CMSIS/DSP/Src/StatisticsFunctions/arm_max_f32.c:280:9
	ldr	r0, [r0]
	.loc	9 280 7                         @ ../Middlewares/CMSIS/DSP/Src/StatisticsFunctions/arm_max_f32.c:280:7
	str	r0, [sp, #8]
	.loc	9 335 13 is_stmt 1              @ ../Middlewares/CMSIS/DSP/Src/StatisticsFunctions/arm_max_f32.c:335:13
	ldr	r0, [sp, #24]
	.loc	9 335 23 is_stmt 0              @ ../Middlewares/CMSIS/DSP/Src/StatisticsFunctions/arm_max_f32.c:335:23
	subs	r0, #1
	.loc	9 335 10                        @ ../Middlewares/CMSIS/DSP/Src/StatisticsFunctions/arm_max_f32.c:335:10
	str	r0, [sp, #4]
	.loc	9 339 3 is_stmt 1               @ ../Middlewares/CMSIS/DSP/Src/StatisticsFunctions/arm_max_f32.c:339:3
	b	.LBB6_1
.LBB6_1:                                @ =>This Inner Loop Header: Depth=1
	.loc	9 339 10 is_stmt 0              @ ../Middlewares/CMSIS/DSP/Src/StatisticsFunctions/arm_max_f32.c:339:10
	ldr	r0, [sp, #4]
	.loc	9 339 3                         @ ../Middlewares/CMSIS/DSP/Src/StatisticsFunctions/arm_max_f32.c:339:3
	cbz	r0, .LBB6_5
	b	.LBB6_2
.LBB6_2:                                @   in Loop: Header=BB6_1 Depth=1
.Ltmp29:
	.loc	9 342 19 is_stmt 1              @ ../Middlewares/CMSIS/DSP/Src/StatisticsFunctions/arm_max_f32.c:342:19
	ldr	r0, [sp, #28]
	adds	r1, r0, #4
	str	r1, [sp, #28]
	.loc	9 342 14 is_stmt 0              @ ../Middlewares/CMSIS/DSP/Src/StatisticsFunctions/arm_max_f32.c:342:14
	ldr	r0, [r0]
	.loc	9 342 12                        @ ../Middlewares/CMSIS/DSP/Src/StatisticsFunctions/arm_max_f32.c:342:12
	str	r0, [sp, #12]
.Ltmp30:
	.loc	9 345 9 is_stmt 1               @ ../Middlewares/CMSIS/DSP/Src/StatisticsFunctions/arm_max_f32.c:345:9
	vldr	s0, [sp, #8]
	.loc	9 345 15 is_stmt 0              @ ../Middlewares/CMSIS/DSP/Src/StatisticsFunctions/arm_max_f32.c:345:15
	vldr	s2, [sp, #12]
.Ltmp31:
	.loc	9 345 9                         @ ../Middlewares/CMSIS/DSP/Src/StatisticsFunctions/arm_max_f32.c:345:9
	vcmp.f32	s0, s2
	vmrs	APSR_nzcv, fpscr
	bge	.LBB6_4
	b	.LBB6_3
.LBB6_3:                                @   in Loop: Header=BB6_1 Depth=1
.Ltmp32:
	.loc	9 348 13 is_stmt 1              @ ../Middlewares/CMSIS/DSP/Src/StatisticsFunctions/arm_max_f32.c:348:13
	ldr	r0, [sp, #12]
	.loc	9 348 11 is_stmt 0              @ ../Middlewares/CMSIS/DSP/Src/StatisticsFunctions/arm_max_f32.c:348:11
	str	r0, [sp, #8]
	.loc	9 349 18 is_stmt 1              @ ../Middlewares/CMSIS/DSP/Src/StatisticsFunctions/arm_max_f32.c:349:18
	ldr	r0, [sp, #24]
	.loc	9 349 30 is_stmt 0              @ ../Middlewares/CMSIS/DSP/Src/StatisticsFunctions/arm_max_f32.c:349:30
	ldr	r1, [sp, #4]
	.loc	9 349 28                        @ ../Middlewares/CMSIS/DSP/Src/StatisticsFunctions/arm_max_f32.c:349:28
	subs	r0, r0, r1
	.loc	9 349 16                        @ ../Middlewares/CMSIS/DSP/Src/StatisticsFunctions/arm_max_f32.c:349:16
	str	r0, [sp]
	.loc	9 350 5 is_stmt 1               @ ../Middlewares/CMSIS/DSP/Src/StatisticsFunctions/arm_max_f32.c:350:5
	b	.LBB6_4
.Ltmp33:
.LBB6_4:                                @   in Loop: Header=BB6_1 Depth=1
	.loc	9 353 11                        @ ../Middlewares/CMSIS/DSP/Src/StatisticsFunctions/arm_max_f32.c:353:11
	ldr	r0, [sp, #4]
	subs	r0, #1
	str	r0, [sp, #4]
.Ltmp34:
	.loc	9 339 3                         @ ../Middlewares/CMSIS/DSP/Src/StatisticsFunctions/arm_max_f32.c:339:3
	b	.LBB6_1
.LBB6_5:
	.loc	9 357 14                        @ ../Middlewares/CMSIS/DSP/Src/StatisticsFunctions/arm_max_f32.c:357:14
	ldr	r0, [sp, #8]
	.loc	9 357 4 is_stmt 0               @ ../Middlewares/CMSIS/DSP/Src/StatisticsFunctions/arm_max_f32.c:357:4
	ldr	r1, [sp, #20]
	.loc	9 357 12                        @ ../Middlewares/CMSIS/DSP/Src/StatisticsFunctions/arm_max_f32.c:357:12
	str	r0, [r1]
	.loc	9 358 13 is_stmt 1              @ ../Middlewares/CMSIS/DSP/Src/StatisticsFunctions/arm_max_f32.c:358:13
	ldr	r0, [sp]
	.loc	9 358 4 is_stmt 0               @ ../Middlewares/CMSIS/DSP/Src/StatisticsFunctions/arm_max_f32.c:358:4
	ldr	r1, [sp, #16]
	.loc	9 358 11                        @ ../Middlewares/CMSIS/DSP/Src/StatisticsFunctions/arm_max_f32.c:358:11
	str	r0, [r1]
	.loc	9 359 1 is_stmt 1               @ ../Middlewares/CMSIS/DSP/Src/StatisticsFunctions/arm_max_f32.c:359:1
	add	sp, #32
	bx	lr
.Ltmp35:
.Lfunc_end6:
	.size	arm_max_f32, .Lfunc_end6-arm_max_f32
	.cfi_endproc
	.cantunwind
	.fnend
                                        @ -- End function
	.section	.text.arm_max_f64,"ax",%progbits
	.hidden	arm_max_f64                     @ -- Begin function arm_max_f64
	.globl	arm_max_f64
	.p2align	2
	.type	arm_max_f64,%function
	.code	16                              @ @arm_max_f64
	.thumb_func
arm_max_f64:
.Lfunc_begin7:
	.file	10 "D:\\horizon\\Horizon_Infantry (2)\\MDK-ARM" "../Middlewares/CMSIS/DSP/Src/StatisticsFunctions/arm_max_f64.c"
	.loc	10 53 0                         @ ../Middlewares/CMSIS/DSP/Src/StatisticsFunctions/arm_max_f64.c:53:0
	.fnstart
	.cfi_startproc
@ %bb.0:
	.save	{r7, lr}
	push	{r7, lr}
	.cfi_def_cfa_offset 8
	.cfi_offset lr, -4
	.cfi_offset r7, -8
	.pad	#40
	sub	sp, #40
	.cfi_def_cfa_offset 48
	str	r0, [sp, #36]
	str	r1, [sp, #32]
	str	r2, [sp, #28]
	str	r3, [sp, #24]
	movs	r0, #0
.Ltmp36:
	.loc	10 58 12 prologue_end           @ ../Middlewares/CMSIS/DSP/Src/StatisticsFunctions/arm_max_f64.c:58:12
	str	r0, [sp]
	.loc	10 61 14                        @ ../Middlewares/CMSIS/DSP/Src/StatisticsFunctions/arm_max_f64.c:61:14
	ldr	r0, [sp, #36]
	add.w	r1, r0, #8
	str	r1, [sp, #36]
	.loc	10 61 9 is_stmt 0               @ ../Middlewares/CMSIS/DSP/Src/StatisticsFunctions/arm_max_f64.c:61:9
	vldr	d0, [r0]
	.loc	10 61 7                         @ ../Middlewares/CMSIS/DSP/Src/StatisticsFunctions/arm_max_f64.c:61:7
	vstr	d0, [sp, #8]
	.loc	10 64 13 is_stmt 1              @ ../Middlewares/CMSIS/DSP/Src/StatisticsFunctions/arm_max_f64.c:64:13
	ldr	r0, [sp, #32]
	.loc	10 64 23 is_stmt 0              @ ../Middlewares/CMSIS/DSP/Src/StatisticsFunctions/arm_max_f64.c:64:23
	subs	r0, #1
	.loc	10 64 10                        @ ../Middlewares/CMSIS/DSP/Src/StatisticsFunctions/arm_max_f64.c:64:10
	str	r0, [sp, #4]
	.loc	10 66 3 is_stmt 1               @ ../Middlewares/CMSIS/DSP/Src/StatisticsFunctions/arm_max_f64.c:66:3
	b	.LBB7_1
.LBB7_1:                                @ =>This Inner Loop Header: Depth=1
	.loc	10 66 10 is_stmt 0              @ ../Middlewares/CMSIS/DSP/Src/StatisticsFunctions/arm_max_f64.c:66:10
	ldr	r0, [sp, #4]
	.loc	10 66 3                         @ ../Middlewares/CMSIS/DSP/Src/StatisticsFunctions/arm_max_f64.c:66:3
	cbz	r0, .LBB7_5
	b	.LBB7_2
.LBB7_2:                                @   in Loop: Header=BB7_1 Depth=1
.Ltmp37:
	.loc	10 69 19 is_stmt 1              @ ../Middlewares/CMSIS/DSP/Src/StatisticsFunctions/arm_max_f64.c:69:19
	ldr	r0, [sp, #36]
	add.w	r1, r0, #8
	str	r1, [sp, #36]
	.loc	10 69 14 is_stmt 0              @ ../Middlewares/CMSIS/DSP/Src/StatisticsFunctions/arm_max_f64.c:69:14
	vldr	d0, [r0]
	.loc	10 69 12                        @ ../Middlewares/CMSIS/DSP/Src/StatisticsFunctions/arm_max_f64.c:69:12
	vstr	d0, [sp, #16]
.Ltmp38:
	.loc	10 72 9 is_stmt 1               @ ../Middlewares/CMSIS/DSP/Src/StatisticsFunctions/arm_max_f64.c:72:9
	ldr	r0, [sp, #8]
	ldr	r1, [sp, #12]
	.loc	10 72 15 is_stmt 0              @ ../Middlewares/CMSIS/DSP/Src/StatisticsFunctions/arm_max_f64.c:72:15
	ldr	r2, [sp, #16]
	ldr	r3, [sp, #20]
.Ltmp39:
	.loc	10 72 9                         @ ../Middlewares/CMSIS/DSP/Src/StatisticsFunctions/arm_max_f64.c:72:9
	bl	__aeabi_dcmpge
	cbnz	r0, .LBB7_4
	b	.LBB7_3
.LBB7_3:                                @   in Loop: Header=BB7_1 Depth=1
.Ltmp40:
	.loc	10 75 13 is_stmt 1              @ ../Middlewares/CMSIS/DSP/Src/StatisticsFunctions/arm_max_f64.c:75:13
	vldr	d0, [sp, #16]
	.loc	10 75 11 is_stmt 0              @ ../Middlewares/CMSIS/DSP/Src/StatisticsFunctions/arm_max_f64.c:75:11
	vstr	d0, [sp, #8]
	.loc	10 76 18 is_stmt 1              @ ../Middlewares/CMSIS/DSP/Src/StatisticsFunctions/arm_max_f64.c:76:18
	ldr	r0, [sp, #32]
	.loc	10 76 30 is_stmt 0              @ ../Middlewares/CMSIS/DSP/Src/StatisticsFunctions/arm_max_f64.c:76:30
	ldr	r1, [sp, #4]
	.loc	10 76 28                        @ ../Middlewares/CMSIS/DSP/Src/StatisticsFunctions/arm_max_f64.c:76:28
	subs	r0, r0, r1
	.loc	10 76 16                        @ ../Middlewares/CMSIS/DSP/Src/StatisticsFunctions/arm_max_f64.c:76:16
	str	r0, [sp]
	.loc	10 77 5 is_stmt 1               @ ../Middlewares/CMSIS/DSP/Src/StatisticsFunctions/arm_max_f64.c:77:5
	b	.LBB7_4
.Ltmp41:
.LBB7_4:                                @   in Loop: Header=BB7_1 Depth=1
	.loc	10 80 11                        @ ../Middlewares/CMSIS/DSP/Src/StatisticsFunctions/arm_max_f64.c:80:11
	ldr	r0, [sp, #4]
	subs	r0, #1
	str	r0, [sp, #4]
.Ltmp42:
	.loc	10 66 3                         @ ../Middlewares/CMSIS/DSP/Src/StatisticsFunctions/arm_max_f64.c:66:3
	b	.LBB7_1
.LBB7_5:
	.loc	10 84 14                        @ ../Middlewares/CMSIS/DSP/Src/StatisticsFunctions/arm_max_f64.c:84:14
	vldr	d0, [sp, #8]
	.loc	10 84 4 is_stmt 0               @ ../Middlewares/CMSIS/DSP/Src/StatisticsFunctions/arm_max_f64.c:84:4
	ldr	r0, [sp, #28]
	.loc	10 84 12                        @ ../Middlewares/CMSIS/DSP/Src/StatisticsFunctions/arm_max_f64.c:84:12
	vstr	d0, [r0]
	.loc	10 85 13 is_stmt 1              @ ../Middlewares/CMSIS/DSP/Src/StatisticsFunctions/arm_max_f64.c:85:13
	ldr	r0, [sp]
	.loc	10 85 4 is_stmt 0               @ ../Middlewares/CMSIS/DSP/Src/StatisticsFunctions/arm_max_f64.c:85:4
	ldr	r1, [sp, #24]
	.loc	10 85 11                        @ ../Middlewares/CMSIS/DSP/Src/StatisticsFunctions/arm_max_f64.c:85:11
	str	r0, [r1]
	.loc	10 86 1 is_stmt 1               @ ../Middlewares/CMSIS/DSP/Src/StatisticsFunctions/arm_max_f64.c:86:1
	add	sp, #40
	pop	{r7, pc}
.Ltmp43:
.Lfunc_end7:
	.size	arm_max_f64, .Lfunc_end7-arm_max_f64
	.cfi_endproc
	.cantunwind
	.fnend
                                        @ -- End function
	.section	.text.arm_max_q15,"ax",%progbits
	.hidden	arm_max_q15                     @ -- Begin function arm_max_q15
	.globl	arm_max_q15
	.p2align	2
	.type	arm_max_q15,%function
	.code	16                              @ @arm_max_q15
	.thumb_func
arm_max_q15:
.Lfunc_begin8:
	.file	11 "D:\\horizon\\Horizon_Infantry (2)\\MDK-ARM" "../Middlewares/CMSIS/DSP/Src/StatisticsFunctions/arm_max_q15.c"
	.loc	11 107 0                        @ ../Middlewares/CMSIS/DSP/Src/StatisticsFunctions/arm_max_q15.c:107:0
	.fnstart
	.cfi_startproc
@ %bb.0:
	.pad	#28
	sub	sp, #28
	.cfi_def_cfa_offset 28
	str	r0, [sp, #24]
	str	r1, [sp, #20]
	str	r2, [sp, #16]
	str	r3, [sp, #12]
	movs	r0, #0
.Ltmp44:
	.loc	11 116 12 prologue_end          @ ../Middlewares/CMSIS/DSP/Src/StatisticsFunctions/arm_max_q15.c:116:12
	str	r0, [sp]
	.loc	11 118 14                       @ ../Middlewares/CMSIS/DSP/Src/StatisticsFunctions/arm_max_q15.c:118:14
	ldr	r0, [sp, #24]
	adds	r1, r0, #2
	str	r1, [sp, #24]
	.loc	11 118 9 is_stmt 0              @ ../Middlewares/CMSIS/DSP/Src/StatisticsFunctions/arm_max_q15.c:118:9
	ldrh	r0, [r0]
	.loc	11 118 7                        @ ../Middlewares/CMSIS/DSP/Src/StatisticsFunctions/arm_max_q15.c:118:7
	strh.w	r0, [sp, #8]
	.loc	11 173 13 is_stmt 1             @ ../Middlewares/CMSIS/DSP/Src/StatisticsFunctions/arm_max_q15.c:173:13
	ldr	r0, [sp, #20]
	.loc	11 173 23 is_stmt 0             @ ../Middlewares/CMSIS/DSP/Src/StatisticsFunctions/arm_max_q15.c:173:23
	subs	r0, #1
	.loc	11 173 10                       @ ../Middlewares/CMSIS/DSP/Src/StatisticsFunctions/arm_max_q15.c:173:10
	str	r0, [sp, #4]
	.loc	11 177 3 is_stmt 1              @ ../Middlewares/CMSIS/DSP/Src/StatisticsFunctions/arm_max_q15.c:177:3
	b	.LBB8_1
.LBB8_1:                                @ =>This Inner Loop Header: Depth=1
	.loc	11 177 10 is_stmt 0             @ ../Middlewares/CMSIS/DSP/Src/StatisticsFunctions/arm_max_q15.c:177:10
	ldr	r0, [sp, #4]
	.loc	11 177 3                        @ ../Middlewares/CMSIS/DSP/Src/StatisticsFunctions/arm_max_q15.c:177:3
	cbz	r0, .LBB8_5
	b	.LBB8_2
.LBB8_2:                                @   in Loop: Header=BB8_1 Depth=1
.Ltmp45:
	.loc	11 180 19 is_stmt 1             @ ../Middlewares/CMSIS/DSP/Src/StatisticsFunctions/arm_max_q15.c:180:19
	ldr	r0, [sp, #24]
	adds	r1, r0, #2
	str	r1, [sp, #24]
	.loc	11 180 14 is_stmt 0             @ ../Middlewares/CMSIS/DSP/Src/StatisticsFunctions/arm_max_q15.c:180:14
	ldrh	r0, [r0]
	.loc	11 180 12                       @ ../Middlewares/CMSIS/DSP/Src/StatisticsFunctions/arm_max_q15.c:180:12
	strh.w	r0, [sp, #10]
.Ltmp46:
	.loc	11 183 9 is_stmt 1              @ ../Middlewares/CMSIS/DSP/Src/StatisticsFunctions/arm_max_q15.c:183:9
	ldrsh.w	r0, [sp, #8]
	.loc	11 183 15 is_stmt 0             @ ../Middlewares/CMSIS/DSP/Src/StatisticsFunctions/arm_max_q15.c:183:15
	ldrsh.w	r1, [sp, #10]
.Ltmp47:
	.loc	11 183 9                        @ ../Middlewares/CMSIS/DSP/Src/StatisticsFunctions/arm_max_q15.c:183:9
	cmp	r0, r1
	bge	.LBB8_4
	b	.LBB8_3
.LBB8_3:                                @   in Loop: Header=BB8_1 Depth=1
.Ltmp48:
	.loc	11 186 13 is_stmt 1             @ ../Middlewares/CMSIS/DSP/Src/StatisticsFunctions/arm_max_q15.c:186:13
	ldrh.w	r0, [sp, #10]
	.loc	11 186 11 is_stmt 0             @ ../Middlewares/CMSIS/DSP/Src/StatisticsFunctions/arm_max_q15.c:186:11
	strh.w	r0, [sp, #8]
	.loc	11 187 18 is_stmt 1             @ ../Middlewares/CMSIS/DSP/Src/StatisticsFunctions/arm_max_q15.c:187:18
	ldr	r0, [sp, #20]
	.loc	11 187 30 is_stmt 0             @ ../Middlewares/CMSIS/DSP/Src/StatisticsFunctions/arm_max_q15.c:187:30
	ldr	r1, [sp, #4]
	.loc	11 187 28                       @ ../Middlewares/CMSIS/DSP/Src/StatisticsFunctions/arm_max_q15.c:187:28
	subs	r0, r0, r1
	.loc	11 187 16                       @ ../Middlewares/CMSIS/DSP/Src/StatisticsFunctions/arm_max_q15.c:187:16
	str	r0, [sp]
	.loc	11 188 5 is_stmt 1              @ ../Middlewares/CMSIS/DSP/Src/StatisticsFunctions/arm_max_q15.c:188:5
	b	.LBB8_4
.Ltmp49:
.LBB8_4:                                @   in Loop: Header=BB8_1 Depth=1
	.loc	11 191 11                       @ ../Middlewares/CMSIS/DSP/Src/StatisticsFunctions/arm_max_q15.c:191:11
	ldr	r0, [sp, #4]
	subs	r0, #1
	str	r0, [sp, #4]
.Ltmp50:
	.loc	11 177 3                        @ ../Middlewares/CMSIS/DSP/Src/StatisticsFunctions/arm_max_q15.c:177:3
	b	.LBB8_1
.LBB8_5:
	.loc	11 195 14                       @ ../Middlewares/CMSIS/DSP/Src/StatisticsFunctions/arm_max_q15.c:195:14
	ldrh.w	r0, [sp, #8]
	.loc	11 195 4 is_stmt 0              @ ../Middlewares/CMSIS/DSP/Src/StatisticsFunctions/arm_max_q15.c:195:4
	ldr	r1, [sp, #16]
	.loc	11 195 12                       @ ../Middlewares/CMSIS/DSP/Src/StatisticsFunctions/arm_max_q15.c:195:12
	strh	r0, [r1]
	.loc	11 196 13 is_stmt 1             @ ../Middlewares/CMSIS/DSP/Src/StatisticsFunctions/arm_max_q15.c:196:13
	ldr	r0, [sp]
	.loc	11 196 4 is_stmt 0              @ ../Middlewares/CMSIS/DSP/Src/StatisticsFunctions/arm_max_q15.c:196:4
	ldr	r1, [sp, #12]
	.loc	11 196 11                       @ ../Middlewares/CMSIS/DSP/Src/StatisticsFunctions/arm_max_q15.c:196:11
	str	r0, [r1]
	.loc	11 197 1 is_stmt 1              @ ../Middlewares/CMSIS/DSP/Src/StatisticsFunctions/arm_max_q15.c:197:1
	add	sp, #28
	bx	lr
.Ltmp51:
.Lfunc_end8:
	.size	arm_max_q15, .Lfunc_end8-arm_max_q15
	.cfi_endproc
	.cantunwind
	.fnend
                                        @ -- End function
	.section	.text.arm_max_q31,"ax",%progbits
	.hidden	arm_max_q31                     @ -- Begin function arm_max_q31
	.globl	arm_max_q31
	.p2align	2
	.type	arm_max_q31,%function
	.code	16                              @ @arm_max_q31
	.thumb_func
arm_max_q31:
.Lfunc_begin9:
	.file	12 "D:\\horizon\\Horizon_Infantry (2)\\MDK-ARM" "../Middlewares/CMSIS/DSP/Src/StatisticsFunctions/arm_max_q31.c"
	.loc	12 107 0                        @ ../Middlewares/CMSIS/DSP/Src/StatisticsFunctions/arm_max_q31.c:107:0
	.fnstart
	.cfi_startproc
@ %bb.0:
	.pad	#32
	sub	sp, #32
	.cfi_def_cfa_offset 32
	str	r0, [sp, #28]
	str	r1, [sp, #24]
	str	r2, [sp, #20]
	str	r3, [sp, #16]
	movs	r0, #0
.Ltmp52:
	.loc	12 116 12 prologue_end          @ ../Middlewares/CMSIS/DSP/Src/StatisticsFunctions/arm_max_q31.c:116:12
	str	r0, [sp]
	.loc	12 118 14                       @ ../Middlewares/CMSIS/DSP/Src/StatisticsFunctions/arm_max_q31.c:118:14
	ldr	r0, [sp, #28]
	adds	r1, r0, #4
	str	r1, [sp, #28]
	.loc	12 118 9 is_stmt 0              @ ../Middlewares/CMSIS/DSP/Src/StatisticsFunctions/arm_max_q31.c:118:9
	ldr	r0, [r0]
	.loc	12 118 7                        @ ../Middlewares/CMSIS/DSP/Src/StatisticsFunctions/arm_max_q31.c:118:7
	str	r0, [sp, #8]
	.loc	12 173 13 is_stmt 1             @ ../Middlewares/CMSIS/DSP/Src/StatisticsFunctions/arm_max_q31.c:173:13
	ldr	r0, [sp, #24]
	.loc	12 173 23 is_stmt 0             @ ../Middlewares/CMSIS/DSP/Src/StatisticsFunctions/arm_max_q31.c:173:23
	subs	r0, #1
	.loc	12 173 10                       @ ../Middlewares/CMSIS/DSP/Src/StatisticsFunctions/arm_max_q31.c:173:10
	str	r0, [sp, #4]
	.loc	12 177 3 is_stmt 1              @ ../Middlewares/CMSIS/DSP/Src/StatisticsFunctions/arm_max_q31.c:177:3
	b	.LBB9_1
.LBB9_1:                                @ =>This Inner Loop Header: Depth=1
	.loc	12 177 10 is_stmt 0             @ ../Middlewares/CMSIS/DSP/Src/StatisticsFunctions/arm_max_q31.c:177:10
	ldr	r0, [sp, #4]
	.loc	12 177 3                        @ ../Middlewares/CMSIS/DSP/Src/StatisticsFunctions/arm_max_q31.c:177:3
	cbz	r0, .LBB9_5
	b	.LBB9_2
.LBB9_2:                                @   in Loop: Header=BB9_1 Depth=1
.Ltmp53:
	.loc	12 180 19 is_stmt 1             @ ../Middlewares/CMSIS/DSP/Src/StatisticsFunctions/arm_max_q31.c:180:19
	ldr	r0, [sp, #28]
	adds	r1, r0, #4
	str	r1, [sp, #28]
	.loc	12 180 14 is_stmt 0             @ ../Middlewares/CMSIS/DSP/Src/StatisticsFunctions/arm_max_q31.c:180:14
	ldr	r0, [r0]
	.loc	12 180 12                       @ ../Middlewares/CMSIS/DSP/Src/StatisticsFunctions/arm_max_q31.c:180:12
	str	r0, [sp, #12]
.Ltmp54:
	.loc	12 183 9 is_stmt 1              @ ../Middlewares/CMSIS/DSP/Src/StatisticsFunctions/arm_max_q31.c:183:9
	ldr	r0, [sp, #8]
	.loc	12 183 15 is_stmt 0             @ ../Middlewares/CMSIS/DSP/Src/StatisticsFunctions/arm_max_q31.c:183:15
	ldr	r1, [sp, #12]
.Ltmp55:
	.loc	12 183 9                        @ ../Middlewares/CMSIS/DSP/Src/StatisticsFunctions/arm_max_q31.c:183:9
	cmp	r0, r1
	bge	.LBB9_4
	b	.LBB9_3
.LBB9_3:                                @   in Loop: Header=BB9_1 Depth=1
.Ltmp56:
	.loc	12 186 13 is_stmt 1             @ ../Middlewares/CMSIS/DSP/Src/StatisticsFunctions/arm_max_q31.c:186:13
	ldr	r0, [sp, #12]
	.loc	12 186 11 is_stmt 0             @ ../Middlewares/CMSIS/DSP/Src/StatisticsFunctions/arm_max_q31.c:186:11
	str	r0, [sp, #8]
	.loc	12 187 18 is_stmt 1             @ ../Middlewares/CMSIS/DSP/Src/StatisticsFunctions/arm_max_q31.c:187:18
	ldr	r0, [sp, #24]
	.loc	12 187 30 is_stmt 0             @ ../Middlewares/CMSIS/DSP/Src/StatisticsFunctions/arm_max_q31.c:187:30
	ldr	r1, [sp, #4]
	.loc	12 187 28                       @ ../Middlewares/CMSIS/DSP/Src/StatisticsFunctions/arm_max_q31.c:187:28
	subs	r0, r0, r1
	.loc	12 187 16                       @ ../Middlewares/CMSIS/DSP/Src/StatisticsFunctions/arm_max_q31.c:187:16
	str	r0, [sp]
	.loc	12 188 5 is_stmt 1              @ ../Middlewares/CMSIS/DSP/Src/StatisticsFunctions/arm_max_q31.c:188:5
	b	.LBB9_4
.Ltmp57:
.LBB9_4:                                @   in Loop: Header=BB9_1 Depth=1
	.loc	12 191 11                       @ ../Middlewares/CMSIS/DSP/Src/StatisticsFunctions/arm_max_q31.c:191:11
	ldr	r0, [sp, #4]
	subs	r0, #1
	str	r0, [sp, #4]
.Ltmp58:
	.loc	12 177 3                        @ ../Middlewares/CMSIS/DSP/Src/StatisticsFunctions/arm_max_q31.c:177:3
	b	.LBB9_1
.LBB9_5:
	.loc	12 195 14                       @ ../Middlewares/CMSIS/DSP/Src/StatisticsFunctions/arm_max_q31.c:195:14
	ldr	r0, [sp, #8]
	.loc	12 195 4 is_stmt 0              @ ../Middlewares/CMSIS/DSP/Src/StatisticsFunctions/arm_max_q31.c:195:4
	ldr	r1, [sp, #20]
	.loc	12 195 12                       @ ../Middlewares/CMSIS/DSP/Src/StatisticsFunctions/arm_max_q31.c:195:12
	str	r0, [r1]
	.loc	12 196 13 is_stmt 1             @ ../Middlewares/CMSIS/DSP/Src/StatisticsFunctions/arm_max_q31.c:196:13
	ldr	r0, [sp]
	.loc	12 196 4 is_stmt 0              @ ../Middlewares/CMSIS/DSP/Src/StatisticsFunctions/arm_max_q31.c:196:4
	ldr	r1, [sp, #16]
	.loc	12 196 11                       @ ../Middlewares/CMSIS/DSP/Src/StatisticsFunctions/arm_max_q31.c:196:11
	str	r0, [r1]
	.loc	12 197 1 is_stmt 1              @ ../Middlewares/CMSIS/DSP/Src/StatisticsFunctions/arm_max_q31.c:197:1
	add	sp, #32
	bx	lr
.Ltmp59:
.Lfunc_end9:
	.size	arm_max_q31, .Lfunc_end9-arm_max_q31
	.cfi_endproc
	.cantunwind
	.fnend
                                        @ -- End function
	.section	.text.arm_max_q7,"ax",%progbits
	.hidden	arm_max_q7                      @ -- Begin function arm_max_q7
	.globl	arm_max_q7
	.p2align	2
	.type	arm_max_q7,%function
	.code	16                              @ @arm_max_q7
	.thumb_func
arm_max_q7:
.Lfunc_begin10:
	.file	13 "D:\\horizon\\Horizon_Infantry (2)\\MDK-ARM" "../Middlewares/CMSIS/DSP/Src/StatisticsFunctions/arm_max_q7.c"
	.loc	13 161 0                        @ ../Middlewares/CMSIS/DSP/Src/StatisticsFunctions/arm_max_q7.c:161:0
	.fnstart
	.cfi_startproc
@ %bb.0:
	.pad	#28
	sub	sp, #28
	.cfi_def_cfa_offset 28
	str	r0, [sp, #24]
	str	r1, [sp, #20]
	str	r2, [sp, #16]
	str	r3, [sp, #12]
	movs	r0, #0
.Ltmp60:
	.loc	13 170 12 prologue_end          @ ../Middlewares/CMSIS/DSP/Src/StatisticsFunctions/arm_max_q7.c:170:12
	str	r0, [sp]
	.loc	13 172 14                       @ ../Middlewares/CMSIS/DSP/Src/StatisticsFunctions/arm_max_q7.c:172:14
	ldr	r0, [sp, #24]
	adds	r1, r0, #1
	str	r1, [sp, #24]
	.loc	13 172 9 is_stmt 0              @ ../Middlewares/CMSIS/DSP/Src/StatisticsFunctions/arm_max_q7.c:172:9
	ldrb	r0, [r0]
	.loc	13 172 7                        @ ../Middlewares/CMSIS/DSP/Src/StatisticsFunctions/arm_max_q7.c:172:7
	strb.w	r0, [sp, #10]
	.loc	13 227 13 is_stmt 1             @ ../Middlewares/CMSIS/DSP/Src/StatisticsFunctions/arm_max_q7.c:227:13
	ldr	r0, [sp, #20]
	.loc	13 227 23 is_stmt 0             @ ../Middlewares/CMSIS/DSP/Src/StatisticsFunctions/arm_max_q7.c:227:23
	subs	r0, #1
	.loc	13 227 10                       @ ../Middlewares/CMSIS/DSP/Src/StatisticsFunctions/arm_max_q7.c:227:10
	str	r0, [sp, #4]
	.loc	13 231 3 is_stmt 1              @ ../Middlewares/CMSIS/DSP/Src/StatisticsFunctions/arm_max_q7.c:231:3
	b	.LBB10_1
.LBB10_1:                               @ =>This Inner Loop Header: Depth=1
	.loc	13 231 10 is_stmt 0             @ ../Middlewares/CMSIS/DSP/Src/StatisticsFunctions/arm_max_q7.c:231:10
	ldr	r0, [sp, #4]
	.loc	13 231 3                        @ ../Middlewares/CMSIS/DSP/Src/StatisticsFunctions/arm_max_q7.c:231:3
	cbz	r0, .LBB10_5
	b	.LBB10_2
.LBB10_2:                               @   in Loop: Header=BB10_1 Depth=1
.Ltmp61:
	.loc	13 234 19 is_stmt 1             @ ../Middlewares/CMSIS/DSP/Src/StatisticsFunctions/arm_max_q7.c:234:19
	ldr	r0, [sp, #24]
	adds	r1, r0, #1
	str	r1, [sp, #24]
	.loc	13 234 14 is_stmt 0             @ ../Middlewares/CMSIS/DSP/Src/StatisticsFunctions/arm_max_q7.c:234:14
	ldrb	r0, [r0]
	.loc	13 234 12                       @ ../Middlewares/CMSIS/DSP/Src/StatisticsFunctions/arm_max_q7.c:234:12
	strb.w	r0, [sp, #11]
.Ltmp62:
	.loc	13 237 9 is_stmt 1              @ ../Middlewares/CMSIS/DSP/Src/StatisticsFunctions/arm_max_q7.c:237:9
	ldrsb.w	r0, [sp, #10]
	.loc	13 237 15 is_stmt 0             @ ../Middlewares/CMSIS/DSP/Src/StatisticsFunctions/arm_max_q7.c:237:15
	ldrsb.w	r1, [sp, #11]
.Ltmp63:
	.loc	13 237 9                        @ ../Middlewares/CMSIS/DSP/Src/StatisticsFunctions/arm_max_q7.c:237:9
	cmp	r0, r1
	bge	.LBB10_4
	b	.LBB10_3
.LBB10_3:                               @   in Loop: Header=BB10_1 Depth=1
.Ltmp64:
	.loc	13 240 13 is_stmt 1             @ ../Middlewares/CMSIS/DSP/Src/StatisticsFunctions/arm_max_q7.c:240:13
	ldrb.w	r0, [sp, #11]
	.loc	13 240 11 is_stmt 0             @ ../Middlewares/CMSIS/DSP/Src/StatisticsFunctions/arm_max_q7.c:240:11
	strb.w	r0, [sp, #10]
	.loc	13 241 18 is_stmt 1             @ ../Middlewares/CMSIS/DSP/Src/StatisticsFunctions/arm_max_q7.c:241:18
	ldr	r0, [sp, #20]
	.loc	13 241 30 is_stmt 0             @ ../Middlewares/CMSIS/DSP/Src/StatisticsFunctions/arm_max_q7.c:241:30
	ldr	r1, [sp, #4]
	.loc	13 241 28                       @ ../Middlewares/CMSIS/DSP/Src/StatisticsFunctions/arm_max_q7.c:241:28
	subs	r0, r0, r1
	.loc	13 241 16                       @ ../Middlewares/CMSIS/DSP/Src/StatisticsFunctions/arm_max_q7.c:241:16
	str	r0, [sp]
	.loc	13 242 5 is_stmt 1              @ ../Middlewares/CMSIS/DSP/Src/StatisticsFunctions/arm_max_q7.c:242:5
	b	.LBB10_4
.Ltmp65:
.LBB10_4:                               @   in Loop: Header=BB10_1 Depth=1
	.loc	13 245 11                       @ ../Middlewares/CMSIS/DSP/Src/StatisticsFunctions/arm_max_q7.c:245:11
	ldr	r0, [sp, #4]
	subs	r0, #1
	str	r0, [sp, #4]
.Ltmp66:
	.loc	13 231 3                        @ ../Middlewares/CMSIS/DSP/Src/StatisticsFunctions/arm_max_q7.c:231:3
	b	.LBB10_1
.LBB10_5:
	.loc	13 249 14                       @ ../Middlewares/CMSIS/DSP/Src/StatisticsFunctions/arm_max_q7.c:249:14
	ldrb.w	r0, [sp, #10]
	.loc	13 249 4 is_stmt 0              @ ../Middlewares/CMSIS/DSP/Src/StatisticsFunctions/arm_max_q7.c:249:4
	ldr	r1, [sp, #16]
	.loc	13 249 12                       @ ../Middlewares/CMSIS/DSP/Src/StatisticsFunctions/arm_max_q7.c:249:12
	strb	r0, [r1]
	.loc	13 250 13 is_stmt 1             @ ../Middlewares/CMSIS/DSP/Src/StatisticsFunctions/arm_max_q7.c:250:13
	ldr	r0, [sp]
	.loc	13 250 4 is_stmt 0              @ ../Middlewares/CMSIS/DSP/Src/StatisticsFunctions/arm_max_q7.c:250:4
	ldr	r1, [sp, #12]
	.loc	13 250 11                       @ ../Middlewares/CMSIS/DSP/Src/StatisticsFunctions/arm_max_q7.c:250:11
	str	r0, [r1]
	.loc	13 251 1 is_stmt 1              @ ../Middlewares/CMSIS/DSP/Src/StatisticsFunctions/arm_max_q7.c:251:1
	add	sp, #28
	bx	lr
.Ltmp67:
.Lfunc_end10:
	.size	arm_max_q7, .Lfunc_end10-arm_max_q7
	.cfi_endproc
	.cantunwind
	.fnend
                                        @ -- End function
	.section	.text.arm_max_no_idx_f32,"ax",%progbits
	.hidden	arm_max_no_idx_f32              @ -- Begin function arm_max_no_idx_f32
	.globl	arm_max_no_idx_f32
	.p2align	2
	.type	arm_max_no_idx_f32,%function
	.code	16                              @ @arm_max_no_idx_f32
	.thumb_func
arm_max_no_idx_f32:
.Lfunc_begin11:
	.file	14 "D:\\horizon\\Horizon_Infantry (2)\\MDK-ARM" "../Middlewares/CMSIS/DSP/Src/StatisticsFunctions/arm_max_no_idx_f32.c"
	.loc	14 113 0                        @ ../Middlewares/CMSIS/DSP/Src/StatisticsFunctions/arm_max_no_idx_f32.c:113:0
	.fnstart
	.cfi_startproc
@ %bb.0:
	.pad	#20
	sub	sp, #20
	.cfi_def_cfa_offset 20
	str	r0, [sp, #16]
	str	r1, [sp, #12]
	str	r2, [sp, #8]
	mvn	r0, #8388608
.Ltmp68:
	.loc	14 114 14 prologue_end          @ ../Middlewares/CMSIS/DSP/Src/StatisticsFunctions/arm_max_no_idx_f32.c:114:14
	str	r0, [sp, #4]
	.loc	14 117 4                        @ ../Middlewares/CMSIS/DSP/Src/StatisticsFunctions/arm_max_no_idx_f32.c:117:4
	b	.LBB11_1
.LBB11_1:                               @ =>This Inner Loop Header: Depth=1
	.loc	14 117 11 is_stmt 0             @ ../Middlewares/CMSIS/DSP/Src/StatisticsFunctions/arm_max_no_idx_f32.c:117:11
	ldr	r0, [sp, #12]
	.loc	14 117 4                        @ ../Middlewares/CMSIS/DSP/Src/StatisticsFunctions/arm_max_no_idx_f32.c:117:4
	cbz	r0, .LBB11_5
	b	.LBB11_2
.LBB11_2:                               @   in Loop: Header=BB11_1 Depth=1
.Ltmp69:
	.loc	14 119 22 is_stmt 1             @ ../Middlewares/CMSIS/DSP/Src/StatisticsFunctions/arm_max_no_idx_f32.c:119:22
	ldr	r0, [sp, #16]
	adds	r1, r0, #4
	str	r1, [sp, #16]
	.loc	14 119 17 is_stmt 0             @ ../Middlewares/CMSIS/DSP/Src/StatisticsFunctions/arm_max_no_idx_f32.c:119:17
	ldr	r0, [r0]
	.loc	14 119 15                       @ ../Middlewares/CMSIS/DSP/Src/StatisticsFunctions/arm_max_no_idx_f32.c:119:15
	str	r0, [sp]
.Ltmp70:
	.loc	14 122 12 is_stmt 1             @ ../Middlewares/CMSIS/DSP/Src/StatisticsFunctions/arm_max_no_idx_f32.c:122:12
	vldr	s0, [sp, #4]
	.loc	14 122 23 is_stmt 0             @ ../Middlewares/CMSIS/DSP/Src/StatisticsFunctions/arm_max_no_idx_f32.c:122:23
	vldr	s2, [sp]
.Ltmp71:
	.loc	14 122 12                       @ ../Middlewares/CMSIS/DSP/Src/StatisticsFunctions/arm_max_no_idx_f32.c:122:12
	vcmp.f32	s0, s2
	vmrs	APSR_nzcv, fpscr
	bge	.LBB11_4
	b	.LBB11_3
.LBB11_3:                               @   in Loop: Header=BB11_1 Depth=1
.Ltmp72:
	.loc	14 125 23 is_stmt 1             @ ../Middlewares/CMSIS/DSP/Src/StatisticsFunctions/arm_max_no_idx_f32.c:125:23
	ldr	r0, [sp]
	.loc	14 125 21 is_stmt 0             @ ../Middlewares/CMSIS/DSP/Src/StatisticsFunctions/arm_max_no_idx_f32.c:125:21
	str	r0, [sp, #4]
	.loc	14 126 8 is_stmt 1              @ ../Middlewares/CMSIS/DSP/Src/StatisticsFunctions/arm_max_no_idx_f32.c:126:8
	b	.LBB11_4
.Ltmp73:
.LBB11_4:                               @   in Loop: Header=BB11_1 Depth=1
	.loc	14 128 18                       @ ../Middlewares/CMSIS/DSP/Src/StatisticsFunctions/arm_max_no_idx_f32.c:128:18
	ldr	r0, [sp, #12]
	subs	r0, #1
	str	r0, [sp, #12]
.Ltmp74:
	.loc	14 117 4                        @ ../Middlewares/CMSIS/DSP/Src/StatisticsFunctions/arm_max_no_idx_f32.c:117:4
	b	.LBB11_1
.LBB11_5:
	.loc	14 131 15                       @ ../Middlewares/CMSIS/DSP/Src/StatisticsFunctions/arm_max_no_idx_f32.c:131:15
	ldr	r0, [sp, #4]
	.loc	14 131 5 is_stmt 0              @ ../Middlewares/CMSIS/DSP/Src/StatisticsFunctions/arm_max_no_idx_f32.c:131:5
	ldr	r1, [sp, #8]
	.loc	14 131 13                       @ ../Middlewares/CMSIS/DSP/Src/StatisticsFunctions/arm_max_no_idx_f32.c:131:13
	str	r0, [r1]
	.loc	14 132 1 is_stmt 1              @ ../Middlewares/CMSIS/DSP/Src/StatisticsFunctions/arm_max_no_idx_f32.c:132:1
	add	sp, #20
	bx	lr
.Ltmp75:
.Lfunc_end11:
	.size	arm_max_no_idx_f32, .Lfunc_end11-arm_max_no_idx_f32
	.cfi_endproc
	.cantunwind
	.fnend
                                        @ -- End function
	.section	.text.arm_max_no_idx_f64,"ax",%progbits
	.hidden	arm_max_no_idx_f64              @ -- Begin function arm_max_no_idx_f64
	.globl	arm_max_no_idx_f64
	.p2align	2
	.type	arm_max_no_idx_f64,%function
	.code	16                              @ @arm_max_no_idx_f64
	.thumb_func
arm_max_no_idx_f64:
.Lfunc_begin12:
	.file	15 "D:\\horizon\\Horizon_Infantry (2)\\MDK-ARM" "../Middlewares/CMSIS/DSP/Src/StatisticsFunctions/arm_max_no_idx_f64.c"
	.loc	15 116 0                        @ ../Middlewares/CMSIS/DSP/Src/StatisticsFunctions/arm_max_no_idx_f64.c:116:0
	.fnstart
	.cfi_startproc
@ %bb.0:
	.save	{r7, lr}
	push	{r7, lr}
	.cfi_def_cfa_offset 8
	.cfi_offset lr, -4
	.cfi_offset r7, -8
	.pad	#32
	sub	sp, #32
	.cfi_def_cfa_offset 40
	str	r0, [sp, #28]
	str	r1, [sp, #24]
	str	r2, [sp, #20]
	mvn	r0, #1048576
.Ltmp76:
	.loc	15 117 15 prologue_end          @ ../Middlewares/CMSIS/DSP/Src/StatisticsFunctions/arm_max_no_idx_f64.c:117:15
	str	r0, [sp, #12]
	mov.w	r0, #-1
	str	r0, [sp, #8]
	.loc	15 120 5                        @ ../Middlewares/CMSIS/DSP/Src/StatisticsFunctions/arm_max_no_idx_f64.c:120:5
	b	.LBB12_1
.LBB12_1:                               @ =>This Inner Loop Header: Depth=1
	.loc	15 120 12 is_stmt 0             @ ../Middlewares/CMSIS/DSP/Src/StatisticsFunctions/arm_max_no_idx_f64.c:120:12
	ldr	r0, [sp, #24]
	.loc	15 120 5                        @ ../Middlewares/CMSIS/DSP/Src/StatisticsFunctions/arm_max_no_idx_f64.c:120:5
	cbz	r0, .LBB12_5
	b	.LBB12_2
.LBB12_2:                               @   in Loop: Header=BB12_1 Depth=1
.Ltmp77:
	.loc	15 122 23 is_stmt 1             @ ../Middlewares/CMSIS/DSP/Src/StatisticsFunctions/arm_max_no_idx_f64.c:122:23
	ldr	r0, [sp, #28]
	add.w	r1, r0, #8
	str	r1, [sp, #28]
	.loc	15 122 18 is_stmt 0             @ ../Middlewares/CMSIS/DSP/Src/StatisticsFunctions/arm_max_no_idx_f64.c:122:18
	vldr	d0, [r0]
	.loc	15 122 16                       @ ../Middlewares/CMSIS/DSP/Src/StatisticsFunctions/arm_max_no_idx_f64.c:122:16
	vstr	d0, [sp]
.Ltmp78:
	.loc	15 125 13 is_stmt 1             @ ../Middlewares/CMSIS/DSP/Src/StatisticsFunctions/arm_max_no_idx_f64.c:125:13
	ldr	r0, [sp, #8]
	ldr	r1, [sp, #12]
	.loc	15 125 24 is_stmt 0             @ ../Middlewares/CMSIS/DSP/Src/StatisticsFunctions/arm_max_no_idx_f64.c:125:24
	ldr	r2, [sp]
	ldr	r3, [sp, #4]
.Ltmp79:
	.loc	15 125 13                       @ ../Middlewares/CMSIS/DSP/Src/StatisticsFunctions/arm_max_no_idx_f64.c:125:13
	bl	__aeabi_dcmpge
	cbnz	r0, .LBB12_4
	b	.LBB12_3
.LBB12_3:                               @   in Loop: Header=BB12_1 Depth=1
.Ltmp80:
	.loc	15 128 24 is_stmt 1             @ ../Middlewares/CMSIS/DSP/Src/StatisticsFunctions/arm_max_no_idx_f64.c:128:24
	vldr	d0, [sp]
	.loc	15 128 22 is_stmt 0             @ ../Middlewares/CMSIS/DSP/Src/StatisticsFunctions/arm_max_no_idx_f64.c:128:22
	vstr	d0, [sp, #8]
	.loc	15 129 9 is_stmt 1              @ ../Middlewares/CMSIS/DSP/Src/StatisticsFunctions/arm_max_no_idx_f64.c:129:9
	b	.LBB12_4
.Ltmp81:
.LBB12_4:                               @   in Loop: Header=BB12_1 Depth=1
	.loc	15 131 19                       @ ../Middlewares/CMSIS/DSP/Src/StatisticsFunctions/arm_max_no_idx_f64.c:131:19
	ldr	r0, [sp, #24]
	subs	r0, #1
	str	r0, [sp, #24]
.Ltmp82:
	.loc	15 120 5                        @ ../Middlewares/CMSIS/DSP/Src/StatisticsFunctions/arm_max_no_idx_f64.c:120:5
	b	.LBB12_1
.LBB12_5:
	.loc	15 134 16                       @ ../Middlewares/CMSIS/DSP/Src/StatisticsFunctions/arm_max_no_idx_f64.c:134:16
	vldr	d0, [sp, #8]
	.loc	15 134 6 is_stmt 0              @ ../Middlewares/CMSIS/DSP/Src/StatisticsFunctions/arm_max_no_idx_f64.c:134:6
	ldr	r0, [sp, #20]
	.loc	15 134 14                       @ ../Middlewares/CMSIS/DSP/Src/StatisticsFunctions/arm_max_no_idx_f64.c:134:14
	vstr	d0, [r0]
	.loc	15 135 1 is_stmt 1              @ ../Middlewares/CMSIS/DSP/Src/StatisticsFunctions/arm_max_no_idx_f64.c:135:1
	add	sp, #32
	pop	{r7, pc}
.Ltmp83:
.Lfunc_end12:
	.size	arm_max_no_idx_f64, .Lfunc_end12-arm_max_no_idx_f64
	.cfi_endproc
	.cantunwind
	.fnend
                                        @ -- End function
	.section	.text.arm_max_no_idx_q31,"ax",%progbits
	.hidden	arm_max_no_idx_q31              @ -- Begin function arm_max_no_idx_q31
	.globl	arm_max_no_idx_q31
	.p2align	2
	.type	arm_max_no_idx_q31,%function
	.code	16                              @ @arm_max_no_idx_q31
	.thumb_func
arm_max_no_idx_q31:
.Lfunc_begin13:
	.file	16 "D:\\horizon\\Horizon_Infantry (2)\\MDK-ARM" "../Middlewares/CMSIS/DSP/Src/StatisticsFunctions/arm_max_no_idx_q31.c"
	.loc	16 109 0                        @ ../Middlewares/CMSIS/DSP/Src/StatisticsFunctions/arm_max_no_idx_q31.c:109:0
	.fnstart
	.cfi_startproc
@ %bb.0:
	.pad	#24
	sub	sp, #24
	.cfi_def_cfa_offset 24
	str	r0, [sp, #20]
	str	r1, [sp, #16]
	str	r2, [sp, #12]
.Ltmp84:
	.loc	16 114 14 prologue_end          @ ../Middlewares/CMSIS/DSP/Src/StatisticsFunctions/arm_max_no_idx_q31.c:114:14
	ldr	r0, [sp, #20]
	adds	r1, r0, #4
	str	r1, [sp, #20]
	.loc	16 114 9 is_stmt 0              @ ../Middlewares/CMSIS/DSP/Src/StatisticsFunctions/arm_max_no_idx_q31.c:114:9
	ldr	r0, [r0]
	.loc	16 114 7                        @ ../Middlewares/CMSIS/DSP/Src/StatisticsFunctions/arm_max_no_idx_q31.c:114:7
	str	r0, [sp, #4]
	.loc	16 116 13 is_stmt 1             @ ../Middlewares/CMSIS/DSP/Src/StatisticsFunctions/arm_max_no_idx_q31.c:116:13
	ldr	r0, [sp, #16]
	.loc	16 116 23 is_stmt 0             @ ../Middlewares/CMSIS/DSP/Src/StatisticsFunctions/arm_max_no_idx_q31.c:116:23
	subs	r0, #1
	.loc	16 116 10                       @ ../Middlewares/CMSIS/DSP/Src/StatisticsFunctions/arm_max_no_idx_q31.c:116:10
	str	r0, [sp]
	.loc	16 119 3 is_stmt 1              @ ../Middlewares/CMSIS/DSP/Src/StatisticsFunctions/arm_max_no_idx_q31.c:119:3
	b	.LBB13_1
.LBB13_1:                               @ =>This Inner Loop Header: Depth=1
	.loc	16 119 10 is_stmt 0             @ ../Middlewares/CMSIS/DSP/Src/StatisticsFunctions/arm_max_no_idx_q31.c:119:10
	ldr	r0, [sp]
	.loc	16 119 3                        @ ../Middlewares/CMSIS/DSP/Src/StatisticsFunctions/arm_max_no_idx_q31.c:119:3
	cbz	r0, .LBB13_5
	b	.LBB13_2
.LBB13_2:                               @   in Loop: Header=BB13_1 Depth=1
.Ltmp85:
	.loc	16 122 20 is_stmt 1             @ ../Middlewares/CMSIS/DSP/Src/StatisticsFunctions/arm_max_no_idx_q31.c:122:20
	ldr	r0, [sp, #20]
	adds	r1, r0, #4
	str	r1, [sp, #20]
	.loc	16 122 15 is_stmt 0             @ ../Middlewares/CMSIS/DSP/Src/StatisticsFunctions/arm_max_no_idx_q31.c:122:15
	ldr	r0, [r0]
	.loc	16 122 13                       @ ../Middlewares/CMSIS/DSP/Src/StatisticsFunctions/arm_max_no_idx_q31.c:122:13
	str	r0, [sp, #8]
.Ltmp86:
	.loc	16 125 9 is_stmt 1              @ ../Middlewares/CMSIS/DSP/Src/StatisticsFunctions/arm_max_no_idx_q31.c:125:9
	ldr	r0, [sp, #4]
	.loc	16 125 15 is_stmt 0             @ ../Middlewares/CMSIS/DSP/Src/StatisticsFunctions/arm_max_no_idx_q31.c:125:15
	ldr	r1, [sp, #8]
.Ltmp87:
	.loc	16 125 9                        @ ../Middlewares/CMSIS/DSP/Src/StatisticsFunctions/arm_max_no_idx_q31.c:125:9
	cmp	r0, r1
	bge	.LBB13_4
	b	.LBB13_3
.LBB13_3:                               @   in Loop: Header=BB13_1 Depth=1
.Ltmp88:
	.loc	16 128 13 is_stmt 1             @ ../Middlewares/CMSIS/DSP/Src/StatisticsFunctions/arm_max_no_idx_q31.c:128:13
	ldr	r0, [sp, #8]
	.loc	16 128 11 is_stmt 0             @ ../Middlewares/CMSIS/DSP/Src/StatisticsFunctions/arm_max_no_idx_q31.c:128:11
	str	r0, [sp, #4]
	.loc	16 129 5 is_stmt 1              @ ../Middlewares/CMSIS/DSP/Src/StatisticsFunctions/arm_max_no_idx_q31.c:129:5
	b	.LBB13_4
.Ltmp89:
.LBB13_4:                               @   in Loop: Header=BB13_1 Depth=1
	.loc	16 132 11                       @ ../Middlewares/CMSIS/DSP/Src/StatisticsFunctions/arm_max_no_idx_q31.c:132:11
	ldr	r0, [sp]
	subs	r0, #1
	str	r0, [sp]
.Ltmp90:
	.loc	16 119 3                        @ ../Middlewares/CMSIS/DSP/Src/StatisticsFunctions/arm_max_no_idx_q31.c:119:3
	b	.LBB13_1
.LBB13_5:
	.loc	16 136 14                       @ ../Middlewares/CMSIS/DSP/Src/StatisticsFunctions/arm_max_no_idx_q31.c:136:14
	ldr	r0, [sp, #4]
	.loc	16 136 4 is_stmt 0              @ ../Middlewares/CMSIS/DSP/Src/StatisticsFunctions/arm_max_no_idx_q31.c:136:4
	ldr	r1, [sp, #12]
	.loc	16 136 12                       @ ../Middlewares/CMSIS/DSP/Src/StatisticsFunctions/arm_max_no_idx_q31.c:136:12
	str	r0, [r1]
	.loc	16 137 1 is_stmt 1              @ ../Middlewares/CMSIS/DSP/Src/StatisticsFunctions/arm_max_no_idx_q31.c:137:1
	add	sp, #24
	bx	lr
.Ltmp91:
.Lfunc_end13:
	.size	arm_max_no_idx_q31, .Lfunc_end13-arm_max_no_idx_q31
	.cfi_endproc
	.cantunwind
	.fnend
                                        @ -- End function
	.section	.text.arm_max_no_idx_q15,"ax",%progbits
	.hidden	arm_max_no_idx_q15              @ -- Begin function arm_max_no_idx_q15
	.globl	arm_max_no_idx_q15
	.p2align	2
	.type	arm_max_no_idx_q15,%function
	.code	16                              @ @arm_max_no_idx_q15
	.thumb_func
arm_max_no_idx_q15:
.Lfunc_begin14:
	.file	17 "D:\\horizon\\Horizon_Infantry (2)\\MDK-ARM" "../Middlewares/CMSIS/DSP/Src/StatisticsFunctions/arm_max_no_idx_q15.c"
	.loc	17 109 0                        @ ../Middlewares/CMSIS/DSP/Src/StatisticsFunctions/arm_max_no_idx_q15.c:109:0
	.fnstart
	.cfi_startproc
@ %bb.0:
	.pad	#20
	sub	sp, #20
	.cfi_def_cfa_offset 20
	str	r0, [sp, #16]
	str	r1, [sp, #12]
	str	r2, [sp, #8]
.Ltmp92:
	.loc	17 114 14 prologue_end          @ ../Middlewares/CMSIS/DSP/Src/StatisticsFunctions/arm_max_no_idx_q15.c:114:14
	ldr	r0, [sp, #16]
	adds	r1, r0, #2
	str	r1, [sp, #16]
	.loc	17 114 9 is_stmt 0              @ ../Middlewares/CMSIS/DSP/Src/StatisticsFunctions/arm_max_no_idx_q15.c:114:9
	ldrh	r0, [r0]
	.loc	17 114 7                        @ ../Middlewares/CMSIS/DSP/Src/StatisticsFunctions/arm_max_no_idx_q15.c:114:7
	strh.w	r0, [sp, #4]
	.loc	17 116 13 is_stmt 1             @ ../Middlewares/CMSIS/DSP/Src/StatisticsFunctions/arm_max_no_idx_q15.c:116:13
	ldr	r0, [sp, #12]
	.loc	17 116 23 is_stmt 0             @ ../Middlewares/CMSIS/DSP/Src/StatisticsFunctions/arm_max_no_idx_q15.c:116:23
	subs	r0, #1
	.loc	17 116 10                       @ ../Middlewares/CMSIS/DSP/Src/StatisticsFunctions/arm_max_no_idx_q15.c:116:10
	str	r0, [sp]
	.loc	17 119 3 is_stmt 1              @ ../Middlewares/CMSIS/DSP/Src/StatisticsFunctions/arm_max_no_idx_q15.c:119:3
	b	.LBB14_1
.LBB14_1:                               @ =>This Inner Loop Header: Depth=1
	.loc	17 119 10 is_stmt 0             @ ../Middlewares/CMSIS/DSP/Src/StatisticsFunctions/arm_max_no_idx_q15.c:119:10
	ldr	r0, [sp]
	.loc	17 119 3                        @ ../Middlewares/CMSIS/DSP/Src/StatisticsFunctions/arm_max_no_idx_q15.c:119:3
	cbz	r0, .LBB14_5
	b	.LBB14_2
.LBB14_2:                               @   in Loop: Header=BB14_1 Depth=1
.Ltmp93:
	.loc	17 122 20 is_stmt 1             @ ../Middlewares/CMSIS/DSP/Src/StatisticsFunctions/arm_max_no_idx_q15.c:122:20
	ldr	r0, [sp, #16]
	adds	r1, r0, #2
	str	r1, [sp, #16]
	.loc	17 122 15 is_stmt 0             @ ../Middlewares/CMSIS/DSP/Src/StatisticsFunctions/arm_max_no_idx_q15.c:122:15
	ldrh	r0, [r0]
	.loc	17 122 13                       @ ../Middlewares/CMSIS/DSP/Src/StatisticsFunctions/arm_max_no_idx_q15.c:122:13
	strh.w	r0, [sp, #6]
.Ltmp94:
	.loc	17 125 9 is_stmt 1              @ ../Middlewares/CMSIS/DSP/Src/StatisticsFunctions/arm_max_no_idx_q15.c:125:9
	ldrsh.w	r0, [sp, #4]
	.loc	17 125 15 is_stmt 0             @ ../Middlewares/CMSIS/DSP/Src/StatisticsFunctions/arm_max_no_idx_q15.c:125:15
	ldrsh.w	r1, [sp, #6]
.Ltmp95:
	.loc	17 125 9                        @ ../Middlewares/CMSIS/DSP/Src/StatisticsFunctions/arm_max_no_idx_q15.c:125:9
	cmp	r0, r1
	bge	.LBB14_4
	b	.LBB14_3
.LBB14_3:                               @   in Loop: Header=BB14_1 Depth=1
.Ltmp96:
	.loc	17 128 13 is_stmt 1             @ ../Middlewares/CMSIS/DSP/Src/StatisticsFunctions/arm_max_no_idx_q15.c:128:13
	ldrh.w	r0, [sp, #6]
	.loc	17 128 11 is_stmt 0             @ ../Middlewares/CMSIS/DSP/Src/StatisticsFunctions/arm_max_no_idx_q15.c:128:11
	strh.w	r0, [sp, #4]
	.loc	17 129 5 is_stmt 1              @ ../Middlewares/CMSIS/DSP/Src/StatisticsFunctions/arm_max_no_idx_q15.c:129:5
	b	.LBB14_4
.Ltmp97:
.LBB14_4:                               @   in Loop: Header=BB14_1 Depth=1
	.loc	17 132 11                       @ ../Middlewares/CMSIS/DSP/Src/StatisticsFunctions/arm_max_no_idx_q15.c:132:11
	ldr	r0, [sp]
	subs	r0, #1
	str	r0, [sp]
.Ltmp98:
	.loc	17 119 3                        @ ../Middlewares/CMSIS/DSP/Src/StatisticsFunctions/arm_max_no_idx_q15.c:119:3
	b	.LBB14_1
.LBB14_5:
	.loc	17 136 14                       @ ../Middlewares/CMSIS/DSP/Src/StatisticsFunctions/arm_max_no_idx_q15.c:136:14
	ldrh.w	r0, [sp, #4]
	.loc	17 136 4 is_stmt 0              @ ../Middlewares/CMSIS/DSP/Src/StatisticsFunctions/arm_max_no_idx_q15.c:136:4
	ldr	r1, [sp, #8]
	.loc	17 136 12                       @ ../Middlewares/CMSIS/DSP/Src/StatisticsFunctions/arm_max_no_idx_q15.c:136:12
	strh	r0, [r1]
	.loc	17 137 1 is_stmt 1              @ ../Middlewares/CMSIS/DSP/Src/StatisticsFunctions/arm_max_no_idx_q15.c:137:1
	add	sp, #20
	bx	lr
.Ltmp99:
.Lfunc_end14:
	.size	arm_max_no_idx_q15, .Lfunc_end14-arm_max_no_idx_q15
	.cfi_endproc
	.cantunwind
	.fnend
                                        @ -- End function
	.section	.text.arm_max_no_idx_q7,"ax",%progbits
	.hidden	arm_max_no_idx_q7               @ -- Begin function arm_max_no_idx_q7
	.globl	arm_max_no_idx_q7
	.p2align	2
	.type	arm_max_no_idx_q7,%function
	.code	16                              @ @arm_max_no_idx_q7
	.thumb_func
arm_max_no_idx_q7:
.Lfunc_begin15:
	.file	18 "D:\\horizon\\Horizon_Infantry (2)\\MDK-ARM" "../Middlewares/CMSIS/DSP/Src/StatisticsFunctions/arm_max_no_idx_q7.c"
	.loc	18 110 0                        @ ../Middlewares/CMSIS/DSP/Src/StatisticsFunctions/arm_max_no_idx_q7.c:110:0
	.fnstart
	.cfi_startproc
@ %bb.0:
	.pad	#20
	sub	sp, #20
	.cfi_def_cfa_offset 20
	str	r0, [sp, #16]
	str	r1, [sp, #12]
	str	r2, [sp, #8]
.Ltmp100:
	.loc	18 115 14 prologue_end          @ ../Middlewares/CMSIS/DSP/Src/StatisticsFunctions/arm_max_no_idx_q7.c:115:14
	ldr	r0, [sp, #16]
	adds	r1, r0, #1
	str	r1, [sp, #16]
	.loc	18 115 9 is_stmt 0              @ ../Middlewares/CMSIS/DSP/Src/StatisticsFunctions/arm_max_no_idx_q7.c:115:9
	ldrb	r0, [r0]
	.loc	18 115 7                        @ ../Middlewares/CMSIS/DSP/Src/StatisticsFunctions/arm_max_no_idx_q7.c:115:7
	strb.w	r0, [sp, #6]
	.loc	18 117 13 is_stmt 1             @ ../Middlewares/CMSIS/DSP/Src/StatisticsFunctions/arm_max_no_idx_q7.c:117:13
	ldr	r0, [sp, #12]
	.loc	18 117 23 is_stmt 0             @ ../Middlewares/CMSIS/DSP/Src/StatisticsFunctions/arm_max_no_idx_q7.c:117:23
	subs	r0, #1
	.loc	18 117 10                       @ ../Middlewares/CMSIS/DSP/Src/StatisticsFunctions/arm_max_no_idx_q7.c:117:10
	str	r0, [sp]
	.loc	18 120 3 is_stmt 1              @ ../Middlewares/CMSIS/DSP/Src/StatisticsFunctions/arm_max_no_idx_q7.c:120:3
	b	.LBB15_1
.LBB15_1:                               @ =>This Inner Loop Header: Depth=1
	.loc	18 120 10 is_stmt 0             @ ../Middlewares/CMSIS/DSP/Src/StatisticsFunctions/arm_max_no_idx_q7.c:120:10
	ldr	r0, [sp]
	.loc	18 120 3                        @ ../Middlewares/CMSIS/DSP/Src/StatisticsFunctions/arm_max_no_idx_q7.c:120:3
	cbz	r0, .LBB15_5
	b	.LBB15_2
.LBB15_2:                               @   in Loop: Header=BB15_1 Depth=1
.Ltmp101:
	.loc	18 123 20 is_stmt 1             @ ../Middlewares/CMSIS/DSP/Src/StatisticsFunctions/arm_max_no_idx_q7.c:123:20
	ldr	r0, [sp, #16]
	adds	r1, r0, #1
	str	r1, [sp, #16]
	.loc	18 123 15 is_stmt 0             @ ../Middlewares/CMSIS/DSP/Src/StatisticsFunctions/arm_max_no_idx_q7.c:123:15
	ldrb	r0, [r0]
	.loc	18 123 13                       @ ../Middlewares/CMSIS/DSP/Src/StatisticsFunctions/arm_max_no_idx_q7.c:123:13
	strb.w	r0, [sp, #7]
.Ltmp102:
	.loc	18 126 9 is_stmt 1              @ ../Middlewares/CMSIS/DSP/Src/StatisticsFunctions/arm_max_no_idx_q7.c:126:9
	ldrsb.w	r0, [sp, #6]
	.loc	18 126 15 is_stmt 0             @ ../Middlewares/CMSIS/DSP/Src/StatisticsFunctions/arm_max_no_idx_q7.c:126:15
	ldrsb.w	r1, [sp, #7]
.Ltmp103:
	.loc	18 126 9                        @ ../Middlewares/CMSIS/DSP/Src/StatisticsFunctions/arm_max_no_idx_q7.c:126:9
	cmp	r0, r1
	bge	.LBB15_4
	b	.LBB15_3
.LBB15_3:                               @   in Loop: Header=BB15_1 Depth=1
.Ltmp104:
	.loc	18 129 13 is_stmt 1             @ ../Middlewares/CMSIS/DSP/Src/StatisticsFunctions/arm_max_no_idx_q7.c:129:13
	ldrb.w	r0, [sp, #7]
	.loc	18 129 11 is_stmt 0             @ ../Middlewares/CMSIS/DSP/Src/StatisticsFunctions/arm_max_no_idx_q7.c:129:11
	strb.w	r0, [sp, #6]
	.loc	18 130 5 is_stmt 1              @ ../Middlewares/CMSIS/DSP/Src/StatisticsFunctions/arm_max_no_idx_q7.c:130:5
	b	.LBB15_4
.Ltmp105:
.LBB15_4:                               @   in Loop: Header=BB15_1 Depth=1
	.loc	18 133 11                       @ ../Middlewares/CMSIS/DSP/Src/StatisticsFunctions/arm_max_no_idx_q7.c:133:11
	ldr	r0, [sp]
	subs	r0, #1
	str	r0, [sp]
.Ltmp106:
	.loc	18 120 3                        @ ../Middlewares/CMSIS/DSP/Src/StatisticsFunctions/arm_max_no_idx_q7.c:120:3
	b	.LBB15_1
.LBB15_5:
	.loc	18 137 14                       @ ../Middlewares/CMSIS/DSP/Src/StatisticsFunctions/arm_max_no_idx_q7.c:137:14
	ldrb.w	r0, [sp, #6]
	.loc	18 137 4 is_stmt 0              @ ../Middlewares/CMSIS/DSP/Src/StatisticsFunctions/arm_max_no_idx_q7.c:137:4
	ldr	r1, [sp, #8]
	.loc	18 137 12                       @ ../Middlewares/CMSIS/DSP/Src/StatisticsFunctions/arm_max_no_idx_q7.c:137:12
	strb	r0, [r1]
	.loc	18 138 1 is_stmt 1              @ ../Middlewares/CMSIS/DSP/Src/StatisticsFunctions/arm_max_no_idx_q7.c:138:1
	add	sp, #20
	bx	lr
.Ltmp107:
.Lfunc_end15:
	.size	arm_max_no_idx_q7, .Lfunc_end15-arm_max_no_idx_q7
	.cfi_endproc
	.cantunwind
	.fnend
                                        @ -- End function
	.section	.text.arm_mean_f32,"ax",%progbits
	.hidden	arm_mean_f32                    @ -- Begin function arm_mean_f32
	.globl	arm_mean_f32
	.p2align	2
	.type	arm_mean_f32,%function
	.code	16                              @ @arm_mean_f32
	.thumb_func
arm_mean_f32:
.Lfunc_begin16:
	.file	19 "D:\\horizon\\Horizon_Infantry (2)\\MDK-ARM" "../Middlewares/CMSIS/DSP/Src/StatisticsFunctions/arm_mean_f32.c"
	.loc	19 146 0                        @ ../Middlewares/CMSIS/DSP/Src/StatisticsFunctions/arm_mean_f32.c:146:0
	.fnstart
	.cfi_startproc
@ %bb.0:
	.pad	#20
	sub	sp, #20
	.cfi_def_cfa_offset 20
	str	r0, [sp, #16]
	str	r1, [sp, #12]
	str	r2, [sp, #8]
	movs	r0, #0
.Ltmp108:
	.loc	19 148 19 prologue_end          @ ../Middlewares/CMSIS/DSP/Src/StatisticsFunctions/arm_mean_f32.c:148:19
	str	r0, [sp]
	.loc	19 176 12                       @ ../Middlewares/CMSIS/DSP/Src/StatisticsFunctions/arm_mean_f32.c:176:12
	ldr	r0, [sp, #12]
	.loc	19 176 10 is_stmt 0             @ ../Middlewares/CMSIS/DSP/Src/StatisticsFunctions/arm_mean_f32.c:176:10
	str	r0, [sp, #4]
	.loc	19 180 3 is_stmt 1              @ ../Middlewares/CMSIS/DSP/Src/StatisticsFunctions/arm_mean_f32.c:180:3
	b	.LBB16_1
.LBB16_1:                               @ =>This Inner Loop Header: Depth=1
	.loc	19 180 10 is_stmt 0             @ ../Middlewares/CMSIS/DSP/Src/StatisticsFunctions/arm_mean_f32.c:180:10
	ldr	r0, [sp, #4]
	.loc	19 180 3                        @ ../Middlewares/CMSIS/DSP/Src/StatisticsFunctions/arm_mean_f32.c:180:3
	cbz	r0, .LBB16_3
	b	.LBB16_2
.LBB16_2:                               @   in Loop: Header=BB16_1 Depth=1
.Ltmp109:
	.loc	19 183 17 is_stmt 1             @ ../Middlewares/CMSIS/DSP/Src/StatisticsFunctions/arm_mean_f32.c:183:17
	ldr	r0, [sp, #16]
	adds	r1, r0, #4
	str	r1, [sp, #16]
	.loc	19 183 12 is_stmt 0             @ ../Middlewares/CMSIS/DSP/Src/StatisticsFunctions/arm_mean_f32.c:183:12
	vldr	s2, [r0]
	.loc	19 183 9                        @ ../Middlewares/CMSIS/DSP/Src/StatisticsFunctions/arm_mean_f32.c:183:9
	vldr	s0, [sp]
	vadd.f32	s0, s0, s2
	vstr	s0, [sp]
	.loc	19 186 11 is_stmt 1             @ ../Middlewares/CMSIS/DSP/Src/StatisticsFunctions/arm_mean_f32.c:186:11
	ldr	r0, [sp, #4]
	subs	r0, #1
	str	r0, [sp, #4]
.Ltmp110:
	.loc	19 180 3                        @ ../Middlewares/CMSIS/DSP/Src/StatisticsFunctions/arm_mean_f32.c:180:3
	b	.LBB16_1
.LBB16_3:
	.loc	19 191 15                       @ ../Middlewares/CMSIS/DSP/Src/StatisticsFunctions/arm_mean_f32.c:191:15
	vldr	s0, [sp]
	.loc	19 191 21 is_stmt 0             @ ../Middlewares/CMSIS/DSP/Src/StatisticsFunctions/arm_mean_f32.c:191:21
	vldr	s2, [sp, #12]
	vcvt.f32.u32	s2, s2
	.loc	19 191 19                       @ ../Middlewares/CMSIS/DSP/Src/StatisticsFunctions/arm_mean_f32.c:191:19
	vdiv.f32	s0, s0, s2
	.loc	19 191 4                        @ ../Middlewares/CMSIS/DSP/Src/StatisticsFunctions/arm_mean_f32.c:191:4
	ldr	r0, [sp, #8]
	.loc	19 191 12                       @ ../Middlewares/CMSIS/DSP/Src/StatisticsFunctions/arm_mean_f32.c:191:12
	vstr	s0, [r0]
	.loc	19 192 1 is_stmt 1              @ ../Middlewares/CMSIS/DSP/Src/StatisticsFunctions/arm_mean_f32.c:192:1
	add	sp, #20
	bx	lr
.Ltmp111:
.Lfunc_end16:
	.size	arm_mean_f32, .Lfunc_end16-arm_mean_f32
	.cfi_endproc
	.cantunwind
	.fnend
                                        @ -- End function
	.section	.text.arm_mean_f64,"ax",%progbits
	.hidden	arm_mean_f64                    @ -- Begin function arm_mean_f64
	.globl	arm_mean_f64
	.p2align	2
	.type	arm_mean_f64,%function
	.code	16                              @ @arm_mean_f64
	.thumb_func
arm_mean_f64:
.Lfunc_begin17:
	.file	20 "D:\\horizon\\Horizon_Infantry (2)\\MDK-ARM" "../Middlewares/CMSIS/DSP/Src/StatisticsFunctions/arm_mean_f64.c"
	.loc	20 95 0                         @ ../Middlewares/CMSIS/DSP/Src/StatisticsFunctions/arm_mean_f64.c:95:0
	.fnstart
	.cfi_startproc
@ %bb.0:
	.save	{r7, lr}
	push	{r7, lr}
	.cfi_def_cfa_offset 8
	.cfi_offset lr, -4
	.cfi_offset r7, -8
	.pad	#32
	sub	sp, #32
	.cfi_def_cfa_offset 40
	str	r0, [sp, #28]
	str	r1, [sp, #24]
	str	r2, [sp, #20]
	movs	r0, #0
.Ltmp112:
	.loc	20 97 15 prologue_end           @ ../Middlewares/CMSIS/DSP/Src/StatisticsFunctions/arm_mean_f64.c:97:15
	str	r0, [sp, #12]
	str	r0, [sp, #8]
	.loc	20 100 14                       @ ../Middlewares/CMSIS/DSP/Src/StatisticsFunctions/arm_mean_f64.c:100:14
	ldr	r0, [sp, #24]
	.loc	20 100 12 is_stmt 0             @ ../Middlewares/CMSIS/DSP/Src/StatisticsFunctions/arm_mean_f64.c:100:12
	str	r0, [sp, #16]
	.loc	20 102 5 is_stmt 1              @ ../Middlewares/CMSIS/DSP/Src/StatisticsFunctions/arm_mean_f64.c:102:5
	b	.LBB17_1
.LBB17_1:                               @ =>This Inner Loop Header: Depth=1
	.loc	20 102 12 is_stmt 0             @ ../Middlewares/CMSIS/DSP/Src/StatisticsFunctions/arm_mean_f64.c:102:12
	ldr	r0, [sp, #16]
	.loc	20 102 5                        @ ../Middlewares/CMSIS/DSP/Src/StatisticsFunctions/arm_mean_f64.c:102:5
	cbz	r0, .LBB17_3
	b	.LBB17_2
.LBB17_2:                               @   in Loop: Header=BB17_1 Depth=1
.Ltmp113:
	.loc	20 105 21 is_stmt 1             @ ../Middlewares/CMSIS/DSP/Src/StatisticsFunctions/arm_mean_f64.c:105:21
	ldr	r0, [sp, #28]
	add.w	r1, r0, #8
	str	r1, [sp, #28]
	.loc	20 105 16 is_stmt 0             @ ../Middlewares/CMSIS/DSP/Src/StatisticsFunctions/arm_mean_f64.c:105:16
	vldr	d0, [r0]
	.loc	20 105 13                       @ ../Middlewares/CMSIS/DSP/Src/StatisticsFunctions/arm_mean_f64.c:105:13
	vldr	d1, [sp, #8]
	vmov	r0, r1, d1
	vmov	r2, r3, d0
	bl	__aeabi_dadd
	vmov	d0, r0, r1
	vstr	d0, [sp, #8]
	.loc	20 108 15 is_stmt 1             @ ../Middlewares/CMSIS/DSP/Src/StatisticsFunctions/arm_mean_f64.c:108:15
	ldr	r0, [sp, #16]
	subs	r0, #1
	str	r0, [sp, #16]
.Ltmp114:
	.loc	20 102 5                        @ ../Middlewares/CMSIS/DSP/Src/StatisticsFunctions/arm_mean_f64.c:102:5
	b	.LBB17_1
.LBB17_3:
	.loc	20 113 17                       @ ../Middlewares/CMSIS/DSP/Src/StatisticsFunctions/arm_mean_f64.c:113:17
	vldr	d0, [sp, #8]
	vstr	d0, [sp]                        @ 8-byte Spill
	.loc	20 113 23 is_stmt 0             @ ../Middlewares/CMSIS/DSP/Src/StatisticsFunctions/arm_mean_f64.c:113:23
	ldr	r0, [sp, #24]
	bl	__aeabi_ui2d
	vldr	d1, [sp]                        @ 8-byte Reload
	vmov	d0, r0, r1
	.loc	20 113 21                       @ ../Middlewares/CMSIS/DSP/Src/StatisticsFunctions/arm_mean_f64.c:113:21
	vmov	r0, r1, d1
	vmov	r2, r3, d0
	bl	__aeabi_ddiv
	vmov	d0, r0, r1
	.loc	20 113 6                        @ ../Middlewares/CMSIS/DSP/Src/StatisticsFunctions/arm_mean_f64.c:113:6
	ldr	r0, [sp, #20]
	.loc	20 113 14                       @ ../Middlewares/CMSIS/DSP/Src/StatisticsFunctions/arm_mean_f64.c:113:14
	vstr	d0, [r0]
	.loc	20 114 1 is_stmt 1              @ ../Middlewares/CMSIS/DSP/Src/StatisticsFunctions/arm_mean_f64.c:114:1
	add	sp, #32
	pop	{r7, pc}
.Ltmp115:
.Lfunc_end17:
	.size	arm_mean_f64, .Lfunc_end17-arm_mean_f64
	.cfi_endproc
	.cantunwind
	.fnend
                                        @ -- End function
	.section	.text.arm_mean_q15,"ax",%progbits
	.hidden	arm_mean_q15                    @ -- Begin function arm_mean_q15
	.globl	arm_mean_q15
	.p2align	2
	.type	arm_mean_q15,%function
	.code	16                              @ @arm_mean_q15
	.thumb_func
arm_mean_q15:
.Lfunc_begin18:
	.file	21 "D:\\horizon\\Horizon_Infantry (2)\\MDK-ARM" "../Middlewares/CMSIS/DSP/Src/StatisticsFunctions/arm_mean_q15.c"
	.loc	21 101 0                        @ ../Middlewares/CMSIS/DSP/Src/StatisticsFunctions/arm_mean_q15.c:101:0
	.fnstart
	.cfi_startproc
@ %bb.0:
	.pad	#20
	sub	sp, #20
	.cfi_def_cfa_offset 20
	str	r0, [sp, #16]
	str	r1, [sp, #12]
	str	r2, [sp, #8]
	movs	r0, #0
.Ltmp116:
	.loc	21 103 15 prologue_end          @ ../Middlewares/CMSIS/DSP/Src/StatisticsFunctions/arm_mean_q15.c:103:15
	str	r0, [sp]
	.loc	21 135 12                       @ ../Middlewares/CMSIS/DSP/Src/StatisticsFunctions/arm_mean_q15.c:135:12
	ldr	r0, [sp, #12]
	.loc	21 135 10 is_stmt 0             @ ../Middlewares/CMSIS/DSP/Src/StatisticsFunctions/arm_mean_q15.c:135:10
	str	r0, [sp, #4]
	.loc	21 139 3 is_stmt 1              @ ../Middlewares/CMSIS/DSP/Src/StatisticsFunctions/arm_mean_q15.c:139:3
	b	.LBB18_1
.LBB18_1:                               @ =>This Inner Loop Header: Depth=1
	.loc	21 139 10 is_stmt 0             @ ../Middlewares/CMSIS/DSP/Src/StatisticsFunctions/arm_mean_q15.c:139:10
	ldr	r0, [sp, #4]
	.loc	21 139 3                        @ ../Middlewares/CMSIS/DSP/Src/StatisticsFunctions/arm_mean_q15.c:139:3
	cbz	r0, .LBB18_3
	b	.LBB18_2
.LBB18_2:                               @   in Loop: Header=BB18_1 Depth=1
.Ltmp117:
	.loc	21 142 17 is_stmt 1             @ ../Middlewares/CMSIS/DSP/Src/StatisticsFunctions/arm_mean_q15.c:142:17
	ldr	r0, [sp, #16]
	adds	r1, r0, #2
	str	r1, [sp, #16]
	.loc	21 142 12 is_stmt 0             @ ../Middlewares/CMSIS/DSP/Src/StatisticsFunctions/arm_mean_q15.c:142:12
	ldrsh.w	r1, [r0]
	.loc	21 142 9                        @ ../Middlewares/CMSIS/DSP/Src/StatisticsFunctions/arm_mean_q15.c:142:9
	ldr	r0, [sp]
	add	r0, r1
	str	r0, [sp]
	.loc	21 145 11 is_stmt 1             @ ../Middlewares/CMSIS/DSP/Src/StatisticsFunctions/arm_mean_q15.c:145:11
	ldr	r0, [sp, #4]
	subs	r0, #1
	str	r0, [sp, #4]
.Ltmp118:
	.loc	21 139 3                        @ ../Middlewares/CMSIS/DSP/Src/StatisticsFunctions/arm_mean_q15.c:139:3
	b	.LBB18_1
.LBB18_3:
	.loc	21 150 23                       @ ../Middlewares/CMSIS/DSP/Src/StatisticsFunctions/arm_mean_q15.c:150:23
	ldr	r0, [sp]
	.loc	21 150 39 is_stmt 0             @ ../Middlewares/CMSIS/DSP/Src/StatisticsFunctions/arm_mean_q15.c:150:39
	ldr	r1, [sp, #12]
	.loc	21 150 27                       @ ../Middlewares/CMSIS/DSP/Src/StatisticsFunctions/arm_mean_q15.c:150:27
	sdiv	r0, r0, r1
	.loc	21 150 4                        @ ../Middlewares/CMSIS/DSP/Src/StatisticsFunctions/arm_mean_q15.c:150:4
	ldr	r1, [sp, #8]
	.loc	21 150 12                       @ ../Middlewares/CMSIS/DSP/Src/StatisticsFunctions/arm_mean_q15.c:150:12
	strh	r0, [r1]
	.loc	21 151 1 is_stmt 1              @ ../Middlewares/CMSIS/DSP/Src/StatisticsFunctions/arm_mean_q15.c:151:1
	add	sp, #20
	bx	lr
.Ltmp119:
.Lfunc_end18:
	.size	arm_mean_q15, .Lfunc_end18-arm_mean_q15
	.cfi_endproc
	.cantunwind
	.fnend
                                        @ -- End function
	.section	.text.arm_mean_q31,"ax",%progbits
	.hidden	arm_mean_q31                    @ -- Begin function arm_mean_q31
	.globl	arm_mean_q31
	.p2align	2
	.type	arm_mean_q31,%function
	.code	16                              @ @arm_mean_q31
	.thumb_func
arm_mean_q31:
.Lfunc_begin19:
	.file	22 "D:\\horizon\\Horizon_Infantry (2)\\MDK-ARM" "../Middlewares/CMSIS/DSP/Src/StatisticsFunctions/arm_mean_q31.c"
	.loc	22 98 0                         @ ../Middlewares/CMSIS/DSP/Src/StatisticsFunctions/arm_mean_q31.c:98:0
	.fnstart
	.cfi_startproc
@ %bb.0:
	.save	{r7, lr}
	push	{r7, lr}
	.cfi_def_cfa_offset 8
	.cfi_offset lr, -4
	.cfi_offset r7, -8
	.pad	#24
	sub	sp, #24
	.cfi_def_cfa_offset 32
	str	r0, [sp, #20]
	str	r1, [sp, #16]
	str	r2, [sp, #12]
	movs	r0, #0
.Ltmp120:
	.loc	22 100 15 prologue_end          @ ../Middlewares/CMSIS/DSP/Src/StatisticsFunctions/arm_mean_q31.c:100:15
	str	r0, [sp, #4]
	str	r0, [sp]
	.loc	22 128 12                       @ ../Middlewares/CMSIS/DSP/Src/StatisticsFunctions/arm_mean_q31.c:128:12
	ldr	r0, [sp, #16]
	.loc	22 128 10 is_stmt 0             @ ../Middlewares/CMSIS/DSP/Src/StatisticsFunctions/arm_mean_q31.c:128:10
	str	r0, [sp, #8]
	.loc	22 132 3 is_stmt 1              @ ../Middlewares/CMSIS/DSP/Src/StatisticsFunctions/arm_mean_q31.c:132:3
	b	.LBB19_1
.LBB19_1:                               @ =>This Inner Loop Header: Depth=1
	.loc	22 132 10 is_stmt 0             @ ../Middlewares/CMSIS/DSP/Src/StatisticsFunctions/arm_mean_q31.c:132:10
	ldr	r0, [sp, #8]
	.loc	22 132 3                        @ ../Middlewares/CMSIS/DSP/Src/StatisticsFunctions/arm_mean_q31.c:132:3
	cbz	r0, .LBB19_3
	b	.LBB19_2
.LBB19_2:                               @   in Loop: Header=BB19_1 Depth=1
.Ltmp121:
	.loc	22 135 17 is_stmt 1             @ ../Middlewares/CMSIS/DSP/Src/StatisticsFunctions/arm_mean_q31.c:135:17
	ldr	r0, [sp, #20]
	adds	r1, r0, #4
	str	r1, [sp, #20]
	.loc	22 135 12 is_stmt 0             @ ../Middlewares/CMSIS/DSP/Src/StatisticsFunctions/arm_mean_q31.c:135:12
	ldr	r2, [r0]
	.loc	22 135 9                        @ ../Middlewares/CMSIS/DSP/Src/StatisticsFunctions/arm_mean_q31.c:135:9
	ldr	r1, [sp]
	ldr	r0, [sp, #4]
	adds	r1, r1, r2
	adc.w	r0, r0, r2, asr #31
	str	r1, [sp]
	str	r0, [sp, #4]
	.loc	22 138 11 is_stmt 1             @ ../Middlewares/CMSIS/DSP/Src/StatisticsFunctions/arm_mean_q31.c:138:11
	ldr	r0, [sp, #8]
	subs	r0, #1
	str	r0, [sp, #8]
.Ltmp122:
	.loc	22 132 3                        @ ../Middlewares/CMSIS/DSP/Src/StatisticsFunctions/arm_mean_q31.c:132:3
	b	.LBB19_1
.LBB19_3:
	.loc	22 143 23                       @ ../Middlewares/CMSIS/DSP/Src/StatisticsFunctions/arm_mean_q31.c:143:23
	ldr	r0, [sp]
	ldr	r1, [sp, #4]
	.loc	22 143 29 is_stmt 0             @ ../Middlewares/CMSIS/DSP/Src/StatisticsFunctions/arm_mean_q31.c:143:29
	ldr	r2, [sp, #16]
	movs	r3, #0
	.loc	22 143 27                       @ ../Middlewares/CMSIS/DSP/Src/StatisticsFunctions/arm_mean_q31.c:143:27
	bl	__aeabi_ldivmod
	.loc	22 143 4                        @ ../Middlewares/CMSIS/DSP/Src/StatisticsFunctions/arm_mean_q31.c:143:4
	ldr	r1, [sp, #12]
	.loc	22 143 12                       @ ../Middlewares/CMSIS/DSP/Src/StatisticsFunctions/arm_mean_q31.c:143:12
	str	r0, [r1]
	.loc	22 144 1 is_stmt 1              @ ../Middlewares/CMSIS/DSP/Src/StatisticsFunctions/arm_mean_q31.c:144:1
	add	sp, #24
	pop	{r7, pc}
.Ltmp123:
.Lfunc_end19:
	.size	arm_mean_q31, .Lfunc_end19-arm_mean_q31
	.cfi_endproc
	.cantunwind
	.fnend
                                        @ -- End function
	.section	.text.arm_mean_q7,"ax",%progbits
	.hidden	arm_mean_q7                     @ -- Begin function arm_mean_q7
	.globl	arm_mean_q7
	.p2align	2
	.type	arm_mean_q7,%function
	.code	16                              @ @arm_mean_q7
	.thumb_func
arm_mean_q7:
.Lfunc_begin20:
	.file	23 "D:\\horizon\\Horizon_Infantry (2)\\MDK-ARM" "../Middlewares/CMSIS/DSP/Src/StatisticsFunctions/arm_mean_q7.c"
	.loc	23 100 0                        @ ../Middlewares/CMSIS/DSP/Src/StatisticsFunctions/arm_mean_q7.c:100:0
	.fnstart
	.cfi_startproc
@ %bb.0:
	.pad	#20
	sub	sp, #20
	.cfi_def_cfa_offset 20
	str	r0, [sp, #16]
	str	r1, [sp, #12]
	str	r2, [sp, #8]
	movs	r0, #0
.Ltmp124:
	.loc	23 102 15 prologue_end          @ ../Middlewares/CMSIS/DSP/Src/StatisticsFunctions/arm_mean_q7.c:102:15
	str	r0, [sp]
	.loc	23 132 12                       @ ../Middlewares/CMSIS/DSP/Src/StatisticsFunctions/arm_mean_q7.c:132:12
	ldr	r0, [sp, #12]
	.loc	23 132 10 is_stmt 0             @ ../Middlewares/CMSIS/DSP/Src/StatisticsFunctions/arm_mean_q7.c:132:10
	str	r0, [sp, #4]
	.loc	23 136 3 is_stmt 1              @ ../Middlewares/CMSIS/DSP/Src/StatisticsFunctions/arm_mean_q7.c:136:3
	b	.LBB20_1
.LBB20_1:                               @ =>This Inner Loop Header: Depth=1
	.loc	23 136 10 is_stmt 0             @ ../Middlewares/CMSIS/DSP/Src/StatisticsFunctions/arm_mean_q7.c:136:10
	ldr	r0, [sp, #4]
	.loc	23 136 3                        @ ../Middlewares/CMSIS/DSP/Src/StatisticsFunctions/arm_mean_q7.c:136:3
	cbz	r0, .LBB20_3
	b	.LBB20_2
.LBB20_2:                               @   in Loop: Header=BB20_1 Depth=1
.Ltmp125:
	.loc	23 139 17 is_stmt 1             @ ../Middlewares/CMSIS/DSP/Src/StatisticsFunctions/arm_mean_q7.c:139:17
	ldr	r0, [sp, #16]
	adds	r1, r0, #1
	str	r1, [sp, #16]
	.loc	23 139 12 is_stmt 0             @ ../Middlewares/CMSIS/DSP/Src/StatisticsFunctions/arm_mean_q7.c:139:12
	ldrsb.w	r1, [r0]
	.loc	23 139 9                        @ ../Middlewares/CMSIS/DSP/Src/StatisticsFunctions/arm_mean_q7.c:139:9
	ldr	r0, [sp]
	add	r0, r1
	str	r0, [sp]
	.loc	23 142 11 is_stmt 1             @ ../Middlewares/CMSIS/DSP/Src/StatisticsFunctions/arm_mean_q7.c:142:11
	ldr	r0, [sp, #4]
	subs	r0, #1
	str	r0, [sp, #4]
.Ltmp126:
	.loc	23 136 3                        @ ../Middlewares/CMSIS/DSP/Src/StatisticsFunctions/arm_mean_q7.c:136:3
	b	.LBB20_1
.LBB20_3:
	.loc	23 147 22                       @ ../Middlewares/CMSIS/DSP/Src/StatisticsFunctions/arm_mean_q7.c:147:22
	ldr	r0, [sp]
	.loc	23 147 38 is_stmt 0             @ ../Middlewares/CMSIS/DSP/Src/StatisticsFunctions/arm_mean_q7.c:147:38
	ldr	r1, [sp, #12]
	.loc	23 147 26                       @ ../Middlewares/CMSIS/DSP/Src/StatisticsFunctions/arm_mean_q7.c:147:26
	sdiv	r0, r0, r1
	.loc	23 147 4                        @ ../Middlewares/CMSIS/DSP/Src/StatisticsFunctions/arm_mean_q7.c:147:4
	ldr	r1, [sp, #8]
	.loc	23 147 12                       @ ../Middlewares/CMSIS/DSP/Src/StatisticsFunctions/arm_mean_q7.c:147:12
	strb	r0, [r1]
	.loc	23 148 1 is_stmt 1              @ ../Middlewares/CMSIS/DSP/Src/StatisticsFunctions/arm_mean_q7.c:148:1
	add	sp, #20
	bx	lr
.Ltmp127:
.Lfunc_end20:
	.size	arm_mean_q7, .Lfunc_end20-arm_mean_q7
	.cfi_endproc
	.cantunwind
	.fnend
                                        @ -- End function
	.section	.text.arm_min_f32,"ax",%progbits
	.hidden	arm_min_f32                     @ -- Begin function arm_min_f32
	.globl	arm_min_f32
	.p2align	2
	.type	arm_min_f32,%function
	.code	16                              @ @arm_min_f32
	.thumb_func
arm_min_f32:
.Lfunc_begin21:
	.file	24 "D:\\horizon\\Horizon_Infantry (2)\\MDK-ARM" "../Middlewares/CMSIS/DSP/Src/StatisticsFunctions/arm_min_f32.c"
	.loc	24 266 0                        @ ../Middlewares/CMSIS/DSP/Src/StatisticsFunctions/arm_min_f32.c:266:0
	.fnstart
	.cfi_startproc
@ %bb.0:
	.pad	#32
	sub	sp, #32
	.cfi_def_cfa_offset 32
	str	r0, [sp, #28]
	str	r1, [sp, #24]
	str	r2, [sp, #20]
	str	r3, [sp, #16]
	movs	r0, #0
.Ltmp128:
	.loc	24 275 12 prologue_end          @ ../Middlewares/CMSIS/DSP/Src/StatisticsFunctions/arm_min_f32.c:275:12
	str	r0, [sp]
	.loc	24 278 14                       @ ../Middlewares/CMSIS/DSP/Src/StatisticsFunctions/arm_min_f32.c:278:14
	ldr	r0, [sp, #28]
	adds	r1, r0, #4
	str	r1, [sp, #28]
	.loc	24 278 9 is_stmt 0              @ ../Middlewares/CMSIS/DSP/Src/StatisticsFunctions/arm_min_f32.c:278:9
	ldr	r0, [r0]
	.loc	24 278 7                        @ ../Middlewares/CMSIS/DSP/Src/StatisticsFunctions/arm_min_f32.c:278:7
	str	r0, [sp, #8]
	.loc	24 333 13 is_stmt 1             @ ../Middlewares/CMSIS/DSP/Src/StatisticsFunctions/arm_min_f32.c:333:13
	ldr	r0, [sp, #24]
	.loc	24 333 23 is_stmt 0             @ ../Middlewares/CMSIS/DSP/Src/StatisticsFunctions/arm_min_f32.c:333:23
	subs	r0, #1
	.loc	24 333 10                       @ ../Middlewares/CMSIS/DSP/Src/StatisticsFunctions/arm_min_f32.c:333:10
	str	r0, [sp, #4]
	.loc	24 337 3 is_stmt 1              @ ../Middlewares/CMSIS/DSP/Src/StatisticsFunctions/arm_min_f32.c:337:3
	b	.LBB21_1
.LBB21_1:                               @ =>This Inner Loop Header: Depth=1
	.loc	24 337 10 is_stmt 0             @ ../Middlewares/CMSIS/DSP/Src/StatisticsFunctions/arm_min_f32.c:337:10
	ldr	r0, [sp, #4]
	.loc	24 337 3                        @ ../Middlewares/CMSIS/DSP/Src/StatisticsFunctions/arm_min_f32.c:337:3
	cbz	r0, .LBB21_5
	b	.LBB21_2
.LBB21_2:                               @   in Loop: Header=BB21_1 Depth=1
.Ltmp129:
	.loc	24 340 19 is_stmt 1             @ ../Middlewares/CMSIS/DSP/Src/StatisticsFunctions/arm_min_f32.c:340:19
	ldr	r0, [sp, #28]
	adds	r1, r0, #4
	str	r1, [sp, #28]
	.loc	24 340 14 is_stmt 0             @ ../Middlewares/CMSIS/DSP/Src/StatisticsFunctions/arm_min_f32.c:340:14
	ldr	r0, [r0]
	.loc	24 340 12                       @ ../Middlewares/CMSIS/DSP/Src/StatisticsFunctions/arm_min_f32.c:340:12
	str	r0, [sp, #12]
.Ltmp130:
	.loc	24 343 9 is_stmt 1              @ ../Middlewares/CMSIS/DSP/Src/StatisticsFunctions/arm_min_f32.c:343:9
	vldr	s0, [sp, #8]
	.loc	24 343 15 is_stmt 0             @ ../Middlewares/CMSIS/DSP/Src/StatisticsFunctions/arm_min_f32.c:343:15
	vldr	s2, [sp, #12]
.Ltmp131:
	.loc	24 343 9                        @ ../Middlewares/CMSIS/DSP/Src/StatisticsFunctions/arm_min_f32.c:343:9
	vcmp.f32	s0, s2
	vmrs	APSR_nzcv, fpscr
	ble	.LBB21_4
	b	.LBB21_3
.LBB21_3:                               @   in Loop: Header=BB21_1 Depth=1
.Ltmp132:
	.loc	24 346 13 is_stmt 1             @ ../Middlewares/CMSIS/DSP/Src/StatisticsFunctions/arm_min_f32.c:346:13
	ldr	r0, [sp, #12]
	.loc	24 346 11 is_stmt 0             @ ../Middlewares/CMSIS/DSP/Src/StatisticsFunctions/arm_min_f32.c:346:11
	str	r0, [sp, #8]
	.loc	24 347 18 is_stmt 1             @ ../Middlewares/CMSIS/DSP/Src/StatisticsFunctions/arm_min_f32.c:347:18
	ldr	r0, [sp, #24]
	.loc	24 347 30 is_stmt 0             @ ../Middlewares/CMSIS/DSP/Src/StatisticsFunctions/arm_min_f32.c:347:30
	ldr	r1, [sp, #4]
	.loc	24 347 28                       @ ../Middlewares/CMSIS/DSP/Src/StatisticsFunctions/arm_min_f32.c:347:28
	subs	r0, r0, r1
	.loc	24 347 16                       @ ../Middlewares/CMSIS/DSP/Src/StatisticsFunctions/arm_min_f32.c:347:16
	str	r0, [sp]
	.loc	24 348 5 is_stmt 1              @ ../Middlewares/CMSIS/DSP/Src/StatisticsFunctions/arm_min_f32.c:348:5
	b	.LBB21_4
.Ltmp133:
.LBB21_4:                               @   in Loop: Header=BB21_1 Depth=1
	.loc	24 351 11                       @ ../Middlewares/CMSIS/DSP/Src/StatisticsFunctions/arm_min_f32.c:351:11
	ldr	r0, [sp, #4]
	subs	r0, #1
	str	r0, [sp, #4]
.Ltmp134:
	.loc	24 337 3                        @ ../Middlewares/CMSIS/DSP/Src/StatisticsFunctions/arm_min_f32.c:337:3
	b	.LBB21_1
.LBB21_5:
	.loc	24 355 14                       @ ../Middlewares/CMSIS/DSP/Src/StatisticsFunctions/arm_min_f32.c:355:14
	ldr	r0, [sp, #8]
	.loc	24 355 4 is_stmt 0              @ ../Middlewares/CMSIS/DSP/Src/StatisticsFunctions/arm_min_f32.c:355:4
	ldr	r1, [sp, #20]
	.loc	24 355 12                       @ ../Middlewares/CMSIS/DSP/Src/StatisticsFunctions/arm_min_f32.c:355:12
	str	r0, [r1]
	.loc	24 356 13 is_stmt 1             @ ../Middlewares/CMSIS/DSP/Src/StatisticsFunctions/arm_min_f32.c:356:13
	ldr	r0, [sp]
	.loc	24 356 4 is_stmt 0              @ ../Middlewares/CMSIS/DSP/Src/StatisticsFunctions/arm_min_f32.c:356:4
	ldr	r1, [sp, #16]
	.loc	24 356 11                       @ ../Middlewares/CMSIS/DSP/Src/StatisticsFunctions/arm_min_f32.c:356:11
	str	r0, [r1]
	.loc	24 357 1 is_stmt 1              @ ../Middlewares/CMSIS/DSP/Src/StatisticsFunctions/arm_min_f32.c:357:1
	add	sp, #32
	bx	lr
.Ltmp135:
.Lfunc_end21:
	.size	arm_min_f32, .Lfunc_end21-arm_min_f32
	.cfi_endproc
	.cantunwind
	.fnend
                                        @ -- End function
	.section	.text.arm_min_f64,"ax",%progbits
	.hidden	arm_min_f64                     @ -- Begin function arm_min_f64
	.globl	arm_min_f64
	.p2align	2
	.type	arm_min_f64,%function
	.code	16                              @ @arm_min_f64
	.thumb_func
arm_min_f64:
.Lfunc_begin22:
	.file	25 "D:\\horizon\\Horizon_Infantry (2)\\MDK-ARM" "../Middlewares/CMSIS/DSP/Src/StatisticsFunctions/arm_min_f64.c"
	.loc	25 53 0                         @ ../Middlewares/CMSIS/DSP/Src/StatisticsFunctions/arm_min_f64.c:53:0
	.fnstart
	.cfi_startproc
@ %bb.0:
	.save	{r7, lr}
	push	{r7, lr}
	.cfi_def_cfa_offset 8
	.cfi_offset lr, -4
	.cfi_offset r7, -8
	.pad	#40
	sub	sp, #40
	.cfi_def_cfa_offset 48
	str	r0, [sp, #36]
	str	r1, [sp, #32]
	str	r2, [sp, #28]
	str	r3, [sp, #24]
	movs	r0, #0
.Ltmp136:
	.loc	25 58 12 prologue_end           @ ../Middlewares/CMSIS/DSP/Src/StatisticsFunctions/arm_min_f64.c:58:12
	str	r0, [sp]
	.loc	25 61 14                        @ ../Middlewares/CMSIS/DSP/Src/StatisticsFunctions/arm_min_f64.c:61:14
	ldr	r0, [sp, #36]
	add.w	r1, r0, #8
	str	r1, [sp, #36]
	.loc	25 61 9 is_stmt 0               @ ../Middlewares/CMSIS/DSP/Src/StatisticsFunctions/arm_min_f64.c:61:9
	vldr	d0, [r0]
	.loc	25 61 7                         @ ../Middlewares/CMSIS/DSP/Src/StatisticsFunctions/arm_min_f64.c:61:7
	vstr	d0, [sp, #8]
	.loc	25 64 13 is_stmt 1              @ ../Middlewares/CMSIS/DSP/Src/StatisticsFunctions/arm_min_f64.c:64:13
	ldr	r0, [sp, #32]
	.loc	25 64 23 is_stmt 0              @ ../Middlewares/CMSIS/DSP/Src/StatisticsFunctions/arm_min_f64.c:64:23
	subs	r0, #1
	.loc	25 64 10                        @ ../Middlewares/CMSIS/DSP/Src/StatisticsFunctions/arm_min_f64.c:64:10
	str	r0, [sp, #4]
	.loc	25 66 3 is_stmt 1               @ ../Middlewares/CMSIS/DSP/Src/StatisticsFunctions/arm_min_f64.c:66:3
	b	.LBB22_1
.LBB22_1:                               @ =>This Inner Loop Header: Depth=1
	.loc	25 66 10 is_stmt 0              @ ../Middlewares/CMSIS/DSP/Src/StatisticsFunctions/arm_min_f64.c:66:10
	ldr	r0, [sp, #4]
	.loc	25 66 3                         @ ../Middlewares/CMSIS/DSP/Src/StatisticsFunctions/arm_min_f64.c:66:3
	cbz	r0, .LBB22_5
	b	.LBB22_2
.LBB22_2:                               @   in Loop: Header=BB22_1 Depth=1
.Ltmp137:
	.loc	25 69 19 is_stmt 1              @ ../Middlewares/CMSIS/DSP/Src/StatisticsFunctions/arm_min_f64.c:69:19
	ldr	r0, [sp, #36]
	add.w	r1, r0, #8
	str	r1, [sp, #36]
	.loc	25 69 14 is_stmt 0              @ ../Middlewares/CMSIS/DSP/Src/StatisticsFunctions/arm_min_f64.c:69:14
	vldr	d0, [r0]
	.loc	25 69 12                        @ ../Middlewares/CMSIS/DSP/Src/StatisticsFunctions/arm_min_f64.c:69:12
	vstr	d0, [sp, #16]
.Ltmp138:
	.loc	25 72 9 is_stmt 1               @ ../Middlewares/CMSIS/DSP/Src/StatisticsFunctions/arm_min_f64.c:72:9
	ldr	r0, [sp, #8]
	ldr	r1, [sp, #12]
	.loc	25 72 15 is_stmt 0              @ ../Middlewares/CMSIS/DSP/Src/StatisticsFunctions/arm_min_f64.c:72:15
	ldr	r2, [sp, #16]
	ldr	r3, [sp, #20]
.Ltmp139:
	.loc	25 72 9                         @ ../Middlewares/CMSIS/DSP/Src/StatisticsFunctions/arm_min_f64.c:72:9
	bl	__aeabi_dcmple
	cbnz	r0, .LBB22_4
	b	.LBB22_3
.LBB22_3:                               @   in Loop: Header=BB22_1 Depth=1
.Ltmp140:
	.loc	25 75 13 is_stmt 1              @ ../Middlewares/CMSIS/DSP/Src/StatisticsFunctions/arm_min_f64.c:75:13
	vldr	d0, [sp, #16]
	.loc	25 75 11 is_stmt 0              @ ../Middlewares/CMSIS/DSP/Src/StatisticsFunctions/arm_min_f64.c:75:11
	vstr	d0, [sp, #8]
	.loc	25 76 18 is_stmt 1              @ ../Middlewares/CMSIS/DSP/Src/StatisticsFunctions/arm_min_f64.c:76:18
	ldr	r0, [sp, #32]
	.loc	25 76 30 is_stmt 0              @ ../Middlewares/CMSIS/DSP/Src/StatisticsFunctions/arm_min_f64.c:76:30
	ldr	r1, [sp, #4]
	.loc	25 76 28                        @ ../Middlewares/CMSIS/DSP/Src/StatisticsFunctions/arm_min_f64.c:76:28
	subs	r0, r0, r1
	.loc	25 76 16                        @ ../Middlewares/CMSIS/DSP/Src/StatisticsFunctions/arm_min_f64.c:76:16
	str	r0, [sp]
	.loc	25 77 5 is_stmt 1               @ ../Middlewares/CMSIS/DSP/Src/StatisticsFunctions/arm_min_f64.c:77:5
	b	.LBB22_4
.Ltmp141:
.LBB22_4:                               @   in Loop: Header=BB22_1 Depth=1
	.loc	25 80 11                        @ ../Middlewares/CMSIS/DSP/Src/StatisticsFunctions/arm_min_f64.c:80:11
	ldr	r0, [sp, #4]
	subs	r0, #1
	str	r0, [sp, #4]
.Ltmp142:
	.loc	25 66 3                         @ ../Middlewares/CMSIS/DSP/Src/StatisticsFunctions/arm_min_f64.c:66:3
	b	.LBB22_1
.LBB22_5:
	.loc	25 84 14                        @ ../Middlewares/CMSIS/DSP/Src/StatisticsFunctions/arm_min_f64.c:84:14
	vldr	d0, [sp, #8]
	.loc	25 84 4 is_stmt 0               @ ../Middlewares/CMSIS/DSP/Src/StatisticsFunctions/arm_min_f64.c:84:4
	ldr	r0, [sp, #28]
	.loc	25 84 12                        @ ../Middlewares/CMSIS/DSP/Src/StatisticsFunctions/arm_min_f64.c:84:12
	vstr	d0, [r0]
	.loc	25 85 13 is_stmt 1              @ ../Middlewares/CMSIS/DSP/Src/StatisticsFunctions/arm_min_f64.c:85:13
	ldr	r0, [sp]
	.loc	25 85 4 is_stmt 0               @ ../Middlewares/CMSIS/DSP/Src/StatisticsFunctions/arm_min_f64.c:85:4
	ldr	r1, [sp, #24]
	.loc	25 85 11                        @ ../Middlewares/CMSIS/DSP/Src/StatisticsFunctions/arm_min_f64.c:85:11
	str	r0, [r1]
	.loc	25 86 1 is_stmt 1               @ ../Middlewares/CMSIS/DSP/Src/StatisticsFunctions/arm_min_f64.c:86:1
	add	sp, #40
	pop	{r7, pc}
.Ltmp143:
.Lfunc_end22:
	.size	arm_min_f64, .Lfunc_end22-arm_min_f64
	.cfi_endproc
	.cantunwind
	.fnend
                                        @ -- End function
	.section	.text.arm_min_q15,"ax",%progbits
	.hidden	arm_min_q15                     @ -- Begin function arm_min_q15
	.globl	arm_min_q15
	.p2align	2
	.type	arm_min_q15,%function
	.code	16                              @ @arm_min_q15
	.thumb_func
arm_min_q15:
.Lfunc_begin23:
	.file	26 "D:\\horizon\\Horizon_Infantry (2)\\MDK-ARM" "../Middlewares/CMSIS/DSP/Src/StatisticsFunctions/arm_min_q15.c"
	.loc	26 108 0                        @ ../Middlewares/CMSIS/DSP/Src/StatisticsFunctions/arm_min_q15.c:108:0
	.fnstart
	.cfi_startproc
@ %bb.0:
	.pad	#28
	sub	sp, #28
	.cfi_def_cfa_offset 28
	str	r0, [sp, #24]
	str	r1, [sp, #20]
	str	r2, [sp, #16]
	str	r3, [sp, #12]
	movs	r0, #0
.Ltmp144:
	.loc	26 117 12 prologue_end          @ ../Middlewares/CMSIS/DSP/Src/StatisticsFunctions/arm_min_q15.c:117:12
	str	r0, [sp]
	.loc	26 119 14                       @ ../Middlewares/CMSIS/DSP/Src/StatisticsFunctions/arm_min_q15.c:119:14
	ldr	r0, [sp, #24]
	adds	r1, r0, #2
	str	r1, [sp, #24]
	.loc	26 119 9 is_stmt 0              @ ../Middlewares/CMSIS/DSP/Src/StatisticsFunctions/arm_min_q15.c:119:9
	ldrh	r0, [r0]
	.loc	26 119 7                        @ ../Middlewares/CMSIS/DSP/Src/StatisticsFunctions/arm_min_q15.c:119:7
	strh.w	r0, [sp, #8]
	.loc	26 174 13 is_stmt 1             @ ../Middlewares/CMSIS/DSP/Src/StatisticsFunctions/arm_min_q15.c:174:13
	ldr	r0, [sp, #20]
	.loc	26 174 23 is_stmt 0             @ ../Middlewares/CMSIS/DSP/Src/StatisticsFunctions/arm_min_q15.c:174:23
	subs	r0, #1
	.loc	26 174 10                       @ ../Middlewares/CMSIS/DSP/Src/StatisticsFunctions/arm_min_q15.c:174:10
	str	r0, [sp, #4]
	.loc	26 178 3 is_stmt 1              @ ../Middlewares/CMSIS/DSP/Src/StatisticsFunctions/arm_min_q15.c:178:3
	b	.LBB23_1
.LBB23_1:                               @ =>This Inner Loop Header: Depth=1
	.loc	26 178 10 is_stmt 0             @ ../Middlewares/CMSIS/DSP/Src/StatisticsFunctions/arm_min_q15.c:178:10
	ldr	r0, [sp, #4]
	.loc	26 178 3                        @ ../Middlewares/CMSIS/DSP/Src/StatisticsFunctions/arm_min_q15.c:178:3
	cbz	r0, .LBB23_5
	b	.LBB23_2
.LBB23_2:                               @   in Loop: Header=BB23_1 Depth=1
.Ltmp145:
	.loc	26 181 19 is_stmt 1             @ ../Middlewares/CMSIS/DSP/Src/StatisticsFunctions/arm_min_q15.c:181:19
	ldr	r0, [sp, #24]
	adds	r1, r0, #2
	str	r1, [sp, #24]
	.loc	26 181 14 is_stmt 0             @ ../Middlewares/CMSIS/DSP/Src/StatisticsFunctions/arm_min_q15.c:181:14
	ldrh	r0, [r0]
	.loc	26 181 12                       @ ../Middlewares/CMSIS/DSP/Src/StatisticsFunctions/arm_min_q15.c:181:12
	strh.w	r0, [sp, #10]
.Ltmp146:
	.loc	26 184 9 is_stmt 1              @ ../Middlewares/CMSIS/DSP/Src/StatisticsFunctions/arm_min_q15.c:184:9
	ldrsh.w	r0, [sp, #8]
	.loc	26 184 15 is_stmt 0             @ ../Middlewares/CMSIS/DSP/Src/StatisticsFunctions/arm_min_q15.c:184:15
	ldrsh.w	r1, [sp, #10]
.Ltmp147:
	.loc	26 184 9                        @ ../Middlewares/CMSIS/DSP/Src/StatisticsFunctions/arm_min_q15.c:184:9
	cmp	r0, r1
	ble	.LBB23_4
	b	.LBB23_3
.LBB23_3:                               @   in Loop: Header=BB23_1 Depth=1
.Ltmp148:
	.loc	26 187 13 is_stmt 1             @ ../Middlewares/CMSIS/DSP/Src/StatisticsFunctions/arm_min_q15.c:187:13
	ldrh.w	r0, [sp, #10]
	.loc	26 187 11 is_stmt 0             @ ../Middlewares/CMSIS/DSP/Src/StatisticsFunctions/arm_min_q15.c:187:11
	strh.w	r0, [sp, #8]
	.loc	26 188 18 is_stmt 1             @ ../Middlewares/CMSIS/DSP/Src/StatisticsFunctions/arm_min_q15.c:188:18
	ldr	r0, [sp, #20]
	.loc	26 188 30 is_stmt 0             @ ../Middlewares/CMSIS/DSP/Src/StatisticsFunctions/arm_min_q15.c:188:30
	ldr	r1, [sp, #4]
	.loc	26 188 28                       @ ../Middlewares/CMSIS/DSP/Src/StatisticsFunctions/arm_min_q15.c:188:28
	subs	r0, r0, r1
	.loc	26 188 16                       @ ../Middlewares/CMSIS/DSP/Src/StatisticsFunctions/arm_min_q15.c:188:16
	str	r0, [sp]
	.loc	26 189 5 is_stmt 1              @ ../Middlewares/CMSIS/DSP/Src/StatisticsFunctions/arm_min_q15.c:189:5
	b	.LBB23_4
.Ltmp149:
.LBB23_4:                               @   in Loop: Header=BB23_1 Depth=1
	.loc	26 192 11                       @ ../Middlewares/CMSIS/DSP/Src/StatisticsFunctions/arm_min_q15.c:192:11
	ldr	r0, [sp, #4]
	subs	r0, #1
	str	r0, [sp, #4]
.Ltmp150:
	.loc	26 178 3                        @ ../Middlewares/CMSIS/DSP/Src/StatisticsFunctions/arm_min_q15.c:178:3
	b	.LBB23_1
.LBB23_5:
	.loc	26 196 14                       @ ../Middlewares/CMSIS/DSP/Src/StatisticsFunctions/arm_min_q15.c:196:14
	ldrh.w	r0, [sp, #8]
	.loc	26 196 4 is_stmt 0              @ ../Middlewares/CMSIS/DSP/Src/StatisticsFunctions/arm_min_q15.c:196:4
	ldr	r1, [sp, #16]
	.loc	26 196 12                       @ ../Middlewares/CMSIS/DSP/Src/StatisticsFunctions/arm_min_q15.c:196:12
	strh	r0, [r1]
	.loc	26 197 13 is_stmt 1             @ ../Middlewares/CMSIS/DSP/Src/StatisticsFunctions/arm_min_q15.c:197:13
	ldr	r0, [sp]
	.loc	26 197 4 is_stmt 0              @ ../Middlewares/CMSIS/DSP/Src/StatisticsFunctions/arm_min_q15.c:197:4
	ldr	r1, [sp, #12]
	.loc	26 197 11                       @ ../Middlewares/CMSIS/DSP/Src/StatisticsFunctions/arm_min_q15.c:197:11
	str	r0, [r1]
	.loc	26 198 1 is_stmt 1              @ ../Middlewares/CMSIS/DSP/Src/StatisticsFunctions/arm_min_q15.c:198:1
	add	sp, #28
	bx	lr
.Ltmp151:
.Lfunc_end23:
	.size	arm_min_q15, .Lfunc_end23-arm_min_q15
	.cfi_endproc
	.cantunwind
	.fnend
                                        @ -- End function
	.section	.text.arm_min_q31,"ax",%progbits
	.hidden	arm_min_q31                     @ -- Begin function arm_min_q31
	.globl	arm_min_q31
	.p2align	2
	.type	arm_min_q31,%function
	.code	16                              @ @arm_min_q31
	.thumb_func
arm_min_q31:
.Lfunc_begin24:
	.file	27 "D:\\horizon\\Horizon_Infantry (2)\\MDK-ARM" "../Middlewares/CMSIS/DSP/Src/StatisticsFunctions/arm_min_q31.c"
	.loc	27 108 0                        @ ../Middlewares/CMSIS/DSP/Src/StatisticsFunctions/arm_min_q31.c:108:0
	.fnstart
	.cfi_startproc
@ %bb.0:
	.pad	#32
	sub	sp, #32
	.cfi_def_cfa_offset 32
	str	r0, [sp, #28]
	str	r1, [sp, #24]
	str	r2, [sp, #20]
	str	r3, [sp, #16]
	movs	r0, #0
.Ltmp152:
	.loc	27 117 12 prologue_end          @ ../Middlewares/CMSIS/DSP/Src/StatisticsFunctions/arm_min_q31.c:117:12
	str	r0, [sp]
	.loc	27 119 14                       @ ../Middlewares/CMSIS/DSP/Src/StatisticsFunctions/arm_min_q31.c:119:14
	ldr	r0, [sp, #28]
	adds	r1, r0, #4
	str	r1, [sp, #28]
	.loc	27 119 9 is_stmt 0              @ ../Middlewares/CMSIS/DSP/Src/StatisticsFunctions/arm_min_q31.c:119:9
	ldr	r0, [r0]
	.loc	27 119 7                        @ ../Middlewares/CMSIS/DSP/Src/StatisticsFunctions/arm_min_q31.c:119:7
	str	r0, [sp, #8]
	.loc	27 174 13 is_stmt 1             @ ../Middlewares/CMSIS/DSP/Src/StatisticsFunctions/arm_min_q31.c:174:13
	ldr	r0, [sp, #24]
	.loc	27 174 23 is_stmt 0             @ ../Middlewares/CMSIS/DSP/Src/StatisticsFunctions/arm_min_q31.c:174:23
	subs	r0, #1
	.loc	27 174 10                       @ ../Middlewares/CMSIS/DSP/Src/StatisticsFunctions/arm_min_q31.c:174:10
	str	r0, [sp, #4]
	.loc	27 178 3 is_stmt 1              @ ../Middlewares/CMSIS/DSP/Src/StatisticsFunctions/arm_min_q31.c:178:3
	b	.LBB24_1
.LBB24_1:                               @ =>This Inner Loop Header: Depth=1
	.loc	27 178 10 is_stmt 0             @ ../Middlewares/CMSIS/DSP/Src/StatisticsFunctions/arm_min_q31.c:178:10
	ldr	r0, [sp, #4]
	.loc	27 178 3                        @ ../Middlewares/CMSIS/DSP/Src/StatisticsFunctions/arm_min_q31.c:178:3
	cbz	r0, .LBB24_5
	b	.LBB24_2
.LBB24_2:                               @   in Loop: Header=BB24_1 Depth=1
.Ltmp153:
	.loc	27 181 19 is_stmt 1             @ ../Middlewares/CMSIS/DSP/Src/StatisticsFunctions/arm_min_q31.c:181:19
	ldr	r0, [sp, #28]
	adds	r1, r0, #4
	str	r1, [sp, #28]
	.loc	27 181 14 is_stmt 0             @ ../Middlewares/CMSIS/DSP/Src/StatisticsFunctions/arm_min_q31.c:181:14
	ldr	r0, [r0]
	.loc	27 181 12                       @ ../Middlewares/CMSIS/DSP/Src/StatisticsFunctions/arm_min_q31.c:181:12
	str	r0, [sp, #12]
.Ltmp154:
	.loc	27 184 9 is_stmt 1              @ ../Middlewares/CMSIS/DSP/Src/StatisticsFunctions/arm_min_q31.c:184:9
	ldr	r0, [sp, #8]
	.loc	27 184 15 is_stmt 0             @ ../Middlewares/CMSIS/DSP/Src/StatisticsFunctions/arm_min_q31.c:184:15
	ldr	r1, [sp, #12]
.Ltmp155:
	.loc	27 184 9                        @ ../Middlewares/CMSIS/DSP/Src/StatisticsFunctions/arm_min_q31.c:184:9
	cmp	r0, r1
	ble	.LBB24_4
	b	.LBB24_3
.LBB24_3:                               @   in Loop: Header=BB24_1 Depth=1
.Ltmp156:
	.loc	27 187 13 is_stmt 1             @ ../Middlewares/CMSIS/DSP/Src/StatisticsFunctions/arm_min_q31.c:187:13
	ldr	r0, [sp, #12]
	.loc	27 187 11 is_stmt 0             @ ../Middlewares/CMSIS/DSP/Src/StatisticsFunctions/arm_min_q31.c:187:11
	str	r0, [sp, #8]
	.loc	27 188 18 is_stmt 1             @ ../Middlewares/CMSIS/DSP/Src/StatisticsFunctions/arm_min_q31.c:188:18
	ldr	r0, [sp, #24]
	.loc	27 188 30 is_stmt 0             @ ../Middlewares/CMSIS/DSP/Src/StatisticsFunctions/arm_min_q31.c:188:30
	ldr	r1, [sp, #4]
	.loc	27 188 28                       @ ../Middlewares/CMSIS/DSP/Src/StatisticsFunctions/arm_min_q31.c:188:28
	subs	r0, r0, r1
	.loc	27 188 16                       @ ../Middlewares/CMSIS/DSP/Src/StatisticsFunctions/arm_min_q31.c:188:16
	str	r0, [sp]
	.loc	27 189 5 is_stmt 1              @ ../Middlewares/CMSIS/DSP/Src/StatisticsFunctions/arm_min_q31.c:189:5
	b	.LBB24_4
.Ltmp157:
.LBB24_4:                               @   in Loop: Header=BB24_1 Depth=1
	.loc	27 192 11                       @ ../Middlewares/CMSIS/DSP/Src/StatisticsFunctions/arm_min_q31.c:192:11
	ldr	r0, [sp, #4]
	subs	r0, #1
	str	r0, [sp, #4]
.Ltmp158:
	.loc	27 178 3                        @ ../Middlewares/CMSIS/DSP/Src/StatisticsFunctions/arm_min_q31.c:178:3
	b	.LBB24_1
.LBB24_5:
	.loc	27 196 14                       @ ../Middlewares/CMSIS/DSP/Src/StatisticsFunctions/arm_min_q31.c:196:14
	ldr	r0, [sp, #8]
	.loc	27 196 4 is_stmt 0              @ ../Middlewares/CMSIS/DSP/Src/StatisticsFunctions/arm_min_q31.c:196:4
	ldr	r1, [sp, #20]
	.loc	27 196 12                       @ ../Middlewares/CMSIS/DSP/Src/StatisticsFunctions/arm_min_q31.c:196:12
	str	r0, [r1]
	.loc	27 197 13 is_stmt 1             @ ../Middlewares/CMSIS/DSP/Src/StatisticsFunctions/arm_min_q31.c:197:13
	ldr	r0, [sp]
	.loc	27 197 4 is_stmt 0              @ ../Middlewares/CMSIS/DSP/Src/StatisticsFunctions/arm_min_q31.c:197:4
	ldr	r1, [sp, #16]
	.loc	27 197 11                       @ ../Middlewares/CMSIS/DSP/Src/StatisticsFunctions/arm_min_q31.c:197:11
	str	r0, [r1]
	.loc	27 198 1 is_stmt 1              @ ../Middlewares/CMSIS/DSP/Src/StatisticsFunctions/arm_min_q31.c:198:1
	add	sp, #32
	bx	lr
.Ltmp159:
.Lfunc_end24:
	.size	arm_min_q31, .Lfunc_end24-arm_min_q31
	.cfi_endproc
	.cantunwind
	.fnend
                                        @ -- End function
	.section	.text.arm_min_q7,"ax",%progbits
	.hidden	arm_min_q7                      @ -- Begin function arm_min_q7
	.globl	arm_min_q7
	.p2align	2
	.type	arm_min_q7,%function
	.code	16                              @ @arm_min_q7
	.thumb_func
arm_min_q7:
.Lfunc_begin25:
	.file	28 "D:\\horizon\\Horizon_Infantry (2)\\MDK-ARM" "../Middlewares/CMSIS/DSP/Src/StatisticsFunctions/arm_min_q7.c"
	.loc	28 189 0                        @ ../Middlewares/CMSIS/DSP/Src/StatisticsFunctions/arm_min_q7.c:189:0
	.fnstart
	.cfi_startproc
@ %bb.0:
	.pad	#28
	sub	sp, #28
	.cfi_def_cfa_offset 28
	str	r0, [sp, #24]
	str	r1, [sp, #20]
	str	r2, [sp, #16]
	str	r3, [sp, #12]
	movs	r0, #0
.Ltmp160:
	.loc	28 198 12 prologue_end          @ ../Middlewares/CMSIS/DSP/Src/StatisticsFunctions/arm_min_q7.c:198:12
	str	r0, [sp]
	.loc	28 200 14                       @ ../Middlewares/CMSIS/DSP/Src/StatisticsFunctions/arm_min_q7.c:200:14
	ldr	r0, [sp, #24]
	adds	r1, r0, #1
	str	r1, [sp, #24]
	.loc	28 200 9 is_stmt 0              @ ../Middlewares/CMSIS/DSP/Src/StatisticsFunctions/arm_min_q7.c:200:9
	ldrb	r0, [r0]
	.loc	28 200 7                        @ ../Middlewares/CMSIS/DSP/Src/StatisticsFunctions/arm_min_q7.c:200:7
	strb.w	r0, [sp, #10]
	.loc	28 255 13 is_stmt 1             @ ../Middlewares/CMSIS/DSP/Src/StatisticsFunctions/arm_min_q7.c:255:13
	ldr	r0, [sp, #20]
	.loc	28 255 23 is_stmt 0             @ ../Middlewares/CMSIS/DSP/Src/StatisticsFunctions/arm_min_q7.c:255:23
	subs	r0, #1
	.loc	28 255 10                       @ ../Middlewares/CMSIS/DSP/Src/StatisticsFunctions/arm_min_q7.c:255:10
	str	r0, [sp, #4]
	.loc	28 259 3 is_stmt 1              @ ../Middlewares/CMSIS/DSP/Src/StatisticsFunctions/arm_min_q7.c:259:3
	b	.LBB25_1
.LBB25_1:                               @ =>This Inner Loop Header: Depth=1
	.loc	28 259 10 is_stmt 0             @ ../Middlewares/CMSIS/DSP/Src/StatisticsFunctions/arm_min_q7.c:259:10
	ldr	r0, [sp, #4]
	.loc	28 259 3                        @ ../Middlewares/CMSIS/DSP/Src/StatisticsFunctions/arm_min_q7.c:259:3
	cbz	r0, .LBB25_5
	b	.LBB25_2
.LBB25_2:                               @   in Loop: Header=BB25_1 Depth=1
.Ltmp161:
	.loc	28 262 19 is_stmt 1             @ ../Middlewares/CMSIS/DSP/Src/StatisticsFunctions/arm_min_q7.c:262:19
	ldr	r0, [sp, #24]
	adds	r1, r0, #1
	str	r1, [sp, #24]
	.loc	28 262 14 is_stmt 0             @ ../Middlewares/CMSIS/DSP/Src/StatisticsFunctions/arm_min_q7.c:262:14
	ldrb	r0, [r0]
	.loc	28 262 12                       @ ../Middlewares/CMSIS/DSP/Src/StatisticsFunctions/arm_min_q7.c:262:12
	strb.w	r0, [sp, #11]
.Ltmp162:
	.loc	28 265 9 is_stmt 1              @ ../Middlewares/CMSIS/DSP/Src/StatisticsFunctions/arm_min_q7.c:265:9
	ldrsb.w	r0, [sp, #10]
	.loc	28 265 15 is_stmt 0             @ ../Middlewares/CMSIS/DSP/Src/StatisticsFunctions/arm_min_q7.c:265:15
	ldrsb.w	r1, [sp, #11]
.Ltmp163:
	.loc	28 265 9                        @ ../Middlewares/CMSIS/DSP/Src/StatisticsFunctions/arm_min_q7.c:265:9
	cmp	r0, r1
	ble	.LBB25_4
	b	.LBB25_3
.LBB25_3:                               @   in Loop: Header=BB25_1 Depth=1
.Ltmp164:
	.loc	28 268 13 is_stmt 1             @ ../Middlewares/CMSIS/DSP/Src/StatisticsFunctions/arm_min_q7.c:268:13
	ldrb.w	r0, [sp, #11]
	.loc	28 268 11 is_stmt 0             @ ../Middlewares/CMSIS/DSP/Src/StatisticsFunctions/arm_min_q7.c:268:11
	strb.w	r0, [sp, #10]
	.loc	28 269 18 is_stmt 1             @ ../Middlewares/CMSIS/DSP/Src/StatisticsFunctions/arm_min_q7.c:269:18
	ldr	r0, [sp, #20]
	.loc	28 269 30 is_stmt 0             @ ../Middlewares/CMSIS/DSP/Src/StatisticsFunctions/arm_min_q7.c:269:30
	ldr	r1, [sp, #4]
	.loc	28 269 28                       @ ../Middlewares/CMSIS/DSP/Src/StatisticsFunctions/arm_min_q7.c:269:28
	subs	r0, r0, r1
	.loc	28 269 16                       @ ../Middlewares/CMSIS/DSP/Src/StatisticsFunctions/arm_min_q7.c:269:16
	str	r0, [sp]
	.loc	28 270 5 is_stmt 1              @ ../Middlewares/CMSIS/DSP/Src/StatisticsFunctions/arm_min_q7.c:270:5
	b	.LBB25_4
.Ltmp165:
.LBB25_4:                               @   in Loop: Header=BB25_1 Depth=1
	.loc	28 273 11                       @ ../Middlewares/CMSIS/DSP/Src/StatisticsFunctions/arm_min_q7.c:273:11
	ldr	r0, [sp, #4]
	subs	r0, #1
	str	r0, [sp, #4]
.Ltmp166:
	.loc	28 259 3                        @ ../Middlewares/CMSIS/DSP/Src/StatisticsFunctions/arm_min_q7.c:259:3
	b	.LBB25_1
.LBB25_5:
	.loc	28 277 14                       @ ../Middlewares/CMSIS/DSP/Src/StatisticsFunctions/arm_min_q7.c:277:14
	ldrb.w	r0, [sp, #10]
	.loc	28 277 4 is_stmt 0              @ ../Middlewares/CMSIS/DSP/Src/StatisticsFunctions/arm_min_q7.c:277:4
	ldr	r1, [sp, #16]
	.loc	28 277 12                       @ ../Middlewares/CMSIS/DSP/Src/StatisticsFunctions/arm_min_q7.c:277:12
	strb	r0, [r1]
	.loc	28 278 13 is_stmt 1             @ ../Middlewares/CMSIS/DSP/Src/StatisticsFunctions/arm_min_q7.c:278:13
	ldr	r0, [sp]
	.loc	28 278 4 is_stmt 0              @ ../Middlewares/CMSIS/DSP/Src/StatisticsFunctions/arm_min_q7.c:278:4
	ldr	r1, [sp, #12]
	.loc	28 278 11                       @ ../Middlewares/CMSIS/DSP/Src/StatisticsFunctions/arm_min_q7.c:278:11
	str	r0, [r1]
	.loc	28 279 1 is_stmt 1              @ ../Middlewares/CMSIS/DSP/Src/StatisticsFunctions/arm_min_q7.c:279:1
	add	sp, #28
	bx	lr
.Ltmp167:
.Lfunc_end25:
	.size	arm_min_q7, .Lfunc_end25-arm_min_q7
	.cfi_endproc
	.cantunwind
	.fnend
                                        @ -- End function
	.section	.text.arm_min_no_idx_f32,"ax",%progbits
	.hidden	arm_min_no_idx_f32              @ -- Begin function arm_min_no_idx_f32
	.globl	arm_min_no_idx_f32
	.p2align	2
	.type	arm_min_no_idx_f32,%function
	.code	16                              @ @arm_min_no_idx_f32
	.thumb_func
arm_min_no_idx_f32:
.Lfunc_begin26:
	.file	29 "D:\\horizon\\Horizon_Infantry (2)\\MDK-ARM" "../Middlewares/CMSIS/DSP/Src/StatisticsFunctions/arm_min_no_idx_f32.c"
	.loc	29 113 0                        @ ../Middlewares/CMSIS/DSP/Src/StatisticsFunctions/arm_min_no_idx_f32.c:113:0
	.fnstart
	.cfi_startproc
@ %bb.0:
	.pad	#20
	sub	sp, #20
	.cfi_def_cfa_offset 20
	str	r0, [sp, #16]
	str	r1, [sp, #12]
	str	r2, [sp, #8]
	movw	r0, #65535
	movt	r0, #32639
.Ltmp168:
	.loc	29 114 14 prologue_end          @ ../Middlewares/CMSIS/DSP/Src/StatisticsFunctions/arm_min_no_idx_f32.c:114:14
	str	r0, [sp, #4]
	.loc	29 117 4                        @ ../Middlewares/CMSIS/DSP/Src/StatisticsFunctions/arm_min_no_idx_f32.c:117:4
	b	.LBB26_1
.LBB26_1:                               @ =>This Inner Loop Header: Depth=1
	.loc	29 117 11 is_stmt 0             @ ../Middlewares/CMSIS/DSP/Src/StatisticsFunctions/arm_min_no_idx_f32.c:117:11
	ldr	r0, [sp, #12]
	.loc	29 117 4                        @ ../Middlewares/CMSIS/DSP/Src/StatisticsFunctions/arm_min_no_idx_f32.c:117:4
	cbz	r0, .LBB26_5
	b	.LBB26_2
.LBB26_2:                               @   in Loop: Header=BB26_1 Depth=1
.Ltmp169:
	.loc	29 119 22 is_stmt 1             @ ../Middlewares/CMSIS/DSP/Src/StatisticsFunctions/arm_min_no_idx_f32.c:119:22
	ldr	r0, [sp, #16]
	adds	r1, r0, #4
	str	r1, [sp, #16]
	.loc	29 119 17 is_stmt 0             @ ../Middlewares/CMSIS/DSP/Src/StatisticsFunctions/arm_min_no_idx_f32.c:119:17
	ldr	r0, [r0]
	.loc	29 119 15                       @ ../Middlewares/CMSIS/DSP/Src/StatisticsFunctions/arm_min_no_idx_f32.c:119:15
	str	r0, [sp]
.Ltmp170:
	.loc	29 122 12 is_stmt 1             @ ../Middlewares/CMSIS/DSP/Src/StatisticsFunctions/arm_min_no_idx_f32.c:122:12
	vldr	s0, [sp, #4]
	.loc	29 122 23 is_stmt 0             @ ../Middlewares/CMSIS/DSP/Src/StatisticsFunctions/arm_min_no_idx_f32.c:122:23
	vldr	s2, [sp]
.Ltmp171:
	.loc	29 122 12                       @ ../Middlewares/CMSIS/DSP/Src/StatisticsFunctions/arm_min_no_idx_f32.c:122:12
	vcmp.f32	s0, s2
	vmrs	APSR_nzcv, fpscr
	ble	.LBB26_4
	b	.LBB26_3
.LBB26_3:                               @   in Loop: Header=BB26_1 Depth=1
.Ltmp172:
	.loc	29 125 23 is_stmt 1             @ ../Middlewares/CMSIS/DSP/Src/StatisticsFunctions/arm_min_no_idx_f32.c:125:23
	ldr	r0, [sp]
	.loc	29 125 21 is_stmt 0             @ ../Middlewares/CMSIS/DSP/Src/StatisticsFunctions/arm_min_no_idx_f32.c:125:21
	str	r0, [sp, #4]
	.loc	29 126 8 is_stmt 1              @ ../Middlewares/CMSIS/DSP/Src/StatisticsFunctions/arm_min_no_idx_f32.c:126:8
	b	.LBB26_4
.Ltmp173:
.LBB26_4:                               @   in Loop: Header=BB26_1 Depth=1
	.loc	29 128 18                       @ ../Middlewares/CMSIS/DSP/Src/StatisticsFunctions/arm_min_no_idx_f32.c:128:18
	ldr	r0, [sp, #12]
	subs	r0, #1
	str	r0, [sp, #12]
.Ltmp174:
	.loc	29 117 4                        @ ../Middlewares/CMSIS/DSP/Src/StatisticsFunctions/arm_min_no_idx_f32.c:117:4
	b	.LBB26_1
.LBB26_5:
	.loc	29 131 15                       @ ../Middlewares/CMSIS/DSP/Src/StatisticsFunctions/arm_min_no_idx_f32.c:131:15
	ldr	r0, [sp, #4]
	.loc	29 131 5 is_stmt 0              @ ../Middlewares/CMSIS/DSP/Src/StatisticsFunctions/arm_min_no_idx_f32.c:131:5
	ldr	r1, [sp, #8]
	.loc	29 131 13                       @ ../Middlewares/CMSIS/DSP/Src/StatisticsFunctions/arm_min_no_idx_f32.c:131:13
	str	r0, [r1]
	.loc	29 132 1 is_stmt 1              @ ../Middlewares/CMSIS/DSP/Src/StatisticsFunctions/arm_min_no_idx_f32.c:132:1
	add	sp, #20
	bx	lr
.Ltmp175:
.Lfunc_end26:
	.size	arm_min_no_idx_f32, .Lfunc_end26-arm_min_no_idx_f32
	.cfi_endproc
	.cantunwind
	.fnend
                                        @ -- End function
	.section	.text.arm_min_no_idx_f64,"ax",%progbits
	.hidden	arm_min_no_idx_f64              @ -- Begin function arm_min_no_idx_f64
	.globl	arm_min_no_idx_f64
	.p2align	2
	.type	arm_min_no_idx_f64,%function
	.code	16                              @ @arm_min_no_idx_f64
	.thumb_func
arm_min_no_idx_f64:
.Lfunc_begin27:
	.file	30 "D:\\horizon\\Horizon_Infantry (2)\\MDK-ARM" "../Middlewares/CMSIS/DSP/Src/StatisticsFunctions/arm_min_no_idx_f64.c"
	.loc	30 52 0                         @ ../Middlewares/CMSIS/DSP/Src/StatisticsFunctions/arm_min_no_idx_f64.c:52:0
	.fnstart
	.cfi_startproc
@ %bb.0:
	.save	{r7, lr}
	push	{r7, lr}
	.cfi_def_cfa_offset 8
	.cfi_offset lr, -4
	.cfi_offset r7, -8
	.pad	#40
	sub	sp, #40
	.cfi_def_cfa_offset 48
	str	r0, [sp, #36]
	str	r1, [sp, #32]
	str	r2, [sp, #28]
	movw	r0, #65535
	movt	r0, #32751
.Ltmp176:
	.loc	30 53 15 prologue_end           @ ../Middlewares/CMSIS/DSP/Src/StatisticsFunctions/arm_min_no_idx_f64.c:53:15
	str	r0, [sp, #20]
	mov.w	r0, #-1
	str	r0, [sp, #16]
	.loc	30 76 14                        @ ../Middlewares/CMSIS/DSP/Src/StatisticsFunctions/arm_min_no_idx_f64.c:76:14
	ldr	r0, [sp, #32]
	.loc	30 76 12 is_stmt 0              @ ../Middlewares/CMSIS/DSP/Src/StatisticsFunctions/arm_min_no_idx_f64.c:76:12
	str	r0, [sp, #4]
	.loc	30 79 5 is_stmt 1               @ ../Middlewares/CMSIS/DSP/Src/StatisticsFunctions/arm_min_no_idx_f64.c:79:5
	b	.LBB27_1
.LBB27_1:                               @ =>This Inner Loop Header: Depth=1
	.loc	30 79 12 is_stmt 0              @ ../Middlewares/CMSIS/DSP/Src/StatisticsFunctions/arm_min_no_idx_f64.c:79:12
	ldr	r0, [sp, #4]
	.loc	30 79 5                         @ ../Middlewares/CMSIS/DSP/Src/StatisticsFunctions/arm_min_no_idx_f64.c:79:5
	cbz	r0, .LBB27_5
	b	.LBB27_2
.LBB27_2:                               @   in Loop: Header=BB27_1 Depth=1
.Ltmp177:
	.loc	30 81 23 is_stmt 1              @ ../Middlewares/CMSIS/DSP/Src/StatisticsFunctions/arm_min_no_idx_f64.c:81:23
	ldr	r0, [sp, #36]
	add.w	r1, r0, #8
	str	r1, [sp, #36]
	.loc	30 81 18 is_stmt 0              @ ../Middlewares/CMSIS/DSP/Src/StatisticsFunctions/arm_min_no_idx_f64.c:81:18
	vldr	d0, [r0]
	.loc	30 81 16                        @ ../Middlewares/CMSIS/DSP/Src/StatisticsFunctions/arm_min_no_idx_f64.c:81:16
	vstr	d0, [sp, #8]
.Ltmp178:
	.loc	30 84 13 is_stmt 1              @ ../Middlewares/CMSIS/DSP/Src/StatisticsFunctions/arm_min_no_idx_f64.c:84:13
	ldr	r0, [sp, #16]
	ldr	r1, [sp, #20]
	.loc	30 84 24 is_stmt 0              @ ../Middlewares/CMSIS/DSP/Src/StatisticsFunctions/arm_min_no_idx_f64.c:84:24
	ldr	r2, [sp, #8]
	ldr	r3, [sp, #12]
.Ltmp179:
	.loc	30 84 13                        @ ../Middlewares/CMSIS/DSP/Src/StatisticsFunctions/arm_min_no_idx_f64.c:84:13
	bl	__aeabi_dcmple
	cbnz	r0, .LBB27_4
	b	.LBB27_3
.LBB27_3:                               @   in Loop: Header=BB27_1 Depth=1
.Ltmp180:
	.loc	30 87 24 is_stmt 1              @ ../Middlewares/CMSIS/DSP/Src/StatisticsFunctions/arm_min_no_idx_f64.c:87:24
	vldr	d0, [sp, #8]
	.loc	30 87 22 is_stmt 0              @ ../Middlewares/CMSIS/DSP/Src/StatisticsFunctions/arm_min_no_idx_f64.c:87:22
	vstr	d0, [sp, #16]
	.loc	30 88 9 is_stmt 1               @ ../Middlewares/CMSIS/DSP/Src/StatisticsFunctions/arm_min_no_idx_f64.c:88:9
	b	.LBB27_4
.Ltmp181:
.LBB27_4:                               @   in Loop: Header=BB27_1 Depth=1
	.loc	30 90 16                        @ ../Middlewares/CMSIS/DSP/Src/StatisticsFunctions/arm_min_no_idx_f64.c:90:16
	ldr	r0, [sp, #4]
	subs	r0, #1
	str	r0, [sp, #4]
.Ltmp182:
	.loc	30 79 5                         @ ../Middlewares/CMSIS/DSP/Src/StatisticsFunctions/arm_min_no_idx_f64.c:79:5
	b	.LBB27_1
.LBB27_5:
	.loc	30 93 16                        @ ../Middlewares/CMSIS/DSP/Src/StatisticsFunctions/arm_min_no_idx_f64.c:93:16
	vldr	d0, [sp, #16]
	.loc	30 93 6 is_stmt 0               @ ../Middlewares/CMSIS/DSP/Src/StatisticsFunctions/arm_min_no_idx_f64.c:93:6
	ldr	r0, [sp, #28]
	.loc	30 93 14                        @ ../Middlewares/CMSIS/DSP/Src/StatisticsFunctions/arm_min_no_idx_f64.c:93:14
	vstr	d0, [r0]
	.loc	30 94 1 is_stmt 1               @ ../Middlewares/CMSIS/DSP/Src/StatisticsFunctions/arm_min_no_idx_f64.c:94:1
	add	sp, #40
	pop	{r7, pc}
.Ltmp183:
.Lfunc_end27:
	.size	arm_min_no_idx_f64, .Lfunc_end27-arm_min_no_idx_f64
	.cfi_endproc
	.cantunwind
	.fnend
                                        @ -- End function
	.section	.text.arm_min_no_idx_q31,"ax",%progbits
	.hidden	arm_min_no_idx_q31              @ -- Begin function arm_min_no_idx_q31
	.globl	arm_min_no_idx_q31
	.p2align	2
	.type	arm_min_no_idx_q31,%function
	.code	16                              @ @arm_min_no_idx_q31
	.thumb_func
arm_min_no_idx_q31:
.Lfunc_begin28:
	.file	31 "D:\\horizon\\Horizon_Infantry (2)\\MDK-ARM" "../Middlewares/CMSIS/DSP/Src/StatisticsFunctions/arm_min_no_idx_q31.c"
	.loc	31 108 0                        @ ../Middlewares/CMSIS/DSP/Src/StatisticsFunctions/arm_min_no_idx_q31.c:108:0
	.fnstart
	.cfi_startproc
@ %bb.0:
	.pad	#24
	sub	sp, #24
	.cfi_def_cfa_offset 24
	str	r0, [sp, #20]
	str	r1, [sp, #16]
	str	r2, [sp, #12]
.Ltmp184:
	.loc	31 113 14 prologue_end          @ ../Middlewares/CMSIS/DSP/Src/StatisticsFunctions/arm_min_no_idx_q31.c:113:14
	ldr	r0, [sp, #20]
	adds	r1, r0, #4
	str	r1, [sp, #20]
	.loc	31 113 9 is_stmt 0              @ ../Middlewares/CMSIS/DSP/Src/StatisticsFunctions/arm_min_no_idx_q31.c:113:9
	ldr	r0, [r0]
	.loc	31 113 7                        @ ../Middlewares/CMSIS/DSP/Src/StatisticsFunctions/arm_min_no_idx_q31.c:113:7
	str	r0, [sp, #4]
	.loc	31 115 13 is_stmt 1             @ ../Middlewares/CMSIS/DSP/Src/StatisticsFunctions/arm_min_no_idx_q31.c:115:13
	ldr	r0, [sp, #16]
	.loc	31 115 23 is_stmt 0             @ ../Middlewares/CMSIS/DSP/Src/StatisticsFunctions/arm_min_no_idx_q31.c:115:23
	subs	r0, #1
	.loc	31 115 10                       @ ../Middlewares/CMSIS/DSP/Src/StatisticsFunctions/arm_min_no_idx_q31.c:115:10
	str	r0, [sp]
	.loc	31 118 3 is_stmt 1              @ ../Middlewares/CMSIS/DSP/Src/StatisticsFunctions/arm_min_no_idx_q31.c:118:3
	b	.LBB28_1
.LBB28_1:                               @ =>This Inner Loop Header: Depth=1
	.loc	31 118 10 is_stmt 0             @ ../Middlewares/CMSIS/DSP/Src/StatisticsFunctions/arm_min_no_idx_q31.c:118:10
	ldr	r0, [sp]
	.loc	31 118 3                        @ ../Middlewares/CMSIS/DSP/Src/StatisticsFunctions/arm_min_no_idx_q31.c:118:3
	cbz	r0, .LBB28_5
	b	.LBB28_2
.LBB28_2:                               @   in Loop: Header=BB28_1 Depth=1
.Ltmp185:
	.loc	31 121 20 is_stmt 1             @ ../Middlewares/CMSIS/DSP/Src/StatisticsFunctions/arm_min_no_idx_q31.c:121:20
	ldr	r0, [sp, #20]
	adds	r1, r0, #4
	str	r1, [sp, #20]
	.loc	31 121 15 is_stmt 0             @ ../Middlewares/CMSIS/DSP/Src/StatisticsFunctions/arm_min_no_idx_q31.c:121:15
	ldr	r0, [r0]
	.loc	31 121 13                       @ ../Middlewares/CMSIS/DSP/Src/StatisticsFunctions/arm_min_no_idx_q31.c:121:13
	str	r0, [sp, #8]
.Ltmp186:
	.loc	31 124 9 is_stmt 1              @ ../Middlewares/CMSIS/DSP/Src/StatisticsFunctions/arm_min_no_idx_q31.c:124:9
	ldr	r0, [sp, #4]
	.loc	31 124 15 is_stmt 0             @ ../Middlewares/CMSIS/DSP/Src/StatisticsFunctions/arm_min_no_idx_q31.c:124:15
	ldr	r1, [sp, #8]
.Ltmp187:
	.loc	31 124 9                        @ ../Middlewares/CMSIS/DSP/Src/StatisticsFunctions/arm_min_no_idx_q31.c:124:9
	cmp	r0, r1
	ble	.LBB28_4
	b	.LBB28_3
.LBB28_3:                               @   in Loop: Header=BB28_1 Depth=1
.Ltmp188:
	.loc	31 127 13 is_stmt 1             @ ../Middlewares/CMSIS/DSP/Src/StatisticsFunctions/arm_min_no_idx_q31.c:127:13
	ldr	r0, [sp, #8]
	.loc	31 127 11 is_stmt 0             @ ../Middlewares/CMSIS/DSP/Src/StatisticsFunctions/arm_min_no_idx_q31.c:127:11
	str	r0, [sp, #4]
	.loc	31 128 5 is_stmt 1              @ ../Middlewares/CMSIS/DSP/Src/StatisticsFunctions/arm_min_no_idx_q31.c:128:5
	b	.LBB28_4
.Ltmp189:
.LBB28_4:                               @   in Loop: Header=BB28_1 Depth=1
	.loc	31 131 11                       @ ../Middlewares/CMSIS/DSP/Src/StatisticsFunctions/arm_min_no_idx_q31.c:131:11
	ldr	r0, [sp]
	subs	r0, #1
	str	r0, [sp]
.Ltmp190:
	.loc	31 118 3                        @ ../Middlewares/CMSIS/DSP/Src/StatisticsFunctions/arm_min_no_idx_q31.c:118:3
	b	.LBB28_1
.LBB28_5:
	.loc	31 135 14                       @ ../Middlewares/CMSIS/DSP/Src/StatisticsFunctions/arm_min_no_idx_q31.c:135:14
	ldr	r0, [sp, #4]
	.loc	31 135 4 is_stmt 0              @ ../Middlewares/CMSIS/DSP/Src/StatisticsFunctions/arm_min_no_idx_q31.c:135:4
	ldr	r1, [sp, #12]
	.loc	31 135 12                       @ ../Middlewares/CMSIS/DSP/Src/StatisticsFunctions/arm_min_no_idx_q31.c:135:12
	str	r0, [r1]
	.loc	31 136 1 is_stmt 1              @ ../Middlewares/CMSIS/DSP/Src/StatisticsFunctions/arm_min_no_idx_q31.c:136:1
	add	sp, #24
	bx	lr
.Ltmp191:
.Lfunc_end28:
	.size	arm_min_no_idx_q31, .Lfunc_end28-arm_min_no_idx_q31
	.cfi_endproc
	.cantunwind
	.fnend
                                        @ -- End function
	.section	.text.arm_min_no_idx_q15,"ax",%progbits
	.hidden	arm_min_no_idx_q15              @ -- Begin function arm_min_no_idx_q15
	.globl	arm_min_no_idx_q15
	.p2align	2
	.type	arm_min_no_idx_q15,%function
	.code	16                              @ @arm_min_no_idx_q15
	.thumb_func
arm_min_no_idx_q15:
.Lfunc_begin29:
	.file	32 "D:\\horizon\\Horizon_Infantry (2)\\MDK-ARM" "../Middlewares/CMSIS/DSP/Src/StatisticsFunctions/arm_min_no_idx_q15.c"
	.loc	32 109 0                        @ ../Middlewares/CMSIS/DSP/Src/StatisticsFunctions/arm_min_no_idx_q15.c:109:0
	.fnstart
	.cfi_startproc
@ %bb.0:
	.pad	#20
	sub	sp, #20
	.cfi_def_cfa_offset 20
	str	r0, [sp, #16]
	str	r1, [sp, #12]
	str	r2, [sp, #8]
.Ltmp192:
	.loc	32 114 14 prologue_end          @ ../Middlewares/CMSIS/DSP/Src/StatisticsFunctions/arm_min_no_idx_q15.c:114:14
	ldr	r0, [sp, #16]
	adds	r1, r0, #2
	str	r1, [sp, #16]
	.loc	32 114 9 is_stmt 0              @ ../Middlewares/CMSIS/DSP/Src/StatisticsFunctions/arm_min_no_idx_q15.c:114:9
	ldrh	r0, [r0]
	.loc	32 114 7                        @ ../Middlewares/CMSIS/DSP/Src/StatisticsFunctions/arm_min_no_idx_q15.c:114:7
	strh.w	r0, [sp, #4]
	.loc	32 116 13 is_stmt 1             @ ../Middlewares/CMSIS/DSP/Src/StatisticsFunctions/arm_min_no_idx_q15.c:116:13
	ldr	r0, [sp, #12]
	.loc	32 116 23 is_stmt 0             @ ../Middlewares/CMSIS/DSP/Src/StatisticsFunctions/arm_min_no_idx_q15.c:116:23
	subs	r0, #1
	.loc	32 116 10                       @ ../Middlewares/CMSIS/DSP/Src/StatisticsFunctions/arm_min_no_idx_q15.c:116:10
	str	r0, [sp]
	.loc	32 119 3 is_stmt 1              @ ../Middlewares/CMSIS/DSP/Src/StatisticsFunctions/arm_min_no_idx_q15.c:119:3
	b	.LBB29_1
.LBB29_1:                               @ =>This Inner Loop Header: Depth=1
	.loc	32 119 10 is_stmt 0             @ ../Middlewares/CMSIS/DSP/Src/StatisticsFunctions/arm_min_no_idx_q15.c:119:10
	ldr	r0, [sp]
	.loc	32 119 3                        @ ../Middlewares/CMSIS/DSP/Src/StatisticsFunctions/arm_min_no_idx_q15.c:119:3
	cbz	r0, .LBB29_5
	b	.LBB29_2
.LBB29_2:                               @   in Loop: Header=BB29_1 Depth=1
.Ltmp193:
	.loc	32 122 20 is_stmt 1             @ ../Middlewares/CMSIS/DSP/Src/StatisticsFunctions/arm_min_no_idx_q15.c:122:20
	ldr	r0, [sp, #16]
	adds	r1, r0, #2
	str	r1, [sp, #16]
	.loc	32 122 15 is_stmt 0             @ ../Middlewares/CMSIS/DSP/Src/StatisticsFunctions/arm_min_no_idx_q15.c:122:15
	ldrh	r0, [r0]
	.loc	32 122 13                       @ ../Middlewares/CMSIS/DSP/Src/StatisticsFunctions/arm_min_no_idx_q15.c:122:13
	strh.w	r0, [sp, #6]
.Ltmp194:
	.loc	32 125 9 is_stmt 1              @ ../Middlewares/CMSIS/DSP/Src/StatisticsFunctions/arm_min_no_idx_q15.c:125:9
	ldrsh.w	r0, [sp, #4]
	.loc	32 125 15 is_stmt 0             @ ../Middlewares/CMSIS/DSP/Src/StatisticsFunctions/arm_min_no_idx_q15.c:125:15
	ldrsh.w	r1, [sp, #6]
.Ltmp195:
	.loc	32 125 9                        @ ../Middlewares/CMSIS/DSP/Src/StatisticsFunctions/arm_min_no_idx_q15.c:125:9
	cmp	r0, r1
	ble	.LBB29_4
	b	.LBB29_3
.LBB29_3:                               @   in Loop: Header=BB29_1 Depth=1
.Ltmp196:
	.loc	32 128 13 is_stmt 1             @ ../Middlewares/CMSIS/DSP/Src/StatisticsFunctions/arm_min_no_idx_q15.c:128:13
	ldrh.w	r0, [sp, #6]
	.loc	32 128 11 is_stmt 0             @ ../Middlewares/CMSIS/DSP/Src/StatisticsFunctions/arm_min_no_idx_q15.c:128:11
	strh.w	r0, [sp, #4]
	.loc	32 129 5 is_stmt 1              @ ../Middlewares/CMSIS/DSP/Src/StatisticsFunctions/arm_min_no_idx_q15.c:129:5
	b	.LBB29_4
.Ltmp197:
.LBB29_4:                               @   in Loop: Header=BB29_1 Depth=1
	.loc	32 132 11                       @ ../Middlewares/CMSIS/DSP/Src/StatisticsFunctions/arm_min_no_idx_q15.c:132:11
	ldr	r0, [sp]
	subs	r0, #1
	str	r0, [sp]
.Ltmp198:
	.loc	32 119 3                        @ ../Middlewares/CMSIS/DSP/Src/StatisticsFunctions/arm_min_no_idx_q15.c:119:3
	b	.LBB29_1
.LBB29_5:
	.loc	32 136 14                       @ ../Middlewares/CMSIS/DSP/Src/StatisticsFunctions/arm_min_no_idx_q15.c:136:14
	ldrh.w	r0, [sp, #4]
	.loc	32 136 4 is_stmt 0              @ ../Middlewares/CMSIS/DSP/Src/StatisticsFunctions/arm_min_no_idx_q15.c:136:4
	ldr	r1, [sp, #8]
	.loc	32 136 12                       @ ../Middlewares/CMSIS/DSP/Src/StatisticsFunctions/arm_min_no_idx_q15.c:136:12
	strh	r0, [r1]
	.loc	32 137 1 is_stmt 1              @ ../Middlewares/CMSIS/DSP/Src/StatisticsFunctions/arm_min_no_idx_q15.c:137:1
	add	sp, #20
	bx	lr
.Ltmp199:
.Lfunc_end29:
	.size	arm_min_no_idx_q15, .Lfunc_end29-arm_min_no_idx_q15
	.cfi_endproc
	.cantunwind
	.fnend
                                        @ -- End function
	.section	.text.arm_min_no_idx_q7,"ax",%progbits
	.hidden	arm_min_no_idx_q7               @ -- Begin function arm_min_no_idx_q7
	.globl	arm_min_no_idx_q7
	.p2align	2
	.type	arm_min_no_idx_q7,%function
	.code	16                              @ @arm_min_no_idx_q7
	.thumb_func
arm_min_no_idx_q7:
.Lfunc_begin30:
	.file	33 "D:\\horizon\\Horizon_Infantry (2)\\MDK-ARM" "../Middlewares/CMSIS/DSP/Src/StatisticsFunctions/arm_min_no_idx_q7.c"
	.loc	33 108 0                        @ ../Middlewares/CMSIS/DSP/Src/StatisticsFunctions/arm_min_no_idx_q7.c:108:0
	.fnstart
	.cfi_startproc
@ %bb.0:
	.pad	#20
	sub	sp, #20
	.cfi_def_cfa_offset 20
	str	r0, [sp, #16]
	str	r1, [sp, #12]
	str	r2, [sp, #8]
.Ltmp200:
	.loc	33 113 14 prologue_end          @ ../Middlewares/CMSIS/DSP/Src/StatisticsFunctions/arm_min_no_idx_q7.c:113:14
	ldr	r0, [sp, #16]
	adds	r1, r0, #1
	str	r1, [sp, #16]
	.loc	33 113 9 is_stmt 0              @ ../Middlewares/CMSIS/DSP/Src/StatisticsFunctions/arm_min_no_idx_q7.c:113:9
	ldrb	r0, [r0]
	.loc	33 113 7                        @ ../Middlewares/CMSIS/DSP/Src/StatisticsFunctions/arm_min_no_idx_q7.c:113:7
	strb.w	r0, [sp, #6]
	.loc	33 115 13 is_stmt 1             @ ../Middlewares/CMSIS/DSP/Src/StatisticsFunctions/arm_min_no_idx_q7.c:115:13
	ldr	r0, [sp, #12]
	.loc	33 115 23 is_stmt 0             @ ../Middlewares/CMSIS/DSP/Src/StatisticsFunctions/arm_min_no_idx_q7.c:115:23
	subs	r0, #1
	.loc	33 115 10                       @ ../Middlewares/CMSIS/DSP/Src/StatisticsFunctions/arm_min_no_idx_q7.c:115:10
	str	r0, [sp]
	.loc	33 118 3 is_stmt 1              @ ../Middlewares/CMSIS/DSP/Src/StatisticsFunctions/arm_min_no_idx_q7.c:118:3
	b	.LBB30_1
.LBB30_1:                               @ =>This Inner Loop Header: Depth=1
	.loc	33 118 10 is_stmt 0             @ ../Middlewares/CMSIS/DSP/Src/StatisticsFunctions/arm_min_no_idx_q7.c:118:10
	ldr	r0, [sp]
	.loc	33 118 3                        @ ../Middlewares/CMSIS/DSP/Src/StatisticsFunctions/arm_min_no_idx_q7.c:118:3
	cbz	r0, .LBB30_5
	b	.LBB30_2
.LBB30_2:                               @   in Loop: Header=BB30_1 Depth=1
.Ltmp201:
	.loc	33 121 20 is_stmt 1             @ ../Middlewares/CMSIS/DSP/Src/StatisticsFunctions/arm_min_no_idx_q7.c:121:20
	ldr	r0, [sp, #16]
	adds	r1, r0, #1
	str	r1, [sp, #16]
	.loc	33 121 15 is_stmt 0             @ ../Middlewares/CMSIS/DSP/Src/StatisticsFunctions/arm_min_no_idx_q7.c:121:15
	ldrb	r0, [r0]
	.loc	33 121 13                       @ ../Middlewares/CMSIS/DSP/Src/StatisticsFunctions/arm_min_no_idx_q7.c:121:13
	strb.w	r0, [sp, #7]
.Ltmp202:
	.loc	33 124 9 is_stmt 1              @ ../Middlewares/CMSIS/DSP/Src/StatisticsFunctions/arm_min_no_idx_q7.c:124:9
	ldrsb.w	r0, [sp, #6]
	.loc	33 124 15 is_stmt 0             @ ../Middlewares/CMSIS/DSP/Src/StatisticsFunctions/arm_min_no_idx_q7.c:124:15
	ldrsb.w	r1, [sp, #7]
.Ltmp203:
	.loc	33 124 9                        @ ../Middlewares/CMSIS/DSP/Src/StatisticsFunctions/arm_min_no_idx_q7.c:124:9
	cmp	r0, r1
	ble	.LBB30_4
	b	.LBB30_3
.LBB30_3:                               @   in Loop: Header=BB30_1 Depth=1
.Ltmp204:
	.loc	33 127 13 is_stmt 1             @ ../Middlewares/CMSIS/DSP/Src/StatisticsFunctions/arm_min_no_idx_q7.c:127:13
	ldrb.w	r0, [sp, #7]
	.loc	33 127 11 is_stmt 0             @ ../Middlewares/CMSIS/DSP/Src/StatisticsFunctions/arm_min_no_idx_q7.c:127:11
	strb.w	r0, [sp, #6]
	.loc	33 128 5 is_stmt 1              @ ../Middlewares/CMSIS/DSP/Src/StatisticsFunctions/arm_min_no_idx_q7.c:128:5
	b	.LBB30_4
.Ltmp205:
.LBB30_4:                               @   in Loop: Header=BB30_1 Depth=1
	.loc	33 131 11                       @ ../Middlewares/CMSIS/DSP/Src/StatisticsFunctions/arm_min_no_idx_q7.c:131:11
	ldr	r0, [sp]
	subs	r0, #1
	str	r0, [sp]
.Ltmp206:
	.loc	33 118 3                        @ ../Middlewares/CMSIS/DSP/Src/StatisticsFunctions/arm_min_no_idx_q7.c:118:3
	b	.LBB30_1
.LBB30_5:
	.loc	33 135 14                       @ ../Middlewares/CMSIS/DSP/Src/StatisticsFunctions/arm_min_no_idx_q7.c:135:14
	ldrb.w	r0, [sp, #6]
	.loc	33 135 4 is_stmt 0              @ ../Middlewares/CMSIS/DSP/Src/StatisticsFunctions/arm_min_no_idx_q7.c:135:4
	ldr	r1, [sp, #8]
	.loc	33 135 12                       @ ../Middlewares/CMSIS/DSP/Src/StatisticsFunctions/arm_min_no_idx_q7.c:135:12
	strb	r0, [r1]
	.loc	33 136 1 is_stmt 1              @ ../Middlewares/CMSIS/DSP/Src/StatisticsFunctions/arm_min_no_idx_q7.c:136:1
	add	sp, #20
	bx	lr
.Ltmp207:
.Lfunc_end30:
	.size	arm_min_no_idx_q7, .Lfunc_end30-arm_min_no_idx_q7
	.cfi_endproc
	.cantunwind
	.fnend
                                        @ -- End function
	.section	.text.arm_power_f32,"ax",%progbits
	.hidden	arm_power_f32                   @ -- Begin function arm_power_f32
	.globl	arm_power_f32
	.p2align	2
	.type	arm_power_f32,%function
	.code	16                              @ @arm_power_f32
	.thumb_func
arm_power_f32:
.Lfunc_begin31:
	.file	34 "D:\\horizon\\Horizon_Infantry (2)\\MDK-ARM" "../Middlewares/CMSIS/DSP/Src/StatisticsFunctions/arm_power_f32.c"
	.loc	34 168 0                        @ ../Middlewares/CMSIS/DSP/Src/StatisticsFunctions/arm_power_f32.c:168:0
	.fnstart
	.cfi_startproc
@ %bb.0:
	.pad	#24
	sub	sp, #24
	.cfi_def_cfa_offset 24
	str	r0, [sp, #20]
	str	r1, [sp, #16]
	str	r2, [sp, #12]
	movs	r0, #0
.Ltmp208:
	.loc	34 170 19 prologue_end          @ ../Middlewares/CMSIS/DSP/Src/StatisticsFunctions/arm_power_f32.c:170:19
	str	r0, [sp, #4]
	.loc	34 205 12                       @ ../Middlewares/CMSIS/DSP/Src/StatisticsFunctions/arm_power_f32.c:205:12
	ldr	r0, [sp, #16]
	.loc	34 205 10 is_stmt 0             @ ../Middlewares/CMSIS/DSP/Src/StatisticsFunctions/arm_power_f32.c:205:10
	str	r0, [sp, #8]
	.loc	34 209 3 is_stmt 1              @ ../Middlewares/CMSIS/DSP/Src/StatisticsFunctions/arm_power_f32.c:209:3
	b	.LBB31_1
.LBB31_1:                               @ =>This Inner Loop Header: Depth=1
	.loc	34 209 10 is_stmt 0             @ ../Middlewares/CMSIS/DSP/Src/StatisticsFunctions/arm_power_f32.c:209:10
	ldr	r0, [sp, #8]
	.loc	34 209 3                        @ ../Middlewares/CMSIS/DSP/Src/StatisticsFunctions/arm_power_f32.c:209:3
	cbz	r0, .LBB31_3
	b	.LBB31_2
.LBB31_2:                               @   in Loop: Header=BB31_1 Depth=1
.Ltmp209:
	.loc	34 214 15 is_stmt 1             @ ../Middlewares/CMSIS/DSP/Src/StatisticsFunctions/arm_power_f32.c:214:15
	ldr	r0, [sp, #20]
	adds	r1, r0, #4
	str	r1, [sp, #20]
	.loc	34 214 10 is_stmt 0             @ ../Middlewares/CMSIS/DSP/Src/StatisticsFunctions/arm_power_f32.c:214:10
	ldr	r0, [r0]
	.loc	34 214 8                        @ ../Middlewares/CMSIS/DSP/Src/StatisticsFunctions/arm_power_f32.c:214:8
	str	r0, [sp]
	.loc	34 215 12 is_stmt 1             @ ../Middlewares/CMSIS/DSP/Src/StatisticsFunctions/arm_power_f32.c:215:12
	vldr	s0, [sp]
	.loc	34 215 9 is_stmt 0              @ ../Middlewares/CMSIS/DSP/Src/StatisticsFunctions/arm_power_f32.c:215:9
	vldr	s2, [sp, #4]
	vmul.f32	s0, s0, s0
	vadd.f32	s0, s0, s2
	vstr	s0, [sp, #4]
	.loc	34 218 11 is_stmt 1             @ ../Middlewares/CMSIS/DSP/Src/StatisticsFunctions/arm_power_f32.c:218:11
	ldr	r0, [sp, #8]
	subs	r0, #1
	str	r0, [sp, #8]
.Ltmp210:
	.loc	34 209 3                        @ ../Middlewares/CMSIS/DSP/Src/StatisticsFunctions/arm_power_f32.c:209:3
	b	.LBB31_1
.LBB31_3:
	.loc	34 222 14                       @ ../Middlewares/CMSIS/DSP/Src/StatisticsFunctions/arm_power_f32.c:222:14
	ldr	r0, [sp, #4]
	.loc	34 222 4 is_stmt 0              @ ../Middlewares/CMSIS/DSP/Src/StatisticsFunctions/arm_power_f32.c:222:4
	ldr	r1, [sp, #12]
	.loc	34 222 12                       @ ../Middlewares/CMSIS/DSP/Src/StatisticsFunctions/arm_power_f32.c:222:12
	str	r0, [r1]
	.loc	34 223 1 is_stmt 1              @ ../Middlewares/CMSIS/DSP/Src/StatisticsFunctions/arm_power_f32.c:223:1
	add	sp, #24
	bx	lr
.Ltmp211:
.Lfunc_end31:
	.size	arm_power_f32, .Lfunc_end31-arm_power_f32
	.cfi_endproc
	.cantunwind
	.fnend
                                        @ -- End function
	.section	.text.arm_power_f64,"ax",%progbits
	.hidden	arm_power_f64                   @ -- Begin function arm_power_f64
	.globl	arm_power_f64
	.p2align	2
	.type	arm_power_f64,%function
	.code	16                              @ @arm_power_f64
	.thumb_func
arm_power_f64:
.Lfunc_begin32:
	.file	35 "D:\\horizon\\Horizon_Infantry (2)\\MDK-ARM" "../Middlewares/CMSIS/DSP/Src/StatisticsFunctions/arm_power_f64.c"
	.loc	35 102 0                        @ ../Middlewares/CMSIS/DSP/Src/StatisticsFunctions/arm_power_f64.c:102:0
	.fnstart
	.cfi_startproc
@ %bb.0:
	.save	{r7, lr}
	push	{r7, lr}
	.cfi_def_cfa_offset 8
	.cfi_offset lr, -4
	.cfi_offset r7, -8
	.pad	#40
	sub	sp, #40
	.cfi_def_cfa_offset 48
	str	r0, [sp, #36]
	str	r1, [sp, #32]
	str	r2, [sp, #28]
	movs	r0, #0
.Ltmp212:
	.loc	35 104 15 prologue_end          @ ../Middlewares/CMSIS/DSP/Src/StatisticsFunctions/arm_power_f64.c:104:15
	str	r0, [sp, #20]
	str	r0, [sp, #16]
	.loc	35 108 14                       @ ../Middlewares/CMSIS/DSP/Src/StatisticsFunctions/arm_power_f64.c:108:14
	ldr	r0, [sp, #32]
	.loc	35 108 12 is_stmt 0             @ ../Middlewares/CMSIS/DSP/Src/StatisticsFunctions/arm_power_f64.c:108:12
	str	r0, [sp, #24]
	.loc	35 110 5 is_stmt 1              @ ../Middlewares/CMSIS/DSP/Src/StatisticsFunctions/arm_power_f64.c:110:5
	b	.LBB32_1
.LBB32_1:                               @ =>This Inner Loop Header: Depth=1
	.loc	35 110 12 is_stmt 0             @ ../Middlewares/CMSIS/DSP/Src/StatisticsFunctions/arm_power_f64.c:110:12
	ldr	r0, [sp, #24]
	.loc	35 110 5                        @ ../Middlewares/CMSIS/DSP/Src/StatisticsFunctions/arm_power_f64.c:110:5
	cbz	r0, .LBB32_3
	b	.LBB32_2
.LBB32_2:                               @   in Loop: Header=BB32_1 Depth=1
.Ltmp213:
	.loc	35 115 19 is_stmt 1             @ ../Middlewares/CMSIS/DSP/Src/StatisticsFunctions/arm_power_f64.c:115:19
	ldr	r0, [sp, #36]
	add.w	r1, r0, #8
	str	r1, [sp, #36]
	.loc	35 115 14 is_stmt 0             @ ../Middlewares/CMSIS/DSP/Src/StatisticsFunctions/arm_power_f64.c:115:14
	vldr	d0, [r0]
	.loc	35 115 12                       @ ../Middlewares/CMSIS/DSP/Src/StatisticsFunctions/arm_power_f64.c:115:12
	vstr	d0, [sp, #8]
	.loc	35 116 16 is_stmt 1             @ ../Middlewares/CMSIS/DSP/Src/StatisticsFunctions/arm_power_f64.c:116:16
	vldr	d0, [sp, #8]
	.loc	35 116 13 is_stmt 0             @ ../Middlewares/CMSIS/DSP/Src/StatisticsFunctions/arm_power_f64.c:116:13
	vldr	d1, [sp, #16]
	vstr	d1, [sp]                        @ 8-byte Spill
	vmov	r2, r3, d0
	mov	r0, r2
	mov	r1, r3
	bl	__aeabi_dmul
	vldr	d0, [sp]                        @ 8-byte Reload
	vmov	r2, r3, d0
	vmov	d0, r0, r1
	vmov	r0, r1, d0
	bl	__aeabi_dadd
	vmov	d0, r0, r1
	vstr	d0, [sp, #16]
	.loc	35 119 15 is_stmt 1             @ ../Middlewares/CMSIS/DSP/Src/StatisticsFunctions/arm_power_f64.c:119:15
	ldr	r0, [sp, #24]
	subs	r0, #1
	str	r0, [sp, #24]
.Ltmp214:
	.loc	35 110 5                        @ ../Middlewares/CMSIS/DSP/Src/StatisticsFunctions/arm_power_f64.c:110:5
	b	.LBB32_1
.LBB32_3:
	.loc	35 123 16                       @ ../Middlewares/CMSIS/DSP/Src/StatisticsFunctions/arm_power_f64.c:123:16
	vldr	d0, [sp, #16]
	.loc	35 123 6 is_stmt 0              @ ../Middlewares/CMSIS/DSP/Src/StatisticsFunctions/arm_power_f64.c:123:6
	ldr	r0, [sp, #28]
	.loc	35 123 14                       @ ../Middlewares/CMSIS/DSP/Src/StatisticsFunctions/arm_power_f64.c:123:14
	vstr	d0, [r0]
	.loc	35 124 1 is_stmt 1              @ ../Middlewares/CMSIS/DSP/Src/StatisticsFunctions/arm_power_f64.c:124:1
	add	sp, #40
	pop	{r7, pc}
.Ltmp215:
.Lfunc_end32:
	.size	arm_power_f64, .Lfunc_end32-arm_power_f64
	.cfi_endproc
	.cantunwind
	.fnend
                                        @ -- End function
	.section	.text.arm_power_q15,"ax",%progbits
	.hidden	arm_power_q15                   @ -- Begin function arm_power_q15
	.globl	arm_power_q15
	.p2align	2
	.type	arm_power_q15,%function
	.code	16                              @ @arm_power_q15
	.thumb_func
arm_power_q15:
.Lfunc_begin33:
	.file	36 "D:\\horizon\\Horizon_Infantry (2)\\MDK-ARM" "../Middlewares/CMSIS/DSP/Src/StatisticsFunctions/arm_power_q15.c"
	.loc	36 105 0                        @ ../Middlewares/CMSIS/DSP/Src/StatisticsFunctions/arm_power_q15.c:105:0
	.fnstart
	.cfi_startproc
@ %bb.0:
	.pad	#32
	sub	sp, #32
	.cfi_def_cfa_offset 32
	str	r0, [sp, #28]
	str	r1, [sp, #24]
	str	r2, [sp, #20]
	movs	r0, #0
.Ltmp216:
	.loc	36 107 15 prologue_end          @ ../Middlewares/CMSIS/DSP/Src/StatisticsFunctions/arm_power_q15.c:107:15
	str	r0, [sp, #12]
	str	r0, [sp, #8]
	.loc	36 154 12                       @ ../Middlewares/CMSIS/DSP/Src/StatisticsFunctions/arm_power_q15.c:154:12
	ldr	r0, [sp, #24]
	.loc	36 154 10 is_stmt 0             @ ../Middlewares/CMSIS/DSP/Src/StatisticsFunctions/arm_power_q15.c:154:10
	str	r0, [sp, #16]
	.loc	36 158 3 is_stmt 1              @ ../Middlewares/CMSIS/DSP/Src/StatisticsFunctions/arm_power_q15.c:158:3
	b	.LBB33_1
.LBB33_1:                               @ =>This Inner Loop Header: Depth=1
	.loc	36 158 10 is_stmt 0             @ ../Middlewares/CMSIS/DSP/Src/StatisticsFunctions/arm_power_q15.c:158:10
	ldr	r0, [sp, #16]
	.loc	36 158 3                        @ ../Middlewares/CMSIS/DSP/Src/StatisticsFunctions/arm_power_q15.c:158:3
	cbz	r0, .LBB33_3
	b	.LBB33_2
.LBB33_2:                               @   in Loop: Header=BB33_1 Depth=1
.Ltmp217:
	.loc	36 163 15 is_stmt 1             @ ../Middlewares/CMSIS/DSP/Src/StatisticsFunctions/arm_power_q15.c:163:15
	ldr	r0, [sp, #28]
	adds	r1, r0, #2
	str	r1, [sp, #28]
	.loc	36 163 10 is_stmt 0             @ ../Middlewares/CMSIS/DSP/Src/StatisticsFunctions/arm_power_q15.c:163:10
	ldrh	r0, [r0]
	.loc	36 163 8                        @ ../Middlewares/CMSIS/DSP/Src/StatisticsFunctions/arm_power_q15.c:163:8
	strh.w	r0, [sp, #6]
	.loc	36 164 21 is_stmt 1             @ ../Middlewares/CMSIS/DSP/Src/StatisticsFunctions/arm_power_q15.c:164:21
	ldrsh.w	r2, [sp, #6]
	.loc	36 164 9 is_stmt 0              @ ../Middlewares/CMSIS/DSP/Src/StatisticsFunctions/arm_power_q15.c:164:9
	ldr	r0, [sp, #8]
	ldr	r1, [sp, #12]
	smlalbb	r0, r1, r2, r2
	str	r1, [sp, #12]
	str	r0, [sp, #8]
	.loc	36 167 11 is_stmt 1             @ ../Middlewares/CMSIS/DSP/Src/StatisticsFunctions/arm_power_q15.c:167:11
	ldr	r0, [sp, #16]
	subs	r0, #1
	str	r0, [sp, #16]
.Ltmp218:
	.loc	36 158 3                        @ ../Middlewares/CMSIS/DSP/Src/StatisticsFunctions/arm_power_q15.c:158:3
	b	.LBB33_1
.LBB33_3:
	.loc	36 171 14                       @ ../Middlewares/CMSIS/DSP/Src/StatisticsFunctions/arm_power_q15.c:171:14
	ldr	r0, [sp, #8]
	ldr	r2, [sp, #12]
	.loc	36 171 4 is_stmt 0              @ ../Middlewares/CMSIS/DSP/Src/StatisticsFunctions/arm_power_q15.c:171:4
	ldr	r1, [sp, #20]
	.loc	36 171 12                       @ ../Middlewares/CMSIS/DSP/Src/StatisticsFunctions/arm_power_q15.c:171:12
	str	r2, [r1, #4]
	str	r0, [r1]
	.loc	36 172 1 is_stmt 1              @ ../Middlewares/CMSIS/DSP/Src/StatisticsFunctions/arm_power_q15.c:172:1
	add	sp, #32
	bx	lr
.Ltmp219:
.Lfunc_end33:
	.size	arm_power_q15, .Lfunc_end33-arm_power_q15
	.cfi_endproc
	.cantunwind
	.fnend
                                        @ -- End function
	.section	.text.arm_power_q31,"ax",%progbits
	.hidden	arm_power_q31                   @ -- Begin function arm_power_q31
	.globl	arm_power_q31
	.p2align	2
	.type	arm_power_q31,%function
	.code	16                              @ @arm_power_q31
	.thumb_func
arm_power_q31:
.Lfunc_begin34:
	.file	37 "D:\\horizon\\Horizon_Infantry (2)\\MDK-ARM" "../Middlewares/CMSIS/DSP/Src/StatisticsFunctions/arm_power_q31.c"
	.loc	37 105 0                        @ ../Middlewares/CMSIS/DSP/Src/StatisticsFunctions/arm_power_q31.c:105:0
	.fnstart
	.cfi_startproc
@ %bb.0:
	.pad	#32
	sub	sp, #32
	.cfi_def_cfa_offset 32
	str	r0, [sp, #28]
	str	r1, [sp, #24]
	str	r2, [sp, #20]
	movs	r0, #0
.Ltmp220:
	.loc	37 107 15 prologue_end          @ ../Middlewares/CMSIS/DSP/Src/StatisticsFunctions/arm_power_q31.c:107:15
	str	r0, [sp, #12]
	str	r0, [sp, #8]
	.loc	37 142 12                       @ ../Middlewares/CMSIS/DSP/Src/StatisticsFunctions/arm_power_q31.c:142:12
	ldr	r0, [sp, #24]
	.loc	37 142 10 is_stmt 0             @ ../Middlewares/CMSIS/DSP/Src/StatisticsFunctions/arm_power_q31.c:142:10
	str	r0, [sp, #16]
	.loc	37 146 3 is_stmt 1              @ ../Middlewares/CMSIS/DSP/Src/StatisticsFunctions/arm_power_q31.c:146:3
	b	.LBB34_1
.LBB34_1:                               @ =>This Inner Loop Header: Depth=1
	.loc	37 146 10 is_stmt 0             @ ../Middlewares/CMSIS/DSP/Src/StatisticsFunctions/arm_power_q31.c:146:10
	ldr	r0, [sp, #16]
	.loc	37 146 3                        @ ../Middlewares/CMSIS/DSP/Src/StatisticsFunctions/arm_power_q31.c:146:3
	cbz	r0, .LBB34_3
	b	.LBB34_2
.LBB34_2:                               @   in Loop: Header=BB34_1 Depth=1
.Ltmp221:
	.loc	37 151 15 is_stmt 1             @ ../Middlewares/CMSIS/DSP/Src/StatisticsFunctions/arm_power_q31.c:151:15
	ldr	r0, [sp, #28]
	adds	r1, r0, #4
	str	r1, [sp, #28]
	.loc	37 151 10 is_stmt 0             @ ../Middlewares/CMSIS/DSP/Src/StatisticsFunctions/arm_power_q31.c:151:10
	ldr	r0, [r0]
	.loc	37 151 8                        @ ../Middlewares/CMSIS/DSP/Src/StatisticsFunctions/arm_power_q31.c:151:8
	str	r0, [sp, #4]
	.loc	37 152 21 is_stmt 1             @ ../Middlewares/CMSIS/DSP/Src/StatisticsFunctions/arm_power_q31.c:152:21
	ldr	r0, [sp, #4]
	.loc	37 152 24 is_stmt 0             @ ../Middlewares/CMSIS/DSP/Src/StatisticsFunctions/arm_power_q31.c:152:24
	smull	r0, r2, r0, r0
	.loc	37 152 30                       @ ../Middlewares/CMSIS/DSP/Src/StatisticsFunctions/arm_power_q31.c:152:30
	lsrs	r0, r0, #14
	orr.w	r3, r0, r2, lsl #18
	.loc	37 152 9                        @ ../Middlewares/CMSIS/DSP/Src/StatisticsFunctions/arm_power_q31.c:152:9
	ldr	r1, [sp, #8]
	ldr	r0, [sp, #12]
	adds	r1, r1, r3
	adc.w	r0, r0, r2, asr #14
	str	r1, [sp, #8]
	str	r0, [sp, #12]
	.loc	37 155 11 is_stmt 1             @ ../Middlewares/CMSIS/DSP/Src/StatisticsFunctions/arm_power_q31.c:155:11
	ldr	r0, [sp, #16]
	subs	r0, #1
	str	r0, [sp, #16]
.Ltmp222:
	.loc	37 146 3                        @ ../Middlewares/CMSIS/DSP/Src/StatisticsFunctions/arm_power_q31.c:146:3
	b	.LBB34_1
.LBB34_3:
	.loc	37 159 14                       @ ../Middlewares/CMSIS/DSP/Src/StatisticsFunctions/arm_power_q31.c:159:14
	ldr	r0, [sp, #8]
	ldr	r2, [sp, #12]
	.loc	37 159 4 is_stmt 0              @ ../Middlewares/CMSIS/DSP/Src/StatisticsFunctions/arm_power_q31.c:159:4
	ldr	r1, [sp, #20]
	.loc	37 159 12                       @ ../Middlewares/CMSIS/DSP/Src/StatisticsFunctions/arm_power_q31.c:159:12
	str	r2, [r1, #4]
	str	r0, [r1]
	.loc	37 160 1 is_stmt 1              @ ../Middlewares/CMSIS/DSP/Src/StatisticsFunctions/arm_power_q31.c:160:1
	add	sp, #32
	bx	lr
.Ltmp223:
.Lfunc_end34:
	.size	arm_power_q31, .Lfunc_end34-arm_power_q31
	.cfi_endproc
	.cantunwind
	.fnend
                                        @ -- End function
	.section	.text.arm_power_q7,"ax",%progbits
	.hidden	arm_power_q7                    @ -- Begin function arm_power_q7
	.globl	arm_power_q7
	.p2align	2
	.type	arm_power_q7,%function
	.code	16                              @ @arm_power_q7
	.thumb_func
arm_power_q7:
.Lfunc_begin35:
	.file	38 "D:\\horizon\\Horizon_Infantry (2)\\MDK-ARM" "../Middlewares/CMSIS/DSP/Src/StatisticsFunctions/arm_power_q7.c"
	.loc	38 104 0                        @ ../Middlewares/CMSIS/DSP/Src/StatisticsFunctions/arm_power_q7.c:104:0
	.fnstart
	.cfi_startproc
@ %bb.0:
	.pad	#24
	sub	sp, #24
	.cfi_def_cfa_offset 24
	str	r0, [sp, #20]
	str	r1, [sp, #16]
	str	r2, [sp, #12]
	movs	r0, #0
.Ltmp224:
	.loc	38 106 15 prologue_end          @ ../Middlewares/CMSIS/DSP/Src/StatisticsFunctions/arm_power_q7.c:106:15
	str	r0, [sp, #4]
	.loc	38 157 12                       @ ../Middlewares/CMSIS/DSP/Src/StatisticsFunctions/arm_power_q7.c:157:12
	ldr	r0, [sp, #16]
	.loc	38 157 10 is_stmt 0             @ ../Middlewares/CMSIS/DSP/Src/StatisticsFunctions/arm_power_q7.c:157:10
	str	r0, [sp, #8]
	.loc	38 161 3 is_stmt 1              @ ../Middlewares/CMSIS/DSP/Src/StatisticsFunctions/arm_power_q7.c:161:3
	b	.LBB35_1
.LBB35_1:                               @ =>This Inner Loop Header: Depth=1
	.loc	38 161 10 is_stmt 0             @ ../Middlewares/CMSIS/DSP/Src/StatisticsFunctions/arm_power_q7.c:161:10
	ldr	r0, [sp, #8]
	.loc	38 161 3                        @ ../Middlewares/CMSIS/DSP/Src/StatisticsFunctions/arm_power_q7.c:161:3
	cbz	r0, .LBB35_3
	b	.LBB35_2
.LBB35_2:                               @   in Loop: Header=BB35_1 Depth=1
.Ltmp225:
	.loc	38 166 15 is_stmt 1             @ ../Middlewares/CMSIS/DSP/Src/StatisticsFunctions/arm_power_q7.c:166:15
	ldr	r0, [sp, #20]
	adds	r1, r0, #1
	str	r1, [sp, #20]
	.loc	38 166 10 is_stmt 0             @ ../Middlewares/CMSIS/DSP/Src/StatisticsFunctions/arm_power_q7.c:166:10
	ldrb	r0, [r0]
	.loc	38 166 8                        @ ../Middlewares/CMSIS/DSP/Src/StatisticsFunctions/arm_power_q7.c:166:8
	strb.w	r0, [sp, #3]
	.loc	38 167 21 is_stmt 1             @ ../Middlewares/CMSIS/DSP/Src/StatisticsFunctions/arm_power_q7.c:167:21
	ldrsb.w	r0, [sp, #3]
	.loc	38 167 9 is_stmt 0              @ ../Middlewares/CMSIS/DSP/Src/StatisticsFunctions/arm_power_q7.c:167:9
	ldr	r1, [sp, #4]
	smlabb	r0, r0, r0, r1
	str	r0, [sp, #4]
	.loc	38 170 11 is_stmt 1             @ ../Middlewares/CMSIS/DSP/Src/StatisticsFunctions/arm_power_q7.c:170:11
	ldr	r0, [sp, #8]
	subs	r0, #1
	str	r0, [sp, #8]
.Ltmp226:
	.loc	38 161 3                        @ ../Middlewares/CMSIS/DSP/Src/StatisticsFunctions/arm_power_q7.c:161:3
	b	.LBB35_1
.LBB35_3:
	.loc	38 174 14                       @ ../Middlewares/CMSIS/DSP/Src/StatisticsFunctions/arm_power_q7.c:174:14
	ldr	r0, [sp, #4]
	.loc	38 174 4 is_stmt 0              @ ../Middlewares/CMSIS/DSP/Src/StatisticsFunctions/arm_power_q7.c:174:4
	ldr	r1, [sp, #12]
	.loc	38 174 12                       @ ../Middlewares/CMSIS/DSP/Src/StatisticsFunctions/arm_power_q7.c:174:12
	str	r0, [r1]
	.loc	38 175 1 is_stmt 1              @ ../Middlewares/CMSIS/DSP/Src/StatisticsFunctions/arm_power_q7.c:175:1
	add	sp, #24
	bx	lr
.Ltmp227:
.Lfunc_end35:
	.size	arm_power_q7, .Lfunc_end35-arm_power_q7
	.cfi_endproc
	.cantunwind
	.fnend
                                        @ -- End function
	.section	.text.arm_rms_f32,"ax",%progbits
	.hidden	arm_rms_f32                     @ -- Begin function arm_rms_f32
	.globl	arm_rms_f32
	.p2align	2
	.type	arm_rms_f32,%function
	.code	16                              @ @arm_rms_f32
	.thumb_func
arm_rms_f32:
.Lfunc_begin36:
	.file	39 "D:\\horizon\\Horizon_Infantry (2)\\MDK-ARM" "../Middlewares/CMSIS/DSP/Src/StatisticsFunctions/arm_rms_f32.c"
	.loc	39 131 0                        @ ../Middlewares/CMSIS/DSP/Src/StatisticsFunctions/arm_rms_f32.c:131:0
	.fnstart
	.cfi_startproc
@ %bb.0:
	.save	{r7, lr}
	push	{r7, lr}
	.cfi_def_cfa_offset 8
	.cfi_offset lr, -4
	.cfi_offset r7, -8
	.pad	#40
	sub	sp, #40
	.cfi_def_cfa_offset 48
	str	r0, [sp, #24]
	str	r1, [sp, #20]
	str	r2, [sp, #16]
	movs	r0, #0
.Ltmp228:
	.loc	39 133 19 prologue_end          @ ../Middlewares/CMSIS/DSP/Src/StatisticsFunctions/arm_rms_f32.c:133:19
	str	r0, [sp, #8]
	.loc	39 168 12                       @ ../Middlewares/CMSIS/DSP/Src/StatisticsFunctions/arm_rms_f32.c:168:12
	ldr	r0, [sp, #20]
	.loc	39 168 10 is_stmt 0             @ ../Middlewares/CMSIS/DSP/Src/StatisticsFunctions/arm_rms_f32.c:168:10
	str	r0, [sp, #12]
	.loc	39 172 3 is_stmt 1              @ ../Middlewares/CMSIS/DSP/Src/StatisticsFunctions/arm_rms_f32.c:172:3
	b	.LBB36_1
.LBB36_1:                               @ =>This Inner Loop Header: Depth=1
	.loc	39 172 10 is_stmt 0             @ ../Middlewares/CMSIS/DSP/Src/StatisticsFunctions/arm_rms_f32.c:172:10
	ldr	r0, [sp, #12]
	.loc	39 172 3                        @ ../Middlewares/CMSIS/DSP/Src/StatisticsFunctions/arm_rms_f32.c:172:3
	cbz	r0, .LBB36_3
	b	.LBB36_2
.LBB36_2:                               @   in Loop: Header=BB36_1 Depth=1
.Ltmp229:
	.loc	39 176 15 is_stmt 1             @ ../Middlewares/CMSIS/DSP/Src/StatisticsFunctions/arm_rms_f32.c:176:15
	ldr	r0, [sp, #24]
	adds	r1, r0, #4
	str	r1, [sp, #24]
	.loc	39 176 10 is_stmt 0             @ ../Middlewares/CMSIS/DSP/Src/StatisticsFunctions/arm_rms_f32.c:176:10
	ldr	r0, [r0]
	.loc	39 176 8                        @ ../Middlewares/CMSIS/DSP/Src/StatisticsFunctions/arm_rms_f32.c:176:8
	str	r0, [sp, #4]
	.loc	39 178 14 is_stmt 1             @ ../Middlewares/CMSIS/DSP/Src/StatisticsFunctions/arm_rms_f32.c:178:14
	vldr	s0, [sp, #4]
	.loc	39 178 9 is_stmt 0              @ ../Middlewares/CMSIS/DSP/Src/StatisticsFunctions/arm_rms_f32.c:178:9
	vldr	s2, [sp, #8]
	vmul.f32	s0, s0, s0
	vadd.f32	s0, s0, s2
	vstr	s0, [sp, #8]
	.loc	39 181 11 is_stmt 1             @ ../Middlewares/CMSIS/DSP/Src/StatisticsFunctions/arm_rms_f32.c:181:11
	ldr	r0, [sp, #12]
	subs	r0, #1
	str	r0, [sp, #12]
.Ltmp230:
	.loc	39 172 3                        @ ../Middlewares/CMSIS/DSP/Src/StatisticsFunctions/arm_rms_f32.c:172:3
	b	.LBB36_1
.LBB36_3:
	.loc	39 185 16                       @ ../Middlewares/CMSIS/DSP/Src/StatisticsFunctions/arm_rms_f32.c:185:16
	vldr	s0, [sp, #8]
	.loc	39 185 22 is_stmt 0             @ ../Middlewares/CMSIS/DSP/Src/StatisticsFunctions/arm_rms_f32.c:185:22
	vldr	s2, [sp, #20]
	vcvt.f32.u32	s2, s2
	.loc	39 185 20                       @ ../Middlewares/CMSIS/DSP/Src/StatisticsFunctions/arm_rms_f32.c:185:20
	vdiv.f32	s0, s0, s2
	.loc	39 185 45                       @ ../Middlewares/CMSIS/DSP/Src/StatisticsFunctions/arm_rms_f32.c:185:45
	ldr	r0, [sp, #16]
	vstr	s0, [sp, #32]
	str	r0, [sp, #28]
.Ltmp231:
	.file	40 "D:\\horizon\\Horizon_Infantry (2)\\MDK-ARM" "../Middlewares/CMSIS/DSP/Inc\\dsp/fast_math_functions.h"
	.loc	40 244 9 is_stmt 1              @ ../Middlewares/CMSIS/DSP/Inc\dsp/fast_math_functions.h:244:9
	vldr	s0, [sp, #32]
.Ltmp232:
	.loc	40 244 9 is_stmt 0              @ ../Middlewares/CMSIS/DSP/Inc\dsp/fast_math_functions.h:244:9
	vcmp.f32	s0, #0
	vmrs	APSR_nzcv, fpscr
	blt	.LBB36_5
	b	.LBB36_4
.LBB36_4:
.Ltmp233:
	.loc	40 261 22 is_stmt 1             @ ../Middlewares/CMSIS/DSP/Inc\dsp/fast_math_functions.h:261:22
	vldr	s0, [sp, #32]
	.loc	40 261 15 is_stmt 0             @ ../Middlewares/CMSIS/DSP/Inc\dsp/fast_math_functions.h:261:15
	bl	_sqrtf
	.loc	40 261 8                        @ ../Middlewares/CMSIS/DSP/Inc\dsp/fast_math_functions.h:261:8
	ldr	r0, [sp, #28]
	.loc	40 261 13                       @ ../Middlewares/CMSIS/DSP/Inc\dsp/fast_math_functions.h:261:13
	vstr	s0, [r0]
	movs	r0, #0
	.loc	40 274 7 is_stmt 1              @ ../Middlewares/CMSIS/DSP/Inc\dsp/fast_math_functions.h:274:7
	strb.w	r0, [sp, #39]
	b	.LBB36_6
.Ltmp234:
.LBB36_5:
	.loc	40 278 8                        @ ../Middlewares/CMSIS/DSP/Inc\dsp/fast_math_functions.h:278:8
	ldr	r1, [sp, #28]
	movs	r0, #0
	.loc	40 278 13 is_stmt 0             @ ../Middlewares/CMSIS/DSP/Inc\dsp/fast_math_functions.h:278:13
	str	r0, [r1]
	movs	r0, #255
	.loc	40 279 7 is_stmt 1              @ ../Middlewares/CMSIS/DSP/Inc\dsp/fast_math_functions.h:279:7
	strb.w	r0, [sp, #39]
	b	.LBB36_6
.Ltmp235:
.LBB36_6:                               @ %arm_sqrt_f32.exit
	.loc	39 186 1                        @ ../Middlewares/CMSIS/DSP/Src/StatisticsFunctions/arm_rms_f32.c:186:1
	add	sp, #40
	pop	{r7, pc}
.Ltmp236:
.Lfunc_end36:
	.size	arm_rms_f32, .Lfunc_end36-arm_rms_f32
	.cfi_endproc
	.cantunwind
	.fnend
                                        @ -- End function
	.section	.text.arm_rms_q15,"ax",%progbits
	.hidden	arm_rms_q15                     @ -- Begin function arm_rms_q15
	.globl	arm_rms_q15
	.p2align	2
	.type	arm_rms_q15,%function
	.code	16                              @ @arm_rms_q15
	.thumb_func
arm_rms_q15:
.Lfunc_begin37:
	.file	41 "D:\\horizon\\Horizon_Infantry (2)\\MDK-ARM" "../Middlewares/CMSIS/DSP/Src/StatisticsFunctions/arm_rms_q15.c"
	.loc	41 76 0                         @ ../Middlewares/CMSIS/DSP/Src/StatisticsFunctions/arm_rms_q15.c:76:0
	.fnstart
	.cfi_startproc
@ %bb.0:
	.save	{r7, lr}
	push	{r7, lr}
	.cfi_def_cfa_offset 8
	.cfi_offset lr, -4
	.cfi_offset r7, -8
	.pad	#32
	sub	sp, #32
	.cfi_def_cfa_offset 40
	str	r0, [sp, #28]
	str	r1, [sp, #24]
	str	r2, [sp, #20]
	movs	r0, #0
.Ltmp237:
	.loc	41 78 15 prologue_end           @ ../Middlewares/CMSIS/DSP/Src/StatisticsFunctions/arm_rms_q15.c:78:15
	str	r0, [sp, #12]
	str	r0, [sp, #8]
	.loc	41 125 12                       @ ../Middlewares/CMSIS/DSP/Src/StatisticsFunctions/arm_rms_q15.c:125:12
	ldr	r0, [sp, #24]
	.loc	41 125 10 is_stmt 0             @ ../Middlewares/CMSIS/DSP/Src/StatisticsFunctions/arm_rms_q15.c:125:10
	str	r0, [sp, #16]
	.loc	41 129 3 is_stmt 1              @ ../Middlewares/CMSIS/DSP/Src/StatisticsFunctions/arm_rms_q15.c:129:3
	b	.LBB37_1
.LBB37_1:                               @ =>This Inner Loop Header: Depth=1
	.loc	41 129 10 is_stmt 0             @ ../Middlewares/CMSIS/DSP/Src/StatisticsFunctions/arm_rms_q15.c:129:10
	ldr	r0, [sp, #16]
	.loc	41 129 3                        @ ../Middlewares/CMSIS/DSP/Src/StatisticsFunctions/arm_rms_q15.c:129:3
	cbz	r0, .LBB37_3
	b	.LBB37_2
.LBB37_2:                               @   in Loop: Header=BB37_1 Depth=1
.Ltmp238:
	.loc	41 133 15 is_stmt 1             @ ../Middlewares/CMSIS/DSP/Src/StatisticsFunctions/arm_rms_q15.c:133:15
	ldr	r0, [sp, #28]
	adds	r1, r0, #2
	str	r1, [sp, #28]
	.loc	41 133 10 is_stmt 0             @ ../Middlewares/CMSIS/DSP/Src/StatisticsFunctions/arm_rms_q15.c:133:10
	ldrh	r0, [r0]
	.loc	41 133 8                        @ ../Middlewares/CMSIS/DSP/Src/StatisticsFunctions/arm_rms_q15.c:133:8
	strh.w	r0, [sp, #6]
	.loc	41 135 21 is_stmt 1             @ ../Middlewares/CMSIS/DSP/Src/StatisticsFunctions/arm_rms_q15.c:135:21
	ldrsh.w	r2, [sp, #6]
	.loc	41 135 9 is_stmt 0              @ ../Middlewares/CMSIS/DSP/Src/StatisticsFunctions/arm_rms_q15.c:135:9
	ldr	r0, [sp, #8]
	ldr	r1, [sp, #12]
	smlalbb	r0, r1, r2, r2
	str	r1, [sp, #12]
	str	r0, [sp, #8]
	.loc	41 138 11 is_stmt 1             @ ../Middlewares/CMSIS/DSP/Src/StatisticsFunctions/arm_rms_q15.c:138:11
	ldr	r0, [sp, #16]
	subs	r0, #1
	str	r0, [sp, #16]
.Ltmp239:
	.loc	41 129 3                        @ ../Middlewares/CMSIS/DSP/Src/StatisticsFunctions/arm_rms_q15.c:129:3
	b	.LBB37_1
.LBB37_3:
	.loc	41 143 36                       @ ../Middlewares/CMSIS/DSP/Src/StatisticsFunctions/arm_rms_q15.c:143:36
	ldr	r0, [sp, #8]
	ldr	r1, [sp, #12]
	.loc	41 143 49 is_stmt 0             @ ../Middlewares/CMSIS/DSP/Src/StatisticsFunctions/arm_rms_q15.c:143:49
	ldr	r2, [sp, #24]
	movs	r3, #0
	.loc	41 143 40                       @ ../Middlewares/CMSIS/DSP/Src/StatisticsFunctions/arm_rms_q15.c:143:40
	bl	__aeabi_ldivmod
	.loc	41 143 60                       @ ../Middlewares/CMSIS/DSP/Src/StatisticsFunctions/arm_rms_q15.c:143:60
	lsrs	r0, r0, #15
	orr.w	r0, r0, r1, lsl #17
	.loc	41 143 16                       @ ../Middlewares/CMSIS/DSP/Src/StatisticsFunctions/arm_rms_q15.c:143:16
	ssat	r0, #16, r0
	.loc	41 143 72                       @ ../Middlewares/CMSIS/DSP/Src/StatisticsFunctions/arm_rms_q15.c:143:72
	ldr	r1, [sp, #20]
	.loc	41 143 3                        @ ../Middlewares/CMSIS/DSP/Src/StatisticsFunctions/arm_rms_q15.c:143:3
	sxth	r0, r0
	bl	arm_sqrt_q15
	.loc	41 144 1 is_stmt 1              @ ../Middlewares/CMSIS/DSP/Src/StatisticsFunctions/arm_rms_q15.c:144:1
	add	sp, #32
	pop	{r7, pc}
.Ltmp240:
.Lfunc_end37:
	.size	arm_rms_q15, .Lfunc_end37-arm_rms_q15
	.cfi_endproc
	.cantunwind
	.fnend
                                        @ -- End function
	.section	.text.arm_rms_q31,"ax",%progbits
	.hidden	arm_rms_q31                     @ -- Begin function arm_rms_q31
	.globl	arm_rms_q31
	.p2align	2
	.type	arm_rms_q31,%function
	.code	16                              @ @arm_rms_q31
	.thumb_func
arm_rms_q31:
.Lfunc_begin38:
	.file	42 "D:\\horizon\\Horizon_Infantry (2)\\MDK-ARM" "../Middlewares/CMSIS/DSP/Src/StatisticsFunctions/arm_rms_q31.c"
	.loc	42 80 0                         @ ../Middlewares/CMSIS/DSP/Src/StatisticsFunctions/arm_rms_q31.c:80:0
	.fnstart
	.cfi_startproc
@ %bb.0:
	.save	{r7, lr}
	push	{r7, lr}
	.cfi_def_cfa_offset 8
	.cfi_offset lr, -4
	.cfi_offset r7, -8
	.pad	#40
	sub	sp, #40
	.cfi_def_cfa_offset 48
	str	r0, [sp, #28]
	str	r1, [sp, #24]
	str	r2, [sp, #20]
	movs	r0, #0
.Ltmp241:
	.loc	42 82 18 prologue_end           @ ../Middlewares/CMSIS/DSP/Src/StatisticsFunctions/arm_rms_q31.c:82:18
	str	r0, [sp, #12]
	str	r0, [sp, #8]
	.loc	42 117 12                       @ ../Middlewares/CMSIS/DSP/Src/StatisticsFunctions/arm_rms_q31.c:117:12
	ldr	r0, [sp, #24]
	.loc	42 117 10 is_stmt 0             @ ../Middlewares/CMSIS/DSP/Src/StatisticsFunctions/arm_rms_q31.c:117:10
	str	r0, [sp, #16]
	.loc	42 121 3 is_stmt 1              @ ../Middlewares/CMSIS/DSP/Src/StatisticsFunctions/arm_rms_q31.c:121:3
	b	.LBB38_1
.LBB38_1:                               @ =>This Inner Loop Header: Depth=1
	.loc	42 121 10 is_stmt 0             @ ../Middlewares/CMSIS/DSP/Src/StatisticsFunctions/arm_rms_q31.c:121:10
	ldr	r0, [sp, #16]
	.loc	42 121 3                        @ ../Middlewares/CMSIS/DSP/Src/StatisticsFunctions/arm_rms_q31.c:121:3
	cbz	r0, .LBB38_3
	b	.LBB38_2
.LBB38_2:                               @   in Loop: Header=BB38_1 Depth=1
.Ltmp242:
	.loc	42 125 15 is_stmt 1             @ ../Middlewares/CMSIS/DSP/Src/StatisticsFunctions/arm_rms_q31.c:125:15
	ldr	r0, [sp, #28]
	adds	r1, r0, #4
	str	r1, [sp, #28]
	.loc	42 125 10 is_stmt 0             @ ../Middlewares/CMSIS/DSP/Src/StatisticsFunctions/arm_rms_q31.c:125:10
	ldr	r0, [r0]
	.loc	42 125 8                        @ ../Middlewares/CMSIS/DSP/Src/StatisticsFunctions/arm_rms_q31.c:125:8
	str	r0, [sp, #4]
	.loc	42 127 21 is_stmt 1             @ ../Middlewares/CMSIS/DSP/Src/StatisticsFunctions/arm_rms_q31.c:127:21
	ldr	r2, [sp, #4]
	.loc	42 127 9 is_stmt 0              @ ../Middlewares/CMSIS/DSP/Src/StatisticsFunctions/arm_rms_q31.c:127:9
	ldr	r0, [sp, #8]
	ldr	r1, [sp, #12]
	smlal	r0, r1, r2, r2
	str	r1, [sp, #12]
	str	r0, [sp, #8]
	.loc	42 130 11 is_stmt 1             @ ../Middlewares/CMSIS/DSP/Src/StatisticsFunctions/arm_rms_q31.c:130:11
	ldr	r0, [sp, #16]
	subs	r0, #1
	str	r0, [sp, #16]
.Ltmp243:
	.loc	42 121 3                        @ ../Middlewares/CMSIS/DSP/Src/StatisticsFunctions/arm_rms_q31.c:121:3
	b	.LBB38_1
.LBB38_3:
	.loc	42 135 33                       @ ../Middlewares/CMSIS/DSP/Src/StatisticsFunctions/arm_rms_q31.c:135:33
	ldr	r0, [sp, #8]
	ldr	r1, [sp, #12]
	.loc	42 135 47 is_stmt 0             @ ../Middlewares/CMSIS/DSP/Src/StatisticsFunctions/arm_rms_q31.c:135:47
	ldr	r2, [sp, #24]
	movs	r3, #0
	.loc	42 135 37                       @ ../Middlewares/CMSIS/DSP/Src/StatisticsFunctions/arm_rms_q31.c:135:37
	bl	__aeabi_uldivmod
	.loc	42 135 58                       @ ../Middlewares/CMSIS/DSP/Src/StatisticsFunctions/arm_rms_q31.c:135:58
	lsrs	r0, r0, #31
	orr.w	r0, r0, r1, lsl #1
	lsrs	r1, r1, #31
	str	r1, [sp, #36]
	str	r0, [sp, #32]
.Ltmp244:
	.file	43 "D:\\horizon\\Horizon_Infantry (2)\\MDK-ARM" "../Middlewares/CMSIS/DSP/Inc\\dsp/none.h"
	.loc	43 139 22 is_stmt 1             @ ../Middlewares/CMSIS/DSP/Inc\dsp/none.h:139:22
	ldr	r1, [sp, #32]
	ldr	r0, [sp, #36]
	.loc	43 139 12 is_stmt 0             @ ../Middlewares/CMSIS/DSP/Inc\dsp/none.h:139:12
	cmp.w	r0, r1, asr #31
	beq	.LBB38_5
	b	.LBB38_4
.LBB38_4:
	.loc	43 140 32 is_stmt 1             @ ../Middlewares/CMSIS/DSP/Inc\dsp/none.h:140:32
	ldr	r1, [sp, #36]
	mvn	r0, #-2147483648
	.loc	43 140 20 is_stmt 0             @ ../Middlewares/CMSIS/DSP/Inc\dsp/none.h:140:20
	eor.w	r0, r0, r1, asr #31
	.loc	43 139 12 is_stmt 1             @ ../Middlewares/CMSIS/DSP/Inc\dsp/none.h:139:12
	str	r0, [sp]                        @ 4-byte Spill
	b	.LBB38_6
.LBB38_5:
	.loc	43 140 54                       @ ../Middlewares/CMSIS/DSP/Inc\dsp/none.h:140:54
	ldr	r0, [sp, #32]
	.loc	43 139 12                       @ ../Middlewares/CMSIS/DSP/Inc\dsp/none.h:139:12
	str	r0, [sp]                        @ 4-byte Spill
	b	.LBB38_6
.LBB38_6:                               @ %clip_q63_to_q31.exit
	ldr	r0, [sp]                        @ 4-byte Reload
.Ltmp245:
	.loc	42 135 66                       @ ../Middlewares/CMSIS/DSP/Src/StatisticsFunctions/arm_rms_q31.c:135:66
	ldr	r1, [sp, #20]
	.loc	42 135 3 is_stmt 0              @ ../Middlewares/CMSIS/DSP/Src/StatisticsFunctions/arm_rms_q31.c:135:3
	bl	arm_sqrt_q31
	.loc	42 136 1 is_stmt 1              @ ../Middlewares/CMSIS/DSP/Src/StatisticsFunctions/arm_rms_q31.c:136:1
	add	sp, #40
	pop	{r7, pc}
.Ltmp246:
.Lfunc_end38:
	.size	arm_rms_q31, .Lfunc_end38-arm_rms_q31
	.cfi_endproc
	.cantunwind
	.fnend
                                        @ -- End function
	.section	.text.arm_std_f32,"ax",%progbits
	.hidden	arm_std_f32                     @ -- Begin function arm_std_f32
	.globl	arm_std_f32
	.p2align	2
	.type	arm_std_f32,%function
	.code	16                              @ @arm_std_f32
	.thumb_func
arm_std_f32:
.Lfunc_begin39:
	.file	44 "D:\\horizon\\Horizon_Infantry (2)\\MDK-ARM" "../Middlewares/CMSIS/DSP/Src/StatisticsFunctions/arm_std_f32.c"
	.loc	44 75 0                         @ ../Middlewares/CMSIS/DSP/Src/StatisticsFunctions/arm_std_f32.c:75:0
	.fnstart
	.cfi_startproc
@ %bb.0:
	.save	{r7, lr}
	push	{r7, lr}
	.cfi_def_cfa_offset 8
	.cfi_offset lr, -4
	.cfi_offset r7, -8
	.pad	#32
	sub	sp, #32
	.cfi_def_cfa_offset 40
	str	r0, [sp, #16]
	str	r1, [sp, #12]
	str	r2, [sp, #8]
.Ltmp247:
	.loc	44 77 15 prologue_end           @ ../Middlewares/CMSIS/DSP/Src/StatisticsFunctions/arm_std_f32.c:77:15
	ldr	r0, [sp, #16]
	.loc	44 77 20 is_stmt 0              @ ../Middlewares/CMSIS/DSP/Src/StatisticsFunctions/arm_std_f32.c:77:20
	ldr	r1, [sp, #12]
	add	r2, sp, #4
	.loc	44 77 3                         @ ../Middlewares/CMSIS/DSP/Src/StatisticsFunctions/arm_std_f32.c:77:3
	bl	arm_var_f32
	.loc	44 78 16 is_stmt 1              @ ../Middlewares/CMSIS/DSP/Src/StatisticsFunctions/arm_std_f32.c:78:16
	ldr	r1, [sp, #4]
	.loc	44 78 21 is_stmt 0              @ ../Middlewares/CMSIS/DSP/Src/StatisticsFunctions/arm_std_f32.c:78:21
	ldr	r0, [sp, #8]
	str	r1, [sp, #24]
	str	r0, [sp, #20]
.Ltmp248:
	.loc	40 244 9 is_stmt 1              @ ../Middlewares/CMSIS/DSP/Inc\dsp/fast_math_functions.h:244:9
	vldr	s0, [sp, #24]
.Ltmp249:
	.loc	40 244 9 is_stmt 0              @ ../Middlewares/CMSIS/DSP/Inc\dsp/fast_math_functions.h:244:9
	vcmp.f32	s0, #0
	vmrs	APSR_nzcv, fpscr
	blt	.LBB39_2
	b	.LBB39_1
.LBB39_1:
.Ltmp250:
	.loc	40 261 22 is_stmt 1             @ ../Middlewares/CMSIS/DSP/Inc\dsp/fast_math_functions.h:261:22
	vldr	s0, [sp, #24]
	.loc	40 261 15 is_stmt 0             @ ../Middlewares/CMSIS/DSP/Inc\dsp/fast_math_functions.h:261:15
	bl	_sqrtf
	.loc	40 261 8                        @ ../Middlewares/CMSIS/DSP/Inc\dsp/fast_math_functions.h:261:8
	ldr	r0, [sp, #20]
	.loc	40 261 13                       @ ../Middlewares/CMSIS/DSP/Inc\dsp/fast_math_functions.h:261:13
	vstr	s0, [r0]
	movs	r0, #0
	.loc	40 274 7 is_stmt 1              @ ../Middlewares/CMSIS/DSP/Inc\dsp/fast_math_functions.h:274:7
	strb.w	r0, [sp, #31]
	b	.LBB39_3
.Ltmp251:
.LBB39_2:
	.loc	40 278 8                        @ ../Middlewares/CMSIS/DSP/Inc\dsp/fast_math_functions.h:278:8
	ldr	r1, [sp, #20]
	movs	r0, #0
	.loc	40 278 13 is_stmt 0             @ ../Middlewares/CMSIS/DSP/Inc\dsp/fast_math_functions.h:278:13
	str	r0, [r1]
	movs	r0, #255
	.loc	40 279 7 is_stmt 1              @ ../Middlewares/CMSIS/DSP/Inc\dsp/fast_math_functions.h:279:7
	strb.w	r0, [sp, #31]
	b	.LBB39_3
.Ltmp252:
.LBB39_3:                               @ %arm_sqrt_f32.exit
	.loc	44 79 1                         @ ../Middlewares/CMSIS/DSP/Src/StatisticsFunctions/arm_std_f32.c:79:1
	add	sp, #32
	pop	{r7, pc}
.Ltmp253:
.Lfunc_end39:
	.size	arm_std_f32, .Lfunc_end39-arm_std_f32
	.cfi_endproc
	.cantunwind
	.fnend
                                        @ -- End function
	.section	.text.arm_var_f32,"ax",%progbits
	.hidden	arm_var_f32                     @ -- Begin function arm_var_f32
	.globl	arm_var_f32
	.p2align	2
	.type	arm_var_f32,%function
	.code	16                              @ @arm_var_f32
	.thumb_func
arm_var_f32:
.Lfunc_begin40:
	.file	45 "D:\\horizon\\Horizon_Infantry (2)\\MDK-ARM" "../Middlewares/CMSIS/DSP/Src/StatisticsFunctions/arm_var_f32.c"
	.loc	45 186 0                        @ ../Middlewares/CMSIS/DSP/Src/StatisticsFunctions/arm_var_f32.c:186:0
	.fnstart
	.cfi_startproc
@ %bb.0:
	.pad	#36
	sub	sp, #36
	.cfi_def_cfa_offset 36
	str	r0, [sp, #32]
	str	r1, [sp, #28]
	str	r2, [sp, #24]
	movs	r0, #0
.Ltmp254:
	.loc	45 188 19 prologue_end          @ ../Middlewares/CMSIS/DSP/Src/StatisticsFunctions/arm_var_f32.c:188:19
	str	r0, [sp, #16]
	.loc	45 189 19                       @ ../Middlewares/CMSIS/DSP/Src/StatisticsFunctions/arm_var_f32.c:189:19
	str	r0, [sp, #12]
	.loc	45 191 30                       @ ../Middlewares/CMSIS/DSP/Src/StatisticsFunctions/arm_var_f32.c:191:30
	ldr	r0, [sp, #32]
	.loc	45 191 21 is_stmt 0             @ ../Middlewares/CMSIS/DSP/Src/StatisticsFunctions/arm_var_f32.c:191:21
	str	r0, [sp]
.Ltmp255:
	.loc	45 193 7 is_stmt 1              @ ../Middlewares/CMSIS/DSP/Src/StatisticsFunctions/arm_var_f32.c:193:7
	ldr	r0, [sp, #28]
.Ltmp256:
	.loc	45 193 7 is_stmt 0              @ ../Middlewares/CMSIS/DSP/Src/StatisticsFunctions/arm_var_f32.c:193:7
	cmp	r0, #1
	bhi	.LBB40_2
	b	.LBB40_1
.LBB40_1:
.Ltmp257:
	.loc	45 195 6 is_stmt 1              @ ../Middlewares/CMSIS/DSP/Src/StatisticsFunctions/arm_var_f32.c:195:6
	ldr	r1, [sp, #24]
	movs	r0, #0
	.loc	45 195 14 is_stmt 0             @ ../Middlewares/CMSIS/DSP/Src/StatisticsFunctions/arm_var_f32.c:195:14
	str	r0, [r1]
	.loc	45 196 5 is_stmt 1              @ ../Middlewares/CMSIS/DSP/Src/StatisticsFunctions/arm_var_f32.c:196:5
	b	.LBB40_9
.Ltmp258:
.LBB40_2:
	.loc	45 224 12                       @ ../Middlewares/CMSIS/DSP/Src/StatisticsFunctions/arm_var_f32.c:224:12
	ldr	r0, [sp, #28]
	.loc	45 224 10 is_stmt 0             @ ../Middlewares/CMSIS/DSP/Src/StatisticsFunctions/arm_var_f32.c:224:10
	str	r0, [sp, #20]
	.loc	45 228 3 is_stmt 1              @ ../Middlewares/CMSIS/DSP/Src/StatisticsFunctions/arm_var_f32.c:228:3
	b	.LBB40_3
.LBB40_3:                               @ =>This Inner Loop Header: Depth=1
	.loc	45 228 10 is_stmt 0             @ ../Middlewares/CMSIS/DSP/Src/StatisticsFunctions/arm_var_f32.c:228:10
	ldr	r0, [sp, #20]
	.loc	45 228 3                        @ ../Middlewares/CMSIS/DSP/Src/StatisticsFunctions/arm_var_f32.c:228:3
	cbz	r0, .LBB40_5
	b	.LBB40_4
.LBB40_4:                               @   in Loop: Header=BB40_3 Depth=1
.Ltmp259:
	.loc	45 232 19 is_stmt 1             @ ../Middlewares/CMSIS/DSP/Src/StatisticsFunctions/arm_var_f32.c:232:19
	ldr	r0, [sp]
	adds	r1, r0, #4
	str	r1, [sp]
	.loc	45 232 12 is_stmt 0             @ ../Middlewares/CMSIS/DSP/Src/StatisticsFunctions/arm_var_f32.c:232:12
	vldr	s2, [r0]
	.loc	45 232 9                        @ ../Middlewares/CMSIS/DSP/Src/StatisticsFunctions/arm_var_f32.c:232:9
	vldr	s0, [sp, #16]
	vadd.f32	s0, s0, s2
	vstr	s0, [sp, #16]
	.loc	45 235 11 is_stmt 1             @ ../Middlewares/CMSIS/DSP/Src/StatisticsFunctions/arm_var_f32.c:235:11
	ldr	r0, [sp, #20]
	subs	r0, #1
	str	r0, [sp, #20]
.Ltmp260:
	.loc	45 228 3                        @ ../Middlewares/CMSIS/DSP/Src/StatisticsFunctions/arm_var_f32.c:228:3
	b	.LBB40_3
.LBB40_5:
	.loc	45 239 11                       @ ../Middlewares/CMSIS/DSP/Src/StatisticsFunctions/arm_var_f32.c:239:11
	vldr	s0, [sp, #16]
	.loc	45 239 17 is_stmt 0             @ ../Middlewares/CMSIS/DSP/Src/StatisticsFunctions/arm_var_f32.c:239:17
	vldr	s2, [sp, #28]
	vcvt.f32.u32	s2, s2
	.loc	45 239 15                       @ ../Middlewares/CMSIS/DSP/Src/StatisticsFunctions/arm_var_f32.c:239:15
	vdiv.f32	s0, s0, s2
	.loc	45 239 9                        @ ../Middlewares/CMSIS/DSP/Src/StatisticsFunctions/arm_var_f32.c:239:9
	vstr	s0, [sp, #8]
	.loc	45 241 12 is_stmt 1             @ ../Middlewares/CMSIS/DSP/Src/StatisticsFunctions/arm_var_f32.c:241:12
	ldr	r0, [sp, #32]
	.loc	45 241 10 is_stmt 0             @ ../Middlewares/CMSIS/DSP/Src/StatisticsFunctions/arm_var_f32.c:241:10
	str	r0, [sp]
	.loc	45 272 12 is_stmt 1             @ ../Middlewares/CMSIS/DSP/Src/StatisticsFunctions/arm_var_f32.c:272:12
	ldr	r0, [sp, #28]
	.loc	45 272 10 is_stmt 0             @ ../Middlewares/CMSIS/DSP/Src/StatisticsFunctions/arm_var_f32.c:272:10
	str	r0, [sp, #20]
	.loc	45 276 3 is_stmt 1              @ ../Middlewares/CMSIS/DSP/Src/StatisticsFunctions/arm_var_f32.c:276:3
	b	.LBB40_6
.LBB40_6:                               @ =>This Inner Loop Header: Depth=1
	.loc	45 276 10 is_stmt 0             @ ../Middlewares/CMSIS/DSP/Src/StatisticsFunctions/arm_var_f32.c:276:10
	ldr	r0, [sp, #20]
	.loc	45 276 3                        @ ../Middlewares/CMSIS/DSP/Src/StatisticsFunctions/arm_var_f32.c:276:3
	cbz	r0, .LBB40_8
	b	.LBB40_7
.LBB40_7:                               @   in Loop: Header=BB40_6 Depth=1
.Ltmp261:
	.loc	45 278 21 is_stmt 1             @ ../Middlewares/CMSIS/DSP/Src/StatisticsFunctions/arm_var_f32.c:278:21
	ldr	r0, [sp]
	adds	r1, r0, #4
	str	r1, [sp]
	.loc	45 278 14 is_stmt 0             @ ../Middlewares/CMSIS/DSP/Src/StatisticsFunctions/arm_var_f32.c:278:14
	vldr	s0, [r0]
	.loc	45 278 26                       @ ../Middlewares/CMSIS/DSP/Src/StatisticsFunctions/arm_var_f32.c:278:26
	vldr	s2, [sp, #8]
	.loc	45 278 24                       @ ../Middlewares/CMSIS/DSP/Src/StatisticsFunctions/arm_var_f32.c:278:24
	vsub.f32	s0, s0, s2
	.loc	45 278 12                       @ ../Middlewares/CMSIS/DSP/Src/StatisticsFunctions/arm_var_f32.c:278:12
	vstr	s0, [sp, #4]
	.loc	45 279 13 is_stmt 1             @ ../Middlewares/CMSIS/DSP/Src/StatisticsFunctions/arm_var_f32.c:279:13
	vldr	s0, [sp, #4]
	.loc	45 279 10 is_stmt 0             @ ../Middlewares/CMSIS/DSP/Src/StatisticsFunctions/arm_var_f32.c:279:10
	vldr	s2, [sp, #12]
	vmul.f32	s0, s0, s0
	vadd.f32	s0, s0, s2
	vstr	s0, [sp, #12]
	.loc	45 282 11 is_stmt 1             @ ../Middlewares/CMSIS/DSP/Src/StatisticsFunctions/arm_var_f32.c:282:11
	ldr	r0, [sp, #20]
	subs	r0, #1
	str	r0, [sp, #20]
.Ltmp262:
	.loc	45 276 3                        @ ../Middlewares/CMSIS/DSP/Src/StatisticsFunctions/arm_var_f32.c:276:3
	b	.LBB40_6
.LBB40_8:
	.loc	45 286 14                       @ ../Middlewares/CMSIS/DSP/Src/StatisticsFunctions/arm_var_f32.c:286:14
	vldr	s0, [sp, #12]
	.loc	45 286 33 is_stmt 0             @ ../Middlewares/CMSIS/DSP/Src/StatisticsFunctions/arm_var_f32.c:286:33
	vldr	s2, [sp, #28]
	vcvt.f32.u32	s2, s2
	vmov.f32	s4, #-1.000000e+00
	.loc	45 286 43                       @ ../Middlewares/CMSIS/DSP/Src/StatisticsFunctions/arm_var_f32.c:286:43
	vadd.f32	s2, s2, s4
	.loc	45 286 19                       @ ../Middlewares/CMSIS/DSP/Src/StatisticsFunctions/arm_var_f32.c:286:19
	vdiv.f32	s0, s0, s2
	.loc	45 286 4                        @ ../Middlewares/CMSIS/DSP/Src/StatisticsFunctions/arm_var_f32.c:286:4
	ldr	r0, [sp, #24]
	.loc	45 286 12                       @ ../Middlewares/CMSIS/DSP/Src/StatisticsFunctions/arm_var_f32.c:286:12
	vstr	s0, [r0]
	.loc	45 287 1 is_stmt 1              @ ../Middlewares/CMSIS/DSP/Src/StatisticsFunctions/arm_var_f32.c:287:1
	b	.LBB40_9
.LBB40_9:
	add	sp, #36
	bx	lr
.Ltmp263:
.Lfunc_end40:
	.size	arm_var_f32, .Lfunc_end40-arm_var_f32
	.cfi_endproc
	.cantunwind
	.fnend
                                        @ -- End function
	.section	.text.arm_std_f64,"ax",%progbits
	.hidden	arm_std_f64                     @ -- Begin function arm_std_f64
	.globl	arm_std_f64
	.p2align	2
	.type	arm_std_f64,%function
	.code	16                              @ @arm_std_f64
	.thumb_func
arm_std_f64:
.Lfunc_begin41:
	.file	46 "D:\\horizon\\Horizon_Infantry (2)\\MDK-ARM" "../Middlewares/CMSIS/DSP/Src/StatisticsFunctions/arm_std_f64.c"
	.loc	46 51 0                         @ ../Middlewares/CMSIS/DSP/Src/StatisticsFunctions/arm_std_f64.c:51:0
	.fnstart
	.cfi_startproc
@ %bb.0:
	.save	{r7, lr}
	push	{r7, lr}
	.cfi_def_cfa_offset 8
	.cfi_offset lr, -4
	.cfi_offset r7, -8
	.pad	#24
	sub	sp, #24
	.cfi_def_cfa_offset 32
	str	r0, [sp, #20]
	str	r1, [sp, #16]
	str	r2, [sp, #12]
.Ltmp264:
	.loc	46 53 15 prologue_end           @ ../Middlewares/CMSIS/DSP/Src/StatisticsFunctions/arm_std_f64.c:53:15
	ldr	r0, [sp, #20]
	.loc	46 53 20 is_stmt 0              @ ../Middlewares/CMSIS/DSP/Src/StatisticsFunctions/arm_std_f64.c:53:20
	ldr	r1, [sp, #16]
	mov	r2, sp
	.loc	46 53 3                         @ ../Middlewares/CMSIS/DSP/Src/StatisticsFunctions/arm_std_f64.c:53:3
	bl	arm_var_f64
	.loc	46 54 19 is_stmt 1              @ ../Middlewares/CMSIS/DSP/Src/StatisticsFunctions/arm_std_f64.c:54:19
	vldr	d0, [sp]
	.loc	46 54 14 is_stmt 0              @ ../Middlewares/CMSIS/DSP/Src/StatisticsFunctions/arm_std_f64.c:54:14
	bl	__hardfp_sqrt
	.loc	46 54 4                         @ ../Middlewares/CMSIS/DSP/Src/StatisticsFunctions/arm_std_f64.c:54:4
	ldr	r0, [sp, #12]
	.loc	46 54 12                        @ ../Middlewares/CMSIS/DSP/Src/StatisticsFunctions/arm_std_f64.c:54:12
	vstr	d0, [r0]
	.loc	46 55 1 is_stmt 1               @ ../Middlewares/CMSIS/DSP/Src/StatisticsFunctions/arm_std_f64.c:55:1
	add	sp, #24
	pop	{r7, pc}
.Ltmp265:
.Lfunc_end41:
	.size	arm_std_f64, .Lfunc_end41-arm_std_f64
	.cfi_endproc
	.cantunwind
	.fnend
                                        @ -- End function
	.section	.text.arm_var_f64,"ax",%progbits
	.hidden	arm_var_f64                     @ -- Begin function arm_var_f64
	.globl	arm_var_f64
	.p2align	3
	.type	arm_var_f64,%function
	.code	16                              @ @arm_var_f64
	.thumb_func
arm_var_f64:
.Lfunc_begin42:
	.file	47 "D:\\horizon\\Horizon_Infantry (2)\\MDK-ARM" "../Middlewares/CMSIS/DSP/Src/StatisticsFunctions/arm_var_f64.c"
	.loc	47 51 0                         @ ../Middlewares/CMSIS/DSP/Src/StatisticsFunctions/arm_var_f64.c:51:0
	.fnstart
	.cfi_startproc
@ %bb.0:
	.save	{r7, lr}
	push	{r7, lr}
	.cfi_def_cfa_offset 8
	.cfi_offset lr, -4
	.cfi_offset r7, -8
	.pad	#64
	sub	sp, #64
	.cfi_def_cfa_offset 72
	str	r0, [sp, #60]
	str	r1, [sp, #56]
	str	r2, [sp, #52]
	movs	r0, #0
.Ltmp266:
	.loc	47 54 15 prologue_end           @ ../Middlewares/CMSIS/DSP/Src/StatisticsFunctions/arm_var_f64.c:54:15
	str	r0, [sp, #44]
	str	r0, [sp, #40]
	.loc	47 56 32                        @ ../Middlewares/CMSIS/DSP/Src/StatisticsFunctions/arm_var_f64.c:56:32
	ldr	r0, [sp, #60]
	.loc	47 56 23 is_stmt 0              @ ../Middlewares/CMSIS/DSP/Src/StatisticsFunctions/arm_var_f64.c:56:23
	str	r0, [sp, #20]
.Ltmp267:
	.loc	47 58 9 is_stmt 1               @ ../Middlewares/CMSIS/DSP/Src/StatisticsFunctions/arm_var_f64.c:58:9
	ldr	r0, [sp, #56]
.Ltmp268:
	.loc	47 58 9 is_stmt 0               @ ../Middlewares/CMSIS/DSP/Src/StatisticsFunctions/arm_var_f64.c:58:9
	cmp	r0, #1
	bhi	.LBB42_2
	b	.LBB42_1
.LBB42_1:
.Ltmp269:
	.loc	47 60 10 is_stmt 1              @ ../Middlewares/CMSIS/DSP/Src/StatisticsFunctions/arm_var_f64.c:60:10
	ldr	r1, [sp, #52]
	movs	r0, #0
	.loc	47 60 18 is_stmt 0              @ ../Middlewares/CMSIS/DSP/Src/StatisticsFunctions/arm_var_f64.c:60:18
	str	r0, [r1, #4]
	str	r0, [r1]
	.loc	47 61 9 is_stmt 1               @ ../Middlewares/CMSIS/DSP/Src/StatisticsFunctions/arm_var_f64.c:61:9
	b	.LBB42_6
.Ltmp270:
.LBB42_2:
	.loc	47 63 18                        @ ../Middlewares/CMSIS/DSP/Src/StatisticsFunctions/arm_var_f64.c:63:18
	ldr	r0, [sp, #20]
	.loc	47 63 26 is_stmt 0              @ ../Middlewares/CMSIS/DSP/Src/StatisticsFunctions/arm_var_f64.c:63:26
	ldr	r1, [sp, #56]
	add	r2, sp, #32
	.loc	47 63 5                         @ ../Middlewares/CMSIS/DSP/Src/StatisticsFunctions/arm_var_f64.c:63:5
	bl	arm_mean_f64
	.loc	47 84 14 is_stmt 1              @ ../Middlewares/CMSIS/DSP/Src/StatisticsFunctions/arm_var_f64.c:84:14
	ldr	r0, [sp, #56]
	.loc	47 84 12 is_stmt 0              @ ../Middlewares/CMSIS/DSP/Src/StatisticsFunctions/arm_var_f64.c:84:12
	str	r0, [sp, #48]
	.loc	47 86 5 is_stmt 1               @ ../Middlewares/CMSIS/DSP/Src/StatisticsFunctions/arm_var_f64.c:86:5
	b	.LBB42_3
.LBB42_3:                               @ =>This Inner Loop Header: Depth=1
	.loc	47 86 12 is_stmt 0              @ ../Middlewares/CMSIS/DSP/Src/StatisticsFunctions/arm_var_f64.c:86:12
	ldr	r0, [sp, #48]
	.loc	47 86 5                         @ ../Middlewares/CMSIS/DSP/Src/StatisticsFunctions/arm_var_f64.c:86:5
	cbz	r0, .LBB42_5
	b	.LBB42_4
.LBB42_4:                               @   in Loop: Header=BB42_3 Depth=1
.Ltmp271:
	.loc	47 88 25 is_stmt 1              @ ../Middlewares/CMSIS/DSP/Src/StatisticsFunctions/arm_var_f64.c:88:25
	ldr	r0, [sp, #20]
	add.w	r1, r0, #8
	str	r1, [sp, #20]
	.loc	47 88 18 is_stmt 0              @ ../Middlewares/CMSIS/DSP/Src/StatisticsFunctions/arm_var_f64.c:88:18
	vldr	d1, [r0]
	.loc	47 88 30                        @ ../Middlewares/CMSIS/DSP/Src/StatisticsFunctions/arm_var_f64.c:88:30
	vldr	d0, [sp, #32]
	.loc	47 88 28                        @ ../Middlewares/CMSIS/DSP/Src/StatisticsFunctions/arm_var_f64.c:88:28
	vmov	r0, r1, d1
	vmov	r2, r3, d0
	bl	__aeabi_dsub
	vmov	d0, r0, r1
	.loc	47 88 16                        @ ../Middlewares/CMSIS/DSP/Src/StatisticsFunctions/arm_var_f64.c:88:16
	vstr	d0, [sp, #24]
	.loc	47 89 17 is_stmt 1              @ ../Middlewares/CMSIS/DSP/Src/StatisticsFunctions/arm_var_f64.c:89:17
	vldr	d0, [sp, #24]
	.loc	47 89 14 is_stmt 0              @ ../Middlewares/CMSIS/DSP/Src/StatisticsFunctions/arm_var_f64.c:89:14
	vldr	d1, [sp, #40]
	vstr	d1, [sp, #8]                    @ 8-byte Spill
	vmov	r2, r3, d0
	mov	r0, r2
	mov	r1, r3
	bl	__aeabi_dmul
	vldr	d0, [sp, #8]                    @ 8-byte Reload
	vmov	r2, r3, d0
	vmov	d0, r0, r1
	vmov	r0, r1, d0
	bl	__aeabi_dadd
	vmov	d0, r0, r1
	vstr	d0, [sp, #40]
	.loc	47 92 15 is_stmt 1              @ ../Middlewares/CMSIS/DSP/Src/StatisticsFunctions/arm_var_f64.c:92:15
	ldr	r0, [sp, #48]
	subs	r0, #1
	str	r0, [sp, #48]
.Ltmp272:
	.loc	47 86 5                         @ ../Middlewares/CMSIS/DSP/Src/StatisticsFunctions/arm_var_f64.c:86:5
	b	.LBB42_3
.LBB42_5:
	.loc	47 96 16                        @ ../Middlewares/CMSIS/DSP/Src/StatisticsFunctions/arm_var_f64.c:96:16
	vldr	d0, [sp, #40]
	vstr	d0, [sp]                        @ 8-byte Spill
	.loc	47 96 35 is_stmt 0              @ ../Middlewares/CMSIS/DSP/Src/StatisticsFunctions/arm_var_f64.c:96:35
	ldr	r0, [sp, #56]
	bl	__aeabi_ui2d
	vmov	d0, r0, r1
	vldr	d1, .LCPI42_0
	.loc	47 96 45                        @ ../Middlewares/CMSIS/DSP/Src/StatisticsFunctions/arm_var_f64.c:96:45
	vmov	r2, r3, d1
	vmov	r0, r1, d0
	bl	__aeabi_dadd
	vldr	d0, [sp]                        @ 8-byte Reload
	vmov	d1, r0, r1
	.loc	47 96 21                        @ ../Middlewares/CMSIS/DSP/Src/StatisticsFunctions/arm_var_f64.c:96:21
	vmov	r2, r3, d1
	vmov	r0, r1, d0
	bl	__aeabi_ddiv
	vmov	d0, r0, r1
	.loc	47 96 6                         @ ../Middlewares/CMSIS/DSP/Src/StatisticsFunctions/arm_var_f64.c:96:6
	ldr	r0, [sp, #52]
	.loc	47 96 14                        @ ../Middlewares/CMSIS/DSP/Src/StatisticsFunctions/arm_var_f64.c:96:14
	vstr	d0, [r0]
	.loc	47 97 1 is_stmt 1               @ ../Middlewares/CMSIS/DSP/Src/StatisticsFunctions/arm_var_f64.c:97:1
	b	.LBB42_6
.LBB42_6:
	add	sp, #64
	pop	{r7, pc}
.Ltmp273:
	.p2align	3
@ %bb.7:
	.loc	47 0 1 is_stmt 0                @ ../Middlewares/CMSIS/DSP/Src/StatisticsFunctions/arm_var_f64.c:0:1
.LCPI42_0:
	.long	0                               @ double -1
	.long	3220176896
.Lfunc_end42:
	.size	arm_var_f64, .Lfunc_end42-arm_var_f64
	.cfi_endproc
	.cantunwind
	.fnend
                                        @ -- End function
	.section	.text.arm_std_q15,"ax",%progbits
	.hidden	arm_std_q15                     @ -- Begin function arm_std_q15
	.globl	arm_std_q15
	.p2align	2
	.type	arm_std_q15,%function
	.code	16                              @ @arm_std_q15
	.thumb_func
arm_std_q15:
.Lfunc_begin43:
	.file	48 "D:\\horizon\\Horizon_Infantry (2)\\MDK-ARM" "../Middlewares/CMSIS/DSP/Src/StatisticsFunctions/arm_std_q15.c"
	.loc	48 73 0 is_stmt 1               @ ../Middlewares/CMSIS/DSP/Src/StatisticsFunctions/arm_std_q15.c:73:0
	.fnstart
	.cfi_startproc
@ %bb.0:
	.save	{r7, lr}
	push	{r7, lr}
	.cfi_def_cfa_offset 8
	.cfi_offset lr, -4
	.cfi_offset r7, -8
	.pad	#48
	sub	sp, #48
	.cfi_def_cfa_offset 56
	str	r0, [sp, #44]
	str	r1, [sp, #40]
	str	r2, [sp, #36]
	movs	r0, #0
.Ltmp274:
	.loc	48 75 15 prologue_end           @ ../Middlewares/CMSIS/DSP/Src/StatisticsFunctions/arm_std_q15.c:75:15
	str	r0, [sp, #28]
	.loc	48 77 15                        @ ../Middlewares/CMSIS/DSP/Src/StatisticsFunctions/arm_std_q15.c:77:15
	str	r0, [sp, #12]
	str	r0, [sp, #8]
.Ltmp275:
	.loc	48 84 7                         @ ../Middlewares/CMSIS/DSP/Src/StatisticsFunctions/arm_std_q15.c:84:7
	ldr	r0, [sp, #40]
.Ltmp276:
	.loc	48 84 7 is_stmt 0               @ ../Middlewares/CMSIS/DSP/Src/StatisticsFunctions/arm_std_q15.c:84:7
	cmp	r0, #1
	bhi	.LBB43_2
	b	.LBB43_1
.LBB43_1:
.Ltmp277:
	.loc	48 86 6 is_stmt 1               @ ../Middlewares/CMSIS/DSP/Src/StatisticsFunctions/arm_std_q15.c:86:6
	ldr	r1, [sp, #36]
	movs	r0, #0
	.loc	48 86 14 is_stmt 0              @ ../Middlewares/CMSIS/DSP/Src/StatisticsFunctions/arm_std_q15.c:86:14
	strh	r0, [r1]
	.loc	48 87 5 is_stmt 1               @ ../Middlewares/CMSIS/DSP/Src/StatisticsFunctions/arm_std_q15.c:87:5
	b	.LBB43_6
.Ltmp278:
.LBB43_2:
	.loc	48 140 12                       @ ../Middlewares/CMSIS/DSP/Src/StatisticsFunctions/arm_std_q15.c:140:12
	ldr	r0, [sp, #40]
	.loc	48 140 10 is_stmt 0             @ ../Middlewares/CMSIS/DSP/Src/StatisticsFunctions/arm_std_q15.c:140:10
	str	r0, [sp, #32]
	.loc	48 144 3 is_stmt 1              @ ../Middlewares/CMSIS/DSP/Src/StatisticsFunctions/arm_std_q15.c:144:3
	b	.LBB43_3
.LBB43_3:                               @ =>This Inner Loop Header: Depth=1
	.loc	48 144 10 is_stmt 0             @ ../Middlewares/CMSIS/DSP/Src/StatisticsFunctions/arm_std_q15.c:144:10
	ldr	r0, [sp, #32]
	.loc	48 144 3                        @ ../Middlewares/CMSIS/DSP/Src/StatisticsFunctions/arm_std_q15.c:144:3
	cbz	r0, .LBB43_5
	b	.LBB43_4
.LBB43_4:                               @   in Loop: Header=BB43_3 Depth=1
.Ltmp279:
	.loc	48 149 15 is_stmt 1             @ ../Middlewares/CMSIS/DSP/Src/StatisticsFunctions/arm_std_q15.c:149:15
	ldr	r0, [sp, #44]
	adds	r1, r0, #2
	str	r1, [sp, #44]
	.loc	48 149 10 is_stmt 0             @ ../Middlewares/CMSIS/DSP/Src/StatisticsFunctions/arm_std_q15.c:149:10
	ldrh	r0, [r0]
	.loc	48 149 8                        @ ../Middlewares/CMSIS/DSP/Src/StatisticsFunctions/arm_std_q15.c:149:8
	strh.w	r0, [sp, #6]
	.loc	48 151 22 is_stmt 1             @ ../Middlewares/CMSIS/DSP/Src/StatisticsFunctions/arm_std_q15.c:151:22
	ldrsh.w	r2, [sp, #6]
	.loc	48 151 18 is_stmt 0             @ ../Middlewares/CMSIS/DSP/Src/StatisticsFunctions/arm_std_q15.c:151:18
	ldr	r0, [sp, #8]
	ldr	r1, [sp, #12]
	smlalbb	r0, r1, r2, r2
	str	r1, [sp, #12]
	str	r0, [sp, #8]
	.loc	48 153 12 is_stmt 1             @ ../Middlewares/CMSIS/DSP/Src/StatisticsFunctions/arm_std_q15.c:153:12
	ldrsh.w	r1, [sp, #6]
	.loc	48 153 9 is_stmt 0              @ ../Middlewares/CMSIS/DSP/Src/StatisticsFunctions/arm_std_q15.c:153:9
	ldr	r0, [sp, #28]
	add	r0, r1
	str	r0, [sp, #28]
	.loc	48 156 11 is_stmt 1             @ ../Middlewares/CMSIS/DSP/Src/StatisticsFunctions/arm_std_q15.c:156:11
	ldr	r0, [sp, #32]
	subs	r0, #1
	str	r0, [sp, #32]
.Ltmp280:
	.loc	48 144 3                        @ ../Middlewares/CMSIS/DSP/Src/StatisticsFunctions/arm_std_q15.c:144:3
	b	.LBB43_3
.LBB43_5:
	.loc	48 160 28                       @ ../Middlewares/CMSIS/DSP/Src/StatisticsFunctions/arm_std_q15.c:160:28
	ldr	r0, [sp, #8]
	ldr	r1, [sp, #12]
	.loc	48 160 51 is_stmt 0             @ ../Middlewares/CMSIS/DSP/Src/StatisticsFunctions/arm_std_q15.c:160:51
	ldr	r2, [sp, #40]
	.loc	48 160 61                       @ ../Middlewares/CMSIS/DSP/Src/StatisticsFunctions/arm_std_q15.c:160:61
	subs	r2, #1
	movs	r3, #0
	.loc	48 160 41                       @ ../Middlewares/CMSIS/DSP/Src/StatisticsFunctions/arm_std_q15.c:160:41
	str	r3, [sp]                        @ 4-byte Spill
	bl	__aeabi_ldivmod
	ldr	r3, [sp]                        @ 4-byte Reload
	.loc	48 160 17                       @ ../Middlewares/CMSIS/DSP/Src/StatisticsFunctions/arm_std_q15.c:160:17
	str	r0, [sp, #24]
	.loc	48 163 35 is_stmt 1             @ ../Middlewares/CMSIS/DSP/Src/StatisticsFunctions/arm_std_q15.c:163:35
	ldr	r0, [sp, #28]
	.loc	48 163 39 is_stmt 0             @ ../Middlewares/CMSIS/DSP/Src/StatisticsFunctions/arm_std_q15.c:163:39
	smull	r0, r1, r0, r0
	.loc	48 163 55                       @ ../Middlewares/CMSIS/DSP/Src/StatisticsFunctions/arm_std_q15.c:163:55
	ldr	r2, [sp, #40]
	.loc	48 163 78                       @ ../Middlewares/CMSIS/DSP/Src/StatisticsFunctions/arm_std_q15.c:163:78
	sub.w	r12, r2, #1
	.loc	48 163 65                       @ ../Middlewares/CMSIS/DSP/Src/StatisticsFunctions/arm_std_q15.c:163:65
	mul	r2, r2, r12
	.loc	48 163 45                       @ ../Middlewares/CMSIS/DSP/Src/StatisticsFunctions/arm_std_q15.c:163:45
	bl	__aeabi_ldivmod
	.loc	48 163 16                       @ ../Middlewares/CMSIS/DSP/Src/StatisticsFunctions/arm_std_q15.c:163:16
	str	r0, [sp, #20]
	.loc	48 167 36 is_stmt 1             @ ../Middlewares/CMSIS/DSP/Src/StatisticsFunctions/arm_std_q15.c:167:36
	ldr	r0, [sp, #24]
	.loc	48 167 52 is_stmt 0             @ ../Middlewares/CMSIS/DSP/Src/StatisticsFunctions/arm_std_q15.c:167:52
	ldr	r1, [sp, #20]
	.loc	48 167 50                       @ ../Middlewares/CMSIS/DSP/Src/StatisticsFunctions/arm_std_q15.c:167:50
	subs	r0, r0, r1
	.loc	48 167 16                       @ ../Middlewares/CMSIS/DSP/Src/StatisticsFunctions/arm_std_q15.c:167:16
	ssat	r0, #16, r0, asr #15
	.loc	48 167 80                       @ ../Middlewares/CMSIS/DSP/Src/StatisticsFunctions/arm_std_q15.c:167:80
	ldr	r1, [sp, #36]
	.loc	48 167 3                        @ ../Middlewares/CMSIS/DSP/Src/StatisticsFunctions/arm_std_q15.c:167:3
	sxth	r0, r0
	bl	arm_sqrt_q15
	.loc	48 168 1 is_stmt 1              @ ../Middlewares/CMSIS/DSP/Src/StatisticsFunctions/arm_std_q15.c:168:1
	b	.LBB43_6
.LBB43_6:
	add	sp, #48
	pop	{r7, pc}
.Ltmp281:
.Lfunc_end43:
	.size	arm_std_q15, .Lfunc_end43-arm_std_q15
	.cfi_endproc
	.cantunwind
	.fnend
                                        @ -- End function
	.section	.text.arm_std_q31,"ax",%progbits
	.hidden	arm_std_q31                     @ -- Begin function arm_std_q31
	.globl	arm_std_q31
	.p2align	2
	.type	arm_std_q31,%function
	.code	16                              @ @arm_std_q31
	.thumb_func
arm_std_q31:
.Lfunc_begin44:
	.file	49 "D:\\horizon\\Horizon_Infantry (2)\\MDK-ARM" "../Middlewares/CMSIS/DSP/Src/StatisticsFunctions/arm_std_q31.c"
	.loc	49 76 0                         @ ../Middlewares/CMSIS/DSP/Src/StatisticsFunctions/arm_std_q31.c:76:0
	.fnstart
	.cfi_startproc
@ %bb.0:
	.save	{r7, lr}
	push	{r7, lr}
	.cfi_def_cfa_offset 8
	.cfi_offset lr, -4
	.cfi_offset r7, -8
	.pad	#56
	sub	sp, #56
	.cfi_def_cfa_offset 64
	str	r0, [sp, #52]
	str	r1, [sp, #48]
	str	r2, [sp, #44]
	movs	r0, #0
.Ltmp282:
	.loc	49 78 15 prologue_end           @ ../Middlewares/CMSIS/DSP/Src/StatisticsFunctions/arm_std_q31.c:78:15
	str	r0, [sp, #36]
	str	r0, [sp, #32]
	.loc	49 80 15                        @ ../Middlewares/CMSIS/DSP/Src/StatisticsFunctions/arm_std_q31.c:80:15
	str	r0, [sp, #12]
	str	r0, [sp, #8]
.Ltmp283:
	.loc	49 83 7                         @ ../Middlewares/CMSIS/DSP/Src/StatisticsFunctions/arm_std_q31.c:83:7
	ldr	r0, [sp, #48]
.Ltmp284:
	.loc	49 83 7 is_stmt 0               @ ../Middlewares/CMSIS/DSP/Src/StatisticsFunctions/arm_std_q31.c:83:7
	cmp	r0, #1
	bhi	.LBB44_2
	b	.LBB44_1
.LBB44_1:
.Ltmp285:
	.loc	49 85 6 is_stmt 1               @ ../Middlewares/CMSIS/DSP/Src/StatisticsFunctions/arm_std_q31.c:85:6
	ldr	r1, [sp, #44]
	movs	r0, #0
	.loc	49 85 14 is_stmt 0              @ ../Middlewares/CMSIS/DSP/Src/StatisticsFunctions/arm_std_q31.c:85:14
	str	r0, [r1]
	.loc	49 86 5 is_stmt 1               @ ../Middlewares/CMSIS/DSP/Src/StatisticsFunctions/arm_std_q31.c:86:5
	b	.LBB44_6
.Ltmp286:
.LBB44_2:
	.loc	49 127 12                       @ ../Middlewares/CMSIS/DSP/Src/StatisticsFunctions/arm_std_q31.c:127:12
	ldr	r0, [sp, #48]
	.loc	49 127 10 is_stmt 0             @ ../Middlewares/CMSIS/DSP/Src/StatisticsFunctions/arm_std_q31.c:127:10
	str	r0, [sp, #40]
	.loc	49 131 3 is_stmt 1              @ ../Middlewares/CMSIS/DSP/Src/StatisticsFunctions/arm_std_q31.c:131:3
	b	.LBB44_3
.LBB44_3:                               @ =>This Inner Loop Header: Depth=1
	.loc	49 131 10 is_stmt 0             @ ../Middlewares/CMSIS/DSP/Src/StatisticsFunctions/arm_std_q31.c:131:10
	ldr	r0, [sp, #40]
	.loc	49 131 3                        @ ../Middlewares/CMSIS/DSP/Src/StatisticsFunctions/arm_std_q31.c:131:3
	cbz	r0, .LBB44_5
	b	.LBB44_4
.LBB44_4:                               @   in Loop: Header=BB44_3 Depth=1
.Ltmp287:
	.loc	49 136 15 is_stmt 1             @ ../Middlewares/CMSIS/DSP/Src/StatisticsFunctions/arm_std_q31.c:136:15
	ldr	r0, [sp, #52]
	adds	r1, r0, #4
	str	r1, [sp, #52]
	.loc	49 136 10 is_stmt 0             @ ../Middlewares/CMSIS/DSP/Src/StatisticsFunctions/arm_std_q31.c:136:10
	ldr	r0, [r0]
	.loc	49 136 18                       @ ../Middlewares/CMSIS/DSP/Src/StatisticsFunctions/arm_std_q31.c:136:18
	asrs	r0, r0, #8
	.loc	49 136 8                        @ ../Middlewares/CMSIS/DSP/Src/StatisticsFunctions/arm_std_q31.c:136:8
	str	r0, [sp, #4]
	.loc	49 138 31 is_stmt 1             @ ../Middlewares/CMSIS/DSP/Src/StatisticsFunctions/arm_std_q31.c:138:31
	ldr	r2, [sp, #4]
	.loc	49 138 18 is_stmt 0             @ ../Middlewares/CMSIS/DSP/Src/StatisticsFunctions/arm_std_q31.c:138:18
	ldr	r0, [sp, #8]
	ldr	r1, [sp, #12]
	smlal	r0, r1, r2, r2
	str	r1, [sp, #12]
	str	r0, [sp, #8]
	.loc	49 140 12 is_stmt 1             @ ../Middlewares/CMSIS/DSP/Src/StatisticsFunctions/arm_std_q31.c:140:12
	ldr	r2, [sp, #4]
	.loc	49 140 9 is_stmt 0              @ ../Middlewares/CMSIS/DSP/Src/StatisticsFunctions/arm_std_q31.c:140:9
	ldr	r1, [sp, #32]
	ldr	r0, [sp, #36]
	adds	r1, r1, r2
	adc.w	r0, r0, r2, asr #31
	str	r1, [sp, #32]
	str	r0, [sp, #36]
	.loc	49 143 11 is_stmt 1             @ ../Middlewares/CMSIS/DSP/Src/StatisticsFunctions/arm_std_q31.c:143:11
	ldr	r0, [sp, #40]
	subs	r0, #1
	str	r0, [sp, #40]
.Ltmp288:
	.loc	49 131 3                        @ ../Middlewares/CMSIS/DSP/Src/StatisticsFunctions/arm_std_q31.c:131:3
	b	.LBB44_3
.LBB44_5:
	.loc	49 147 20                       @ ../Middlewares/CMSIS/DSP/Src/StatisticsFunctions/arm_std_q31.c:147:20
	ldr	r0, [sp, #8]
	ldr	r1, [sp, #12]
	.loc	49 147 43 is_stmt 0             @ ../Middlewares/CMSIS/DSP/Src/StatisticsFunctions/arm_std_q31.c:147:43
	ldr	r2, [sp, #48]
	.loc	49 147 53                       @ ../Middlewares/CMSIS/DSP/Src/StatisticsFunctions/arm_std_q31.c:147:53
	subs	r2, #1
	movs	r3, #0
	.loc	49 147 33                       @ ../Middlewares/CMSIS/DSP/Src/StatisticsFunctions/arm_std_q31.c:147:33
	str	r3, [sp]                        @ 4-byte Spill
	bl	__aeabi_ldivmod
	ldr	r3, [sp]                        @ 4-byte Reload
	.loc	49 147 17                       @ ../Middlewares/CMSIS/DSP/Src/StatisticsFunctions/arm_std_q31.c:147:17
	str	r1, [sp, #28]
	str	r0, [sp, #24]
	.loc	49 150 20 is_stmt 1             @ ../Middlewares/CMSIS/DSP/Src/StatisticsFunctions/arm_std_q31.c:150:20
	ldr	r1, [sp, #32]
	ldr	r2, [sp, #36]
	.loc	49 150 24 is_stmt 0             @ ../Middlewares/CMSIS/DSP/Src/StatisticsFunctions/arm_std_q31.c:150:24
	umull	r0, r12, r1, r1
	mla	r12, r1, r2, r12
	mla	r1, r1, r2, r12
	.loc	49 150 40                       @ ../Middlewares/CMSIS/DSP/Src/StatisticsFunctions/arm_std_q31.c:150:40
	ldr	r2, [sp, #48]
	.loc	49 150 63                       @ ../Middlewares/CMSIS/DSP/Src/StatisticsFunctions/arm_std_q31.c:150:63
	sub.w	r12, r2, #1
	.loc	49 150 50                       @ ../Middlewares/CMSIS/DSP/Src/StatisticsFunctions/arm_std_q31.c:150:50
	mul	r2, r2, r12
	.loc	49 150 30                       @ ../Middlewares/CMSIS/DSP/Src/StatisticsFunctions/arm_std_q31.c:150:30
	bl	__aeabi_ldivmod
	.loc	49 150 16                       @ ../Middlewares/CMSIS/DSP/Src/StatisticsFunctions/arm_std_q31.c:150:16
	str	r1, [sp, #20]
	str	r0, [sp, #16]
	.loc	49 153 17 is_stmt 1             @ ../Middlewares/CMSIS/DSP/Src/StatisticsFunctions/arm_std_q31.c:153:17
	ldr	r0, [sp, #24]
	ldr	r1, [sp, #28]
	.loc	49 153 33 is_stmt 0             @ ../Middlewares/CMSIS/DSP/Src/StatisticsFunctions/arm_std_q31.c:153:33
	ldr	r3, [sp, #16]
	ldr	r2, [sp, #20]
	.loc	49 153 31                       @ ../Middlewares/CMSIS/DSP/Src/StatisticsFunctions/arm_std_q31.c:153:31
	subs	r0, r0, r3
	sbcs	r1, r2
	.loc	49 153 47                       @ ../Middlewares/CMSIS/DSP/Src/StatisticsFunctions/arm_std_q31.c:153:47
	lsrs	r0, r0, #15
	orr.w	r0, r0, r1, lsl #17
	.loc	49 153 55                       @ ../Middlewares/CMSIS/DSP/Src/StatisticsFunctions/arm_std_q31.c:153:55
	ldr	r1, [sp, #44]
	.loc	49 153 3                        @ ../Middlewares/CMSIS/DSP/Src/StatisticsFunctions/arm_std_q31.c:153:3
	bl	arm_sqrt_q31
	.loc	49 154 1 is_stmt 1              @ ../Middlewares/CMSIS/DSP/Src/StatisticsFunctions/arm_std_q31.c:154:1
	b	.LBB44_6
.LBB44_6:
	add	sp, #56
	pop	{r7, pc}
.Ltmp289:
.Lfunc_end44:
	.size	arm_std_q31, .Lfunc_end44-arm_std_q31
	.cfi_endproc
	.cantunwind
	.fnend
                                        @ -- End function
	.section	.text.arm_var_q15,"ax",%progbits
	.hidden	arm_var_q15                     @ -- Begin function arm_var_q15
	.globl	arm_var_q15
	.p2align	2
	.type	arm_var_q15,%function
	.code	16                              @ @arm_var_q15
	.thumb_func
arm_var_q15:
.Lfunc_begin45:
	.file	50 "D:\\horizon\\Horizon_Infantry (2)\\MDK-ARM" "../Middlewares/CMSIS/DSP/Src/StatisticsFunctions/arm_var_q15.c"
	.loc	50 127 0                        @ ../Middlewares/CMSIS/DSP/Src/StatisticsFunctions/arm_var_q15.c:127:0
	.fnstart
	.cfi_startproc
@ %bb.0:
	.save	{r7, lr}
	push	{r7, lr}
	.cfi_def_cfa_offset 8
	.cfi_offset lr, -4
	.cfi_offset r7, -8
	.pad	#48
	sub	sp, #48
	.cfi_def_cfa_offset 56
	str	r0, [sp, #44]
	str	r1, [sp, #40]
	str	r2, [sp, #36]
	movs	r0, #0
.Ltmp290:
	.loc	50 129 15 prologue_end          @ ../Middlewares/CMSIS/DSP/Src/StatisticsFunctions/arm_var_q15.c:129:15
	str	r0, [sp, #28]
	.loc	50 131 15                       @ ../Middlewares/CMSIS/DSP/Src/StatisticsFunctions/arm_var_q15.c:131:15
	str	r0, [sp, #12]
	str	r0, [sp, #8]
.Ltmp291:
	.loc	50 138 7                        @ ../Middlewares/CMSIS/DSP/Src/StatisticsFunctions/arm_var_q15.c:138:7
	ldr	r0, [sp, #40]
.Ltmp292:
	.loc	50 138 7 is_stmt 0              @ ../Middlewares/CMSIS/DSP/Src/StatisticsFunctions/arm_var_q15.c:138:7
	cmp	r0, #1
	bhi	.LBB45_2
	b	.LBB45_1
.LBB45_1:
.Ltmp293:
	.loc	50 140 6 is_stmt 1              @ ../Middlewares/CMSIS/DSP/Src/StatisticsFunctions/arm_var_q15.c:140:6
	ldr	r1, [sp, #36]
	movs	r0, #0
	.loc	50 140 14 is_stmt 0             @ ../Middlewares/CMSIS/DSP/Src/StatisticsFunctions/arm_var_q15.c:140:14
	strh	r0, [r1]
	.loc	50 141 5 is_stmt 1              @ ../Middlewares/CMSIS/DSP/Src/StatisticsFunctions/arm_var_q15.c:141:5
	b	.LBB45_6
.Ltmp294:
.LBB45_2:
	.loc	50 194 12                       @ ../Middlewares/CMSIS/DSP/Src/StatisticsFunctions/arm_var_q15.c:194:12
	ldr	r0, [sp, #40]
	.loc	50 194 10 is_stmt 0             @ ../Middlewares/CMSIS/DSP/Src/StatisticsFunctions/arm_var_q15.c:194:10
	str	r0, [sp, #32]
	.loc	50 198 3 is_stmt 1              @ ../Middlewares/CMSIS/DSP/Src/StatisticsFunctions/arm_var_q15.c:198:3
	b	.LBB45_3
.LBB45_3:                               @ =>This Inner Loop Header: Depth=1
	.loc	50 198 10 is_stmt 0             @ ../Middlewares/CMSIS/DSP/Src/StatisticsFunctions/arm_var_q15.c:198:10
	ldr	r0, [sp, #32]
	.loc	50 198 3                        @ ../Middlewares/CMSIS/DSP/Src/StatisticsFunctions/arm_var_q15.c:198:3
	cbz	r0, .LBB45_5
	b	.LBB45_4
.LBB45_4:                               @   in Loop: Header=BB45_3 Depth=1
.Ltmp295:
	.loc	50 203 15 is_stmt 1             @ ../Middlewares/CMSIS/DSP/Src/StatisticsFunctions/arm_var_q15.c:203:15
	ldr	r0, [sp, #44]
	adds	r1, r0, #2
	str	r1, [sp, #44]
	.loc	50 203 10 is_stmt 0             @ ../Middlewares/CMSIS/DSP/Src/StatisticsFunctions/arm_var_q15.c:203:10
	ldrh	r0, [r0]
	.loc	50 203 8                        @ ../Middlewares/CMSIS/DSP/Src/StatisticsFunctions/arm_var_q15.c:203:8
	strh.w	r0, [sp, #6]
	.loc	50 206 41 is_stmt 1             @ ../Middlewares/CMSIS/DSP/Src/StatisticsFunctions/arm_var_q15.c:206:41
	ldrsh.w	r2, [sp, #6]
	.loc	50 206 49 is_stmt 0             @ ../Middlewares/CMSIS/DSP/Src/StatisticsFunctions/arm_var_q15.c:206:49
	ldr	r0, [sp, #8]
	ldr	r1, [sp, #12]
	.loc	50 206 20                       @ ../Middlewares/CMSIS/DSP/Src/StatisticsFunctions/arm_var_q15.c:206:20
	smlald	r0, r1, r2, r2
	.loc	50 206 18                       @ ../Middlewares/CMSIS/DSP/Src/StatisticsFunctions/arm_var_q15.c:206:18
	str	r1, [sp, #12]
	str	r0, [sp, #8]
	.loc	50 211 12 is_stmt 1             @ ../Middlewares/CMSIS/DSP/Src/StatisticsFunctions/arm_var_q15.c:211:12
	ldrsh.w	r1, [sp, #6]
	.loc	50 211 9 is_stmt 0              @ ../Middlewares/CMSIS/DSP/Src/StatisticsFunctions/arm_var_q15.c:211:9
	ldr	r0, [sp, #28]
	add	r0, r1
	str	r0, [sp, #28]
	.loc	50 214 11 is_stmt 1             @ ../Middlewares/CMSIS/DSP/Src/StatisticsFunctions/arm_var_q15.c:214:11
	ldr	r0, [sp, #32]
	subs	r0, #1
	str	r0, [sp, #32]
.Ltmp296:
	.loc	50 198 3                        @ ../Middlewares/CMSIS/DSP/Src/StatisticsFunctions/arm_var_q15.c:198:3
	b	.LBB45_3
.LBB45_5:
	.loc	50 218 28                       @ ../Middlewares/CMSIS/DSP/Src/StatisticsFunctions/arm_var_q15.c:218:28
	ldr	r0, [sp, #8]
	ldr	r1, [sp, #12]
	.loc	50 218 51 is_stmt 0             @ ../Middlewares/CMSIS/DSP/Src/StatisticsFunctions/arm_var_q15.c:218:51
	ldr	r2, [sp, #40]
	.loc	50 218 61                       @ ../Middlewares/CMSIS/DSP/Src/StatisticsFunctions/arm_var_q15.c:218:61
	subs	r2, #1
	movs	r3, #0
	.loc	50 218 41                       @ ../Middlewares/CMSIS/DSP/Src/StatisticsFunctions/arm_var_q15.c:218:41
	str	r3, [sp]                        @ 4-byte Spill
	bl	__aeabi_ldivmod
	ldr	r3, [sp]                        @ 4-byte Reload
	.loc	50 218 17                       @ ../Middlewares/CMSIS/DSP/Src/StatisticsFunctions/arm_var_q15.c:218:17
	str	r0, [sp, #24]
	.loc	50 221 35 is_stmt 1             @ ../Middlewares/CMSIS/DSP/Src/StatisticsFunctions/arm_var_q15.c:221:35
	ldr	r0, [sp, #28]
	.loc	50 221 39 is_stmt 0             @ ../Middlewares/CMSIS/DSP/Src/StatisticsFunctions/arm_var_q15.c:221:39
	smull	r0, r1, r0, r0
	.loc	50 221 55                       @ ../Middlewares/CMSIS/DSP/Src/StatisticsFunctions/arm_var_q15.c:221:55
	ldr	r2, [sp, #40]
	.loc	50 221 78                       @ ../Middlewares/CMSIS/DSP/Src/StatisticsFunctions/arm_var_q15.c:221:78
	sub.w	r12, r2, #1
	.loc	50 221 65                       @ ../Middlewares/CMSIS/DSP/Src/StatisticsFunctions/arm_var_q15.c:221:65
	mul	r2, r2, r12
	.loc	50 221 45                       @ ../Middlewares/CMSIS/DSP/Src/StatisticsFunctions/arm_var_q15.c:221:45
	bl	__aeabi_ldivmod
	.loc	50 221 16                       @ ../Middlewares/CMSIS/DSP/Src/StatisticsFunctions/arm_var_q15.c:221:16
	str	r0, [sp, #20]
	.loc	50 224 15 is_stmt 1             @ ../Middlewares/CMSIS/DSP/Src/StatisticsFunctions/arm_var_q15.c:224:15
	ldr	r0, [sp, #24]
	.loc	50 224 31 is_stmt 0             @ ../Middlewares/CMSIS/DSP/Src/StatisticsFunctions/arm_var_q15.c:224:31
	ldr	r1, [sp, #20]
	.loc	50 224 29                       @ ../Middlewares/CMSIS/DSP/Src/StatisticsFunctions/arm_var_q15.c:224:29
	subs	r0, r0, r1
	.loc	50 224 45                       @ ../Middlewares/CMSIS/DSP/Src/StatisticsFunctions/arm_var_q15.c:224:45
	lsrs	r0, r0, #15
	.loc	50 224 4                        @ ../Middlewares/CMSIS/DSP/Src/StatisticsFunctions/arm_var_q15.c:224:4
	ldr	r1, [sp, #36]
	.loc	50 224 12                       @ ../Middlewares/CMSIS/DSP/Src/StatisticsFunctions/arm_var_q15.c:224:12
	strh	r0, [r1]
	.loc	50 225 1 is_stmt 1              @ ../Middlewares/CMSIS/DSP/Src/StatisticsFunctions/arm_var_q15.c:225:1
	b	.LBB45_6
.LBB45_6:
	add	sp, #48
	pop	{r7, pc}
.Ltmp297:
.Lfunc_end45:
	.size	arm_var_q15, .Lfunc_end45-arm_var_q15
	.cfi_endproc
	.cantunwind
	.fnend
                                        @ -- End function
	.section	.text.arm_var_q31,"ax",%progbits
	.hidden	arm_var_q31                     @ -- Begin function arm_var_q31
	.globl	arm_var_q31
	.p2align	2
	.type	arm_var_q31,%function
	.code	16                              @ @arm_var_q31
	.thumb_func
arm_var_q31:
.Lfunc_begin46:
	.file	51 "D:\\horizon\\Horizon_Infantry (2)\\MDK-ARM" "../Middlewares/CMSIS/DSP/Src/StatisticsFunctions/arm_var_q31.c"
	.loc	51 132 0                        @ ../Middlewares/CMSIS/DSP/Src/StatisticsFunctions/arm_var_q31.c:132:0
	.fnstart
	.cfi_startproc
@ %bb.0:
	.save	{r7, lr}
	push	{r7, lr}
	.cfi_def_cfa_offset 8
	.cfi_offset lr, -4
	.cfi_offset r7, -8
	.pad	#56
	sub	sp, #56
	.cfi_def_cfa_offset 64
	str	r0, [sp, #52]
	str	r1, [sp, #48]
	str	r2, [sp, #44]
	movs	r0, #0
.Ltmp298:
	.loc	51 134 15 prologue_end          @ ../Middlewares/CMSIS/DSP/Src/StatisticsFunctions/arm_var_q31.c:134:15
	str	r0, [sp, #36]
	str	r0, [sp, #32]
	.loc	51 136 15                       @ ../Middlewares/CMSIS/DSP/Src/StatisticsFunctions/arm_var_q31.c:136:15
	str	r0, [sp, #12]
	str	r0, [sp, #8]
.Ltmp299:
	.loc	51 139 7                        @ ../Middlewares/CMSIS/DSP/Src/StatisticsFunctions/arm_var_q31.c:139:7
	ldr	r0, [sp, #48]
.Ltmp300:
	.loc	51 139 7 is_stmt 0              @ ../Middlewares/CMSIS/DSP/Src/StatisticsFunctions/arm_var_q31.c:139:7
	cmp	r0, #1
	bhi	.LBB46_2
	b	.LBB46_1
.LBB46_1:
.Ltmp301:
	.loc	51 141 6 is_stmt 1              @ ../Middlewares/CMSIS/DSP/Src/StatisticsFunctions/arm_var_q31.c:141:6
	ldr	r1, [sp, #44]
	movs	r0, #0
	.loc	51 141 14 is_stmt 0             @ ../Middlewares/CMSIS/DSP/Src/StatisticsFunctions/arm_var_q31.c:141:14
	str	r0, [r1]
	.loc	51 142 5 is_stmt 1              @ ../Middlewares/CMSIS/DSP/Src/StatisticsFunctions/arm_var_q31.c:142:5
	b	.LBB46_6
.Ltmp302:
.LBB46_2:
	.loc	51 183 12                       @ ../Middlewares/CMSIS/DSP/Src/StatisticsFunctions/arm_var_q31.c:183:12
	ldr	r0, [sp, #48]
	.loc	51 183 10 is_stmt 0             @ ../Middlewares/CMSIS/DSP/Src/StatisticsFunctions/arm_var_q31.c:183:10
	str	r0, [sp, #40]
	.loc	51 187 3 is_stmt 1              @ ../Middlewares/CMSIS/DSP/Src/StatisticsFunctions/arm_var_q31.c:187:3
	b	.LBB46_3
.LBB46_3:                               @ =>This Inner Loop Header: Depth=1
	.loc	51 187 10 is_stmt 0             @ ../Middlewares/CMSIS/DSP/Src/StatisticsFunctions/arm_var_q31.c:187:10
	ldr	r0, [sp, #40]
	.loc	51 187 3                        @ ../Middlewares/CMSIS/DSP/Src/StatisticsFunctions/arm_var_q31.c:187:3
	cbz	r0, .LBB46_5
	b	.LBB46_4
.LBB46_4:                               @   in Loop: Header=BB46_3 Depth=1
.Ltmp303:
	.loc	51 192 15 is_stmt 1             @ ../Middlewares/CMSIS/DSP/Src/StatisticsFunctions/arm_var_q31.c:192:15
	ldr	r0, [sp, #52]
	adds	r1, r0, #4
	str	r1, [sp, #52]
	.loc	51 192 10 is_stmt 0             @ ../Middlewares/CMSIS/DSP/Src/StatisticsFunctions/arm_var_q31.c:192:10
	ldr	r0, [r0]
	.loc	51 192 18                       @ ../Middlewares/CMSIS/DSP/Src/StatisticsFunctions/arm_var_q31.c:192:18
	asrs	r0, r0, #8
	.loc	51 192 8                        @ ../Middlewares/CMSIS/DSP/Src/StatisticsFunctions/arm_var_q31.c:192:8
	str	r0, [sp, #4]
	.loc	51 194 31 is_stmt 1             @ ../Middlewares/CMSIS/DSP/Src/StatisticsFunctions/arm_var_q31.c:194:31
	ldr	r2, [sp, #4]
	.loc	51 194 18 is_stmt 0             @ ../Middlewares/CMSIS/DSP/Src/StatisticsFunctions/arm_var_q31.c:194:18
	ldr	r0, [sp, #8]
	ldr	r1, [sp, #12]
	smlal	r0, r1, r2, r2
	str	r1, [sp, #12]
	str	r0, [sp, #8]
	.loc	51 196 12 is_stmt 1             @ ../Middlewares/CMSIS/DSP/Src/StatisticsFunctions/arm_var_q31.c:196:12
	ldr	r2, [sp, #4]
	.loc	51 196 9 is_stmt 0              @ ../Middlewares/CMSIS/DSP/Src/StatisticsFunctions/arm_var_q31.c:196:9
	ldr	r1, [sp, #32]
	ldr	r0, [sp, #36]
	adds	r1, r1, r2
	adc.w	r0, r0, r2, asr #31
	str	r1, [sp, #32]
	str	r0, [sp, #36]
	.loc	51 199 11 is_stmt 1             @ ../Middlewares/CMSIS/DSP/Src/StatisticsFunctions/arm_var_q31.c:199:11
	ldr	r0, [sp, #40]
	subs	r0, #1
	str	r0, [sp, #40]
.Ltmp304:
	.loc	51 187 3                        @ ../Middlewares/CMSIS/DSP/Src/StatisticsFunctions/arm_var_q31.c:187:3
	b	.LBB46_3
.LBB46_5:
	.loc	51 203 20                       @ ../Middlewares/CMSIS/DSP/Src/StatisticsFunctions/arm_var_q31.c:203:20
	ldr	r0, [sp, #8]
	ldr	r1, [sp, #12]
	.loc	51 203 43 is_stmt 0             @ ../Middlewares/CMSIS/DSP/Src/StatisticsFunctions/arm_var_q31.c:203:43
	ldr	r2, [sp, #48]
	.loc	51 203 53                       @ ../Middlewares/CMSIS/DSP/Src/StatisticsFunctions/arm_var_q31.c:203:53
	subs	r2, #1
	movs	r3, #0
	.loc	51 203 33                       @ ../Middlewares/CMSIS/DSP/Src/StatisticsFunctions/arm_var_q31.c:203:33
	str	r3, [sp]                        @ 4-byte Spill
	bl	__aeabi_ldivmod
	ldr	r3, [sp]                        @ 4-byte Reload
	.loc	51 203 17                       @ ../Middlewares/CMSIS/DSP/Src/StatisticsFunctions/arm_var_q31.c:203:17
	str	r1, [sp, #28]
	str	r0, [sp, #24]
	.loc	51 206 20 is_stmt 1             @ ../Middlewares/CMSIS/DSP/Src/StatisticsFunctions/arm_var_q31.c:206:20
	ldr	r1, [sp, #32]
	ldr	r2, [sp, #36]
	.loc	51 206 24 is_stmt 0             @ ../Middlewares/CMSIS/DSP/Src/StatisticsFunctions/arm_var_q31.c:206:24
	umull	r0, r12, r1, r1
	mla	r12, r1, r2, r12
	mla	r1, r1, r2, r12
	.loc	51 206 40                       @ ../Middlewares/CMSIS/DSP/Src/StatisticsFunctions/arm_var_q31.c:206:40
	ldr	r2, [sp, #48]
	.loc	51 206 63                       @ ../Middlewares/CMSIS/DSP/Src/StatisticsFunctions/arm_var_q31.c:206:63
	sub.w	r12, r2, #1
	.loc	51 206 50                       @ ../Middlewares/CMSIS/DSP/Src/StatisticsFunctions/arm_var_q31.c:206:50
	mul	r2, r2, r12
	.loc	51 206 30                       @ ../Middlewares/CMSIS/DSP/Src/StatisticsFunctions/arm_var_q31.c:206:30
	bl	__aeabi_ldivmod
	.loc	51 206 16                       @ ../Middlewares/CMSIS/DSP/Src/StatisticsFunctions/arm_var_q31.c:206:16
	str	r1, [sp, #20]
	str	r0, [sp, #16]
	.loc	51 209 15 is_stmt 1             @ ../Middlewares/CMSIS/DSP/Src/StatisticsFunctions/arm_var_q31.c:209:15
	ldr	r0, [sp, #24]
	ldr	r1, [sp, #28]
	.loc	51 209 31 is_stmt 0             @ ../Middlewares/CMSIS/DSP/Src/StatisticsFunctions/arm_var_q31.c:209:31
	ldr	r3, [sp, #16]
	ldr	r2, [sp, #20]
	.loc	51 209 29                       @ ../Middlewares/CMSIS/DSP/Src/StatisticsFunctions/arm_var_q31.c:209:29
	subs	r0, r0, r3
	sbcs	r1, r2
	.loc	51 209 45                       @ ../Middlewares/CMSIS/DSP/Src/StatisticsFunctions/arm_var_q31.c:209:45
	lsrs	r0, r0, #15
	orr.w	r0, r0, r1, lsl #17
	.loc	51 209 4                        @ ../Middlewares/CMSIS/DSP/Src/StatisticsFunctions/arm_var_q31.c:209:4
	ldr	r1, [sp, #44]
	.loc	51 209 12                       @ ../Middlewares/CMSIS/DSP/Src/StatisticsFunctions/arm_var_q31.c:209:12
	str	r0, [r1]
	.loc	51 210 1 is_stmt 1              @ ../Middlewares/CMSIS/DSP/Src/StatisticsFunctions/arm_var_q31.c:210:1
	b	.LBB46_6
.LBB46_6:
	add	sp, #56
	pop	{r7, pc}
.Ltmp305:
.Lfunc_end46:
	.size	arm_var_q31, .Lfunc_end46-arm_var_q31
	.cfi_endproc
	.cantunwind
	.fnend
                                        @ -- End function
	.section	.text.arm_absmax_f32,"ax",%progbits
	.hidden	arm_absmax_f32                  @ -- Begin function arm_absmax_f32
	.globl	arm_absmax_f32
	.p2align	2
	.type	arm_absmax_f32,%function
	.code	16                              @ @arm_absmax_f32
	.thumb_func
arm_absmax_f32:
.Lfunc_begin47:
	.file	52 "D:\\horizon\\Horizon_Infantry (2)\\MDK-ARM" "../Middlewares/CMSIS/DSP/Src/StatisticsFunctions/arm_absmax_f32.c"
	.loc	52 219 0                        @ ../Middlewares/CMSIS/DSP/Src/StatisticsFunctions/arm_absmax_f32.c:219:0
	.fnstart
	.cfi_startproc
@ %bb.0:
	.pad	#32
	sub	sp, #32
	.cfi_def_cfa_offset 32
	str	r0, [sp, #28]
	str	r1, [sp, #24]
	str	r2, [sp, #20]
	str	r3, [sp, #16]
	movs	r0, #0
.Ltmp306:
	.loc	52 226 12 prologue_end          @ ../Middlewares/CMSIS/DSP/Src/StatisticsFunctions/arm_absmax_f32.c:226:12
	str	r0, [sp]
	.loc	52 229 20                       @ ../Middlewares/CMSIS/DSP/Src/StatisticsFunctions/arm_absmax_f32.c:229:20
	ldr	r0, [sp, #28]
	adds	r1, r0, #4
	str	r1, [sp, #28]
	.loc	52 229 15 is_stmt 0             @ ../Middlewares/CMSIS/DSP/Src/StatisticsFunctions/arm_absmax_f32.c:229:15
	vldr	s0, [r0]
	.loc	52 229 9                        @ ../Middlewares/CMSIS/DSP/Src/StatisticsFunctions/arm_absmax_f32.c:229:9
	vabs.f32	s0, s0
	.loc	52 229 7                        @ ../Middlewares/CMSIS/DSP/Src/StatisticsFunctions/arm_absmax_f32.c:229:7
	vstr	s0, [sp, #8]
	.loc	52 232 13 is_stmt 1             @ ../Middlewares/CMSIS/DSP/Src/StatisticsFunctions/arm_absmax_f32.c:232:13
	ldr	r0, [sp, #24]
	.loc	52 232 23 is_stmt 0             @ ../Middlewares/CMSIS/DSP/Src/StatisticsFunctions/arm_absmax_f32.c:232:23
	subs	r0, #1
	.loc	52 232 10                       @ ../Middlewares/CMSIS/DSP/Src/StatisticsFunctions/arm_absmax_f32.c:232:10
	str	r0, [sp, #4]
	.loc	52 235 3 is_stmt 1              @ ../Middlewares/CMSIS/DSP/Src/StatisticsFunctions/arm_absmax_f32.c:235:3
	b	.LBB47_1
.LBB47_1:                               @ =>This Inner Loop Header: Depth=1
	.loc	52 235 10 is_stmt 0             @ ../Middlewares/CMSIS/DSP/Src/StatisticsFunctions/arm_absmax_f32.c:235:10
	ldr	r0, [sp, #4]
	.loc	52 235 3                        @ ../Middlewares/CMSIS/DSP/Src/StatisticsFunctions/arm_absmax_f32.c:235:3
	cbz	r0, .LBB47_5
	b	.LBB47_2
.LBB47_2:                               @   in Loop: Header=BB47_1 Depth=1
.Ltmp307:
	.loc	52 238 25 is_stmt 1             @ ../Middlewares/CMSIS/DSP/Src/StatisticsFunctions/arm_absmax_f32.c:238:25
	ldr	r0, [sp, #28]
	adds	r1, r0, #4
	str	r1, [sp, #28]
	.loc	52 238 20 is_stmt 0             @ ../Middlewares/CMSIS/DSP/Src/StatisticsFunctions/arm_absmax_f32.c:238:20
	vldr	s0, [r0]
	.loc	52 238 14                       @ ../Middlewares/CMSIS/DSP/Src/StatisticsFunctions/arm_absmax_f32.c:238:14
	vabs.f32	s0, s0
	.loc	52 238 12                       @ ../Middlewares/CMSIS/DSP/Src/StatisticsFunctions/arm_absmax_f32.c:238:12
	vstr	s0, [sp, #12]
.Ltmp308:
	.loc	52 241 9 is_stmt 1              @ ../Middlewares/CMSIS/DSP/Src/StatisticsFunctions/arm_absmax_f32.c:241:9
	vldr	s0, [sp, #8]
	.loc	52 241 15 is_stmt 0             @ ../Middlewares/CMSIS/DSP/Src/StatisticsFunctions/arm_absmax_f32.c:241:15
	vldr	s2, [sp, #12]
.Ltmp309:
	.loc	52 241 9                        @ ../Middlewares/CMSIS/DSP/Src/StatisticsFunctions/arm_absmax_f32.c:241:9
	vcmp.f32	s0, s2
	vmrs	APSR_nzcv, fpscr
	bge	.LBB47_4
	b	.LBB47_3
.LBB47_3:                               @   in Loop: Header=BB47_1 Depth=1
.Ltmp310:
	.loc	52 244 13 is_stmt 1             @ ../Middlewares/CMSIS/DSP/Src/StatisticsFunctions/arm_absmax_f32.c:244:13
	ldr	r0, [sp, #12]
	.loc	52 244 11 is_stmt 0             @ ../Middlewares/CMSIS/DSP/Src/StatisticsFunctions/arm_absmax_f32.c:244:11
	str	r0, [sp, #8]
	.loc	52 245 18 is_stmt 1             @ ../Middlewares/CMSIS/DSP/Src/StatisticsFunctions/arm_absmax_f32.c:245:18
	ldr	r0, [sp, #24]
	.loc	52 245 30 is_stmt 0             @ ../Middlewares/CMSIS/DSP/Src/StatisticsFunctions/arm_absmax_f32.c:245:30
	ldr	r1, [sp, #4]
	.loc	52 245 28                       @ ../Middlewares/CMSIS/DSP/Src/StatisticsFunctions/arm_absmax_f32.c:245:28
	subs	r0, r0, r1
	.loc	52 245 16                       @ ../Middlewares/CMSIS/DSP/Src/StatisticsFunctions/arm_absmax_f32.c:245:16
	str	r0, [sp]
	.loc	52 246 5 is_stmt 1              @ ../Middlewares/CMSIS/DSP/Src/StatisticsFunctions/arm_absmax_f32.c:246:5
	b	.LBB47_4
.Ltmp311:
.LBB47_4:                               @   in Loop: Header=BB47_1 Depth=1
	.loc	52 249 11                       @ ../Middlewares/CMSIS/DSP/Src/StatisticsFunctions/arm_absmax_f32.c:249:11
	ldr	r0, [sp, #4]
	subs	r0, #1
	str	r0, [sp, #4]
.Ltmp312:
	.loc	52 235 3                        @ ../Middlewares/CMSIS/DSP/Src/StatisticsFunctions/arm_absmax_f32.c:235:3
	b	.LBB47_1
.LBB47_5:
	.loc	52 253 14                       @ ../Middlewares/CMSIS/DSP/Src/StatisticsFunctions/arm_absmax_f32.c:253:14
	ldr	r0, [sp, #8]
	.loc	52 253 4 is_stmt 0              @ ../Middlewares/CMSIS/DSP/Src/StatisticsFunctions/arm_absmax_f32.c:253:4
	ldr	r1, [sp, #20]
	.loc	52 253 12                       @ ../Middlewares/CMSIS/DSP/Src/StatisticsFunctions/arm_absmax_f32.c:253:12
	str	r0, [r1]
	.loc	52 254 13 is_stmt 1             @ ../Middlewares/CMSIS/DSP/Src/StatisticsFunctions/arm_absmax_f32.c:254:13
	ldr	r0, [sp]
	.loc	52 254 4 is_stmt 0              @ ../Middlewares/CMSIS/DSP/Src/StatisticsFunctions/arm_absmax_f32.c:254:4
	ldr	r1, [sp, #16]
	.loc	52 254 11                       @ ../Middlewares/CMSIS/DSP/Src/StatisticsFunctions/arm_absmax_f32.c:254:11
	str	r0, [r1]
	.loc	52 255 1 is_stmt 1              @ ../Middlewares/CMSIS/DSP/Src/StatisticsFunctions/arm_absmax_f32.c:255:1
	add	sp, #32
	bx	lr
.Ltmp313:
.Lfunc_end47:
	.size	arm_absmax_f32, .Lfunc_end47-arm_absmax_f32
	.cfi_endproc
	.cantunwind
	.fnend
                                        @ -- End function
	.section	.text.arm_absmax_f64,"ax",%progbits
	.hidden	arm_absmax_f64                  @ -- Begin function arm_absmax_f64
	.globl	arm_absmax_f64
	.p2align	3
	.type	arm_absmax_f64,%function
	.code	16                              @ @arm_absmax_f64
	.thumb_func
arm_absmax_f64:
.Lfunc_begin48:
	.file	53 "D:\\horizon\\Horizon_Infantry (2)\\MDK-ARM" "../Middlewares/CMSIS/DSP/Src/StatisticsFunctions/arm_absmax_f64.c"
	.loc	53 53 0                         @ ../Middlewares/CMSIS/DSP/Src/StatisticsFunctions/arm_absmax_f64.c:53:0
	.fnstart
	.cfi_startproc
@ %bb.0:
	.save	{r7, lr}
	push	{r7, lr}
	.cfi_def_cfa_offset 8
	.cfi_offset lr, -4
	.cfi_offset r7, -8
	.pad	#40
	sub	sp, #40
	.cfi_def_cfa_offset 48
	str	r0, [sp, #36]
	str	r1, [sp, #32]
	str	r2, [sp, #28]
	str	r3, [sp, #24]
	movs	r0, #0
.Ltmp314:
	.loc	53 60 12 prologue_end           @ ../Middlewares/CMSIS/DSP/Src/StatisticsFunctions/arm_absmax_f64.c:60:12
	str	r0, [sp]
	.loc	53 63 19                        @ ../Middlewares/CMSIS/DSP/Src/StatisticsFunctions/arm_absmax_f64.c:63:19
	ldr	r0, [sp, #36]
	add.w	r1, r0, #8
	str	r1, [sp, #36]
	.loc	53 63 14 is_stmt 0              @ ../Middlewares/CMSIS/DSP/Src/StatisticsFunctions/arm_absmax_f64.c:63:14
	vldr	d0, [r0]
	vldr	d1, .LCPI48_0
	.loc	53 63 9                         @ ../Middlewares/CMSIS/DSP/Src/StatisticsFunctions/arm_absmax_f64.c:63:9
	vmov	r1, r0, d1
	lsrs	r2, r0, #31
	vmov	r0, r1, d0
	bfi	r1, r2, #31, #1
	vmov	d0, r0, r1
	.loc	53 63 7                         @ ../Middlewares/CMSIS/DSP/Src/StatisticsFunctions/arm_absmax_f64.c:63:7
	vstr	d0, [sp, #8]
	.loc	53 66 13 is_stmt 1              @ ../Middlewares/CMSIS/DSP/Src/StatisticsFunctions/arm_absmax_f64.c:66:13
	ldr	r0, [sp, #32]
	.loc	53 66 23 is_stmt 0              @ ../Middlewares/CMSIS/DSP/Src/StatisticsFunctions/arm_absmax_f64.c:66:23
	subs	r0, #1
	.loc	53 66 10                        @ ../Middlewares/CMSIS/DSP/Src/StatisticsFunctions/arm_absmax_f64.c:66:10
	str	r0, [sp, #4]
	.loc	53 68 3 is_stmt 1               @ ../Middlewares/CMSIS/DSP/Src/StatisticsFunctions/arm_absmax_f64.c:68:3
	b	.LBB48_1
.LBB48_1:                               @ =>This Inner Loop Header: Depth=1
	.loc	53 68 10 is_stmt 0              @ ../Middlewares/CMSIS/DSP/Src/StatisticsFunctions/arm_absmax_f64.c:68:10
	ldr	r0, [sp, #4]
	.loc	53 68 3                         @ ../Middlewares/CMSIS/DSP/Src/StatisticsFunctions/arm_absmax_f64.c:68:3
	cbz	r0, .LBB48_5
	b	.LBB48_2
.LBB48_2:                               @   in Loop: Header=BB48_1 Depth=1
.Ltmp315:
	.loc	53 71 24 is_stmt 1              @ ../Middlewares/CMSIS/DSP/Src/StatisticsFunctions/arm_absmax_f64.c:71:24
	ldr	r0, [sp, #36]
	add.w	r1, r0, #8
	str	r1, [sp, #36]
	.loc	53 71 19 is_stmt 0              @ ../Middlewares/CMSIS/DSP/Src/StatisticsFunctions/arm_absmax_f64.c:71:19
	vldr	d0, [r0]
	vldr	d1, .LCPI48_0
	.loc	53 71 14                        @ ../Middlewares/CMSIS/DSP/Src/StatisticsFunctions/arm_absmax_f64.c:71:14
	vmov	r1, r0, d1
	lsrs	r2, r0, #31
	vmov	r0, r1, d0
	bfi	r1, r2, #31, #1
	vmov	d0, r0, r1
	.loc	53 71 12                        @ ../Middlewares/CMSIS/DSP/Src/StatisticsFunctions/arm_absmax_f64.c:71:12
	vstr	d0, [sp, #16]
.Ltmp316:
	.loc	53 74 9 is_stmt 1               @ ../Middlewares/CMSIS/DSP/Src/StatisticsFunctions/arm_absmax_f64.c:74:9
	ldr	r0, [sp, #8]
	ldr	r1, [sp, #12]
	.loc	53 74 15 is_stmt 0              @ ../Middlewares/CMSIS/DSP/Src/StatisticsFunctions/arm_absmax_f64.c:74:15
	ldr	r2, [sp, #16]
	ldr	r3, [sp, #20]
.Ltmp317:
	.loc	53 74 9                         @ ../Middlewares/CMSIS/DSP/Src/StatisticsFunctions/arm_absmax_f64.c:74:9
	bl	__aeabi_dcmpge
	cbnz	r0, .LBB48_4
	b	.LBB48_3
.LBB48_3:                               @   in Loop: Header=BB48_1 Depth=1
.Ltmp318:
	.loc	53 77 13 is_stmt 1              @ ../Middlewares/CMSIS/DSP/Src/StatisticsFunctions/arm_absmax_f64.c:77:13
	vldr	d0, [sp, #16]
	.loc	53 77 11 is_stmt 0              @ ../Middlewares/CMSIS/DSP/Src/StatisticsFunctions/arm_absmax_f64.c:77:11
	vstr	d0, [sp, #8]
	.loc	53 78 18 is_stmt 1              @ ../Middlewares/CMSIS/DSP/Src/StatisticsFunctions/arm_absmax_f64.c:78:18
	ldr	r0, [sp, #32]
	.loc	53 78 30 is_stmt 0              @ ../Middlewares/CMSIS/DSP/Src/StatisticsFunctions/arm_absmax_f64.c:78:30
	ldr	r1, [sp, #4]
	.loc	53 78 28                        @ ../Middlewares/CMSIS/DSP/Src/StatisticsFunctions/arm_absmax_f64.c:78:28
	subs	r0, r0, r1
	.loc	53 78 16                        @ ../Middlewares/CMSIS/DSP/Src/StatisticsFunctions/arm_absmax_f64.c:78:16
	str	r0, [sp]
	.loc	53 79 5 is_stmt 1               @ ../Middlewares/CMSIS/DSP/Src/StatisticsFunctions/arm_absmax_f64.c:79:5
	b	.LBB48_4
.Ltmp319:
.LBB48_4:                               @   in Loop: Header=BB48_1 Depth=1
	.loc	53 82 11                        @ ../Middlewares/CMSIS/DSP/Src/StatisticsFunctions/arm_absmax_f64.c:82:11
	ldr	r0, [sp, #4]
	subs	r0, #1
	str	r0, [sp, #4]
.Ltmp320:
	.loc	53 68 3                         @ ../Middlewares/CMSIS/DSP/Src/StatisticsFunctions/arm_absmax_f64.c:68:3
	b	.LBB48_1
.LBB48_5:
	.loc	53 86 14                        @ ../Middlewares/CMSIS/DSP/Src/StatisticsFunctions/arm_absmax_f64.c:86:14
	vldr	d0, [sp, #8]
	.loc	53 86 4 is_stmt 0               @ ../Middlewares/CMSIS/DSP/Src/StatisticsFunctions/arm_absmax_f64.c:86:4
	ldr	r0, [sp, #28]
	.loc	53 86 12                        @ ../Middlewares/CMSIS/DSP/Src/StatisticsFunctions/arm_absmax_f64.c:86:12
	vstr	d0, [r0]
	.loc	53 87 13 is_stmt 1              @ ../Middlewares/CMSIS/DSP/Src/StatisticsFunctions/arm_absmax_f64.c:87:13
	ldr	r0, [sp]
	.loc	53 87 4 is_stmt 0               @ ../Middlewares/CMSIS/DSP/Src/StatisticsFunctions/arm_absmax_f64.c:87:4
	ldr	r1, [sp, #24]
	.loc	53 87 11                        @ ../Middlewares/CMSIS/DSP/Src/StatisticsFunctions/arm_absmax_f64.c:87:11
	str	r0, [r1]
	.loc	53 88 1 is_stmt 1               @ ../Middlewares/CMSIS/DSP/Src/StatisticsFunctions/arm_absmax_f64.c:88:1
	add	sp, #40
	pop	{r7, pc}
.Ltmp321:
	.p2align	3
@ %bb.6:
	.loc	53 0 1 is_stmt 0                @ ../Middlewares/CMSIS/DSP/Src/StatisticsFunctions/arm_absmax_f64.c:0:1
.LCPI48_0:
	.long	0                               @ double 0
	.long	0
.Lfunc_end48:
	.size	arm_absmax_f64, .Lfunc_end48-arm_absmax_f64
	.cfi_endproc
	.cantunwind
	.fnend
                                        @ -- End function
	.section	.text.arm_absmax_q15,"ax",%progbits
	.hidden	arm_absmax_q15                  @ -- Begin function arm_absmax_q15
	.globl	arm_absmax_q15
	.p2align	2
	.type	arm_absmax_q15,%function
	.code	16                              @ @arm_absmax_q15
	.thumb_func
arm_absmax_q15:
.Lfunc_begin49:
	.file	54 "D:\\horizon\\Horizon_Infantry (2)\\MDK-ARM" "../Middlewares/CMSIS/DSP/Src/StatisticsFunctions/arm_absmax_q15.c"
	.loc	54 110 0 is_stmt 1              @ ../Middlewares/CMSIS/DSP/Src/StatisticsFunctions/arm_absmax_q15.c:110:0
	.fnstart
	.cfi_startproc
@ %bb.0:
	.pad	#56
	sub	sp, #56
	.cfi_def_cfa_offset 56
	str	r0, [sp, #52]
	str	r1, [sp, #48]
	str	r2, [sp, #44]
	str	r3, [sp, #40]
	movs	r0, #0
.Ltmp322:
	.loc	54 111 84 prologue_end          @ ../Middlewares/CMSIS/DSP/Src/StatisticsFunctions/arm_absmax_q15.c:111:84
	str	r0, [sp, #28]
	.loc	54 111 101 is_stmt 0            @ ../Middlewares/CMSIS/DSP/Src/StatisticsFunctions/arm_absmax_q15.c:111:101
	ldr	r0, [sp, #52]
	adds	r1, r0, #2
	str	r1, [sp, #52]
	.loc	54 111 96                       @ ../Middlewares/CMSIS/DSP/Src/StatisticsFunctions/arm_absmax_q15.c:111:96
	ldrh	r0, [r0]
	.loc	54 111 94                       @ ../Middlewares/CMSIS/DSP/Src/StatisticsFunctions/arm_absmax_q15.c:111:94
	strh.w	r0, [sp, #36]
	.loc	54 111 112                      @ ../Middlewares/CMSIS/DSP/Src/StatisticsFunctions/arm_absmax_q15.c:111:112
	ldrsh.w	r0, [sp, #36]
	.loc	54 111 111                      @ ../Middlewares/CMSIS/DSP/Src/StatisticsFunctions/arm_absmax_q15.c:111:111
	cmp	r0, #1
	blt	.LBB49_2
	b	.LBB49_1
.LBB49_1:
	.loc	54 111 123                      @ ../Middlewares/CMSIS/DSP/Src/StatisticsFunctions/arm_absmax_q15.c:111:123
	ldrsh.w	r0, [sp, #36]
	.loc	54 111 111                      @ ../Middlewares/CMSIS/DSP/Src/StatisticsFunctions/arm_absmax_q15.c:111:111
	str	r0, [sp, #20]                   @ 4-byte Spill
	b	.LBB49_3
.LBB49_2:
	.loc	54 111 160                      @ ../Middlewares/CMSIS/DSP/Src/StatisticsFunctions/arm_absmax_q15.c:111:160
	ldrsh.w	r1, [sp, #36]
	movs	r0, #0
	.loc	54 111 136                      @ ../Middlewares/CMSIS/DSP/Src/StatisticsFunctions/arm_absmax_q15.c:111:136
	qsub16	r0, r0, r1
	.loc	54 111 129                      @ ../Middlewares/CMSIS/DSP/Src/StatisticsFunctions/arm_absmax_q15.c:111:129
	sxth	r0, r0
	.loc	54 111 111                      @ ../Middlewares/CMSIS/DSP/Src/StatisticsFunctions/arm_absmax_q15.c:111:111
	str	r0, [sp, #20]                   @ 4-byte Spill
	b	.LBB49_3
.LBB49_3:
	ldr	r0, [sp, #20]                   @ 4-byte Reload
	.loc	54 111 109                      @ ../Middlewares/CMSIS/DSP/Src/StatisticsFunctions/arm_absmax_q15.c:111:109
	strh.w	r0, [sp, #36]
	movs	r0, #0
	.loc	54 111 172                      @ ../Middlewares/CMSIS/DSP/Src/StatisticsFunctions/arm_absmax_q15.c:111:172
	str	r0, [sp, #24]
	.loc	54 111 188                      @ ../Middlewares/CMSIS/DSP/Src/StatisticsFunctions/arm_absmax_q15.c:111:188
	ldr	r0, [sp, #48]
	.loc	54 111 198                      @ ../Middlewares/CMSIS/DSP/Src/StatisticsFunctions/arm_absmax_q15.c:111:198
	subs	r0, #1
	.loc	54 111 204                      @ ../Middlewares/CMSIS/DSP/Src/StatisticsFunctions/arm_absmax_q15.c:111:204
	lsrs	r0, r0, #2
	.loc	54 111 185                      @ ../Middlewares/CMSIS/DSP/Src/StatisticsFunctions/arm_absmax_q15.c:111:185
	str	r0, [sp, #32]
	.loc	54 111 211                      @ ../Middlewares/CMSIS/DSP/Src/StatisticsFunctions/arm_absmax_q15.c:111:211
	b	.LBB49_4
.LBB49_4:                               @ =>This Inner Loop Header: Depth=1
	.loc	54 111 218                      @ ../Middlewares/CMSIS/DSP/Src/StatisticsFunctions/arm_absmax_q15.c:111:218
	ldr	r0, [sp, #32]
	.loc	54 111 211                      @ ../Middlewares/CMSIS/DSP/Src/StatisticsFunctions/arm_absmax_q15.c:111:211
	cmp	r0, #0
	beq.w	.LBB49_26
	b	.LBB49_5
.LBB49_5:                               @   in Loop: Header=BB49_4 Depth=1
.Ltmp323:
	.loc	54 111 251                      @ ../Middlewares/CMSIS/DSP/Src/StatisticsFunctions/arm_absmax_q15.c:111:251
	ldr	r0, [sp, #52]
	adds	r1, r0, #2
	str	r1, [sp, #52]
	.loc	54 111 246                      @ ../Middlewares/CMSIS/DSP/Src/StatisticsFunctions/arm_absmax_q15.c:111:246
	ldrh	r0, [r0]
	.loc	54 111 244                      @ ../Middlewares/CMSIS/DSP/Src/StatisticsFunctions/arm_absmax_q15.c:111:244
	strh.w	r0, [sp, #38]
	.loc	54 111 269                      @ ../Middlewares/CMSIS/DSP/Src/StatisticsFunctions/arm_absmax_q15.c:111:269
	ldrsh.w	r0, [sp, #38]
	.loc	54 111 268                      @ ../Middlewares/CMSIS/DSP/Src/StatisticsFunctions/arm_absmax_q15.c:111:268
	cmp	r0, #1
	blt	.LBB49_7
	b	.LBB49_6
.LBB49_6:                               @   in Loop: Header=BB49_4 Depth=1
	.loc	54 111 287                      @ ../Middlewares/CMSIS/DSP/Src/StatisticsFunctions/arm_absmax_q15.c:111:287
	ldrsh.w	r0, [sp, #38]
	.loc	54 111 268                      @ ../Middlewares/CMSIS/DSP/Src/StatisticsFunctions/arm_absmax_q15.c:111:268
	str	r0, [sp, #16]                   @ 4-byte Spill
	b	.LBB49_8
.LBB49_7:                               @   in Loop: Header=BB49_4 Depth=1
	.loc	54 111 331                      @ ../Middlewares/CMSIS/DSP/Src/StatisticsFunctions/arm_absmax_q15.c:111:331
	ldrsh.w	r1, [sp, #38]
	movs	r0, #0
	.loc	54 111 307                      @ ../Middlewares/CMSIS/DSP/Src/StatisticsFunctions/arm_absmax_q15.c:111:307
	qsub16	r0, r0, r1
	.loc	54 111 300                      @ ../Middlewares/CMSIS/DSP/Src/StatisticsFunctions/arm_absmax_q15.c:111:300
	sxth	r0, r0
	.loc	54 111 268                      @ ../Middlewares/CMSIS/DSP/Src/StatisticsFunctions/arm_absmax_q15.c:111:268
	str	r0, [sp, #16]                   @ 4-byte Spill
	b	.LBB49_8
.LBB49_8:                               @   in Loop: Header=BB49_4 Depth=1
	ldr	r0, [sp, #16]                   @ 4-byte Reload
	.loc	54 111 266                      @ ../Middlewares/CMSIS/DSP/Src/StatisticsFunctions/arm_absmax_q15.c:111:266
	strh.w	r0, [sp, #38]
.Ltmp324:
	.loc	54 111 348                      @ ../Middlewares/CMSIS/DSP/Src/StatisticsFunctions/arm_absmax_q15.c:111:348
	ldrsh.w	r0, [sp, #38]
	.loc	54 111 361                      @ ../Middlewares/CMSIS/DSP/Src/StatisticsFunctions/arm_absmax_q15.c:111:361
	ldrsh.w	r1, [sp, #36]
.Ltmp325:
	.loc	54 111 348                      @ ../Middlewares/CMSIS/DSP/Src/StatisticsFunctions/arm_absmax_q15.c:111:348
	cmp	r0, r1
	ble	.LBB49_10
	b	.LBB49_9
.LBB49_9:                               @   in Loop: Header=BB49_4 Depth=1
.Ltmp326:
	.loc	54 111 374                      @ ../Middlewares/CMSIS/DSP/Src/StatisticsFunctions/arm_absmax_q15.c:111:374
	ldrh.w	r0, [sp, #38]
	.loc	54 111 372                      @ ../Middlewares/CMSIS/DSP/Src/StatisticsFunctions/arm_absmax_q15.c:111:372
	strh.w	r0, [sp, #36]
	.loc	54 111 397                      @ ../Middlewares/CMSIS/DSP/Src/StatisticsFunctions/arm_absmax_q15.c:111:397
	ldr	r0, [sp, #24]
	.loc	54 111 403                      @ ../Middlewares/CMSIS/DSP/Src/StatisticsFunctions/arm_absmax_q15.c:111:403
	adds	r0, #1
	.loc	54 111 395                      @ ../Middlewares/CMSIS/DSP/Src/StatisticsFunctions/arm_absmax_q15.c:111:395
	str	r0, [sp, #28]
	.loc	54 111 409                      @ ../Middlewares/CMSIS/DSP/Src/StatisticsFunctions/arm_absmax_q15.c:111:409
	b	.LBB49_10
.Ltmp327:
.LBB49_10:                              @   in Loop: Header=BB49_4 Depth=1
	.loc	54 111 429                      @ ../Middlewares/CMSIS/DSP/Src/StatisticsFunctions/arm_absmax_q15.c:111:429
	ldr	r0, [sp, #52]
	adds	r1, r0, #2
	str	r1, [sp, #52]
	.loc	54 111 424                      @ ../Middlewares/CMSIS/DSP/Src/StatisticsFunctions/arm_absmax_q15.c:111:424
	ldrh	r0, [r0]
	.loc	54 111 422                      @ ../Middlewares/CMSIS/DSP/Src/StatisticsFunctions/arm_absmax_q15.c:111:422
	strh.w	r0, [sp, #38]
	.loc	54 111 447                      @ ../Middlewares/CMSIS/DSP/Src/StatisticsFunctions/arm_absmax_q15.c:111:447
	ldrsh.w	r0, [sp, #38]
	.loc	54 111 446                      @ ../Middlewares/CMSIS/DSP/Src/StatisticsFunctions/arm_absmax_q15.c:111:446
	cmp	r0, #1
	blt	.LBB49_12
	b	.LBB49_11
.LBB49_11:                              @   in Loop: Header=BB49_4 Depth=1
	.loc	54 111 465                      @ ../Middlewares/CMSIS/DSP/Src/StatisticsFunctions/arm_absmax_q15.c:111:465
	ldrsh.w	r0, [sp, #38]
	.loc	54 111 446                      @ ../Middlewares/CMSIS/DSP/Src/StatisticsFunctions/arm_absmax_q15.c:111:446
	str	r0, [sp, #12]                   @ 4-byte Spill
	b	.LBB49_13
.LBB49_12:                              @   in Loop: Header=BB49_4 Depth=1
	.loc	54 111 509                      @ ../Middlewares/CMSIS/DSP/Src/StatisticsFunctions/arm_absmax_q15.c:111:509
	ldrsh.w	r1, [sp, #38]
	movs	r0, #0
	.loc	54 111 485                      @ ../Middlewares/CMSIS/DSP/Src/StatisticsFunctions/arm_absmax_q15.c:111:485
	qsub16	r0, r0, r1
	.loc	54 111 478                      @ ../Middlewares/CMSIS/DSP/Src/StatisticsFunctions/arm_absmax_q15.c:111:478
	sxth	r0, r0
	.loc	54 111 446                      @ ../Middlewares/CMSIS/DSP/Src/StatisticsFunctions/arm_absmax_q15.c:111:446
	str	r0, [sp, #12]                   @ 4-byte Spill
	b	.LBB49_13
.LBB49_13:                              @   in Loop: Header=BB49_4 Depth=1
	ldr	r0, [sp, #12]                   @ 4-byte Reload
	.loc	54 111 444                      @ ../Middlewares/CMSIS/DSP/Src/StatisticsFunctions/arm_absmax_q15.c:111:444
	strh.w	r0, [sp, #38]
.Ltmp328:
	.loc	54 111 526                      @ ../Middlewares/CMSIS/DSP/Src/StatisticsFunctions/arm_absmax_q15.c:111:526
	ldrsh.w	r0, [sp, #38]
	.loc	54 111 539                      @ ../Middlewares/CMSIS/DSP/Src/StatisticsFunctions/arm_absmax_q15.c:111:539
	ldrsh.w	r1, [sp, #36]
.Ltmp329:
	.loc	54 111 526                      @ ../Middlewares/CMSIS/DSP/Src/StatisticsFunctions/arm_absmax_q15.c:111:526
	cmp	r0, r1
	ble	.LBB49_15
	b	.LBB49_14
.LBB49_14:                              @   in Loop: Header=BB49_4 Depth=1
.Ltmp330:
	.loc	54 111 552                      @ ../Middlewares/CMSIS/DSP/Src/StatisticsFunctions/arm_absmax_q15.c:111:552
	ldrh.w	r0, [sp, #38]
	.loc	54 111 550                      @ ../Middlewares/CMSIS/DSP/Src/StatisticsFunctions/arm_absmax_q15.c:111:550
	strh.w	r0, [sp, #36]
	.loc	54 111 575                      @ ../Middlewares/CMSIS/DSP/Src/StatisticsFunctions/arm_absmax_q15.c:111:575
	ldr	r0, [sp, #24]
	.loc	54 111 581                      @ ../Middlewares/CMSIS/DSP/Src/StatisticsFunctions/arm_absmax_q15.c:111:581
	adds	r0, #2
	.loc	54 111 573                      @ ../Middlewares/CMSIS/DSP/Src/StatisticsFunctions/arm_absmax_q15.c:111:573
	str	r0, [sp, #28]
	.loc	54 111 587                      @ ../Middlewares/CMSIS/DSP/Src/StatisticsFunctions/arm_absmax_q15.c:111:587
	b	.LBB49_15
.Ltmp331:
.LBB49_15:                              @   in Loop: Header=BB49_4 Depth=1
	.loc	54 111 607                      @ ../Middlewares/CMSIS/DSP/Src/StatisticsFunctions/arm_absmax_q15.c:111:607
	ldr	r0, [sp, #52]
	adds	r1, r0, #2
	str	r1, [sp, #52]
	.loc	54 111 602                      @ ../Middlewares/CMSIS/DSP/Src/StatisticsFunctions/arm_absmax_q15.c:111:602
	ldrh	r0, [r0]
	.loc	54 111 600                      @ ../Middlewares/CMSIS/DSP/Src/StatisticsFunctions/arm_absmax_q15.c:111:600
	strh.w	r0, [sp, #38]
	.loc	54 111 625                      @ ../Middlewares/CMSIS/DSP/Src/StatisticsFunctions/arm_absmax_q15.c:111:625
	ldrsh.w	r0, [sp, #38]
	.loc	54 111 624                      @ ../Middlewares/CMSIS/DSP/Src/StatisticsFunctions/arm_absmax_q15.c:111:624
	cmp	r0, #1
	blt	.LBB49_17
	b	.LBB49_16
.LBB49_16:                              @   in Loop: Header=BB49_4 Depth=1
	.loc	54 111 643                      @ ../Middlewares/CMSIS/DSP/Src/StatisticsFunctions/arm_absmax_q15.c:111:643
	ldrsh.w	r0, [sp, #38]
	.loc	54 111 624                      @ ../Middlewares/CMSIS/DSP/Src/StatisticsFunctions/arm_absmax_q15.c:111:624
	str	r0, [sp, #8]                    @ 4-byte Spill
	b	.LBB49_18
.LBB49_17:                              @   in Loop: Header=BB49_4 Depth=1
	.loc	54 111 687                      @ ../Middlewares/CMSIS/DSP/Src/StatisticsFunctions/arm_absmax_q15.c:111:687
	ldrsh.w	r1, [sp, #38]
	movs	r0, #0
	.loc	54 111 663                      @ ../Middlewares/CMSIS/DSP/Src/StatisticsFunctions/arm_absmax_q15.c:111:663
	qsub16	r0, r0, r1
	.loc	54 111 656                      @ ../Middlewares/CMSIS/DSP/Src/StatisticsFunctions/arm_absmax_q15.c:111:656
	sxth	r0, r0
	.loc	54 111 624                      @ ../Middlewares/CMSIS/DSP/Src/StatisticsFunctions/arm_absmax_q15.c:111:624
	str	r0, [sp, #8]                    @ 4-byte Spill
	b	.LBB49_18
.LBB49_18:                              @   in Loop: Header=BB49_4 Depth=1
	ldr	r0, [sp, #8]                    @ 4-byte Reload
	.loc	54 111 622                      @ ../Middlewares/CMSIS/DSP/Src/StatisticsFunctions/arm_absmax_q15.c:111:622
	strh.w	r0, [sp, #38]
.Ltmp332:
	.loc	54 111 704                      @ ../Middlewares/CMSIS/DSP/Src/StatisticsFunctions/arm_absmax_q15.c:111:704
	ldrsh.w	r0, [sp, #38]
	.loc	54 111 717                      @ ../Middlewares/CMSIS/DSP/Src/StatisticsFunctions/arm_absmax_q15.c:111:717
	ldrsh.w	r1, [sp, #36]
.Ltmp333:
	.loc	54 111 704                      @ ../Middlewares/CMSIS/DSP/Src/StatisticsFunctions/arm_absmax_q15.c:111:704
	cmp	r0, r1
	ble	.LBB49_20
	b	.LBB49_19
.LBB49_19:                              @   in Loop: Header=BB49_4 Depth=1
.Ltmp334:
	.loc	54 111 730                      @ ../Middlewares/CMSIS/DSP/Src/StatisticsFunctions/arm_absmax_q15.c:111:730
	ldrh.w	r0, [sp, #38]
	.loc	54 111 728                      @ ../Middlewares/CMSIS/DSP/Src/StatisticsFunctions/arm_absmax_q15.c:111:728
	strh.w	r0, [sp, #36]
