	.text
	.syntax unified
	.eabi_attribute	67, "2.09"	@ Tag_conformance
	.cpu	cortex-m4
	.eabi_attribute	6, 13	@ Tag_CPU_arch
	.eabi_attribute	7, 77	@ Tag_CPU_arch_profile
	.eabi_attribute	8, 0	@ Tag_ARM_ISA_use
	.eabi_attribute	9, 2	@ Tag_THUMB_ISA_use
	.fpu	fpv4-sp-d16
	.eabi_attribute	27, 1	@ Tag_ABI_HardFP_use
	.eabi_attribute	36, 1	@ Tag_FP_HP_extension
	.eabi_attribute	34, 1	@ Tag_CPU_unaligned_access
	.eabi_attribute	17, 1	@ Tag_ABI_PCS_GOT_use
	.eabi_attribute	20, 2	@ Tag_ABI_FP_denormal
	.eabi_attribute	21, 0	@ Tag_ABI_FP_exceptions
	.eabi_attribute	23, 1	@ Tag_ABI_FP_number_model
	.eabi_attribute	24, 1	@ Tag_ABI_align_needed
	.eabi_attribute	25, 1	@ Tag_ABI_align_preserved
	.eabi_attribute	28, 1	@ Tag_ABI_VFP_args
	.eabi_attribute	38, 1	@ Tag_ABI_FP_16bit_format
	.eabi_attribute	18, 2	@ Tag_ABI_PCS_wchar_t
	.eabi_attribute	26, 1	@ Tag_ABI_enum_size
	.eabi_attribute	14, 0	@ Tag_ABI_PCS_R9_use
	.file	"stm32f4xx_hal_can.c"
	.file	1 "D:\\horizon\\Horizon_Infantry (2)\\MDK-ARM" "../Drivers/STM32F4xx_HAL_Driver/Inc/stm32f4xx_hal_def.h"
	.file	2 "D:\\horizon\\Horizon_Infantry (2)\\MDK-ARM" "../Drivers/CMSIS/Device/ST/STM32F4xx/Include\\stm32f4xx.h"
	.file	3 "D:\\horizon\\Horizon_Infantry (2)\\MDK-ARM" "../Drivers/STM32F4xx_HAL_Driver/Inc\\stm32f4xx_hal_can.h"
	.file	4 "D:\\" "kevil\\ARM\\ARMCLANG\\Bin\\..\\include\\stdint.h"
	.file	5 "D:\\horizon\\Horizon_Infantry (2)\\MDK-ARM" "../Drivers/CMSIS/Device/ST/STM32F4xx/Include/stm32f407xx.h"
	.section	.text.HAL_CAN_Init,"ax",%progbits
	.hidden	HAL_CAN_Init                    @ -- Begin function HAL_CAN_Init
	.globl	HAL_CAN_Init
	.p2align	2
	.type	HAL_CAN_Init,%function
	.code	16                              @ @HAL_CAN_Init
	.thumb_func
HAL_CAN_Init:
.Lfunc_begin0:
	.file	6 "D:\\horizon\\Horizon_Infantry (2)\\MDK-ARM" "../Drivers/STM32F4xx_HAL_Driver/Src/stm32f4xx_hal_can.c"
	.loc	6 276 0                         @ ../Drivers/STM32F4xx_HAL_Driver/Src/stm32f4xx_hal_can.c:276:0
	.fnstart
	.cfi_sections .debug_frame
	.cfi_startproc
@ %bb.0:
	.save	{r7, lr}
	push	{r7, lr}
	.cfi_def_cfa_offset 8
	.cfi_offset lr, -4
	.cfi_offset r7, -8
	.pad	#16
	sub	sp, #16
	.cfi_def_cfa_offset 24
	str	r0, [sp, #8]
.Ltmp0:
	.loc	6 280 7 prologue_end            @ ../Drivers/STM32F4xx_HAL_Driver/Src/stm32f4xx_hal_can.c:280:7
	ldr	r0, [sp, #8]
.Ltmp1:
	.loc	6 280 7 is_stmt 0               @ ../Drivers/STM32F4xx_HAL_Driver/Src/stm32f4xx_hal_can.c:280:7
	cbnz	r0, .LBB0_2
	b	.LBB0_1
.LBB0_1:
	.loc	6 0 7                           @ ../Drivers/STM32F4xx_HAL_Driver/Src/stm32f4xx_hal_can.c:0:7
	movs	r0, #1
.Ltmp2:
	.loc	6 282 5 is_stmt 1               @ ../Drivers/STM32F4xx_HAL_Driver/Src/stm32f4xx_hal_can.c:282:5
	strb.w	r0, [sp, #15]
	b	.LBB0_33
.Ltmp3:
.LBB0_2:
	.loc	6 327 7                         @ ../Drivers/STM32F4xx_HAL_Driver/Src/stm32f4xx_hal_can.c:327:7
	ldr	r0, [sp, #8]
	.loc	6 327 13 is_stmt 0              @ ../Drivers/STM32F4xx_HAL_Driver/Src/stm32f4xx_hal_can.c:327:13
	ldrb.w	r0, [r0, #32]
.Ltmp4:
	.loc	6 327 7                         @ ../Drivers/STM32F4xx_HAL_Driver/Src/stm32f4xx_hal_can.c:327:7
	cbnz	r0, .LBB0_4
	b	.LBB0_3
.LBB0_3:
.Ltmp5:
	.loc	6 330 21 is_stmt 1              @ ../Drivers/STM32F4xx_HAL_Driver/Src/stm32f4xx_hal_can.c:330:21
	ldr	r0, [sp, #8]
	.loc	6 330 5 is_stmt 0               @ ../Drivers/STM32F4xx_HAL_Driver/Src/stm32f4xx_hal_can.c:330:5
	bl	HAL_CAN_MspInit
	.loc	6 331 3 is_stmt 1               @ ../Drivers/STM32F4xx_HAL_Driver/Src/stm32f4xx_hal_can.c:331:3
	b	.LBB0_4
.Ltmp6:
.LBB0_4:
	.loc	6 335 5                         @ ../Drivers/STM32F4xx_HAL_Driver/Src/stm32f4xx_hal_can.c:335:5
	ldr	r0, [sp, #8]
	.loc	6 335 11 is_stmt 0              @ ../Drivers/STM32F4xx_HAL_Driver/Src/stm32f4xx_hal_can.c:335:11
	ldr	r1, [r0]
	.loc	6 335 26                        @ ../Drivers/STM32F4xx_HAL_Driver/Src/stm32f4xx_hal_can.c:335:26
	ldr	r0, [r1]
	orr	r0, r0, #1
	str	r0, [r1]
	.loc	6 338 15 is_stmt 1              @ ../Drivers/STM32F4xx_HAL_Driver/Src/stm32f4xx_hal_can.c:338:15
	bl	HAL_GetTick
	.loc	6 338 13 is_stmt 0              @ ../Drivers/STM32F4xx_HAL_Driver/Src/stm32f4xx_hal_can.c:338:13
	str	r0, [sp, #4]
	.loc	6 341 3 is_stmt 1               @ ../Drivers/STM32F4xx_HAL_Driver/Src/stm32f4xx_hal_can.c:341:3
	b	.LBB0_5
.LBB0_5:                                @ =>This Inner Loop Header: Depth=1
	.loc	6 341 11 is_stmt 0              @ ../Drivers/STM32F4xx_HAL_Driver/Src/stm32f4xx_hal_can.c:341:11
	ldr	r0, [sp, #8]
	.loc	6 341 17                        @ ../Drivers/STM32F4xx_HAL_Driver/Src/stm32f4xx_hal_can.c:341:17
	ldr	r0, [r0]
	.loc	6 341 27                        @ ../Drivers/STM32F4xx_HAL_Driver/Src/stm32f4xx_hal_can.c:341:27
	ldr	r0, [r0, #4]
	.loc	6 341 3                         @ ../Drivers/STM32F4xx_HAL_Driver/Src/stm32f4xx_hal_can.c:341:3
	lsls	r0, r0, #31
	cbnz	r0, .LBB0_9
	b	.LBB0_6
.LBB0_6:                                @   in Loop: Header=BB0_5 Depth=1
.Ltmp7:
	.loc	6 343 10 is_stmt 1              @ ../Drivers/STM32F4xx_HAL_Driver/Src/stm32f4xx_hal_can.c:343:10
	bl	HAL_GetTick
	.loc	6 343 26 is_stmt 0              @ ../Drivers/STM32F4xx_HAL_Driver/Src/stm32f4xx_hal_can.c:343:26
	ldr	r1, [sp, #4]
	.loc	6 343 24                        @ ../Drivers/STM32F4xx_HAL_Driver/Src/stm32f4xx_hal_can.c:343:24
	subs	r0, r0, r1
.Ltmp8:
	.loc	6 343 9                         @ ../Drivers/STM32F4xx_HAL_Driver/Src/stm32f4xx_hal_can.c:343:9
	cmp	r0, #11
	blo	.LBB0_8
	b	.LBB0_7
.LBB0_7:
.Ltmp9:
	.loc	6 346 7 is_stmt 1               @ ../Drivers/STM32F4xx_HAL_Driver/Src/stm32f4xx_hal_can.c:346:7
	ldr	r1, [sp, #8]
	.loc	6 346 23 is_stmt 0              @ ../Drivers/STM32F4xx_HAL_Driver/Src/stm32f4xx_hal_can.c:346:23
	ldr	r0, [r1, #36]
	orr	r0, r0, #131072
	str	r0, [r1, #36]
	.loc	6 349 7 is_stmt 1               @ ../Drivers/STM32F4xx_HAL_Driver/Src/stm32f4xx_hal_can.c:349:7
	ldr	r1, [sp, #8]
	movs	r0, #5
	.loc	6 349 19 is_stmt 0              @ ../Drivers/STM32F4xx_HAL_Driver/Src/stm32f4xx_hal_can.c:349:19
	strb.w	r0, [r1, #32]
	movs	r0, #1
	.loc	6 351 7 is_stmt 1               @ ../Drivers/STM32F4xx_HAL_Driver/Src/stm32f4xx_hal_can.c:351:7
	strb.w	r0, [sp, #15]
	b	.LBB0_33
.Ltmp10:
.LBB0_8:                                @   in Loop: Header=BB0_5 Depth=1
	.loc	6 341 3                         @ ../Drivers/STM32F4xx_HAL_Driver/Src/stm32f4xx_hal_can.c:341:3
	b	.LBB0_5
.LBB0_9:
	.loc	6 356 5                         @ ../Drivers/STM32F4xx_HAL_Driver/Src/stm32f4xx_hal_can.c:356:5
	ldr	r0, [sp, #8]
	.loc	6 356 11 is_stmt 0              @ ../Drivers/STM32F4xx_HAL_Driver/Src/stm32f4xx_hal_can.c:356:11
	ldr	r1, [r0]
	.loc	6 356 26                        @ ../Drivers/STM32F4xx_HAL_Driver/Src/stm32f4xx_hal_can.c:356:26
	ldr	r0, [r1]
	bic	r0, r0, #2
	str	r0, [r1]
	.loc	6 359 15 is_stmt 1              @ ../Drivers/STM32F4xx_HAL_Driver/Src/stm32f4xx_hal_can.c:359:15
	bl	HAL_GetTick
	.loc	6 359 13 is_stmt 0              @ ../Drivers/STM32F4xx_HAL_Driver/Src/stm32f4xx_hal_can.c:359:13
	str	r0, [sp, #4]
	.loc	6 362 3 is_stmt 1               @ ../Drivers/STM32F4xx_HAL_Driver/Src/stm32f4xx_hal_can.c:362:3
	b	.LBB0_10
.LBB0_10:                               @ =>This Inner Loop Header: Depth=1
	.loc	6 362 11 is_stmt 0              @ ../Drivers/STM32F4xx_HAL_Driver/Src/stm32f4xx_hal_can.c:362:11
	ldr	r0, [sp, #8]
	.loc	6 362 17                        @ ../Drivers/STM32F4xx_HAL_Driver/Src/stm32f4xx_hal_can.c:362:17
	ldr	r0, [r0]
	.loc	6 362 27                        @ ../Drivers/STM32F4xx_HAL_Driver/Src/stm32f4xx_hal_can.c:362:27
	ldr	r0, [r0, #4]
	.loc	6 362 3                         @ ../Drivers/STM32F4xx_HAL_Driver/Src/stm32f4xx_hal_can.c:362:3
	lsls	r0, r0, #30
	cmp	r0, #0
	bpl	.LBB0_14
	b	.LBB0_11
.LBB0_11:                               @   in Loop: Header=BB0_10 Depth=1
.Ltmp11:
	.loc	6 364 10 is_stmt 1              @ ../Drivers/STM32F4xx_HAL_Driver/Src/stm32f4xx_hal_can.c:364:10
	bl	HAL_GetTick
	.loc	6 364 26 is_stmt 0              @ ../Drivers/STM32F4xx_HAL_Driver/Src/stm32f4xx_hal_can.c:364:26
	ldr	r1, [sp, #4]
	.loc	6 364 24                        @ ../Drivers/STM32F4xx_HAL_Driver/Src/stm32f4xx_hal_can.c:364:24
	subs	r0, r0, r1
.Ltmp12:
	.loc	6 364 9                         @ ../Drivers/STM32F4xx_HAL_Driver/Src/stm32f4xx_hal_can.c:364:9
	cmp	r0, #11
	blo	.LBB0_13
	b	.LBB0_12
.LBB0_12:
.Ltmp13:
	.loc	6 367 7 is_stmt 1               @ ../Drivers/STM32F4xx_HAL_Driver/Src/stm32f4xx_hal_can.c:367:7
	ldr	r1, [sp, #8]
	.loc	6 367 23 is_stmt 0              @ ../Drivers/STM32F4xx_HAL_Driver/Src/stm32f4xx_hal_can.c:367:23
	ldr	r0, [r1, #36]
	orr	r0, r0, #131072
	str	r0, [r1, #36]
	.loc	6 370 7 is_stmt 1               @ ../Drivers/STM32F4xx_HAL_Driver/Src/stm32f4xx_hal_can.c:370:7
	ldr	r1, [sp, #8]
	movs	r0, #5
	.loc	6 370 19 is_stmt 0              @ ../Drivers/STM32F4xx_HAL_Driver/Src/stm32f4xx_hal_can.c:370:19
	strb.w	r0, [r1, #32]
	movs	r0, #1
	.loc	6 372 7 is_stmt 1               @ ../Drivers/STM32F4xx_HAL_Driver/Src/stm32f4xx_hal_can.c:372:7
	strb.w	r0, [sp, #15]
	b	.LBB0_33
.Ltmp14:
.LBB0_13:                               @   in Loop: Header=BB0_10 Depth=1
	.loc	6 362 3                         @ ../Drivers/STM32F4xx_HAL_Driver/Src/stm32f4xx_hal_can.c:362:3
	b	.LBB0_10
.LBB0_14:
.Ltmp15:
	.loc	6 377 7                         @ ../Drivers/STM32F4xx_HAL_Driver/Src/stm32f4xx_hal_can.c:377:7
	ldr	r0, [sp, #8]
	.loc	6 377 18 is_stmt 0              @ ../Drivers/STM32F4xx_HAL_Driver/Src/stm32f4xx_hal_can.c:377:18
	ldrb	r0, [r0, #24]
.Ltmp16:
	.loc	6 377 7                         @ ../Drivers/STM32F4xx_HAL_Driver/Src/stm32f4xx_hal_can.c:377:7
	cmp	r0, #1
	bne	.LBB0_16
	b	.LBB0_15
.LBB0_15:
.Ltmp17:
	.loc	6 379 7 is_stmt 1               @ ../Drivers/STM32F4xx_HAL_Driver/Src/stm32f4xx_hal_can.c:379:7
	ldr	r0, [sp, #8]
	.loc	6 379 13 is_stmt 0              @ ../Drivers/STM32F4xx_HAL_Driver/Src/stm32f4xx_hal_can.c:379:13
	ldr	r1, [r0]
	.loc	6 379 28                        @ ../Drivers/STM32F4xx_HAL_Driver/Src/stm32f4xx_hal_can.c:379:28
	ldr	r0, [r1]
	orr	r0, r0, #128
	str	r0, [r1]
	.loc	6 380 3 is_stmt 1               @ ../Drivers/STM32F4xx_HAL_Driver/Src/stm32f4xx_hal_can.c:380:3
	b	.LBB0_17
.Ltmp18:
.LBB0_16:
	.loc	6 383 7                         @ ../Drivers/STM32F4xx_HAL_Driver/Src/stm32f4xx_hal_can.c:383:7
	ldr	r0, [sp, #8]
	.loc	6 383 13 is_stmt 0              @ ../Drivers/STM32F4xx_HAL_Driver/Src/stm32f4xx_hal_can.c:383:13
	ldr	r1, [r0]
	.loc	6 383 28                        @ ../Drivers/STM32F4xx_HAL_Driver/Src/stm32f4xx_hal_can.c:383:28
	ldr	r0, [r1]
	bic	r0, r0, #128
	str	r0, [r1]
	b	.LBB0_17
.Ltmp19:
.LBB0_17:
	.loc	6 387 7 is_stmt 1               @ ../Drivers/STM32F4xx_HAL_Driver/Src/stm32f4xx_hal_can.c:387:7
	ldr	r0, [sp, #8]
	.loc	6 387 18 is_stmt 0              @ ../Drivers/STM32F4xx_HAL_Driver/Src/stm32f4xx_hal_can.c:387:18
	ldrb	r0, [r0, #25]
.Ltmp20:
	.loc	6 387 7                         @ ../Drivers/STM32F4xx_HAL_Driver/Src/stm32f4xx_hal_can.c:387:7
	cmp	r0, #1
	bne	.LBB0_19
	b	.LBB0_18
.LBB0_18:
.Ltmp21:
	.loc	6 389 7 is_stmt 1               @ ../Drivers/STM32F4xx_HAL_Driver/Src/stm32f4xx_hal_can.c:389:7
	ldr	r0, [sp, #8]
	.loc	6 389 13 is_stmt 0              @ ../Drivers/STM32F4xx_HAL_Driver/Src/stm32f4xx_hal_can.c:389:13
	ldr	r1, [r0]
	.loc	6 389 28                        @ ../Drivers/STM32F4xx_HAL_Driver/Src/stm32f4xx_hal_can.c:389:28
	ldr	r0, [r1]
	orr	r0, r0, #64
	str	r0, [r1]
	.loc	6 390 3 is_stmt 1               @ ../Drivers/STM32F4xx_HAL_Driver/Src/stm32f4xx_hal_can.c:390:3
	b	.LBB0_20
.Ltmp22:
.LBB0_19:
	.loc	6 393 7                         @ ../Drivers/STM32F4xx_HAL_Driver/Src/stm32f4xx_hal_can.c:393:7
	ldr	r0, [sp, #8]
	.loc	6 393 13 is_stmt 0              @ ../Drivers/STM32F4xx_HAL_Driver/Src/stm32f4xx_hal_can.c:393:13
	ldr	r1, [r0]
	.loc	6 393 28                        @ ../Drivers/STM32F4xx_HAL_Driver/Src/stm32f4xx_hal_can.c:393:28
	ldr	r0, [r1]
	bic	r0, r0, #64
	str	r0, [r1]
	b	.LBB0_20
.Ltmp23:
.LBB0_20:
	.loc	6 397 7 is_stmt 1               @ ../Drivers/STM32F4xx_HAL_Driver/Src/stm32f4xx_hal_can.c:397:7
	ldr	r0, [sp, #8]
	.loc	6 397 18 is_stmt 0              @ ../Drivers/STM32F4xx_HAL_Driver/Src/stm32f4xx_hal_can.c:397:18
	ldrb	r0, [r0, #26]
.Ltmp24:
	.loc	6 397 7                         @ ../Drivers/STM32F4xx_HAL_Driver/Src/stm32f4xx_hal_can.c:397:7
	cmp	r0, #1
	bne	.LBB0_22
	b	.LBB0_21
.LBB0_21:
.Ltmp25:
	.loc	6 399 7 is_stmt 1               @ ../Drivers/STM32F4xx_HAL_Driver/Src/stm32f4xx_hal_can.c:399:7
	ldr	r0, [sp, #8]
	.loc	6 399 13 is_stmt 0              @ ../Drivers/STM32F4xx_HAL_Driver/Src/stm32f4xx_hal_can.c:399:13
	ldr	r1, [r0]
	.loc	6 399 28                        @ ../Drivers/STM32F4xx_HAL_Driver/Src/stm32f4xx_hal_can.c:399:28
	ldr	r0, [r1]
	orr	r0, r0, #32
	str	r0, [r1]
	.loc	6 400 3 is_stmt 1               @ ../Drivers/STM32F4xx_HAL_Driver/Src/stm32f4xx_hal_can.c:400:3
	b	.LBB0_23
.Ltmp26:
.LBB0_22:
	.loc	6 403 7                         @ ../Drivers/STM32F4xx_HAL_Driver/Src/stm32f4xx_hal_can.c:403:7
	ldr	r0, [sp, #8]
	.loc	6 403 13 is_stmt 0              @ ../Drivers/STM32F4xx_HAL_Driver/Src/stm32f4xx_hal_can.c:403:13
	ldr	r1, [r0]
	.loc	6 403 28                        @ ../Drivers/STM32F4xx_HAL_Driver/Src/stm32f4xx_hal_can.c:403:28
	ldr	r0, [r1]
	bic	r0, r0, #32
	str	r0, [r1]
	b	.LBB0_23
.Ltmp27:
.LBB0_23:
	.loc	6 407 7 is_stmt 1               @ ../Drivers/STM32F4xx_HAL_Driver/Src/stm32f4xx_hal_can.c:407:7
	ldr	r0, [sp, #8]
	.loc	6 407 18 is_stmt 0              @ ../Drivers/STM32F4xx_HAL_Driver/Src/stm32f4xx_hal_can.c:407:18
	ldrb	r0, [r0, #27]
.Ltmp28:
	.loc	6 407 7                         @ ../Drivers/STM32F4xx_HAL_Driver/Src/stm32f4xx_hal_can.c:407:7
	cmp	r0, #1
	bne	.LBB0_25
	b	.LBB0_24
.LBB0_24:
.Ltmp29:
	.loc	6 409 7 is_stmt 1               @ ../Drivers/STM32F4xx_HAL_Driver/Src/stm32f4xx_hal_can.c:409:7
	ldr	r0, [sp, #8]
	.loc	6 409 13 is_stmt 0              @ ../Drivers/STM32F4xx_HAL_Driver/Src/stm32f4xx_hal_can.c:409:13
	ldr	r1, [r0]
	.loc	6 409 28                        @ ../Drivers/STM32F4xx_HAL_Driver/Src/stm32f4xx_hal_can.c:409:28
	ldr	r0, [r1]
	bic	r0, r0, #16
	str	r0, [r1]
	.loc	6 410 3 is_stmt 1               @ ../Drivers/STM32F4xx_HAL_Driver/Src/stm32f4xx_hal_can.c:410:3
	b	.LBB0_26
.Ltmp30:
.LBB0_25:
	.loc	6 413 7                         @ ../Drivers/STM32F4xx_HAL_Driver/Src/stm32f4xx_hal_can.c:413:7
	ldr	r0, [sp, #8]
	.loc	6 413 13 is_stmt 0              @ ../Drivers/STM32F4xx_HAL_Driver/Src/stm32f4xx_hal_can.c:413:13
	ldr	r1, [r0]
	.loc	6 413 28                        @ ../Drivers/STM32F4xx_HAL_Driver/Src/stm32f4xx_hal_can.c:413:28
	ldr	r0, [r1]
	orr	r0, r0, #16
	str	r0, [r1]
	b	.LBB0_26
.Ltmp31:
.LBB0_26:
	.loc	6 417 7 is_stmt 1               @ ../Drivers/STM32F4xx_HAL_Driver/Src/stm32f4xx_hal_can.c:417:7
	ldr	r0, [sp, #8]
	.loc	6 417 18 is_stmt 0              @ ../Drivers/STM32F4xx_HAL_Driver/Src/stm32f4xx_hal_can.c:417:18
	ldrb	r0, [r0, #28]
.Ltmp32:
	.loc	6 417 7                         @ ../Drivers/STM32F4xx_HAL_Driver/Src/stm32f4xx_hal_can.c:417:7
	cmp	r0, #1
	bne	.LBB0_28
	b	.LBB0_27
.LBB0_27:
.Ltmp33:
	.loc	6 419 7 is_stmt 1               @ ../Drivers/STM32F4xx_HAL_Driver/Src/stm32f4xx_hal_can.c:419:7
	ldr	r0, [sp, #8]
	.loc	6 419 13 is_stmt 0              @ ../Drivers/STM32F4xx_HAL_Driver/Src/stm32f4xx_hal_can.c:419:13
	ldr	r1, [r0]
	.loc	6 419 28                        @ ../Drivers/STM32F4xx_HAL_Driver/Src/stm32f4xx_hal_can.c:419:28
	ldr	r0, [r1]
	orr	r0, r0, #8
	str	r0, [r1]
	.loc	6 420 3 is_stmt 1               @ ../Drivers/STM32F4xx_HAL_Driver/Src/stm32f4xx_hal_can.c:420:3
	b	.LBB0_29
.Ltmp34:
.LBB0_28:
	.loc	6 423 7                         @ ../Drivers/STM32F4xx_HAL_Driver/Src/stm32f4xx_hal_can.c:423:7
	ldr	r0, [sp, #8]
	.loc	6 423 13 is_stmt 0              @ ../Drivers/STM32F4xx_HAL_Driver/Src/stm32f4xx_hal_can.c:423:13
	ldr	r1, [r0]
	.loc	6 423 28                        @ ../Drivers/STM32F4xx_HAL_Driver/Src/stm32f4xx_hal_can.c:423:28
	ldr	r0, [r1]
	bic	r0, r0, #8
	str	r0, [r1]
	b	.LBB0_29
.Ltmp35:
.LBB0_29:
	.loc	6 427 7 is_stmt 1               @ ../Drivers/STM32F4xx_HAL_Driver/Src/stm32f4xx_hal_can.c:427:7
	ldr	r0, [sp, #8]
	.loc	6 427 18 is_stmt 0              @ ../Drivers/STM32F4xx_HAL_Driver/Src/stm32f4xx_hal_can.c:427:18
	ldrb	r0, [r0, #29]
.Ltmp36:
	.loc	6 427 7                         @ ../Drivers/STM32F4xx_HAL_Driver/Src/stm32f4xx_hal_can.c:427:7
	cmp	r0, #1
	bne	.LBB0_31
	b	.LBB0_30
.LBB0_30:
.Ltmp37:
	.loc	6 429 7 is_stmt 1               @ ../Drivers/STM32F4xx_HAL_Driver/Src/stm32f4xx_hal_can.c:429:7
	ldr	r0, [sp, #8]
	.loc	6 429 13 is_stmt 0              @ ../Drivers/STM32F4xx_HAL_Driver/Src/stm32f4xx_hal_can.c:429:13
	ldr	r1, [r0]
	.loc	6 429 28                        @ ../Drivers/STM32F4xx_HAL_Driver/Src/stm32f4xx_hal_can.c:429:28
	ldr	r0, [r1]
	orr	r0, r0, #4
	str	r0, [r1]
	.loc	6 430 3 is_stmt 1               @ ../Drivers/STM32F4xx_HAL_Driver/Src/stm32f4xx_hal_can.c:430:3
	b	.LBB0_32
.Ltmp38:
.LBB0_31:
	.loc	6 433 7                         @ ../Drivers/STM32F4xx_HAL_Driver/Src/stm32f4xx_hal_can.c:433:7
	ldr	r0, [sp, #8]
	.loc	6 433 13 is_stmt 0              @ ../Drivers/STM32F4xx_HAL_Driver/Src/stm32f4xx_hal_can.c:433:13
	ldr	r1, [r0]
	.loc	6 433 28                        @ ../Drivers/STM32F4xx_HAL_Driver/Src/stm32f4xx_hal_can.c:433:28
	ldr	r0, [r1]
	bic	r0, r0, #4
	str	r0, [r1]
	b	.LBB0_32
.Ltmp39:
.LBB0_32:
	.loc	6 437 40 is_stmt 1              @ ../Drivers/STM32F4xx_HAL_Driver/Src/stm32f4xx_hal_can.c:437:40
	ldr	r3, [sp, #8]
	.loc	6 437 11 is_stmt 0              @ ../Drivers/STM32F4xx_HAL_Driver/Src/stm32f4xx_hal_can.c:437:11
	ldr	r1, [r3]
	.loc	6 437 141                       @ ../Drivers/STM32F4xx_HAL_Driver/Src/stm32f4xx_hal_can.c:437:141
	ldr	r2, [r3, #4]
	.loc	6 437 51                        @ ../Drivers/STM32F4xx_HAL_Driver/Src/stm32f4xx_hal_can.c:437:51
	ldr	r0, [r3, #8]
	.loc	6 437 69                        @ ../Drivers/STM32F4xx_HAL_Driver/Src/stm32f4xx_hal_can.c:437:69
	ldr.w	r12, [r3, #12]
	.loc	6 437 56                        @ ../Drivers/STM32F4xx_HAL_Driver/Src/stm32f4xx_hal_can.c:437:56
	orr.w	r0, r0, r12
	.loc	6 437 96                        @ ../Drivers/STM32F4xx_HAL_Driver/Src/stm32f4xx_hal_can.c:437:96
	ldr.w	r12, [r3, #16]
	.loc	6 437 83                        @ ../Drivers/STM32F4xx_HAL_Driver/Src/stm32f4xx_hal_can.c:437:83
	orr.w	r0, r0, r12
	.loc	6 437 118                       @ ../Drivers/STM32F4xx_HAL_Driver/Src/stm32f4xx_hal_can.c:437:118
	ldr	r3, [r3, #20]
	.loc	6 437 105                       @ ../Drivers/STM32F4xx_HAL_Driver/Src/stm32f4xx_hal_can.c:437:105
	orrs	r0, r3
	.loc	6 437 151                       @ ../Drivers/STM32F4xx_HAL_Driver/Src/stm32f4xx_hal_can.c:437:151
	subs	r2, #1
	.loc	6 437 127                       @ ../Drivers/STM32F4xx_HAL_Driver/Src/stm32f4xx_hal_can.c:437:127
	orrs	r0, r2
	.loc	6 437 26                        @ ../Drivers/STM32F4xx_HAL_Driver/Src/stm32f4xx_hal_can.c:437:26
	str	r0, [r1, #28]
	.loc	6 444 3 is_stmt 1               @ ../Drivers/STM32F4xx_HAL_Driver/Src/stm32f4xx_hal_can.c:444:3
	ldr	r1, [sp, #8]
	movs	r0, #0
	.loc	6 444 19 is_stmt 0              @ ../Drivers/STM32F4xx_HAL_Driver/Src/stm32f4xx_hal_can.c:444:19
	str	r0, [r1, #36]
	.loc	6 447 3 is_stmt 1               @ ../Drivers/STM32F4xx_HAL_Driver/Src/stm32f4xx_hal_can.c:447:3
	ldr	r2, [sp, #8]
	movs	r1, #1
	.loc	6 447 15 is_stmt 0              @ ../Drivers/STM32F4xx_HAL_Driver/Src/stm32f4xx_hal_can.c:447:15
	strb.w	r1, [r2, #32]
	.loc	6 450 3 is_stmt 1               @ ../Drivers/STM32F4xx_HAL_Driver/Src/stm32f4xx_hal_can.c:450:3
	strb.w	r0, [sp, #15]
	b	.LBB0_33
.LBB0_33:
	.loc	6 451 1                         @ ../Drivers/STM32F4xx_HAL_Driver/Src/stm32f4xx_hal_can.c:451:1
	ldrb.w	r0, [sp, #15]
	add	sp, #16
	pop	{r7, pc}
.Ltmp40:
.Lfunc_end0:
	.size	HAL_CAN_Init, .Lfunc_end0-HAL_CAN_Init
	.cfi_endproc
	.cantunwind
	.fnend
                                        @ -- End function
	.section	.text.HAL_CAN_MspInit,"ax",%progbits
	.hidden	HAL_CAN_MspInit                 @ -- Begin function HAL_CAN_MspInit
	.weak	HAL_CAN_MspInit
	.p2align	2
	.type	HAL_CAN_MspInit,%function
	.code	16                              @ @HAL_CAN_MspInit
	.thumb_func
HAL_CAN_MspInit:
.Lfunc_begin1:
	.loc	6 508 0                         @ ../Drivers/STM32F4xx_HAL_Driver/Src/stm32f4xx_hal_can.c:508:0
	.fnstart
	.cfi_startproc
@ %bb.0:
	.pad	#4
	sub	sp, #4
	.cfi_def_cfa_offset 4
	str	r0, [sp]
.Ltmp41:
	.loc	6 515 1 prologue_end            @ ../Drivers/STM32F4xx_HAL_Driver/Src/stm32f4xx_hal_can.c:515:1
	add	sp, #4
	bx	lr
.Ltmp42:
.Lfunc_end1:
	.size	HAL_CAN_MspInit, .Lfunc_end1-HAL_CAN_MspInit
	.cfi_endproc
	.cantunwind
	.fnend
                                        @ -- End function
	.section	.text.HAL_CAN_DeInit,"ax",%progbits
	.hidden	HAL_CAN_DeInit                  @ -- Begin function HAL_CAN_DeInit
	.globl	HAL_CAN_DeInit
	.p2align	2
	.type	HAL_CAN_DeInit,%function
	.code	16                              @ @HAL_CAN_DeInit
	.thumb_func
HAL_CAN_DeInit:
.Lfunc_begin2:
	.loc	6 461 0                         @ ../Drivers/STM32F4xx_HAL_Driver/Src/stm32f4xx_hal_can.c:461:0
	.fnstart
	.cfi_startproc
@ %bb.0:
	.save	{r7, lr}
	push	{r7, lr}
	.cfi_def_cfa_offset 8
	.cfi_offset lr, -4
	.cfi_offset r7, -8
	.pad	#8
	sub	sp, #8
	.cfi_def_cfa_offset 16
	str	r0, [sp]
.Ltmp43:
	.loc	6 463 7 prologue_end            @ ../Drivers/STM32F4xx_HAL_Driver/Src/stm32f4xx_hal_can.c:463:7
	ldr	r0, [sp]
.Ltmp44:
	.loc	6 463 7 is_stmt 0               @ ../Drivers/STM32F4xx_HAL_Driver/Src/stm32f4xx_hal_can.c:463:7
	cbnz	r0, .LBB2_2
	b	.LBB2_1
.LBB2_1:
	.loc	6 0 7                           @ ../Drivers/STM32F4xx_HAL_Driver/Src/stm32f4xx_hal_can.c:0:7
	movs	r0, #1
.Ltmp45:
	.loc	6 465 5 is_stmt 1               @ ../Drivers/STM32F4xx_HAL_Driver/Src/stm32f4xx_hal_can.c:465:5
	strb.w	r0, [sp, #7]
	b	.LBB2_3
.Ltmp46:
.LBB2_2:
	.loc	6 472 22                        @ ../Drivers/STM32F4xx_HAL_Driver/Src/stm32f4xx_hal_can.c:472:22
	ldr	r0, [sp]
	.loc	6 472 9 is_stmt 0               @ ../Drivers/STM32F4xx_HAL_Driver/Src/stm32f4xx_hal_can.c:472:9
	bl	HAL_CAN_Stop
	.loc	6 485 21 is_stmt 1              @ ../Drivers/STM32F4xx_HAL_Driver/Src/stm32f4xx_hal_can.c:485:21
	ldr	r0, [sp]
	.loc	6 485 3 is_stmt 0               @ ../Drivers/STM32F4xx_HAL_Driver/Src/stm32f4xx_hal_can.c:485:3
	bl	HAL_CAN_MspDeInit
	.loc	6 489 5 is_stmt 1               @ ../Drivers/STM32F4xx_HAL_Driver/Src/stm32f4xx_hal_can.c:489:5
	ldr	r0, [sp]
	.loc	6 489 11 is_stmt 0              @ ../Drivers/STM32F4xx_HAL_Driver/Src/stm32f4xx_hal_can.c:489:11
	ldr	r1, [r0]
	.loc	6 489 26                        @ ../Drivers/STM32F4xx_HAL_Driver/Src/stm32f4xx_hal_can.c:489:26
	ldr	r0, [r1]
	orr	r0, r0, #32768
	str	r0, [r1]
	.loc	6 492 3 is_stmt 1               @ ../Drivers/STM32F4xx_HAL_Driver/Src/stm32f4xx_hal_can.c:492:3
	ldr	r1, [sp]
	movs	r0, #0
	.loc	6 492 19 is_stmt 0              @ ../Drivers/STM32F4xx_HAL_Driver/Src/stm32f4xx_hal_can.c:492:19
	str	r0, [r1, #36]
	.loc	6 495 3 is_stmt 1               @ ../Drivers/STM32F4xx_HAL_Driver/Src/stm32f4xx_hal_can.c:495:3
	ldr	r1, [sp]
	.loc	6 495 15 is_stmt 0              @ ../Drivers/STM32F4xx_HAL_Driver/Src/stm32f4xx_hal_can.c:495:15
	strb.w	r0, [r1, #32]
	.loc	6 498 3 is_stmt 1               @ ../Drivers/STM32F4xx_HAL_Driver/Src/stm32f4xx_hal_can.c:498:3
	strb.w	r0, [sp, #7]
	b	.LBB2_3
.LBB2_3:
	.loc	6 499 1                         @ ../Drivers/STM32F4xx_HAL_Driver/Src/stm32f4xx_hal_can.c:499:1
	ldrb.w	r0, [sp, #7]
	add	sp, #8
	pop	{r7, pc}
.Ltmp47:
.Lfunc_end2:
	.size	HAL_CAN_DeInit, .Lfunc_end2-HAL_CAN_DeInit
	.cfi_endproc
	.cantunwind
	.fnend
                                        @ -- End function
	.section	.text.HAL_CAN_Stop,"ax",%progbits
	.hidden	HAL_CAN_Stop                    @ -- Begin function HAL_CAN_Stop
	.globl	HAL_CAN_Stop
	.p2align	2
	.type	HAL_CAN_Stop,%function
	.code	16                              @ @HAL_CAN_Stop
	.thumb_func
HAL_CAN_Stop:
.Lfunc_begin3:
	.loc	6 1089 0                        @ ../Drivers/STM32F4xx_HAL_Driver/Src/stm32f4xx_hal_can.c:1089:0
	.fnstart
	.cfi_startproc
@ %bb.0:
	.save	{r7, lr}
	push	{r7, lr}
	.cfi_def_cfa_offset 8
	.cfi_offset lr, -4
	.cfi_offset r7, -8
	.pad	#16
	sub	sp, #16
	.cfi_def_cfa_offset 24
	str	r0, [sp, #8]
.Ltmp48:
	.loc	6 1092 7 prologue_end           @ ../Drivers/STM32F4xx_HAL_Driver/Src/stm32f4xx_hal_can.c:1092:7
	ldr	r0, [sp, #8]
	.loc	6 1092 13 is_stmt 0             @ ../Drivers/STM32F4xx_HAL_Driver/Src/stm32f4xx_hal_can.c:1092:13
	ldrb.w	r0, [r0, #32]
.Ltmp49:
	.loc	6 1092 7                        @ ../Drivers/STM32F4xx_HAL_Driver/Src/stm32f4xx_hal_can.c:1092:7
	cmp	r0, #2
	bne	.LBB3_7
	b	.LBB3_1
.LBB3_1:
.Ltmp50:
	.loc	6 1095 7 is_stmt 1              @ ../Drivers/STM32F4xx_HAL_Driver/Src/stm32f4xx_hal_can.c:1095:7
	ldr	r0, [sp, #8]
	.loc	6 1095 13 is_stmt 0             @ ../Drivers/STM32F4xx_HAL_Driver/Src/stm32f4xx_hal_can.c:1095:13
	ldr	r1, [r0]
	.loc	6 1095 28                       @ ../Drivers/STM32F4xx_HAL_Driver/Src/stm32f4xx_hal_can.c:1095:28
	ldr	r0, [r1]
	orr	r0, r0, #1
	str	r0, [r1]
	.loc	6 1098 17 is_stmt 1             @ ../Drivers/STM32F4xx_HAL_Driver/Src/stm32f4xx_hal_can.c:1098:17
	bl	HAL_GetTick
	.loc	6 1098 15 is_stmt 0             @ ../Drivers/STM32F4xx_HAL_Driver/Src/stm32f4xx_hal_can.c:1098:15
	str	r0, [sp, #4]
	.loc	6 1101 5 is_stmt 1              @ ../Drivers/STM32F4xx_HAL_Driver/Src/stm32f4xx_hal_can.c:1101:5
	b	.LBB3_2
.LBB3_2:                                @ =>This Inner Loop Header: Depth=1
	.loc	6 1101 13 is_stmt 0             @ ../Drivers/STM32F4xx_HAL_Driver/Src/stm32f4xx_hal_can.c:1101:13
	ldr	r0, [sp, #8]
	.loc	6 1101 19                       @ ../Drivers/STM32F4xx_HAL_Driver/Src/stm32f4xx_hal_can.c:1101:19
	ldr	r0, [r0]
	.loc	6 1101 29                       @ ../Drivers/STM32F4xx_HAL_Driver/Src/stm32f4xx_hal_can.c:1101:29
	ldr	r0, [r0, #4]
	.loc	6 1101 5                        @ ../Drivers/STM32F4xx_HAL_Driver/Src/stm32f4xx_hal_can.c:1101:5
	lsls	r0, r0, #31
	cbnz	r0, .LBB3_6
	b	.LBB3_3
.LBB3_3:                                @   in Loop: Header=BB3_2 Depth=1
.Ltmp51:
	.loc	6 1104 12 is_stmt 1             @ ../Drivers/STM32F4xx_HAL_Driver/Src/stm32f4xx_hal_can.c:1104:12
	bl	HAL_GetTick
	.loc	6 1104 28 is_stmt 0             @ ../Drivers/STM32F4xx_HAL_Driver/Src/stm32f4xx_hal_can.c:1104:28
	ldr	r1, [sp, #4]
	.loc	6 1104 26                       @ ../Drivers/STM32F4xx_HAL_Driver/Src/stm32f4xx_hal_can.c:1104:26
	subs	r0, r0, r1
.Ltmp52:
	.loc	6 1104 11                       @ ../Drivers/STM32F4xx_HAL_Driver/Src/stm32f4xx_hal_can.c:1104:11
	cmp	r0, #11
	blo	.LBB3_5
	b	.LBB3_4
.LBB3_4:
.Ltmp53:
	.loc	6 1107 9 is_stmt 1              @ ../Drivers/STM32F4xx_HAL_Driver/Src/stm32f4xx_hal_can.c:1107:9
	ldr	r1, [sp, #8]
	.loc	6 1107 25 is_stmt 0             @ ../Drivers/STM32F4xx_HAL_Driver/Src/stm32f4xx_hal_can.c:1107:25
	ldr	r0, [r1, #36]
	orr	r0, r0, #131072
	str	r0, [r1, #36]
	.loc	6 1110 9 is_stmt 1              @ ../Drivers/STM32F4xx_HAL_Driver/Src/stm32f4xx_hal_can.c:1110:9
	ldr	r1, [sp, #8]
	movs	r0, #5
	.loc	6 1110 21 is_stmt 0             @ ../Drivers/STM32F4xx_HAL_Driver/Src/stm32f4xx_hal_can.c:1110:21
	strb.w	r0, [r1, #32]
	movs	r0, #1
	.loc	6 1112 9 is_stmt 1              @ ../Drivers/STM32F4xx_HAL_Driver/Src/stm32f4xx_hal_can.c:1112:9
	strb.w	r0, [sp, #15]
	b	.LBB3_8
.Ltmp54:
.LBB3_5:                                @   in Loop: Header=BB3_2 Depth=1
	.loc	6 1101 5                        @ ../Drivers/STM32F4xx_HAL_Driver/Src/stm32f4xx_hal_can.c:1101:5
	b	.LBB3_2
.LBB3_6:
	.loc	6 1117 7                        @ ../Drivers/STM32F4xx_HAL_Driver/Src/stm32f4xx_hal_can.c:1117:7
	ldr	r0, [sp, #8]
	.loc	6 1117 13 is_stmt 0             @ ../Drivers/STM32F4xx_HAL_Driver/Src/stm32f4xx_hal_can.c:1117:13
	ldr	r1, [r0]
	.loc	6 1117 28                       @ ../Drivers/STM32F4xx_HAL_Driver/Src/stm32f4xx_hal_can.c:1117:28
	ldr	r0, [r1]
	bic	r0, r0, #2
	str	r0, [r1]
	.loc	6 1120 5 is_stmt 1              @ ../Drivers/STM32F4xx_HAL_Driver/Src/stm32f4xx_hal_can.c:1120:5
	ldr	r1, [sp, #8]
	movs	r0, #1
	.loc	6 1120 17 is_stmt 0             @ ../Drivers/STM32F4xx_HAL_Driver/Src/stm32f4xx_hal_can.c:1120:17
	strb.w	r0, [r1, #32]
	movs	r0, #0
	.loc	6 1123 5 is_stmt 1              @ ../Drivers/STM32F4xx_HAL_Driver/Src/stm32f4xx_hal_can.c:1123:5
	strb.w	r0, [sp, #15]
	b	.LBB3_8
.Ltmp55:
.LBB3_7:
	.loc	6 1128 5                        @ ../Drivers/STM32F4xx_HAL_Driver/Src/stm32f4xx_hal_can.c:1128:5
	ldr	r1, [sp, #8]
	.loc	6 1128 21 is_stmt 0             @ ../Drivers/STM32F4xx_HAL_Driver/Src/stm32f4xx_hal_can.c:1128:21
	ldr	r0, [r1, #36]
	orr	r0, r0, #1048576
	str	r0, [r1, #36]
	movs	r0, #1
	.loc	6 1130 5 is_stmt 1              @ ../Drivers/STM32F4xx_HAL_Driver/Src/stm32f4xx_hal_can.c:1130:5
	strb.w	r0, [sp, #15]
	b	.LBB3_8
.Ltmp56:
.LBB3_8:
	.loc	6 1132 1                        @ ../Drivers/STM32F4xx_HAL_Driver/Src/stm32f4xx_hal_can.c:1132:1
	ldrb.w	r0, [sp, #15]
	add	sp, #16
	pop	{r7, pc}
.Ltmp57:
.Lfunc_end3:
	.size	HAL_CAN_Stop, .Lfunc_end3-HAL_CAN_Stop
	.cfi_endproc
	.cantunwind
	.fnend
                                        @ -- End function
	.section	.text.HAL_CAN_MspDeInit,"ax",%progbits
	.hidden	HAL_CAN_MspDeInit               @ -- Begin function HAL_CAN_MspDeInit
	.weak	HAL_CAN_MspDeInit
	.p2align	2
	.type	HAL_CAN_MspDeInit,%function
	.code	16                              @ @HAL_CAN_MspDeInit
	.thumb_func
HAL_CAN_MspDeInit:
.Lfunc_begin4:
	.loc	6 524 0                         @ ../Drivers/STM32F4xx_HAL_Driver/Src/stm32f4xx_hal_can.c:524:0
	.fnstart
	.cfi_startproc
@ %bb.0:
	.pad	#4
	sub	sp, #4
	.cfi_def_cfa_offset 4
	str	r0, [sp]
.Ltmp58:
	.loc	6 531 1 prologue_end            @ ../Drivers/STM32F4xx_HAL_Driver/Src/stm32f4xx_hal_can.c:531:1
	add	sp, #4
	bx	lr
.Ltmp59:
.Lfunc_end4:
	.size	HAL_CAN_MspDeInit, .Lfunc_end4-HAL_CAN_MspDeInit
	.cfi_endproc
	.cantunwind
	.fnend
                                        @ -- End function
	.section	.text.HAL_CAN_ConfigFilter,"ax",%progbits
	.hidden	HAL_CAN_ConfigFilter            @ -- Begin function HAL_CAN_ConfigFilter
	.globl	HAL_CAN_ConfigFilter
	.p2align	2
	.type	HAL_CAN_ConfigFilter,%function
	.code	16                              @ @HAL_CAN_ConfigFilter
	.thumb_func
HAL_CAN_ConfigFilter:
.Lfunc_begin5:
	.loc	6 841 0                         @ ../Drivers/STM32F4xx_HAL_Driver/Src/stm32f4xx_hal_can.c:841:0
	.fnstart
	.cfi_startproc
@ %bb.0:
	.pad	#24
	sub	sp, #24
	.cfi_def_cfa_offset 24
	str	r0, [sp, #16]
	str	r1, [sp, #12]
.Ltmp60:
	.loc	6 844 32 prologue_end           @ ../Drivers/STM32F4xx_HAL_Driver/Src/stm32f4xx_hal_can.c:844:32
	ldr	r0, [sp, #16]
	.loc	6 844 38 is_stmt 0              @ ../Drivers/STM32F4xx_HAL_Driver/Src/stm32f4xx_hal_can.c:844:38
	ldrb.w	r0, [r0, #32]
	.loc	6 844 24                        @ ../Drivers/STM32F4xx_HAL_Driver/Src/stm32f4xx_hal_can.c:844:24
	strb.w	r0, [sp, #3]
.Ltmp61:
	.loc	6 846 8 is_stmt 1               @ ../Drivers/STM32F4xx_HAL_Driver/Src/stm32f4xx_hal_can.c:846:8
	ldrb.w	r0, [sp, #3]
	.loc	6 846 38 is_stmt 0              @ ../Drivers/STM32F4xx_HAL_Driver/Src/stm32f4xx_hal_can.c:846:38
	cmp	r0, #1
	beq	.LBB5_2
	b	.LBB5_1
.LBB5_1:
	.loc	6 847 8 is_stmt 1               @ ../Drivers/STM32F4xx_HAL_Driver/Src/stm32f4xx_hal_can.c:847:8
	ldrb.w	r0, [sp, #3]
.Ltmp62:
	.loc	6 846 7                         @ ../Drivers/STM32F4xx_HAL_Driver/Src/stm32f4xx_hal_can.c:846:7
	cmp	r0, #2
	bne.w	.LBB5_15
	b	.LBB5_2
.LBB5_2:
	.loc	6 0 7 is_stmt 0                 @ ../Drivers/STM32F4xx_HAL_Driver/Src/stm32f4xx_hal_can.c:0:7
	movw	r0, #25600
	movt	r0, #16384
.Ltmp63:
	.loc	6 882 12 is_stmt 1              @ ../Drivers/STM32F4xx_HAL_Driver/Src/stm32f4xx_hal_can.c:882:12
	str	r0, [sp, #4]
	.loc	6 896 7                         @ ../Drivers/STM32F4xx_HAL_Driver/Src/stm32f4xx_hal_can.c:896:7
	ldr	r1, [sp, #4]
	.loc	6 896 20 is_stmt 0              @ ../Drivers/STM32F4xx_HAL_Driver/Src/stm32f4xx_hal_can.c:896:20
	ldr.w	r0, [r1, #512]
	orr	r0, r0, #1
	str.w	r0, [r1, #512]
	.loc	6 909 7 is_stmt 1               @ ../Drivers/STM32F4xx_HAL_Driver/Src/stm32f4xx_hal_can.c:909:7
	ldr	r1, [sp, #4]
	.loc	6 909 20 is_stmt 0              @ ../Drivers/STM32F4xx_HAL_Driver/Src/stm32f4xx_hal_can.c:909:20
	ldr.w	r0, [r1, #512]
	bic	r0, r0, #16128
	str.w	r0, [r1, #512]
	.loc	6 910 24 is_stmt 1              @ ../Drivers/STM32F4xx_HAL_Driver/Src/stm32f4xx_hal_can.c:910:24
	ldr	r0, [sp, #12]
	.loc	6 910 39 is_stmt 0              @ ../Drivers/STM32F4xx_HAL_Driver/Src/stm32f4xx_hal_can.c:910:39
	ldr	r2, [r0, #36]
	.loc	6 910 7                         @ ../Drivers/STM32F4xx_HAL_Driver/Src/stm32f4xx_hal_can.c:910:7
	ldr	r1, [sp, #4]
	.loc	6 910 20                        @ ../Drivers/STM32F4xx_HAL_Driver/Src/stm32f4xx_hal_can.c:910:20
	ldr.w	r0, [r1, #512]
	orr.w	r0, r0, r2, lsl #8
	str.w	r0, [r1, #512]
	.loc	6 914 39 is_stmt 1              @ ../Drivers/STM32F4xx_HAL_Driver/Src/stm32f4xx_hal_can.c:914:39
	ldr	r0, [sp, #12]
	.loc	6 914 54 is_stmt 0              @ ../Drivers/STM32F4xx_HAL_Driver/Src/stm32f4xx_hal_can.c:914:54
	ldr	r0, [r0, #20]
	.loc	6 914 65                        @ ../Drivers/STM32F4xx_HAL_Driver/Src/stm32f4xx_hal_can.c:914:65
	and	r1, r0, #31
	movs	r0, #1
	.loc	6 914 35                        @ ../Drivers/STM32F4xx_HAL_Driver/Src/stm32f4xx_hal_can.c:914:35
	lsls	r0, r1
	.loc	6 914 21                        @ ../Drivers/STM32F4xx_HAL_Driver/Src/stm32f4xx_hal_can.c:914:21
	str	r0, [sp, #8]
	.loc	6 917 26 is_stmt 1              @ ../Drivers/STM32F4xx_HAL_Driver/Src/stm32f4xx_hal_can.c:917:26
	ldr	r2, [sp, #8]
	.loc	6 917 7 is_stmt 0               @ ../Drivers/STM32F4xx_HAL_Driver/Src/stm32f4xx_hal_can.c:917:7
	ldr	r1, [sp, #4]
	.loc	6 917 21                        @ ../Drivers/STM32F4xx_HAL_Driver/Src/stm32f4xx_hal_can.c:917:21
	ldr.w	r0, [r1, #540]
	bics	r0, r2
	str.w	r0, [r1, #540]
.Ltmp64:
	.loc	6 920 9 is_stmt 1               @ ../Drivers/STM32F4xx_HAL_Driver/Src/stm32f4xx_hal_can.c:920:9
	ldr	r0, [sp, #12]
	.loc	6 920 24 is_stmt 0              @ ../Drivers/STM32F4xx_HAL_Driver/Src/stm32f4xx_hal_can.c:920:24
	ldr	r0, [r0, #28]
.Ltmp65:
	.loc	6 920 9                         @ ../Drivers/STM32F4xx_HAL_Driver/Src/stm32f4xx_hal_can.c:920:9
	cbnz	r0, .LBB5_4
	b	.LBB5_3
.LBB5_3:
.Ltmp66:
	.loc	6 923 28 is_stmt 1              @ ../Drivers/STM32F4xx_HAL_Driver/Src/stm32f4xx_hal_can.c:923:28
	ldr	r2, [sp, #8]
	.loc	6 923 9 is_stmt 0               @ ../Drivers/STM32F4xx_HAL_Driver/Src/stm32f4xx_hal_can.c:923:9
	ldr	r1, [sp, #4]
	.loc	6 923 23                        @ ../Drivers/STM32F4xx_HAL_Driver/Src/stm32f4xx_hal_can.c:923:23
	ldr.w	r0, [r1, #524]
	bics	r0, r2
	str.w	r0, [r1, #524]
	.loc	6 928 35 is_stmt 1              @ ../Drivers/STM32F4xx_HAL_Driver/Src/stm32f4xx_hal_can.c:928:35
	ldr	r2, [sp, #12]
	.loc	6 929 49                        @ ../Drivers/STM32F4xx_HAL_Driver/Src/stm32f4xx_hal_can.c:929:49
	ldrh	r0, [r2, #4]
	.loc	6 928 50                        @ ../Drivers/STM32F4xx_HAL_Driver/Src/stm32f4xx_hal_can.c:928:50
	ldr	r1, [r2, #12]
	.loc	6 927 46                        @ ../Drivers/STM32F4xx_HAL_Driver/Src/stm32f4xx_hal_can.c:927:46
	ldr	r2, [r2, #20]
	.loc	6 928 75                        @ ../Drivers/STM32F4xx_HAL_Driver/Src/stm32f4xx_hal_can.c:928:75
	orr.w	r0, r0, r1, lsl #16
	.loc	6 927 7                         @ ../Drivers/STM32F4xx_HAL_Driver/Src/stm32f4xx_hal_can.c:927:7
	ldr	r1, [sp, #4]
	.loc	6 927 15 is_stmt 0              @ ../Drivers/STM32F4xx_HAL_Driver/Src/stm32f4xx_hal_can.c:927:15
	add.w	r1, r1, r2, lsl #3
	.loc	6 927 62                        @ ../Drivers/STM32F4xx_HAL_Driver/Src/stm32f4xx_hal_can.c:927:62
	str.w	r0, [r1, #576]
	.loc	6 934 35 is_stmt 1              @ ../Drivers/STM32F4xx_HAL_Driver/Src/stm32f4xx_hal_can.c:934:35
	ldr	r2, [sp, #12]
	.loc	6 935 49                        @ ../Drivers/STM32F4xx_HAL_Driver/Src/stm32f4xx_hal_can.c:935:49
	ldrh	r0, [r2]
	.loc	6 934 50                        @ ../Drivers/STM32F4xx_HAL_Driver/Src/stm32f4xx_hal_can.c:934:50
	ldr	r1, [r2, #8]
	.loc	6 933 46                        @ ../Drivers/STM32F4xx_HAL_Driver/Src/stm32f4xx_hal_can.c:933:46
	ldr	r2, [r2, #20]
	.loc	6 934 76                        @ ../Drivers/STM32F4xx_HAL_Driver/Src/stm32f4xx_hal_can.c:934:76
	orr.w	r0, r0, r1, lsl #16
	.loc	6 933 7                         @ ../Drivers/STM32F4xx_HAL_Driver/Src/stm32f4xx_hal_can.c:933:7
	ldr	r1, [sp, #4]
	.loc	6 933 15 is_stmt 0              @ ../Drivers/STM32F4xx_HAL_Driver/Src/stm32f4xx_hal_can.c:933:15
	add.w	r1, r1, r2, lsl #3
	.loc	6 933 62                        @ ../Drivers/STM32F4xx_HAL_Driver/Src/stm32f4xx_hal_can.c:933:62
	str.w	r0, [r1, #580]
	.loc	6 936 5 is_stmt 1               @ ../Drivers/STM32F4xx_HAL_Driver/Src/stm32f4xx_hal_can.c:936:5
	b	.LBB5_4
.Ltmp67:
.LBB5_4:
	.loc	6 938 9                         @ ../Drivers/STM32F4xx_HAL_Driver/Src/stm32f4xx_hal_can.c:938:9
	ldr	r0, [sp, #12]
	.loc	6 938 24 is_stmt 0              @ ../Drivers/STM32F4xx_HAL_Driver/Src/stm32f4xx_hal_can.c:938:24
	ldr	r0, [r0, #28]
.Ltmp68:
	.loc	6 938 9                         @ ../Drivers/STM32F4xx_HAL_Driver/Src/stm32f4xx_hal_can.c:938:9
	cmp	r0, #1
	bne	.LBB5_6
	b	.LBB5_5
.LBB5_5:
.Ltmp69:
	.loc	6 941 27 is_stmt 1              @ ../Drivers/STM32F4xx_HAL_Driver/Src/stm32f4xx_hal_can.c:941:27
	ldr	r2, [sp, #8]
	.loc	6 941 9 is_stmt 0               @ ../Drivers/STM32F4xx_HAL_Driver/Src/stm32f4xx_hal_can.c:941:9
	ldr	r1, [sp, #4]
	.loc	6 941 23                        @ ../Drivers/STM32F4xx_HAL_Driver/Src/stm32f4xx_hal_can.c:941:23
	ldr.w	r0, [r1, #524]
	orrs	r0, r2
	str.w	r0, [r1, #524]
	.loc	6 945 35 is_stmt 1              @ ../Drivers/STM32F4xx_HAL_Driver/Src/stm32f4xx_hal_can.c:945:35
	ldr	r2, [sp, #12]
	.loc	6 946 49                        @ ../Drivers/STM32F4xx_HAL_Driver/Src/stm32f4xx_hal_can.c:946:49
	ldrh	r0, [r2, #4]
	.loc	6 945 50                        @ ../Drivers/STM32F4xx_HAL_Driver/Src/stm32f4xx_hal_can.c:945:50
	ldr	r1, [r2]
	.loc	6 944 46                        @ ../Drivers/STM32F4xx_HAL_Driver/Src/stm32f4xx_hal_can.c:944:46
	ldr	r2, [r2, #20]
	.loc	6 945 72                        @ ../Drivers/STM32F4xx_HAL_Driver/Src/stm32f4xx_hal_can.c:945:72
	orr.w	r0, r0, r1, lsl #16
	.loc	6 944 7                         @ ../Drivers/STM32F4xx_HAL_Driver/Src/stm32f4xx_hal_can.c:944:7
	ldr	r1, [sp, #4]
	.loc	6 944 15 is_stmt 0              @ ../Drivers/STM32F4xx_HAL_Driver/Src/stm32f4xx_hal_can.c:944:15
	add.w	r1, r1, r2, lsl #3
	.loc	6 944 62                        @ ../Drivers/STM32F4xx_HAL_Driver/Src/stm32f4xx_hal_can.c:944:62
	str.w	r0, [r1, #576]
	.loc	6 950 35 is_stmt 1              @ ../Drivers/STM32F4xx_HAL_Driver/Src/stm32f4xx_hal_can.c:950:35
	ldr	r2, [sp, #12]
	.loc	6 951 49                        @ ../Drivers/STM32F4xx_HAL_Driver/Src/stm32f4xx_hal_can.c:951:49
	ldrh	r0, [r2, #12]
	.loc	6 950 50                        @ ../Drivers/STM32F4xx_HAL_Driver/Src/stm32f4xx_hal_can.c:950:50
	ldr	r1, [r2, #8]
	.loc	6 949 46                        @ ../Drivers/STM32F4xx_HAL_Driver/Src/stm32f4xx_hal_can.c:949:46
	ldr	r2, [r2, #20]
	.loc	6 950 76                        @ ../Drivers/STM32F4xx_HAL_Driver/Src/stm32f4xx_hal_can.c:950:76
	orr.w	r0, r0, r1, lsl #16
	.loc	6 949 7                         @ ../Drivers/STM32F4xx_HAL_Driver/Src/stm32f4xx_hal_can.c:949:7
	ldr	r1, [sp, #4]
	.loc	6 949 15 is_stmt 0              @ ../Drivers/STM32F4xx_HAL_Driver/Src/stm32f4xx_hal_can.c:949:15
	add.w	r1, r1, r2, lsl #3
	.loc	6 949 62                        @ ../Drivers/STM32F4xx_HAL_Driver/Src/stm32f4xx_hal_can.c:949:62
	str.w	r0, [r1, #580]
	.loc	6 952 5 is_stmt 1               @ ../Drivers/STM32F4xx_HAL_Driver/Src/stm32f4xx_hal_can.c:952:5
	b	.LBB5_6
.Ltmp70:
.LBB5_6:
	.loc	6 955 9                         @ ../Drivers/STM32F4xx_HAL_Driver/Src/stm32f4xx_hal_can.c:955:9
	ldr	r0, [sp, #12]
	.loc	6 955 24 is_stmt 0              @ ../Drivers/STM32F4xx_HAL_Driver/Src/stm32f4xx_hal_can.c:955:24
	ldr	r0, [r0, #24]
.Ltmp71:
	.loc	6 955 9                         @ ../Drivers/STM32F4xx_HAL_Driver/Src/stm32f4xx_hal_can.c:955:9
	cbnz	r0, .LBB5_8
	b	.LBB5_7
.LBB5_7:
.Ltmp72:
	.loc	6 958 28 is_stmt 1              @ ../Drivers/STM32F4xx_HAL_Driver/Src/stm32f4xx_hal_can.c:958:28
	ldr	r2, [sp, #8]
	.loc	6 958 9 is_stmt 0               @ ../Drivers/STM32F4xx_HAL_Driver/Src/stm32f4xx_hal_can.c:958:9
	ldr	r1, [sp, #4]
	.loc	6 958 23                        @ ../Drivers/STM32F4xx_HAL_Driver/Src/stm32f4xx_hal_can.c:958:23
	ldr.w	r0, [r1, #516]
	bics	r0, r2
	str.w	r0, [r1, #516]
	.loc	6 959 5 is_stmt 1               @ ../Drivers/STM32F4xx_HAL_Driver/Src/stm32f4xx_hal_can.c:959:5
	b	.LBB5_9
.Ltmp73:
.LBB5_8:
	.loc	6 963 27                        @ ../Drivers/STM32F4xx_HAL_Driver/Src/stm32f4xx_hal_can.c:963:27
	ldr	r2, [sp, #8]
	.loc	6 963 9 is_stmt 0               @ ../Drivers/STM32F4xx_HAL_Driver/Src/stm32f4xx_hal_can.c:963:9
	ldr	r1, [sp, #4]
	.loc	6 963 23                        @ ../Drivers/STM32F4xx_HAL_Driver/Src/stm32f4xx_hal_can.c:963:23
	ldr.w	r0, [r1, #516]
	orrs	r0, r2
	str.w	r0, [r1, #516]
	b	.LBB5_9
.Ltmp74:
.LBB5_9:
	.loc	6 967 9 is_stmt 1               @ ../Drivers/STM32F4xx_HAL_Driver/Src/stm32f4xx_hal_can.c:967:9
	ldr	r0, [sp, #12]
	.loc	6 967 24 is_stmt 0              @ ../Drivers/STM32F4xx_HAL_Driver/Src/stm32f4xx_hal_can.c:967:24
	ldr	r0, [r0, #16]
.Ltmp75:
	.loc	6 967 9                         @ ../Drivers/STM32F4xx_HAL_Driver/Src/stm32f4xx_hal_can.c:967:9
	cbnz	r0, .LBB5_11
	b	.LBB5_10
.LBB5_10:
.Ltmp76:
	.loc	6 970 29 is_stmt 1              @ ../Drivers/STM32F4xx_HAL_Driver/Src/stm32f4xx_hal_can.c:970:29
	ldr	r2, [sp, #8]
	.loc	6 970 9 is_stmt 0               @ ../Drivers/STM32F4xx_HAL_Driver/Src/stm32f4xx_hal_can.c:970:9
	ldr	r1, [sp, #4]
	.loc	6 970 24                        @ ../Drivers/STM32F4xx_HAL_Driver/Src/stm32f4xx_hal_can.c:970:24
	ldr.w	r0, [r1, #532]
	bics	r0, r2
	str.w	r0, [r1, #532]
	.loc	6 971 5 is_stmt 1               @ ../Drivers/STM32F4xx_HAL_Driver/Src/stm32f4xx_hal_can.c:971:5
	b	.LBB5_12
.Ltmp77:
.LBB5_11:
	.loc	6 975 28                        @ ../Drivers/STM32F4xx_HAL_Driver/Src/stm32f4xx_hal_can.c:975:28
	ldr	r2, [sp, #8]
	.loc	6 975 9 is_stmt 0               @ ../Drivers/STM32F4xx_HAL_Driver/Src/stm32f4xx_hal_can.c:975:9
	ldr	r1, [sp, #4]
	.loc	6 975 24                        @ ../Drivers/STM32F4xx_HAL_Driver/Src/stm32f4xx_hal_can.c:975:24
	ldr.w	r0, [r1, #532]
	orrs	r0, r2
	str.w	r0, [r1, #532]
	b	.LBB5_12
.Ltmp78:
.LBB5_12:
	.loc	6 979 9 is_stmt 1               @ ../Drivers/STM32F4xx_HAL_Driver/Src/stm32f4xx_hal_can.c:979:9
	ldr	r0, [sp, #12]
	.loc	6 979 24 is_stmt 0              @ ../Drivers/STM32F4xx_HAL_Driver/Src/stm32f4xx_hal_can.c:979:24
	ldr	r0, [r0, #32]
.Ltmp79:
	.loc	6 979 9                         @ ../Drivers/STM32F4xx_HAL_Driver/Src/stm32f4xx_hal_can.c:979:9
	cmp	r0, #1
	bne	.LBB5_14
	b	.LBB5_13
.LBB5_13:
.Ltmp80:
	.loc	6 981 27 is_stmt 1              @ ../Drivers/STM32F4xx_HAL_Driver/Src/stm32f4xx_hal_can.c:981:27
	ldr	r2, [sp, #8]
	.loc	6 981 9 is_stmt 0               @ ../Drivers/STM32F4xx_HAL_Driver/Src/stm32f4xx_hal_can.c:981:9
	ldr	r1, [sp, #4]
	.loc	6 981 23                        @ ../Drivers/STM32F4xx_HAL_Driver/Src/stm32f4xx_hal_can.c:981:23
	ldr.w	r0, [r1, #540]
	orrs	r0, r2
	str.w	r0, [r1, #540]
	.loc	6 982 5 is_stmt 1               @ ../Drivers/STM32F4xx_HAL_Driver/Src/stm32f4xx_hal_can.c:982:5
	b	.LBB5_14
.Ltmp81:
.LBB5_14:
	.loc	6 985 7                         @ ../Drivers/STM32F4xx_HAL_Driver/Src/stm32f4xx_hal_can.c:985:7
	ldr	r1, [sp, #4]
	.loc	6 985 20 is_stmt 0              @ ../Drivers/STM32F4xx_HAL_Driver/Src/stm32f4xx_hal_can.c:985:20
	ldr.w	r0, [r1, #512]
	bic	r0, r0, #1
	str.w	r0, [r1, #512]
	movs	r0, #0
	.loc	6 988 5 is_stmt 1               @ ../Drivers/STM32F4xx_HAL_Driver/Src/stm32f4xx_hal_can.c:988:5
	strb.w	r0, [sp, #23]
	b	.LBB5_16
.Ltmp82:
.LBB5_15:
	.loc	6 993 5                         @ ../Drivers/STM32F4xx_HAL_Driver/Src/stm32f4xx_hal_can.c:993:5
	ldr	r1, [sp, #16]
	.loc	6 993 21 is_stmt 0              @ ../Drivers/STM32F4xx_HAL_Driver/Src/stm32f4xx_hal_can.c:993:21
	ldr	r0, [r1, #36]
	orr	r0, r0, #262144
	str	r0, [r1, #36]
	movs	r0, #1
	.loc	6 995 5 is_stmt 1               @ ../Drivers/STM32F4xx_HAL_Driver/Src/stm32f4xx_hal_can.c:995:5
	strb.w	r0, [sp, #23]
	b	.LBB5_16
.Ltmp83:
.LBB5_16:
	.loc	6 997 1                         @ ../Drivers/STM32F4xx_HAL_Driver/Src/stm32f4xx_hal_can.c:997:1
	ldrb.w	r0, [sp, #23]
	add	sp, #24
	bx	lr
.Ltmp84:
.Lfunc_end5:
	.size	HAL_CAN_ConfigFilter, .Lfunc_end5-HAL_CAN_ConfigFilter
	.cfi_endproc
	.cantunwind
	.fnend
                                        @ -- End function
	.section	.text.HAL_CAN_Start,"ax",%progbits
	.hidden	HAL_CAN_Start                   @ -- Begin function HAL_CAN_Start
	.globl	HAL_CAN_Start
	.p2align	2
	.type	HAL_CAN_Start,%function
	.code	16                              @ @HAL_CAN_Start
	.thumb_func
HAL_CAN_Start:
.Lfunc_begin6:
	.loc	6 1037 0                        @ ../Drivers/STM32F4xx_HAL_Driver/Src/stm32f4xx_hal_can.c:1037:0
	.fnstart
	.cfi_startproc
@ %bb.0:
	.save	{r7, lr}
	push	{r7, lr}
	.cfi_def_cfa_offset 8
	.cfi_offset lr, -4
	.cfi_offset r7, -8
	.pad	#16
	sub	sp, #16
	.cfi_def_cfa_offset 24
	str	r0, [sp, #8]
.Ltmp85:
	.loc	6 1040 7 prologue_end           @ ../Drivers/STM32F4xx_HAL_Driver/Src/stm32f4xx_hal_can.c:1040:7
	ldr	r0, [sp, #8]
	.loc	6 1040 13 is_stmt 0             @ ../Drivers/STM32F4xx_HAL_Driver/Src/stm32f4xx_hal_can.c:1040:13
	ldrb.w	r0, [r0, #32]
.Ltmp86:
	.loc	6 1040 7                        @ ../Drivers/STM32F4xx_HAL_Driver/Src/stm32f4xx_hal_can.c:1040:7
	cmp	r0, #1
	bne	.LBB6_7
	b	.LBB6_1
.LBB6_1:
.Ltmp87:
	.loc	6 1043 5 is_stmt 1              @ ../Drivers/STM32F4xx_HAL_Driver/Src/stm32f4xx_hal_can.c:1043:5
	ldr	r1, [sp, #8]
	movs	r0, #2
	.loc	6 1043 17 is_stmt 0             @ ../Drivers/STM32F4xx_HAL_Driver/Src/stm32f4xx_hal_can.c:1043:17
	strb.w	r0, [r1, #32]
	.loc	6 1046 7 is_stmt 1              @ ../Drivers/STM32F4xx_HAL_Driver/Src/stm32f4xx_hal_can.c:1046:7
	ldr	r0, [sp, #8]
	.loc	6 1046 13 is_stmt 0             @ ../Drivers/STM32F4xx_HAL_Driver/Src/stm32f4xx_hal_can.c:1046:13
	ldr	r1, [r0]
	.loc	6 1046 28                       @ ../Drivers/STM32F4xx_HAL_Driver/Src/stm32f4xx_hal_can.c:1046:28
	ldr	r0, [r1]
	bic	r0, r0, #1
	str	r0, [r1]
	.loc	6 1049 17 is_stmt 1             @ ../Drivers/STM32F4xx_HAL_Driver/Src/stm32f4xx_hal_can.c:1049:17
	bl	HAL_GetTick
	.loc	6 1049 15 is_stmt 0             @ ../Drivers/STM32F4xx_HAL_Driver/Src/stm32f4xx_hal_can.c:1049:15
	str	r0, [sp, #4]
	.loc	6 1052 5 is_stmt 1              @ ../Drivers/STM32F4xx_HAL_Driver/Src/stm32f4xx_hal_can.c:1052:5
	b	.LBB6_2
.LBB6_2:                                @ =>This Inner Loop Header: Depth=1
	.loc	6 1052 13 is_stmt 0             @ ../Drivers/STM32F4xx_HAL_Driver/Src/stm32f4xx_hal_can.c:1052:13
	ldr	r0, [sp, #8]
	.loc	6 1052 19                       @ ../Drivers/STM32F4xx_HAL_Driver/Src/stm32f4xx_hal_can.c:1052:19
	ldr	r0, [r0]
	.loc	6 1052 29                       @ ../Drivers/STM32F4xx_HAL_Driver/Src/stm32f4xx_hal_can.c:1052:29
	ldr	r0, [r0, #4]
	.loc	6 1052 5                        @ ../Drivers/STM32F4xx_HAL_Driver/Src/stm32f4xx_hal_can.c:1052:5
	lsls	r0, r0, #31
	cbz	r0, .LBB6_6
	b	.LBB6_3
.LBB6_3:                                @   in Loop: Header=BB6_2 Depth=1
.Ltmp88:
	.loc	6 1055 12 is_stmt 1             @ ../Drivers/STM32F4xx_HAL_Driver/Src/stm32f4xx_hal_can.c:1055:12
	bl	HAL_GetTick
	.loc	6 1055 28 is_stmt 0             @ ../Drivers/STM32F4xx_HAL_Driver/Src/stm32f4xx_hal_can.c:1055:28
	ldr	r1, [sp, #4]
	.loc	6 1055 26                       @ ../Drivers/STM32F4xx_HAL_Driver/Src/stm32f4xx_hal_can.c:1055:26
	subs	r0, r0, r1
.Ltmp89:
	.loc	6 1055 11                       @ ../Drivers/STM32F4xx_HAL_Driver/Src/stm32f4xx_hal_can.c:1055:11
	cmp	r0, #11
	blo	.LBB6_5
	b	.LBB6_4
.LBB6_4:
.Ltmp90:
	.loc	6 1058 9 is_stmt 1              @ ../Drivers/STM32F4xx_HAL_Driver/Src/stm32f4xx_hal_can.c:1058:9
	ldr	r1, [sp, #8]
	.loc	6 1058 25 is_stmt 0             @ ../Drivers/STM32F4xx_HAL_Driver/Src/stm32f4xx_hal_can.c:1058:25
	ldr	r0, [r1, #36]
	orr	r0, r0, #131072
	str	r0, [r1, #36]
	.loc	6 1061 9 is_stmt 1              @ ../Drivers/STM32F4xx_HAL_Driver/Src/stm32f4xx_hal_can.c:1061:9
	ldr	r1, [sp, #8]
	movs	r0, #5
	.loc	6 1061 21 is_stmt 0             @ ../Drivers/STM32F4xx_HAL_Driver/Src/stm32f4xx_hal_can.c:1061:21
	strb.w	r0, [r1, #32]
	movs	r0, #1
	.loc	6 1063 9 is_stmt 1              @ ../Drivers/STM32F4xx_HAL_Driver/Src/stm32f4xx_hal_can.c:1063:9
	strb.w	r0, [sp, #15]
	b	.LBB6_8
.Ltmp91:
.LBB6_5:                                @   in Loop: Header=BB6_2 Depth=1
	.loc	6 1052 5                        @ ../Drivers/STM32F4xx_HAL_Driver/Src/stm32f4xx_hal_can.c:1052:5
	b	.LBB6_2
.LBB6_6:
	.loc	6 1068 5                        @ ../Drivers/STM32F4xx_HAL_Driver/Src/stm32f4xx_hal_can.c:1068:5
	ldr	r1, [sp, #8]
	movs	r0, #0
	.loc	6 1068 21 is_stmt 0             @ ../Drivers/STM32F4xx_HAL_Driver/Src/stm32f4xx_hal_can.c:1068:21
	str	r0, [r1, #36]
	.loc	6 1071 5 is_stmt 1              @ ../Drivers/STM32F4xx_HAL_Driver/Src/stm32f4xx_hal_can.c:1071:5
	strb.w	r0, [sp, #15]
	b	.LBB6_8
.Ltmp92:
.LBB6_7:
	.loc	6 1076 5                        @ ../Drivers/STM32F4xx_HAL_Driver/Src/stm32f4xx_hal_can.c:1076:5
	ldr	r1, [sp, #8]
	.loc	6 1076 21 is_stmt 0             @ ../Drivers/STM32F4xx_HAL_Driver/Src/stm32f4xx_hal_can.c:1076:21
	ldr	r0, [r1, #36]
	orr	r0, r0, #524288
	str	r0, [r1, #36]
	movs	r0, #1
	.loc	6 1078 5 is_stmt 1              @ ../Drivers/STM32F4xx_HAL_Driver/Src/stm32f4xx_hal_can.c:1078:5
	strb.w	r0, [sp, #15]
	b	.LBB6_8
.Ltmp93:
.LBB6_8:
	.loc	6 1080 1                        @ ../Drivers/STM32F4xx_HAL_Driver/Src/stm32f4xx_hal_can.c:1080:1
	ldrb.w	r0, [sp, #15]
	add	sp, #16
	pop	{r7, pc}
.Ltmp94:
.Lfunc_end6:
	.size	HAL_CAN_Start, .Lfunc_end6-HAL_CAN_Start
	.cfi_endproc
	.cantunwind
	.fnend
                                        @ -- End function
	.section	.text.HAL_CAN_RequestSleep,"ax",%progbits
	.hidden	HAL_CAN_RequestSleep            @ -- Begin function HAL_CAN_RequestSleep
	.globl	HAL_CAN_RequestSleep
	.p2align	2
	.type	HAL_CAN_RequestSleep,%function
	.code	16                              @ @HAL_CAN_RequestSleep
	.thumb_func
HAL_CAN_RequestSleep:
.Lfunc_begin7:
	.loc	6 1144 0                        @ ../Drivers/STM32F4xx_HAL_Driver/Src/stm32f4xx_hal_can.c:1144:0
	.fnstart
	.cfi_startproc
@ %bb.0:
	.pad	#12
	sub	sp, #12
	.cfi_def_cfa_offset 12
	str	r0, [sp, #4]
.Ltmp95:
	.loc	6 1145 32 prologue_end          @ ../Drivers/STM32F4xx_HAL_Driver/Src/stm32f4xx_hal_can.c:1145:32
	ldr	r0, [sp, #4]
	.loc	6 1145 38 is_stmt 0             @ ../Drivers/STM32F4xx_HAL_Driver/Src/stm32f4xx_hal_can.c:1145:38
	ldrb.w	r0, [r0, #32]
	.loc	6 1145 24                       @ ../Drivers/STM32F4xx_HAL_Driver/Src/stm32f4xx_hal_can.c:1145:24
	strb.w	r0, [sp, #3]
.Ltmp96:
	.loc	6 1147 8 is_stmt 1              @ ../Drivers/STM32F4xx_HAL_Driver/Src/stm32f4xx_hal_can.c:1147:8
	ldrb.w	r0, [sp, #3]
	.loc	6 1147 38 is_stmt 0             @ ../Drivers/STM32F4xx_HAL_Driver/Src/stm32f4xx_hal_can.c:1147:38
	cmp	r0, #1
	beq	.LBB7_2
	b	.LBB7_1
.LBB7_1:
	.loc	6 1148 8 is_stmt 1              @ ../Drivers/STM32F4xx_HAL_Driver/Src/stm32f4xx_hal_can.c:1148:8
	ldrb.w	r0, [sp, #3]
.Ltmp97:
	.loc	6 1147 7                        @ ../Drivers/STM32F4xx_HAL_Driver/Src/stm32f4xx_hal_can.c:1147:7
	cmp	r0, #2
	bne	.LBB7_3
	b	.LBB7_2
.LBB7_2:
.Ltmp98:
	.loc	6 1151 7                        @ ../Drivers/STM32F4xx_HAL_Driver/Src/stm32f4xx_hal_can.c:1151:7
	ldr	r0, [sp, #4]
	.loc	6 1151 13 is_stmt 0             @ ../Drivers/STM32F4xx_HAL_Driver/Src/stm32f4xx_hal_can.c:1151:13
	ldr	r1, [r0]
	.loc	6 1151 28                       @ ../Drivers/STM32F4xx_HAL_Driver/Src/stm32f4xx_hal_can.c:1151:28
	ldr	r0, [r1]
	orr	r0, r0, #2
	str	r0, [r1]
	movs	r0, #0
	.loc	6 1154 5 is_stmt 1              @ ../Drivers/STM32F4xx_HAL_Driver/Src/stm32f4xx_hal_can.c:1154:5
	strb.w	r0, [sp, #11]
	b	.LBB7_4
.Ltmp99:
.LBB7_3:
	.loc	6 1159 5                        @ ../Drivers/STM32F4xx_HAL_Driver/Src/stm32f4xx_hal_can.c:1159:5
	ldr	r1, [sp, #4]
	.loc	6 1159 21 is_stmt 0             @ ../Drivers/STM32F4xx_HAL_Driver/Src/stm32f4xx_hal_can.c:1159:21
	ldr	r0, [r1, #36]
	orr	r0, r0, #262144
	str	r0, [r1, #36]
	movs	r0, #1
	.loc	6 1162 5 is_stmt 1              @ ../Drivers/STM32F4xx_HAL_Driver/Src/stm32f4xx_hal_can.c:1162:5
	strb.w	r0, [sp, #11]
	b	.LBB7_4
.Ltmp100:
.LBB7_4:
	.loc	6 1164 1                        @ ../Drivers/STM32F4xx_HAL_Driver/Src/stm32f4xx_hal_can.c:1164:1
	ldrb.w	r0, [sp, #11]
	add	sp, #12
	bx	lr
.Ltmp101:
.Lfunc_end7:
	.size	HAL_CAN_RequestSleep, .Lfunc_end7-HAL_CAN_RequestSleep
	.cfi_endproc
	.cantunwind
	.fnend
                                        @ -- End function
	.section	.text.HAL_CAN_WakeUp,"ax",%progbits
	.hidden	HAL_CAN_WakeUp                  @ -- Begin function HAL_CAN_WakeUp
	.globl	HAL_CAN_WakeUp
	.p2align	2
	.type	HAL_CAN_WakeUp,%function
	.code	16                              @ @HAL_CAN_WakeUp
	.thumb_func
HAL_CAN_WakeUp:
.Lfunc_begin8:
	.loc	6 1175 0                        @ ../Drivers/STM32F4xx_HAL_Driver/Src/stm32f4xx_hal_can.c:1175:0
	.fnstart
	.cfi_startproc
@ %bb.0:
	.pad	#16
	sub	sp, #16
	.cfi_def_cfa_offset 16
	str	r0, [sp, #8]
	movs	r0, #0
.Ltmp102:
	.loc	6 1176 21 prologue_end          @ ../Drivers/STM32F4xx_HAL_Driver/Src/stm32f4xx_hal_can.c:1176:21
	str	r0, [sp, #4]
	.loc	6 1177 32                       @ ../Drivers/STM32F4xx_HAL_Driver/Src/stm32f4xx_hal_can.c:1177:32
	ldr	r0, [sp, #8]
	.loc	6 1177 38 is_stmt 0             @ ../Drivers/STM32F4xx_HAL_Driver/Src/stm32f4xx_hal_can.c:1177:38
	ldrb.w	r0, [r0, #32]
	.loc	6 1177 24                       @ ../Drivers/STM32F4xx_HAL_Driver/Src/stm32f4xx_hal_can.c:1177:24
	strb.w	r0, [sp, #3]
.Ltmp103:
	.loc	6 1179 8 is_stmt 1              @ ../Drivers/STM32F4xx_HAL_Driver/Src/stm32f4xx_hal_can.c:1179:8
	ldrb.w	r0, [sp, #3]
	.loc	6 1179 38 is_stmt 0             @ ../Drivers/STM32F4xx_HAL_Driver/Src/stm32f4xx_hal_can.c:1179:38
	cmp	r0, #1
	beq	.LBB8_2
	b	.LBB8_1
.LBB8_1:
	.loc	6 1180 8 is_stmt 1              @ ../Drivers/STM32F4xx_HAL_Driver/Src/stm32f4xx_hal_can.c:1180:8
	ldrb.w	r0, [sp, #3]
.Ltmp104:
	.loc	6 1179 7                        @ ../Drivers/STM32F4xx_HAL_Driver/Src/stm32f4xx_hal_can.c:1179:7
	cmp	r0, #2
	bne	.LBB8_8
	b	.LBB8_2
.LBB8_2:
.Ltmp105:
	.loc	6 1183 7                        @ ../Drivers/STM32F4xx_HAL_Driver/Src/stm32f4xx_hal_can.c:1183:7
	ldr	r0, [sp, #8]
	.loc	6 1183 13 is_stmt 0             @ ../Drivers/STM32F4xx_HAL_Driver/Src/stm32f4xx_hal_can.c:1183:13
	ldr	r1, [r0]
	.loc	6 1183 28                       @ ../Drivers/STM32F4xx_HAL_Driver/Src/stm32f4xx_hal_can.c:1183:28
	ldr	r0, [r1]
	bic	r0, r0, #2
	str	r0, [r1]
	.loc	6 1186 5 is_stmt 1              @ ../Drivers/STM32F4xx_HAL_Driver/Src/stm32f4xx_hal_can.c:1186:5
	b	.LBB8_3
.LBB8_3:                                @ =>This Inner Loop Header: Depth=1
.Ltmp106:
	.loc	6 1189 12                       @ ../Drivers/STM32F4xx_HAL_Driver/Src/stm32f4xx_hal_can.c:1189:12
	ldr	r0, [sp, #4]
	adds	r0, #1
	str	r0, [sp, #4]
.Ltmp107:
	.loc	6 1192 11                       @ ../Drivers/STM32F4xx_HAL_Driver/Src/stm32f4xx_hal_can.c:1192:11
	ldr	r0, [sp, #4]
	movw	r1, #16961
	movt	r1, #15
.Ltmp108:
	.loc	6 1192 11 is_stmt 0             @ ../Drivers/STM32F4xx_HAL_Driver/Src/stm32f4xx_hal_can.c:1192:11
	cmp	r0, r1
	blo	.LBB8_5
	b	.LBB8_4
.LBB8_4:
.Ltmp109:
	.loc	6 1195 9 is_stmt 1              @ ../Drivers/STM32F4xx_HAL_Driver/Src/stm32f4xx_hal_can.c:1195:9
	ldr	r1, [sp, #8]
	.loc	6 1195 25 is_stmt 0             @ ../Drivers/STM32F4xx_HAL_Driver/Src/stm32f4xx_hal_can.c:1195:25
	ldr	r0, [r1, #36]
	orr	r0, r0, #131072
	str	r0, [r1, #36]
	movs	r0, #1
	.loc	6 1197 9 is_stmt 1              @ ../Drivers/STM32F4xx_HAL_Driver/Src/stm32f4xx_hal_can.c:1197:9
	strb.w	r0, [sp, #15]
	b	.LBB8_9
.Ltmp110:
.LBB8_5:                                @   in Loop: Header=BB8_3 Depth=1
	.loc	6 1199 5                        @ ../Drivers/STM32F4xx_HAL_Driver/Src/stm32f4xx_hal_can.c:1199:5
	b	.LBB8_6
.Ltmp111:
.LBB8_6:                                @   in Loop: Header=BB8_3 Depth=1
	.loc	6 1199 15 is_stmt 0             @ ../Drivers/STM32F4xx_HAL_Driver/Src/stm32f4xx_hal_can.c:1199:15
	ldr	r0, [sp, #8]
	.loc	6 1199 21                       @ ../Drivers/STM32F4xx_HAL_Driver/Src/stm32f4xx_hal_can.c:1199:21
	ldr	r0, [r0]
	.loc	6 1199 31                       @ ../Drivers/STM32F4xx_HAL_Driver/Src/stm32f4xx_hal_can.c:1199:31
	ldr	r0, [r0, #4]
.Ltmp112:
	.loc	6 1199 5                        @ ../Drivers/STM32F4xx_HAL_Driver/Src/stm32f4xx_hal_can.c:1199:5
	lsls	r0, r0, #30
	cmp	r0, #0
	bmi	.LBB8_3
	b	.LBB8_7
.Ltmp113:
.LBB8_7:
	.loc	6 0 5                           @ ../Drivers/STM32F4xx_HAL_Driver/Src/stm32f4xx_hal_can.c:0:5
	movs	r0, #0
	.loc	6 1202 5 is_stmt 1              @ ../Drivers/STM32F4xx_HAL_Driver/Src/stm32f4xx_hal_can.c:1202:5
	strb.w	r0, [sp, #15]
	b	.LBB8_9
.Ltmp114:
.LBB8_8:
	.loc	6 1207 5                        @ ../Drivers/STM32F4xx_HAL_Driver/Src/stm32f4xx_hal_can.c:1207:5
	ldr	r1, [sp, #8]
	.loc	6 1207 21 is_stmt 0             @ ../Drivers/STM32F4xx_HAL_Driver/Src/stm32f4xx_hal_can.c:1207:21
	ldr	r0, [r1, #36]
	orr	r0, r0, #262144
	str	r0, [r1, #36]
	movs	r0, #1
	.loc	6 1209 5 is_stmt 1              @ ../Drivers/STM32F4xx_HAL_Driver/Src/stm32f4xx_hal_can.c:1209:5
	strb.w	r0, [sp, #15]
	b	.LBB8_9
.Ltmp115:
.LBB8_9:
	.loc	6 1211 1                        @ ../Drivers/STM32F4xx_HAL_Driver/Src/stm32f4xx_hal_can.c:1211:1
	ldrb.w	r0, [sp, #15]
	add	sp, #16
	bx	lr
.Ltmp116:
.Lfunc_end8:
	.size	HAL_CAN_WakeUp, .Lfunc_end8-HAL_CAN_WakeUp
	.cfi_endproc
	.cantunwind
	.fnend
                                        @ -- End function
	.section	.text.HAL_CAN_IsSleepActive,"ax",%progbits
	.hidden	HAL_CAN_IsSleepActive           @ -- Begin function HAL_CAN_IsSleepActive
	.globl	HAL_CAN_IsSleepActive
	.p2align	2
	.type	HAL_CAN_IsSleepActive,%function
	.code	16                              @ @HAL_CAN_IsSleepActive
	.thumb_func
HAL_CAN_IsSleepActive:
.Lfunc_begin9:
	.loc	6 1222 0                        @ ../Drivers/STM32F4xx_HAL_Driver/Src/stm32f4xx_hal_can.c:1222:0
	.fnstart
	.cfi_startproc
@ %bb.0:
	.pad	#12
	sub	sp, #12
	.cfi_def_cfa_offset 12
	str	r0, [sp, #8]
	movs	r0, #0
.Ltmp117:
	.loc	6 1223 12 prologue_end          @ ../Drivers/STM32F4xx_HAL_Driver/Src/stm32f4xx_hal_can.c:1223:12
	str	r0, [sp, #4]
	.loc	6 1224 32                       @ ../Drivers/STM32F4xx_HAL_Driver/Src/stm32f4xx_hal_can.c:1224:32
	ldr	r0, [sp, #8]
	.loc	6 1224 38 is_stmt 0             @ ../Drivers/STM32F4xx_HAL_Driver/Src/stm32f4xx_hal_can.c:1224:38
	ldrb.w	r0, [r0, #32]
	.loc	6 1224 24                       @ ../Drivers/STM32F4xx_HAL_Driver/Src/stm32f4xx_hal_can.c:1224:24
	strb.w	r0, [sp, #3]
.Ltmp118:
	.loc	6 1226 8 is_stmt 1              @ ../Drivers/STM32F4xx_HAL_Driver/Src/stm32f4xx_hal_can.c:1226:8
	ldrb.w	r0, [sp, #3]
	.loc	6 1226 38 is_stmt 0             @ ../Drivers/STM32F4xx_HAL_Driver/Src/stm32f4xx_hal_can.c:1226:38
	cmp	r0, #1
	beq	.LBB9_2
	b	.LBB9_1
.LBB9_1:
	.loc	6 1227 8 is_stmt 1              @ ../Drivers/STM32F4xx_HAL_Driver/Src/stm32f4xx_hal_can.c:1227:8
	ldrb.w	r0, [sp, #3]
.Ltmp119:
	.loc	6 1226 7                        @ ../Drivers/STM32F4xx_HAL_Driver/Src/stm32f4xx_hal_can.c:1226:7
	cmp	r0, #2
	bne	.LBB9_5
	b	.LBB9_2
.LBB9_2:
.Ltmp120:
	.loc	6 1230 10                       @ ../Drivers/STM32F4xx_HAL_Driver/Src/stm32f4xx_hal_can.c:1230:10
	ldr	r0, [sp, #8]
	.loc	6 1230 16 is_stmt 0             @ ../Drivers/STM32F4xx_HAL_Driver/Src/stm32f4xx_hal_can.c:1230:16
	ldr	r0, [r0]
	.loc	6 1230 26                       @ ../Drivers/STM32F4xx_HAL_Driver/Src/stm32f4xx_hal_can.c:1230:26
	ldr	r0, [r0, #4]
.Ltmp121:
	.loc	6 1230 9                        @ ../Drivers/STM32F4xx_HAL_Driver/Src/stm32f4xx_hal_can.c:1230:9
	lsls	r0, r0, #30
	cmp	r0, #0
	bpl	.LBB9_4
	b	.LBB9_3
.LBB9_3:
	.loc	6 0 9                           @ ../Drivers/STM32F4xx_HAL_Driver/Src/stm32f4xx_hal_can.c:0:9
	movs	r0, #1
.Ltmp122:
	.loc	6 1232 14 is_stmt 1             @ ../Drivers/STM32F4xx_HAL_Driver/Src/stm32f4xx_hal_can.c:1232:14
	str	r0, [sp, #4]
	.loc	6 1233 5                        @ ../Drivers/STM32F4xx_HAL_Driver/Src/stm32f4xx_hal_can.c:1233:5
	b	.LBB9_4
.Ltmp123:
.LBB9_4:
	.loc	6 1234 3                        @ ../Drivers/STM32F4xx_HAL_Driver/Src/stm32f4xx_hal_can.c:1234:3
	b	.LBB9_5
.Ltmp124:
.LBB9_5:
	.loc	6 1237 10                       @ ../Drivers/STM32F4xx_HAL_Driver/Src/stm32f4xx_hal_can.c:1237:10
	ldr	r0, [sp, #4]
	.loc	6 1237 3 is_stmt 0              @ ../Drivers/STM32F4xx_HAL_Driver/Src/stm32f4xx_hal_can.c:1237:3
	add	sp, #12
	bx	lr
.Ltmp125:
.Lfunc_end9:
	.size	HAL_CAN_IsSleepActive, .Lfunc_end9-HAL_CAN_IsSleepActive
	.cfi_endproc
	.cantunwind
	.fnend
                                        @ -- End function
	.section	.text.HAL_CAN_AddTxMessage,"ax",%progbits
	.hidden	HAL_CAN_AddTxMessage            @ -- Begin function HAL_CAN_AddTxMessage
	.globl	HAL_CAN_AddTxMessage
	.p2align	2
	.type	HAL_CAN_AddTxMessage,%function
	.code	16                              @ @HAL_CAN_AddTxMessage
	.thumb_func
HAL_CAN_AddTxMessage:
.Lfunc_begin10:
	.loc	6 1254 0 is_stmt 1              @ ../Drivers/STM32F4xx_HAL_Driver/Src/stm32f4xx_hal_can.c:1254:0
	.fnstart
	.cfi_startproc
@ %bb.0:
	.pad	#32
	sub	sp, #32
	.cfi_def_cfa_offset 32
	str	r0, [sp, #24]
	str	r1, [sp, #20]
	str	r2, [sp, #16]
	str	r3, [sp, #12]
.Ltmp126:
	.loc	6 1256 32 prologue_end          @ ../Drivers/STM32F4xx_HAL_Driver/Src/stm32f4xx_hal_can.c:1256:32
	ldr	r0, [sp, #24]
	.loc	6 1256 38 is_stmt 0             @ ../Drivers/STM32F4xx_HAL_Driver/Src/stm32f4xx_hal_can.c:1256:38
	ldrb.w	r0, [r0, #32]
	.loc	6 1256 24                       @ ../Drivers/STM32F4xx_HAL_Driver/Src/stm32f4xx_hal_can.c:1256:24
	strb.w	r0, [sp, #7]
	.loc	6 1257 20 is_stmt 1             @ ../Drivers/STM32F4xx_HAL_Driver/Src/stm32f4xx_hal_can.c:1257:20
	ldr	r0, [sp, #24]
	.loc	6 1257 26 is_stmt 0             @ ../Drivers/STM32F4xx_HAL_Driver/Src/stm32f4xx_hal_can.c:1257:26
	ldr	r0, [r0]
	.loc	6 1257 36                       @ ../Drivers/STM32F4xx_HAL_Driver/Src/stm32f4xx_hal_can.c:1257:36
	ldr	r0, [r0, #8]
	.loc	6 1257 12                       @ ../Drivers/STM32F4xx_HAL_Driver/Src/stm32f4xx_hal_can.c:1257:12
	str	r0, [sp]
.Ltmp127:
	.loc	6 1263 7 is_stmt 1              @ ../Drivers/STM32F4xx_HAL_Driver/Src/stm32f4xx_hal_can.c:1263:7
	ldr	r0, [sp, #20]
	.loc	6 1263 16 is_stmt 0             @ ../Drivers/STM32F4xx_HAL_Driver/Src/stm32f4xx_hal_can.c:1263:16
	ldr	r0, [r0, #8]
.Ltmp128:
	.loc	6 1263 7                        @ ../Drivers/STM32F4xx_HAL_Driver/Src/stm32f4xx_hal_can.c:1263:7
	cbnz	r0, .LBB10_2
	b	.LBB10_1
.LBB10_1:
.Ltmp129:
	.loc	6 1266 3 is_stmt 1              @ ../Drivers/STM32F4xx_HAL_Driver/Src/stm32f4xx_hal_can.c:1266:3
	b	.LBB10_3
.Ltmp130:
.LBB10_2:
	.loc	6 0 3 is_stmt 0                 @ ../Drivers/STM32F4xx_HAL_Driver/Src/stm32f4xx_hal_can.c:0:3
	b	.LBB10_3
.LBB10_3:
.Ltmp131:
	.loc	6 1273 8 is_stmt 1              @ ../Drivers/STM32F4xx_HAL_Driver/Src/stm32f4xx_hal_can.c:1273:8
	ldrb.w	r0, [sp, #7]
	.loc	6 1273 38 is_stmt 0             @ ../Drivers/STM32F4xx_HAL_Driver/Src/stm32f4xx_hal_can.c:1273:38
	cmp	r0, #1
	beq	.LBB10_5
	b	.LBB10_4
.LBB10_4:
	.loc	6 1274 8 is_stmt 1              @ ../Drivers/STM32F4xx_HAL_Driver/Src/stm32f4xx_hal_can.c:1274:8
	ldrb.w	r0, [sp, #7]
.Ltmp132:
	.loc	6 1273 7                        @ ../Drivers/STM32F4xx_HAL_Driver/Src/stm32f4xx_hal_can.c:1273:7
	cmp	r0, #2
	bne.w	.LBB10_15
	b	.LBB10_5
.LBB10_5:
.Ltmp133:
	.loc	6 1277 42                       @ ../Drivers/STM32F4xx_HAL_Driver/Src/stm32f4xx_hal_can.c:1277:42
	ldrb.w	r0, [sp, #3]
	lsls	r0, r0, #29
	cmp	r0, #0
	bmi	.LBB10_8
	b	.LBB10_6
.LBB10_6:
	.loc	6 1278 42                       @ ../Drivers/STM32F4xx_HAL_Driver/Src/stm32f4xx_hal_can.c:1278:42
	ldrb.w	r0, [sp, #3]
	lsls	r0, r0, #28
	cmp	r0, #0
	bmi	.LBB10_8
	b	.LBB10_7
.Ltmp134:
.LBB10_7:
	.loc	6 1277 9                        @ ../Drivers/STM32F4xx_HAL_Driver/Src/stm32f4xx_hal_can.c:1277:9
	ldrb.w	r0, [sp, #3]
	lsls	r0, r0, #27
	cmp	r0, #0
	bpl	.LBB10_14
	b	.LBB10_8
.LBB10_8:
.Ltmp135:
	.loc	6 1282 26                       @ ../Drivers/STM32F4xx_HAL_Driver/Src/stm32f4xx_hal_can.c:1282:26
	ldr	r0, [sp]
	.loc	6 1282 50 is_stmt 0             @ ../Drivers/STM32F4xx_HAL_Driver/Src/stm32f4xx_hal_can.c:1282:50
	ubfx	r0, r0, #24, #2
	.loc	6 1282 23                       @ ../Drivers/STM32F4xx_HAL_Driver/Src/stm32f4xx_hal_can.c:1282:23
	str	r0, [sp, #8]
	.loc	6 1285 36 is_stmt 1             @ ../Drivers/STM32F4xx_HAL_Driver/Src/stm32f4xx_hal_can.c:1285:36
	ldr	r1, [sp, #8]
	movs	r0, #1
	.loc	6 1285 33 is_stmt 0             @ ../Drivers/STM32F4xx_HAL_Driver/Src/stm32f4xx_hal_can.c:1285:33
	lsls	r0, r1
	.loc	6 1285 8                        @ ../Drivers/STM32F4xx_HAL_Driver/Src/stm32f4xx_hal_can.c:1285:8
	ldr	r1, [sp, #12]
	.loc	6 1285 19                       @ ../Drivers/STM32F4xx_HAL_Driver/Src/stm32f4xx_hal_can.c:1285:19
	str	r0, [r1]
.Ltmp136:
	.loc	6 1288 11 is_stmt 1             @ ../Drivers/STM32F4xx_HAL_Driver/Src/stm32f4xx_hal_can.c:1288:11
	ldr	r0, [sp, #20]
	.loc	6 1288 20 is_stmt 0             @ ../Drivers/STM32F4xx_HAL_Driver/Src/stm32f4xx_hal_can.c:1288:20
	ldr	r0, [r0, #8]
.Ltmp137:
	.loc	6 1288 11                       @ ../Drivers/STM32F4xx_HAL_Driver/Src/stm32f4xx_hal_can.c:1288:11
	cbnz	r0, .LBB10_10
	b	.LBB10_9
.LBB10_9:
.Ltmp138:
	.loc	6 1290 61 is_stmt 1             @ ../Drivers/STM32F4xx_HAL_Driver/Src/stm32f4xx_hal_can.c:1290:61
	ldr	r0, [sp, #20]
	.loc	6 1290 70 is_stmt 0             @ ../Drivers/STM32F4xx_HAL_Driver/Src/stm32f4xx_hal_can.c:1290:70
	ldr	r1, [r0]
	.loc	6 1291 69 is_stmt 1             @ ../Drivers/STM32F4xx_HAL_Driver/Src/stm32f4xx_hal_can.c:1291:69
	ldr	r0, [r0, #12]
	.loc	6 1290 86                       @ ../Drivers/STM32F4xx_HAL_Driver/Src/stm32f4xx_hal_can.c:1290:86
	orr.w	r0, r0, r1, lsl #21
	.loc	6 1290 9 is_stmt 0              @ ../Drivers/STM32F4xx_HAL_Driver/Src/stm32f4xx_hal_can.c:1290:9
	ldr	r1, [sp, #24]
	.loc	6 1290 15                       @ ../Drivers/STM32F4xx_HAL_Driver/Src/stm32f4xx_hal_can.c:1290:15
	ldr	r1, [r1]
	.loc	6 1290 36                       @ ../Drivers/STM32F4xx_HAL_Driver/Src/stm32f4xx_hal_can.c:1290:36
	ldr	r2, [sp, #8]
	.loc	6 1290 25                       @ ../Drivers/STM32F4xx_HAL_Driver/Src/stm32f4xx_hal_can.c:1290:25
	add.w	r1, r1, r2, lsl #4
	.loc	6 1290 57                       @ ../Drivers/STM32F4xx_HAL_Driver/Src/stm32f4xx_hal_can.c:1290:57
	str.w	r0, [r1, #384]
	.loc	6 1292 7 is_stmt 1              @ ../Drivers/STM32F4xx_HAL_Driver/Src/stm32f4xx_hal_can.c:1292:7
	b	.LBB10_11
.Ltmp139:
.LBB10_10:
	.loc	6 1295 61                       @ ../Drivers/STM32F4xx_HAL_Driver/Src/stm32f4xx_hal_can.c:1295:61
	ldr	r1, [sp, #20]
	.loc	6 1295 70 is_stmt 0             @ ../Drivers/STM32F4xx_HAL_Driver/Src/stm32f4xx_hal_can.c:1295:70
	ldr	r2, [r1, #4]
	.loc	6 1296 69 is_stmt 1             @ ../Drivers/STM32F4xx_HAL_Driver/Src/stm32f4xx_hal_can.c:1296:69
	ldr	r0, [r1, #8]
	.loc	6 1297 69                       @ ../Drivers/STM32F4xx_HAL_Driver/Src/stm32f4xx_hal_can.c:1297:69
	ldr	r1, [r1, #12]
	.loc	6 1295 85                       @ ../Drivers/STM32F4xx_HAL_Driver/Src/stm32f4xx_hal_can.c:1295:85
	orr.w	r0, r0, r2, lsl #3
	.loc	6 1296 73                       @ ../Drivers/STM32F4xx_HAL_Driver/Src/stm32f4xx_hal_can.c:1296:73
	orrs	r0, r1
	.loc	6 1295 9                        @ ../Drivers/STM32F4xx_HAL_Driver/Src/stm32f4xx_hal_can.c:1295:9
	ldr	r1, [sp, #24]
	.loc	6 1295 15 is_stmt 0             @ ../Drivers/STM32F4xx_HAL_Driver/Src/stm32f4xx_hal_can.c:1295:15
	ldr	r1, [r1]
	.loc	6 1295 36                       @ ../Drivers/STM32F4xx_HAL_Driver/Src/stm32f4xx_hal_can.c:1295:36
	ldr	r2, [sp, #8]
	.loc	6 1295 25                       @ ../Drivers/STM32F4xx_HAL_Driver/Src/stm32f4xx_hal_can.c:1295:25
	add.w	r1, r1, r2, lsl #4
	.loc	6 1295 57                       @ ../Drivers/STM32F4xx_HAL_Driver/Src/stm32f4xx_hal_can.c:1295:57
	str.w	r0, [r1, #384]
	b	.LBB10_11
.Ltmp140:
.LBB10_11:
	.loc	6 1301 59 is_stmt 1             @ ../Drivers/STM32F4xx_HAL_Driver/Src/stm32f4xx_hal_can.c:1301:59
	ldr	r0, [sp, #20]
	.loc	6 1301 68 is_stmt 0             @ ../Drivers/STM32F4xx_HAL_Driver/Src/stm32f4xx_hal_can.c:1301:68
	ldr	r0, [r0, #16]
	.loc	6 1301 7                        @ ../Drivers/STM32F4xx_HAL_Driver/Src/stm32f4xx_hal_can.c:1301:7
	ldr	r1, [sp, #24]
	.loc	6 1301 13                       @ ../Drivers/STM32F4xx_HAL_Driver/Src/stm32f4xx_hal_can.c:1301:13
	ldr	r1, [r1]
	.loc	6 1301 34                       @ ../Drivers/STM32F4xx_HAL_Driver/Src/stm32f4xx_hal_can.c:1301:34
	ldr	r2, [sp, #8]
	.loc	6 1301 23                       @ ../Drivers/STM32F4xx_HAL_Driver/Src/stm32f4xx_hal_can.c:1301:23
	add.w	r1, r1, r2, lsl #4
	.loc	6 1301 56                       @ ../Drivers/STM32F4xx_HAL_Driver/Src/stm32f4xx_hal_can.c:1301:56
	str.w	r0, [r1, #388]
.Ltmp141:
	.loc	6 1304 11 is_stmt 1             @ ../Drivers/STM32F4xx_HAL_Driver/Src/stm32f4xx_hal_can.c:1304:11
	ldr	r0, [sp, #20]
	.loc	6 1304 20 is_stmt 0             @ ../Drivers/STM32F4xx_HAL_Driver/Src/stm32f4xx_hal_can.c:1304:20
	ldrb	r0, [r0, #20]
.Ltmp142:
	.loc	6 1304 11                       @ ../Drivers/STM32F4xx_HAL_Driver/Src/stm32f4xx_hal_can.c:1304:11
	cmp	r0, #1
	bne	.LBB10_13
	b	.LBB10_12
.LBB10_12:
.Ltmp143:
	.loc	6 1306 11 is_stmt 1             @ ../Drivers/STM32F4xx_HAL_Driver/Src/stm32f4xx_hal_can.c:1306:11
	ldr	r0, [sp, #24]
	.loc	6 1306 17 is_stmt 0             @ ../Drivers/STM32F4xx_HAL_Driver/Src/stm32f4xx_hal_can.c:1306:17
	ldr	r0, [r0]
	.loc	6 1306 38                       @ ../Drivers/STM32F4xx_HAL_Driver/Src/stm32f4xx_hal_can.c:1306:38
	ldr	r1, [sp, #8]
	.loc	6 1306 27                       @ ../Drivers/STM32F4xx_HAL_Driver/Src/stm32f4xx_hal_can.c:1306:27
	add.w	r1, r0, r1, lsl #4
	.loc	6 1306 61                       @ ../Drivers/STM32F4xx_HAL_Driver/Src/stm32f4xx_hal_can.c:1306:61
	ldr.w	r0, [r1, #388]
	orr	r0, r0, #256
	str.w	r0, [r1, #388]
	.loc	6 1307 7 is_stmt 1              @ ../Drivers/STM32F4xx_HAL_Driver/Src/stm32f4xx_hal_can.c:1307:7
	b	.LBB10_13
.Ltmp144:
.LBB10_13:
	.loc	6 1310 73                       @ ../Drivers/STM32F4xx_HAL_Driver/Src/stm32f4xx_hal_can.c:1310:73
	ldr	r0, [sp, #16]
	.loc	6 1310 155 is_stmt 0            @ ../Drivers/STM32F4xx_HAL_Driver/Src/stm32f4xx_hal_can.c:1310:155
	ldr	r0, [r0, #4]
	.loc	6 1310 9                        @ ../Drivers/STM32F4xx_HAL_Driver/Src/stm32f4xx_hal_can.c:1310:9
	ldr	r1, [sp, #24]
	.loc	6 1310 15                       @ ../Drivers/STM32F4xx_HAL_Driver/Src/stm32f4xx_hal_can.c:1310:15
	ldr	r1, [r1]
	.loc	6 1310 36                       @ ../Drivers/STM32F4xx_HAL_Driver/Src/stm32f4xx_hal_can.c:1310:36
	ldr	r2, [sp, #8]
	.loc	6 1310 25                       @ ../Drivers/STM32F4xx_HAL_Driver/Src/stm32f4xx_hal_can.c:1310:25
	add.w	r1, r1, r2, lsl #4
	.loc	6 1310 59                       @ ../Drivers/STM32F4xx_HAL_Driver/Src/stm32f4xx_hal_can.c:1310:59
	str.w	r0, [r1, #396]
	.loc	6 1315 73 is_stmt 1             @ ../Drivers/STM32F4xx_HAL_Driver/Src/stm32f4xx_hal_can.c:1315:73
	ldr	r0, [sp, #16]
	.loc	6 1315 155 is_stmt 0            @ ../Drivers/STM32F4xx_HAL_Driver/Src/stm32f4xx_hal_can.c:1315:155
	ldr	r0, [r0]
	.loc	6 1315 9                        @ ../Drivers/STM32F4xx_HAL_Driver/Src/stm32f4xx_hal_can.c:1315:9
	ldr	r1, [sp, #24]
	.loc	6 1315 15                       @ ../Drivers/STM32F4xx_HAL_Driver/Src/stm32f4xx_hal_can.c:1315:15
	ldr	r1, [r1]
	.loc	6 1315 36                       @ ../Drivers/STM32F4xx_HAL_Driver/Src/stm32f4xx_hal_can.c:1315:36
	ldr	r2, [sp, #8]
	.loc	6 1315 25                       @ ../Drivers/STM32F4xx_HAL_Driver/Src/stm32f4xx_hal_can.c:1315:25
	add.w	r1, r1, r2, lsl #4
	.loc	6 1315 59                       @ ../Drivers/STM32F4xx_HAL_Driver/Src/stm32f4xx_hal_can.c:1315:59
	str.w	r0, [r1, #392]
	.loc	6 1322 9 is_stmt 1              @ ../Drivers/STM32F4xx_HAL_Driver/Src/stm32f4xx_hal_can.c:1322:9
	ldr	r0, [sp, #24]
	.loc	6 1322 15 is_stmt 0             @ ../Drivers/STM32F4xx_HAL_Driver/Src/stm32f4xx_hal_can.c:1322:15
	ldr	r0, [r0]
	.loc	6 1322 36                       @ ../Drivers/STM32F4xx_HAL_Driver/Src/stm32f4xx_hal_can.c:1322:36
	ldr	r1, [sp, #8]
	.loc	6 1322 25                       @ ../Drivers/STM32F4xx_HAL_Driver/Src/stm32f4xx_hal_can.c:1322:25
	add.w	r1, r0, r1, lsl #4
	.loc	6 1322 58                       @ ../Drivers/STM32F4xx_HAL_Driver/Src/stm32f4xx_hal_can.c:1322:58
	ldr.w	r0, [r1, #384]
	orr	r0, r0, #1
	str.w	r0, [r1, #384]
	movs	r0, #0
	.loc	6 1325 7 is_stmt 1              @ ../Drivers/STM32F4xx_HAL_Driver/Src/stm32f4xx_hal_can.c:1325:7
	strb.w	r0, [sp, #31]
	b	.LBB10_16
.Ltmp145:
.LBB10_14:
	.loc	6 1330 7                        @ ../Drivers/STM32F4xx_HAL_Driver/Src/stm32f4xx_hal_can.c:1330:7
	ldr	r1, [sp, #24]
	.loc	6 1330 23 is_stmt 0             @ ../Drivers/STM32F4xx_HAL_Driver/Src/stm32f4xx_hal_can.c:1330:23
	ldr	r0, [r1, #36]
	orr	r0, r0, #2097152
	str	r0, [r1, #36]
	movs	r0, #1
	.loc	6 1332 7 is_stmt 1              @ ../Drivers/STM32F4xx_HAL_Driver/Src/stm32f4xx_hal_can.c:1332:7
	strb.w	r0, [sp, #31]
	b	.LBB10_16
.Ltmp146:
.LBB10_15:
	.loc	6 1338 5                        @ ../Drivers/STM32F4xx_HAL_Driver/Src/stm32f4xx_hal_can.c:1338:5
	ldr	r1, [sp, #24]
	.loc	6 1338 21 is_stmt 0             @ ../Drivers/STM32F4xx_HAL_Driver/Src/stm32f4xx_hal_can.c:1338:21
	ldr	r0, [r1, #36]
	orr	r0, r0, #262144
	str	r0, [r1, #36]
	movs	r0, #1
	.loc	6 1340 5 is_stmt 1              @ ../Drivers/STM32F4xx_HAL_Driver/Src/stm32f4xx_hal_can.c:1340:5
	strb.w	r0, [sp, #31]
	b	.LBB10_16
.Ltmp147:
.LBB10_16:
	.loc	6 1342 1                        @ ../Drivers/STM32F4xx_HAL_Driver/Src/stm32f4xx_hal_can.c:1342:1
	ldrb.w	r0, [sp, #31]
	add	sp, #32
	bx	lr
.Ltmp148:
.Lfunc_end10:
	.size	HAL_CAN_AddTxMessage, .Lfunc_end10-HAL_CAN_AddTxMessage
	.cfi_endproc
	.cantunwind
	.fnend
                                        @ -- End function
	.section	.text.HAL_CAN_AbortTxRequest,"ax",%progbits
	.hidden	HAL_CAN_AbortTxRequest          @ -- Begin function HAL_CAN_AbortTxRequest
	.globl	HAL_CAN_AbortTxRequest
	.p2align	2
	.type	HAL_CAN_AbortTxRequest,%function
	.code	16                              @ @HAL_CAN_AbortTxRequest
	.thumb_func
HAL_CAN_AbortTxRequest:
.Lfunc_begin11:
	.loc	6 1353 0                        @ ../Drivers/STM32F4xx_HAL_Driver/Src/stm32f4xx_hal_can.c:1353:0
	.fnstart
	.cfi_startproc
@ %bb.0:
	.pad	#16
	sub	sp, #16
	.cfi_def_cfa_offset 16
	str	r0, [sp, #8]
	str	r1, [sp, #4]
.Ltmp149:
	.loc	6 1354 32 prologue_end          @ ../Drivers/STM32F4xx_HAL_Driver/Src/stm32f4xx_hal_can.c:1354:32
	ldr	r0, [sp, #8]
	.loc	6 1354 38 is_stmt 0             @ ../Drivers/STM32F4xx_HAL_Driver/Src/stm32f4xx_hal_can.c:1354:38
	ldrb.w	r0, [r0, #32]
	.loc	6 1354 24                       @ ../Drivers/STM32F4xx_HAL_Driver/Src/stm32f4xx_hal_can.c:1354:24
	strb.w	r0, [sp, #3]
.Ltmp150:
	.loc	6 1359 8 is_stmt 1              @ ../Drivers/STM32F4xx_HAL_Driver/Src/stm32f4xx_hal_can.c:1359:8
	ldrb.w	r0, [sp, #3]
	.loc	6 1359 38 is_stmt 0             @ ../Drivers/STM32F4xx_HAL_Driver/Src/stm32f4xx_hal_can.c:1359:38
	cmp	r0, #1
	beq	.LBB11_2
	b	.LBB11_1
.LBB11_1:
	.loc	6 1360 8 is_stmt 1              @ ../Drivers/STM32F4xx_HAL_Driver/Src/stm32f4xx_hal_can.c:1360:8
	ldrb.w	r0, [sp, #3]
.Ltmp151:
	.loc	6 1359 7                        @ ../Drivers/STM32F4xx_HAL_Driver/Src/stm32f4xx_hal_can.c:1359:7
	cmp	r0, #2
	bne	.LBB11_9
	b	.LBB11_2
.LBB11_2:
.Ltmp152:
	.loc	6 1363 9                        @ ../Drivers/STM32F4xx_HAL_Driver/Src/stm32f4xx_hal_can.c:1363:9
	ldrb.w	r0, [sp, #4]
	lsls	r0, r0, #31
	cbz	r0, .LBB11_4
	b	.LBB11_3
.LBB11_3:
.Ltmp153:
	.loc	6 1366 9                        @ ../Drivers/STM32F4xx_HAL_Driver/Src/stm32f4xx_hal_can.c:1366:9
	ldr	r0, [sp, #8]
	.loc	6 1366 15 is_stmt 0             @ ../Drivers/STM32F4xx_HAL_Driver/Src/stm32f4xx_hal_can.c:1366:15
	ldr	r1, [r0]
	.loc	6 1366 30                       @ ../Drivers/STM32F4xx_HAL_Driver/Src/stm32f4xx_hal_can.c:1366:30
	ldr	r0, [r1, #8]
	orr	r0, r0, #128
	str	r0, [r1, #8]
	.loc	6 1367 5 is_stmt 1              @ ../Drivers/STM32F4xx_HAL_Driver/Src/stm32f4xx_hal_can.c:1367:5
	b	.LBB11_4
.Ltmp154:
.LBB11_4:
	.loc	6 1370 9                        @ ../Drivers/STM32F4xx_HAL_Driver/Src/stm32f4xx_hal_can.c:1370:9
	ldrb.w	r0, [sp, #4]
	lsls	r0, r0, #30
	cmp	r0, #0
	bpl	.LBB11_6
	b	.LBB11_5
.LBB11_5:
.Ltmp155:
	.loc	6 1373 9                        @ ../Drivers/STM32F4xx_HAL_Driver/Src/stm32f4xx_hal_can.c:1373:9
	ldr	r0, [sp, #8]
	.loc	6 1373 15 is_stmt 0             @ ../Drivers/STM32F4xx_HAL_Driver/Src/stm32f4xx_hal_can.c:1373:15
	ldr	r1, [r0]
	.loc	6 1373 30                       @ ../Drivers/STM32F4xx_HAL_Driver/Src/stm32f4xx_hal_can.c:1373:30
	ldr	r0, [r1, #8]
	orr	r0, r0, #32768
	str	r0, [r1, #8]
	.loc	6 1374 5 is_stmt 1              @ ../Drivers/STM32F4xx_HAL_Driver/Src/stm32f4xx_hal_can.c:1374:5
	b	.LBB11_6
.Ltmp156:
.LBB11_6:
	.loc	6 1377 9                        @ ../Drivers/STM32F4xx_HAL_Driver/Src/stm32f4xx_hal_can.c:1377:9
	ldrb.w	r0, [sp, #4]
	lsls	r0, r0, #29
	cmp	r0, #0
	bpl	.LBB11_8
	b	.LBB11_7
.LBB11_7:
.Ltmp157:
	.loc	6 1380 9                        @ ../Drivers/STM32F4xx_HAL_Driver/Src/stm32f4xx_hal_can.c:1380:9
	ldr	r0, [sp, #8]
	.loc	6 1380 15 is_stmt 0             @ ../Drivers/STM32F4xx_HAL_Driver/Src/stm32f4xx_hal_can.c:1380:15
	ldr	r1, [r0]
	.loc	6 1380 30                       @ ../Drivers/STM32F4xx_HAL_Driver/Src/stm32f4xx_hal_can.c:1380:30
	ldr	r0, [r1, #8]
	orr	r0, r0, #8388608
	str	r0, [r1, #8]
	.loc	6 1381 5 is_stmt 1              @ ../Drivers/STM32F4xx_HAL_Driver/Src/stm32f4xx_hal_can.c:1381:5
	b	.LBB11_8
.Ltmp158:
.LBB11_8:
	.loc	6 0 5 is_stmt 0                 @ ../Drivers/STM32F4xx_HAL_Driver/Src/stm32f4xx_hal_can.c:0:5
	movs	r0, #0
	.loc	6 1384 5 is_stmt 1              @ ../Drivers/STM32F4xx_HAL_Driver/Src/stm32f4xx_hal_can.c:1384:5
	strb.w	r0, [sp, #15]
	b	.LBB11_10
.Ltmp159:
.LBB11_9:
	.loc	6 1389 5                        @ ../Drivers/STM32F4xx_HAL_Driver/Src/stm32f4xx_hal_can.c:1389:5
	ldr	r1, [sp, #8]
	.loc	6 1389 21 is_stmt 0             @ ../Drivers/STM32F4xx_HAL_Driver/Src/stm32f4xx_hal_can.c:1389:21
	ldr	r0, [r1, #36]
	orr	r0, r0, #262144
	str	r0, [r1, #36]
	movs	r0, #1
	.loc	6 1391 5 is_stmt 1              @ ../Drivers/STM32F4xx_HAL_Driver/Src/stm32f4xx_hal_can.c:1391:5
	strb.w	r0, [sp, #15]
	b	.LBB11_10
.Ltmp160:
.LBB11_10:
	.loc	6 1393 1                        @ ../Drivers/STM32F4xx_HAL_Driver/Src/stm32f4xx_hal_can.c:1393:1
	ldrb.w	r0, [sp, #15]
	add	sp, #16
	bx	lr
.Ltmp161:
.Lfunc_end11:
	.size	HAL_CAN_AbortTxRequest, .Lfunc_end11-HAL_CAN_AbortTxRequest
	.cfi_endproc
	.cantunwind
	.fnend
                                        @ -- End function
	.section	.text.HAL_CAN_GetTxMailboxesFreeLevel,"ax",%progbits
	.hidden	HAL_CAN_GetTxMailboxesFreeLevel @ -- Begin function HAL_CAN_GetTxMailboxesFreeLevel
	.globl	HAL_CAN_GetTxMailboxesFreeLevel
	.p2align	2
	.type	HAL_CAN_GetTxMailboxesFreeLevel,%function
	.code	16                              @ @HAL_CAN_GetTxMailboxesFreeLevel
	.thumb_func
HAL_CAN_GetTxMailboxesFreeLevel:
.Lfunc_begin12:
	.loc	6 1402 0                        @ ../Drivers/STM32F4xx_HAL_Driver/Src/stm32f4xx_hal_can.c:1402:0
	.fnstart
	.cfi_startproc
@ %bb.0:
	.pad	#12
	sub	sp, #12
	.cfi_def_cfa_offset 12
	str	r0, [sp, #8]
	movs	r0, #0
.Ltmp162:
	.loc	6 1403 12 prologue_end          @ ../Drivers/STM32F4xx_HAL_Driver/Src/stm32f4xx_hal_can.c:1403:12
	str	r0, [sp, #4]
	.loc	6 1404 32                       @ ../Drivers/STM32F4xx_HAL_Driver/Src/stm32f4xx_hal_can.c:1404:32
	ldr	r0, [sp, #8]
	.loc	6 1404 38 is_stmt 0             @ ../Drivers/STM32F4xx_HAL_Driver/Src/stm32f4xx_hal_can.c:1404:38
	ldrb.w	r0, [r0, #32]
	.loc	6 1404 24                       @ ../Drivers/STM32F4xx_HAL_Driver/Src/stm32f4xx_hal_can.c:1404:24
	strb.w	r0, [sp, #3]
.Ltmp163:
	.loc	6 1406 8 is_stmt 1              @ ../Drivers/STM32F4xx_HAL_Driver/Src/stm32f4xx_hal_can.c:1406:8
	ldrb.w	r0, [sp, #3]
	.loc	6 1406 38 is_stmt 0             @ ../Drivers/STM32F4xx_HAL_Driver/Src/stm32f4xx_hal_can.c:1406:38
	cmp	r0, #1
	beq	.LBB12_2
	b	.LBB12_1
.LBB12_1:
	.loc	6 1407 8 is_stmt 1              @ ../Drivers/STM32F4xx_HAL_Driver/Src/stm32f4xx_hal_can.c:1407:8
	ldrb.w	r0, [sp, #3]
.Ltmp164:
	.loc	6 1406 7                        @ ../Drivers/STM32F4xx_HAL_Driver/Src/stm32f4xx_hal_can.c:1406:7
	cmp	r0, #2
	bne	.LBB12_9
	b	.LBB12_2
.LBB12_2:
.Ltmp165:
	.loc	6 1410 10                       @ ../Drivers/STM32F4xx_HAL_Driver/Src/stm32f4xx_hal_can.c:1410:10
	ldr	r0, [sp, #8]
	.loc	6 1410 16 is_stmt 0             @ ../Drivers/STM32F4xx_HAL_Driver/Src/stm32f4xx_hal_can.c:1410:16
	ldr	r0, [r0]
	.loc	6 1410 26                       @ ../Drivers/STM32F4xx_HAL_Driver/Src/stm32f4xx_hal_can.c:1410:26
	ldr	r0, [r0, #8]
.Ltmp166:
	.loc	6 1410 9                        @ ../Drivers/STM32F4xx_HAL_Driver/Src/stm32f4xx_hal_can.c:1410:9
	lsls	r0, r0, #5
	cmp	r0, #0
	bpl	.LBB12_4
	b	.LBB12_3
.LBB12_3:
.Ltmp167:
	.loc	6 1412 16 is_stmt 1             @ ../Drivers/STM32F4xx_HAL_Driver/Src/stm32f4xx_hal_can.c:1412:16
	ldr	r0, [sp, #4]
	adds	r0, #1
	str	r0, [sp, #4]
	.loc	6 1413 5                        @ ../Drivers/STM32F4xx_HAL_Driver/Src/stm32f4xx_hal_can.c:1413:5
	b	.LBB12_4
.Ltmp168:
.LBB12_4:
	.loc	6 1416 10                       @ ../Drivers/STM32F4xx_HAL_Driver/Src/stm32f4xx_hal_can.c:1416:10
	ldr	r0, [sp, #8]
	.loc	6 1416 16 is_stmt 0             @ ../Drivers/STM32F4xx_HAL_Driver/Src/stm32f4xx_hal_can.c:1416:16
	ldr	r0, [r0]
	.loc	6 1416 26                       @ ../Drivers/STM32F4xx_HAL_Driver/Src/stm32f4xx_hal_can.c:1416:26
	ldr	r0, [r0, #8]
.Ltmp169:
	.loc	6 1416 9                        @ ../Drivers/STM32F4xx_HAL_Driver/Src/stm32f4xx_hal_can.c:1416:9
	lsls	r0, r0, #4
	cmp	r0, #0
	bpl	.LBB12_6
	b	.LBB12_5
.LBB12_5:
.Ltmp170:
	.loc	6 1418 16 is_stmt 1             @ ../Drivers/STM32F4xx_HAL_Driver/Src/stm32f4xx_hal_can.c:1418:16
	ldr	r0, [sp, #4]
	adds	r0, #1
	str	r0, [sp, #4]
	.loc	6 1419 5                        @ ../Drivers/STM32F4xx_HAL_Driver/Src/stm32f4xx_hal_can.c:1419:5
	b	.LBB12_6
.Ltmp171:
.LBB12_6:
	.loc	6 1422 10                       @ ../Drivers/STM32F4xx_HAL_Driver/Src/stm32f4xx_hal_can.c:1422:10
	ldr	r0, [sp, #8]
	.loc	6 1422 16 is_stmt 0             @ ../Drivers/STM32F4xx_HAL_Driver/Src/stm32f4xx_hal_can.c:1422:16
	ldr	r0, [r0]
	.loc	6 1422 26                       @ ../Drivers/STM32F4xx_HAL_Driver/Src/stm32f4xx_hal_can.c:1422:26
	ldr	r0, [r0, #8]
.Ltmp172:
	.loc	6 1422 9                        @ ../Drivers/STM32F4xx_HAL_Driver/Src/stm32f4xx_hal_can.c:1422:9
	lsls	r0, r0, #3
	cmp	r0, #0
	bpl	.LBB12_8
	b	.LBB12_7
.LBB12_7:
.Ltmp173:
	.loc	6 1424 16 is_stmt 1             @ ../Drivers/STM32F4xx_HAL_Driver/Src/stm32f4xx_hal_can.c:1424:16
	ldr	r0, [sp, #4]
	adds	r0, #1
	str	r0, [sp, #4]
	.loc	6 1425 5                        @ ../Drivers/STM32F4xx_HAL_Driver/Src/stm32f4xx_hal_can.c:1425:5
	b	.LBB12_8
.Ltmp174:
.LBB12_8:
	.loc	6 1426 3                        @ ../Drivers/STM32F4xx_HAL_Driver/Src/stm32f4xx_hal_can.c:1426:3
	b	.LBB12_9
.Ltmp175:
.LBB12_9:
	.loc	6 1429 10                       @ ../Drivers/STM32F4xx_HAL_Driver/Src/stm32f4xx_hal_can.c:1429:10
	ldr	r0, [sp, #4]
	.loc	6 1429 3 is_stmt 0              @ ../Drivers/STM32F4xx_HAL_Driver/Src/stm32f4xx_hal_can.c:1429:3
	add	sp, #12
	bx	lr
.Ltmp176:
.Lfunc_end12:
	.size	HAL_CAN_GetTxMailboxesFreeLevel, .Lfunc_end12-HAL_CAN_GetTxMailboxesFreeLevel
	.cfi_endproc
	.cantunwind
	.fnend
                                        @ -- End function
	.section	.text.HAL_CAN_IsTxMessagePending,"ax",%progbits
	.hidden	HAL_CAN_IsTxMessagePending      @ -- Begin function HAL_CAN_IsTxMessagePending
	.globl	HAL_CAN_IsTxMessagePending
	.p2align	2
	.type	HAL_CAN_IsTxMessagePending,%function
	.code	16                              @ @HAL_CAN_IsTxMessagePending
	.thumb_func
HAL_CAN_IsTxMessagePending:
.Lfunc_begin13:
	.loc	6 1445 0 is_stmt 1              @ ../Drivers/STM32F4xx_HAL_Driver/Src/stm32f4xx_hal_can.c:1445:0
	.fnstart
	.cfi_startproc
@ %bb.0:
	.pad	#16
	sub	sp, #16
	.cfi_def_cfa_offset 16
	str	r0, [sp, #12]
	str	r1, [sp, #8]
	movs	r0, #0
.Ltmp177:
	.loc	6 1446 12 prologue_end          @ ../Drivers/STM32F4xx_HAL_Driver/Src/stm32f4xx_hal_can.c:1446:12
	str	r0, [sp, #4]
	.loc	6 1447 32                       @ ../Drivers/STM32F4xx_HAL_Driver/Src/stm32f4xx_hal_can.c:1447:32
	ldr	r0, [sp, #12]
	.loc	6 1447 38 is_stmt 0             @ ../Drivers/STM32F4xx_HAL_Driver/Src/stm32f4xx_hal_can.c:1447:38
	ldrb.w	r0, [r0, #32]
	.loc	6 1447 24                       @ ../Drivers/STM32F4xx_HAL_Driver/Src/stm32f4xx_hal_can.c:1447:24
	strb.w	r0, [sp, #3]
.Ltmp178:
	.loc	6 1452 8 is_stmt 1              @ ../Drivers/STM32F4xx_HAL_Driver/Src/stm32f4xx_hal_can.c:1452:8
	ldrb.w	r0, [sp, #3]
	.loc	6 1452 38 is_stmt 0             @ ../Drivers/STM32F4xx_HAL_Driver/Src/stm32f4xx_hal_can.c:1452:38
	cmp	r0, #1
	beq	.LBB13_2
	b	.LBB13_1
.LBB13_1:
	.loc	6 1453 8 is_stmt 1              @ ../Drivers/STM32F4xx_HAL_Driver/Src/stm32f4xx_hal_can.c:1453:8
	ldrb.w	r0, [sp, #3]
.Ltmp179:
	.loc	6 1452 7                        @ ../Drivers/STM32F4xx_HAL_Driver/Src/stm32f4xx_hal_can.c:1452:7
	cmp	r0, #2
	bne	.LBB13_5
	b	.LBB13_2
.LBB13_2:
.Ltmp180:
	.loc	6 1456 10                       @ ../Drivers/STM32F4xx_HAL_Driver/Src/stm32f4xx_hal_can.c:1456:10
	ldr	r0, [sp, #12]
	.loc	6 1456 16 is_stmt 0             @ ../Drivers/STM32F4xx_HAL_Driver/Src/stm32f4xx_hal_can.c:1456:16
	ldr	r0, [r0]
	.loc	6 1456 26                       @ ../Drivers/STM32F4xx_HAL_Driver/Src/stm32f4xx_hal_can.c:1456:26
	ldr	r0, [r0, #8]
	.loc	6 1456 33                       @ ../Drivers/STM32F4xx_HAL_Driver/Src/stm32f4xx_hal_can.c:1456:33
	ldr	r2, [sp, #8]
	.loc	6 1456 45                       @ ../Drivers/STM32F4xx_HAL_Driver/Src/stm32f4xx_hal_can.c:1456:45
	lsls	r1, r2, #26
	.loc	6 1456 30                       @ ../Drivers/STM32F4xx_HAL_Driver/Src/stm32f4xx_hal_can.c:1456:30
	and.w	r0, r0, r2, lsl #26
.Ltmp181:
	.loc	6 1456 9                        @ ../Drivers/STM32F4xx_HAL_Driver/Src/stm32f4xx_hal_can.c:1456:9
	cmp	r0, r1
	beq	.LBB13_4
	b	.LBB13_3
.LBB13_3:
	.loc	6 0 9                           @ ../Drivers/STM32F4xx_HAL_Driver/Src/stm32f4xx_hal_can.c:0:9
	movs	r0, #1
.Ltmp182:
	.loc	6 1458 14 is_stmt 1             @ ../Drivers/STM32F4xx_HAL_Driver/Src/stm32f4xx_hal_can.c:1458:14
	str	r0, [sp, #4]
	.loc	6 1459 5                        @ ../Drivers/STM32F4xx_HAL_Driver/Src/stm32f4xx_hal_can.c:1459:5
	b	.LBB13_4
.Ltmp183:
.LBB13_4:
	.loc	6 1460 3                        @ ../Drivers/STM32F4xx_HAL_Driver/Src/stm32f4xx_hal_can.c:1460:3
	b	.LBB13_5
.Ltmp184:
.LBB13_5:
	.loc	6 1463 10                       @ ../Drivers/STM32F4xx_HAL_Driver/Src/stm32f4xx_hal_can.c:1463:10
	ldr	r0, [sp, #4]
	.loc	6 1463 3 is_stmt 0              @ ../Drivers/STM32F4xx_HAL_Driver/Src/stm32f4xx_hal_can.c:1463:3
	add	sp, #16
	bx	lr
.Ltmp185:
.Lfunc_end13:
	.size	HAL_CAN_IsTxMessagePending, .Lfunc_end13-HAL_CAN_IsTxMessagePending
	.cfi_endproc
	.cantunwind
	.fnend
                                        @ -- End function
	.section	.text.HAL_CAN_GetTxTimestamp,"ax",%progbits
	.hidden	HAL_CAN_GetTxTimestamp          @ -- Begin function HAL_CAN_GetTxTimestamp
	.globl	HAL_CAN_GetTxTimestamp
	.p2align	2
	.type	HAL_CAN_GetTxTimestamp,%function
	.code	16                              @ @HAL_CAN_GetTxTimestamp
	.thumb_func
HAL_CAN_GetTxTimestamp:
.Lfunc_begin14:
	.loc	6 1477 0 is_stmt 1              @ ../Drivers/STM32F4xx_HAL_Driver/Src/stm32f4xx_hal_can.c:1477:0
	.fnstart
	.cfi_startproc
@ %bb.0:
	.pad	#28
	sub	sp, #28
	.cfi_def_cfa_offset 28
	str	r0, [sp, #16]
	str	r1, [sp, #12]
	movs	r0, #0
.Ltmp186:
	.loc	6 1478 12 prologue_end          @ ../Drivers/STM32F4xx_HAL_Driver/Src/stm32f4xx_hal_can.c:1478:12
	str	r0, [sp, #8]
	.loc	6 1480 32                       @ ../Drivers/STM32F4xx_HAL_Driver/Src/stm32f4xx_hal_can.c:1480:32
	ldr	r0, [sp, #16]
	.loc	6 1480 38 is_stmt 0             @ ../Drivers/STM32F4xx_HAL_Driver/Src/stm32f4xx_hal_can.c:1480:38
	ldrb.w	r0, [r0, #32]
	.loc	6 1480 24                       @ ../Drivers/STM32F4xx_HAL_Driver/Src/stm32f4xx_hal_can.c:1480:24
	strb.w	r0, [sp, #3]
.Ltmp187:
	.loc	6 1485 8 is_stmt 1              @ ../Drivers/STM32F4xx_HAL_Driver/Src/stm32f4xx_hal_can.c:1485:8
	ldrb.w	r0, [sp, #3]
	.loc	6 1485 38 is_stmt 0             @ ../Drivers/STM32F4xx_HAL_Driver/Src/stm32f4xx_hal_can.c:1485:38
	cmp	r0, #1
	beq	.LBB14_2
	b	.LBB14_1
.LBB14_1:
	.loc	6 1486 8 is_stmt 1              @ ../Drivers/STM32F4xx_HAL_Driver/Src/stm32f4xx_hal_can.c:1486:8
	ldrb.w	r0, [sp, #3]
.Ltmp188:
	.loc	6 1485 7                        @ ../Drivers/STM32F4xx_HAL_Driver/Src/stm32f4xx_hal_can.c:1485:7
	cmp	r0, #2
	bne	.LBB14_6
	b	.LBB14_2
.LBB14_2:
.Ltmp189:
	.loc	6 1489 49                       @ ../Drivers/STM32F4xx_HAL_Driver/Src/stm32f4xx_hal_can.c:1489:49
	ldr	r0, [sp, #12]
	.loc	6 1489 30 is_stmt 0             @ ../Drivers/STM32F4xx_HAL_Driver/Src/stm32f4xx_hal_can.c:1489:30
	rbit	r0, r0
	str	r0, [sp, #20]
.Ltmp190:
	.file	7 "D:\\horizon\\Horizon_Infantry (2)\\MDK-ARM" "../Drivers/CMSIS/Include/cmsis_armclang.h"
	.loc	7 306 7 is_stmt 1               @ ../Drivers/CMSIS/Include/cmsis_armclang.h:306:7
	ldr	r0, [sp, #20]
.Ltmp191:
	.loc	7 306 7 is_stmt 0               @ ../Drivers/CMSIS/Include/cmsis_armclang.h:306:7
	cbnz	r0, .LBB14_4
	b	.LBB14_3
.LBB14_3:
	.loc	7 0 7                           @ ../Drivers/CMSIS/Include/cmsis_armclang.h:0:7
	movs	r0, #32
.Ltmp192:
	.loc	7 308 5 is_stmt 1               @ ../Drivers/CMSIS/Include/cmsis_armclang.h:308:5
	strb.w	r0, [sp, #27]
	b	.LBB14_5
.Ltmp193:
.LBB14_4:
	.loc	7 310 24                        @ ../Drivers/CMSIS/Include/cmsis_armclang.h:310:24
	ldr	r0, [sp, #20]
	.loc	7 310 10 is_stmt 0              @ ../Drivers/CMSIS/Include/cmsis_armclang.h:310:10
	clz	r0, r0
	.loc	7 310 3                         @ ../Drivers/CMSIS/Include/cmsis_armclang.h:310:3
	strb.w	r0, [sp, #27]
	b	.LBB14_5
.LBB14_5:                               @ %__CLZ.exit
	.loc	7 311 1 is_stmt 1               @ ../Drivers/CMSIS/Include/cmsis_armclang.h:311:1
	ldrb.w	r0, [sp, #27]
.Ltmp194:
	.loc	6 1489 21                       @ ../Drivers/STM32F4xx_HAL_Driver/Src/stm32f4xx_hal_can.c:1489:21
	str	r0, [sp, #4]
	.loc	6 1492 18                       @ ../Drivers/STM32F4xx_HAL_Driver/Src/stm32f4xx_hal_can.c:1492:18
	ldr	r0, [sp, #16]
	.loc	6 1492 24 is_stmt 0             @ ../Drivers/STM32F4xx_HAL_Driver/Src/stm32f4xx_hal_can.c:1492:24
	ldr	r0, [r0]
	.loc	6 1492 45                       @ ../Drivers/STM32F4xx_HAL_Driver/Src/stm32f4xx_hal_can.c:1492:45
	ldr	r1, [sp, #4]
	.loc	6 1492 34                       @ ../Drivers/STM32F4xx_HAL_Driver/Src/stm32f4xx_hal_can.c:1492:34
	add.w	r0, r0, r1, lsl #4
	.loc	6 1492 62                       @ ../Drivers/STM32F4xx_HAL_Driver/Src/stm32f4xx_hal_can.c:1492:62
	ldr.w	r0, [r0, #388]
	.loc	6 1492 90                       @ ../Drivers/STM32F4xx_HAL_Driver/Src/stm32f4xx_hal_can.c:1492:90
	lsrs	r0, r0, #16
	.loc	6 1492 15                       @ ../Drivers/STM32F4xx_HAL_Driver/Src/stm32f4xx_hal_can.c:1492:15
	str	r0, [sp, #8]
	.loc	6 1493 3 is_stmt 1              @ ../Drivers/STM32F4xx_HAL_Driver/Src/stm32f4xx_hal_can.c:1493:3
	b	.LBB14_6
.Ltmp195:
.LBB14_6:
	.loc	6 1496 10                       @ ../Drivers/STM32F4xx_HAL_Driver/Src/stm32f4xx_hal_can.c:1496:10
	ldr	r0, [sp, #8]
	.loc	6 1496 3 is_stmt 0              @ ../Drivers/STM32F4xx_HAL_Driver/Src/stm32f4xx_hal_can.c:1496:3
	add	sp, #28
	bx	lr
.Ltmp196:
.Lfunc_end14:
	.size	HAL_CAN_GetTxTimestamp, .Lfunc_end14-HAL_CAN_GetTxTimestamp
	.cfi_endproc
	.cantunwind
	.fnend
                                        @ -- End function
	.section	.text.HAL_CAN_GetRxMessage,"ax",%progbits
	.hidden	HAL_CAN_GetRxMessage            @ -- Begin function HAL_CAN_GetRxMessage
	.globl	HAL_CAN_GetRxMessage
	.p2align	2
	.type	HAL_CAN_GetRxMessage,%function
	.code	16                              @ @HAL_CAN_GetRxMessage
	.thumb_func
HAL_CAN_GetRxMessage:
.Lfunc_begin15:
	.loc	6 1512 0 is_stmt 1              @ ../Drivers/STM32F4xx_HAL_Driver/Src/stm32f4xx_hal_can.c:1512:0
	.fnstart
	.cfi_startproc
@ %bb.0:
	.pad	#24
	sub	sp, #24
	.cfi_def_cfa_offset 24
	str	r0, [sp, #16]
	str	r1, [sp, #12]
	str	r2, [sp, #8]
	str	r3, [sp, #4]
.Ltmp197:
	.loc	6 1513 32 prologue_end          @ ../Drivers/STM32F4xx_HAL_Driver/Src/stm32f4xx_hal_can.c:1513:32
	ldr	r0, [sp, #16]
	.loc	6 1513 38 is_stmt 0             @ ../Drivers/STM32F4xx_HAL_Driver/Src/stm32f4xx_hal_can.c:1513:38
	ldrb.w	r0, [r0, #32]
	.loc	6 1513 24                       @ ../Drivers/STM32F4xx_HAL_Driver/Src/stm32f4xx_hal_can.c:1513:24
	strb.w	r0, [sp, #3]
.Ltmp198:
	.loc	6 1517 8 is_stmt 1              @ ../Drivers/STM32F4xx_HAL_Driver/Src/stm32f4xx_hal_can.c:1517:8
	ldrb.w	r0, [sp, #3]
	.loc	6 1517 38 is_stmt 0             @ ../Drivers/STM32F4xx_HAL_Driver/Src/stm32f4xx_hal_can.c:1517:38
	cmp	r0, #1
	beq	.LBB15_2
	b	.LBB15_1
.LBB15_1:
	.loc	6 1518 8 is_stmt 1              @ ../Drivers/STM32F4xx_HAL_Driver/Src/stm32f4xx_hal_can.c:1518:8
	ldrb.w	r0, [sp, #3]
.Ltmp199:
	.loc	6 1517 7                        @ ../Drivers/STM32F4xx_HAL_Driver/Src/stm32f4xx_hal_can.c:1517:7
	cmp	r0, #2
	bne.w	.LBB15_19
	b	.LBB15_2
.LBB15_2:
.Ltmp200:
	.loc	6 1521 9                        @ ../Drivers/STM32F4xx_HAL_Driver/Src/stm32f4xx_hal_can.c:1521:9
	ldr	r0, [sp, #12]
.Ltmp201:
	.loc	6 1521 9 is_stmt 0              @ ../Drivers/STM32F4xx_HAL_Driver/Src/stm32f4xx_hal_can.c:1521:9
	cbnz	r0, .LBB15_6
	b	.LBB15_3
.LBB15_3:
.Ltmp202:
	.loc	6 1524 12 is_stmt 1             @ ../Drivers/STM32F4xx_HAL_Driver/Src/stm32f4xx_hal_can.c:1524:12
	ldr	r0, [sp, #16]
	.loc	6 1524 18 is_stmt 0             @ ../Drivers/STM32F4xx_HAL_Driver/Src/stm32f4xx_hal_can.c:1524:18
	ldr	r0, [r0]
	.loc	6 1524 28                       @ ../Drivers/STM32F4xx_HAL_Driver/Src/stm32f4xx_hal_can.c:1524:28
	ldr	r0, [r0, #12]
.Ltmp203:
	.loc	6 1524 11                       @ ../Drivers/STM32F4xx_HAL_Driver/Src/stm32f4xx_hal_can.c:1524:11
	lsls	r0, r0, #30
	cbnz	r0, .LBB15_5
	b	.LBB15_4
.LBB15_4:
.Ltmp204:
	.loc	6 1527 9 is_stmt 1              @ ../Drivers/STM32F4xx_HAL_Driver/Src/stm32f4xx_hal_can.c:1527:9
	ldr	r1, [sp, #16]
	.loc	6 1527 25 is_stmt 0             @ ../Drivers/STM32F4xx_HAL_Driver/Src/stm32f4xx_hal_can.c:1527:25
	ldr	r0, [r1, #36]
	orr	r0, r0, #2097152
	str	r0, [r1, #36]
	movs	r0, #1
	.loc	6 1529 9 is_stmt 1              @ ../Drivers/STM32F4xx_HAL_Driver/Src/stm32f4xx_hal_can.c:1529:9
	strb.w	r0, [sp, #23]
	b	.LBB15_20
.Ltmp205:
.LBB15_5:
	.loc	6 1531 5                        @ ../Drivers/STM32F4xx_HAL_Driver/Src/stm32f4xx_hal_can.c:1531:5
	b	.LBB15_9
.Ltmp206:
.LBB15_6:
	.loc	6 1535 12                       @ ../Drivers/STM32F4xx_HAL_Driver/Src/stm32f4xx_hal_can.c:1535:12
	ldr	r0, [sp, #16]
	.loc	6 1535 18 is_stmt 0             @ ../Drivers/STM32F4xx_HAL_Driver/Src/stm32f4xx_hal_can.c:1535:18
	ldr	r0, [r0]
	.loc	6 1535 28                       @ ../Drivers/STM32F4xx_HAL_Driver/Src/stm32f4xx_hal_can.c:1535:28
	ldr	r0, [r0, #16]
.Ltmp207:
	.loc	6 1535 11                       @ ../Drivers/STM32F4xx_HAL_Driver/Src/stm32f4xx_hal_can.c:1535:11
	lsls	r0, r0, #30
	cbnz	r0, .LBB15_8
	b	.LBB15_7
.LBB15_7:
.Ltmp208:
	.loc	6 1538 9 is_stmt 1              @ ../Drivers/STM32F4xx_HAL_Driver/Src/stm32f4xx_hal_can.c:1538:9
	ldr	r1, [sp, #16]
	.loc	6 1538 25 is_stmt 0             @ ../Drivers/STM32F4xx_HAL_Driver/Src/stm32f4xx_hal_can.c:1538:25
	ldr	r0, [r1, #36]
	orr	r0, r0, #2097152
	str	r0, [r1, #36]
	movs	r0, #1
	.loc	6 1540 9 is_stmt 1              @ ../Drivers/STM32F4xx_HAL_Driver/Src/stm32f4xx_hal_can.c:1540:9
	strb.w	r0, [sp, #23]
	b	.LBB15_20
.Ltmp209:
.LBB15_8:
	.loc	6 0 9 is_stmt 0                 @ ../Drivers/STM32F4xx_HAL_Driver/Src/stm32f4xx_hal_can.c:0:9
	b	.LBB15_9
.LBB15_9:
	.loc	6 1545 38 is_stmt 1             @ ../Drivers/STM32F4xx_HAL_Driver/Src/stm32f4xx_hal_can.c:1545:38
	ldr	r0, [sp, #16]
	.loc	6 1545 44 is_stmt 0             @ ../Drivers/STM32F4xx_HAL_Driver/Src/stm32f4xx_hal_can.c:1545:44
	ldr	r0, [r0]
	.loc	6 1545 67                       @ ../Drivers/STM32F4xx_HAL_Driver/Src/stm32f4xx_hal_can.c:1545:67
	ldr	r1, [sp, #12]
	.loc	6 1545 54                       @ ../Drivers/STM32F4xx_HAL_Driver/Src/stm32f4xx_hal_can.c:1545:54
	add.w	r0, r0, r1, lsl #4
	.loc	6 1545 75                       @ ../Drivers/STM32F4xx_HAL_Driver/Src/stm32f4xx_hal_can.c:1545:75
	ldr.w	r0, [r0, #432]
	.loc	6 1545 36                       @ ../Drivers/STM32F4xx_HAL_Driver/Src/stm32f4xx_hal_can.c:1545:36
	and	r0, r0, #4
	.loc	6 1545 5                        @ ../Drivers/STM32F4xx_HAL_Driver/Src/stm32f4xx_hal_can.c:1545:5
	ldr	r1, [sp, #8]
	.loc	6 1545 18                       @ ../Drivers/STM32F4xx_HAL_Driver/Src/stm32f4xx_hal_can.c:1545:18
	str	r0, [r1, #8]
.Ltmp210:
	.loc	6 1546 9 is_stmt 1              @ ../Drivers/STM32F4xx_HAL_Driver/Src/stm32f4xx_hal_can.c:1546:9
	ldr	r0, [sp, #8]
	.loc	6 1546 18 is_stmt 0             @ ../Drivers/STM32F4xx_HAL_Driver/Src/stm32f4xx_hal_can.c:1546:18
	ldr	r0, [r0, #8]
.Ltmp211:
	.loc	6 1546 9                        @ ../Drivers/STM32F4xx_HAL_Driver/Src/stm32f4xx_hal_can.c:1546:9
	cbnz	r0, .LBB15_11
	b	.LBB15_10
.LBB15_10:
.Ltmp212:
	.loc	6 1548 46 is_stmt 1             @ ../Drivers/STM32F4xx_HAL_Driver/Src/stm32f4xx_hal_can.c:1548:46
	ldr	r0, [sp, #16]
	.loc	6 1548 52 is_stmt 0             @ ../Drivers/STM32F4xx_HAL_Driver/Src/stm32f4xx_hal_can.c:1548:52
	ldr	r0, [r0]
	.loc	6 1548 75                       @ ../Drivers/STM32F4xx_HAL_Driver/Src/stm32f4xx_hal_can.c:1548:75
	ldr	r1, [sp, #12]
	.loc	6 1548 62                       @ ../Drivers/STM32F4xx_HAL_Driver/Src/stm32f4xx_hal_can.c:1548:62
	add.w	r0, r0, r1, lsl #4
	.loc	6 1548 83                       @ ../Drivers/STM32F4xx_HAL_Driver/Src/stm32f4xx_hal_can.c:1548:83
	ldr.w	r0, [r0, #432]
	.loc	6 1548 88                       @ ../Drivers/STM32F4xx_HAL_Driver/Src/stm32f4xx_hal_can.c:1548:88
	lsrs	r0, r0, #21
	.loc	6 1548 7                        @ ../Drivers/STM32F4xx_HAL_Driver/Src/stm32f4xx_hal_can.c:1548:7
	ldr	r1, [sp, #8]
	.loc	6 1548 22                       @ ../Drivers/STM32F4xx_HAL_Driver/Src/stm32f4xx_hal_can.c:1548:22
	str	r0, [r1]
	.loc	6 1549 5 is_stmt 1              @ ../Drivers/STM32F4xx_HAL_Driver/Src/stm32f4xx_hal_can.c:1549:5
	b	.LBB15_12
.Ltmp213:
.LBB15_11:
	.loc	6 1553 25                       @ ../Drivers/STM32F4xx_HAL_Driver/Src/stm32f4xx_hal_can.c:1553:25
	ldr	r0, [sp, #16]
	.loc	6 1553 31 is_stmt 0             @ ../Drivers/STM32F4xx_HAL_Driver/Src/stm32f4xx_hal_can.c:1553:31
	ldr	r0, [r0]
	.loc	6 1553 54                       @ ../Drivers/STM32F4xx_HAL_Driver/Src/stm32f4xx_hal_can.c:1553:54
	ldr	r1, [sp, #12]
	.loc	6 1553 41                       @ ../Drivers/STM32F4xx_HAL_Driver/Src/stm32f4xx_hal_can.c:1553:41
	add.w	r0, r0, r1, lsl #4
	.loc	6 1553 62                       @ ../Drivers/STM32F4xx_HAL_Driver/Src/stm32f4xx_hal_can.c:1553:62
	ldr.w	r0, [r0, #432]
	.loc	6 1553 67                       @ ../Drivers/STM32F4xx_HAL_Driver/Src/stm32f4xx_hal_can.c:1553:67
	lsrs	r0, r0, #3
	.loc	6 1552 7 is_stmt 1              @ ../Drivers/STM32F4xx_HAL_Driver/Src/stm32f4xx_hal_can.c:1552:7
	ldr	r1, [sp, #8]
	.loc	6 1552 22 is_stmt 0             @ ../Drivers/STM32F4xx_HAL_Driver/Src/stm32f4xx_hal_can.c:1552:22
	str	r0, [r1, #4]
	b	.LBB15_12
.Ltmp214:
.LBB15_12:
	.loc	6 1555 39 is_stmt 1             @ ../Drivers/STM32F4xx_HAL_Driver/Src/stm32f4xx_hal_can.c:1555:39
	ldr	r0, [sp, #16]
	.loc	6 1555 45 is_stmt 0             @ ../Drivers/STM32F4xx_HAL_Driver/Src/stm32f4xx_hal_can.c:1555:45
	ldr	r0, [r0]
	.loc	6 1555 68                       @ ../Drivers/STM32F4xx_HAL_Driver/Src/stm32f4xx_hal_can.c:1555:68
	ldr	r1, [sp, #12]
	.loc	6 1555 55                       @ ../Drivers/STM32F4xx_HAL_Driver/Src/stm32f4xx_hal_can.c:1555:55
	add.w	r0, r0, r1, lsl #4
	.loc	6 1555 76                       @ ../Drivers/STM32F4xx_HAL_Driver/Src/stm32f4xx_hal_can.c:1555:76
	ldr.w	r0, [r0, #432]
	.loc	6 1555 37                       @ ../Drivers/STM32F4xx_HAL_Driver/Src/stm32f4xx_hal_can.c:1555:37
	and	r0, r0, #2
	.loc	6 1555 5                        @ ../Drivers/STM32F4xx_HAL_Driver/Src/stm32f4xx_hal_can.c:1555:5
	ldr	r1, [sp, #8]
	.loc	6 1555 18                       @ ../Drivers/STM32F4xx_HAL_Driver/Src/stm32f4xx_hal_can.c:1555:18
	str	r0, [r1, #12]
.Ltmp215:
	.loc	6 1556 29 is_stmt 1             @ ../Drivers/STM32F4xx_HAL_Driver/Src/stm32f4xx_hal_can.c:1556:29
	ldr	r0, [sp, #16]
	.loc	6 1556 35 is_stmt 0             @ ../Drivers/STM32F4xx_HAL_Driver/Src/stm32f4xx_hal_can.c:1556:35
	ldr	r0, [r0]
	.loc	6 1556 58                       @ ../Drivers/STM32F4xx_HAL_Driver/Src/stm32f4xx_hal_can.c:1556:58
	ldr	r1, [sp, #12]
	.loc	6 1556 45                       @ ../Drivers/STM32F4xx_HAL_Driver/Src/stm32f4xx_hal_can.c:1556:45
	add.w	r0, r0, r1, lsl #4
	.loc	6 1556 66                       @ ../Drivers/STM32F4xx_HAL_Driver/Src/stm32f4xx_hal_can.c:1556:66
	ldr.w	r0, [r0, #436]
	.loc	6 1556 27                       @ ../Drivers/STM32F4xx_HAL_Driver/Src/stm32f4xx_hal_can.c:1556:27
	and	r0, r0, #15
.Ltmp216:
	.loc	6 1556 9                        @ ../Drivers/STM32F4xx_HAL_Driver/Src/stm32f4xx_hal_can.c:1556:9
	cmp	r0, #8
	blo	.LBB15_14
	b	.LBB15_13
.LBB15_13:
.Ltmp217:
	.loc	6 1559 7 is_stmt 1              @ ../Drivers/STM32F4xx_HAL_Driver/Src/stm32f4xx_hal_can.c:1559:7
	ldr	r1, [sp, #8]
	movs	r0, #8
	.loc	6 1559 20 is_stmt 0             @ ../Drivers/STM32F4xx_HAL_Driver/Src/stm32f4xx_hal_can.c:1559:20
	str	r0, [r1, #16]
	.loc	6 1560 5 is_stmt 1              @ ../Drivers/STM32F4xx_HAL_Driver/Src/stm32f4xx_hal_can.c:1560:5
	b	.LBB15_15
.Ltmp218:
.LBB15_14:
	.loc	6 1563 41                       @ ../Drivers/STM32F4xx_HAL_Driver/Src/stm32f4xx_hal_can.c:1563:41
	ldr	r0, [sp, #16]
	.loc	6 1563 47 is_stmt 0             @ ../Drivers/STM32F4xx_HAL_Driver/Src/stm32f4xx_hal_can.c:1563:47
	ldr	r0, [r0]
	.loc	6 1563 70                       @ ../Drivers/STM32F4xx_HAL_Driver/Src/stm32f4xx_hal_can.c:1563:70
	ldr	r1, [sp, #12]
	.loc	6 1563 57                       @ ../Drivers/STM32F4xx_HAL_Driver/Src/stm32f4xx_hal_can.c:1563:57
	add.w	r0, r0, r1, lsl #4
	.loc	6 1563 78                       @ ../Drivers/STM32F4xx_HAL_Driver/Src/stm32f4xx_hal_can.c:1563:78
	ldr.w	r0, [r0, #436]
	.loc	6 1563 39                       @ ../Drivers/STM32F4xx_HAL_Driver/Src/stm32f4xx_hal_can.c:1563:39
	and	r0, r0, #15
	.loc	6 1563 7                        @ ../Drivers/STM32F4xx_HAL_Driver/Src/stm32f4xx_hal_can.c:1563:7
	ldr	r1, [sp, #8]
	.loc	6 1563 20                       @ ../Drivers/STM32F4xx_HAL_Driver/Src/stm32f4xx_hal_can.c:1563:20
	str	r0, [r1, #16]
	b	.LBB15_15
.Ltmp219:
.LBB15_15:
	.loc	6 1565 53 is_stmt 1             @ ../Drivers/STM32F4xx_HAL_Driver/Src/stm32f4xx_hal_can.c:1565:53
	ldr	r0, [sp, #16]
	.loc	6 1565 59 is_stmt 0             @ ../Drivers/STM32F4xx_HAL_Driver/Src/stm32f4xx_hal_can.c:1565:59
	ldr	r0, [r0]
	.loc	6 1565 82                       @ ../Drivers/STM32F4xx_HAL_Driver/Src/stm32f4xx_hal_can.c:1565:82
	ldr	r1, [sp, #12]
	.loc	6 1565 69                       @ ../Drivers/STM32F4xx_HAL_Driver/Src/stm32f4xx_hal_can.c:1565:69
	add.w	r0, r0, r1, lsl #4
	.loc	6 1565 90                       @ ../Drivers/STM32F4xx_HAL_Driver/Src/stm32f4xx_hal_can.c:1565:90
	ldr.w	r0, [r0, #436]
	.loc	6 1565 51                       @ ../Drivers/STM32F4xx_HAL_Driver/Src/stm32f4xx_hal_can.c:1565:51
	uxth	r0, r0
	.loc	6 1565 96                       @ ../Drivers/STM32F4xx_HAL_Driver/Src/stm32f4xx_hal_can.c:1565:96
	lsrs	r0, r0, #8
	.loc	6 1565 5                        @ ../Drivers/STM32F4xx_HAL_Driver/Src/stm32f4xx_hal_can.c:1565:5
	ldr	r1, [sp, #8]
	.loc	6 1565 31                       @ ../Drivers/STM32F4xx_HAL_Driver/Src/stm32f4xx_hal_can.c:1565:31
	str	r0, [r1, #24]
	.loc	6 1566 49 is_stmt 1             @ ../Drivers/STM32F4xx_HAL_Driver/Src/stm32f4xx_hal_can.c:1566:49
	ldr	r0, [sp, #16]
	.loc	6 1566 55 is_stmt 0             @ ../Drivers/STM32F4xx_HAL_Driver/Src/stm32f4xx_hal_can.c:1566:55
	ldr	r0, [r0]
	.loc	6 1566 78                       @ ../Drivers/STM32F4xx_HAL_Driver/Src/stm32f4xx_hal_can.c:1566:78
	ldr	r1, [sp, #12]
	.loc	6 1566 65                       @ ../Drivers/STM32F4xx_HAL_Driver/Src/stm32f4xx_hal_can.c:1566:65
	add.w	r0, r0, r1, lsl #4
	.loc	6 1566 86                       @ ../Drivers/STM32F4xx_HAL_Driver/Src/stm32f4xx_hal_can.c:1566:86
	ldr.w	r0, [r0, #436]
	.loc	6 1566 92                       @ ../Drivers/STM32F4xx_HAL_Driver/Src/stm32f4xx_hal_can.c:1566:92
	lsrs	r0, r0, #16
	.loc	6 1566 5                        @ ../Drivers/STM32F4xx_HAL_Driver/Src/stm32f4xx_hal_can.c:1566:5
	ldr	r1, [sp, #8]
	.loc	6 1566 24                       @ ../Drivers/STM32F4xx_HAL_Driver/Src/stm32f4xx_hal_can.c:1566:24
	str	r0, [r1, #20]
	.loc	6 1569 46 is_stmt 1             @ ../Drivers/STM32F4xx_HAL_Driver/Src/stm32f4xx_hal_can.c:1569:46
	ldr	r0, [sp, #16]
	.loc	6 1569 52 is_stmt 0             @ ../Drivers/STM32F4xx_HAL_Driver/Src/stm32f4xx_hal_can.c:1569:52
	ldr	r0, [r0]
	.loc	6 1569 75                       @ ../Drivers/STM32F4xx_HAL_Driver/Src/stm32f4xx_hal_can.c:1569:75
	ldr	r1, [sp, #12]
	.loc	6 1569 62                       @ ../Drivers/STM32F4xx_HAL_Driver/Src/stm32f4xx_hal_can.c:1569:62
	add.w	r0, r0, r1, lsl #4
	.loc	6 1569 83                       @ ../Drivers/STM32F4xx_HAL_Driver/Src/stm32f4xx_hal_can.c:1569:83
	ldr.w	r0, [r0, #440]
	.loc	6 1569 5                        @ ../Drivers/STM32F4xx_HAL_Driver/Src/stm32f4xx_hal_can.c:1569:5
	ldr	r1, [sp, #4]
	.loc	6 1569 14                       @ ../Drivers/STM32F4xx_HAL_Driver/Src/stm32f4xx_hal_can.c:1569:14
	strb	r0, [r1]
	.loc	6 1570 46 is_stmt 1             @ ../Drivers/STM32F4xx_HAL_Driver/Src/stm32f4xx_hal_can.c:1570:46
	ldr	r0, [sp, #16]
	.loc	6 1570 52 is_stmt 0             @ ../Drivers/STM32F4xx_HAL_Driver/Src/stm32f4xx_hal_can.c:1570:52
	ldr	r0, [r0]
	.loc	6 1570 75                       @ ../Drivers/STM32F4xx_HAL_Driver/Src/stm32f4xx_hal_can.c:1570:75
	ldr	r1, [sp, #12]
	.loc	6 1570 62                       @ ../Drivers/STM32F4xx_HAL_Driver/Src/stm32f4xx_hal_can.c:1570:62
	add.w	r0, r0, r1, lsl #4
	.loc	6 1570 83                       @ ../Drivers/STM32F4xx_HAL_Driver/Src/stm32f4xx_hal_can.c:1570:83
	ldr.w	r0, [r0, #440]
	.loc	6 1570 89                       @ ../Drivers/STM32F4xx_HAL_Driver/Src/stm32f4xx_hal_can.c:1570:89
	lsrs	r0, r0, #8
	.loc	6 1570 5                        @ ../Drivers/STM32F4xx_HAL_Driver/Src/stm32f4xx_hal_can.c:1570:5
	ldr	r1, [sp, #4]
	.loc	6 1570 14                       @ ../Drivers/STM32F4xx_HAL_Driver/Src/stm32f4xx_hal_can.c:1570:14
	strb	r0, [r1, #1]
	.loc	6 1571 47 is_stmt 1             @ ../Drivers/STM32F4xx_HAL_Driver/Src/stm32f4xx_hal_can.c:1571:47
	ldr	r0, [sp, #16]
	.loc	6 1571 53 is_stmt 0             @ ../Drivers/STM32F4xx_HAL_Driver/Src/stm32f4xx_hal_can.c:1571:53
	ldr	r0, [r0]
	.loc	6 1571 76                       @ ../Drivers/STM32F4xx_HAL_Driver/Src/stm32f4xx_hal_can.c:1571:76
	ldr	r1, [sp, #12]
	.loc	6 1571 63                       @ ../Drivers/STM32F4xx_HAL_Driver/Src/stm32f4xx_hal_can.c:1571:63
	add.w	r0, r0, r1, lsl #4
	.loc	6 1571 84                       @ ../Drivers/STM32F4xx_HAL_Driver/Src/stm32f4xx_hal_can.c:1571:84
	ldr.w	r0, [r0, #440]
	.loc	6 1571 90                       @ ../Drivers/STM32F4xx_HAL_Driver/Src/stm32f4xx_hal_can.c:1571:90
	lsrs	r0, r0, #16
	.loc	6 1571 5                        @ ../Drivers/STM32F4xx_HAL_Driver/Src/stm32f4xx_hal_can.c:1571:5
	ldr	r1, [sp, #4]
	.loc	6 1571 14                       @ ../Drivers/STM32F4xx_HAL_Driver/Src/stm32f4xx_hal_can.c:1571:14
	strb	r0, [r1, #2]
	.loc	6 1572 47 is_stmt 1             @ ../Drivers/STM32F4xx_HAL_Driver/Src/stm32f4xx_hal_can.c:1572:47
	ldr	r0, [sp, #16]
	.loc	6 1572 53 is_stmt 0             @ ../Drivers/STM32F4xx_HAL_Driver/Src/stm32f4xx_hal_can.c:1572:53
	ldr	r0, [r0]
	.loc	6 1572 76                       @ ../Drivers/STM32F4xx_HAL_Driver/Src/stm32f4xx_hal_can.c:1572:76
	ldr	r1, [sp, #12]
	.loc	6 1572 63                       @ ../Drivers/STM32F4xx_HAL_Driver/Src/stm32f4xx_hal_can.c:1572:63
	add.w	r0, r0, r1, lsl #4
	.loc	6 1572 84                       @ ../Drivers/STM32F4xx_HAL_Driver/Src/stm32f4xx_hal_can.c:1572:84
	ldr.w	r0, [r0, #440]
	.loc	6 1572 90                       @ ../Drivers/STM32F4xx_HAL_Driver/Src/stm32f4xx_hal_can.c:1572:90
	lsrs	r0, r0, #24
	.loc	6 1572 5                        @ ../Drivers/STM32F4xx_HAL_Driver/Src/stm32f4xx_hal_can.c:1572:5
	ldr	r1, [sp, #4]
	.loc	6 1572 14                       @ ../Drivers/STM32F4xx_HAL_Driver/Src/stm32f4xx_hal_can.c:1572:14
	strb	r0, [r1, #3]
	.loc	6 1573 46 is_stmt 1             @ ../Drivers/STM32F4xx_HAL_Driver/Src/stm32f4xx_hal_can.c:1573:46
	ldr	r0, [sp, #16]
	.loc	6 1573 52 is_stmt 0             @ ../Drivers/STM32F4xx_HAL_Driver/Src/stm32f4xx_hal_can.c:1573:52
	ldr	r0, [r0]
	.loc	6 1573 75                       @ ../Drivers/STM32F4xx_HAL_Driver/Src/stm32f4xx_hal_can.c:1573:75
	ldr	r1, [sp, #12]
	.loc	6 1573 62                       @ ../Drivers/STM32F4xx_HAL_Driver/Src/stm32f4xx_hal_can.c:1573:62
	add.w	r0, r0, r1, lsl #4
	.loc	6 1573 83                       @ ../Drivers/STM32F4xx_HAL_Driver/Src/stm32f4xx_hal_can.c:1573:83
	ldr.w	r0, [r0, #444]
	.loc	6 1573 5                        @ ../Drivers/STM32F4xx_HAL_Driver/Src/stm32f4xx_hal_can.c:1573:5
	ldr	r1, [sp, #4]
	.loc	6 1573 14                       @ ../Drivers/STM32F4xx_HAL_Driver/Src/stm32f4xx_hal_can.c:1573:14
	strb	r0, [r1, #4]
	.loc	6 1574 46 is_stmt 1             @ ../Drivers/STM32F4xx_HAL_Driver/Src/stm32f4xx_hal_can.c:1574:46
	ldr	r0, [sp, #16]
	.loc	6 1574 52 is_stmt 0             @ ../Drivers/STM32F4xx_HAL_Driver/Src/stm32f4xx_hal_can.c:1574:52
	ldr	r0, [r0]
	.loc	6 1574 75                       @ ../Drivers/STM32F4xx_HAL_Driver/Src/stm32f4xx_hal_can.c:1574:75
	ldr	r1, [sp, #12]
	.loc	6 1574 62                       @ ../Drivers/STM32F4xx_HAL_Driver/Src/stm32f4xx_hal_can.c:1574:62
	add.w	r0, r0, r1, lsl #4
	.loc	6 1574 83                       @ ../Drivers/STM32F4xx_HAL_Driver/Src/stm32f4xx_hal_can.c:1574:83
	ldr.w	r0, [r0, #444]
	.loc	6 1574 89                       @ ../Drivers/STM32F4xx_HAL_Driver/Src/stm32f4xx_hal_can.c:1574:89
	lsrs	r0, r0, #8
	.loc	6 1574 5                        @ ../Drivers/STM32F4xx_HAL_Driver/Src/stm32f4xx_hal_can.c:1574:5
	ldr	r1, [sp, #4]
	.loc	6 1574 14                       @ ../Drivers/STM32F4xx_HAL_Driver/Src/stm32f4xx_hal_can.c:1574:14
	strb	r0, [r1, #5]
	.loc	6 1575 47 is_stmt 1             @ ../Drivers/STM32F4xx_HAL_Driver/Src/stm32f4xx_hal_can.c:1575:47
	ldr	r0, [sp, #16]
	.loc	6 1575 53 is_stmt 0             @ ../Drivers/STM32F4xx_HAL_Driver/Src/stm32f4xx_hal_can.c:1575:53
	ldr	r0, [r0]
	.loc	6 1575 76                       @ ../Drivers/STM32F4xx_HAL_Driver/Src/stm32f4xx_hal_can.c:1575:76
	ldr	r1, [sp, #12]
	.loc	6 1575 63                       @ ../Drivers/STM32F4xx_HAL_Driver/Src/stm32f4xx_hal_can.c:1575:63
	add.w	r0, r0, r1, lsl #4
	.loc	6 1575 84                       @ ../Drivers/STM32F4xx_HAL_Driver/Src/stm32f4xx_hal_can.c:1575:84
	ldr.w	r0, [r0, #444]
	.loc	6 1575 90                       @ ../Drivers/STM32F4xx_HAL_Driver/Src/stm32f4xx_hal_can.c:1575:90
	lsrs	r0, r0, #16
	.loc	6 1575 5                        @ ../Drivers/STM32F4xx_HAL_Driver/Src/stm32f4xx_hal_can.c:1575:5
	ldr	r1, [sp, #4]
	.loc	6 1575 14                       @ ../Drivers/STM32F4xx_HAL_Driver/Src/stm32f4xx_hal_can.c:1575:14
	strb	r0, [r1, #6]
	.loc	6 1576 47 is_stmt 1             @ ../Drivers/STM32F4xx_HAL_Driver/Src/stm32f4xx_hal_can.c:1576:47
	ldr	r0, [sp, #16]
	.loc	6 1576 53 is_stmt 0             @ ../Drivers/STM32F4xx_HAL_Driver/Src/stm32f4xx_hal_can.c:1576:53
	ldr	r0, [r0]
	.loc	6 1576 76                       @ ../Drivers/STM32F4xx_HAL_Driver/Src/stm32f4xx_hal_can.c:1576:76
	ldr	r1, [sp, #12]
	.loc	6 1576 63                       @ ../Drivers/STM32F4xx_HAL_Driver/Src/stm32f4xx_hal_can.c:1576:63
	add.w	r0, r0, r1, lsl #4
	.loc	6 1576 84                       @ ../Drivers/STM32F4xx_HAL_Driver/Src/stm32f4xx_hal_can.c:1576:84
	ldr.w	r0, [r0, #444]
	.loc	6 1576 90                       @ ../Drivers/STM32F4xx_HAL_Driver/Src/stm32f4xx_hal_can.c:1576:90
	lsrs	r0, r0, #24
	.loc	6 1576 5                        @ ../Drivers/STM32F4xx_HAL_Driver/Src/stm32f4xx_hal_can.c:1576:5
	ldr	r1, [sp, #4]
	.loc	6 1576 14                       @ ../Drivers/STM32F4xx_HAL_Driver/Src/stm32f4xx_hal_can.c:1576:14
	strb	r0, [r1, #7]
.Ltmp220:
	.loc	6 1579 9 is_stmt 1              @ ../Drivers/STM32F4xx_HAL_Driver/Src/stm32f4xx_hal_can.c:1579:9
	ldr	r0, [sp, #12]
.Ltmp221:
	.loc	6 1579 9 is_stmt 0              @ ../Drivers/STM32F4xx_HAL_Driver/Src/stm32f4xx_hal_can.c:1579:9
	cbnz	r0, .LBB15_17
	b	.LBB15_16
.LBB15_16:
.Ltmp222:
	.loc	6 1582 9 is_stmt 1              @ ../Drivers/STM32F4xx_HAL_Driver/Src/stm32f4xx_hal_can.c:1582:9
	ldr	r0, [sp, #16]
	.loc	6 1582 15 is_stmt 0             @ ../Drivers/STM32F4xx_HAL_Driver/Src/stm32f4xx_hal_can.c:1582:15
	ldr	r1, [r0]
	.loc	6 1582 31                       @ ../Drivers/STM32F4xx_HAL_Driver/Src/stm32f4xx_hal_can.c:1582:31
	ldr	r0, [r1, #12]
	orr	r0, r0, #32
	str	r0, [r1, #12]
	.loc	6 1583 5 is_stmt 1              @ ../Drivers/STM32F4xx_HAL_Driver/Src/stm32f4xx_hal_can.c:1583:5
	b	.LBB15_18
.Ltmp223:
.LBB15_17:
	.loc	6 1587 9                        @ ../Drivers/STM32F4xx_HAL_Driver/Src/stm32f4xx_hal_can.c:1587:9
	ldr	r0, [sp, #16]
	.loc	6 1587 15 is_stmt 0             @ ../Drivers/STM32F4xx_HAL_Driver/Src/stm32f4xx_hal_can.c:1587:15
	ldr	r1, [r0]
	.loc	6 1587 31                       @ ../Drivers/STM32F4xx_HAL_Driver/Src/stm32f4xx_hal_can.c:1587:31
	ldr	r0, [r1, #16]
	orr	r0, r0, #32
	str	r0, [r1, #16]
	b	.LBB15_18
.Ltmp224:
.LBB15_18:
	.loc	6 0 31                          @ ../Drivers/STM32F4xx_HAL_Driver/Src/stm32f4xx_hal_can.c:0:31
	movs	r0, #0
	.loc	6 1591 5 is_stmt 1              @ ../Drivers/STM32F4xx_HAL_Driver/Src/stm32f4xx_hal_can.c:1591:5
	strb.w	r0, [sp, #23]
	b	.LBB15_20
.Ltmp225:
.LBB15_19:
	.loc	6 1596 5                        @ ../Drivers/STM32F4xx_HAL_Driver/Src/stm32f4xx_hal_can.c:1596:5
	ldr	r1, [sp, #16]
	.loc	6 1596 21 is_stmt 0             @ ../Drivers/STM32F4xx_HAL_Driver/Src/stm32f4xx_hal_can.c:1596:21
	ldr	r0, [r1, #36]
	orr	r0, r0, #262144
	str	r0, [r1, #36]
	movs	r0, #1
	.loc	6 1598 5 is_stmt 1              @ ../Drivers/STM32F4xx_HAL_Driver/Src/stm32f4xx_hal_can.c:1598:5
	strb.w	r0, [sp, #23]
	b	.LBB15_20
.Ltmp226:
.LBB15_20:
	.loc	6 1600 1                        @ ../Drivers/STM32F4xx_HAL_Driver/Src/stm32f4xx_hal_can.c:1600:1
	ldrb.w	r0, [sp, #23]
	add	sp, #24
	bx	lr
.Ltmp227:
.Lfunc_end15:
	.size	HAL_CAN_GetRxMessage, .Lfunc_end15-HAL_CAN_GetRxMessage
	.cfi_endproc
	.cantunwind
	.fnend
                                        @ -- End function
	.section	.text.HAL_CAN_GetRxFifoFillLevel,"ax",%progbits
	.hidden	HAL_CAN_GetRxFifoFillLevel      @ -- Begin function HAL_CAN_GetRxFifoFillLevel
	.globl	HAL_CAN_GetRxFifoFillLevel
	.p2align	2
	.type	HAL_CAN_GetRxFifoFillLevel,%function
	.code	16                              @ @HAL_CAN_GetRxFifoFillLevel
	.thumb_func
HAL_CAN_GetRxFifoFillLevel:
.Lfunc_begin16:
	.loc	6 1611 0                        @ ../Drivers/STM32F4xx_HAL_Driver/Src/stm32f4xx_hal_can.c:1611:0
	.fnstart
	.cfi_startproc
@ %bb.0:
	.pad	#16
	sub	sp, #16
	.cfi_def_cfa_offset 16
	str	r0, [sp, #12]
	str	r1, [sp, #8]
	movs	r0, #0
.Ltmp228:
	.loc	6 1612 12 prologue_end          @ ../Drivers/STM32F4xx_HAL_Driver/Src/stm32f4xx_hal_can.c:1612:12
	str	r0, [sp, #4]
	.loc	6 1613 32                       @ ../Drivers/STM32F4xx_HAL_Driver/Src/stm32f4xx_hal_can.c:1613:32
	ldr	r0, [sp, #12]
	.loc	6 1613 38 is_stmt 0             @ ../Drivers/STM32F4xx_HAL_Driver/Src/stm32f4xx_hal_can.c:1613:38
	ldrb.w	r0, [r0, #32]
	.loc	6 1613 24                       @ ../Drivers/STM32F4xx_HAL_Driver/Src/stm32f4xx_hal_can.c:1613:24
	strb.w	r0, [sp, #3]
.Ltmp229:
	.loc	6 1618 8 is_stmt 1              @ ../Drivers/STM32F4xx_HAL_Driver/Src/stm32f4xx_hal_can.c:1618:8
	ldrb.w	r0, [sp, #3]
	.loc	6 1618 38 is_stmt 0             @ ../Drivers/STM32F4xx_HAL_Driver/Src/stm32f4xx_hal_can.c:1618:38
	cmp	r0, #1
	beq	.LBB16_2
	b	.LBB16_1
.LBB16_1:
	.loc	6 1619 8 is_stmt 1              @ ../Drivers/STM32F4xx_HAL_Driver/Src/stm32f4xx_hal_can.c:1619:8
	ldrb.w	r0, [sp, #3]
.Ltmp230:
	.loc	6 1618 7                        @ ../Drivers/STM32F4xx_HAL_Driver/Src/stm32f4xx_hal_can.c:1618:7
	cmp	r0, #2
	bne	.LBB16_6
	b	.LBB16_2
.LBB16_2:
.Ltmp231:
	.loc	6 1621 9                        @ ../Drivers/STM32F4xx_HAL_Driver/Src/stm32f4xx_hal_can.c:1621:9
	ldr	r0, [sp, #8]
.Ltmp232:
	.loc	6 1621 9 is_stmt 0              @ ../Drivers/STM32F4xx_HAL_Driver/Src/stm32f4xx_hal_can.c:1621:9
	cbnz	r0, .LBB16_4
	b	.LBB16_3
.LBB16_3:
.Ltmp233:
	.loc	6 1623 19 is_stmt 1             @ ../Drivers/STM32F4xx_HAL_Driver/Src/stm32f4xx_hal_can.c:1623:19
	ldr	r0, [sp, #12]
	.loc	6 1623 25 is_stmt 0             @ ../Drivers/STM32F4xx_HAL_Driver/Src/stm32f4xx_hal_can.c:1623:25
	ldr	r0, [r0]
	.loc	6 1623 35                       @ ../Drivers/STM32F4xx_HAL_Driver/Src/stm32f4xx_hal_can.c:1623:35
	ldr	r0, [r0, #12]
	.loc	6 1623 40                       @ ../Drivers/STM32F4xx_HAL_Driver/Src/stm32f4xx_hal_can.c:1623:40
	and	r0, r0, #3
	.loc	6 1623 17                       @ ../Drivers/STM32F4xx_HAL_Driver/Src/stm32f4xx_hal_can.c:1623:17
	str	r0, [sp, #4]
	.loc	6 1624 5 is_stmt 1              @ ../Drivers/STM32F4xx_HAL_Driver/Src/stm32f4xx_hal_can.c:1624:5
	b	.LBB16_5
.Ltmp234:
.LBB16_4:
	.loc	6 1627 19                       @ ../Drivers/STM32F4xx_HAL_Driver/Src/stm32f4xx_hal_can.c:1627:19
	ldr	r0, [sp, #12]
	.loc	6 1627 25 is_stmt 0             @ ../Drivers/STM32F4xx_HAL_Driver/Src/stm32f4xx_hal_can.c:1627:25
	ldr	r0, [r0]
	.loc	6 1627 35                       @ ../Drivers/STM32F4xx_HAL_Driver/Src/stm32f4xx_hal_can.c:1627:35
	ldr	r0, [r0, #16]
	.loc	6 1627 40                       @ ../Drivers/STM32F4xx_HAL_Driver/Src/stm32f4xx_hal_can.c:1627:40
	and	r0, r0, #3
	.loc	6 1627 17                       @ ../Drivers/STM32F4xx_HAL_Driver/Src/stm32f4xx_hal_can.c:1627:17
	str	r0, [sp, #4]
	b	.LBB16_5
.Ltmp235:
.LBB16_5:
	.loc	6 1629 3 is_stmt 1              @ ../Drivers/STM32F4xx_HAL_Driver/Src/stm32f4xx_hal_can.c:1629:3
	b	.LBB16_6
.Ltmp236:
.LBB16_6:
	.loc	6 1632 10                       @ ../Drivers/STM32F4xx_HAL_Driver/Src/stm32f4xx_hal_can.c:1632:10
	ldr	r0, [sp, #4]
	.loc	6 1632 3 is_stmt 0              @ ../Drivers/STM32F4xx_HAL_Driver/Src/stm32f4xx_hal_can.c:1632:3
	add	sp, #16
	bx	lr
.Ltmp237:
.Lfunc_end16:
	.size	HAL_CAN_GetRxFifoFillLevel, .Lfunc_end16-HAL_CAN_GetRxFifoFillLevel
	.cfi_endproc
	.cantunwind
	.fnend
                                        @ -- End function
	.section	.text.HAL_CAN_ActivateNotification,"ax",%progbits
	.hidden	HAL_CAN_ActivateNotification    @ -- Begin function HAL_CAN_ActivateNotification
	.globl	HAL_CAN_ActivateNotification
	.p2align	2
	.type	HAL_CAN_ActivateNotification,%function
	.code	16                              @ @HAL_CAN_ActivateNotification
	.thumb_func
HAL_CAN_ActivateNotification:
.Lfunc_begin17:
	.loc	6 1664 0 is_stmt 1              @ ../Drivers/STM32F4xx_HAL_Driver/Src/stm32f4xx_hal_can.c:1664:0
	.fnstart
	.cfi_startproc
@ %bb.0:
	.pad	#16
	sub	sp, #16
	.cfi_def_cfa_offset 16
	str	r0, [sp, #8]
	str	r1, [sp, #4]
.Ltmp238:
	.loc	6 1665 32 prologue_end          @ ../Drivers/STM32F4xx_HAL_Driver/Src/stm32f4xx_hal_can.c:1665:32
	ldr	r0, [sp, #8]
	.loc	6 1665 38 is_stmt 0             @ ../Drivers/STM32F4xx_HAL_Driver/Src/stm32f4xx_hal_can.c:1665:38
	ldrb.w	r0, [r0, #32]
	.loc	6 1665 24                       @ ../Drivers/STM32F4xx_HAL_Driver/Src/stm32f4xx_hal_can.c:1665:24
	strb.w	r0, [sp, #3]
.Ltmp239:
	.loc	6 1670 8 is_stmt 1              @ ../Drivers/STM32F4xx_HAL_Driver/Src/stm32f4xx_hal_can.c:1670:8
	ldrb.w	r0, [sp, #3]
	.loc	6 1670 38 is_stmt 0             @ ../Drivers/STM32F4xx_HAL_Driver/Src/stm32f4xx_hal_can.c:1670:38
	cmp	r0, #1
	beq	.LBB17_2
	b	.LBB17_1
.LBB17_1:
	.loc	6 1671 8 is_stmt 1              @ ../Drivers/STM32F4xx_HAL_Driver/Src/stm32f4xx_hal_can.c:1671:8
	ldrb.w	r0, [sp, #3]
.Ltmp240:
	.loc	6 1670 7                        @ ../Drivers/STM32F4xx_HAL_Driver/Src/stm32f4xx_hal_can.c:1670:7
	cmp	r0, #2
	bne	.LBB17_3
	b	.LBB17_2
.LBB17_2:
.Ltmp241:
	.loc	6 1674 34                       @ ../Drivers/STM32F4xx_HAL_Driver/Src/stm32f4xx_hal_can.c:1674:34
	ldr	r2, [sp, #4]
	.loc	6 1674 8 is_stmt 0              @ ../Drivers/STM32F4xx_HAL_Driver/Src/stm32f4xx_hal_can.c:1674:8
	ldr	r0, [sp, #8]
	.loc	6 1674 15                       @ ../Drivers/STM32F4xx_HAL_Driver/Src/stm32f4xx_hal_can.c:1674:15
	ldr	r1, [r0]
	.loc	6 1674 30                       @ ../Drivers/STM32F4xx_HAL_Driver/Src/stm32f4xx_hal_can.c:1674:30
	ldr	r0, [r1, #20]
	orrs	r0, r2
	str	r0, [r1, #20]
	movs	r0, #0
	.loc	6 1677 5 is_stmt 1              @ ../Drivers/STM32F4xx_HAL_Driver/Src/stm32f4xx_hal_can.c:1677:5
	strb.w	r0, [sp, #15]
	b	.LBB17_4
.Ltmp242:
.LBB17_3:
	.loc	6 1682 5                        @ ../Drivers/STM32F4xx_HAL_Driver/Src/stm32f4xx_hal_can.c:1682:5
	ldr	r1, [sp, #8]
	.loc	6 1682 21 is_stmt 0             @ ../Drivers/STM32F4xx_HAL_Driver/Src/stm32f4xx_hal_can.c:1682:21
	ldr	r0, [r1, #36]
	orr	r0, r0, #262144
	str	r0, [r1, #36]
	movs	r0, #1
	.loc	6 1684 5 is_stmt 1              @ ../Drivers/STM32F4xx_HAL_Driver/Src/stm32f4xx_hal_can.c:1684:5
	strb.w	r0, [sp, #15]
	b	.LBB17_4
.Ltmp243:
.LBB17_4:
	.loc	6 1686 1                        @ ../Drivers/STM32F4xx_HAL_Driver/Src/stm32f4xx_hal_can.c:1686:1
	ldrb.w	r0, [sp, #15]
	add	sp, #16
	bx	lr
.Ltmp244:
.Lfunc_end17:
	.size	HAL_CAN_ActivateNotification, .Lfunc_end17-HAL_CAN_ActivateNotification
	.cfi_endproc
	.cantunwind
	.fnend
                                        @ -- End function
	.section	.text.HAL_CAN_DeactivateNotification,"ax",%progbits
	.hidden	HAL_CAN_DeactivateNotification  @ -- Begin function HAL_CAN_DeactivateNotification
	.globl	HAL_CAN_DeactivateNotification
	.p2align	2
	.type	HAL_CAN_DeactivateNotification,%function
	.code	16                              @ @HAL_CAN_DeactivateNotification
	.thumb_func
HAL_CAN_DeactivateNotification:
.Lfunc_begin18:
	.loc	6 1697 0                        @ ../Drivers/STM32F4xx_HAL_Driver/Src/stm32f4xx_hal_can.c:1697:0
	.fnstart
	.cfi_startproc
@ %bb.0:
	.pad	#16
	sub	sp, #16
	.cfi_def_cfa_offset 16
	str	r0, [sp, #8]
	str	r1, [sp, #4]
.Ltmp245:
	.loc	6 1698 32 prologue_end          @ ../Drivers/STM32F4xx_HAL_Driver/Src/stm32f4xx_hal_can.c:1698:32
	ldr	r0, [sp, #8]
	.loc	6 1698 38 is_stmt 0             @ ../Drivers/STM32F4xx_HAL_Driver/Src/stm32f4xx_hal_can.c:1698:38
	ldrb.w	r0, [r0, #32]
	.loc	6 1698 24                       @ ../Drivers/STM32F4xx_HAL_Driver/Src/stm32f4xx_hal_can.c:1698:24
	strb.w	r0, [sp, #3]
.Ltmp246:
	.loc	6 1703 8 is_stmt 1              @ ../Drivers/STM32F4xx_HAL_Driver/Src/stm32f4xx_hal_can.c:1703:8
	ldrb.w	r0, [sp, #3]
	.loc	6 1703 38 is_stmt 0             @ ../Drivers/STM32F4xx_HAL_Driver/Src/stm32f4xx_hal_can.c:1703:38
	cmp	r0, #1
	beq	.LBB18_2
	b	.LBB18_1
.LBB18_1:
	.loc	6 1704 8 is_stmt 1              @ ../Drivers/STM32F4xx_HAL_Driver/Src/stm32f4xx_hal_can.c:1704:8
	ldrb.w	r0, [sp, #3]
.Ltmp247:
	.loc	6 1703 7                        @ ../Drivers/STM32F4xx_HAL_Driver/Src/stm32f4xx_hal_can.c:1703:7
	cmp	r0, #2
	bne	.LBB18_3
	b	.LBB18_2
.LBB18_2:
.Ltmp248:
	.loc	6 1707 35                       @ ../Drivers/STM32F4xx_HAL_Driver/Src/stm32f4xx_hal_can.c:1707:35
	ldr	r2, [sp, #4]
	.loc	6 1707 8 is_stmt 0              @ ../Drivers/STM32F4xx_HAL_Driver/Src/stm32f4xx_hal_can.c:1707:8
	ldr	r0, [sp, #8]
	.loc	6 1707 15                       @ ../Drivers/STM32F4xx_HAL_Driver/Src/stm32f4xx_hal_can.c:1707:15
	ldr	r1, [r0]
	.loc	6 1707 30                       @ ../Drivers/STM32F4xx_HAL_Driver/Src/stm32f4xx_hal_can.c:1707:30
	ldr	r0, [r1, #20]
	bics	r0, r2
	str	r0, [r1, #20]
	movs	r0, #0
	.loc	6 1710 5 is_stmt 1              @ ../Drivers/STM32F4xx_HAL_Driver/Src/stm32f4xx_hal_can.c:1710:5
	strb.w	r0, [sp, #15]
	b	.LBB18_4
.Ltmp249:
.LBB18_3:
	.loc	6 1715 5                        @ ../Drivers/STM32F4xx_HAL_Driver/Src/stm32f4xx_hal_can.c:1715:5
	ldr	r1, [sp, #8]
	.loc	6 1715 21 is_stmt 0             @ ../Drivers/STM32F4xx_HAL_Driver/Src/stm32f4xx_hal_can.c:1715:21
	ldr	r0, [r1, #36]
	orr	r0, r0, #262144
	str	r0, [r1, #36]
	movs	r0, #1
	.loc	6 1717 5 is_stmt 1              @ ../Drivers/STM32F4xx_HAL_Driver/Src/stm32f4xx_hal_can.c:1717:5
	strb.w	r0, [sp, #15]
	b	.LBB18_4
.Ltmp250:
.LBB18_4:
	.loc	6 1719 1                        @ ../Drivers/STM32F4xx_HAL_Driver/Src/stm32f4xx_hal_can.c:1719:1
	ldrb.w	r0, [sp, #15]
	add	sp, #16
	bx	lr
.Ltmp251:
.Lfunc_end18:
	.size	HAL_CAN_DeactivateNotification, .Lfunc_end18-HAL_CAN_DeactivateNotification
	.cfi_endproc
	.cantunwind
	.fnend
                                        @ -- End function
	.section	.text.HAL_CAN_IRQHandler,"ax",%progbits
	.hidden	HAL_CAN_IRQHandler              @ -- Begin function HAL_CAN_IRQHandler
	.globl	HAL_CAN_IRQHandler
	.p2align	2
	.type	HAL_CAN_IRQHandler,%function
	.code	16                              @ @HAL_CAN_IRQHandler
	.thumb_func
HAL_CAN_IRQHandler:
.Lfunc_begin19:
	.loc	6 1728 0                        @ ../Drivers/STM32F4xx_HAL_Driver/Src/stm32f4xx_hal_can.c:1728:0
	.fnstart
	.cfi_startproc
@ %bb.0:
	.save	{r7, lr}
	push	{r7, lr}
	.cfi_def_cfa_offset 8
	.cfi_offset lr, -4
	.cfi_offset r7, -8
	.pad	#40
	sub	sp, #40
	.cfi_def_cfa_offset 48
	str	r0, [sp, #36]
	movs	r0, #0
.Ltmp252:
	.loc	6 1729 12 prologue_end          @ ../Drivers/STM32F4xx_HAL_Driver/Src/stm32f4xx_hal_can.c:1729:12
	str	r0, [sp, #32]
	.loc	6 1730 27                       @ ../Drivers/STM32F4xx_HAL_Driver/Src/stm32f4xx_hal_can.c:1730:27
	ldr	r0, [sp, #36]
	.loc	6 1730 33 is_stmt 0             @ ../Drivers/STM32F4xx_HAL_Driver/Src/stm32f4xx_hal_can.c:1730:33
	ldr	r0, [r0]
	.loc	6 1730 43                       @ ../Drivers/STM32F4xx_HAL_Driver/Src/stm32f4xx_hal_can.c:1730:43
	ldr	r0, [r0, #20]
	.loc	6 1730 12                       @ ../Drivers/STM32F4xx_HAL_Driver/Src/stm32f4xx_hal_can.c:1730:12
	str	r0, [sp, #28]
	.loc	6 1731 25 is_stmt 1             @ ../Drivers/STM32F4xx_HAL_Driver/Src/stm32f4xx_hal_can.c:1731:25
	ldr	r0, [sp, #36]
	.loc	6 1731 31 is_stmt 0             @ ../Drivers/STM32F4xx_HAL_Driver/Src/stm32f4xx_hal_can.c:1731:31
	ldr	r0, [r0]
	.loc	6 1731 41                       @ ../Drivers/STM32F4xx_HAL_Driver/Src/stm32f4xx_hal_can.c:1731:41
	ldr	r0, [r0, #4]
	.loc	6 1731 12                       @ ../Drivers/STM32F4xx_HAL_Driver/Src/stm32f4xx_hal_can.c:1731:12
	str	r0, [sp, #24]
	.loc	6 1732 25 is_stmt 1             @ ../Drivers/STM32F4xx_HAL_Driver/Src/stm32f4xx_hal_can.c:1732:25
	ldr	r0, [sp, #36]
	.loc	6 1732 31 is_stmt 0             @ ../Drivers/STM32F4xx_HAL_Driver/Src/stm32f4xx_hal_can.c:1732:31
	ldr	r0, [r0]
	.loc	6 1732 41                       @ ../Drivers/STM32F4xx_HAL_Driver/Src/stm32f4xx_hal_can.c:1732:41
	ldr	r0, [r0, #8]
	.loc	6 1732 12                       @ ../Drivers/STM32F4xx_HAL_Driver/Src/stm32f4xx_hal_can.c:1732:12
	str	r0, [sp, #20]
	.loc	6 1733 26 is_stmt 1             @ ../Drivers/STM32F4xx_HAL_Driver/Src/stm32f4xx_hal_can.c:1733:26
	ldr	r0, [sp, #36]
	.loc	6 1733 32 is_stmt 0             @ ../Drivers/STM32F4xx_HAL_Driver/Src/stm32f4xx_hal_can.c:1733:32
	ldr	r0, [r0]
	.loc	6 1733 42                       @ ../Drivers/STM32F4xx_HAL_Driver/Src/stm32f4xx_hal_can.c:1733:42
	ldr	r0, [r0, #12]
	.loc	6 1733 12                       @ ../Drivers/STM32F4xx_HAL_Driver/Src/stm32f4xx_hal_can.c:1733:12
	str	r0, [sp, #16]
	.loc	6 1734 26 is_stmt 1             @ ../Drivers/STM32F4xx_HAL_Driver/Src/stm32f4xx_hal_can.c:1734:26
	ldr	r0, [sp, #36]
	.loc	6 1734 32 is_stmt 0             @ ../Drivers/STM32F4xx_HAL_Driver/Src/stm32f4xx_hal_can.c:1734:32
	ldr	r0, [r0]
	.loc	6 1734 42                       @ ../Drivers/STM32F4xx_HAL_Driver/Src/stm32f4xx_hal_can.c:1734:42
	ldr	r0, [r0, #16]
	.loc	6 1734 12                       @ ../Drivers/STM32F4xx_HAL_Driver/Src/stm32f4xx_hal_can.c:1734:12
	str	r0, [sp, #12]
	.loc	6 1735 25 is_stmt 1             @ ../Drivers/STM32F4xx_HAL_Driver/Src/stm32f4xx_hal_can.c:1735:25
	ldr	r0, [sp, #36]
	.loc	6 1735 31 is_stmt 0             @ ../Drivers/STM32F4xx_HAL_Driver/Src/stm32f4xx_hal_can.c:1735:31
	ldr	r0, [r0]
	.loc	6 1735 41                       @ ../Drivers/STM32F4xx_HAL_Driver/Src/stm32f4xx_hal_can.c:1735:41
	ldr	r0, [r0, #24]
	.loc	6 1735 12                       @ ../Drivers/STM32F4xx_HAL_Driver/Src/stm32f4xx_hal_can.c:1735:12
	str	r0, [sp, #8]
	.loc	6 1738 7 is_stmt 1              @ ../Drivers/STM32F4xx_HAL_Driver/Src/stm32f4xx_hal_can.c:1738:7
	ldrb.w	r0, [sp, #28]
	lsls	r0, r0, #31
	cmp	r0, #0
	beq.w	.LBB19_35
	b	.LBB19_1
.LBB19_1:
.Ltmp253:
	.loc	6 1741 9                        @ ../Drivers/STM32F4xx_HAL_Driver/Src/stm32f4xx_hal_can.c:1741:9
	ldrb.w	r0, [sp, #20]
	lsls	r0, r0, #31
	cbz	r0, .LBB19_12
	b	.LBB19_2
.LBB19_2:
.Ltmp254:
	.loc	6 1744 44                       @ ../Drivers/STM32F4xx_HAL_Driver/Src/stm32f4xx_hal_can.c:1744:44
	ldr	r0, [sp, #36]
	.loc	6 1744 51 is_stmt 0             @ ../Drivers/STM32F4xx_HAL_Driver/Src/stm32f4xx_hal_can.c:1744:51
	ldr	r1, [r0]
	movs	r0, #1
	.loc	6 1744 66                       @ ../Drivers/STM32F4xx_HAL_Driver/Src/stm32f4xx_hal_can.c:1744:66
	str	r0, [r1, #8]
	.loc	6 1746 11 is_stmt 1             @ ../Drivers/STM32F4xx_HAL_Driver/Src/stm32f4xx_hal_can.c:1746:11
	ldrb.w	r0, [sp, #20]
	lsls	r0, r0, #30
	cmp	r0, #0
	bpl	.LBB19_4
	b	.LBB19_3
.LBB19_3:
.Ltmp255:
	.loc	6 1754 44                       @ ../Drivers/STM32F4xx_HAL_Driver/Src/stm32f4xx_hal_can.c:1754:44
	ldr	r0, [sp, #36]
	.loc	6 1754 9 is_stmt 0              @ ../Drivers/STM32F4xx_HAL_Driver/Src/stm32f4xx_hal_can.c:1754:9
	bl	HAL_CAN_TxMailbox0CompleteCallback
	.loc	6 1756 7 is_stmt 1              @ ../Drivers/STM32F4xx_HAL_Driver/Src/stm32f4xx_hal_can.c:1756:7
	b	.LBB19_11
.Ltmp256:
.LBB19_4:
	.loc	6 1759 13                       @ ../Drivers/STM32F4xx_HAL_Driver/Src/stm32f4xx_hal_can.c:1759:13
	ldrb.w	r0, [sp, #20]
	lsls	r0, r0, #29
	cmp	r0, #0
	bpl	.LBB19_6
	b	.LBB19_5
.LBB19_5:
.Ltmp257:
	.loc	6 1762 21                       @ ../Drivers/STM32F4xx_HAL_Driver/Src/stm32f4xx_hal_can.c:1762:21
	ldr	r0, [sp, #32]
	orr	r0, r0, #2048
	str	r0, [sp, #32]
	.loc	6 1763 9                        @ ../Drivers/STM32F4xx_HAL_Driver/Src/stm32f4xx_hal_can.c:1763:9
	b	.LBB19_10
.Ltmp258:
.LBB19_6:
	.loc	6 1764 18                       @ ../Drivers/STM32F4xx_HAL_Driver/Src/stm32f4xx_hal_can.c:1764:18
	ldrb.w	r0, [sp, #20]
	lsls	r0, r0, #28
	cmp	r0, #0
	bpl	.LBB19_8
	b	.LBB19_7
.LBB19_7:
.Ltmp259:
	.loc	6 1767 21                       @ ../Drivers/STM32F4xx_HAL_Driver/Src/stm32f4xx_hal_can.c:1767:21
	ldr	r0, [sp, #32]
	orr	r0, r0, #4096
	str	r0, [sp, #32]
	.loc	6 1768 9                        @ ../Drivers/STM32F4xx_HAL_Driver/Src/stm32f4xx_hal_can.c:1768:9
	b	.LBB19_9
.Ltmp260:
.LBB19_8:
	.loc	6 1777 43                       @ ../Drivers/STM32F4xx_HAL_Driver/Src/stm32f4xx_hal_can.c:1777:43
	ldr	r0, [sp, #36]
	.loc	6 1777 11 is_stmt 0             @ ../Drivers/STM32F4xx_HAL_Driver/Src/stm32f4xx_hal_can.c:1777:11
	bl	HAL_CAN_TxMailbox0AbortCallback
	b	.LBB19_9
.Ltmp261:
.LBB19_9:
	.loc	6 0 11                          @ ../Drivers/STM32F4xx_HAL_Driver/Src/stm32f4xx_hal_can.c:0:11
	b	.LBB19_10
.LBB19_10:
	b	.LBB19_11
.LBB19_11:
	.loc	6 1781 5 is_stmt 1              @ ../Drivers/STM32F4xx_HAL_Driver/Src/stm32f4xx_hal_can.c:1781:5
	b	.LBB19_12
.Ltmp262:
.LBB19_12:
	.loc	6 1784 9                        @ ../Drivers/STM32F4xx_HAL_Driver/Src/stm32f4xx_hal_can.c:1784:9
	ldrb.w	r0, [sp, #21]
	lsls	r0, r0, #31
	cbz	r0, .LBB19_23
	b	.LBB19_13
.LBB19_13:
.Ltmp263:
	.loc	6 1787 44                       @ ../Drivers/STM32F4xx_HAL_Driver/Src/stm32f4xx_hal_can.c:1787:44
	ldr	r0, [sp, #36]
	.loc	6 1787 51 is_stmt 0             @ ../Drivers/STM32F4xx_HAL_Driver/Src/stm32f4xx_hal_can.c:1787:51
	ldr	r1, [r0]
	mov.w	r0, #256
	.loc	6 1787 66                       @ ../Drivers/STM32F4xx_HAL_Driver/Src/stm32f4xx_hal_can.c:1787:66
	str	r0, [r1, #8]
	.loc	6 1789 11 is_stmt 1             @ ../Drivers/STM32F4xx_HAL_Driver/Src/stm32f4xx_hal_can.c:1789:11
	ldrb.w	r0, [sp, #21]
	lsls	r0, r0, #30
	cmp	r0, #0
	bpl	.LBB19_15
	b	.LBB19_14
.LBB19_14:
.Ltmp264:
	.loc	6 1797 44                       @ ../Drivers/STM32F4xx_HAL_Driver/Src/stm32f4xx_hal_can.c:1797:44
	ldr	r0, [sp, #36]
	.loc	6 1797 9 is_stmt 0              @ ../Drivers/STM32F4xx_HAL_Driver/Src/stm32f4xx_hal_can.c:1797:9
	bl	HAL_CAN_TxMailbox1CompleteCallback
	.loc	6 1799 7 is_stmt 1              @ ../Drivers/STM32F4xx_HAL_Driver/Src/stm32f4xx_hal_can.c:1799:7
	b	.LBB19_22
.Ltmp265:
.LBB19_15:
	.loc	6 1802 13                       @ ../Drivers/STM32F4xx_HAL_Driver/Src/stm32f4xx_hal_can.c:1802:13
	ldrb.w	r0, [sp, #21]
	lsls	r0, r0, #29
	cmp	r0, #0
	bpl	.LBB19_17
	b	.LBB19_16
.LBB19_16:
.Ltmp266:
	.loc	6 1805 21                       @ ../Drivers/STM32F4xx_HAL_Driver/Src/stm32f4xx_hal_can.c:1805:21
	ldr	r0, [sp, #32]
	orr	r0, r0, #8192
	str	r0, [sp, #32]
	.loc	6 1806 9                        @ ../Drivers/STM32F4xx_HAL_Driver/Src/stm32f4xx_hal_can.c:1806:9
	b	.LBB19_21
.Ltmp267:
.LBB19_17:
	.loc	6 1807 18                       @ ../Drivers/STM32F4xx_HAL_Driver/Src/stm32f4xx_hal_can.c:1807:18
	ldrb.w	r0, [sp, #21]
	lsls	r0, r0, #28
	cmp	r0, #0
	bpl	.LBB19_19
	b	.LBB19_18
.LBB19_18:
.Ltmp268:
	.loc	6 1810 21                       @ ../Drivers/STM32F4xx_HAL_Driver/Src/stm32f4xx_hal_can.c:1810:21
	ldr	r0, [sp, #32]
	orr	r0, r0, #16384
	str	r0, [sp, #32]
	.loc	6 1811 9                        @ ../Drivers/STM32F4xx_HAL_Driver/Src/stm32f4xx_hal_can.c:1811:9
	b	.LBB19_20
.Ltmp269:
.LBB19_19:
	.loc	6 1820 43                       @ ../Drivers/STM32F4xx_HAL_Driver/Src/stm32f4xx_hal_can.c:1820:43
	ldr	r0, [sp, #36]
	.loc	6 1820 11 is_stmt 0             @ ../Drivers/STM32F4xx_HAL_Driver/Src/stm32f4xx_hal_can.c:1820:11
	bl	HAL_CAN_TxMailbox1AbortCallback
	b	.LBB19_20
.Ltmp270:
.LBB19_20:
	.loc	6 0 11                          @ ../Drivers/STM32F4xx_HAL_Driver/Src/stm32f4xx_hal_can.c:0:11
	b	.LBB19_21
.LBB19_21:
	b	.LBB19_22
.LBB19_22:
	.loc	6 1824 5 is_stmt 1              @ ../Drivers/STM32F4xx_HAL_Driver/Src/stm32f4xx_hal_can.c:1824:5
	b	.LBB19_23
.Ltmp271:
.LBB19_23:
	.loc	6 1827 9                        @ ../Drivers/STM32F4xx_HAL_Driver/Src/stm32f4xx_hal_can.c:1827:9
	ldrb.w	r0, [sp, #22]
	lsls	r0, r0, #31
	cbz	r0, .LBB19_34
	b	.LBB19_24
.LBB19_24:
.Ltmp272:
	.loc	6 1830 44                       @ ../Drivers/STM32F4xx_HAL_Driver/Src/stm32f4xx_hal_can.c:1830:44
	ldr	r0, [sp, #36]
	.loc	6 1830 51 is_stmt 0             @ ../Drivers/STM32F4xx_HAL_Driver/Src/stm32f4xx_hal_can.c:1830:51
	ldr	r1, [r0]
	mov.w	r0, #65536
	.loc	6 1830 66                       @ ../Drivers/STM32F4xx_HAL_Driver/Src/stm32f4xx_hal_can.c:1830:66
	str	r0, [r1, #8]
	.loc	6 1832 11 is_stmt 1             @ ../Drivers/STM32F4xx_HAL_Driver/Src/stm32f4xx_hal_can.c:1832:11
	ldrb.w	r0, [sp, #22]
	lsls	r0, r0, #30
	cmp	r0, #0
	bpl	.LBB19_26
	b	.LBB19_25
.LBB19_25:
.Ltmp273:
	.loc	6 1840 44                       @ ../Drivers/STM32F4xx_HAL_Driver/Src/stm32f4xx_hal_can.c:1840:44
	ldr	r0, [sp, #36]
	.loc	6 1840 9 is_stmt 0              @ ../Drivers/STM32F4xx_HAL_Driver/Src/stm32f4xx_hal_can.c:1840:9
	bl	HAL_CAN_TxMailbox2CompleteCallback
	.loc	6 1842 7 is_stmt 1              @ ../Drivers/STM32F4xx_HAL_Driver/Src/stm32f4xx_hal_can.c:1842:7
	b	.LBB19_33
.Ltmp274:
.LBB19_26:
	.loc	6 1845 13                       @ ../Drivers/STM32F4xx_HAL_Driver/Src/stm32f4xx_hal_can.c:1845:13
	ldrb.w	r0, [sp, #22]
	lsls	r0, r0, #29
	cmp	r0, #0
	bpl	.LBB19_28
	b	.LBB19_27
.LBB19_27:
.Ltmp275:
	.loc	6 1848 21                       @ ../Drivers/STM32F4xx_HAL_Driver/Src/stm32f4xx_hal_can.c:1848:21
	ldr	r0, [sp, #32]
	orr	r0, r0, #32768
	str	r0, [sp, #32]
	.loc	6 1849 9                        @ ../Drivers/STM32F4xx_HAL_Driver/Src/stm32f4xx_hal_can.c:1849:9
	b	.LBB19_32
.Ltmp276:
.LBB19_28:
	.loc	6 1850 18                       @ ../Drivers/STM32F4xx_HAL_Driver/Src/stm32f4xx_hal_can.c:1850:18
	ldrb.w	r0, [sp, #22]
	lsls	r0, r0, #28
	cmp	r0, #0
	bpl	.LBB19_30
	b	.LBB19_29
.LBB19_29:
.Ltmp277:
	.loc	6 1853 21                       @ ../Drivers/STM32F4xx_HAL_Driver/Src/stm32f4xx_hal_can.c:1853:21
	ldr	r0, [sp, #32]
	orr	r0, r0, #65536
	str	r0, [sp, #32]
	.loc	6 1854 9                        @ ../Drivers/STM32F4xx_HAL_Driver/Src/stm32f4xx_hal_can.c:1854:9
	b	.LBB19_31
.Ltmp278:
.LBB19_30:
	.loc	6 1863 43                       @ ../Drivers/STM32F4xx_HAL_Driver/Src/stm32f4xx_hal_can.c:1863:43
	ldr	r0, [sp, #36]
	.loc	6 1863 11 is_stmt 0             @ ../Drivers/STM32F4xx_HAL_Driver/Src/stm32f4xx_hal_can.c:1863:11
	bl	HAL_CAN_TxMailbox2AbortCallback
	b	.LBB19_31
.Ltmp279:
.LBB19_31:
	.loc	6 0 11                          @ ../Drivers/STM32F4xx_HAL_Driver/Src/stm32f4xx_hal_can.c:0:11
	b	.LBB19_32
.LBB19_32:
	b	.LBB19_33
.LBB19_33:
	.loc	6 1867 5 is_stmt 1              @ ../Drivers/STM32F4xx_HAL_Driver/Src/stm32f4xx_hal_can.c:1867:5
	b	.LBB19_34
.Ltmp280:
.LBB19_34:
	.loc	6 1868 3                        @ ../Drivers/STM32F4xx_HAL_Driver/Src/stm32f4xx_hal_can.c:1868:3
	b	.LBB19_35
.Ltmp281:
.LBB19_35:
	.loc	6 1871 7                        @ ../Drivers/STM32F4xx_HAL_Driver/Src/stm32f4xx_hal_can.c:1871:7
	ldrb.w	r0, [sp, #28]
	lsls	r0, r0, #28
	cmp	r0, #0
	bpl	.LBB19_39
	b	.LBB19_36
.LBB19_36:
.Ltmp282:
	.loc	6 1873 9                        @ ../Drivers/STM32F4xx_HAL_Driver/Src/stm32f4xx_hal_can.c:1873:9
	ldrb.w	r0, [sp, #16]
	lsls	r0, r0, #27
	cmp	r0, #0
	bpl	.LBB19_38
	b	.LBB19_37
.LBB19_37:
.Ltmp283:
	.loc	6 1876 17                       @ ../Drivers/STM32F4xx_HAL_Driver/Src/stm32f4xx_hal_can.c:1876:17
	ldr	r0, [sp, #32]
	orr	r0, r0, #512
	str	r0, [sp, #32]
	.loc	6 1879 148                      @ ../Drivers/STM32F4xx_HAL_Driver/Src/stm32f4xx_hal_can.c:1879:148
	ldr	r0, [sp, #36]
	.loc	6 1879 155 is_stmt 0            @ ../Drivers/STM32F4xx_HAL_Driver/Src/stm32f4xx_hal_can.c:1879:155
	ldr	r1, [r0]
	movs	r0, #16
	.loc	6 1879 171                      @ ../Drivers/STM32F4xx_HAL_Driver/Src/stm32f4xx_hal_can.c:1879:171
	str	r0, [r1, #12]
	.loc	6 1880 5 is_stmt 1              @ ../Drivers/STM32F4xx_HAL_Driver/Src/stm32f4xx_hal_can.c:1880:5
	b	.LBB19_38
.Ltmp284:
.LBB19_38:
	.loc	6 1881 3                        @ ../Drivers/STM32F4xx_HAL_Driver/Src/stm32f4xx_hal_can.c:1881:3
	b	.LBB19_39
.Ltmp285:
.LBB19_39:
	.loc	6 1884 7                        @ ../Drivers/STM32F4xx_HAL_Driver/Src/stm32f4xx_hal_can.c:1884:7
	ldrb.w	r0, [sp, #28]
	lsls	r0, r0, #29
	cmp	r0, #0
	bpl	.LBB19_43
	b	.LBB19_40
.LBB19_40:
.Ltmp286:
	.loc	6 1886 9                        @ ../Drivers/STM32F4xx_HAL_Driver/Src/stm32f4xx_hal_can.c:1886:9
	ldrb.w	r0, [sp, #16]
	lsls	r0, r0, #28
	cmp	r0, #0
	bpl	.LBB19_42
	b	.LBB19_41
.LBB19_41:
.Ltmp287:
	.loc	6 1889 148                      @ ../Drivers/STM32F4xx_HAL_Driver/Src/stm32f4xx_hal_can.c:1889:148
	ldr	r0, [sp, #36]
	.loc	6 1889 155 is_stmt 0            @ ../Drivers/STM32F4xx_HAL_Driver/Src/stm32f4xx_hal_can.c:1889:155
	ldr	r1, [r0]
	movs	r0, #8
	.loc	6 1889 171                      @ ../Drivers/STM32F4xx_HAL_Driver/Src/stm32f4xx_hal_can.c:1889:171
	str	r0, [r1, #12]
	.loc	6 1897 35 is_stmt 1             @ ../Drivers/STM32F4xx_HAL_Driver/Src/stm32f4xx_hal_can.c:1897:35
	ldr	r0, [sp, #36]
	.loc	6 1897 7 is_stmt 0              @ ../Drivers/STM32F4xx_HAL_Driver/Src/stm32f4xx_hal_can.c:1897:7
	bl	HAL_CAN_RxFifo0FullCallback
	.loc	6 1899 5 is_stmt 1              @ ../Drivers/STM32F4xx_HAL_Driver/Src/stm32f4xx_hal_can.c:1899:5
	b	.LBB19_42
.Ltmp288:
.LBB19_42:
	.loc	6 1900 3                        @ ../Drivers/STM32F4xx_HAL_Driver/Src/stm32f4xx_hal_can.c:1900:3
	b	.LBB19_43
.Ltmp289:
.LBB19_43:
	.loc	6 1903 7                        @ ../Drivers/STM32F4xx_HAL_Driver/Src/stm32f4xx_hal_can.c:1903:7
	ldrb.w	r0, [sp, #28]
	lsls	r0, r0, #30
	cmp	r0, #0
	bpl	.LBB19_47
	b	.LBB19_44
.LBB19_44:
.Ltmp290:
	.loc	6 1906 10                       @ ../Drivers/STM32F4xx_HAL_Driver/Src/stm32f4xx_hal_can.c:1906:10
	ldr	r0, [sp, #36]
	.loc	6 1906 16 is_stmt 0             @ ../Drivers/STM32F4xx_HAL_Driver/Src/stm32f4xx_hal_can.c:1906:16
	ldr	r0, [r0]
	.loc	6 1906 26                       @ ../Drivers/STM32F4xx_HAL_Driver/Src/stm32f4xx_hal_can.c:1906:26
	ldr	r0, [r0, #12]
.Ltmp291:
	.loc	6 1906 9                        @ ../Drivers/STM32F4xx_HAL_Driver/Src/stm32f4xx_hal_can.c:1906:9
	lsls	r0, r0, #30
	cbz	r0, .LBB19_46
	b	.LBB19_45
.LBB19_45:
.Ltmp292:
	.loc	6 1914 41 is_stmt 1             @ ../Drivers/STM32F4xx_HAL_Driver/Src/stm32f4xx_hal_can.c:1914:41
	ldr	r0, [sp, #36]
	.loc	6 1914 7 is_stmt 0              @ ../Drivers/STM32F4xx_HAL_Driver/Src/stm32f4xx_hal_can.c:1914:7
	bl	HAL_CAN_RxFifo0MsgPendingCallback
	.loc	6 1916 5 is_stmt 1              @ ../Drivers/STM32F4xx_HAL_Driver/Src/stm32f4xx_hal_can.c:1916:5
	b	.LBB19_46
.Ltmp293:
.LBB19_46:
	.loc	6 1917 3                        @ ../Drivers/STM32F4xx_HAL_Driver/Src/stm32f4xx_hal_can.c:1917:3
	b	.LBB19_47
.Ltmp294:
.LBB19_47:
	.loc	6 1920 7                        @ ../Drivers/STM32F4xx_HAL_Driver/Src/stm32f4xx_hal_can.c:1920:7
	ldrb.w	r0, [sp, #28]
	lsls	r0, r0, #25
	cmp	r0, #0
	bpl	.LBB19_51
	b	.LBB19_48
.LBB19_48:
.Ltmp295:
	.loc	6 1922 9                        @ ../Drivers/STM32F4xx_HAL_Driver/Src/stm32f4xx_hal_can.c:1922:9
	ldrb.w	r0, [sp, #12]
	lsls	r0, r0, #27
	cmp	r0, #0
	bpl	.LBB19_50
	b	.LBB19_49
.LBB19_49:
.Ltmp296:
	.loc	6 1925 17                       @ ../Drivers/STM32F4xx_HAL_Driver/Src/stm32f4xx_hal_can.c:1925:17
	ldr	r0, [sp, #32]
	orr	r0, r0, #1024
	str	r0, [sp, #32]
	.loc	6 1928 253                      @ ../Drivers/STM32F4xx_HAL_Driver/Src/stm32f4xx_hal_can.c:1928:253
	ldr	r0, [sp, #36]
	.loc	6 1928 260 is_stmt 0            @ ../Drivers/STM32F4xx_HAL_Driver/Src/stm32f4xx_hal_can.c:1928:260
	ldr	r1, [r0]
	movs	r0, #16
	.loc	6 1928 276                      @ ../Drivers/STM32F4xx_HAL_Driver/Src/stm32f4xx_hal_can.c:1928:276
	str	r0, [r1, #16]
	.loc	6 1929 5 is_stmt 1              @ ../Drivers/STM32F4xx_HAL_Driver/Src/stm32f4xx_hal_can.c:1929:5
	b	.LBB19_50
.Ltmp297:
.LBB19_50:
	.loc	6 1930 3                        @ ../Drivers/STM32F4xx_HAL_Driver/Src/stm32f4xx_hal_can.c:1930:3
	b	.LBB19_51
.Ltmp298:
.LBB19_51:
	.loc	6 1933 7                        @ ../Drivers/STM32F4xx_HAL_Driver/Src/stm32f4xx_hal_can.c:1933:7
	ldrb.w	r0, [sp, #28]
	lsls	r0, r0, #26
	cmp	r0, #0
	bpl	.LBB19_55
	b	.LBB19_52
.LBB19_52:
.Ltmp299:
	.loc	6 1935 9                        @ ../Drivers/STM32F4xx_HAL_Driver/Src/stm32f4xx_hal_can.c:1935:9
	ldrb.w	r0, [sp, #12]
	lsls	r0, r0, #28
	cmp	r0, #0
	bpl	.LBB19_54
	b	.LBB19_53
.LBB19_53:
.Ltmp300:
	.loc	6 1938 253                      @ ../Drivers/STM32F4xx_HAL_Driver/Src/stm32f4xx_hal_can.c:1938:253
	ldr	r0, [sp, #36]
	.loc	6 1938 260 is_stmt 0            @ ../Drivers/STM32F4xx_HAL_Driver/Src/stm32f4xx_hal_can.c:1938:260
	ldr	r1, [r0]
	movs	r0, #8
	.loc	6 1938 276                      @ ../Drivers/STM32F4xx_HAL_Driver/Src/stm32f4xx_hal_can.c:1938:276
	str	r0, [r1, #16]
	.loc	6 1946 35 is_stmt 1             @ ../Drivers/STM32F4xx_HAL_Driver/Src/stm32f4xx_hal_can.c:1946:35
	ldr	r0, [sp, #36]
	.loc	6 1946 7 is_stmt 0              @ ../Drivers/STM32F4xx_HAL_Driver/Src/stm32f4xx_hal_can.c:1946:7
	bl	HAL_CAN_RxFifo1FullCallback
	.loc	6 1948 5 is_stmt 1              @ ../Drivers/STM32F4xx_HAL_Driver/Src/stm32f4xx_hal_can.c:1948:5
	b	.LBB19_54
.Ltmp301:
.LBB19_54:
	.loc	6 1949 3                        @ ../Drivers/STM32F4xx_HAL_Driver/Src/stm32f4xx_hal_can.c:1949:3
	b	.LBB19_55
.Ltmp302:
.LBB19_55:
	.loc	6 1952 7                        @ ../Drivers/STM32F4xx_HAL_Driver/Src/stm32f4xx_hal_can.c:1952:7
	ldrb.w	r0, [sp, #28]
	lsls	r0, r0, #27
	cmp	r0, #0
	bpl	.LBB19_59
	b	.LBB19_56
.LBB19_56:
.Ltmp303:
	.loc	6 1955 10                       @ ../Drivers/STM32F4xx_HAL_Driver/Src/stm32f4xx_hal_can.c:1955:10
	ldr	r0, [sp, #36]
	.loc	6 1955 16 is_stmt 0             @ ../Drivers/STM32F4xx_HAL_Driver/Src/stm32f4xx_hal_can.c:1955:16
	ldr	r0, [r0]
	.loc	6 1955 26                       @ ../Drivers/STM32F4xx_HAL_Driver/Src/stm32f4xx_hal_can.c:1955:26
	ldr	r0, [r0, #16]
.Ltmp304:
	.loc	6 1955 9                        @ ../Drivers/STM32F4xx_HAL_Driver/Src/stm32f4xx_hal_can.c:1955:9
	lsls	r0, r0, #30
	cbz	r0, .LBB19_58
	b	.LBB19_57
.LBB19_57:
.Ltmp305:
	.loc	6 1963 41 is_stmt 1             @ ../Drivers/STM32F4xx_HAL_Driver/Src/stm32f4xx_hal_can.c:1963:41
	ldr	r0, [sp, #36]
	.loc	6 1963 7 is_stmt 0              @ ../Drivers/STM32F4xx_HAL_Driver/Src/stm32f4xx_hal_can.c:1963:7
	bl	HAL_CAN_RxFifo1MsgPendingCallback
	.loc	6 1965 5 is_stmt 1              @ ../Drivers/STM32F4xx_HAL_Driver/Src/stm32f4xx_hal_can.c:1965:5
	b	.LBB19_58
.Ltmp306:
.LBB19_58:
	.loc	6 1966 3                        @ ../Drivers/STM32F4xx_HAL_Driver/Src/stm32f4xx_hal_can.c:1966:3
	b	.LBB19_59
.Ltmp307:
.LBB19_59:
	.loc	6 1969 7                        @ ../Drivers/STM32F4xx_HAL_Driver/Src/stm32f4xx_hal_can.c:1969:7
	ldrb.w	r0, [sp, #30]
	lsls	r0, r0, #30
	cmp	r0, #0
	bpl	.LBB19_63
	b	.LBB19_60
.LBB19_60:
.Ltmp308:
	.loc	6 1971 9                        @ ../Drivers/STM32F4xx_HAL_Driver/Src/stm32f4xx_hal_can.c:1971:9
	ldrb.w	r0, [sp, #24]
	lsls	r0, r0, #27
	cmp	r0, #0
	bpl	.LBB19_62
	b	.LBB19_61
.LBB19_61:
.Ltmp309:
	.loc	6 1974 358                      @ ../Drivers/STM32F4xx_HAL_Driver/Src/stm32f4xx_hal_can.c:1974:358
	ldr	r0, [sp, #36]
	.loc	6 1974 365 is_stmt 0            @ ../Drivers/STM32F4xx_HAL_Driver/Src/stm32f4xx_hal_can.c:1974:365
	ldr	r1, [r0]
	movs	r0, #16
	.loc	6 1974 380                      @ ../Drivers/STM32F4xx_HAL_Driver/Src/stm32f4xx_hal_can.c:1974:380
	str	r0, [r1, #4]
	.loc	6 1982 29 is_stmt 1             @ ../Drivers/STM32F4xx_HAL_Driver/Src/stm32f4xx_hal_can.c:1982:29
	ldr	r0, [sp, #36]
	.loc	6 1982 7 is_stmt 0              @ ../Drivers/STM32F4xx_HAL_Driver/Src/stm32f4xx_hal_can.c:1982:7
	bl	HAL_CAN_SleepCallback
	.loc	6 1984 5 is_stmt 1              @ ../Drivers/STM32F4xx_HAL_Driver/Src/stm32f4xx_hal_can.c:1984:5
	b	.LBB19_62
.Ltmp310:
.LBB19_62:
	.loc	6 1985 3                        @ ../Drivers/STM32F4xx_HAL_Driver/Src/stm32f4xx_hal_can.c:1985:3
	b	.LBB19_63
.Ltmp311:
.LBB19_63:
	.loc	6 1988 7                        @ ../Drivers/STM32F4xx_HAL_Driver/Src/stm32f4xx_hal_can.c:1988:7
	ldrb.w	r0, [sp, #30]
	lsls	r0, r0, #31
	cbz	r0, .LBB19_67
	b	.LBB19_64
.LBB19_64:
.Ltmp312:
	.loc	6 1990 9                        @ ../Drivers/STM32F4xx_HAL_Driver/Src/stm32f4xx_hal_can.c:1990:9
	ldrb.w	r0, [sp, #24]
	lsls	r0, r0, #28
	cmp	r0, #0
	bpl	.LBB19_66
	b	.LBB19_65
.LBB19_65:
.Ltmp313:
	.loc	6 1993 358                      @ ../Drivers/STM32F4xx_HAL_Driver/Src/stm32f4xx_hal_can.c:1993:358
	ldr	r0, [sp, #36]
	.loc	6 1993 365 is_stmt 0            @ ../Drivers/STM32F4xx_HAL_Driver/Src/stm32f4xx_hal_can.c:1993:365
	ldr	r1, [r0]
	movs	r0, #8
	.loc	6 1993 380                      @ ../Drivers/STM32F4xx_HAL_Driver/Src/stm32f4xx_hal_can.c:1993:380
	str	r0, [r1, #4]
	.loc	6 2001 39 is_stmt 1             @ ../Drivers/STM32F4xx_HAL_Driver/Src/stm32f4xx_hal_can.c:2001:39
	ldr	r0, [sp, #36]
	.loc	6 2001 7 is_stmt 0              @ ../Drivers/STM32F4xx_HAL_Driver/Src/stm32f4xx_hal_can.c:2001:7
	bl	HAL_CAN_WakeUpFromRxMsgCallback
	.loc	6 2003 5 is_stmt 1              @ ../Drivers/STM32F4xx_HAL_Driver/Src/stm32f4xx_hal_can.c:2003:5
	b	.LBB19_66
.Ltmp314:
.LBB19_66:
	.loc	6 2004 3                        @ ../Drivers/STM32F4xx_HAL_Driver/Src/stm32f4xx_hal_can.c:2004:3
	b	.LBB19_67
.Ltmp315:
.LBB19_67:
	.loc	6 2007 7                        @ ../Drivers/STM32F4xx_HAL_Driver/Src/stm32f4xx_hal_can.c:2007:7
	ldrb.w	r0, [sp, #29]
	lsls	r0, r0, #24
	cmp	r0, #0
	bpl.w	.LBB19_96
	b	.LBB19_68
.LBB19_68:
.Ltmp316:
	.loc	6 2009 9                        @ ../Drivers/STM32F4xx_HAL_Driver/Src/stm32f4xx_hal_can.c:2009:9
	ldrb.w	r0, [sp, #24]
	lsls	r0, r0, #29
	cmp	r0, #0
	bpl.w	.LBB19_95
	b	.LBB19_69
.LBB19_69:
.Ltmp317:
	.loc	6 2012 62                       @ ../Drivers/STM32F4xx_HAL_Driver/Src/stm32f4xx_hal_can.c:2012:62
	ldrb.w	r0, [sp, #29]
	lsls	r0, r0, #31
	cbz	r0, .LBB19_72
	b	.LBB19_70
.Ltmp318:
.LBB19_70:
	.loc	6 2012 11 is_stmt 0             @ ../Drivers/STM32F4xx_HAL_Driver/Src/stm32f4xx_hal_can.c:2012:11
	ldrb.w	r0, [sp, #8]
	lsls	r0, r0, #31
	cbz	r0, .LBB19_72
	b	.LBB19_71
.LBB19_71:
.Ltmp319:
	.loc	6 2016 19 is_stmt 1             @ ../Drivers/STM32F4xx_HAL_Driver/Src/stm32f4xx_hal_can.c:2016:19
	ldr	r0, [sp, #32]
	orr	r0, r0, #1
	str	r0, [sp, #32]
	.loc	6 2019 7                        @ ../Drivers/STM32F4xx_HAL_Driver/Src/stm32f4xx_hal_can.c:2019:7
	b	.LBB19_72
.Ltmp320:
.LBB19_72:
	.loc	6 2022 62                       @ ../Drivers/STM32F4xx_HAL_Driver/Src/stm32f4xx_hal_can.c:2022:62
	ldrb.w	r0, [sp, #29]
	lsls	r0, r0, #30
	cmp	r0, #0
	bpl	.LBB19_75
	b	.LBB19_73
.Ltmp321:
.LBB19_73:
	.loc	6 2022 11 is_stmt 0             @ ../Drivers/STM32F4xx_HAL_Driver/Src/stm32f4xx_hal_can.c:2022:11
	ldrb.w	r0, [sp, #8]
	lsls	r0, r0, #30
	cmp	r0, #0
	bpl	.LBB19_75
	b	.LBB19_74
.LBB19_74:
.Ltmp322:
	.loc	6 2026 19 is_stmt 1             @ ../Drivers/STM32F4xx_HAL_Driver/Src/stm32f4xx_hal_can.c:2026:19
	ldr	r0, [sp, #32]
	orr	r0, r0, #2
	str	r0, [sp, #32]
	.loc	6 2029 7                        @ ../Drivers/STM32F4xx_HAL_Driver/Src/stm32f4xx_hal_can.c:2029:7
	b	.LBB19_75
.Ltmp323:
.LBB19_75:
	.loc	6 2032 63                       @ ../Drivers/STM32F4xx_HAL_Driver/Src/stm32f4xx_hal_can.c:2032:63
	ldrb.w	r0, [sp, #29]
	lsls	r0, r0, #29
	cmp	r0, #0
	bpl	.LBB19_78
	b	.LBB19_76
.Ltmp324:
.LBB19_76:
	.loc	6 2032 11 is_stmt 0             @ ../Drivers/STM32F4xx_HAL_Driver/Src/stm32f4xx_hal_can.c:2032:11
	ldrb.w	r0, [sp, #8]
	lsls	r0, r0, #29
	cmp	r0, #0
	bpl	.LBB19_78
	b	.LBB19_77
.LBB19_77:
.Ltmp325:
	.loc	6 2036 19 is_stmt 1             @ ../Drivers/STM32F4xx_HAL_Driver/Src/stm32f4xx_hal_can.c:2036:19
	ldr	r0, [sp, #32]
	orr	r0, r0, #4
	str	r0, [sp, #32]
	.loc	6 2039 7                        @ ../Drivers/STM32F4xx_HAL_Driver/Src/stm32f4xx_hal_can.c:2039:7
	b	.LBB19_78
.Ltmp326:
.LBB19_78:
	.loc	6 2042 63                       @ ../Drivers/STM32F4xx_HAL_Driver/Src/stm32f4xx_hal_can.c:2042:63
	ldrb.w	r0, [sp, #29]
	lsls	r0, r0, #28
	cmp	r0, #0
	bpl	.LBB19_94
	b	.LBB19_79
.Ltmp327:
.LBB19_79:
	.loc	6 2042 11 is_stmt 0             @ ../Drivers/STM32F4xx_HAL_Driver/Src/stm32f4xx_hal_can.c:2042:11
	ldrb.w	r0, [sp, #8]
	tst.w	r0, #112
	beq	.LBB19_94
	b	.LBB19_80
.LBB19_80:
.Ltmp328:
	.loc	6 2045 17 is_stmt 1             @ ../Drivers/STM32F4xx_HAL_Driver/Src/stm32f4xx_hal_can.c:2045:17
	ldr	r0, [sp, #8]
	.loc	6 2045 26 is_stmt 0             @ ../Drivers/STM32F4xx_HAL_Driver/Src/stm32f4xx_hal_can.c:2045:26
	and	r0, r0, #112
	.loc	6 2045 9                        @ ../Drivers/STM32F4xx_HAL_Driver/Src/stm32f4xx_hal_can.c:2045:9
	mov	r1, r0
	str	r1, [sp, #4]                    @ 4-byte Spill
	cmp	r0, #16
	beq	.LBB19_86
	b	.LBB19_81
.LBB19_81:
	ldr	r0, [sp, #4]                    @ 4-byte Reload
	cmp	r0, #32
	beq	.LBB19_87
	b	.LBB19_82
.LBB19_82:
	ldr	r0, [sp, #4]                    @ 4-byte Reload
	cmp	r0, #48
	beq	.LBB19_88
	b	.LBB19_83
.LBB19_83:
	ldr	r0, [sp, #4]                    @ 4-byte Reload
	cmp	r0, #64
	beq	.LBB19_89
	b	.LBB19_84
.LBB19_84:
	ldr	r0, [sp, #4]                    @ 4-byte Reload
	cmp	r0, #80
	beq	.LBB19_90
	b	.LBB19_85
.LBB19_85:
	ldr	r0, [sp, #4]                    @ 4-byte Reload
	cmp	r0, #96
	beq	.LBB19_91
	b	.LBB19_92
.LBB19_86:
.Ltmp329:
	.loc	6 2049 23 is_stmt 1             @ ../Drivers/STM32F4xx_HAL_Driver/Src/stm32f4xx_hal_can.c:2049:23
	ldr	r0, [sp, #32]
	orr	r0, r0, #8
	str	r0, [sp, #32]
	.loc	6 2050 13                       @ ../Drivers/STM32F4xx_HAL_Driver/Src/stm32f4xx_hal_can.c:2050:13
	b	.LBB19_93
.LBB19_87:
	.loc	6 2053 23                       @ ../Drivers/STM32F4xx_HAL_Driver/Src/stm32f4xx_hal_can.c:2053:23
	ldr	r0, [sp, #32]
	orr	r0, r0, #16
	str	r0, [sp, #32]
	.loc	6 2054 13                       @ ../Drivers/STM32F4xx_HAL_Driver/Src/stm32f4xx_hal_can.c:2054:13
	b	.LBB19_93
.LBB19_88:
	.loc	6 2057 23                       @ ../Drivers/STM32F4xx_HAL_Driver/Src/stm32f4xx_hal_can.c:2057:23
	ldr	r0, [sp, #32]
	orr	r0, r0, #32
	str	r0, [sp, #32]
	.loc	6 2058 13                       @ ../Drivers/STM32F4xx_HAL_Driver/Src/stm32f4xx_hal_can.c:2058:13
	b	.LBB19_93
.LBB19_89:
	.loc	6 2061 23                       @ ../Drivers/STM32F4xx_HAL_Driver/Src/stm32f4xx_hal_can.c:2061:23
	ldr	r0, [sp, #32]
	orr	r0, r0, #64
	str	r0, [sp, #32]
	.loc	6 2062 13                       @ ../Drivers/STM32F4xx_HAL_Driver/Src/stm32f4xx_hal_can.c:2062:13
	b	.LBB19_93
.LBB19_90:
	.loc	6 2065 23                       @ ../Drivers/STM32F4xx_HAL_Driver/Src/stm32f4xx_hal_can.c:2065:23
	ldr	r0, [sp, #32]
	orr	r0, r0, #128
	str	r0, [sp, #32]
	.loc	6 2066 13                       @ ../Drivers/STM32F4xx_HAL_Driver/Src/stm32f4xx_hal_can.c:2066:13
	b	.LBB19_93
.LBB19_91:
	.loc	6 2069 23                       @ ../Drivers/STM32F4xx_HAL_Driver/Src/stm32f4xx_hal_can.c:2069:23
	ldr	r0, [sp, #32]
	orr	r0, r0, #256
	str	r0, [sp, #32]
	.loc	6 2070 13                       @ ../Drivers/STM32F4xx_HAL_Driver/Src/stm32f4xx_hal_can.c:2070:13
	b	.LBB19_93
.LBB19_92:
	.loc	6 2072 13                       @ ../Drivers/STM32F4xx_HAL_Driver/Src/stm32f4xx_hal_can.c:2072:13
	b	.LBB19_93
.Ltmp330:
.LBB19_93:
	.loc	6 2076 11                       @ ../Drivers/STM32F4xx_HAL_Driver/Src/stm32f4xx_hal_can.c:2076:11
	ldr	r0, [sp, #36]
	.loc	6 2076 17 is_stmt 0             @ ../Drivers/STM32F4xx_HAL_Driver/Src/stm32f4xx_hal_can.c:2076:17
	ldr	r1, [r0]
	.loc	6 2076 32                       @ ../Drivers/STM32F4xx_HAL_Driver/Src/stm32f4xx_hal_can.c:2076:32
	ldr	r0, [r1, #24]
	bic	r0, r0, #112
	str	r0, [r1, #24]
	.loc	6 2077 7 is_stmt 1              @ ../Drivers/STM32F4xx_HAL_Driver/Src/stm32f4xx_hal_can.c:2077:7
	b	.LBB19_94
.Ltmp331:
.LBB19_94:
	.loc	6 2078 5                        @ ../Drivers/STM32F4xx_HAL_Driver/Src/stm32f4xx_hal_can.c:2078:5
	b	.LBB19_95
.Ltmp332:
.LBB19_95:
	.loc	6 2081 356                      @ ../Drivers/STM32F4xx_HAL_Driver/Src/stm32f4xx_hal_can.c:2081:356
	ldr	r0, [sp, #36]
	.loc	6 2081 363 is_stmt 0            @ ../Drivers/STM32F4xx_HAL_Driver/Src/stm32f4xx_hal_can.c:2081:363
	ldr	r1, [r0]
	movs	r0, #4
	.loc	6 2081 378                      @ ../Drivers/STM32F4xx_HAL_Driver/Src/stm32f4xx_hal_can.c:2081:378
	str	r0, [r1, #4]
	.loc	6 2082 3 is_stmt 1              @ ../Drivers/STM32F4xx_HAL_Driver/Src/stm32f4xx_hal_can.c:2082:3
	b	.LBB19_96
.Ltmp333:
.LBB19_96:
	.loc	6 2085 7                        @ ../Drivers/STM32F4xx_HAL_Driver/Src/stm32f4xx_hal_can.c:2085:7
	ldr	r0, [sp, #32]
.Ltmp334:
	.loc	6 2085 7 is_stmt 0              @ ../Drivers/STM32F4xx_HAL_Driver/Src/stm32f4xx_hal_can.c:2085:7
	cbz	r0, .LBB19_98
	b	.LBB19_97
.LBB19_97:
.Ltmp335:
	.loc	6 2088 24 is_stmt 1             @ ../Drivers/STM32F4xx_HAL_Driver/Src/stm32f4xx_hal_can.c:2088:24
	ldr	r2, [sp, #32]
	.loc	6 2088 5 is_stmt 0              @ ../Drivers/STM32F4xx_HAL_Driver/Src/stm32f4xx_hal_can.c:2088:5
	ldr	r1, [sp, #36]
	.loc	6 2088 21                       @ ../Drivers/STM32F4xx_HAL_Driver/Src/stm32f4xx_hal_can.c:2088:21
	ldr	r0, [r1, #36]
	orrs	r0, r2
	str	r0, [r1, #36]
	.loc	6 2096 27 is_stmt 1             @ ../Drivers/STM32F4xx_HAL_Driver/Src/stm32f4xx_hal_can.c:2096:27
	ldr	r0, [sp, #36]
	.loc	6 2096 5 is_stmt 0              @ ../Drivers/STM32F4xx_HAL_Driver/Src/stm32f4xx_hal_can.c:2096:5
	bl	HAL_CAN_ErrorCallback
	.loc	6 2098 3 is_stmt 1              @ ../Drivers/STM32F4xx_HAL_Driver/Src/stm32f4xx_hal_can.c:2098:3
	b	.LBB19_98
.Ltmp336:
.LBB19_98:
	.loc	6 2099 1                        @ ../Drivers/STM32F4xx_HAL_Driver/Src/stm32f4xx_hal_can.c:2099:1
	add	sp, #40
	pop	{r7, pc}
.Ltmp337:
.Lfunc_end19:
	.size	HAL_CAN_IRQHandler, .Lfunc_end19-HAL_CAN_IRQHandler
	.cfi_endproc
	.cantunwind
	.fnend
                                        @ -- End function
	.section	.text.HAL_CAN_TxMailbox0CompleteCallback,"ax",%progbits
	.hidden	HAL_CAN_TxMailbox0CompleteCallback @ -- Begin function HAL_CAN_TxMailbox0CompleteCallback
	.weak	HAL_CAN_TxMailbox0CompleteCallback
	.p2align	2
	.type	HAL_CAN_TxMailbox0CompleteCallback,%function
	.code	16                              @ @HAL_CAN_TxMailbox0CompleteCallback
	.thumb_func
HAL_CAN_TxMailbox0CompleteCallback:
.Lfunc_begin20:
	.loc	6 2139 0                        @ ../Drivers/STM32F4xx_HAL_Driver/Src/stm32f4xx_hal_can.c:2139:0
	.fnstart
	.cfi_startproc
@ %bb.0:
	.pad	#4
	sub	sp, #4
	.cfi_def_cfa_offset 4
	str	r0, [sp]
.Ltmp338:
	.loc	6 2147 1 prologue_end           @ ../Drivers/STM32F4xx_HAL_Driver/Src/stm32f4xx_hal_can.c:2147:1
	add	sp, #4
	bx	lr
.Ltmp339:
.Lfunc_end20:
	.size	HAL_CAN_TxMailbox0CompleteCallback, .Lfunc_end20-HAL_CAN_TxMailbox0CompleteCallback
	.cfi_endproc
	.cantunwind
	.fnend
                                        @ -- End function
	.section	.text.HAL_CAN_TxMailbox0AbortCallback,"ax",%progbits
	.hidden	HAL_CAN_TxMailbox0AbortCallback @ -- Begin function HAL_CAN_TxMailbox0AbortCallback
	.weak	HAL_CAN_TxMailbox0AbortCallback
	.p2align	2
	.type	HAL_CAN_TxMailbox0AbortCallback,%function
	.code	16                              @ @HAL_CAN_TxMailbox0AbortCallback
	.thumb_func
HAL_CAN_TxMailbox0AbortCallback:
.Lfunc_begin21:
	.loc	6 2190 0                        @ ../Drivers/STM32F4xx_HAL_Driver/Src/stm32f4xx_hal_can.c:2190:0
	.fnstart
	.cfi_startproc
@ %bb.0:
	.pad	#4
	sub	sp, #4
	.cfi_def_cfa_offset 4
	str	r0, [sp]
.Ltmp340:
	.loc	6 2198 1 prologue_end           @ ../Drivers/STM32F4xx_HAL_Driver/Src/stm32f4xx_hal_can.c:2198:1
	add	sp, #4
	bx	lr
.Ltmp341:
.Lfunc_end21:
	.size	HAL_CAN_TxMailbox0AbortCallback, .Lfunc_end21-HAL_CAN_TxMailbox0AbortCallback
	.cfi_endproc
	.cantunwind
	.fnend
                                        @ -- End function
	.section	.text.HAL_CAN_TxMailbox1CompleteCallback,"ax",%progbits
	.hidden	HAL_CAN_TxMailbox1CompleteCallback @ -- Begin function HAL_CAN_TxMailbox1CompleteCallback
	.weak	HAL_CAN_TxMailbox1CompleteCallback
	.p2align	2
	.type	HAL_CAN_TxMailbox1CompleteCallback,%function
	.code	16                              @ @HAL_CAN_TxMailbox1CompleteCallback
	.thumb_func
HAL_CAN_TxMailbox1CompleteCallback:
.Lfunc_begin22:
	.loc	6 2156 0                        @ ../Drivers/STM32F4xx_HAL_Driver/Src/stm32f4xx_hal_can.c:2156:0
	.fnstart
	.cfi_startproc
@ %bb.0:
	.pad	#4
	sub	sp, #4
	.cfi_def_cfa_offset 4
	str	r0, [sp]
.Ltmp342:
	.loc	6 2164 1 prologue_end           @ ../Drivers/STM32F4xx_HAL_Driver/Src/stm32f4xx_hal_can.c:2164:1
	add	sp, #4
	bx	lr
.Ltmp343:
.Lfunc_end22:
	.size	HAL_CAN_TxMailbox1CompleteCallback, .Lfunc_end22-HAL_CAN_TxMailbox1CompleteCallback
	.cfi_endproc
	.cantunwind
	.fnend
                                        @ -- End function
	.section	.text.HAL_CAN_TxMailbox1AbortCallback,"ax",%progbits
	.hidden	HAL_CAN_TxMailbox1AbortCallback @ -- Begin function HAL_CAN_TxMailbox1AbortCallback
	.weak	HAL_CAN_TxMailbox1AbortCallback
	.p2align	2
	.type	HAL_CAN_TxMailbox1AbortCallback,%function
	.code	16                              @ @HAL_CAN_TxMailbox1AbortCallback
	.thumb_func
HAL_CAN_TxMailbox1AbortCallback:
.Lfunc_begin23:
	.loc	6 2207 0                        @ ../Drivers/STM32F4xx_HAL_Driver/Src/stm32f4xx_hal_can.c:2207:0
	.fnstart
	.cfi_startproc
@ %bb.0:
	.pad	#4
	sub	sp, #4
	.cfi_def_cfa_offset 4
	str	r0, [sp]
.Ltmp344:
	.loc	6 2215 1 prologue_end           @ ../Drivers/STM32F4xx_HAL_Driver/Src/stm32f4xx_hal_can.c:2215:1
	add	sp, #4
	bx	lr
.Ltmp345:
.Lfunc_end23:
	.size	HAL_CAN_TxMailbox1AbortCallback, .Lfunc_end23-HAL_CAN_TxMailbox1AbortCallback
	.cfi_endproc
	.cantunwind
	.fnend
                                        @ -- End function
	.section	.text.HAL_CAN_TxMailbox2CompleteCallback,"ax",%progbits
	.hidden	HAL_CAN_TxMailbox2CompleteCallback @ -- Begin function HAL_CAN_TxMailbox2CompleteCallback
	.weak	HAL_CAN_TxMailbox2CompleteCallback
	.p2align	2
	.type	HAL_CAN_TxMailbox2CompleteCallback,%function
	.code	16                              @ @HAL_CAN_TxMailbox2CompleteCallback
	.thumb_func
HAL_CAN_TxMailbox2CompleteCallback:
.Lfunc_begin24:
	.loc	6 2173 0                        @ ../Drivers/STM32F4xx_HAL_Driver/Src/stm32f4xx_hal_can.c:2173:0
	.fnstart
	.cfi_startproc
@ %bb.0:
	.pad	#4
	sub	sp, #4
	.cfi_def_cfa_offset 4
	str	r0, [sp]
.Ltmp346:
	.loc	6 2181 1 prologue_end           @ ../Drivers/STM32F4xx_HAL_Driver/Src/stm32f4xx_hal_can.c:2181:1
	add	sp, #4
	bx	lr
.Ltmp347:
.Lfunc_end24:
	.size	HAL_CAN_TxMailbox2CompleteCallback, .Lfunc_end24-HAL_CAN_TxMailbox2CompleteCallback
	.cfi_endproc
	.cantunwind
	.fnend
                                        @ -- End function
	.section	.text.HAL_CAN_TxMailbox2AbortCallback,"ax",%progbits
	.hidden	HAL_CAN_TxMailbox2AbortCallback @ -- Begin function HAL_CAN_TxMailbox2AbortCallback
	.weak	HAL_CAN_TxMailbox2AbortCallback
	.p2align	2
	.type	HAL_CAN_TxMailbox2AbortCallback,%function
	.code	16                              @ @HAL_CAN_TxMailbox2AbortCallback
	.thumb_func
HAL_CAN_TxMailbox2AbortCallback:
.Lfunc_begin25:
	.loc	6 2224 0                        @ ../Drivers/STM32F4xx_HAL_Driver/Src/stm32f4xx_hal_can.c:2224:0
	.fnstart
	.cfi_startproc
@ %bb.0:
	.pad	#4
	sub	sp, #4
	.cfi_def_cfa_offset 4
	str	r0, [sp]
.Ltmp348:
	.loc	6 2232 1 prologue_end           @ ../Drivers/STM32F4xx_HAL_Driver/Src/stm32f4xx_hal_can.c:2232:1
	add	sp, #4
	bx	lr
.Ltmp349:
.Lfunc_end25:
	.size	HAL_CAN_TxMailbox2AbortCallback, .Lfunc_end25-HAL_CAN_TxMailbox2AbortCallback
	.cfi_endproc
	.cantunwind
	.fnend
                                        @ -- End function
	.section	.text.HAL_CAN_RxFifo0FullCallback,"ax",%progbits
	.hidden	HAL_CAN_RxFifo0FullCallback     @ -- Begin function HAL_CAN_RxFifo0FullCallback
	.weak	HAL_CAN_RxFifo0FullCallback
	.p2align	2
	.type	HAL_CAN_RxFifo0FullCallback,%function
	.code	16                              @ @HAL_CAN_RxFifo0FullCallback
	.thumb_func
HAL_CAN_RxFifo0FullCallback:
.Lfunc_begin26:
	.loc	6 2258 0                        @ ../Drivers/STM32F4xx_HAL_Driver/Src/stm32f4xx_hal_can.c:2258:0
	.fnstart
	.cfi_startproc
@ %bb.0:
	.pad	#4
	sub	sp, #4
	.cfi_def_cfa_offset 4
	str	r0, [sp]
.Ltmp350:
	.loc	6 2266 1 prologue_end           @ ../Drivers/STM32F4xx_HAL_Driver/Src/stm32f4xx_hal_can.c:2266:1
	add	sp, #4
	bx	lr
.Ltmp351:
.Lfunc_end26:
	.size	HAL_CAN_RxFifo0FullCallback, .Lfunc_end26-HAL_CAN_RxFifo0FullCallback
	.cfi_endproc
	.cantunwind
	.fnend
                                        @ -- End function
	.section	.text.HAL_CAN_RxFifo0MsgPendingCallback,"ax",%progbits
	.hidden	HAL_CAN_RxFifo0MsgPendingCallback @ -- Begin function HAL_CAN_RxFifo0MsgPendingCallback
	.weak	HAL_CAN_RxFifo0MsgPendingCallback
	.p2align	2
	.type	HAL_CAN_RxFifo0MsgPendingCallback,%function
	.code	16                              @ @HAL_CAN_RxFifo0MsgPendingCallback
	.thumb_func
HAL_CAN_RxFifo0MsgPendingCallback:
.Lfunc_begin27:
	.loc	6 2241 0                        @ ../Drivers/STM32F4xx_HAL_Driver/Src/stm32f4xx_hal_can.c:2241:0
	.fnstart
	.cfi_startproc
@ %bb.0:
	.pad	#4
	sub	sp, #4
	.cfi_def_cfa_offset 4
	str	r0, [sp]
.Ltmp352:
	.loc	6 2249 1 prologue_end           @ ../Drivers/STM32F4xx_HAL_Driver/Src/stm32f4xx_hal_can.c:2249:1
	add	sp, #4
	bx	lr
.Ltmp353:
.Lfunc_end27:
	.size	HAL_CAN_RxFifo0MsgPendingCallback, .Lfunc_end27-HAL_CAN_RxFifo0MsgPendingCallback
	.cfi_endproc
	.cantunwind
	.fnend
                                        @ -- End function
	.section	.text.HAL_CAN_RxFifo1FullCallback,"ax",%progbits
	.hidden	HAL_CAN_RxFifo1FullCallback     @ -- Begin function HAL_CAN_RxFifo1FullCallback
	.weak	HAL_CAN_RxFifo1FullCallback
	.p2align	2
	.type	HAL_CAN_RxFifo1FullCallback,%function
	.code	16                              @ @HAL_CAN_RxFifo1FullCallback
	.thumb_func
HAL_CAN_RxFifo1FullCallback:
.Lfunc_begin28:
	.loc	6 2292 0                        @ ../Drivers/STM32F4xx_HAL_Driver/Src/stm32f4xx_hal_can.c:2292:0
	.fnstart
	.cfi_startproc
@ %bb.0:
	.pad	#4
	sub	sp, #4
	.cfi_def_cfa_offset 4
	str	r0, [sp]
.Ltmp354:
	.loc	6 2300 1 prologue_end           @ ../Drivers/STM32F4xx_HAL_Driver/Src/stm32f4xx_hal_can.c:2300:1
	add	sp, #4
	bx	lr
.Ltmp355:
.Lfunc_end28:
	.size	HAL_CAN_RxFifo1FullCallback, .Lfunc_end28-HAL_CAN_RxFifo1FullCallback
	.cfi_endproc
	.cantunwind
	.fnend
                                        @ -- End function
	.section	.text.HAL_CAN_RxFifo1MsgPendingCallback,"ax",%progbits
	.hidden	HAL_CAN_RxFifo1MsgPendingCallback @ -- Begin function HAL_CAN_RxFifo1MsgPendingCallback
	.weak	HAL_CAN_RxFifo1MsgPendingCallback
	.p2align	2
	.type	HAL_CAN_RxFifo1MsgPendingCallback,%function
	.code	16                              @ @HAL_CAN_RxFifo1MsgPendingCallback
	.thumb_func
HAL_CAN_RxFifo1MsgPendingCallback:
.Lfunc_begin29:
	.loc	6 2275 0                        @ ../Drivers/STM32F4xx_HAL_Driver/Src/stm32f4xx_hal_can.c:2275:0
	.fnstart
	.cfi_startproc
@ %bb.0:
	.pad	#4
	sub	sp, #4
	.cfi_def_cfa_offset 4
	str	r0, [sp]
.Ltmp356:
	.loc	6 2283 1 prologue_end           @ ../Drivers/STM32F4xx_HAL_Driver/Src/stm32f4xx_hal_can.c:2283:1
	add	sp, #4
	bx	lr
.Ltmp357:
.Lfunc_end29:
	.size	HAL_CAN_RxFifo1MsgPendingCallback, .Lfunc_end29-HAL_CAN_RxFifo1MsgPendingCallback
	.cfi_endproc
	.cantunwind
	.fnend
                                        @ -- End function
	.section	.text.HAL_CAN_SleepCallback,"ax",%progbits
	.hidden	HAL_CAN_SleepCallback           @ -- Begin function HAL_CAN_SleepCallback
	.weak	HAL_CAN_SleepCallback
	.p2align	2
	.type	HAL_CAN_SleepCallback,%function
	.code	16                              @ @HAL_CAN_SleepCallback
	.thumb_func
HAL_CAN_SleepCallback:
.Lfunc_begin30:
	.loc	6 2309 0                        @ ../Drivers/STM32F4xx_HAL_Driver/Src/stm32f4xx_hal_can.c:2309:0
	.fnstart
	.cfi_startproc
@ %bb.0:
	.pad	#4
	sub	sp, #4
	.cfi_def_cfa_offset 4
	str	r0, [sp]
.Ltmp358:
	.loc	6 2316 1 prologue_end           @ ../Drivers/STM32F4xx_HAL_Driver/Src/stm32f4xx_hal_can.c:2316:1
	add	sp, #4
	bx	lr
.Ltmp359:
.Lfunc_end30:
	.size	HAL_CAN_SleepCallback, .Lfunc_end30-HAL_CAN_SleepCallback
	.cfi_endproc
	.cantunwind
	.fnend
                                        @ -- End function
	.section	.text.HAL_CAN_WakeUpFromRxMsgCallback,"ax",%progbits
	.hidden	HAL_CAN_WakeUpFromRxMsgCallback @ -- Begin function HAL_CAN_WakeUpFromRxMsgCallback
	.weak	HAL_CAN_WakeUpFromRxMsgCallback
	.p2align	2
	.type	HAL_CAN_WakeUpFromRxMsgCallback,%function
	.code	16                              @ @HAL_CAN_WakeUpFromRxMsgCallback
	.thumb_func
HAL_CAN_WakeUpFromRxMsgCallback:
.Lfunc_begin31:
	.loc	6 2325 0                        @ ../Drivers/STM32F4xx_HAL_Driver/Src/stm32f4xx_hal_can.c:2325:0
	.fnstart
	.cfi_startproc
@ %bb.0:
	.pad	#4
	sub	sp, #4
	.cfi_def_cfa_offset 4
	str	r0, [sp]
.Ltmp360:
	.loc	6 2333 1 prologue_end           @ ../Drivers/STM32F4xx_HAL_Driver/Src/stm32f4xx_hal_can.c:2333:1
	add	sp, #4
	bx	lr
.Ltmp361:
.Lfunc_end31:
	.size	HAL_CAN_WakeUpFromRxMsgCallback, .Lfunc_end31-HAL_CAN_WakeUpFromRxMsgCallback
	.cfi_endproc
	.cantunwind
	.fnend
                                        @ -- End function
	.section	.text.HAL_CAN_ErrorCallback,"ax",%progbits
	.hidden	HAL_CAN_ErrorCallback           @ -- Begin function HAL_CAN_ErrorCallback
	.weak	HAL_CAN_ErrorCallback
	.p2align	2
	.type	HAL_CAN_ErrorCallback,%function
	.code	16                              @ @HAL_CAN_ErrorCallback
	.thumb_func
HAL_CAN_ErrorCallback:
.Lfunc_begin32:
	.loc	6 2342 0                        @ ../Drivers/STM32F4xx_HAL_Driver/Src/stm32f4xx_hal_can.c:2342:0
	.fnstart
	.cfi_startproc
@ %bb.0:
	.pad	#4
	sub	sp, #4
	.cfi_def_cfa_offset 4
	str	r0, [sp]
.Ltmp362:
	.loc	6 2349 1 prologue_end           @ ../Drivers/STM32F4xx_HAL_Driver/Src/stm32f4xx_hal_can.c:2349:1
	add	sp, #4
	bx	lr
.Ltmp363:
.Lfunc_end32:
	.size	HAL_CAN_ErrorCallback, .Lfunc_end32-HAL_CAN_ErrorCallback
	.cfi_endproc
	.cantunwind
	.fnend
                                        @ -- End function
	.section	.text.HAL_CAN_GetState,"ax",%progbits
	.hidden	HAL_CAN_GetState                @ -- Begin function HAL_CAN_GetState
	.globl	HAL_CAN_GetState
	.p2align	2
	.type	HAL_CAN_GetState,%function
	.code	16                              @ @HAL_CAN_GetState
	.thumb_func
HAL_CAN_GetState:
.Lfunc_begin33:
	.loc	6 2379 0                        @ ../Drivers/STM32F4xx_HAL_Driver/Src/stm32f4xx_hal_can.c:2379:0
	.fnstart
	.cfi_startproc
@ %bb.0:
	.pad	#8
	sub	sp, #8
	.cfi_def_cfa_offset 8
	str	r0, [sp, #4]
.Ltmp364:
	.loc	6 2380 32 prologue_end          @ ../Drivers/STM32F4xx_HAL_Driver/Src/stm32f4xx_hal_can.c:2380:32
	ldr	r0, [sp, #4]
	.loc	6 2380 38 is_stmt 0             @ ../Drivers/STM32F4xx_HAL_Driver/Src/stm32f4xx_hal_can.c:2380:38
	ldrb.w	r0, [r0, #32]
	.loc	6 2380 24                       @ ../Drivers/STM32F4xx_HAL_Driver/Src/stm32f4xx_hal_can.c:2380:24
	strb.w	r0, [sp, #3]
.Ltmp365:
	.loc	6 2382 8 is_stmt 1              @ ../Drivers/STM32F4xx_HAL_Driver/Src/stm32f4xx_hal_can.c:2382:8
	ldrb.w	r0, [sp, #3]
	.loc	6 2382 38 is_stmt 0             @ ../Drivers/STM32F4xx_HAL_Driver/Src/stm32f4xx_hal_can.c:2382:38
	cmp	r0, #1
	beq	.LBB33_2
	b	.LBB33_1
.LBB33_1:
	.loc	6 2383 8 is_stmt 1              @ ../Drivers/STM32F4xx_HAL_Driver/Src/stm32f4xx_hal_can.c:2383:8
	ldrb.w	r0, [sp, #3]
.Ltmp366:
	.loc	6 2382 7                        @ ../Drivers/STM32F4xx_HAL_Driver/Src/stm32f4xx_hal_can.c:2382:7
	cmp	r0, #2
	bne	.LBB33_9
	b	.LBB33_2
.LBB33_2:
.Ltmp367:
	.loc	6 2386 10                       @ ../Drivers/STM32F4xx_HAL_Driver/Src/stm32f4xx_hal_can.c:2386:10
	ldr	r0, [sp, #4]
	.loc	6 2386 16 is_stmt 0             @ ../Drivers/STM32F4xx_HAL_Driver/Src/stm32f4xx_hal_can.c:2386:16
	ldr	r0, [r0]
	.loc	6 2386 26                       @ ../Drivers/STM32F4xx_HAL_Driver/Src/stm32f4xx_hal_can.c:2386:26
	ldr	r0, [r0, #4]
.Ltmp368:
	.loc	6 2386 9                        @ ../Drivers/STM32F4xx_HAL_Driver/Src/stm32f4xx_hal_can.c:2386:9
	lsls	r0, r0, #30
	cmp	r0, #0
	bpl	.LBB33_4
	b	.LBB33_3
.LBB33_3:
	.loc	6 0 9                           @ ../Drivers/STM32F4xx_HAL_Driver/Src/stm32f4xx_hal_can.c:0:9
	movs	r0, #4
.Ltmp369:
	.loc	6 2389 13 is_stmt 1             @ ../Drivers/STM32F4xx_HAL_Driver/Src/stm32f4xx_hal_can.c:2389:13
	strb.w	r0, [sp, #3]
	.loc	6 2390 5                        @ ../Drivers/STM32F4xx_HAL_Driver/Src/stm32f4xx_hal_can.c:2390:5
	b	.LBB33_8
.Ltmp370:
.LBB33_4:
	.loc	6 2392 15                       @ ../Drivers/STM32F4xx_HAL_Driver/Src/stm32f4xx_hal_can.c:2392:15
	ldr	r0, [sp, #4]
	.loc	6 2392 21 is_stmt 0             @ ../Drivers/STM32F4xx_HAL_Driver/Src/stm32f4xx_hal_can.c:2392:21
	ldr	r0, [r0]
	.loc	6 2392 31                       @ ../Drivers/STM32F4xx_HAL_Driver/Src/stm32f4xx_hal_can.c:2392:31
	ldr	r0, [r0]
.Ltmp371:
	.loc	6 2392 14                       @ ../Drivers/STM32F4xx_HAL_Driver/Src/stm32f4xx_hal_can.c:2392:14
	lsls	r0, r0, #30
	cmp	r0, #0
	bpl	.LBB33_6
	b	.LBB33_5
.LBB33_5:
	.loc	6 0 14                          @ ../Drivers/STM32F4xx_HAL_Driver/Src/stm32f4xx_hal_can.c:0:14
	movs	r0, #3
.Ltmp372:
	.loc	6 2395 13 is_stmt 1             @ ../Drivers/STM32F4xx_HAL_Driver/Src/stm32f4xx_hal_can.c:2395:13
	strb.w	r0, [sp, #3]
	.loc	6 2396 5                        @ ../Drivers/STM32F4xx_HAL_Driver/Src/stm32f4xx_hal_can.c:2396:5
	b	.LBB33_7
.Ltmp373:
.LBB33_6:
	.loc	6 0 5 is_stmt 0                 @ ../Drivers/STM32F4xx_HAL_Driver/Src/stm32f4xx_hal_can.c:0:5
	b	.LBB33_7
.LBB33_7:
	b	.LBB33_8
.LBB33_8:
	.loc	6 2401 3 is_stmt 1              @ ../Drivers/STM32F4xx_HAL_Driver/Src/stm32f4xx_hal_can.c:2401:3
	b	.LBB33_9
.Ltmp374:
.LBB33_9:
	.loc	6 2404 10                       @ ../Drivers/STM32F4xx_HAL_Driver/Src/stm32f4xx_hal_can.c:2404:10
	ldrb.w	r0, [sp, #3]
	.loc	6 2404 3 is_stmt 0              @ ../Drivers/STM32F4xx_HAL_Driver/Src/stm32f4xx_hal_can.c:2404:3
	add	sp, #8
	bx	lr
.Ltmp375:
.Lfunc_end33:
	.size	HAL_CAN_GetState, .Lfunc_end33-HAL_CAN_GetState
	.cfi_endproc
	.cantunwind
	.fnend
                                        @ -- End function
	.section	.text.HAL_CAN_GetError,"ax",%progbits
	.hidden	HAL_CAN_GetError                @ -- Begin function HAL_CAN_GetError
	.globl	HAL_CAN_GetError
	.p2align	2
	.type	HAL_CAN_GetError,%function
	.code	16                              @ @HAL_CAN_GetError
	.thumb_func
HAL_CAN_GetError:
.Lfunc_begin34:
	.loc	6 2414 0 is_stmt 1              @ ../Drivers/STM32F4xx_HAL_Driver/Src/stm32f4xx_hal_can.c:2414:0
	.fnstart
	.cfi_startproc
@ %bb.0:
	.pad	#4
	sub	sp, #4
	.cfi_def_cfa_offset 4
	str	r0, [sp]
.Ltmp376:
	.loc	6 2416 10 prologue_end          @ ../Drivers/STM32F4xx_HAL_Driver/Src/stm32f4xx_hal_can.c:2416:10
	ldr	r0, [sp]
	.loc	6 2416 16 is_stmt 0             @ ../Drivers/STM32F4xx_HAL_Driver/Src/stm32f4xx_hal_can.c:2416:16
	ldr	r0, [r0, #36]
	.loc	6 2416 3                        @ ../Drivers/STM32F4xx_HAL_Driver/Src/stm32f4xx_hal_can.c:2416:3
	add	sp, #4
	bx	lr
.Ltmp377:
.Lfunc_end34:
	.size	HAL_CAN_GetError, .Lfunc_end34-HAL_CAN_GetError
	.cfi_endproc
	.cantunwind
	.fnend
                                        @ -- End function
	.section	.text.HAL_CAN_ResetError,"ax",%progbits
	.hidden	HAL_CAN_ResetError              @ -- Begin function HAL_CAN_ResetError
	.globl	HAL_CAN_ResetError
	.p2align	2
	.type	HAL_CAN_ResetError,%function
	.code	16                              @ @HAL_CAN_ResetError
	.thumb_func
HAL_CAN_ResetError:
.Lfunc_begin35:
	.loc	6 2426 0 is_stmt 1              @ ../Drivers/STM32F4xx_HAL_Driver/Src/stm32f4xx_hal_can.c:2426:0
	.fnstart
	.cfi_startproc
@ %bb.0:
	.pad	#8
	sub	sp, #8
	.cfi_def_cfa_offset 8
	str	r0, [sp, #4]
	movs	r0, #0
.Ltmp378:
	.loc	6 2427 21 prologue_end          @ ../Drivers/STM32F4xx_HAL_Driver/Src/stm32f4xx_hal_can.c:2427:21
	strb.w	r0, [sp, #3]
	.loc	6 2428 32                       @ ../Drivers/STM32F4xx_HAL_Driver/Src/stm32f4xx_hal_can.c:2428:32
	ldr	r0, [sp, #4]
	.loc	6 2428 38 is_stmt 0             @ ../Drivers/STM32F4xx_HAL_Driver/Src/stm32f4xx_hal_can.c:2428:38
	ldrb.w	r0, [r0, #32]
	.loc	6 2428 24                       @ ../Drivers/STM32F4xx_HAL_Driver/Src/stm32f4xx_hal_can.c:2428:24
	strb.w	r0, [sp, #2]
.Ltmp379:
	.loc	6 2430 8 is_stmt 1              @ ../Drivers/STM32F4xx_HAL_Driver/Src/stm32f4xx_hal_can.c:2430:8
	ldrb.w	r0, [sp, #2]
	.loc	6 2430 38 is_stmt 0             @ ../Drivers/STM32F4xx_HAL_Driver/Src/stm32f4xx_hal_can.c:2430:38
	cmp	r0, #1
	beq	.LBB35_2
	b	.LBB35_1
.LBB35_1:
	.loc	6 2431 8 is_stmt 1              @ ../Drivers/STM32F4xx_HAL_Driver/Src/stm32f4xx_hal_can.c:2431:8
	ldrb.w	r0, [sp, #2]
.Ltmp380:
	.loc	6 2430 7                        @ ../Drivers/STM32F4xx_HAL_Driver/Src/stm32f4xx_hal_can.c:2430:7
	cmp	r0, #2
	bne	.LBB35_3
	b	.LBB35_2
.LBB35_2:
.Ltmp381:
	.loc	6 2434 5                        @ ../Drivers/STM32F4xx_HAL_Driver/Src/stm32f4xx_hal_can.c:2434:5
	ldr	r1, [sp, #4]
	movs	r0, #0
	.loc	6 2434 21 is_stmt 0             @ ../Drivers/STM32F4xx_HAL_Driver/Src/stm32f4xx_hal_can.c:2434:21
	str	r0, [r1, #36]
	.loc	6 2435 3 is_stmt 1              @ ../Drivers/STM32F4xx_HAL_Driver/Src/stm32f4xx_hal_can.c:2435:3
	b	.LBB35_4
.Ltmp382:
.LBB35_3:
	.loc	6 2439 5                        @ ../Drivers/STM32F4xx_HAL_Driver/Src/stm32f4xx_hal_can.c:2439:5
	ldr	r1, [sp, #4]
	.loc	6 2439 21 is_stmt 0             @ ../Drivers/STM32F4xx_HAL_Driver/Src/stm32f4xx_hal_can.c:2439:21
	ldr	r0, [r1, #36]
	orr	r0, r0, #262144
	str	r0, [r1, #36]
	movs	r0, #1
	.loc	6 2441 12 is_stmt 1             @ ../Drivers/STM32F4xx_HAL_Driver/Src/stm32f4xx_hal_can.c:2441:12
	strb.w	r0, [sp, #3]
	b	.LBB35_4
.Ltmp383:
.LBB35_4:
	.loc	6 2445 10                       @ ../Drivers/STM32F4xx_HAL_Driver/Src/stm32f4xx_hal_can.c:2445:10
	ldrb.w	r0, [sp, #3]
	.loc	6 2445 3 is_stmt 0              @ ../Drivers/STM32F4xx_HAL_Driver/Src/stm32f4xx_hal_can.c:2445:3
	add	sp, #8
	bx	lr
.Ltmp384:
.Lfunc_end35:
	.size	HAL_CAN_ResetError, .Lfunc_end35-HAL_CAN_ResetError
	.cfi_endproc
	.cantunwind
	.fnend
                                        @ -- End function
	.section	".note.GNU-stack","",%progbits
	.eabi_attribute	30, 6	@ Tag_ABI_optimization_goals
	.ARM_attribute	16, 1	@ Tag_AV_eba