	.text
	.syntax unified
	.eabi_attribute	67, "2.09"	@ Tag_conformance
	.cpu	cortex-m4
	.eabi_attribute	6, 13	@ Tag_CPU_arch
	.eabi_attribute	7, 77	@ Tag_CPU_arch_profile
	.eabi_attribute	8, 0	@ Tag_ARM_ISA_use
	.eabi_attribute	9, 2	@ Tag_THUMB_ISA_use
	.fpu	fpv4-sp-d16
	.eabi_attribute	27, 1	@ Tag_ABI_HardFP_use
	.eabi_attribute	36, 1	@ Tag_FP_HP_extension
	.eabi_attribute	34, 1	@ Tag_CPU_unaligned_access
	.eabi_attribute	17, 1	@ Tag_ABI_PCS_GOT_use
	.eabi_attribute	20, 2	@ Tag_ABI_FP_denormal
	.eabi_attribute	21, 0	@ Tag_ABI_FP_exceptions
	.eabi_attribute	23, 3	@ Tag_ABI_FP_number_model
	.eabi_attribute	24, 1	@ Tag_ABI_align_needed
	.eabi_attribute	25, 1	@ Tag_ABI_align_preserved
	.eabi_attribute	28, 1	@ Tag_ABI_VFP_args
	.eabi_attribute	38, 1	@ Tag_ABI_FP_16bit_format
	.eabi_attribute	18, 2	@ Tag_ABI_PCS_wchar_t
	.eabi_attribute	26, 1	@ Tag_ABI_enum_size
	.eabi_attribute	14, 0	@ Tag_ABI_PCS_R9_use
	.file	"stm32f4xx_hal_tim_ex.c"
	.file	1 "D:\\horizon\\Horizon_Infantry (2)\\MDK-ARM" "../Drivers/STM32F4xx_HAL_Driver/Inc/stm32f4xx_hal_def.h"
	.file	2 "D:\\horizon\\Horizon_Infantry (2)\\MDK-ARM" "../Drivers/STM32F4xx_HAL_Driver/Inc\\stm32f4xx_hal_tim.h"
	.file	3 "D:\\horizon\\Horizon_Infantry (2)\\MDK-ARM" "../Drivers/STM32F4xx_HAL_Driver/Inc\\stm32f4xx_hal_dma.h"
	.file	4 "D:\\horizon\\Horizon_Infantry (2)\\MDK-ARM" "../Drivers/CMSIS/Device/ST/STM32F4xx/Include\\stm32f4xx.h"
	.file	5 "D:\\" "kevil\\ARM\\ARMCLANG\\Bin\\..\\include\\stdint.h"
	.file	6 "D:\\horizon\\Horizon_Infantry (2)\\MDK-ARM" "../Drivers/CMSIS/Device/ST/STM32F4xx/Include/stm32f407xx.h"
	.section	.text.HAL_TIMEx_HallSensor_Init,"ax",%progbits
	.hidden	HAL_TIMEx_HallSensor_Init       @ -- Begin function HAL_TIMEx_HallSensor_Init
	.globl	HAL_TIMEx_HallSensor_Init
	.p2align	2
	.type	HAL_TIMEx_HallSensor_Init,%function
	.code	16                              @ @HAL_TIMEx_HallSensor_Init
	.thumb_func
HAL_TIMEx_HallSensor_Init:
.Lfunc_begin0:
	.file	7 "D:\\horizon\\Horizon_Infantry (2)\\MDK-ARM" "../Drivers/STM32F4xx_HAL_Driver/Src/stm32f4xx_hal_tim_ex.c"
	.loc	7 139 0                         @ ../Drivers/STM32F4xx_HAL_Driver/Src/stm32f4xx_hal_tim_ex.c:139:0
	.fnstart
	.cfi_sections .debug_frame
	.cfi_startproc
@ %bb.0:
	.save	{r7, lr}
	push	{r7, lr}
	.cfi_def_cfa_offset 8
	.cfi_offset lr, -4
	.cfi_offset r7, -8
	.pad	#48
	sub	sp, #48
	.cfi_def_cfa_offset 56
	str	r0, [sp, #40]
	str	r1, [sp, #36]
.Ltmp0:
	.loc	7 143 7 prologue_end            @ ../Drivers/STM32F4xx_HAL_Driver/Src/stm32f4xx_hal_tim_ex.c:143:7
	ldr	r0, [sp, #40]
.Ltmp1:
	.loc	7 143 7 is_stmt 0               @ ../Drivers/STM32F4xx_HAL_Driver/Src/stm32f4xx_hal_tim_ex.c:143:7
	cbnz	r0, .LBB0_2
	b	.LBB0_1
.LBB0_1:
	.loc	7 0 7                           @ ../Drivers/STM32F4xx_HAL_Driver/Src/stm32f4xx_hal_tim_ex.c:0:7
	movs	r0, #1
.Ltmp2:
	.loc	7 145 5 is_stmt 1               @ ../Drivers/STM32F4xx_HAL_Driver/Src/stm32f4xx_hal_tim_ex.c:145:5
	strb.w	r0, [sp, #47]
	b	.LBB0_5
.Ltmp3:
.LBB0_2:
	.loc	7 158 7                         @ ../Drivers/STM32F4xx_HAL_Driver/Src/stm32f4xx_hal_tim_ex.c:158:7
	ldr	r0, [sp, #40]
	.loc	7 158 13 is_stmt 0              @ ../Drivers/STM32F4xx_HAL_Driver/Src/stm32f4xx_hal_tim_ex.c:158:13
	ldrb.w	r0, [r0, #61]
.Ltmp4:
	.loc	7 158 7                         @ ../Drivers/STM32F4xx_HAL_Driver/Src/stm32f4xx_hal_tim_ex.c:158:7
	cbnz	r0, .LBB0_4
	b	.LBB0_3
.LBB0_3:
.Ltmp5:
	.loc	7 161 5 is_stmt 1               @ ../Drivers/STM32F4xx_HAL_Driver/Src/stm32f4xx_hal_tim_ex.c:161:5
	ldr	r1, [sp, #40]
	movs	r0, #0
	.loc	7 161 16 is_stmt 0              @ ../Drivers/STM32F4xx_HAL_Driver/Src/stm32f4xx_hal_tim_ex.c:161:16
	strb.w	r0, [r1, #60]
	.loc	7 175 34 is_stmt 1              @ ../Drivers/STM32F4xx_HAL_Driver/Src/stm32f4xx_hal_tim_ex.c:175:34
	ldr	r0, [sp, #40]
	.loc	7 175 5 is_stmt 0               @ ../Drivers/STM32F4xx_HAL_Driver/Src/stm32f4xx_hal_tim_ex.c:175:5
	bl	HAL_TIMEx_HallSensor_MspInit
	.loc	7 177 3 is_stmt 1               @ ../Drivers/STM32F4xx_HAL_Driver/Src/stm32f4xx_hal_tim_ex.c:177:3
	b	.LBB0_4
.Ltmp6:
.LBB0_4:
	.loc	7 180 3                         @ ../Drivers/STM32F4xx_HAL_Driver/Src/stm32f4xx_hal_tim_ex.c:180:3
	ldr	r1, [sp, #40]
	movs	r0, #2
	.loc	7 180 15 is_stmt 0              @ ../Drivers/STM32F4xx_HAL_Driver/Src/stm32f4xx_hal_tim_ex.c:180:15
	strb.w	r0, [r1, #61]
	.loc	7 183 22 is_stmt 1              @ ../Drivers/STM32F4xx_HAL_Driver/Src/stm32f4xx_hal_tim_ex.c:183:22
	ldr	r1, [sp, #40]
	.loc	7 183 28 is_stmt 0              @ ../Drivers/STM32F4xx_HAL_Driver/Src/stm32f4xx_hal_tim_ex.c:183:28
	ldr	r0, [r1], #4
	.loc	7 183 3                         @ ../Drivers/STM32F4xx_HAL_Driver/Src/stm32f4xx_hal_tim_ex.c:183:3
	bl	TIM_Base_SetConfig
	.loc	7 186 21 is_stmt 1              @ ../Drivers/STM32F4xx_HAL_Driver/Src/stm32f4xx_hal_tim_ex.c:186:21
	ldr	r0, [sp, #40]
	.loc	7 186 27 is_stmt 0              @ ../Drivers/STM32F4xx_HAL_Driver/Src/stm32f4xx_hal_tim_ex.c:186:27
	ldr	r0, [r0]
	.loc	7 186 37                        @ ../Drivers/STM32F4xx_HAL_Driver/Src/stm32f4xx_hal_tim_ex.c:186:37
	ldr	r2, [sp, #36]
	.loc	7 186 46                        @ ../Drivers/STM32F4xx_HAL_Driver/Src/stm32f4xx_hal_tim_ex.c:186:46
	ldr	r1, [r2]
	.loc	7 186 85                        @ ../Drivers/STM32F4xx_HAL_Driver/Src/stm32f4xx_hal_tim_ex.c:186:85
	ldr	r3, [r2, #8]
	movs	r2, #3
	.loc	7 186 3                         @ ../Drivers/STM32F4xx_HAL_Driver/Src/stm32f4xx_hal_tim_ex.c:186:3
	bl	TIM_TI1_SetConfig
	.loc	7 189 3 is_stmt 1               @ ../Drivers/STM32F4xx_HAL_Driver/Src/stm32f4xx_hal_tim_ex.c:189:3
	ldr	r0, [sp, #40]
	.loc	7 189 9 is_stmt 0               @ ../Drivers/STM32F4xx_HAL_Driver/Src/stm32f4xx_hal_tim_ex.c:189:9
	ldr	r1, [r0]
	.loc	7 189 25                        @ ../Drivers/STM32F4xx_HAL_Driver/Src/stm32f4xx_hal_tim_ex.c:189:25
	ldr	r0, [r1, #24]
	bic	r0, r0, #12
	str	r0, [r1, #24]
	.loc	7 191 28 is_stmt 1              @ ../Drivers/STM32F4xx_HAL_Driver/Src/stm32f4xx_hal_tim_ex.c:191:28
	ldr	r0, [sp, #36]
	.loc	7 191 37 is_stmt 0              @ ../Drivers/STM32F4xx_HAL_Driver/Src/stm32f4xx_hal_tim_ex.c:191:37
	ldr	r2, [r0, #4]
	.loc	7 191 3                         @ ../Drivers/STM32F4xx_HAL_Driver/Src/stm32f4xx_hal_tim_ex.c:191:3
	ldr	r0, [sp, #40]
	.loc	7 191 9                         @ ../Drivers/STM32F4xx_HAL_Driver/Src/stm32f4xx_hal_tim_ex.c:191:9
	ldr	r1, [r0]
	.loc	7 191 25                        @ ../Drivers/STM32F4xx_HAL_Driver/Src/stm32f4xx_hal_tim_ex.c:191:25
	ldr	r0, [r1, #24]
	orrs	r0, r2
	str	r0, [r1, #24]
	.loc	7 194 3 is_stmt 1               @ ../Drivers/STM32F4xx_HAL_Driver/Src/stm32f4xx_hal_tim_ex.c:194:3
	ldr	r0, [sp, #40]
	.loc	7 194 9 is_stmt 0               @ ../Drivers/STM32F4xx_HAL_Driver/Src/stm32f4xx_hal_tim_ex.c:194:9
	ldr	r1, [r0]
	.loc	7 194 23                        @ ../Drivers/STM32F4xx_HAL_Driver/Src/stm32f4xx_hal_tim_ex.c:194:23
	ldr	r0, [r1, #4]
	orr	r0, r0, #128
	str	r0, [r1, #4]
	.loc	7 197 3 is_stmt 1               @ ../Drivers/STM32F4xx_HAL_Driver/Src/stm32f4xx_hal_tim_ex.c:197:3
	ldr	r0, [sp, #40]
	.loc	7 197 9 is_stmt 0               @ ../Drivers/STM32F4xx_HAL_Driver/Src/stm32f4xx_hal_tim_ex.c:197:9
	ldr	r1, [r0]
	.loc	7 197 24                        @ ../Drivers/STM32F4xx_HAL_Driver/Src/stm32f4xx_hal_tim_ex.c:197:24
	ldr	r0, [r1, #8]
	bic	r0, r0, #112
	str	r0, [r1, #8]
	.loc	7 198 3 is_stmt 1               @ ../Drivers/STM32F4xx_HAL_Driver/Src/stm32f4xx_hal_tim_ex.c:198:3
	ldr	r0, [sp, #40]
	.loc	7 198 9 is_stmt 0               @ ../Drivers/STM32F4xx_HAL_Driver/Src/stm32f4xx_hal_tim_ex.c:198:9
	ldr	r1, [r0]
	.loc	7 198 24                        @ ../Drivers/STM32F4xx_HAL_Driver/Src/stm32f4xx_hal_tim_ex.c:198:24
	ldr	r0, [r1, #8]
	orr	r0, r0, #64
	str	r0, [r1, #8]
	.loc	7 201 3 is_stmt 1               @ ../Drivers/STM32F4xx_HAL_Driver/Src/stm32f4xx_hal_tim_ex.c:201:3
	ldr	r0, [sp, #40]
	.loc	7 201 9 is_stmt 0               @ ../Drivers/STM32F4xx_HAL_Driver/Src/stm32f4xx_hal_tim_ex.c:201:9
	ldr	r1, [r0]
	.loc	7 201 24                        @ ../Drivers/STM32F4xx_HAL_Driver/Src/stm32f4xx_hal_tim_ex.c:201:24
	ldr	r0, [r1, #8]
	bic	r0, r0, #7
	str	r0, [r1, #8]
	.loc	7 202 3 is_stmt 1               @ ../Drivers/STM32F4xx_HAL_Driver/Src/stm32f4xx_hal_tim_ex.c:202:3
	ldr	r0, [sp, #40]
	.loc	7 202 9 is_stmt 0               @ ../Drivers/STM32F4xx_HAL_Driver/Src/stm32f4xx_hal_tim_ex.c:202:9
	ldr	r1, [r0]
	.loc	7 202 24                        @ ../Drivers/STM32F4xx_HAL_Driver/Src/stm32f4xx_hal_tim_ex.c:202:24
	ldr	r0, [r1, #8]
	orr	r0, r0, #4
	str	r0, [r1, #8]
	movs	r0, #0
	.loc	7 205 24 is_stmt 1              @ ../Drivers/STM32F4xx_HAL_Driver/Src/stm32f4xx_hal_tim_ex.c:205:24
	str	r0, [sp, #4]                    @ 4-byte Spill
	str	r0, [sp, #24]
	.loc	7 206 25                        @ ../Drivers/STM32F4xx_HAL_Driver/Src/stm32f4xx_hal_tim_ex.c:206:25
	str	r0, [sp, #28]
	movs	r1, #112
	.loc	7 207 20                        @ ../Drivers/STM32F4xx_HAL_Driver/Src/stm32f4xx_hal_tim_ex.c:207:20
	str	r1, [sp, #8]
	.loc	7 208 26                        @ ../Drivers/STM32F4xx_HAL_Driver/Src/stm32f4xx_hal_tim_ex.c:208:26
	str	r0, [sp, #32]
	.loc	7 209 25                        @ ../Drivers/STM32F4xx_HAL_Driver/Src/stm32f4xx_hal_tim_ex.c:209:25
	str	r0, [sp, #20]
	.loc	7 210 24                        @ ../Drivers/STM32F4xx_HAL_Driver/Src/stm32f4xx_hal_tim_ex.c:210:24
	str	r0, [sp, #16]
	.loc	7 211 21                        @ ../Drivers/STM32F4xx_HAL_Driver/Src/stm32f4xx_hal_tim_ex.c:211:21
	ldr	r0, [sp, #36]
	.loc	7 211 30 is_stmt 0              @ ../Drivers/STM32F4xx_HAL_Driver/Src/stm32f4xx_hal_tim_ex.c:211:30
	ldr	r0, [r0, #12]
	.loc	7 211 19                        @ ../Drivers/STM32F4xx_HAL_Driver/Src/stm32f4xx_hal_tim_ex.c:211:19
	str	r0, [sp, #12]
	.loc	7 213 21 is_stmt 1              @ ../Drivers/STM32F4xx_HAL_Driver/Src/stm32f4xx_hal_tim_ex.c:213:21
	ldr	r0, [sp, #40]
	.loc	7 213 27 is_stmt 0              @ ../Drivers/STM32F4xx_HAL_Driver/Src/stm32f4xx_hal_tim_ex.c:213:27
	ldr	r0, [r0]
	add	r1, sp, #8
	.loc	7 213 3                         @ ../Drivers/STM32F4xx_HAL_Driver/Src/stm32f4xx_hal_tim_ex.c:213:3
	bl	TIM_OC2_SetConfig
	ldr	r0, [sp, #4]                    @ 4-byte Reload
	.loc	7 217 3 is_stmt 1               @ ../Drivers/STM32F4xx_HAL_Driver/Src/stm32f4xx_hal_tim_ex.c:217:3
	ldr	r1, [sp, #40]
	.loc	7 217 9 is_stmt 0               @ ../Drivers/STM32F4xx_HAL_Driver/Src/stm32f4xx_hal_tim_ex.c:217:9
	ldr	r2, [r1]
	.loc	7 217 23                        @ ../Drivers/STM32F4xx_HAL_Driver/Src/stm32f4xx_hal_tim_ex.c:217:23
	ldr	r1, [r2, #4]
	bic	r1, r1, #112
	str	r1, [r2, #4]
	.loc	7 218 3 is_stmt 1               @ ../Drivers/STM32F4xx_HAL_Driver/Src/stm32f4xx_hal_tim_ex.c:218:3
	ldr	r1, [sp, #40]
	.loc	7 218 9 is_stmt 0               @ ../Drivers/STM32F4xx_HAL_Driver/Src/stm32f4xx_hal_tim_ex.c:218:9
	ldr	r2, [r1]
	.loc	7 218 23                        @ ../Drivers/STM32F4xx_HAL_Driver/Src/stm32f4xx_hal_tim_ex.c:218:23
	ldr	r1, [r2, #4]
	orr	r1, r1, #80
	str	r1, [r2, #4]
	.loc	7 221 3 is_stmt 1               @ ../Drivers/STM32F4xx_HAL_Driver/Src/stm32f4xx_hal_tim_ex.c:221:3
	ldr	r2, [sp, #40]
	movs	r1, #1
	.loc	7 221 23 is_stmt 0              @ ../Drivers/STM32F4xx_HAL_Driver/Src/stm32f4xx_hal_tim_ex.c:221:23
	strb.w	r1, [r2, #70]
	.loc	7 224 39 is_stmt 1              @ ../Drivers/STM32F4xx_HAL_Driver/Src/stm32f4xx_hal_tim_ex.c:224:39
	ldr	r2, [sp, #40]
	.loc	7 224 62 is_stmt 0              @ ../Drivers/STM32F4xx_HAL_Driver/Src/stm32f4xx_hal_tim_ex.c:224:62
	strb.w	r1, [r2, #62]
	.loc	7 225 132 is_stmt 1             @ ../Drivers/STM32F4xx_HAL_Driver/Src/stm32f4xx_hal_tim_ex.c:225:132
	ldr	r2, [sp, #40]
	.loc	7 225 155 is_stmt 0             @ ../Drivers/STM32F4xx_HAL_Driver/Src/stm32f4xx_hal_tim_ex.c:225:155
	strb.w	r1, [r2, #63]
	.loc	7 226 39 is_stmt 1              @ ../Drivers/STM32F4xx_HAL_Driver/Src/stm32f4xx_hal_tim_ex.c:226:39
	ldr	r2, [sp, #40]
	.loc	7 226 63 is_stmt 0              @ ../Drivers/STM32F4xx_HAL_Driver/Src/stm32f4xx_hal_tim_ex.c:226:63
	strb.w	r1, [r2, #66]
	.loc	7 227 133 is_stmt 1             @ ../Drivers/STM32F4xx_HAL_Driver/Src/stm32f4xx_hal_tim_ex.c:227:133
	ldr	r2, [sp, #40]
	.loc	7 227 157 is_stmt 0             @ ../Drivers/STM32F4xx_HAL_Driver/Src/stm32f4xx_hal_tim_ex.c:227:157
	strb.w	r1, [r2, #67]
	.loc	7 230 3 is_stmt 1               @ ../Drivers/STM32F4xx_HAL_Driver/Src/stm32f4xx_hal_tim_ex.c:230:3
	ldr	r2, [sp, #40]
	.loc	7 230 15 is_stmt 0              @ ../Drivers/STM32F4xx_HAL_Driver/Src/stm32f4xx_hal_tim_ex.c:230:15
	strb.w	r1, [r2, #61]
	.loc	7 232 3 is_stmt 1               @ ../Drivers/STM32F4xx_HAL_Driver/Src/stm32f4xx_hal_tim_ex.c:232:3
	strb.w	r0, [sp, #47]
	b	.LBB0_5
.LBB0_5:
	.loc	7 233 1                         @ ../Drivers/STM32F4xx_HAL_Driver/Src/stm32f4xx_hal_tim_ex.c:233:1
	ldrb.w	r0, [sp, #47]
	add	sp, #48
	pop	{r7, pc}
.Ltmp7:
.Lfunc_end0:
	.size	HAL_TIMEx_HallSensor_Init, .Lfunc_end0-HAL_TIMEx_HallSensor_Init
	.cfi_endproc
	.cantunwind
	.fnend
                                        @ -- End function
	.section	.text.HAL_TIMEx_HallSensor_MspInit,"ax",%progbits
	.hidden	HAL_TIMEx_HallSensor_MspInit    @ -- Begin function HAL_TIMEx_HallSensor_MspInit
	.weak	HAL_TIMEx_HallSensor_MspInit
	.p2align	2
	.type	HAL_TIMEx_HallSensor_MspInit,%function
	.code	16                              @ @HAL_TIMEx_HallSensor_MspInit
	.thumb_func
HAL_TIMEx_HallSensor_MspInit:
.Lfunc_begin1:
	.loc	7 286 0                         @ ../Drivers/STM32F4xx_HAL_Driver/Src/stm32f4xx_hal_tim_ex.c:286:0
	.fnstart
	.cfi_startproc
@ %bb.0:
	.pad	#4
	sub	sp, #4
	.cfi_def_cfa_offset 4
	str	r0, [sp]
.Ltmp8:
	.loc	7 293 1 prologue_end            @ ../Drivers/STM32F4xx_HAL_Driver/Src/stm32f4xx_hal_tim_ex.c:293:1
	add	sp, #4
	bx	lr
.Ltmp9:
.Lfunc_end1:
	.size	HAL_TIMEx_HallSensor_MspInit, .Lfunc_end1-HAL_TIMEx_HallSensor_MspInit
	.cfi_endproc
	.cantunwind
	.fnend
                                        @ -- End function
	.section	.text.HAL_TIMEx_HallSensor_DeInit,"ax",%progbits
	.hidden	HAL_TIMEx_HallSensor_DeInit     @ -- Begin function HAL_TIMEx_HallSensor_DeInit
	.globl	HAL_TIMEx_HallSensor_DeInit
	.p2align	2
	.type	HAL_TIMEx_HallSensor_DeInit,%function
	.code	16                              @ @HAL_TIMEx_HallSensor_DeInit
	.thumb_func
HAL_TIMEx_HallSensor_DeInit:
.Lfunc_begin2:
	.loc	7 241 0                         @ ../Drivers/STM32F4xx_HAL_Driver/Src/stm32f4xx_hal_tim_ex.c:241:0
	.fnstart
	.cfi_startproc
@ %bb.0:
	.save	{r7, lr}
	push	{r7, lr}
	.cfi_def_cfa_offset 8
	.cfi_offset lr, -4
	.cfi_offset r7, -8
	.pad	#8
	sub	sp, #8
	.cfi_def_cfa_offset 16
	str	r0, [sp, #4]
.Ltmp10:
	.loc	7 245 3 prologue_end            @ ../Drivers/STM32F4xx_HAL_Driver/Src/stm32f4xx_hal_tim_ex.c:245:3
	ldr	r1, [sp, #4]
	movs	r0, #2
	.loc	7 245 15 is_stmt 0              @ ../Drivers/STM32F4xx_HAL_Driver/Src/stm32f4xx_hal_tim_ex.c:245:15
	strb.w	r0, [r1, #61]
	.loc	7 248 3 is_stmt 1               @ ../Drivers/STM32F4xx_HAL_Driver/Src/stm32f4xx_hal_tim_ex.c:248:3
	b	.LBB2_1
.LBB2_1:
.Ltmp11:
	.loc	7 248 14 is_stmt 0              @ ../Drivers/STM32F4xx_HAL_Driver/Src/stm32f4xx_hal_tim_ex.c:248:14
	ldr	r0, [sp, #4]
	.loc	7 248 21                        @ ../Drivers/STM32F4xx_HAL_Driver/Src/stm32f4xx_hal_tim_ex.c:248:21
	ldr	r0, [r0]
	.loc	7 248 31                        @ ../Drivers/STM32F4xx_HAL_Driver/Src/stm32f4xx_hal_tim_ex.c:248:31
	ldr	r0, [r0, #32]
	movw	r1, #4369
.Ltmp12:
	.loc	7 248 12                        @ ../Drivers/STM32F4xx_HAL_Driver/Src/stm32f4xx_hal_tim_ex.c:248:12
	tst	r0, r1
	bne	.LBB2_5
	b	.LBB2_2
.LBB2_2:
.Ltmp13:
	.loc	7 248 139                       @ ../Drivers/STM32F4xx_HAL_Driver/Src/stm32f4xx_hal_tim_ex.c:248:139
	ldr	r0, [sp, #4]
	.loc	7 248 146                       @ ../Drivers/STM32F4xx_HAL_Driver/Src/stm32f4xx_hal_tim_ex.c:248:146
	ldr	r0, [r0]
	.loc	7 248 156                       @ ../Drivers/STM32F4xx_HAL_Driver/Src/stm32f4xx_hal_tim_ex.c:248:156
	ldr	r0, [r0, #32]
	movw	r1, #1092
.Ltmp14:
	.loc	7 248 137                       @ ../Drivers/STM32F4xx_HAL_Driver/Src/stm32f4xx_hal_tim_ex.c:248:137
	tst	r0, r1
	bne	.LBB2_4
	b	.LBB2_3
.LBB2_3:
.Ltmp15:
	.loc	7 248 242                       @ ../Drivers/STM32F4xx_HAL_Driver/Src/stm32f4xx_hal_tim_ex.c:248:242
	ldr	r0, [sp, #4]
	.loc	7 248 249                       @ ../Drivers/STM32F4xx_HAL_Driver/Src/stm32f4xx_hal_tim_ex.c:248:249
	ldr	r1, [r0]
	.loc	7 248 263                       @ ../Drivers/STM32F4xx_HAL_Driver/Src/stm32f4xx_hal_tim_ex.c:248:263
	ldr	r0, [r1]
	bic	r0, r0, #1
	str	r0, [r1]
	.loc	7 248 286                       @ ../Drivers/STM32F4xx_HAL_Driver/Src/stm32f4xx_hal_tim_ex.c:248:286
	b	.LBB2_4
.Ltmp16:
.LBB2_4:
	.loc	7 248 288                       @ ../Drivers/STM32F4xx_HAL_Driver/Src/stm32f4xx_hal_tim_ex.c:248:288
	b	.LBB2_5
.Ltmp17:
.LBB2_5:
	.loc	7 248 290                       @ ../Drivers/STM32F4xx_HAL_Driver/Src/stm32f4xx_hal_tim_ex.c:248:290
	b	.LBB2_6
.Ltmp18:
.LBB2_6:
	.loc	7 259 34 is_stmt 1              @ ../Drivers/STM32F4xx_HAL_Driver/Src/stm32f4xx_hal_tim_ex.c:259:34
	ldr	r0, [sp, #4]
	.loc	7 259 3 is_stmt 0               @ ../Drivers/STM32F4xx_HAL_Driver/Src/stm32f4xx_hal_tim_ex.c:259:3
	bl	HAL_TIMEx_HallSensor_MspDeInit
	.loc	7 263 3 is_stmt 1               @ ../Drivers/STM32F4xx_HAL_Driver/Src/stm32f4xx_hal_tim_ex.c:263:3
	ldr	r1, [sp, #4]
	movs	r0, #0
	.loc	7 263 23 is_stmt 0              @ ../Drivers/STM32F4xx_HAL_Driver/Src/stm32f4xx_hal_tim_ex.c:263:23
	strb.w	r0, [r1, #70]
	.loc	7 266 39 is_stmt 1              @ ../Drivers/STM32F4xx_HAL_Driver/Src/stm32f4xx_hal_tim_ex.c:266:39
	ldr	r1, [sp, #4]
	.loc	7 266 62 is_stmt 0              @ ../Drivers/STM32F4xx_HAL_Driver/Src/stm32f4xx_hal_tim_ex.c:266:62
	strb.w	r0, [r1, #62]
	.loc	7 267 132 is_stmt 1             @ ../Drivers/STM32F4xx_HAL_Driver/Src/stm32f4xx_hal_tim_ex.c:267:132
	ldr	r1, [sp, #4]
	.loc	7 267 155 is_stmt 0             @ ../Drivers/STM32F4xx_HAL_Driver/Src/stm32f4xx_hal_tim_ex.c:267:155
	strb.w	r0, [r1, #63]
	.loc	7 268 39 is_stmt 1              @ ../Drivers/STM32F4xx_HAL_Driver/Src/stm32f4xx_hal_tim_ex.c:268:39
	ldr	r1, [sp, #4]
	.loc	7 268 63 is_stmt 0              @ ../Drivers/STM32F4xx_HAL_Driver/Src/stm32f4xx_hal_tim_ex.c:268:63
	strb.w	r0, [r1, #66]
	.loc	7 269 133 is_stmt 1             @ ../Drivers/STM32F4xx_HAL_Driver/Src/stm32f4xx_hal_tim_ex.c:269:133
	ldr	r1, [sp, #4]
	.loc	7 269 157 is_stmt 0             @ ../Drivers/STM32F4xx_HAL_Driver/Src/stm32f4xx_hal_tim_ex.c:269:157
	strb.w	r0, [r1, #67]
	.loc	7 272 3 is_stmt 1               @ ../Drivers/STM32F4xx_HAL_Driver/Src/stm32f4xx_hal_tim_ex.c:272:3
	ldr	r1, [sp, #4]
	.loc	7 272 15 is_stmt 0              @ ../Drivers/STM32F4xx_HAL_Driver/Src/stm32f4xx_hal_tim_ex.c:272:15
	strb.w	r0, [r1, #61]
	.loc	7 275 3 is_stmt 1               @ ../Drivers/STM32F4xx_HAL_Driver/Src/stm32f4xx_hal_tim_ex.c:275:3
	b	.LBB2_7
.LBB2_7:
.Ltmp19:
	.loc	7 275 8 is_stmt 0               @ ../Drivers/STM32F4xx_HAL_Driver/Src/stm32f4xx_hal_tim_ex.c:275:8
	ldr	r1, [sp, #4]
	movs	r0, #0
	.loc	7 275 20                        @ ../Drivers/STM32F4xx_HAL_Driver/Src/stm32f4xx_hal_tim_ex.c:275:20
	strb.w	r0, [r1, #60]
	.loc	7 275 36                        @ ../Drivers/STM32F4xx_HAL_Driver/Src/stm32f4xx_hal_tim_ex.c:275:36
	b	.LBB2_8
.Ltmp20:
.LBB2_8:
	.loc	7 0 36                          @ ../Drivers/STM32F4xx_HAL_Driver/Src/stm32f4xx_hal_tim_ex.c:0:36
	movs	r0, #0
	.loc	7 277 3 is_stmt 1               @ ../Drivers/STM32F4xx_HAL_Driver/Src/stm32f4xx_hal_tim_ex.c:277:3
	add	sp, #8
	pop	{r7, pc}
.Ltmp21:
.Lfunc_end2:
	.size	HAL_TIMEx_HallSensor_DeInit, .Lfunc_end2-HAL_TIMEx_HallSensor_DeInit
	.cfi_endproc
	.cantunwind
	.fnend
                                        @ -- End function
	.section	.text.HAL_TIMEx_HallSensor_MspDeInit,"ax",%progbits
	.hidden	HAL_TIMEx_HallSensor_MspDeInit  @ -- Begin function HAL_TIMEx_HallSensor_MspDeInit
	.weak	HAL_TIMEx_HallSensor_MspDeInit
	.p2align	2
	.type	HAL_TIMEx_HallSensor_MspDeInit,%function
	.code	16                              @ @HAL_TIMEx_HallSensor_MspDeInit
	.thumb_func
HAL_TIMEx_HallSensor_MspDeInit:
.Lfunc_begin3:
	.loc	7 301 0                         @ ../Drivers/STM32F4xx_HAL_Driver/Src/stm32f4xx_hal_tim_ex.c:301:0
	.fnstart
	.cfi_startproc
@ %bb.0:
	.pad	#4
	sub	sp, #4
	.cfi_def_cfa_offset 4
	str	r0, [sp]
.Ltmp22:
	.loc	7 308 1 prologue_end            @ ../Drivers/STM32F4xx_HAL_Driver/Src/stm32f4xx_hal_tim_ex.c:308:1
	add	sp, #4
	bx	lr
.Ltmp23:
.Lfunc_end3:
	.size	HAL_TIMEx_HallSensor_MspDeInit, .Lfunc_end3-HAL_TIMEx_HallSensor_MspDeInit
	.cfi_endproc
	.cantunwind
	.fnend
                                        @ -- End function
	.section	.text.HAL_TIMEx_HallSensor_Start,"ax",%progbits
	.hidden	HAL_TIMEx_HallSensor_Start      @ -- Begin function HAL_TIMEx_HallSensor_Start
	.globl	HAL_TIMEx_HallSensor_Start
	.p2align	2
	.type	HAL_TIMEx_HallSensor_Start,%function
	.code	16                              @ @HAL_TIMEx_HallSensor_Start
	.thumb_func
HAL_TIMEx_HallSensor_Start:
.Lfunc_begin4:
	.loc	7 316 0                         @ ../Drivers/STM32F4xx_HAL_Driver/Src/stm32f4xx_hal_tim_ex.c:316:0
	.fnstart
	.cfi_startproc
@ %bb.0:
	.save	{r7, lr}
	push	{r7, lr}
	.cfi_def_cfa_offset 8
	.cfi_offset lr, -4
	.cfi_offset r7, -8
	.pad	#16
	sub	sp, #16
	.cfi_def_cfa_offset 24
	str	r0, [sp, #8]
.Ltmp24:
	.loc	7 318 84 prologue_end           @ ../Drivers/STM32F4xx_HAL_Driver/Src/stm32f4xx_hal_tim_ex.c:318:84
	ldr	r0, [sp, #8]
	.loc	7 318 83 is_stmt 0              @ ../Drivers/STM32F4xx_HAL_Driver/Src/stm32f4xx_hal_tim_ex.c:318:83
	ldrb.w	r0, [r0, #62]
	.loc	7 318 31                        @ ../Drivers/STM32F4xx_HAL_Driver/Src/stm32f4xx_hal_tim_ex.c:318:31
	strb.w	r0, [sp, #3]
	.loc	7 319 143 is_stmt 1             @ ../Drivers/STM32F4xx_HAL_Driver/Src/stm32f4xx_hal_tim_ex.c:319:143
	ldr	r0, [sp, #8]
	.loc	7 319 142 is_stmt 0             @ ../Drivers/STM32F4xx_HAL_Driver/Src/stm32f4xx_hal_tim_ex.c:319:142
	ldrb.w	r0, [r0, #63]
	.loc	7 319 31                        @ ../Drivers/STM32F4xx_HAL_Driver/Src/stm32f4xx_hal_tim_ex.c:319:31
	strb.w	r0, [sp, #2]
	.loc	7 320 98 is_stmt 1              @ ../Drivers/STM32F4xx_HAL_Driver/Src/stm32f4xx_hal_tim_ex.c:320:98
	ldr	r0, [sp, #8]
	.loc	7 320 97 is_stmt 0              @ ../Drivers/STM32F4xx_HAL_Driver/Src/stm32f4xx_hal_tim_ex.c:320:97
	ldrb.w	r0, [r0, #66]
	.loc	7 320 31                        @ ../Drivers/STM32F4xx_HAL_Driver/Src/stm32f4xx_hal_tim_ex.c:320:31
	strb.w	r0, [sp, #1]
	.loc	7 321 158 is_stmt 1             @ ../Drivers/STM32F4xx_HAL_Driver/Src/stm32f4xx_hal_tim_ex.c:321:158
	ldr	r0, [sp, #8]
	.loc	7 321 157 is_stmt 0             @ ../Drivers/STM32F4xx_HAL_Driver/Src/stm32f4xx_hal_tim_ex.c:321:157
	ldrb.w	r0, [r0, #67]
	.loc	7 321 31                        @ ../Drivers/STM32F4xx_HAL_Driver/Src/stm32f4xx_hal_tim_ex.c:321:31
	strb.w	r0, [sp]
.Ltmp25:
	.loc	7 327 8 is_stmt 1               @ ../Drivers/STM32F4xx_HAL_Driver/Src/stm32f4xx_hal_tim_ex.c:327:8
	ldrb.w	r0, [sp, #3]
	.loc	7 328 7                         @ ../Drivers/STM32F4xx_HAL_Driver/Src/stm32f4xx_hal_tim_ex.c:328:7
	cmp	r0, #1
	bne	.LBB4_4
	b	.LBB4_1
.LBB4_1:
	.loc	7 328 11 is_stmt 0              @ ../Drivers/STM32F4xx_HAL_Driver/Src/stm32f4xx_hal_tim_ex.c:328:11
	ldrb.w	r0, [sp, #2]
	.loc	7 329 7 is_stmt 1               @ ../Drivers/STM32F4xx_HAL_Driver/Src/stm32f4xx_hal_tim_ex.c:329:7
	cmp	r0, #1
	bne	.LBB4_4
	b	.LBB4_2
.LBB4_2:
	.loc	7 329 11 is_stmt 0              @ ../Drivers/STM32F4xx_HAL_Driver/Src/stm32f4xx_hal_tim_ex.c:329:11
	ldrb.w	r0, [sp, #1]
	.loc	7 330 7 is_stmt 1               @ ../Drivers/STM32F4xx_HAL_Driver/Src/stm32f4xx_hal_tim_ex.c:330:7
	cmp	r0, #1
	bne	.LBB4_4
	b	.LBB4_3
.LBB4_3:
	.loc	7 330 11 is_stmt 0              @ ../Drivers/STM32F4xx_HAL_Driver/Src/stm32f4xx_hal_tim_ex.c:330:11
	ldrb.w	r0, [sp]
.Ltmp26:
	.loc	7 327 7 is_stmt 1               @ ../Drivers/STM32F4xx_HAL_Driver/Src/stm32f4xx_hal_tim_ex.c:327:7
	cmp	r0, #1
	beq	.LBB4_5
	b	.LBB4_4
.LBB4_4:
	.loc	7 0 7 is_stmt 0                 @ ../Drivers/STM32F4xx_HAL_Driver/Src/stm32f4xx_hal_tim_ex.c:0:7
	movs	r0, #1
.Ltmp27:
	.loc	7 332 5 is_stmt 1               @ ../Drivers/STM32F4xx_HAL_Driver/Src/stm32f4xx_hal_tim_ex.c:332:5
	strb.w	r0, [sp, #15]
	b	.LBB4_18
.Ltmp28:
.LBB4_5:
	.loc	7 336 39                        @ ../Drivers/STM32F4xx_HAL_Driver/Src/stm32f4xx_hal_tim_ex.c:336:39
	ldr	r1, [sp, #8]
	movs	r0, #2
	.loc	7 336 62 is_stmt 0              @ ../Drivers/STM32F4xx_HAL_Driver/Src/stm32f4xx_hal_tim_ex.c:336:62
	strb.w	r0, [r1, #62]
	.loc	7 337 131 is_stmt 1             @ ../Drivers/STM32F4xx_HAL_Driver/Src/stm32f4xx_hal_tim_ex.c:337:131
	ldr	r1, [sp, #8]
	.loc	7 337 154 is_stmt 0             @ ../Drivers/STM32F4xx_HAL_Driver/Src/stm32f4xx_hal_tim_ex.c:337:154
	strb.w	r0, [r1, #63]
	.loc	7 338 39 is_stmt 1              @ ../Drivers/STM32F4xx_HAL_Driver/Src/stm32f4xx_hal_tim_ex.c:338:39
	ldr	r1, [sp, #8]
	.loc	7 338 63 is_stmt 0              @ ../Drivers/STM32F4xx_HAL_Driver/Src/stm32f4xx_hal_tim_ex.c:338:63
	strb.w	r0, [r1, #66]
	.loc	7 339 132 is_stmt 1             @ ../Drivers/STM32F4xx_HAL_Driver/Src/stm32f4xx_hal_tim_ex.c:339:132
	ldr	r1, [sp, #8]
	.loc	7 339 156 is_stmt 0             @ ../Drivers/STM32F4xx_HAL_Driver/Src/stm32f4xx_hal_tim_ex.c:339:156
	strb.w	r0, [r1, #67]
	.loc	7 344 21 is_stmt 1              @ ../Drivers/STM32F4xx_HAL_Driver/Src/stm32f4xx_hal_tim_ex.c:344:21
	ldr	r0, [sp, #8]
	.loc	7 344 27 is_stmt 0              @ ../Drivers/STM32F4xx_HAL_Driver/Src/stm32f4xx_hal_tim_ex.c:344:27
	ldr	r0, [r0]
	movs	r1, #0
	movs	r2, #1
	.loc	7 344 3                         @ ../Drivers/STM32F4xx_HAL_Driver/Src/stm32f4xx_hal_tim_ex.c:344:3
	bl	TIM_CCxChannelCmd
.Ltmp29:
	.loc	7 347 10 is_stmt 1              @ ../Drivers/STM32F4xx_HAL_Driver/Src/stm32f4xx_hal_tim_ex.c:347:10
	ldr	r0, [sp, #8]
	.loc	7 347 16 is_stmt 0              @ ../Drivers/STM32F4xx_HAL_Driver/Src/stm32f4xx_hal_tim_ex.c:347:16
	ldr	r0, [r0]
	movs	r1, #0
	movt	r1, #16385
	.loc	7 347 91                        @ ../Drivers/STM32F4xx_HAL_Driver/Src/stm32f4xx_hal_tim_ex.c:347:91
	cmp	r0, r1
	beq	.LBB4_13
	b	.LBB4_6
.LBB4_6:
	.loc	7 347 96                        @ ../Drivers/STM32F4xx_HAL_Driver/Src/stm32f4xx_hal_tim_ex.c:347:96
	ldr	r0, [sp, #8]
	.loc	7 347 102                       @ ../Drivers/STM32F4xx_HAL_Driver/Src/stm32f4xx_hal_tim_ex.c:347:102
	ldr	r0, [r0]
	.loc	7 347 160                       @ ../Drivers/STM32F4xx_HAL_Driver/Src/stm32f4xx_hal_tim_ex.c:347:160
	cmp.w	r0, #1073741824
	beq	.LBB4_13
	b	.LBB4_7
.LBB4_7:
	.loc	7 347 165                       @ ../Drivers/STM32F4xx_HAL_Driver/Src/stm32f4xx_hal_tim_ex.c:347:165
	ldr	r0, [sp, #8]
	.loc	7 347 171                       @ ../Drivers/STM32F4xx_HAL_Driver/Src/stm32f4xx_hal_tim_ex.c:347:171
	ldr	r0, [r0]
	movw	r1, #1024
	movt	r1, #16384
	.loc	7 347 229                       @ ../Drivers/STM32F4xx_HAL_Driver/Src/stm32f4xx_hal_tim_ex.c:347:229
	cmp	r0, r1
	beq	.LBB4_13
	b	.LBB4_8
.LBB4_8:
	.loc	7 347 234                       @ ../Drivers/STM32F4xx_HAL_Driver/Src/stm32f4xx_hal_tim_ex.c:347:234
	ldr	r0, [sp, #8]
	.loc	7 347 240                       @ ../Drivers/STM32F4xx_HAL_Driver/Src/stm32f4xx_hal_tim_ex.c:347:240
	ldr	r0, [r0]
	movw	r1, #2048
	movt	r1, #16384
	.loc	7 347 298                       @ ../Drivers/STM32F4xx_HAL_Driver/Src/stm32f4xx_hal_tim_ex.c:347:298
	cmp	r0, r1
	beq	.LBB4_13
	b	.LBB4_9
.LBB4_9:
	.loc	7 347 303                       @ ../Drivers/STM32F4xx_HAL_Driver/Src/stm32f4xx_hal_tim_ex.c:347:303
	ldr	r0, [sp, #8]
	.loc	7 347 309                       @ ../Drivers/STM32F4xx_HAL_Driver/Src/stm32f4xx_hal_tim_ex.c:347:309
	ldr	r0, [r0]
	movw	r1, #3072
	movt	r1, #16384
	.loc	7 347 367                       @ ../Drivers/STM32F4xx_HAL_Driver/Src/stm32f4xx_hal_tim_ex.c:347:367
	cmp	r0, r1
	beq	.LBB4_13
	b	.LBB4_10
.LBB4_10:
	.loc	7 347 372                       @ ../Drivers/STM32F4xx_HAL_Driver/Src/stm32f4xx_hal_tim_ex.c:347:372
	ldr	r0, [sp, #8]
	.loc	7 347 378                       @ ../Drivers/STM32F4xx_HAL_Driver/Src/stm32f4xx_hal_tim_ex.c:347:378
	ldr	r0, [r0]
	movw	r1, #1024
	movt	r1, #16385
	.loc	7 347 453                       @ ../Drivers/STM32F4xx_HAL_Driver/Src/stm32f4xx_hal_tim_ex.c:347:453
	cmp	r0, r1
	beq	.LBB4_13
	b	.LBB4_11
.LBB4_11:
	.loc	7 347 458                       @ ../Drivers/STM32F4xx_HAL_Driver/Src/stm32f4xx_hal_tim_ex.c:347:458
	ldr	r0, [sp, #8]
	.loc	7 347 464                       @ ../Drivers/STM32F4xx_HAL_Driver/Src/stm32f4xx_hal_tim_ex.c:347:464
	ldr	r0, [r0]
	movw	r1, #16384
	movt	r1, #16385
	.loc	7 347 539                       @ ../Drivers/STM32F4xx_HAL_Driver/Src/stm32f4xx_hal_tim_ex.c:347:539
	cmp	r0, r1
	beq	.LBB4_13
	b	.LBB4_12
.LBB4_12:
	.loc	7 347 544                       @ ../Drivers/STM32F4xx_HAL_Driver/Src/stm32f4xx_hal_tim_ex.c:347:544
	ldr	r0, [sp, #8]
	.loc	7 347 550                       @ ../Drivers/STM32F4xx_HAL_Driver/Src/stm32f4xx_hal_tim_ex.c:347:550
	ldr	r0, [r0]
	movw	r1, #6144
	movt	r1, #16384
.Ltmp30:
	.loc	7 347 7                         @ ../Drivers/STM32F4xx_HAL_Driver/Src/stm32f4xx_hal_tim_ex.c:347:7
	cmp	r0, r1
	bne	.LBB4_16
	b	.LBB4_13
.LBB4_13:
.Ltmp31:
	.loc	7 349 15 is_stmt 1              @ ../Drivers/STM32F4xx_HAL_Driver/Src/stm32f4xx_hal_tim_ex.c:349:15
	ldr	r0, [sp, #8]
	.loc	7 349 21 is_stmt 0              @ ../Drivers/STM32F4xx_HAL_Driver/Src/stm32f4xx_hal_tim_ex.c:349:21
	ldr	r0, [r0]
	.loc	7 349 31                        @ ../Drivers/STM32F4xx_HAL_Driver/Src/stm32f4xx_hal_tim_ex.c:349:31
	ldr	r0, [r0, #8]
	.loc	7 349 36                        @ ../Drivers/STM32F4xx_HAL_Driver/Src/stm32f4xx_hal_tim_ex.c:349:36
	and	r0, r0, #7
	.loc	7 349 13                        @ ../Drivers/STM32F4xx_HAL_Driver/Src/stm32f4xx_hal_tim_ex.c:349:13
	str	r0, [sp, #4]
.Ltmp32:
	.loc	7 350 12 is_stmt 1              @ ../Drivers/STM32F4xx_HAL_Driver/Src/stm32f4xx_hal_tim_ex.c:350:12
	ldr	r0, [sp, #4]
.Ltmp33:
	.loc	7 350 9 is_stmt 0               @ ../Drivers/STM32F4xx_HAL_Driver/Src/stm32f4xx_hal_tim_ex.c:350:9
	cmp	r0, #6
	beq	.LBB4_15
	b	.LBB4_14
.LBB4_14:
.Ltmp34:
	.loc	7 352 9 is_stmt 1               @ ../Drivers/STM32F4xx_HAL_Driver/Src/stm32f4xx_hal_tim_ex.c:352:9
	ldr	r0, [sp, #8]
	.loc	7 352 16 is_stmt 0              @ ../Drivers/STM32F4xx_HAL_Driver/Src/stm32f4xx_hal_tim_ex.c:352:16
	ldr	r1, [r0]
	.loc	7 352 29                        @ ../Drivers/STM32F4xx_HAL_Driver/Src/stm32f4xx_hal_tim_ex.c:352:29
	ldr	r0, [r1]
	orr	r0, r0, #1
	str	r0, [r1]
	.loc	7 353 5 is_stmt 1               @ ../Drivers/STM32F4xx_HAL_Driver/Src/stm32f4xx_hal_tim_ex.c:353:5
	b	.LBB4_15
.Ltmp35:
.LBB4_15:
	.loc	7 354 3                         @ ../Drivers/STM32F4xx_HAL_Driver/Src/stm32f4xx_hal_tim_ex.c:354:3
	b	.LBB4_17
.Ltmp36:
.LBB4_16:
	.loc	7 357 7                         @ ../Drivers/STM32F4xx_HAL_Driver/Src/stm32f4xx_hal_tim_ex.c:357:7
	ldr	r0, [sp, #8]
	.loc	7 357 14 is_stmt 0              @ ../Drivers/STM32F4xx_HAL_Driver/Src/stm32f4xx_hal_tim_ex.c:357:14
	ldr	r1, [r0]
	.loc	7 357 27                        @ ../Drivers/STM32F4xx_HAL_Driver/Src/stm32f4xx_hal_tim_ex.c:357:27
	ldr	r0, [r1]
	orr	r0, r0, #1
	str	r0, [r1]
	b	.LBB4_17
.Ltmp37:
.LBB4_17:
	.loc	7 0 27                          @ ../Drivers/STM32F4xx_HAL_Driver/Src/stm32f4xx_hal_tim_ex.c:0:27
	movs	r0, #0
	.loc	7 361 3 is_stmt 1               @ ../Drivers/STM32F4xx_HAL_Driver/Src/stm32f4xx_hal_tim_ex.c:361:3
	strb.w	r0, [sp, #15]
	b	.LBB4_18
.LBB4_18:
	.loc	7 362 1                         @ ../Drivers/STM32F4xx_HAL_Driver/Src/stm32f4xx_hal_tim_ex.c:362:1
	ldrb.w	r0, [sp, #15]
	add	sp, #16
	pop	{r7, pc}
.Ltmp38:
.Lfunc_end4:
	.size	HAL_TIMEx_HallSensor_Start, .Lfunc_end4-HAL_TIMEx_HallSensor_Start
	.cfi_endproc
	.cantunwind
	.fnend
                                        @ -- End function
	.section	.text.HAL_TIMEx_HallSensor_Stop,"ax",%progbits
	.hidden	HAL_TIMEx_HallSensor_Stop       @ -- Begin function HAL_TIMEx_HallSensor_Stop
	.globl	HAL_TIMEx_HallSensor_Stop
	.p2align	2
	.type	HAL_TIMEx_HallSensor_Stop,%function
	.code	16                              @ @HAL_TIMEx_HallSensor_Stop
	.thumb_func
HAL_TIMEx_HallSensor_Stop:
.Lfunc_begin5:
	.loc	7 370 0                         @ ../Drivers/STM32F4xx_HAL_Driver/Src/stm32f4xx_hal_tim_ex.c:370:0
	.fnstart
	.cfi_startproc
@ %bb.0:
	.save	{r7, lr}
	push	{r7, lr}
	.cfi_def_cfa_offset 8
	.cfi_offset lr, -4
	.cfi_offset r7, -8
	.pad	#8
	sub	sp, #8
	.cfi_def_cfa_offset 16
	str	r0, [sp, #4]
.Ltmp39:
	.loc	7 377 21 prologue_end           @ ../Drivers/STM32F4xx_HAL_Driver/Src/stm32f4xx_hal_tim_ex.c:377:21
	ldr	r0, [sp, #4]
	.loc	7 377 27 is_stmt 0              @ ../Drivers/STM32F4xx_HAL_Driver/Src/stm32f4xx_hal_tim_ex.c:377:27
	ldr	r0, [r0]
	movs	r2, #0
	.loc	7 377 3                         @ ../Drivers/STM32F4xx_HAL_Driver/Src/stm32f4xx_hal_tim_ex.c:377:3
	mov	r1, r2
	bl	TIM_CCxChannelCmd
	.loc	7 380 3 is_stmt 1               @ ../Drivers/STM32F4xx_HAL_Driver/Src/stm32f4xx_hal_tim_ex.c:380:3
	b	.LBB5_1
.LBB5_1:
.Ltmp40:
	.loc	7 380 14 is_stmt 0              @ ../Drivers/STM32F4xx_HAL_Driver/Src/stm32f4xx_hal_tim_ex.c:380:14
	ldr	r0, [sp, #4]
	.loc	7 380 21                        @ ../Drivers/STM32F4xx_HAL_Driver/Src/stm32f4xx_hal_tim_ex.c:380:21
	ldr	r0, [r0]
	.loc	7 380 31                        @ ../Drivers/STM32F4xx_HAL_Driver/Src/stm32f4xx_hal_tim_ex.c:380:31
	ldr	r0, [r0, #32]
	movw	r1, #4369
.Ltmp41:
	.loc	7 380 12                        @ ../Drivers/STM32F4xx_HAL_Driver/Src/stm32f4xx_hal_tim_ex.c:380:12
	tst	r0, r1
	bne	.LBB5_5
	b	.LBB5_2
.LBB5_2:
.Ltmp42:
	.loc	7 380 139                       @ ../Drivers/STM32F4xx_HAL_Driver/Src/stm32f4xx_hal_tim_ex.c:380:139
	ldr	r0, [sp, #4]
	.loc	7 380 146                       @ ../Drivers/STM32F4xx_HAL_Driver/Src/stm32f4xx_hal_tim_ex.c:380:146
	ldr	r0, [r0]
	.loc	7 380 156                       @ ../Drivers/STM32F4xx_HAL_Driver/Src/stm32f4xx_hal_tim_ex.c:380:156
	ldr	r0, [r0, #32]
	movw	r1, #1092
.Ltmp43:
	.loc	7 380 137                       @ ../Drivers/STM32F4xx_HAL_Driver/Src/stm32f4xx_hal_tim_ex.c:380:137
	tst	r0, r1
	bne	.LBB5_4
	b	.LBB5_3
.LBB5_3:
.Ltmp44:
	.loc	7 380 242                       @ ../Drivers/STM32F4xx_HAL_Driver/Src/stm32f4xx_hal_tim_ex.c:380:242
	ldr	r0, [sp, #4]
	.loc	7 380 249                       @ ../Drivers/STM32F4xx_HAL_Driver/Src/stm32f4xx_hal_tim_ex.c:380:249
	ldr	r1, [r0]
	.loc	7 380 263                       @ ../Drivers/STM32F4xx_HAL_Driver/Src/stm32f4xx_hal_tim_ex.c:380:263
	ldr	r0, [r1]
	bic	r0, r0, #1
	str	r0, [r1]
	.loc	7 380 286                       @ ../Drivers/STM32F4xx_HAL_Driver/Src/stm32f4xx_hal_tim_ex.c:380:286
	b	.LBB5_4
.Ltmp45:
.LBB5_4:
	.loc	7 380 288                       @ ../Drivers/STM32F4xx_HAL_Driver/Src/stm32f4xx_hal_tim_ex.c:380:288
	b	.LBB5_5
.Ltmp46:
.LBB5_5:
	.loc	7 380 290                       @ ../Drivers/STM32F4xx_HAL_Driver/Src/stm32f4xx_hal_tim_ex.c:380:290
	b	.LBB5_6
.Ltmp47:
.LBB5_6:
	.loc	7 383 39 is_stmt 1              @ ../Drivers/STM32F4xx_HAL_Driver/Src/stm32f4xx_hal_tim_ex.c:383:39
	ldr	r1, [sp, #4]
	movs	r0, #1
	.loc	7 383 62 is_stmt 0              @ ../Drivers/STM32F4xx_HAL_Driver/Src/stm32f4xx_hal_tim_ex.c:383:62
	strb.w	r0, [r1, #62]
	.loc	7 384 132 is_stmt 1             @ ../Drivers/STM32F4xx_HAL_Driver/Src/stm32f4xx_hal_tim_ex.c:384:132
	ldr	r1, [sp, #4]
	.loc	7 384 155 is_stmt 0             @ ../Drivers/STM32F4xx_HAL_Driver/Src/stm32f4xx_hal_tim_ex.c:384:155
	strb.w	r0, [r1, #63]
	.loc	7 385 39 is_stmt 1              @ ../Drivers/STM32F4xx_HAL_Driver/Src/stm32f4xx_hal_tim_ex.c:385:39
	ldr	r1, [sp, #4]
	.loc	7 385 63 is_stmt 0              @ ../Drivers/STM32F4xx_HAL_Driver/Src/stm32f4xx_hal_tim_ex.c:385:63
	strb.w	r0, [r1, #66]
	.loc	7 386 133 is_stmt 1             @ ../Drivers/STM32F4xx_HAL_Driver/Src/stm32f4xx_hal_tim_ex.c:386:133
	ldr	r1, [sp, #4]
	.loc	7 386 157 is_stmt 0             @ ../Drivers/STM32F4xx_HAL_Driver/Src/stm32f4xx_hal_tim_ex.c:386:157
	strb.w	r0, [r1, #67]
	movs	r0, #0
	.loc	7 389 3 is_stmt 1               @ ../Drivers/STM32F4xx_HAL_Driver/Src/stm32f4xx_hal_tim_ex.c:389:3
	add	sp, #8
	pop	{r7, pc}
.Ltmp48:
.Lfunc_end5:
	.size	HAL_TIMEx_HallSensor_Stop, .Lfunc_end5-HAL_TIMEx_HallSensor_Stop
	.cfi_endproc
	.cantunwind
	.fnend
                                        @ -- End function
	.section	.text.HAL_TIMEx_HallSensor_Start_IT,"ax",%progbits
	.hidden	HAL_TIMEx_HallSensor_Start_IT   @ -- Begin function HAL_TIMEx_HallSensor_Start_IT
	.globl	HAL_TIMEx_HallSensor_Start_IT
	.p2align	2
	.type	HAL_TIMEx_HallSensor_Start_IT,%function
	.code	16                              @ @HAL_TIMEx_HallSensor_Start_IT
	.thumb_func
HAL_TIMEx_HallSensor_Start_IT:
.Lfunc_begin6:
	.loc	7 398 0                         @ ../Drivers/STM32F4xx_HAL_Driver/Src/stm32f4xx_hal_tim_ex.c:398:0
	.fnstart
	.cfi_startproc
@ %bb.0:
	.save	{r7, lr}
	push	{r7, lr}
	.cfi_def_cfa_offset 8
	.cfi_offset lr, -4
	.cfi_offset r7, -8
	.pad	#16
	sub	sp, #16
	.cfi_def_cfa_offset 24
	str	r0, [sp, #8]
.Ltmp49:
	.loc	7 400 84 prologue_end           @ ../Drivers/STM32F4xx_HAL_Driver/Src/stm32f4xx_hal_tim_ex.c:400:84
	ldr	r0, [sp, #8]
	.loc	7 400 83 is_stmt 0              @ ../Drivers/STM32F4xx_HAL_Driver/Src/stm32f4xx_hal_tim_ex.c:400:83
	ldrb.w	r0, [r0, #62]
	.loc	7 400 31                        @ ../Drivers/STM32F4xx_HAL_Driver/Src/stm32f4xx_hal_tim_ex.c:400:31
	strb.w	r0, [sp, #3]
	.loc	7 401 143 is_stmt 1             @ ../Drivers/STM32F4xx_HAL_Driver/Src/stm32f4xx_hal_tim_ex.c:401:143
	ldr	r0, [sp, #8]
	.loc	7 401 142 is_stmt 0             @ ../Drivers/STM32F4xx_HAL_Driver/Src/stm32f4xx_hal_tim_ex.c:401:142
	ldrb.w	r0, [r0, #63]
	.loc	7 401 31                        @ ../Drivers/STM32F4xx_HAL_Driver/Src/stm32f4xx_hal_tim_ex.c:401:31
	strb.w	r0, [sp, #2]
	.loc	7 402 98 is_stmt 1              @ ../Drivers/STM32F4xx_HAL_Driver/Src/stm32f4xx_hal_tim_ex.c:402:98
	ldr	r0, [sp, #8]
	.loc	7 402 97 is_stmt 0              @ ../Drivers/STM32F4xx_HAL_Driver/Src/stm32f4xx_hal_tim_ex.c:402:97
	ldrb.w	r0, [r0, #66]
	.loc	7 402 31                        @ ../Drivers/STM32F4xx_HAL_Driver/Src/stm32f4xx_hal_tim_ex.c:402:31
	strb.w	r0, [sp, #1]
	.loc	7 403 158 is_stmt 1             @ ../Drivers/STM32F4xx_HAL_Driver/Src/stm32f4xx_hal_tim_ex.c:403:158
	ldr	r0, [sp, #8]
	.loc	7 403 157 is_stmt 0             @ ../Drivers/STM32F4xx_HAL_Driver/Src/stm32f4xx_hal_tim_ex.c:403:157
	ldrb.w	r0, [r0, #67]
	.loc	7 403 31                        @ ../Drivers/STM32F4xx_HAL_Driver/Src/stm32f4xx_hal_tim_ex.c:403:31
	strb.w	r0, [sp]
.Ltmp50:
	.loc	7 409 8 is_stmt 1               @ ../Drivers/STM32F4xx_HAL_Driver/Src/stm32f4xx_hal_tim_ex.c:409:8
	ldrb.w	r0, [sp, #3]
	.loc	7 410 7                         @ ../Drivers/STM32F4xx_HAL_Driver/Src/stm32f4xx_hal_tim_ex.c:410:7
	cmp	r0, #1
	bne	.LBB6_4
	b	.LBB6_1
.LBB6_1:
	.loc	7 410 11 is_stmt 0              @ ../Drivers/STM32F4xx_HAL_Driver/Src/stm32f4xx_hal_tim_ex.c:410:11
	ldrb.w	r0, [sp, #2]
	.loc	7 411 7 is_stmt 1               @ ../Drivers/STM32F4xx_HAL_Driver/Src/stm32f4xx_hal_tim_ex.c:411:7
	cmp	r0, #1
	bne	.LBB6_4
	b	.LBB6_2
.LBB6_2:
	.loc	7 411 11 is_stmt 0              @ ../Drivers/STM32F4xx_HAL_Driver/Src/stm32f4xx_hal_tim_ex.c:411:11
	ldrb.w	r0, [sp, #1]
	.loc	7 412 7 is_stmt 1               @ ../Drivers/STM32F4xx_HAL_Driver/Src/stm32f4xx_hal_tim_ex.c:412:7
	cmp	r0, #1
	bne	.LBB6_4
	b	.LBB6_3
.LBB6_3:
	.loc	7 412 11 is_stmt 0              @ ../Drivers/STM32F4xx_HAL_Driver/Src/stm32f4xx_hal_tim_ex.c:412:11
	ldrb.w	r0, [sp]
.Ltmp51:
	.loc	7 409 7 is_stmt 1               @ ../Drivers/STM32F4xx_HAL_Driver/Src/stm32f4xx_hal_tim_ex.c:409:7
	cmp	r0, #1
	beq	.LBB6_5
	b	.LBB6_4
.LBB6_4:
	.loc	7 0 7 is_stmt 0                 @ ../Drivers/STM32F4xx_HAL_Driver/Src/stm32f4xx_hal_tim_ex.c:0:7
	movs	r0, #1
.Ltmp52:
	.loc	7 414 5 is_stmt 1               @ ../Drivers/STM32F4xx_HAL_Driver/Src/stm32f4xx_hal_tim_ex.c:414:5
	strb.w	r0, [sp, #15]
	b	.LBB6_18
.Ltmp53:
.LBB6_5:
	.loc	7 418 39                        @ ../Drivers/STM32F4xx_HAL_Driver/Src/stm32f4xx_hal_tim_ex.c:418:39
	ldr	r1, [sp, #8]
	movs	r0, #2
	.loc	7 418 62 is_stmt 0              @ ../Drivers/STM32F4xx_HAL_Driver/Src/stm32f4xx_hal_tim_ex.c:418:62
	strb.w	r0, [r1, #62]
	.loc	7 419 131 is_stmt 1             @ ../Drivers/STM32F4xx_HAL_Driver/Src/stm32f4xx_hal_tim_ex.c:419:131
	ldr	r1, [sp, #8]
	.loc	7 419 154 is_stmt 0             @ ../Drivers/STM32F4xx_HAL_Driver/Src/stm32f4xx_hal_tim_ex.c:419:154
	strb.w	r0, [r1, #63]
	.loc	7 420 39 is_stmt 1              @ ../Drivers/STM32F4xx_HAL_Driver/Src/stm32f4xx_hal_tim_ex.c:420:39
	ldr	r1, [sp, #8]
	.loc	7 420 63 is_stmt 0              @ ../Drivers/STM32F4xx_HAL_Driver/Src/stm32f4xx_hal_tim_ex.c:420:63
	strb.w	r0, [r1, #66]
	.loc	7 421 132 is_stmt 1             @ ../Drivers/STM32F4xx_HAL_Driver/Src/stm32f4xx_hal_tim_ex.c:421:132
	ldr	r1, [sp, #8]
	.loc	7 421 156 is_stmt 0             @ ../Drivers/STM32F4xx_HAL_Driver/Src/stm32f4xx_hal_tim_ex.c:421:156
	strb.w	r0, [r1, #67]
	.loc	7 424 5 is_stmt 1               @ ../Drivers/STM32F4xx_HAL_Driver/Src/stm32f4xx_hal_tim_ex.c:424:5
	ldr	r0, [sp, #8]
	.loc	7 424 12 is_stmt 0              @ ../Drivers/STM32F4xx_HAL_Driver/Src/stm32f4xx_hal_tim_ex.c:424:12
	ldr	r1, [r0]
	.loc	7 424 27                        @ ../Drivers/STM32F4xx_HAL_Driver/Src/stm32f4xx_hal_tim_ex.c:424:27
	ldr	r0, [r1, #12]
	orr	r0, r0, #2
	str	r0, [r1, #12]
	.loc	7 429 21 is_stmt 1              @ ../Drivers/STM32F4xx_HAL_Driver/Src/stm32f4xx_hal_tim_ex.c:429:21
	ldr	r0, [sp, #8]
	.loc	7 429 27 is_stmt 0              @ ../Drivers/STM32F4xx_HAL_Driver/Src/stm32f4xx_hal_tim_ex.c:429:27
	ldr	r0, [r0]
	movs	r1, #0
	movs	r2, #1
	.loc	7 429 3                         @ ../Drivers/STM32F4xx_HAL_Driver/Src/stm32f4xx_hal_tim_ex.c:429:3
	bl	TIM_CCxChannelCmd
.Ltmp54:
	.loc	7 432 10 is_stmt 1              @ ../Drivers/STM32F4xx_HAL_Driver/Src/stm32f4xx_hal_tim_ex.c:432:10
	ldr	r0, [sp, #8]
	.loc	7 432 16 is_stmt 0              @ ../Drivers/STM32F4xx_HAL_Driver/Src/stm32f4xx_hal_tim_ex.c:432:16
	ldr	r0, [r0]
	movs	r1, #0
	movt	r1, #16385
	.loc	7 432 91                        @ ../Drivers/STM32F4xx_HAL_Driver/Src/stm32f4xx_hal_tim_ex.c:432:91
	cmp	r0, r1
	beq	.LBB6_13
	b	.LBB6_6
.LBB6_6:
	.loc	7 432 96                        @ ../Drivers/STM32F4xx_HAL_Driver/Src/stm32f4xx_hal_tim_ex.c:432:96
	ldr	r0, [sp, #8]
	.loc	7 432 102                       @ ../Drivers/STM32F4xx_HAL_Driver/Src/stm32f4xx_hal_tim_ex.c:432:102
	ldr	r0, [r0]
	.loc	7 432 160                       @ ../Drivers/STM32F4xx_HAL_Driver/Src/stm32f4xx_hal_tim_ex.c:432:160
	cmp.w	r0, #1073741824
	beq	.LBB6_13
	b	.LBB6_7
.LBB6_7:
	.loc	7 432 165                       @ ../Drivers/STM32F4xx_HAL_Driver/Src/stm32f4xx_hal_tim_ex.c:432:165
	ldr	r0, [sp, #8]
	.loc	7 432 171                       @ ../Drivers/STM32F4xx_HAL_Driver/Src/stm32f4xx_hal_tim_ex.c:432:171
	ldr	r0, [r0]
	movw	r1, #1024
	movt	r1, #16384
	.loc	7 432 229                       @ ../Drivers/STM32F4xx_HAL_Driver/Src/stm32f4xx_hal_tim_ex.c:432:229
	cmp	r0, r1
	beq	.LBB6_13
	b	.LBB6_8
.LBB6_8:
	.loc	7 432 234                       @ ../Drivers/STM32F4xx_HAL_Driver/Src/stm32f4xx_hal_tim_ex.c:432:234
	ldr	r0, [sp, #8]
	.loc	7 432 240                       @ ../Drivers/STM32F4xx_HAL_Driver/Src/stm32f4xx_hal_tim_ex.c:432:240
	ldr	r0, [r0]
	movw	r1, #2048
	movt	r1, #16384
	.loc	7 432 298                       @ ../Drivers/STM32F4xx_HAL_Driver/Src/stm32f4xx_hal_tim_ex.c:432:298
	cmp	r0, r1
	beq	.LBB6_13
	b	.LBB6_9
.LBB6_9:
	.loc	7 432 303                       @ ../Drivers/STM32F4xx_HAL_Driver/Src/stm32f4xx_hal_tim_ex.c:432:303
	ldr	r0, [sp, #8]
	.loc	7 432 309                       @ ../Drivers/STM32F4xx_HAL_Driver/Src/stm32f4xx_hal_tim_ex.c:432:309
	ldr	r0, [r0]
	movw	r1, #3072
	movt	r1, #16384
	.loc	7 432 367                       @ ../Drivers/STM32F4xx_HAL_Driver/Src/stm32f4xx_hal_tim_ex.c:432:367
	cmp	r0, r1
	beq	.LBB6_13
	b	.LBB6_10
.LBB6_10:
	.loc	7 432 372                       @ ../Drivers/STM32F4xx_HAL_Driver/Src/stm32f4xx_hal_tim_ex.c:432:372
	ldr	r0, [sp, #8]
	.loc	7 432 378                       @ ../Drivers/STM32F4xx_HAL_Driver/Src/stm32f4xx_hal_tim_ex.c:432:378
	ldr	r0, [r0]
	movw	r1, #1024
	movt	r1, #16385
	.loc	7 432 453                       @ ../Drivers/STM32F4xx_HAL_Driver/Src/stm32f4xx_hal_tim_ex.c:432:453
	cmp	r0, r1
	beq	.LBB6_13
	b	.LBB6_11
.LBB6_11:
	.loc	7 432 458                       @ ../Drivers/STM32F4xx_HAL_Driver/Src/stm32f4xx_hal_tim_ex.c:432:458
	ldr	r0, [sp, #8]
	.loc	7 432 464                       @ ../Drivers/STM32F4xx_HAL_Driver/Src/stm32f4xx_hal_tim_ex.c:432:464
	ldr	r0, [r0]
	movw	r1, #16384
	movt	r1, #16385
	.loc	7 432 539                       @ ../Drivers/STM32F4xx_HAL_Driver/Src/stm32f4xx_hal_tim_ex.c:432:539
	cmp	r0, r1
	beq	.LBB6_13
	b	.LBB6_12
.LBB6_12:
	.loc	7 432 544                       @ ../Drivers/STM32F4xx_HAL_Driver/Src/stm32f4xx_hal_tim_ex.c:432:544
	ldr	r0, [sp, #8]
	.loc	7 432 550                       @ ../Drivers/STM32F4xx_HAL_Driver/Src/stm32f4xx_hal_tim_ex.c:432:550
	ldr	r0, [r0]
	movw	r1, #6144
	movt	r1, #16384
.Ltmp55:
	.loc	7 432 7                         @ ../Drivers/STM32F4xx_HAL_Driver/Src/stm32f4xx_hal_tim_ex.c:432:7
	cmp	r0, r1
	bne	.LBB6_16
	b	.LBB6_13
.LBB6_13:
.Ltmp56:
	.loc	7 434 15 is_stmt 1              @ ../Drivers/STM32F4xx_HAL_Driver/Src/stm32f4xx_hal_tim_ex.c:434:15
	ldr	r0, [sp, #8]
	.loc	7 434 21 is_stmt 0              @ ../Drivers/STM32F4xx_HAL_Driver/Src/stm32f4xx_hal_tim_ex.c:434:21
	ldr	r0, [r0]
	.loc	7 434 31                        @ ../Drivers/STM32F4xx_HAL_Driver/Src/stm32f4xx_hal_tim_ex.c:434:31
	ldr	r0, [r0, #8]
	.loc	7 434 36                        @ ../Drivers/STM32F4xx_HAL_Driver/Src/stm32f4xx_hal_tim_ex.c:434:36
	and	r0, r0, #7
	.loc	7 434 13                        @ ../Drivers/STM32F4xx_HAL_Driver/Src/stm32f4xx_hal_tim_ex.c:434:13
	str	r0, [sp, #4]
.Ltmp57:
	.loc	7 435 12 is_stmt 1              @ ../Drivers/STM32F4xx_HAL_Driver/Src/stm32f4xx_hal_tim_ex.c:435:12
	ldr	r0, [sp, #4]
.Ltmp58:
	.loc	7 435 9 is_stmt 0               @ ../Drivers/STM32F4xx_HAL_Driver/Src/stm32f4xx_hal_tim_ex.c:435:9
	cmp	r0, #6
	beq	.LBB6_15
	b	.LBB6_14
.LBB6_14:
.Ltmp59:
	.loc	7 437 9 is_stmt 1               @ ../Drivers/STM32F4xx_HAL_Driver/Src/stm32f4xx_hal_tim_ex.c:437:9
	ldr	r0, [sp, #8]
	.loc	7 437 16 is_stmt 0              @ ../Drivers/STM32F4xx_HAL_Driver/Src/stm32f4xx_hal_tim_ex.c:437:16
	ldr	r1, [r0]
	.loc	7 437 29                        @ ../Drivers/STM32F4xx_HAL_Driver/Src/stm32f4xx_hal_tim_ex.c:437:29
	ldr	r0, [r1]
	orr	r0, r0, #1
	str	r0, [r1]
	.loc	7 438 5 is_stmt 1               @ ../Drivers/STM32F4xx_HAL_Driver/Src/stm32f4xx_hal_tim_ex.c:438:5
	b	.LBB6_15
.Ltmp60:
.LBB6_15:
	.loc	7 439 3                         @ ../Drivers/STM32F4xx_HAL_Driver/Src/stm32f4xx_hal_tim_ex.c:439:3
	b	.LBB6_17
.Ltmp61:
.LBB6_16:
	.loc	7 442 7                         @ ../Drivers/STM32F4xx_HAL_Driver/Src/stm32f4xx_hal_tim_ex.c:442:7
	ldr	r0, [sp, #8]
	.loc	7 442 14 is_stmt 0              @ ../Drivers/STM32F4xx_HAL_Driver/Src/stm32f4xx_hal_tim_ex.c:442:14
	ldr	r1, [r0]
	.loc	7 442 27                        @ ../Drivers/STM32F4xx_HAL_Driver/Src/stm32f4xx_hal_tim_ex.c:442:27
	ldr	r0, [r1]
	orr	r0, r0, #1
	str	r0, [r1]
	b	.LBB6_17
.Ltmp62:
.LBB6_17:
	.loc	7 0 27                          @ ../Drivers/STM32F4xx_HAL_Driver/Src/stm32f4xx_hal_tim_ex.c:0:27
	movs	r0, #0
	.loc	7 446 3 is_stmt 1               @ ../Drivers/STM32F4xx_HAL_Driver/Src/stm32f4xx_hal_tim_ex.c:446:3
	strb.w	r0, [sp, #15]
	b	.LBB6_18
.LBB6_18:
	.loc	7 447 1                         @ ../Drivers/STM32F4xx_HAL_Driver/Src/stm32f4xx_hal_tim_ex.c:447:1
	ldrb.w	r0, [sp, #15]
	add	sp, #16
	pop	{r7, pc}
.Ltmp63:
.Lfunc_end6:
	.size	HAL_TIMEx_HallSensor_Start_IT, .Lfunc_end6-HAL_TIMEx_HallSensor_Start_IT
	.cfi_endproc
	.cantunwind
	.fnend
                                        @ -- End function
	.section	.text.HAL_TIMEx_HallSensor_Stop_IT,"ax",%progbits
	.hidden	HAL_TIMEx_HallSensor_Stop_IT    @ -- Begin function HAL_TIMEx_HallSensor_Stop_IT
	.globl	HAL_TIMEx_HallSensor_Stop_IT
	.p2align	2
	.type	HAL_TIMEx_HallSensor_Stop_IT,%function
	.code	16                              @ @HAL_TIMEx_HallSensor_Stop_IT
	.thumb_func
HAL_TIMEx_HallSensor_Stop_IT:
.Lfunc_begin7:
	.loc	7 455 0                         @ ../Drivers/STM32F4xx_HAL_Driver/Src/stm32f4xx_hal_tim_ex.c:455:0
	.fnstart
	.cfi_startproc
@ %bb.0:
	.save	{r7, lr}
	push	{r7, lr}
	.cfi_def_cfa_offset 8
	.cfi_offset lr, -4
	.cfi_offset r7, -8
	.pad	#8
	sub	sp, #8
	.cfi_def_cfa_offset 16
	str	r0, [sp, #4]
.Ltmp64:
	.loc	7 462 21 prologue_end           @ ../Drivers/STM32F4xx_HAL_Driver/Src/stm32f4xx_hal_tim_ex.c:462:21
	ldr	r0, [sp, #4]
	.loc	7 462 27 is_stmt 0              @ ../Drivers/STM32F4xx_HAL_Driver/Src/stm32f4xx_hal_tim_ex.c:462:27
	ldr	r0, [r0]
	movs	r2, #0
	.loc	7 462 3                         @ ../Drivers/STM32F4xx_HAL_Driver/Src/stm32f4xx_hal_tim_ex.c:462:3
	mov	r1, r2
	bl	TIM_CCxChannelCmd
	.loc	7 465 5 is_stmt 1               @ ../Drivers/STM32F4xx_HAL_Driver/Src/stm32f4xx_hal_tim_ex.c:465:5
	ldr	r0, [sp, #4]
	.loc	7 465 12 is_stmt 0              @ ../Drivers/STM32F4xx_HAL_Driver/Src/stm32f4xx_hal_tim_ex.c:465:12
	ldr	r1, [r0]
	.loc	7 465 27                        @ ../Drivers/STM32F4xx_HAL_Driver/Src/stm32f4xx_hal_tim_ex.c:465:27
	ldr	r0, [r1, #12]
	bic	r0, r0, #2
	str	r0, [r1, #12]
	.loc	7 468 3 is_stmt 1               @ ../Drivers/STM32F4xx_HAL_Driver/Src/stm32f4xx_hal_tim_ex.c:468:3
	b	.LBB7_1
.LBB7_1:
.Ltmp65:
	.loc	7 468 14 is_stmt 0              @ ../Drivers/STM32F4xx_HAL_Driver/Src/stm32f4xx_hal_tim_ex.c:468:14
	ldr	r0, [sp, #4]
	.loc	7 468 21                        @ ../Drivers/STM32F4xx_HAL_Driver/Src/stm32f4xx_hal_tim_ex.c:468:21
	ldr	r0, [r0]
	.loc	7 468 31                        @ ../Drivers/STM32F4xx_HAL_Driver/Src/stm32f4xx_hal_tim_ex.c:468:31
	ldr	r0, [r0, #32]
	movw	r1, #4369
.Ltmp66:
	.loc	7 468 12                        @ ../Drivers/STM32F4xx_HAL_Driver/Src/stm32f4xx_hal_tim_ex.c:468:12
	tst	r0, r1
	bne	.LBB7_5
	b	.LBB7_2
.LBB7_2:
.Ltmp67:
	.loc	7 468 139                       @ ../Drivers/STM32F4xx_HAL_Driver/Src/stm32f4xx_hal_tim_ex.c:468:139
	ldr	r0, [sp, #4]
	.loc	7 468 146                       @ ../Drivers/STM32F4xx_HAL_Driver/Src/stm32f4xx_hal_tim_ex.c:468:146
	ldr	r0, [r0]
	.loc	7 468 156                       @ ../Drivers/STM32F4xx_HAL_Driver/Src/stm32f4xx_hal_tim_ex.c:468:156
	ldr	r0, [r0, #32]
	movw	r1, #1092
.Ltmp68:
	.loc	7 468 137                       @ ../Drivers/STM32F4xx_HAL_Driver/Src/stm32f4xx_hal_tim_ex.c:468:137
	tst	r0, r1
	bne	.LBB7_4
	b	.LBB7_3
.LBB7_3:
.Ltmp69:
	.loc	7 468 242                       @ ../Drivers/STM32F4xx_HAL_Driver/Src/stm32f4xx_hal_tim_ex.c:468:242
	ldr	r0, [sp, #4]
	.loc	7 468 249                       @ ../Drivers/STM32F4xx_HAL_Driver/Src/stm32f4xx_hal_tim_ex.c:468:249
	ldr	r1, [r0]
	.loc	7 468 263                       @ ../Drivers/STM32F4xx_HAL_Driver/Src/stm32f4xx_hal_tim_ex.c:468:263
	ldr	r0, [r1]
	bic	r0, r0, #1
	str	r0, [r1]
	.loc	7 468 286                       @ ../Drivers/STM32F4xx_HAL_Driver/Src/stm32f4xx_hal_tim_ex.c:468:286
	b	.LBB7_4
.Ltmp70:
.LBB7_4:
	.loc	7 468 288                       @ ../Drivers/STM32F4xx_HAL_Driver/Src/stm32f4xx_hal_tim_ex.c:468:288
	b	.LBB7_5
.Ltmp71:
.LBB7_5:
	.loc	7 468 290                       @ ../Drivers/STM32F4xx_HAL_Driver/Src/stm32f4xx_hal_tim_ex.c:468:290
	b	.LBB7_6
.Ltmp72:
.LBB7_6:
	.loc	7 471 39 is_stmt 1              @ ../Drivers/STM32F4xx_HAL_Driver/Src/stm32f4xx_hal_tim_ex.c:471:39
	ldr	r1, [sp, #4]
	movs	r0, #1
	.loc	7 471 62 is_stmt 0              @ ../Drivers/STM32F4xx_HAL_Driver/Src/stm32f4xx_hal_tim_ex.c:471:62
	strb.w	r0, [r1, #62]
	.loc	7 472 132 is_stmt 1             @ ../Drivers/STM32F4xx_HAL_Driver/Src/stm32f4xx_hal_tim_ex.c:472:132
	ldr	r1, [sp, #4]
	.loc	7 472 155 is_stmt 0             @ ../Drivers/STM32F4xx_HAL_Driver/Src/stm32f4xx_hal_tim_ex.c:472:155
	strb.w	r0, [r1, #63]
	.loc	7 473 39 is_stmt 1              @ ../Drivers/STM32F4xx_HAL_Driver/Src/stm32f4xx_hal_tim_ex.c:473:39
	ldr	r1, [sp, #4]
	.loc	7 473 63 is_stmt 0              @ ../Drivers/STM32F4xx_HAL_Driver/Src/stm32f4xx_hal_tim_ex.c:473:63
	strb.w	r0, [r1, #66]
	.loc	7 474 133 is_stmt 1             @ ../Drivers/STM32F4xx_HAL_Driver/Src/stm32f4xx_hal_tim_ex.c:474:133
	ldr	r1, [sp, #4]
	.loc	7 474 157 is_stmt 0             @ ../Drivers/STM32F4xx_HAL_Driver/Src/stm32f4xx_hal_tim_ex.c:474:157
	strb.w	r0, [r1, #67]
	movs	r0, #0
	.loc	7 477 3 is_stmt 1               @ ../Drivers/STM32F4xx_HAL_Driver/Src/stm32f4xx_hal_tim_ex.c:477:3
	add	sp, #8
	pop	{r7, pc}
.Ltmp73:
.Lfunc_end7:
	.size	HAL_TIMEx_HallSensor_Stop_IT, .Lfunc_end7-HAL_TIMEx_HallSensor_Stop_IT
	.cfi_endproc
	.cantunwind
	.fnend
                                        @ -- End function
	.section	.text.HAL_TIMEx_HallSensor_Start_DMA,"ax",%progbits
	.hidden	HAL_TIMEx_HallSensor_Start_DMA  @ -- Begin function HAL_TIMEx_HallSensor_Start_DMA
	.globl	HAL_TIMEx_HallSensor_Start_DMA
	.p2align	2
	.type	HAL_TIMEx_HallSensor_Start_DMA,%function
	.code	16                              @ @HAL_TIMEx_HallSensor_Start_DMA
	.thumb_func
HAL_TIMEx_HallSensor_Start_DMA:
.Lfunc_begin8:
	.loc	7 488 0                         @ ../Drivers/STM32F4xx_HAL_Driver/Src/stm32f4xx_hal_tim_ex.c:488:0
	.fnstart
	.cfi_startproc
@ %bb.0:
	.save	{r7, lr}
	push	{r7, lr}
	.cfi_def_cfa_offset 8
	.cfi_offset lr, -4
	.cfi_offset r7, -8
	.pad	#24
	sub	sp, #24
	.cfi_def_cfa_offset 32
                                        @ kill: def $r3 killed $r2
	str	r0, [sp, #16]
	str	r1, [sp, #12]
	strh.w	r2, [sp, #10]
.Ltmp74:
	.loc	7 490 84 prologue_end           @ ../Drivers/STM32F4xx_HAL_Driver/Src/stm32f4xx_hal_tim_ex.c:490:84
	ldr	r0, [sp, #16]
	.loc	7 490 83 is_stmt 0              @ ../Drivers/STM32F4xx_HAL_Driver/Src/stm32f4xx_hal_tim_ex.c:490:83
	ldrb.w	r0, [r0, #62]
	.loc	7 490 31                        @ ../Drivers/STM32F4xx_HAL_Driver/Src/stm32f4xx_hal_tim_ex.c:490:31
	strb.w	r0, [sp, #3]
	.loc	7 491 98 is_stmt 1              @ ../Drivers/STM32F4xx_HAL_Driver/Src/stm32f4xx_hal_tim_ex.c:491:98
	ldr	r0, [sp, #16]
	.loc	7 491 97 is_stmt 0              @ ../Drivers/STM32F4xx_HAL_Driver/Src/stm32f4xx_hal_tim_ex.c:491:97
	ldrb.w	r0, [r0, #66]
	.loc	7 491 31                        @ ../Drivers/STM32F4xx_HAL_Driver/Src/stm32f4xx_hal_tim_ex.c:491:31
	strb.w	r0, [sp, #2]
.Ltmp75:
	.loc	7 497 8 is_stmt 1               @ ../Drivers/STM32F4xx_HAL_Driver/Src/stm32f4xx_hal_tim_ex.c:497:8
	ldrb.w	r0, [sp, #3]
	.loc	7 498 7                         @ ../Drivers/STM32F4xx_HAL_Driver/Src/stm32f4xx_hal_tim_ex.c:498:7
	cmp	r0, #2
	beq	.LBB8_2
	b	.LBB8_1
.LBB8_1:
	.loc	7 498 11 is_stmt 0              @ ../Drivers/STM32F4xx_HAL_Driver/Src/stm32f4xx_hal_tim_ex.c:498:11
	ldrb.w	r0, [sp, #2]
.Ltmp76:
	.loc	7 497 7 is_stmt 1               @ ../Drivers/STM32F4xx_HAL_Driver/Src/stm32f4xx_hal_tim_ex.c:497:7
	cmp	r0, #2
	bne	.LBB8_3
	b	.LBB8_2
.LBB8_2:
	.loc	7 0 7 is_stmt 0                 @ ../Drivers/STM32F4xx_HAL_Driver/Src/stm32f4xx_hal_tim_ex.c:0:7
	movs	r0, #2
.Ltmp77:
	.loc	7 500 5 is_stmt 1               @ ../Drivers/STM32F4xx_HAL_Driver/Src/stm32f4xx_hal_tim_ex.c:500:5
	strb.w	r0, [sp, #23]
	b	.LBB8_27
.Ltmp78:
.LBB8_3:
	.loc	7 502 13                        @ ../Drivers/STM32F4xx_HAL_Driver/Src/stm32f4xx_hal_tim_ex.c:502:13
	ldrb.w	r0, [sp, #3]
	.loc	7 503 12                        @ ../Drivers/STM32F4xx_HAL_Driver/Src/stm32f4xx_hal_tim_ex.c:503:12
	cmp	r0, #1
	bne	.LBB8_10
	b	.LBB8_4
.LBB8_4:
	.loc	7 503 16 is_stmt 0              @ ../Drivers/STM32F4xx_HAL_Driver/Src/stm32f4xx_hal_tim_ex.c:503:16
	ldrb.w	r0, [sp, #2]
.Ltmp79:
	.loc	7 502 12 is_stmt 1              @ ../Drivers/STM32F4xx_HAL_Driver/Src/stm32f4xx_hal_tim_ex.c:502:12
	cmp	r0, #1
	bne	.LBB8_10
	b	.LBB8_5
.LBB8_5:
.Ltmp80:
	.loc	7 505 10                        @ ../Drivers/STM32F4xx_HAL_Driver/Src/stm32f4xx_hal_tim_ex.c:505:10
	ldr	r0, [sp, #12]
	.loc	7 505 22 is_stmt 0              @ ../Drivers/STM32F4xx_HAL_Driver/Src/stm32f4xx_hal_tim_ex.c:505:22
	cbz	r0, .LBB8_7
	b	.LBB8_6
.LBB8_6:
	.loc	7 505 26                        @ ../Drivers/STM32F4xx_HAL_Driver/Src/stm32f4xx_hal_tim_ex.c:505:26
	ldrh.w	r0, [sp, #10]
.Ltmp81:
	.loc	7 505 9                         @ ../Drivers/STM32F4xx_HAL_Driver/Src/stm32f4xx_hal_tim_ex.c:505:9
	cbnz	r0, .LBB8_8
	b	.LBB8_7
.LBB8_7:
	.loc	7 0 9                           @ ../Drivers/STM32F4xx_HAL_Driver/Src/stm32f4xx_hal_tim_ex.c:0:9
	movs	r0, #1
.Ltmp82:
	.loc	7 507 7 is_stmt 1               @ ../Drivers/STM32F4xx_HAL_Driver/Src/stm32f4xx_hal_tim_ex.c:507:7
	strb.w	r0, [sp, #23]
	b	.LBB8_27
.Ltmp83:
.LBB8_8:
	.loc	7 511 43                        @ ../Drivers/STM32F4xx_HAL_Driver/Src/stm32f4xx_hal_tim_ex.c:511:43
	ldr	r1, [sp, #16]
	movs	r0, #2
	.loc	7 511 66 is_stmt 0              @ ../Drivers/STM32F4xx_HAL_Driver/Src/stm32f4xx_hal_tim_ex.c:511:66
	strb.w	r0, [r1, #62]
	.loc	7 512 43 is_stmt 1              @ ../Drivers/STM32F4xx_HAL_Driver/Src/stm32f4xx_hal_tim_ex.c:512:43
	ldr	r1, [sp, #16]
	.loc	7 512 67 is_stmt 0              @ ../Drivers/STM32F4xx_HAL_Driver/Src/stm32f4xx_hal_tim_ex.c:512:67
	strb.w	r0, [r1, #66]
	b	.LBB8_9
.Ltmp84:
.LBB8_9:
	.loc	7 514 3 is_stmt 1               @ ../Drivers/STM32F4xx_HAL_Driver/Src/stm32f4xx_hal_tim_ex.c:514:3
	b	.LBB8_11
.Ltmp85:
.LBB8_10:
	.loc	7 0 3 is_stmt 0                 @ ../Drivers/STM32F4xx_HAL_Driver/Src/stm32f4xx_hal_tim_ex.c:0:3
	movs	r0, #1
.Ltmp86:
	.loc	7 517 5 is_stmt 1               @ ../Drivers/STM32F4xx_HAL_Driver/Src/stm32f4xx_hal_tim_ex.c:517:5
	strb.w	r0, [sp, #23]
	b	.LBB8_27
.Ltmp87:
.LBB8_11:
	.loc	7 0 5 is_stmt 0                 @ ../Drivers/STM32F4xx_HAL_Driver/Src/stm32f4xx_hal_tim_ex.c:0:5
	b	.LBB8_12
.LBB8_12:
	.loc	7 523 21 is_stmt 1              @ ../Drivers/STM32F4xx_HAL_Driver/Src/stm32f4xx_hal_tim_ex.c:523:21
	ldr	r0, [sp, #16]
	.loc	7 523 27 is_stmt 0              @ ../Drivers/STM32F4xx_HAL_Driver/Src/stm32f4xx_hal_tim_ex.c:523:27
	ldr	r0, [r0]
	movs	r1, #0
	movs	r2, #1
	.loc	7 523 3                         @ ../Drivers/STM32F4xx_HAL_Driver/Src/stm32f4xx_hal_tim_ex.c:523:3
	bl	TIM_CCxChannelCmd
	.loc	7 526 3 is_stmt 1               @ ../Drivers/STM32F4xx_HAL_Driver/Src/stm32f4xx_hal_tim_ex.c:526:3
	ldr	r0, [sp, #16]
	ldr	r1, [r0, #36]
	.loc	7 526 53 is_stmt 0              @ ../Drivers/STM32F4xx_HAL_Driver/Src/stm32f4xx_hal_tim_ex.c:526:53
	movw	r0, :lower16:TIM_DMACaptureCplt
	movt	r0, :upper16:TIM_DMACaptureCplt
	str	r0, [r1, #60]
	.loc	7 527 3 is_stmt 1               @ ../Drivers/STM32F4xx_HAL_Driver/Src/stm32f4xx_hal_tim_ex.c:527:3
	ldr	r0, [sp, #16]
	ldr	r1, [r0, #36]
	.loc	7 527 57 is_stmt 0              @ ../Drivers/STM32F4xx_HAL_Driver/Src/stm32f4xx_hal_tim_ex.c:527:57
	movw	r0, :lower16:TIM_DMACaptureHalfCplt
	movt	r0, :upper16:TIM_DMACaptureHalfCplt
	str	r0, [r1, #64]
	.loc	7 529 3 is_stmt 1               @ ../Drivers/STM32F4xx_HAL_Driver/Src/stm32f4xx_hal_tim_ex.c:529:3
	ldr	r0, [sp, #16]
	ldr	r1, [r0, #36]
	.loc	7 529 54 is_stmt 0              @ ../Drivers/STM32F4xx_HAL_Driver/Src/stm32f4xx_hal_tim_ex.c:529:54
	movw	r0, :lower16:TIM_DMAError
	movt	r0, :upper16:TIM_DMAError
	str	r0, [r1, #76]
.Ltmp88:
	.loc	7 532 24 is_stmt 1              @ ../Drivers/STM32F4xx_HAL_Driver/Src/stm32f4xx_hal_tim_ex.c:532:24
	ldr	r0, [sp, #16]
	.loc	7 532 74 is_stmt 0              @ ../Drivers/STM32F4xx_HAL_Driver/Src/stm32f4xx_hal_tim_ex.c:532:74
	ldr	r1, [r0]
	.loc	7 532 24                        @ ../Drivers/STM32F4xx_HAL_Driver/Src/stm32f4xx_hal_tim_ex.c:532:24
	ldr	r0, [r0, #36]
	.loc	7 532 84                        @ ../Drivers/STM32F4xx_HAL_Driver/Src/stm32f4xx_hal_tim_ex.c:532:84
	adds	r1, #52
	.loc	7 532 100                       @ ../Drivers/STM32F4xx_HAL_Driver/Src/stm32f4xx_hal_tim_ex.c:532:100
	ldr	r2, [sp, #12]
	.loc	7 532 107                       @ ../Drivers/STM32F4xx_HAL_Driver/Src/stm32f4xx_hal_tim_ex.c:532:107
	ldrh.w	r3, [sp, #10]
	.loc	7 532 7                         @ ../Drivers/STM32F4xx_HAL_Driver/Src/stm32f4xx_hal_tim_ex.c:532:7
	bl	HAL_DMA_Start_IT
.Ltmp89:
	.loc	7 532 7                         @ ../Drivers/STM32F4xx_HAL_Driver/Src/stm32f4xx_hal_tim_ex.c:532:7
	cbz	r0, .LBB8_14
	b	.LBB8_13
.LBB8_13:
	.loc	7 0 7                           @ ../Drivers/STM32F4xx_HAL_Driver/Src/stm32f4xx_hal_tim_ex.c:0:7
	movs	r0, #1
.Ltmp90:
	.loc	7 535 5 is_stmt 1               @ ../Drivers/STM32F4xx_HAL_Driver/Src/stm32f4xx_hal_tim_ex.c:535:5
	strb.w	r0, [sp, #23]
	b	.LBB8_27
.Ltmp91:
.LBB8_14:
	.loc	7 538 5                         @ ../Drivers/STM32F4xx_HAL_Driver/Src/stm32f4xx_hal_tim_ex.c:538:5
	ldr	r0, [sp, #16]
	.loc	7 538 12 is_stmt 0              @ ../Drivers/STM32F4xx_HAL_Driver/Src/stm32f4xx_hal_tim_ex.c:538:12
	ldr	r1, [r0]
	.loc	7 538 27                        @ ../Drivers/STM32F4xx_HAL_Driver/Src/stm32f4xx_hal_tim_ex.c:538:27
	ldr	r0, [r1, #12]
	orr	r0, r0, #512
	str	r0, [r1, #12]
.Ltmp92:
	.loc	7 541 10 is_stmt 1              @ ../Drivers/STM32F4xx_HAL_Driver/Src/stm32f4xx_hal_tim_ex.c:541:10
	ldr	r0, [sp, #16]
	.loc	7 541 16 is_stmt 0              @ ../Drivers/STM32F4xx_HAL_Driver/Src/stm32f4xx_hal_tim_ex.c:541:16
	ldr	r0, [r0]
	movs	r1, #0
	movt	r1, #16385
	.loc	7 541 91                        @ ../Drivers/STM32F4xx_HAL_Driver/Src/stm32f4xx_hal_tim_ex.c:541:91
	cmp	r0, r1
	beq	.LBB8_22
	b	.LBB8_15
.LBB8_15:
	.loc	7 541 96                        @ ../Drivers/STM32F4xx_HAL_Driver/Src/stm32f4xx_hal_tim_ex.c:541:96
	ldr	r0, [sp, #16]
	.loc	7 541 102                       @ ../Drivers/STM32F4xx_HAL_Driver/Src/stm32f4xx_hal_tim_ex.c:541:102
	ldr	r0, [r0]
	.loc	7 541 160                       @ ../Drivers/STM32F4xx_HAL_Driver/Src/stm32f4xx_hal_tim_ex.c:541:160
	cmp.w	r0, #1073741824
	beq	.LBB8_22
	b	.LBB8_16
.LBB8_16:
	.loc	7 541 165                       @ ../Drivers/STM32F4xx_HAL_Driver/Src/stm32f4xx_hal_tim_ex.c:541:165
	ldr	r0, [sp, #16]
	.loc	7 541 171                       @ ../Drivers/STM32F4xx_HAL_Driver/Src/stm32f4xx_hal_tim_ex.c:541:171
	ldr	r0, [r0]
	movw	r1, #1024
	movt	r1, #16384
	.loc	7 541 229                       @ ../Drivers/STM32F4xx_HAL_Driver/Src/stm32f4xx_hal_tim_ex.c:541:229
	cmp	r0, r1
	beq	.LBB8_22
	b	.LBB8_17
.LBB8_17:
	.loc	7 541 234                       @ ../Drivers/STM32F4xx_HAL_Driver/Src/stm32f4xx_hal_tim_ex.c:541:234
	ldr	r0, [sp, #16]
	.loc	7 541 240                       @ ../Drivers/STM32F4xx_HAL_Driver/Src/stm32f4xx_hal_tim_ex.c:541:240
	ldr	r0, [r0]
	movw	r1, #2048
	movt	r1, #16384
	.loc	7 541 298                       @ ../Drivers/STM32F4xx_HAL_Driver/Src/stm32f4xx_hal_tim_ex.c:541:298
	cmp	r0, r1
	beq	.LBB8_22
	b	.LBB8_18
.LBB8_18:
	.loc	7 541 303                       @ ../Drivers/STM32F4xx_HAL_Driver/Src/stm32f4xx_hal_tim_ex.c:541:303
	ldr	r0, [sp, #16]
	.loc	7 541 309                       @ ../Drivers/STM32F4xx_HAL_Driver/Src/stm32f4xx_hal_tim_ex.c:541:309
	ldr	r0, [r0]
	movw	r1, #3072
	movt	r1, #16384
	.loc	7 541 367                       @ ../Drivers/STM32F4xx_HAL_Driver/Src/stm32f4xx_hal_tim_ex.c:541:367
	cmp	r0, r1
	beq	.LBB8_22
	b	.LBB8_19
.LBB8_19:
	.loc	7 541 372                       @ ../Drivers/STM32F4xx_HAL_Driver/Src/stm32f4xx_hal_tim_ex.c:541:372
	ldr	r0, [sp, #16]
	.loc	7 541 378                       @ ../Drivers/STM32F4xx_HAL_Driver/Src/stm32f4xx_hal_tim_ex.c:541:378
	ldr	r0, [r0]
	movw	r1, #1024
	movt	r1, #16385
	.loc	7 541 453                       @ ../Drivers/STM32F4xx_HAL_Driver/Src/stm32f4xx_hal_tim_ex.c:541:453
	cmp	r0, r1
	beq	.LBB8_22
	b	.LBB8_20
.LBB8_20:
	.loc	7 541 458                       @ ../Drivers/STM32F4xx_HAL_Driver/Src/stm32f4xx_hal_tim_ex.c:541:458
	ldr	r0, [sp, #16]
	.loc	7 541 464                       @ ../Drivers/STM32F4xx_HAL_Driver/Src/stm32f4xx_hal_tim_ex.c:541:464
	ldr	r0, [r0]
	movw	r1, #16384
	movt	r1, #16385
	.loc	7 541 539                       @ ../Drivers/STM32F4xx_HAL_Driver/Src/stm32f4xx_hal_tim_ex.c:541:539
	cmp	r0, r1
	beq	.LBB8_22
	b	.LBB8_21
.LBB8_21:
	.loc	7 541 544                       @ ../Drivers/STM32F4xx_HAL_Driver/Src/stm32f4xx_hal_tim_ex.c:541:544
	ldr	r0, [sp, #16]
	.loc	7 541 550                       @ ../Drivers/STM32F4xx_HAL_Driver/Src/stm32f4xx_hal_tim_ex.c:541:550
	ldr	r0, [r0]
	movw	r1, #6144
	movt	r1, #16384
.Ltmp93:
	.loc	7 541 7                         @ ../Drivers/STM32F4xx_HAL_Driver/Src/stm32f4xx_hal_tim_ex.c:541:7
	cmp	r0, r1
	bne	.LBB8_25
	b	.LBB8_22
.LBB8_22:
.Ltmp94:
	.loc	7 543 15 is_stmt 1              @ ../Drivers/STM32F4xx_HAL_Driver/Src/stm32f4xx_hal_tim_ex.c:543:15
	ldr	r0, [sp, #16]
	.loc	7 543 21 is_stmt 0              @ ../Drivers/STM32F4xx_HAL_Driver/Src/stm32f4xx_hal_tim_ex.c:543:21
	ldr	r0, [r0]
	.loc	7 543 31                        @ ../Drivers/STM32F4xx_HAL_Driver/Src/stm32f4xx_hal_tim_ex.c:543:31
	ldr	r0, [r0, #8]
	.loc	7 543 36                        @ ../Drivers/STM32F4xx_HAL_Driver/Src/stm32f4xx_hal_tim_ex.c:543:36
	and	r0, r0, #7
	.loc	7 543 13                        @ ../Drivers/STM32F4xx_HAL_Driver/Src/stm32f4xx_hal_tim_ex.c:543:13
	str	r0, [sp, #4]
.Ltmp95:
	.loc	7 544 12 is_stmt 1              @ ../Drivers/STM32F4xx_HAL_Driver/Src/stm32f4xx_hal_tim_ex.c:544:12
	ldr	r0, [sp, #4]
.Ltmp96:
	.loc	7 544 9 is_stmt 0               @ ../Drivers/STM32F4xx_HAL_Driver/Src/stm32f4xx_hal_tim_ex.c:544:9
	cmp	r0, #6
	beq	.LBB8_24
	b	.LBB8_23
.LBB8_23:
.Ltmp97:
	.loc	7 546 9 is_stmt 1               @ ../Drivers/STM32F4xx_HAL_Driver/Src/stm32f4xx_hal_tim_ex.c:546:9
	ldr	r0, [sp, #16]
	.loc	7 546 16 is_stmt 0              @ ../Drivers/STM32F4xx_HAL_Driver/Src/stm32f4xx_hal_tim_ex.c:546:16
	ldr	r1, [r0]
	.loc	7 546 29                        @ ../Drivers/STM32F4xx_HAL_Driver/Src/stm32f4xx_hal_tim_ex.c:546:29
	ldr	r0, [r1]
	orr	r0, r0, #1
	str	r0, [r1]
	.loc	7 547 5 is_stmt 1               @ ../Drivers/STM32F4xx_HAL_Driver/Src/stm32f4xx_hal_tim_ex.c:547:5
	b	.LBB8_24
.Ltmp98:
.LBB8_24:
	.loc	7 548 3                         @ ../Drivers/STM32F4xx_HAL_Driver/Src/stm32f4xx_hal_tim_ex.c:548:3
	b	.LBB8_26
.Ltmp99:
.LBB8_25:
	.loc	7 551 7                         @ ../Drivers/STM32F4xx_HAL_Driver/Src/stm32f4xx_hal_tim_ex.c:551:7
	ldr	r0, [sp, #16]
	.loc	7 551 14 is_stmt 0              @ ../Drivers/STM32F4xx_HAL_Driver/Src/stm32f4xx_hal_tim_ex.c:551:14
	ldr	r1, [r0]
	.loc	7 551 27                        @ ../Drivers/STM32F4xx_HAL_Driver/Src/stm32f4xx_hal_tim_ex.c:551:27
	ldr	r0, [r1]
	orr	r0, r0, #1
	str	r0, [r1]
	b	.LBB8_26
.Ltmp100:
.LBB8_26:
	.loc	7 0 27                          @ ../Drivers/STM32F4xx_HAL_Driver/Src/stm32f4xx_hal_tim_ex.c:0:27
	movs	r0, #0
	.loc	7 555 3 is_stmt 1               @ ../Drivers/STM32F4xx_HAL_Driver/Src/stm32f4xx_hal_tim_ex.c:555:3
	strb.w	r0, [sp, #23]
	b	.LBB8_27
.LBB8_27:
	.loc	7 556 1                         @ ../Drivers/STM32F4xx_HAL_Driver/Src/stm32f4xx_hal_tim_ex.c:556:1
	ldrb.w	r0, [sp, #23]
	add	sp, #24
	pop	{r7, pc}
.Ltmp101:
.Lfunc_end8:
	.size	HAL_TIMEx_HallSensor_Start_DMA, .Lfunc_end8-HAL_TIMEx_HallSensor_Start_DMA
	.cfi_endproc
	.cantunwind
	.fnend
                                        @ -- End function
	.section	.text.HAL_TIMEx_HallSensor_Stop_DMA,"ax",%progbits
	.hidden	HAL_TIMEx_HallSensor_Stop_DMA   @ -- Begin function HAL_TIMEx_HallSensor_Stop_DMA
	.globl	HAL_TIMEx_HallSensor_Stop_DMA
	.p2align	2
	.type	HAL_TIMEx_HallSensor_Stop_DMA,%function
	.code	16                              @ @HAL_TIMEx_HallSensor_Stop_DMA
	.thumb_func
HAL_TIMEx_HallSensor_Stop_DMA:
.Lfunc_begin9:
	.loc	7 564 0                         @ ../Drivers/STM32F4xx_HAL_Driver/Src/stm32f4xx_hal_tim_ex.c:564:0
	.fnstart
	.cfi_startproc
@ %bb.0:
	.save	{r7, lr}
	push	{r7, lr}
	.cfi_def_cfa_offset 8
	.cfi_offset lr, -4
	.cfi_offset r7, -8
	.pad	#8
	sub	sp, #8
	.cfi_def_cfa_offset 16
	str	r0, [sp, #4]
.Ltmp102:
	.loc	7 571 21 prologue_end           @ ../Drivers/STM32F4xx_HAL_Driver/Src/stm32f4xx_hal_tim_ex.c:571:21
	ldr	r0, [sp, #4]
	.loc	7 571 27 is_stmt 0              @ ../Drivers/STM32F4xx_HAL_Driver/Src/stm32f4xx_hal_tim_ex.c:571:27
	ldr	r0, [r0]
	movs	r2, #0
	.loc	7 571 3                         @ ../Drivers/STM32F4xx_HAL_Driver/Src/stm32f4xx_hal_tim_ex.c:571:3
	mov	r1, r2
	bl	TIM_CCxChannelCmd
	.loc	7 575 5 is_stmt 1               @ ../Drivers/STM32F4xx_HAL_Driver/Src/stm32f4xx_hal_tim_ex.c:575:5
	ldr	r0, [sp, #4]
	.loc	7 575 12 is_stmt 0              @ ../Drivers/STM32F4xx_HAL_Driver/Src/stm32f4xx_hal_tim_ex.c:575:12
	ldr	r1, [r0]
	.loc	7 575 27                        @ ../Drivers/STM32F4xx_HAL_Driver/Src/stm32f4xx_hal_tim_ex.c:575:27
	ldr	r0, [r1, #12]
	bic	r0, r0, #512
	str	r0, [r1, #12]
	.loc	7 577 26 is_stmt 1              @ ../Drivers/STM32F4xx_HAL_Driver/Src/stm32f4xx_hal_tim_ex.c:577:26
	ldr	r0, [sp, #4]
	ldr	r0, [r0, #36]
	.loc	7 577 9 is_stmt 0               @ ../Drivers/STM32F4xx_HAL_Driver/Src/stm32f4xx_hal_tim_ex.c:577:9
	bl	HAL_DMA_Abort_IT
	.loc	7 580 3 is_stmt 1               @ ../Drivers/STM32F4xx_HAL_Driver/Src/stm32f4xx_hal_tim_ex.c:580:3
	b	.LBB9_1
.LBB9_1:
.Ltmp103:
	.loc	7 580 14 is_stmt 0              @ ../Drivers/STM32F4xx_HAL_Driver/Src/stm32f4xx_hal_tim_ex.c:580:14
	ldr	r0, [sp, #4]
	.loc	7 580 21                        @ ../Drivers/STM32F4xx_HAL_Driver/Src/stm32f4xx_hal_tim_ex.c:580:21
	ldr	r0, [r0]
	.loc	7 580 31                        @ ../Drivers/STM32F4xx_HAL_Driver/Src/stm32f4xx_hal_tim_ex.c:580:31
	ldr	r0, [r0, #32]
	movw	r1, #4369
.Ltmp104:
	.loc	7 580 12                        @ ../Drivers/STM32F4xx_HAL_Driver/Src/stm32f4xx_hal_tim_ex.c:580:12
	tst	r0, r1
	bne	.LBB9_5
	b	.LBB9_2
.LBB9_2:
.Ltmp105:
	.loc	7 580 139                       @ ../Drivers/STM32F4xx_HAL_Driver/Src/stm32f4xx_hal_tim_ex.c:580:139
	ldr	r0, [sp, #4]
	.loc	7 580 146                       @ ../Drivers/STM32F4xx_HAL_Driver/Src/stm32f4xx_hal_tim_ex.c:580:146
	ldr	r0, [r0]
	.loc	7 580 156                       @ ../Drivers/STM32F4xx_HAL_Driver/Src/stm32f4xx_hal_tim_ex.c:580:156
	ldr	r0, [r0, #32]
	movw	r1, #1092
.Ltmp106:
	.loc	7 580 137                       @ ../Drivers/STM32F4xx_HAL_Driver/Src/stm32f4xx_hal_tim_ex.c:580:137
	tst	r0, r1
	bne	.LBB9_4
	b	.LBB9_3
.LBB9_3:
.Ltmp107:
	.loc	7 580 242                       @ ../Drivers/STM32F4xx_HAL_Driver/Src/stm32f4xx_hal_tim_ex.c:580:242
	ldr	r0, [sp, #4]
	.loc	7 580 249                       @ ../Drivers/STM32F4xx_HAL_Driver/Src/stm32f4xx_hal_tim_ex.c:580:249
	ldr	r1, [r0]
	.loc	7 580 263                       @ ../Drivers/STM32F4xx_HAL_Driver/Src/stm32f4xx_hal_tim_ex.c:580:263
	ldr	r0, [r1]
	bic	r0, r0, #1
	str	r0, [r1]
	.loc	7 580 286                       @ ../Drivers/STM32F4xx_HAL_Driver/Src/stm32f4xx_hal_tim_ex.c:580:286
	b	.LBB9_4
.Ltmp108:
.LBB9_4:
	.loc	7 580 288                       @ ../Drivers/STM32F4xx_HAL_Driver/Src/stm32f4xx_hal_tim_ex.c:580:288
	b	.LBB9_5
.Ltmp109:
.LBB9_5:
	.loc	7 580 290                       @ ../Drivers/STM32F4xx_HAL_Driver/Src/stm32f4xx_hal_tim_ex.c:580:290
	b	.LBB9_6
.Ltmp110:
.LBB9_6:
	.loc	7 583 39 is_stmt 1              @ ../Drivers/STM32F4xx_HAL_Driver/Src/stm32f4xx_hal_tim_ex.c:583:39
	ldr	r1, [sp, #4]
	movs	r0, #1
	.loc	7 583 62 is_stmt 0              @ ../Drivers/STM32F4xx_HAL_Driver/Src/stm32f4xx_hal_tim_ex.c:583:62
	strb.w	r0, [r1, #62]
	.loc	7 584 39 is_stmt 1              @ ../Drivers/STM32F4xx_HAL_Driver/Src/stm32f4xx_hal_tim_ex.c:584:39
	ldr	r1, [sp, #4]
	.loc	7 584 63 is_stmt 0              @ ../Drivers/STM32F4xx_HAL_Driver/Src/stm32f4xx_hal_tim_ex.c:584:63
	strb.w	r0, [r1, #66]
	movs	r0, #0
	.loc	7 587 3 is_stmt 1               @ ../Drivers/STM32F4xx_HAL_Driver/Src/stm32f4xx_hal_tim_ex.c:587:3
	add	sp, #8
	pop	{r7, pc}
.Ltmp111:
.Lfunc_end9:
	.size	HAL_TIMEx_HallSensor_Stop_DMA, .Lfunc_end9-HAL_TIMEx_HallSensor_Stop_DMA
	.cfi_endproc
	.cantunwind
	.fnend
                                        @ -- End function
	.section	.text.HAL_TIMEx_OCN_Start,"ax",%progbits
	.hidden	HAL_TIMEx_OCN_Start             @ -- Begin function HAL_TIMEx_OCN_Start
	.globl	HAL_TIMEx_OCN_Start
	.p2align	2
	.type	HAL_TIMEx_OCN_Start,%function
	.code	16                              @ @HAL_TIMEx_OCN_Start
	.thumb_func
HAL_TIMEx_OCN_Start:
.Lfunc_begin10:
	.loc	7 626 0                         @ ../Drivers/STM32F4xx_HAL_Driver/Src/stm32f4xx_hal_tim_ex.c:626:0
	.fnstart
	.cfi_startproc
@ %bb.0:
	.save	{r7, lr}
	push	{r7, lr}
	.cfi_def_cfa_offset 8
	.cfi_offset lr, -4
	.cfi_offset r7, -8
	.pad	#40
	sub	sp, #40
	.cfi_def_cfa_offset 48
	str	r0, [sp, #32]
	str	r1, [sp, #28]
.Ltmp112:
	.loc	7 633 10 prologue_end           @ ../Drivers/STM32F4xx_HAL_Driver/Src/stm32f4xx_hal_tim_ex.c:633:10
	ldr	r0, [sp, #28]
	.loc	7 633 8 is_stmt 0               @ ../Drivers/STM32F4xx_HAL_Driver/Src/stm32f4xx_hal_tim_ex.c:633:8
	cbnz	r0, .LBB10_2
	b	.LBB10_1
.LBB10_1:
	.loc	7 633 38                        @ ../Drivers/STM32F4xx_HAL_Driver/Src/stm32f4xx_hal_tim_ex.c:633:38
	ldr	r0, [sp, #32]
	.loc	7 633 37                        @ ../Drivers/STM32F4xx_HAL_Driver/Src/stm32f4xx_hal_tim_ex.c:633:37
	ldrb.w	r0, [r0, #66]
	.loc	7 633 8                         @ ../Drivers/STM32F4xx_HAL_Driver/Src/stm32f4xx_hal_tim_ex.c:633:8
	str	r0, [sp, #20]                   @ 4-byte Spill
	b	.LBB10_9
.LBB10_2:
	.loc	7 633 66                        @ ../Drivers/STM32F4xx_HAL_Driver/Src/stm32f4xx_hal_tim_ex.c:633:66
	ldr	r0, [sp, #28]
	.loc	7 633 64                        @ ../Drivers/STM32F4xx_HAL_Driver/Src/stm32f4xx_hal_tim_ex.c:633:64
	cmp	r0, #4
	bne	.LBB10_4
	b	.LBB10_3
.LBB10_3:
	.loc	7 633 94                        @ ../Drivers/STM32F4xx_HAL_Driver/Src/stm32f4xx_hal_tim_ex.c:633:94
	ldr	r0, [sp, #32]
	.loc	7 633 93                        @ ../Drivers/STM32F4xx_HAL_Driver/Src/stm32f4xx_hal_tim_ex.c:633:93
	ldrb.w	r0, [r0, #67]
	.loc	7 633 64                        @ ../Drivers/STM32F4xx_HAL_Driver/Src/stm32f4xx_hal_tim_ex.c:633:64
	str	r0, [sp, #16]                   @ 4-byte Spill
	b	.LBB10_8
.LBB10_4:
	.loc	7 633 122                       @ ../Drivers/STM32F4xx_HAL_Driver/Src/stm32f4xx_hal_tim_ex.c:633:122
	ldr	r0, [sp, #28]
	.loc	7 633 120                       @ ../Drivers/STM32F4xx_HAL_Driver/Src/stm32f4xx_hal_tim_ex.c:633:120
	cmp	r0, #8
	bne	.LBB10_6
	b	.LBB10_5
.LBB10_5:
	.loc	7 633 150                       @ ../Drivers/STM32F4xx_HAL_Driver/Src/stm32f4xx_hal_tim_ex.c:633:150
	ldr	r0, [sp, #32]
	.loc	7 633 149                       @ ../Drivers/STM32F4xx_HAL_Driver/Src/stm32f4xx_hal_tim_ex.c:633:149
	ldrb.w	r0, [r0, #68]
	.loc	7 633 120                       @ ../Drivers/STM32F4xx_HAL_Driver/Src/stm32f4xx_hal_tim_ex.c:633:120
	str	r0, [sp, #12]                   @ 4-byte Spill
	b	.LBB10_7
.LBB10_6:
	.loc	7 633 177                       @ ../Drivers/STM32F4xx_HAL_Driver/Src/stm32f4xx_hal_tim_ex.c:633:177
	ldr	r0, [sp, #32]
	.loc	7 633 176                       @ ../Drivers/STM32F4xx_HAL_Driver/Src/stm32f4xx_hal_tim_ex.c:633:176
	ldrb.w	r0, [r0, #69]
	.loc	7 633 120                       @ ../Drivers/STM32F4xx_HAL_Driver/Src/stm32f4xx_hal_tim_ex.c:633:120
	str	r0, [sp, #12]                   @ 4-byte Spill
	b	.LBB10_7
.LBB10_7:
	ldr	r0, [sp, #12]                   @ 4-byte Reload
	.loc	7 633 64                        @ ../Drivers/STM32F4xx_HAL_Driver/Src/stm32f4xx_hal_tim_ex.c:633:64
	str	r0, [sp, #16]                   @ 4-byte Spill
	b	.LBB10_8
.LBB10_8:
	ldr	r0, [sp, #16]                   @ 4-byte Reload
	.loc	7 633 8                         @ ../Drivers/STM32F4xx_HAL_Driver/Src/stm32f4xx_hal_tim_ex.c:633:8
	str	r0, [sp, #20]                   @ 4-byte Spill
	b	.LBB10_9
.LBB10_9:
	ldr	r0, [sp, #20]                   @ 4-byte Reload
.Ltmp113:
	.loc	7 633 7                         @ ../Drivers/STM32F4xx_HAL_Driver/Src/stm32f4xx_hal_tim_ex.c:633:7
	cmp	r0, #1
	beq	.LBB10_11
	b	.LBB10_10
.LBB10_10:
	.loc	7 0 7                           @ ../Drivers/STM32F4xx_HAL_Driver/Src/stm32f4xx_hal_tim_ex.c:0:7
	movs	r0, #1
.Ltmp114:
	.loc	7 635 5 is_stmt 1               @ ../Drivers/STM32F4xx_HAL_Driver/Src/stm32f4xx_hal_tim_ex.c:635:5
	strb.w	r0, [sp, #39]
	b	.LBB10_33
.Ltmp115:
.LBB10_11:
	.loc	7 639 6                         @ ../Drivers/STM32F4xx_HAL_Driver/Src/stm32f4xx_hal_tim_ex.c:639:6
	ldr	r0, [sp, #28]
	.loc	7 639 4 is_stmt 0               @ ../Drivers/STM32F4xx_HAL_Driver/Src/stm32f4xx_hal_tim_ex.c:639:4
	cbnz	r0, .LBB10_13
	b	.LBB10_12
.LBB10_12:
	.loc	7 639 35                        @ ../Drivers/STM32F4xx_HAL_Driver/Src/stm32f4xx_hal_tim_ex.c:639:35
	ldr	r1, [sp, #32]
	movs	r0, #2
	.loc	7 639 59                        @ ../Drivers/STM32F4xx_HAL_Driver/Src/stm32f4xx_hal_tim_ex.c:639:59
	strb.w	r0, [r1, #66]
	.loc	7 639 4                         @ ../Drivers/STM32F4xx_HAL_Driver/Src/stm32f4xx_hal_tim_ex.c:639:4
	b	.LBB10_20
.LBB10_13:
	.loc	7 639 95                        @ ../Drivers/STM32F4xx_HAL_Driver/Src/stm32f4xx_hal_tim_ex.c:639:95
	ldr	r0, [sp, #28]
	.loc	7 639 93                        @ ../Drivers/STM32F4xx_HAL_Driver/Src/stm32f4xx_hal_tim_ex.c:639:93
	cmp	r0, #4
	bne	.LBB10_15
	b	.LBB10_14
.LBB10_14:
	.loc	7 639 124                       @ ../Drivers/STM32F4xx_HAL_Driver/Src/stm32f4xx_hal_tim_ex.c:639:124
	ldr	r1, [sp, #32]
	movs	r0, #2
	.loc	7 639 148                       @ ../Drivers/STM32F4xx_HAL_Driver/Src/stm32f4xx_hal_tim_ex.c:639:148
	strb.w	r0, [r1, #67]
	.loc	7 639 93                        @ ../Drivers/STM32F4xx_HAL_Driver/Src/stm32f4xx_hal_tim_ex.c:639:93
	str	r0, [sp, #8]                    @ 4-byte Spill
	b	.LBB10_19
.LBB10_15:
	.loc	7 639 184                       @ ../Drivers/STM32F4xx_HAL_Driver/Src/stm32f4xx_hal_tim_ex.c:639:184
	ldr	r0, [sp, #28]
	.loc	7 639 182                       @ ../Drivers/STM32F4xx_HAL_Driver/Src/stm32f4xx_hal_tim_ex.c:639:182
	cmp	r0, #8
	bne	.LBB10_17
	b	.LBB10_16
.LBB10_16:
	.loc	7 639 213                       @ ../Drivers/STM32F4xx_HAL_Driver/Src/stm32f4xx_hal_tim_ex.c:639:213
	ldr	r1, [sp, #32]
	movs	r0, #2
	.loc	7 639 237                       @ ../Drivers/STM32F4xx_HAL_Driver/Src/stm32f4xx_hal_tim_ex.c:639:237
	strb.w	r0, [r1, #68]
	.loc	7 639 182                       @ ../Drivers/STM32F4xx_HAL_Driver/Src/stm32f4xx_hal_tim_ex.c:639:182
	str	r0, [sp, #4]                    @ 4-byte Spill
	b	.LBB10_18
.LBB10_17:
	.loc	7 639 273                       @ ../Drivers/STM32F4xx_HAL_Driver/Src/stm32f4xx_hal_tim_ex.c:639:273
	ldr	r1, [sp, #32]
	movs	r0, #2
	.loc	7 639 297                       @ ../Drivers/STM32F4xx_HAL_Driver/Src/stm32f4xx_hal_tim_ex.c:639:297
	strb.w	r0, [r1, #69]
	.loc	7 639 182                       @ ../Drivers/STM32F4xx_HAL_Driver/Src/stm32f4xx_hal_tim_ex.c:639:182
	str	r0, [sp, #4]                    @ 4-byte Spill
	b	.LBB10_18
.LBB10_18:
	ldr	r0, [sp, #4]                    @ 4-byte Reload
	.loc	7 639 93                        @ ../Drivers/STM32F4xx_HAL_Driver/Src/stm32f4xx_hal_tim_ex.c:639:93
	str	r0, [sp, #8]                    @ 4-byte Spill
	b	.LBB10_19
.LBB10_19:
	ldr	r0, [sp, #8]                    @ 4-byte Reload
	.loc	7 639 4                         @ ../Drivers/STM32F4xx_HAL_Driver/Src/stm32f4xx_hal_tim_ex.c:639:4
	b	.LBB10_20
.LBB10_20:
	.loc	7 642 22 is_stmt 1              @ ../Drivers/STM32F4xx_HAL_Driver/Src/stm32f4xx_hal_tim_ex.c:642:22
	ldr	r0, [sp, #32]
	.loc	7 642 28 is_stmt 0              @ ../Drivers/STM32F4xx_HAL_Driver/Src/stm32f4xx_hal_tim_ex.c:642:28
	ldr	r0, [r0]
	.loc	7 642 38                        @ ../Drivers/STM32F4xx_HAL_Driver/Src/stm32f4xx_hal_tim_ex.c:642:38
	ldr	r1, [sp, #28]
	movs	r2, #4
	.loc	7 642 3                         @ ../Drivers/STM32F4xx_HAL_Driver/Src/stm32f4xx_hal_tim_ex.c:642:3
	bl	TIM_CCxNChannelCmd
	.loc	7 645 5 is_stmt 1               @ ../Drivers/STM32F4xx_HAL_Driver/Src/stm32f4xx_hal_tim_ex.c:645:5
	ldr	r0, [sp, #32]
	.loc	7 645 12 is_stmt 0              @ ../Drivers/STM32F4xx_HAL_Driver/Src/stm32f4xx_hal_tim_ex.c:645:12
	ldr	r1, [r0]
	.loc	7 645 26                        @ ../Drivers/STM32F4xx_HAL_Driver/Src/stm32f4xx_hal_tim_ex.c:645:26
	ldr	r0, [r1, #68]
	orr	r0, r0, #32768
	str	r0, [r1, #68]
.Ltmp116:
	.loc	7 648 10 is_stmt 1              @ ../Drivers/STM32F4xx_HAL_Driver/Src/stm32f4xx_hal_tim_ex.c:648:10
	ldr	r0, [sp, #32]
	.loc	7 648 16 is_stmt 0              @ ../Drivers/STM32F4xx_HAL_Driver/Src/stm32f4xx_hal_tim_ex.c:648:16
	ldr	r0, [r0]
	movs	r1, #0
	movt	r1, #16385
	.loc	7 648 91                        @ ../Drivers/STM32F4xx_HAL_Driver/Src/stm32f4xx_hal_tim_ex.c:648:91
	cmp	r0, r1
	beq	.LBB10_28
	b	.LBB10_21
.LBB10_21:
	.loc	7 648 96                        @ ../Drivers/STM32F4xx_HAL_Driver/Src/stm32f4xx_hal_tim_ex.c:648:96
	ldr	r0, [sp, #32]
	.loc	7 648 102                       @ ../Drivers/STM32F4xx_HAL_Driver/Src/stm32f4xx_hal_tim_ex.c:648:102
	ldr	r0, [r0]
	.loc	7 648 160                       @ ../Drivers/STM32F4xx_HAL_Driver/Src/stm32f4xx_hal_tim_ex.c:648:160
	cmp.w	r0, #1073741824
	beq	.LBB10_28
	b	.LBB10_22
.LBB10_22:
	.loc	7 648 165                       @ ../Drivers/STM32F4xx_HAL_Driver/Src/stm32f4xx_hal_tim_ex.c:648:165
	ldr	r0, [sp, #32]
	.loc	7 648 171                       @ ../Drivers/STM32F4xx_HAL_Driver/Src/stm32f4xx_hal_tim_ex.c:648:171
	ldr	r0, [r0]
	movw	r1, #1024
	movt	r1, #16384
	.loc	7 648 229                       @ ../Drivers/STM32F4xx_HAL_Driver/Src/stm32f4xx_hal_tim_ex.c:648:229
	cmp	r0, r1
	beq	.LBB10_28
	b	.LBB10_23
.LBB10_23:
	.loc	7 648 234                       @ ../Drivers/STM32F4xx_HAL_Driver/Src/stm32f4xx_hal_tim_ex.c:648:234
	ldr	r0, [sp, #32]
	.loc	7 648 240                       @ ../Drivers/STM32F4xx_HAL_Driver/Src/stm32f4xx_hal_tim_ex.c:648:240
	ldr	r0, [r0]
	movw	r1, #2048
	movt	r1, #16384
	.loc	7 648 298                       @ ../Drivers/STM32F4xx_HAL_Driver/Src/stm32f4xx_hal_tim_ex.c:648:298
	cmp	r0, r1
	beq	.LBB10_28
	b	.LBB10_24
.LBB10_24:
	.loc	7 648 303                       @ ../Drivers/STM32F4xx_HAL_Driver/Src/stm32f4xx_hal_tim_ex.c:648:303
	ldr	r0, [sp, #32]
	.loc	7 648 309                       @ ../Drivers/STM32F4xx_HAL_Driver/Src/stm32f4xx_hal_tim_ex.c:648:309
	ldr	r0, [r0]
	movw	r1, #3072
	movt	r1, #16384
	.loc	7 648 367                       @ ../Drivers/STM32F4xx_HAL_Driver/Src/stm32f4xx_hal_tim_ex.c:648:367
	cmp	r0, r1
	beq	.LBB10_28
	b	.LBB10_25
.LBB10_25:
	.loc	7 648 372                       @ ../Drivers/STM32F4xx_HAL_Driver/Src/stm32f4xx_hal_tim_ex.c:648:372
	ldr	r0, [sp, #32]
	.loc	7 648 378                       @ ../Drivers/STM32F4xx_HAL_Driver/Src/stm32f4xx_hal_tim_ex.c:648:378
	ldr	r0, [r0]
	movw	r1, #1024
	movt	r1, #16385
	.loc	7 648 453                       @ ../Drivers/STM32F4xx_HAL_Driver/Src/stm32f4xx_hal_tim_ex.c:648:453
	cmp	r0, r1
	beq	.LBB10_28
	b	.LBB10_26
.LBB10_26:
	.loc	7 648 458                       @ ../Drivers/STM32F4xx_HAL_Driver/Src/stm32f4xx_hal_tim_ex.c:648:458
	ldr	r0, [sp, #32]
	.loc	7 648 464                       @ ../Drivers/STM32F4xx_HAL_Driver/Src/stm32f4xx_hal_tim_ex.c:648:464
	ldr	r0, [r0]
	movw	r1, #16384
	movt	r1, #16385
	.loc	7 648 539                       @ ../Drivers/STM32F4xx_HAL_Driver/Src/stm32f4xx_hal_tim_ex.c:648:539
	cmp	r0, r1
	beq	.LBB10_28
	b	.LBB10_27
.LBB10_27:
	.loc	7 648 544                       @ ../Drivers/STM32F4xx_HAL_Driver/Src/stm32f4xx_hal_tim_ex.c:648:544
	ldr	r0, [sp, #32]
	.loc	7 648 550                       @ ../Drivers/STM32F4xx_HAL_Driver/Src/stm32f4xx_hal_tim_ex.c:648:550
	ldr	r0, [r0]
	movw	r1, #6144
	movt	r1, #16384
.Ltmp117:
	.loc	7 648 7                         @ ../Drivers/STM32F4xx_HAL_Driver/Src/stm32f4xx_hal_tim_ex.c:648:7
	cmp	r0, r1
	bne	.LBB10_31
	b	.LBB10_28
.LBB10_28:
.Ltmp118:
	.loc	7 650 15 is_stmt 1              @ ../Drivers/STM32F4xx_HAL_Driver/Src/stm32f4xx_hal_tim_ex.c:650:15
	ldr	r0, [sp, #32]
	.loc	7 650 21 is_stmt 0              @ ../Drivers/STM32F4xx_HAL_Driver/Src/stm32f4xx_hal_tim_ex.c:650:21
	ldr	r0, [r0]
	.loc	7 650 31                        @ ../Drivers/STM32F4xx_HAL_Driver/Src/stm32f4xx_hal_tim_ex.c:650:31
	ldr	r0, [r0, #8]
	.loc	7 650 36                        @ ../Drivers/STM32F4xx_HAL_Driver/Src/stm32f4xx_hal_tim_ex.c:650:36
	and	r0, r0, #7
	.loc	7 650 13                        @ ../Drivers/STM32F4xx_HAL_Driver/Src/stm32f4xx_hal_tim_ex.c:650:13
	str	r0, [sp, #24]
.Ltmp119:
	.loc	7 651 12 is_stmt 1              @ ../Drivers/STM32F4xx_HAL_Driver/Src/stm32f4xx_hal_tim_ex.c:651:12
	ldr	r0, [sp, #24]
.Ltmp120:
	.loc	7 651 9 is_stmt 0               @ ../Drivers/STM32F4xx_HAL_Driver/Src/stm32f4xx_hal_tim_ex.c:651:9
	cmp	r0, #6
	beq	.LBB10_30
	b	.LBB10_29
.LBB10_29:
.Ltmp121:
	.loc	7 653 9 is_stmt 1               @ ../Drivers/STM32F4xx_HAL_Driver/Src/stm32f4xx_hal_tim_ex.c:653:9
	ldr	r0, [sp, #32]
	.loc	7 653 16 is_stmt 0              @ ../Drivers/STM32F4xx_HAL_Driver/Src/stm32f4xx_hal_tim_ex.c:653:16
	ldr	r1, [r0]
	.loc	7 653 29                        @ ../Drivers/STM32F4xx_HAL_Driver/Src/stm32f4xx_hal_tim_ex.c:653:29
	ldr	r0, [r1]
	orr	r0, r0, #1
	str	r0, [r1]
	.loc	7 654 5 is_stmt 1               @ ../Drivers/STM32F4xx_HAL_Driver/Src/stm32f4xx_hal_tim_ex.c:654:5
	b	.LBB10_30
.Ltmp122:
.LBB10_30:
	.loc	7 655 3                         @ ../Drivers/STM32F4xx_HAL_Driver/Src/stm32f4xx_hal_tim_ex.c:655:3
	b	.LBB10_32
.Ltmp123:
.LBB10_31:
	.loc	7 658 7                         @ ../Drivers/STM32F4xx_HAL_Driver/Src/stm32f4xx_hal_tim_ex.c:658:7
	ldr	r0, [sp, #32]
	.loc	7 658 14 is_stmt 0              @ ../Drivers/STM32F4xx_HAL_Driver/Src/stm32f4xx_hal_tim_ex.c:658:14
	ldr	r1, [r0]
	.loc	7 658 27                        @ ../Drivers/STM32F4xx_HAL_Driver/Src/stm32f4xx_hal_tim_ex.c:658:27
	ldr	r0, [r1]
	orr	r0, r0, #1
	str	r0, [r1]
	b	.LBB10_32
.Ltmp124:
.LBB10_32:
	.loc	7 0 27                          @ ../Drivers/STM32F4xx_HAL_Driver/Src/stm32f4xx_hal_tim_ex.c:0:27
	movs	r0, #0
	.loc	7 662 3 is_stmt 1               @ ../Drivers/STM32F4xx_HAL_Driver/Src/stm32f4xx_hal_tim_ex.c:662:3
	strb.w	r0, [sp, #39]
	b	.LBB10_33
.LBB10_33:
	.loc	7 663 1                         @ ../Drivers/STM32F4xx_HAL_Driver/Src/stm32f4xx_hal_tim_ex.c:663:1
	ldrb.w	r0, [sp, #39]
	add	sp, #40
	pop	{r7, pc}
.Ltmp125:
.Lfunc_end10:
	.size	HAL_TIMEx_OCN_Start, .Lfunc_end10-HAL_TIMEx_OCN_Start
	.cfi_endproc
	.cantunwind
	.fnend
                                        @ -- End function
	.section	.text.TIM_CCxNChannelCmd,"ax",%progbits
	.p2align	2                               @ -- Begin function TIM_CCxNChannelCmd
	.type	TIM_CCxNChannelCmd,%function
	.code	16                              @ @TIM_CCxNChannelCmd
	.thumb_func
TIM_CCxNChannelCmd:
.Lfunc_begin11:
	.loc	7 2388 0                        @ ../Drivers/STM32F4xx_HAL_Driver/Src/stm32f4xx_hal_tim_ex.c:2388:0
	.fnstart
	.cfi_startproc
@ %bb.0:
	.pad	#16
	sub	sp, #16
	.cfi_def_cfa_offset 16
	str	r0, [sp, #12]
	str	r1, [sp, #8]
	str	r2, [sp, #4]
.Ltmp126:
	.loc	7 2391 29 prologue_end          @ ../Drivers/STM32F4xx_HAL_Driver/Src/stm32f4xx_hal_tim_ex.c:2391:29
	ldr	r0, [sp, #8]
	.loc	7 2391 37 is_stmt 0             @ ../Drivers/STM32F4xx_HAL_Driver/Src/stm32f4xx_hal_tim_ex.c:2391:37
	and	r1, r0, #15
	movs	r0, #4
	.loc	7 2391 25                       @ ../Drivers/STM32F4xx_HAL_Driver/Src/stm32f4xx_hal_tim_ex.c:2391:25
	lsls	r0, r1
	.loc	7 2391 7                        @ ../Drivers/STM32F4xx_HAL_Driver/Src/stm32f4xx_hal_tim_ex.c:2391:7
	str	r0, [sp]
	.loc	7 2394 18 is_stmt 1             @ ../Drivers/STM32F4xx_HAL_Driver/Src/stm32f4xx_hal_tim_ex.c:2394:18
	ldr	r2, [sp]
	.loc	7 2394 3 is_stmt 0              @ ../Drivers/STM32F4xx_HAL_Driver/Src/stm32f4xx_hal_tim_ex.c:2394:3
	ldr	r1, [sp, #12]
	.loc	7 2394 14                       @ ../Drivers/STM32F4xx_HAL_Driver/Src/stm32f4xx_hal_tim_ex.c:2394:14
	ldr	r0, [r1, #32]
	bics	r0, r2
	str	r0, [r1, #32]
	.loc	7 2397 28 is_stmt 1             @ ../Drivers/STM32F4xx_HAL_Driver/Src/stm32f4xx_hal_tim_ex.c:2397:28
	ldr	r0, [sp, #4]
	.loc	7 2397 46 is_stmt 0             @ ../Drivers/STM32F4xx_HAL_Driver/Src/stm32f4xx_hal_tim_ex.c:2397:46
	ldr	r1, [sp, #8]
	.loc	7 2397 54                       @ ../Drivers/STM32F4xx_HAL_Driver/Src/stm32f4xx_hal_tim_ex.c:2397:54
	and	r1, r1, #15
	.loc	7 2397 42                       @ ../Drivers/STM32F4xx_HAL_Driver/Src/stm32f4xx_hal_tim_ex.c:2397:42
	lsl.w	r2, r0, r1
	.loc	7 2397 3                        @ ../Drivers/STM32F4xx_HAL_Driver/Src/stm32f4xx_hal_tim_ex.c:2397:3
	ldr	r1, [sp, #12]
	.loc	7 2397 14                       @ ../Drivers/STM32F4xx_HAL_Driver/Src/stm32f4xx_hal_tim_ex.c:2397:14
	ldr	r0, [r1, #32]
	orrs	r0, r2
	str	r0, [r1, #32]
	.loc	7 2398 1 is_stmt 1              @ ../Drivers/STM32F4xx_HAL_Driver/Src/stm32f4xx_hal_tim_ex.c:2398:1
	add	sp, #16
	bx	lr
.Ltmp127:
.Lfunc_end11:
	.size	TIM_CCxNChannelCmd, .Lfunc_end11-TIM_CCxNChannelCmd
	.cfi_endproc
	.cantunwind
	.fnend
                                        @ -- End function
	.section	.text.HAL_TIMEx_OCN_Stop,"ax",%progbits
	.hidden	HAL_TIMEx_OCN_Stop              @ -- Begin function HAL_TIMEx_OCN_Stop
	.globl	HAL_TIMEx_OCN_Stop
	.p2align	2
	.type	HAL_TIMEx_OCN_Stop,%function
	.code	16                              @ @HAL_TIMEx_OCN_Stop
	.thumb_func
HAL_TIMEx_OCN_Stop:
.Lfunc_begin12:
	.loc	7 677 0                         @ ../Drivers/STM32F4xx_HAL_Driver/Src/stm32f4xx_hal_tim_ex.c:677:0
	.fnstart
	.cfi_startproc
@ %bb.0:
	.save	{r7, lr}
	push	{r7, lr}
	.cfi_def_cfa_offset 8
	.cfi_offset lr, -4
	.cfi_offset r7, -8
	.pad	#16
	sub	sp, #16
	.cfi_def_cfa_offset 24
	str	r0, [sp, #12]
	str	r1, [sp, #8]
.Ltmp128:
	.loc	7 682 22 prologue_end           @ ../Drivers/STM32F4xx_HAL_Driver/Src/stm32f4xx_hal_tim_ex.c:682:22
	ldr	r0, [sp, #12]
	.loc	7 682 28 is_stmt 0              @ ../Drivers/STM32F4xx_HAL_Driver/Src/stm32f4xx_hal_tim_ex.c:682:28
	ldr	r0, [r0]
	.loc	7 682 38                        @ ../Drivers/STM32F4xx_HAL_Driver/Src/stm32f4xx_hal_tim_ex.c:682:38
	ldr	r1, [sp, #8]
	movs	r2, #0
	.loc	7 682 3                         @ ../Drivers/STM32F4xx_HAL_Driver/Src/stm32f4xx_hal_tim_ex.c:682:3
	bl	TIM_CCxNChannelCmd
	.loc	7 685 3 is_stmt 1               @ ../Drivers/STM32F4xx_HAL_Driver/Src/stm32f4xx_hal_tim_ex.c:685:3
	b	.LBB12_1
.LBB12_1:
.Ltmp129:
	.loc	7 685 14 is_stmt 0              @ ../Drivers/STM32F4xx_HAL_Driver/Src/stm32f4xx_hal_tim_ex.c:685:14
	ldr	r0, [sp, #12]
	.loc	7 685 21                        @ ../Drivers/STM32F4xx_HAL_Driver/Src/stm32f4xx_hal_tim_ex.c:685:21
	ldr	r0, [r0]
	.loc	7 685 31                        @ ../Drivers/STM32F4xx_HAL_Driver/Src/stm32f4xx_hal_tim_ex.c:685:31
	ldr	r0, [r0, #32]
	movw	r1, #4369
.Ltmp130:
	.loc	7 685 12                        @ ../Drivers/STM32F4xx_HAL_Driver/Src/stm32f4xx_hal_tim_ex.c:685:12
	tst	r0, r1
	bne	.LBB12_5
	b	.LBB12_2
.LBB12_2:
.Ltmp131:
	.loc	7 685 139                       @ ../Drivers/STM32F4xx_HAL_Driver/Src/stm32f4xx_hal_tim_ex.c:685:139
	ldr	r0, [sp, #12]
	.loc	7 685 146                       @ ../Drivers/STM32F4xx_HAL_Driver/Src/stm32f4xx_hal_tim_ex.c:685:146
	ldr	r0, [r0]
	.loc	7 685 156                       @ ../Drivers/STM32F4xx_HAL_Driver/Src/stm32f4xx_hal_tim_ex.c:685:156
	ldr	r0, [r0, #32]
	movw	r1, #1092
.Ltmp132:
	.loc	7 685 137                       @ ../Drivers/STM32F4xx_HAL_Driver/Src/stm32f4xx_hal_tim_ex.c:685:137
	tst	r0, r1
	bne	.LBB12_4
	b	.LBB12_3
.LBB12_3:
.Ltmp133:
	.loc	7 685 242                       @ ../Drivers/STM32F4xx_HAL_Driver/Src/stm32f4xx_hal_tim_ex.c:685:242
	ldr	r0, [sp, #12]
	.loc	7 685 249                       @ ../Drivers/STM32F4xx_HAL_Driver/Src/stm32f4xx_hal_tim_ex.c:685:249
	ldr	r1, [r0]
	.loc	7 685 264                       @ ../Drivers/STM32F4xx_HAL_Driver/Src/stm32f4xx_hal_tim_ex.c:685:264
	ldr	r0, [r1, #68]
	bic	r0, r0, #32768
	str	r0, [r1, #68]
	.loc	7 685 288                       @ ../Drivers/STM32F4xx_HAL_Driver/Src/stm32f4xx_hal_tim_ex.c:685:288
	b	.LBB12_4
.Ltmp134:
.LBB12_4:
	.loc	7 685 290                       @ ../Drivers/STM32F4xx_HAL_Driver/Src/stm32f4xx_hal_tim_ex.c:685:290
	b	.LBB12_5
.Ltmp135:
.LBB12_5:
	.loc	7 685 292                       @ ../Drivers/STM32F4xx_HAL_Driver/Src/stm32f4xx_hal_tim_ex.c:685:292
	b	.LBB12_6
.Ltmp136:
.LBB12_6:
	.loc	7 688 3 is_stmt 1               @ ../Drivers/STM32F4xx_HAL_Driver/Src/stm32f4xx_hal_tim_ex.c:688:3
	b	.LBB12_7
.LBB12_7:
.Ltmp137:
	.loc	7 688 14 is_stmt 0              @ ../Drivers/STM32F4xx_HAL_Driver/Src/stm32f4xx_hal_tim_ex.c:688:14
	ldr	r0, [sp, #12]
	.loc	7 688 21                        @ ../Drivers/STM32F4xx_HAL_Driver/Src/stm32f4xx_hal_tim_ex.c:688:21
	ldr	r0, [r0]
	.loc	7 688 31                        @ ../Drivers/STM32F4xx_HAL_Driver/Src/stm32f4xx_hal_tim_ex.c:688:31
	ldr	r0, [r0, #32]
	movw	r1, #4369
.Ltmp138:
	.loc	7 688 12                        @ ../Drivers/STM32F4xx_HAL_Driver/Src/stm32f4xx_hal_tim_ex.c:688:12
	tst	r0, r1
	bne	.LBB12_11
	b	.LBB12_8
.LBB12_8:
.Ltmp139:
	.loc	7 688 139                       @ ../Drivers/STM32F4xx_HAL_Driver/Src/stm32f4xx_hal_tim_ex.c:688:139
	ldr	r0, [sp, #12]
	.loc	7 688 146                       @ ../Drivers/STM32F4xx_HAL_Driver/Src/stm32f4xx_hal_tim_ex.c:688:146
	ldr	r0, [r0]
	.loc	7 688 156                       @ ../Drivers/STM32F4xx_HAL_Driver/Src/stm32f4xx_hal_tim_ex.c:688:156
	ldr	r0, [r0, #32]
	movw	r1, #1092
.Ltmp140:
	.loc	7 688 137                       @ ../Drivers/STM32F4xx_HAL_Driver/Src/stm32f4xx_hal_tim_ex.c:688:137
	tst	r0, r1
	bne	.LBB12_10
	b	.LBB12_9
.LBB12_9:
.Ltmp141:
	.loc	7 688 242                       @ ../Drivers/STM32F4xx_HAL_Driver/Src/stm32f4xx_hal_tim_ex.c:688:242
	ldr	r0, [sp, #12]
	.loc	7 688 249                       @ ../Drivers/STM32F4xx_HAL_Driver/Src/stm32f4xx_hal_tim_ex.c:688:249
	ldr	r1, [r0]
	.loc	7 688 263                       @ ../Drivers/STM32F4xx_HAL_Driver/Src/stm32f4xx_hal_tim_ex.c:688:263
	ldr	r0, [r1]
	bic	r0, r0, #1
	str	r0, [r1]
	.loc	7 688 286                       @ ../Drivers/STM32F4xx_HAL_Driver/Src/stm32f4xx_hal_tim_ex.c:688:286
	b	.LBB12_10
.Ltmp142:
.LBB12_10:
	.loc	7 688 288                       @ ../Drivers/STM32F4xx_HAL_Driver/Src/stm32f4xx_hal_tim_ex.c:688:288
	b	.LBB12_11
.Ltmp143:
.LBB12_11:
	.loc	7 688 290                       @ ../Drivers/STM32F4xx_HAL_Driver/Src/stm32f4xx_hal_tim_ex.c:688:290
	b	.LBB12_12
.Ltmp144:
.LBB12_12:
	.loc	7 691 6 is_stmt 1               @ ../Drivers/STM32F4xx_HAL_Driver/Src/stm32f4xx_hal_tim_ex.c:691:6
	ldr	r0, [sp, #8]
	.loc	7 691 4 is_stmt 0               @ ../Drivers/STM32F4xx_HAL_Driver/Src/stm32f4xx_hal_tim_ex.c:691:4
	cbnz	r0, .LBB12_14
	b	.LBB12_13
.LBB12_13:
	.loc	7 691 35                        @ ../Drivers/STM32F4xx_HAL_Driver/Src/stm32f4xx_hal_tim_ex.c:691:35
	ldr	r1, [sp, #12]
	movs	r0, #1
	.loc	7 691 59                        @ ../Drivers/STM32F4xx_HAL_Driver/Src/stm32f4xx_hal_tim_ex.c:691:59
	strb.w	r0, [r1, #66]
	.loc	7 691 4                         @ ../Drivers/STM32F4xx_HAL_Driver/Src/stm32f4xx_hal_tim_ex.c:691:4
	b	.LBB12_21
.LBB12_14:
	.loc	7 691 96                        @ ../Drivers/STM32F4xx_HAL_Driver/Src/stm32f4xx_hal_tim_ex.c:691:96
	ldr	r0, [sp, #8]
	.loc	7 691 94                        @ ../Drivers/STM32F4xx_HAL_Driver/Src/stm32f4xx_hal_tim_ex.c:691:94
	cmp	r0, #4
	bne	.LBB12_16
	b	.LBB12_15
.LBB12_15:
	.loc	7 691 125                       @ ../Drivers/STM32F4xx_HAL_Driver/Src/stm32f4xx_hal_tim_ex.c:691:125
	ldr	r1, [sp, #12]
	movs	r0, #1
	.loc	7 691 149                       @ ../Drivers/STM32F4xx_HAL_Driver/Src/stm32f4xx_hal_tim_ex.c:691:149
	strb.w	r0, [r1, #67]
	.loc	7 691 94                        @ ../Drivers/STM32F4xx_HAL_Driver/Src/stm32f4xx_hal_tim_ex.c:691:94
	str	r0, [sp, #4]                    @ 4-byte Spill
	b	.LBB12_20
.LBB12_16:
	.loc	7 691 186                       @ ../Drivers/STM32F4xx_HAL_Driver/Src/stm32f4xx_hal_tim_ex.c:691:186
	ldr	r0, [sp, #8]
	.loc	7 691 184                       @ ../Drivers/STM32F4xx_HAL_Driver/Src/stm32f4xx_hal_tim_ex.c:691:184
	cmp	r0, #8
	bne	.LBB12_18
	b	.LBB12_17
.LBB12_17:
	.loc	7 691 215                       @ ../Drivers/STM32F4xx_HAL_Driver/Src/stm32f4xx_hal_tim_ex.c:691:215
	ldr	r1, [sp, #12]
	movs	r0, #1
	.loc	7 691 239                       @ ../Drivers/STM32F4xx_HAL_Driver/Src/stm32f4xx_hal_tim_ex.c:691:239
	strb.w	r0, [r1, #68]
	.loc	7 691 184                       @ ../Drivers/STM32F4xx_HAL_Driver/Src/stm32f4xx_hal_tim_ex.c:691:184
	str	r0, [sp]                        @ 4-byte Spill
	b	.LBB12_19
.LBB12_18:
	.loc	7 691 276                       @ ../Drivers/STM32F4xx_HAL_Driver/Src/stm32f4xx_hal_tim_ex.c:691:276
	ldr	r1, [sp, #12]
	movs	r0, #1
	.loc	7 691 300                       @ ../Drivers/STM32F4xx_HAL_Driver/Src/stm32f4xx_hal_tim_ex.c:691:300
	strb.w	r0, [r1, #69]
	.loc	7 691 184                       @ ../Drivers/STM32F4xx_HAL_Driver/Src/stm32f4xx_hal_tim_ex.c:691:184
	str	r0, [sp]                        @ 4-byte Spill
	b	.LBB12_19
.LBB12_19:
	ldr	r0, [sp]                        @ 4-byte Reload
	.loc	7 691 94                        @ ../Drivers/STM32F4xx_HAL_Driver/Src/stm32f4xx_hal_tim_ex.c:691:94
	str	r0, [sp, #4]                    @ 4-byte Spill
	b	.LBB12_20
.LBB12_20:
	ldr	r0, [sp, #4]                    @ 4-byte Reload
	.loc	7 691 4                         @ ../Drivers/STM32F4xx_HAL_Driver/Src/stm32f4xx_hal_tim_ex.c:691:4
	b	.LBB12_21
.LBB12_21:
	.loc	7 0 4                           @ ../Drivers/STM32F4xx_HAL_Driver/Src/stm32f4xx_hal_tim_ex.c:0:4
	movs	r0, #0
	.loc	7 694 3 is_stmt 1               @ ../Drivers/STM32F4xx_HAL_Driver/Src/stm32f4xx_hal_tim_ex.c:694:3
	add	sp, #16
	pop	{r7, pc}
.Ltmp145:
.Lfunc_end12:
	.size	HAL_TIMEx_OCN_Stop, .Lfunc_end12-HAL_TIMEx_OCN_Stop
	.cfi_endproc
	.cantunwind
	.fnend
                                        @ -- End function
	.section	.text.HAL_TIMEx_OCN_Start_IT,"ax",%progbits
	.hidden	HAL_TIMEx_OCN_Start_IT          @ -- Begin function HAL_TIMEx_OCN_Start_IT
	.globl	HAL_TIMEx_OCN_Start_IT
	.p2align	2
	.type	HAL_TIMEx_OCN_Start_IT,%function
	.code	16                              @ @HAL_TIMEx_OCN_Start_IT
	.thumb_func
HAL_TIMEx_OCN_Start_IT:
.Lfunc_begin13:
	.loc	7 709 0                         @ ../Drivers/STM32F4xx_HAL_Driver/Src/stm32f4xx_hal_tim_ex.c:709:0
	.fnstart
	.cfi_startproc
@ %bb.0:
	.save	{r7, lr}
	push	{r7, lr}
	.cfi_def_cfa_offset 8
	.cfi_offset lr, -4
	.cfi_offset r7, -8
	.pad	#48
	sub	sp, #48
	.cfi_def_cfa_offset 56
	str	r0, [sp, #40]
	str	r1, [sp, #36]
	movs	r0, #0
.Ltmp146:
	.loc	7 710 21 prologue_end           @ ../Drivers/STM32F4xx_HAL_Driver/Src/stm32f4xx_hal_tim_ex.c:710:21
	strb.w	r0, [sp, #35]
.Ltmp147:
	.loc	7 717 10                        @ ../Drivers/STM32F4xx_HAL_Driver/Src/stm32f4xx_hal_tim_ex.c:717:10
	ldr	r0, [sp, #36]
	.loc	7 717 8 is_stmt 0               @ ../Drivers/STM32F4xx_HAL_Driver/Src/stm32f4xx_hal_tim_ex.c:717:8
	cbnz	r0, .LBB13_2
	b	.LBB13_1
.LBB13_1:
	.loc	7 717 38                        @ ../Drivers/STM32F4xx_HAL_Driver/Src/stm32f4xx_hal_tim_ex.c:717:38
	ldr	r0, [sp, #40]
	.loc	7 717 37                        @ ../Drivers/STM32F4xx_HAL_Driver/Src/stm32f4xx_hal_tim_ex.c:717:37
	ldrb.w	r0, [r0, #66]
	.loc	7 717 8                         @ ../Drivers/STM32F4xx_HAL_Driver/Src/stm32f4xx_hal_tim_ex.c:717:8
	str	r0, [sp, #24]                   @ 4-byte Spill
	b	.LBB13_9
.LBB13_2:
	.loc	7 717 66                        @ ../Drivers/STM32F4xx_HAL_Driver/Src/stm32f4xx_hal_tim_ex.c:717:66
	ldr	r0, [sp, #36]
	.loc	7 717 64                        @ ../Drivers/STM32F4xx_HAL_Driver/Src/stm32f4xx_hal_tim_ex.c:717:64
	cmp	r0, #4
	bne	.LBB13_4
	b	.LBB13_3
.LBB13_3:
	.loc	7 717 94                        @ ../Drivers/STM32F4xx_HAL_Driver/Src/stm32f4xx_hal_tim_ex.c:717:94
	ldr	r0, [sp, #40]
	.loc	7 717 93                        @ ../Drivers/STM32F4xx_HAL_Driver/Src/stm32f4xx_hal_tim_ex.c:717:93
	ldrb.w	r0, [r0, #67]
	.loc	7 717 64                        @ ../Drivers/STM32F4xx_HAL_Driver/Src/stm32f4xx_hal_tim_ex.c:717:64
	str	r0, [sp, #20]                   @ 4-byte Spill
	b	.LBB13_8
.LBB13_4:
	.loc	7 717 122                       @ ../Drivers/STM32F4xx_HAL_Driver/Src/stm32f4xx_hal_tim_ex.c:717:122
	ldr	r0, [sp, #36]
	.loc	7 717 120                       @ ../Drivers/STM32F4xx_HAL_Driver/Src/stm32f4xx_hal_tim_ex.c:717:120
	cmp	r0, #8
	bne	.LBB13_6
	b	.LBB13_5
.LBB13_5:
	.loc	7 717 150                       @ ../Drivers/STM32F4xx_HAL_Driver/Src/stm32f4xx_hal_tim_ex.c:717:150
	ldr	r0, [sp, #40]
	.loc	7 717 149                       @ ../Drivers/STM32F4xx_HAL_Driver/Src/stm32f4xx_hal_tim_ex.c:717:149
	ldrb.w	r0, [r0, #68]
	.loc	7 717 120                       @ ../Drivers/STM32F4xx_HAL_Driver/Src/stm32f4xx_hal_tim_ex.c:717:120
	str	r0, [sp, #16]                   @ 4-byte Spill
	b	.LBB13_7
.LBB13_6:
	.loc	7 717 177                       @ ../Drivers/STM32F4xx_HAL_Driver/Src/stm32f4xx_hal_tim_ex.c:717:177
	ldr	r0, [sp, #40]
	.loc	7 717 176                       @ ../Drivers/STM32F4xx_HAL_Driver/Src/stm32f4xx_hal_tim_ex.c:717:176
	ldrb.w	r0, [r0, #69]
	.loc	7 717 120                       @ ../Drivers/STM32F4xx_HAL_Driver/Src/stm32f4xx_hal_tim_ex.c:717:120
	str	r0, [sp, #16]                   @ 4-byte Spill
	b	.LBB13_7
.LBB13_7:
	ldr	r0, [sp, #16]                   @ 4-byte Reload
	.loc	7 717 64                        @ ../Drivers/STM32F4xx_HAL_Driver/Src/stm32f4xx_hal_tim_ex.c:717:64
	str	r0, [sp, #20]                   @ 4-byte Spill
	b	.LBB13_8
.LBB13_8:
	ldr	r0, [sp, #20]                   @ 4-byte Reload
	.loc	7 717 8                         @ ../Drivers/STM32F4xx_HAL_Driver/Src/stm32f4xx_hal_tim_ex.c:717:8
	str	r0, [sp, #24]                   @ 4-byte Spill
	b	.LBB13_9
.LBB13_9:
	ldr	r0, [sp, #24]                   @ 4-byte Reload
.Ltmp148:
	.loc	7 717 7                         @ ../Drivers/STM32F4xx_HAL_Driver/Src/stm32f4xx_hal_tim_ex.c:717:7
	cmp	r0, #1
	beq	.LBB13_11
	b	.LBB13_10
.LBB13_10:
	.loc	7 0 7                           @ ../Drivers/STM32F4xx_HAL_Driver/Src/stm32f4xx_hal_tim_ex.c:0:7
	movs	r0, #1
.Ltmp149:
	.loc	7 719 5 is_stmt 1               @ ../Drivers/STM32F4xx_HAL_Driver/Src/stm32f4xx_hal_tim_ex.c:719:5
	strb.w	r0, [sp, #47]
	b	.LBB13_42
.Ltmp150:
.LBB13_11:
	.loc	7 723 6                         @ ../Drivers/STM32F4xx_HAL_Driver/Src/stm32f4xx_hal_tim_ex.c:723:6
	ldr	r0, [sp, #36]
	.loc	7 723 4 is_stmt 0               @ ../Drivers/STM32F4xx_HAL_Driver/Src/stm32f4xx_hal_tim_ex.c:723:4
	cbnz	r0, .LBB13_13
	b	.LBB13_12
.LBB13_12:
	.loc	7 723 35                        @ ../Drivers/STM32F4xx_HAL_Driver/Src/stm32f4xx_hal_tim_ex.c:723:35
	ldr	r1, [sp, #40]
	movs	r0, #2
	.loc	7 723 59                        @ ../Drivers/STM32F4xx_HAL_Driver/Src/stm32f4xx_hal_tim_ex.c:723:59
	strb.w	r0, [r1, #66]
	.loc	7 723 4                         @ ../Drivers/STM32F4xx_HAL_Driver/Src/stm32f4xx_hal_tim_ex.c:723:4
	b	.LBB13_20
.LBB13_13:
	.loc	7 723 95                        @ ../Drivers/STM32F4xx_HAL_Driver/Src/stm32f4xx_hal_tim_ex.c:723:95
	ldr	r0, [sp, #36]
	.loc	7 723 93                        @ ../Drivers/STM32F4xx_HAL_Driver/Src/stm32f4xx_hal_tim_ex.c:723:93
	cmp	r0, #4
	bne	.LBB13_15
	b	.LBB13_14
.LBB13_14:
	.loc	7 723 124                       @ ../Drivers/STM32F4xx_HAL_Driver/Src/stm32f4xx_hal_tim_ex.c:723:124
	ldr	r1, [sp, #40]
	movs	r0, #2
	.loc	7 723 148                       @ ../Drivers/STM32F4xx_HAL_Driver/Src/stm32f4xx_hal_tim_ex.c:723:148
	strb.w	r0, [r1, #67]
	.loc	7 723 93                        @ ../Drivers/STM32F4xx_HAL_Driver/Src/stm32f4xx_hal_tim_ex.c:723:93
	str	r0, [sp, #12]                   @ 4-byte Spill
	b	.LBB13_19
.LBB13_15:
	.loc	7 723 184                       @ ../Drivers/STM32F4xx_HAL_Driver/Src/stm32f4xx_hal_tim_ex.c:723:184
	ldr	r0, [sp, #36]
	.loc	7 723 182                       @ ../Drivers/STM32F4xx_HAL_Driver/Src/stm32f4xx_hal_tim_ex.c:723:182
	cmp	r0, #8
	bne	.LBB13_17
	b	.LBB13_16
.LBB13_16:
	.loc	7 723 213                       @ ../Drivers/STM32F4xx_HAL_Driver/Src/stm32f4xx_hal_tim_ex.c:723:213
	ldr	r1, [sp, #40]
	movs	r0, #2
	.loc	7 723 237                       @ ../Drivers/STM32F4xx_HAL_Driver/Src/stm32f4xx_hal_tim_ex.c:723:237
	strb.w	r0, [r1, #68]
	.loc	7 723 182                       @ ../Drivers/STM32F4xx_HAL_Driver/Src/stm32f4xx_hal_tim_ex.c:723:182
	str	r0, [sp, #8]                    @ 4-byte Spill
	b	.LBB13_18
.LBB13_17:
	.loc	7 723 273                       @ ../Drivers/STM32F4xx_HAL_Driver/Src/stm32f4xx_hal_tim_ex.c:723:273
	ldr	r1, [sp, #40]
	movs	r0, #2
	.loc	7 723 297                       @ ../Drivers/STM32F4xx_HAL_Driver/Src/stm32f4xx_hal_tim_ex.c:723:297
	strb.w	r0, [r1, #69]
	.loc	7 723 182                       @ ../Drivers/STM32F4xx_HAL_Driver/Src/stm32f4xx_hal_tim_ex.c:723:182
	str	r0, [sp, #8]                    @ 4-byte Spill
	b	.LBB13_18
.LBB13_18:
	ldr	r0, [sp, #8]                    @ 4-byte Reload
	.loc	7 723 93                        @ ../Drivers/STM32F4xx_HAL_Driver/Src/stm32f4xx_hal_tim_ex.c:723:93
	str	r0, [sp, #12]                   @ 4-byte Spill
	b	.LBB13_19
.LBB13_19:
	ldr	r0, [sp, #12]                   @ 4-byte Reload
	.loc	7 723 4                         @ ../Drivers/STM32F4xx_HAL_Driver/Src/stm32f4xx_hal_tim_ex.c:723:4
	b	.LBB13_20
.LBB13_20:
	.loc	7 725 11 is_stmt 1              @ ../Drivers/STM32F4xx_HAL_Driver/Src/stm32f4xx_hal_tim_ex.c:725:11
	ldr	r0, [sp, #36]
	.loc	7 725 3 is_stmt 0               @ ../Drivers/STM32F4xx_HAL_Driver/Src/stm32f4xx_hal_tim_ex.c:725:3
	str	r0, [sp, #4]                    @ 4-byte Spill
	cbz	r0, .LBB13_23
	b	.LBB13_21
.LBB13_21:
	ldr	r0, [sp, #4]                    @ 4-byte Reload
	cmp	r0, #4
	beq	.LBB13_24
	b	.LBB13_22
.LBB13_22:
	ldr	r0, [sp, #4]                    @ 4-byte Reload
	cmp	r0, #8
	beq	.LBB13_25
	b	.LBB13_26
.LBB13_23:
.Ltmp151:
	.loc	7 730 9 is_stmt 1               @ ../Drivers/STM32F4xx_HAL_Driver/Src/stm32f4xx_hal_tim_ex.c:730:9
	ldr	r0, [sp, #40]
	.loc	7 730 16 is_stmt 0              @ ../Drivers/STM32F4xx_HAL_Driver/Src/stm32f4xx_hal_tim_ex.c:730:16
	ldr	r1, [r0]
	.loc	7 730 31                        @ ../Drivers/STM32F4xx_HAL_Driver/Src/stm32f4xx_hal_tim_ex.c:730:31
	ldr	r0, [r1, #12]
	orr	r0, r0, #2
	str	r0, [r1, #12]
	.loc	7 731 7 is_stmt 1               @ ../Drivers/STM32F4xx_HAL_Driver/Src/stm32f4xx_hal_tim_ex.c:731:7
	b	.LBB13_27
.Ltmp152:
.LBB13_24:
	.loc	7 737 9                         @ ../Drivers/STM32F4xx_HAL_Driver/Src/stm32f4xx_hal_tim_ex.c:737:9
	ldr	r0, [sp, #40]
	.loc	7 737 16 is_stmt 0              @ ../Drivers/STM32F4xx_HAL_Driver/Src/stm32f4xx_hal_tim_ex.c:737:16
	ldr	r1, [r0]
	.loc	7 737 31                        @ ../Drivers/STM32F4xx_HAL_Driver/Src/stm32f4xx_hal_tim_ex.c:737:31
	ldr	r0, [r1, #12]
	orr	r0, r0, #4
	str	r0, [r1, #12]
	.loc	7 738 7 is_stmt 1               @ ../Drivers/STM32F4xx_HAL_Driver/Src/stm32f4xx_hal_tim_ex.c:738:7
	b	.LBB13_27
.Ltmp153:
.LBB13_25:
	.loc	7 744 9                         @ ../Drivers/STM32F4xx_HAL_Driver/Src/stm32f4xx_hal_tim_ex.c:744:9
	ldr	r0, [sp, #40]
	.loc	7 744 16 is_stmt 0              @ ../Drivers/STM32F4xx_HAL_Driver/Src/stm32f4xx_hal_tim_ex.c:744:16
	ldr	r1, [r0]
	.loc	7 744 31                        @ ../Drivers/STM32F4xx_HAL_Driver/Src/stm32f4xx_hal_tim_ex.c:744:31
	ldr	r0, [r1, #12]
	orr	r0, r0, #8
	str	r0, [r1, #12]
	.loc	7 745 7 is_stmt 1               @ ../Drivers/STM32F4xx_HAL_Driver/Src/stm32f4xx_hal_tim_ex.c:745:7
	b	.LBB13_27
.Ltmp154:
.LBB13_26:
	.loc	7 0 7 is_stmt 0                 @ ../Drivers/STM32F4xx_HAL_Driver/Src/stm32f4xx_hal_tim_ex.c:0:7
	movs	r0, #1
	.loc	7 750 14 is_stmt 1              @ ../Drivers/STM32F4xx_HAL_Driver/Src/stm32f4xx_hal_tim_ex.c:750:14
	strb.w	r0, [sp, #35]
	.loc	7 751 7                         @ ../Drivers/STM32F4xx_HAL_Driver/Src/stm32f4xx_hal_tim_ex.c:751:7
	b	.LBB13_27
.Ltmp155:
.LBB13_27:
	.loc	7 754 7                         @ ../Drivers/STM32F4xx_HAL_Driver/Src/stm32f4xx_hal_tim_ex.c:754:7
	ldrb.w	r0, [sp, #35]
.Ltmp156:
	.loc	7 754 7 is_stmt 0               @ ../Drivers/STM32F4xx_HAL_Driver/Src/stm32f4xx_hal_tim_ex.c:754:7
	cmp	r0, #0
	bne	.LBB13_41
	b	.LBB13_28
.LBB13_28:
.Ltmp157:
	.loc	7 757 7 is_stmt 1               @ ../Drivers/STM32F4xx_HAL_Driver/Src/stm32f4xx_hal_tim_ex.c:757:7
	ldr	r0, [sp, #40]
	.loc	7 757 14 is_stmt 0              @ ../Drivers/STM32F4xx_HAL_Driver/Src/stm32f4xx_hal_tim_ex.c:757:14
	ldr	r1, [r0]
	.loc	7 757 29                        @ ../Drivers/STM32F4xx_HAL_Driver/Src/stm32f4xx_hal_tim_ex.c:757:29
	ldr	r0, [r1, #12]
	orr	r0, r0, #128
	str	r0, [r1, #12]
	.loc	7 760 24 is_stmt 1              @ ../Drivers/STM32F4xx_HAL_Driver/Src/stm32f4xx_hal_tim_ex.c:760:24
	ldr	r0, [sp, #40]
	.loc	7 760 30 is_stmt 0              @ ../Drivers/STM32F4xx_HAL_Driver/Src/stm32f4xx_hal_tim_ex.c:760:30
	ldr	r0, [r0]
	.loc	7 760 40                        @ ../Drivers/STM32F4xx_HAL_Driver/Src/stm32f4xx_hal_tim_ex.c:760:40
	ldr	r1, [sp, #36]
	movs	r2, #4
	.loc	7 760 5                         @ ../Drivers/STM32F4xx_HAL_Driver/Src/stm32f4xx_hal_tim_ex.c:760:5
	bl	TIM_CCxNChannelCmd
	.loc	7 763 7 is_stmt 1               @ ../Drivers/STM32F4xx_HAL_Driver/Src/stm32f4xx_hal_tim_ex.c:763:7
	ldr	r0, [sp, #40]
	.loc	7 763 14 is_stmt 0              @ ../Drivers/STM32F4xx_HAL_Driver/Src/stm32f4xx_hal_tim_ex.c:763:14
	ldr	r1, [r0]
	.loc	7 763 28                        @ ../Drivers/STM32F4xx_HAL_Driver/Src/stm32f4xx_hal_tim_ex.c:763:28
	ldr	r0, [r1, #68]
	orr	r0, r0, #32768
	str	r0, [r1, #68]
.Ltmp158:
	.loc	7 766 12 is_stmt 1              @ ../Drivers/STM32F4xx_HAL_Driver/Src/stm32f4xx_hal_tim_ex.c:766:12
	ldr	r0, [sp, #40]
	.loc	7 766 18 is_stmt 0              @ ../Drivers/STM32F4xx_HAL_Driver/Src/stm32f4xx_hal_tim_ex.c:766:18
	ldr	r0, [r0]
	movs	r1, #0
	movt	r1, #16385
	.loc	7 766 93                        @ ../Drivers/STM32F4xx_HAL_Driver/Src/stm32f4xx_hal_tim_ex.c:766:93
	cmp	r0, r1
	beq	.LBB13_36
	b	.LBB13_29
.LBB13_29:
	.loc	7 766 98                        @ ../Drivers/STM32F4xx_HAL_Driver/Src/stm32f4xx_hal_tim_ex.c:766:98
	ldr	r0, [sp, #40]
	.loc	7 766 104                       @ ../Drivers/STM32F4xx_HAL_Driver/Src/stm32f4xx_hal_tim_ex.c:766:104
	ldr	r0, [r0]
	.loc	7 766 162                       @ ../Drivers/STM32F4xx_HAL_Driver/Src/stm32f4xx_hal_tim_ex.c:766:162
	cmp.w	r0, #1073741824
	beq	.LBB13_36
	b	.LBB13_30
.LBB13_30:
	.loc	7 766 167                       @ ../Drivers/STM32F4xx_HAL_Driver/Src/stm32f4xx_hal_tim_ex.c:766:167
	ldr	r0, [sp, #40]
	.loc	7 766 173                       @ ../Drivers/STM32F4xx_HAL_Driver/Src/stm32f4xx_hal_tim_ex.c:766:173
	ldr	r0, [r0]
	movw	r1, #1024
	movt	r1, #16384
	.loc	7 766 231                       @ ../Drivers/STM32F4xx_HAL_Driver/Src/stm32f4xx_hal_tim_ex.c:766:231
	cmp	r0, r1
	beq	.LBB13_36
	b	.LBB13_31
.LBB13_31:
	.loc	7 766 236                       @ ../Drivers/STM32F4xx_HAL_Driver/Src/stm32f4xx_hal_tim_ex.c:766:236
	ldr	r0, [sp, #40]
	.loc	7 766 242                       @ ../Drivers/STM32F4xx_HAL_Driver/Src/stm32f4xx_hal_tim_ex.c:766:242
	ldr	r0, [r0]
	movw	r1, #2048
	movt	r1, #16384
	.loc	7 766 300                       @ ../Drivers/STM32F4xx_HAL_Driver/Src/stm32f4xx_hal_tim_ex.c:766:300
	cmp	r0, r1
	beq	.LBB13_36
	b	.LBB13_32
.LBB13_32:
	.loc	7 766 305                       @ ../Drivers/STM32F4xx_HAL_Driver/Src/stm32f4xx_hal_tim_ex.c:766:305
	ldr	r0, [sp, #40]
	.loc	7 766 311                       @ ../Drivers/STM32F4xx_HAL_Driver/Src/stm32f4xx_hal_tim_ex.c:766:311
	ldr	r0, [r0]
	movw	r1, #3072
	movt	r1, #16384
	.loc	7 766 369                       @ ../Drivers/STM32F4xx_HAL_Driver/Src/stm32f4xx_hal_tim_ex.c:766:369
	cmp	r0, r1
	beq	.LBB13_36
	b	.LBB13_33
.LBB13_33:
	.loc	7 766 374                       @ ../Drivers/STM32F4xx_HAL_Driver/Src/stm32f4xx_hal_tim_ex.c:766:374
	ldr	r0, [sp, #40]
	.loc	7 766 380                       @ ../Drivers/STM32F4xx_HAL_Driver/Src/stm32f4xx_hal_tim_ex.c:766:380
	ldr	r0, [r0]
	movw	r1, #1024
	movt	r1, #16385
	.loc	7 766 455                       @ ../Drivers/STM32F4xx_HAL_Driver/Src/stm32f4xx_hal_tim_ex.c:766:455
	cmp	r0, r1
	beq	.LBB13_36
	b	.LBB13_34
.LBB13_34:
	.loc	7 766 460                       @ ../Drivers/STM32F4xx_HAL_Driver/Src/stm32f4xx_hal_tim_ex.c:766:460
	ldr	r0, [sp, #40]
	.loc	7 766 466                       @ ../Drivers/STM32F4xx_HAL_Driver/Src/stm32f4xx_hal_tim_ex.c:766:466
	ldr	r0, [r0]
	movw	r1, #16384
	movt	r1, #16385
	.loc	7 766 541                       @ ../Drivers/STM32F4xx_HAL_Driver/Src/stm32f4xx_hal_tim_ex.c:766:541
	cmp	r0, r1
	beq	.LBB13_36
	b	.LBB13_35
.LBB13_35:
	.loc	7 766 546                       @ ../Drivers/STM32F4xx_HAL_Driver/Src/stm32f4xx_hal_tim_ex.c:766:546
	ldr	r0, [sp, #40]
	.loc	7 766 552                       @ ../Drivers/STM32F4xx_HAL_Driver/Src/stm32f4xx_hal_tim_ex.c:766:552
	ldr	r0, [r0]
	movw	r1, #6144
	movt	r1, #16384
.Ltmp159:
	.loc	7 766 9                         @ ../Drivers/STM32F4xx_HAL_Driver/Src/stm32f4xx_hal_tim_ex.c:766:9
	cmp	r0, r1
	bne	.LBB13_39
	b	.LBB13_36
.LBB13_36:
.Ltmp160:
	.loc	7 768 17 is_stmt 1              @ ../Drivers/STM32F4xx_HAL_Driver/Src/stm32f4xx_hal_tim_ex.c:768:17
	ldr	r0, [sp, #40]
	.loc	7 768 23 is_stmt 0              @ ../Drivers/STM32F4xx_HAL_Driver/Src/stm32f4xx_hal_tim_ex.c:768:23
	ldr	r0, [r0]
	.loc	7 768 33                        @ ../Drivers/STM32F4xx_HAL_Driver/Src/stm32f4xx_hal_tim_ex.c:768:33
	ldr	r0, [r0, #8]
	.loc	7 768 38                        @ ../Drivers/STM32F4xx_HAL_Driver/Src/stm32f4xx_hal_tim_ex.c:768:38
	and	r0, r0, #7
	.loc	7 768 15                        @ ../Drivers/STM32F4xx_HAL_Driver/Src/stm32f4xx_hal_tim_ex.c:768:15
	str	r0, [sp, #28]
.Ltmp161:
	.loc	7 769 14 is_stmt 1              @ ../Drivers/STM32F4xx_HAL_Driver/Src/stm32f4xx_hal_tim_ex.c:769:14
	ldr	r0, [sp, #28]
.Ltmp162:
	.loc	7 769 11 is_stmt 0              @ ../Drivers/STM32F4xx_HAL_Driver/Src/stm32f4xx_hal_tim_ex.c:769:11
	cmp	r0, #6
	beq	.LBB13_38
	b	.LBB13_37
.LBB13_37:
.Ltmp163:
	.loc	7 771 11 is_stmt 1              @ ../Drivers/STM32F4xx_HAL_Driver/Src/stm32f4xx_hal_tim_ex.c:771:11
	ldr	r0, [sp, #40]
	.loc	7 771 18 is_stmt 0              @ ../Drivers/STM32F4xx_HAL_Driver/Src/stm32f4xx_hal_tim_ex.c:771:18
	ldr	r1, [r0]
	.loc	7 771 31                        @ ../Drivers/STM32F4xx_HAL_Driver/Src/stm32f4xx_hal_tim_ex.c:771:31
	ldr	r0, [r1]
	orr	r0, r0, #1
	str	r0, [r1]
	.loc	7 772 7 is_stmt 1               @ ../Drivers/STM32F4xx_HAL_Driver/Src/stm32f4xx_hal_tim_ex.c:772:7
	b	.LBB13_38
.Ltmp164:
.LBB13_38:
	.loc	7 773 5                         @ ../Drivers/STM32F4xx_HAL_Driver/Src/stm32f4xx_hal_tim_ex.c:773:5
	b	.LBB13_40
.Ltmp165:
.LBB13_39:
	.loc	7 776 9                         @ ../Drivers/STM32F4xx_HAL_Driver/Src/stm32f4xx_hal_tim_ex.c:776:9
	ldr	r0, [sp, #40]
	.loc	7 776 16 is_stmt 0              @ ../Drivers/STM32F4xx_HAL_Driver/Src/stm32f4xx_hal_tim_ex.c:776:16
	ldr	r1, [r0]
	.loc	7 776 29                        @ ../Drivers/STM32F4xx_HAL_Driver/Src/stm32f4xx_hal_tim_ex.c:776:29
	ldr	r0, [r1]
	orr	r0, r0, #1
	str	r0, [r1]
	b	.LBB13_40
.Ltmp166:
.LBB13_40:
	.loc	7 778 3 is_stmt 1               @ ../Drivers/STM32F4xx_HAL_Driver/Src/stm32f4xx_hal_tim_ex.c:778:3
	b	.LBB13_41
.Ltmp167:
.LBB13_41:
	.loc	7 781 10                        @ ../Drivers/STM32F4xx_HAL_Driver/Src/stm32f4xx_hal_tim_ex.c:781:10
	ldrb.w	r0, [sp, #35]
	.loc	7 781 3 is_stmt 0               @ ../Drivers/STM32F4xx_HAL_Driver/Src/stm32f4xx_hal_tim_ex.c:781:3
	strb.w	r0, [sp, #47]
	b	.LBB13_42
.LBB13_42:
	.loc	7 782 1 is_stmt 1               @ ../Drivers/STM32F4xx_HAL_Driver/Src/stm32f4xx_hal_tim_ex.c:782:1
	ldrb.w	r0, [sp, #47]
	add	sp, #48
	pop	{r7, pc}
.Ltmp168:
.Lfunc_end13:
	.size	HAL_TIMEx_OCN_Start_IT, .Lfunc_end13-HAL_TIMEx_OCN_Start_IT
	.cfi_endproc
	.cantunwind
	.fnend
                                        @ -- End function
	.section	.text.HAL_TIMEx_OCN_Stop_IT,"ax",%progbits
	.hidden	HAL_TIMEx_OCN_Stop_IT           @ -- Begin function HAL_TIMEx_OCN_Stop_IT
	.globl	HAL_TIMEx_OCN_Stop_IT
	.p2align	2
	.type	HAL_TIMEx_OCN_Stop_IT,%function
	.code	16                              @ @HAL_TIMEx_OCN_Stop_IT
	.thumb_func
HAL_TIMEx_OCN_Stop_IT:
.Lfunc_begin14:
	.loc	7 796 0                         @ ../Drivers/STM32F4xx_HAL_Driver/Src/stm32f4xx_hal_tim_ex.c:796:0
	.fnstart
	.cfi_startproc
@ %bb.0:
	.save	{r7, lr}
	push	{r7, lr}
	.cfi_def_cfa_offset 8
	.cfi_offset lr, -4
	.cfi_offset r7, -8
	.pad	#32
	sub	sp, #32
	.cfi_def_cfa_offset 40
	str	r0, [sp, #28]
	str	r1, [sp, #24]
	movs	r0, #0
.Ltmp169:
	.loc	7 797 21 prologue_end           @ ../Drivers/STM32F4xx_HAL_Driver/Src/stm32f4xx_hal_tim_ex.c:797:21
	strb.w	r0, [sp, #23]
	.loc	7 803 11                        @ ../Drivers/STM32F4xx_HAL_Driver/Src/stm32f4xx_hal_tim_ex.c:803:11
	ldr	r0, [sp, #24]
	.loc	7 803 3 is_stmt 0               @ ../Drivers/STM32F4xx_HAL_Driver/Src/stm32f4xx_hal_tim_ex.c:803:3
	str	r0, [sp, #12]                   @ 4-byte Spill
	cbz	r0, .LBB14_3
	b	.LBB14_1
.LBB14_1:
	ldr	r0, [sp, #12]                   @ 4-byte Reload
	cmp	r0, #4
	beq	.LBB14_4
	b	.LBB14_2
.LBB14_2:
	ldr	r0, [sp, #12]                   @ 4-byte Reload
	cmp	r0, #8
	beq	.LBB14_5
	b	.LBB14_6
.LBB14_3:
.Ltmp170:
	.loc	7 808 9 is_stmt 1               @ ../Drivers/STM32F4xx_HAL_Driver/Src/stm32f4xx_hal_tim_ex.c:808:9
	ldr	r0, [sp, #28]
	.loc	7 808 16 is_stmt 0              @ ../Drivers/STM32F4xx_HAL_Driver/Src/stm32f4xx_hal_tim_ex.c:808:16
	ldr	r1, [r0]
	.loc	7 808 31                        @ ../Drivers/STM32F4xx_HAL_Driver/Src/stm32f4xx_hal_tim_ex.c:808:31
	ldr	r0, [r1, #12]
	bic	r0, r0, #2
	str	r0, [r1, #12]
	.loc	7 809 7 is_stmt 1               @ ../Drivers/STM32F4xx_HAL_Driver/Src/stm32f4xx_hal_tim_ex.c:809:7
	b	.LBB14_7
.Ltmp171:
.LBB14_4:
	.loc	7 815 9                         @ ../Drivers/STM32F4xx_HAL_Driver/Src/stm32f4xx_hal_tim_ex.c:815:9
	ldr	r0, [sp, #28]
	.loc	7 815 16 is_stmt 0              @ ../Drivers/STM32F4xx_HAL_Driver/Src/stm32f4xx_hal_tim_ex.c:815:16
	ldr	r1, [r0]
	.loc	7 815 31                        @ ../Drivers/STM32F4xx_HAL_Driver/Src/stm32f4xx_hal_tim_ex.c:815:31
	ldr	r0, [r1, #12]
	bic	r0, r0, #4
	str	r0, [r1, #12]
	.loc	7 816 7 is_stmt 1               @ ../Drivers/STM32F4xx_HAL_Driver/Src/stm32f4xx_hal_tim_ex.c:816:7
	b	.LBB14_7
.Ltmp172:
.LBB14_5:
	.loc	7 822 9                         @ ../Drivers/STM32F4xx_HAL_Driver/Src/stm32f4xx_hal_tim_ex.c:822:9
	ldr	r0, [sp, #28]
	.loc	7 822 16 is_stmt 0              @ ../Drivers/STM32F4xx_HAL_Driver/Src/stm32f4xx_hal_tim_ex.c:822:16
	ldr	r1, [r0]
	.loc	7 822 31                        @ ../Drivers/STM32F4xx_HAL_Driver/Src/stm32f4xx_hal_tim_ex.c:822:31
	ldr	r0, [r1, #12]
	bic	r0, r0, #8
	str	r0, [r1, #12]
	.loc	7 823 7 is_stmt 1               @ ../Drivers/STM32F4xx_HAL_Driver/Src/stm32f4xx_hal_tim_ex.c:823:7
	b	.LBB14_7
.Ltmp173:
.LBB14_6:
	.loc	7 0 7 is_stmt 0                 @ ../Drivers/STM32F4xx_HAL_Driver/Src/stm32f4xx_hal_tim_ex.c:0:7
	movs	r0, #1
	.loc	7 827 14 is_stmt 1              @ ../Drivers/STM32F4xx_HAL_Driver/Src/stm32f4xx_hal_tim_ex.c:827:14
	strb.w	r0, [sp, #23]
	.loc	7 828 7                         @ ../Drivers/STM32F4xx_HAL_Driver/Src/stm32f4xx_hal_tim_ex.c:828:7
	b	.LBB14_7
.Ltmp174:
.LBB14_7:
	.loc	7 831 7                         @ ../Drivers/STM32F4xx_HAL_Driver/Src/stm32f4xx_hal_tim_ex.c:831:7
	ldrb.w	r0, [sp, #23]
.Ltmp175:
	.loc	7 831 7 is_stmt 0               @ ../Drivers/STM32F4xx_HAL_Driver/Src/stm32f4xx_hal_tim_ex.c:831:7
	cmp	r0, #0
	bne	.LBB14_32
	b	.LBB14_8
.LBB14_8:
.Ltmp176:
	.loc	7 834 24 is_stmt 1              @ ../Drivers/STM32F4xx_HAL_Driver/Src/stm32f4xx_hal_tim_ex.c:834:24
	ldr	r0, [sp, #28]
	.loc	7 834 30 is_stmt 0              @ ../Drivers/STM32F4xx_HAL_Driver/Src/stm32f4xx_hal_tim_ex.c:834:30
	ldr	r0, [r0]
	.loc	7 834 40                        @ ../Drivers/STM32F4xx_HAL_Driver/Src/stm32f4xx_hal_tim_ex.c:834:40
	ldr	r1, [sp, #24]
	movs	r2, #0
	.loc	7 834 5                         @ ../Drivers/STM32F4xx_HAL_Driver/Src/stm32f4xx_hal_tim_ex.c:834:5
	bl	TIM_CCxNChannelCmd
	.loc	7 837 15 is_stmt 1              @ ../Drivers/STM32F4xx_HAL_Driver/Src/stm32f4xx_hal_tim_ex.c:837:15
	ldr	r0, [sp, #28]
	.loc	7 837 21 is_stmt 0              @ ../Drivers/STM32F4xx_HAL_Driver/Src/stm32f4xx_hal_tim_ex.c:837:21
	ldr	r0, [r0]
	.loc	7 837 31                        @ ../Drivers/STM32F4xx_HAL_Driver/Src/stm32f4xx_hal_tim_ex.c:837:31
	ldr	r0, [r0, #32]
	.loc	7 837 13                        @ ../Drivers/STM32F4xx_HAL_Driver/Src/stm32f4xx_hal_tim_ex.c:837:13
	str	r0, [sp, #16]
	.loc	7 838 9 is_stmt 1               @ ../Drivers/STM32F4xx_HAL_Driver/Src/stm32f4xx_hal_tim_ex.c:838:9
	ldrh.w	r0, [sp, #16]
	movw	r1, #1092
	tst	r0, r1
	bne	.LBB14_10
	b	.LBB14_9
.LBB14_9:
.Ltmp177:
	.loc	7 840 9                         @ ../Drivers/STM32F4xx_HAL_Driver/Src/stm32f4xx_hal_tim_ex.c:840:9
	ldr	r0, [sp, #28]
	.loc	7 840 16 is_stmt 0              @ ../Drivers/STM32F4xx_HAL_Driver/Src/stm32f4xx_hal_tim_ex.c:840:16
	ldr	r1, [r0]
	.loc	7 840 31                        @ ../Drivers/STM32F4xx_HAL_Driver/Src/stm32f4xx_hal_tim_ex.c:840:31
	ldr	r0, [r1, #12]
	bic	r0, r0, #128
	str	r0, [r1, #12]
	.loc	7 841 5 is_stmt 1               @ ../Drivers/STM32F4xx_HAL_Driver/Src/stm32f4xx_hal_tim_ex.c:841:5
	b	.LBB14_10
.Ltmp178:
.LBB14_10:
	.loc	7 844 5                         @ ../Drivers/STM32F4xx_HAL_Driver/Src/stm32f4xx_hal_tim_ex.c:844:5
	b	.LBB14_11
.LBB14_11:
.Ltmp179:
	.loc	7 844 16 is_stmt 0              @ ../Drivers/STM32F4xx_HAL_Driver/Src/stm32f4xx_hal_tim_ex.c:844:16
	ldr	r0, [sp, #28]
	.loc	7 844 23                        @ ../Drivers/STM32F4xx_HAL_Driver/Src/stm32f4xx_hal_tim_ex.c:844:23
	ldr	r0, [r0]
	.loc	7 844 33                        @ ../Drivers/STM32F4xx_HAL_Driver/Src/stm32f4xx_hal_tim_ex.c:844:33
	ldr	r0, [r0, #32]
	movw	r1, #4369
.Ltmp180:
	.loc	7 844 14                        @ ../Drivers/STM32F4xx_HAL_Driver/Src/stm32f4xx_hal_tim_ex.c:844:14
	tst	r0, r1
	bne	.LBB14_15
	b	.LBB14_12
.LBB14_12:
.Ltmp181:
	.loc	7 844 141                       @ ../Drivers/STM32F4xx_HAL_Driver/Src/stm32f4xx_hal_tim_ex.c:844:141
	ldr	r0, [sp, #28]
	.loc	7 844 148                       @ ../Drivers/STM32F4xx_HAL_Driver/Src/stm32f4xx_hal_tim_ex.c:844:148
	ldr	r0, [r0]
	.loc	7 844 158                       @ ../Drivers/STM32F4xx_HAL_Driver/Src/stm32f4xx_hal_tim_ex.c:844:158
	ldr	r0, [r0, #32]
	movw	r1, #1092
.Ltmp182:
	.loc	7 844 139                       @ ../Drivers/STM32F4xx_HAL_Driver/Src/stm32f4xx_hal_tim_ex.c:844:139
	tst	r0, r1
	bne	.LBB14_14
	b	.LBB14_13
.LBB14_13:
.Ltmp183:
	.loc	7 844 244                       @ ../Drivers/STM32F4xx_HAL_Driver/Src/stm32f4xx_hal_tim_ex.c:844:244
	ldr	r0, [sp, #28]
	.loc	7 844 251                       @ ../Drivers/STM32F4xx_HAL_Driver/Src/stm32f4xx_hal_tim_ex.c:844:251
	ldr	r1, [r0]
	.loc	7 844 266                       @ ../Drivers/STM32F4xx_HAL_Driver/Src/stm32f4xx_hal_tim_ex.c:844:266
	ldr	r0, [r1, #68]
	bic	r0, r0, #32768
	str	r0, [r1, #68]
	.loc	7 844 290                       @ ../Drivers/STM32F4xx_HAL_Driver/Src/stm32f4xx_hal_tim_ex.c:844:290
	b	.LBB14_14
.Ltmp184:
.LBB14_14:
	.loc	7 844 292                       @ ../Drivers/STM32F4xx_HAL_Driver/Src/stm32f4xx_hal_tim_ex.c:844:292
	b	.LBB14_15
.Ltmp185:
.LBB14_15:
	.loc	7 844 294                       @ ../Drivers/STM32F4xx_HAL_Driver/Src/stm32f4xx_hal_tim_ex.c:844:294
	b	.LBB14_16
.Ltmp186:
.LBB14_16:
	.loc	7 847 5 is_stmt 1               @ ../Drivers/STM32F4xx_HAL_Driver/Src/stm32f4xx_hal_tim_ex.c:847:5
	b	.LBB14_17
.LBB14_17:
.Ltmp187:
	.loc	7 847 16 is_stmt 0              @ ../Drivers/STM32F4xx_HAL_Driver/Src/stm32f4xx_hal_tim_ex.c:847:16
	ldr	r0, [sp, #28]
	.loc	7 847 23                        @ ../Drivers/STM32F4xx_HAL_Driver/Src/stm32f4xx_hal_tim_ex.c:847:23
	ldr	r0, [r0]
	.loc	7 847 33                        @ ../Drivers/STM32F4xx_HAL_Driver/Src/stm32f4xx_hal_tim_ex.c:847:33
	ldr	r0, [r0, #32]
	movw	r1, #4369
.Ltmp188:
	.loc	7 847 14                        @ ../Drivers/STM32F4xx_HAL_Driver/Src/stm32f4xx_hal_tim_ex.c:847:14
	tst	r0, r1
	bne	.LBB14_21
	b	.LBB14_18
.LBB14_18:
.Ltmp189:
	.loc	7 847 141                       @ ../Drivers/STM32F4xx_HAL_Driver/Src/stm32f4xx_hal_tim_ex.c:847:141
	ldr	r0, [sp, #28]
	.loc	7 847 148                       @ ../Drivers/STM32F4xx_HAL_Driver/Src/stm32f4xx_hal_tim_ex.c:847:148
	ldr	r0, [r0]
	.loc	7 847 158                       @ ../Drivers/STM32F4xx_HAL_Driver/Src/stm32f4xx_hal_tim_ex.c:847:158
	ldr	r0, [r0, #32]
	movw	r1, #1092
.Ltmp190:
	.loc	7 847 139                       @ ../Drivers/STM32F4xx_HAL_Driver/Src/stm32f4xx_hal_tim_ex.c:847:139
	tst	r0, r1
	bne	.LBB14_20
	b	.LBB14_19
.LBB14_19:
.Ltmp191:
	.loc	7 847 244                       @ ../Drivers/STM32F4xx_HAL_Driver/Src/stm32f4xx_hal_tim_ex.c:847:244
	ldr	r0, [sp, #28]
	.loc	7 847 251                       @ ../Drivers/STM32F4xx_HAL_Driver/Src/stm32f4xx_hal_tim_ex.c:847:251
	ldr	r1, [r0]
	.loc	7 847 265                       @ ../Drivers/STM32F4xx_HAL_Driver/Src/stm32f4xx_hal_tim_ex.c:847:265
	ldr	r0, [r1]
	bic	r0, r0, #1
	str	r0, [r1]
	.loc	7 847 288                       @ ../Drivers/STM32F4xx_HAL_Driver/Src/stm32f4xx_hal_tim_ex.c:847:288
	b	.LBB14_20
.Ltmp192:
.LBB14_20:
	.loc	7 847 290                       @ ../Drivers/STM32F4xx_HAL_Driver/Src/stm32f4xx_hal_tim_ex.c:847:290
	b	.LBB14_21
.Ltmp193:
.LBB14_21:
	.loc	7 847 292                       @ ../Drivers/STM32F4xx_HAL_Driver/Src/stm32f4xx_hal_tim_ex.c:847:292
	b	.LBB14_22
.Ltmp194:
.LBB14_22:
	.loc	7 850 8 is_stmt 1               @ ../Drivers/STM32F4xx_HAL_Driver/Src/stm32f4xx_hal_tim_ex.c:850:8
	ldr	r0, [sp, #24]
	.loc	7 850 6 is_stmt 0               @ ../Drivers/STM32F4xx_HAL_Driver/Src/stm32f4xx_hal_tim_ex.c:850:6
	cbnz	r0, .LBB14_24
	b	.LBB14_23
.LBB14_23:
	.loc	7 850 37                        @ ../Drivers/STM32F4xx_HAL_Driver/Src/stm32f4xx_hal_tim_ex.c:850:37
	ldr	r1, [sp, #28]
	movs	r0, #1
	.loc	7 850 61                        @ ../Drivers/STM32F4xx_HAL_Driver/Src/stm32f4xx_hal_tim_ex.c:850:61
	strb.w	r0, [r1, #66]
	.loc	7 850 6                         @ ../Drivers/STM32F4xx_HAL_Driver/Src/stm32f4xx_hal_tim_ex.c:850:6
	b	.LBB14_31
.LBB14_24:
	.loc	7 850 98                        @ ../Drivers/STM32F4xx_HAL_Driver/Src/stm32f4xx_hal_tim_ex.c:850:98
	ldr	r0, [sp, #24]
	.loc	7 850 96                        @ ../Drivers/STM32F4xx_HAL_Driver/Src/stm32f4xx_hal_tim_ex.c:850:96
	cmp	r0, #4
	bne	.LBB14_26
	b	.LBB14_25
.LBB14_25:
	.loc	7 850 127                       @ ../Drivers/STM32F4xx_HAL_Driver/Src/stm32f4xx_hal_tim_ex.c:850:127
	ldr	r1, [sp, #28]
	movs	r0, #1
	.loc	7 850 151                       @ ../Drivers/STM32F4xx_HAL_Driver/Src/stm32f4xx_hal_tim_ex.c:850:151
	strb.w	r0, [r1, #67]
	.loc	7 850 96                        @ ../Drivers/STM32F4xx_HAL_Driver/Src/stm32f4xx_hal_tim_ex.c:850:96
	str	r0, [sp, #8]                    @ 4-byte Spill
	b	.LBB14_30
.LBB14_26:
	.loc	7 850 188                       @ ../Drivers/STM32F4xx_HAL_Driver/Src/stm32f4xx_hal_tim_ex.c:850:188
	ldr	r0, [sp, #24]
	.loc	7 850 186                       @ ../Drivers/STM32F4xx_HAL_Driver/Src/stm32f4xx_hal_tim_ex.c:850:186
	cmp	r0, #8
	bne	.LBB14_28
	b	.LBB14_27
.LBB14_27:
	.loc	7 850 217                       @ ../Drivers/STM32F4xx_HAL_Driver/Src/stm32f4xx_hal_tim_ex.c:850:217
	ldr	r1, [sp, #28]
	movs	r0, #1
	.loc	7 850 241                       @ ../Drivers/STM32F4xx_HAL_Driver/Src/stm32f4xx_hal_tim_ex.c:850:241
	strb.w	r0, [r1, #68]
	.loc	7 850 186                       @ ../Drivers/STM32F4xx_HAL_Driver/Src/stm32f4xx_hal_tim_ex.c:850:186
	str	r0, [sp, #4]                    @ 4-byte Spill
	b	.LBB14_29
.LBB14_28:
	.loc	7 850 278                       @ ../Drivers/STM32F4xx_HAL_Driver/Src/stm32f4xx_hal_tim_ex.c:850:278
	ldr	r1, [sp, #28]
	movs	r0, #1
	.loc	7 850 302                       @ ../Drivers/STM32F4xx_HAL_Driver/Src/stm32f4xx_hal_tim_ex.c:850:302
	strb.w	r0, [r1, #69]
	.loc	7 850 186                       @ ../Drivers/STM32F4xx_HAL_Driver/Src/stm32f4xx_hal_tim_ex.c:850:186
	str	r0, [sp, #4]                    @ 4-byte Spill
	b	.LBB14_29
.LBB14_29:
	ldr	r0, [sp, #4]                    @ 4-byte Reload
	.loc	7 850 96                        @ ../Drivers/STM32F4xx_HAL_Driver/Src/stm32f4xx_hal_tim_ex.c:850:96
	str	r0, [sp, #8]                    @ 4-byte Spill
	b	.LBB14_30
.LBB14_30:
	ldr	r0, [sp, #8]                    @ 4-byte Reload
	.loc	7 850 6                         @ ../Drivers/STM32F4xx_HAL_Driver/Src/stm32f4xx_hal_tim_ex.c:850:6
	b	.LBB14_31
.LBB14_31:
	.loc	7 851 3 is_stmt 1               @ ../Drivers/STM32F4xx_HAL_Driver/Src/stm32f4xx_hal_tim_ex.c:851:3
	b	.LBB14_32
.Ltmp195:
.LBB14_32:
	.loc	7 854 10                        @ ../Drivers/STM32F4xx_HAL_Driver/Src/stm32f4xx_hal_tim_ex.c:854:10
	ldrb.w	r0, [sp, #23]
	.loc	7 854 3 is_stmt 0               @ ../Drivers/STM32F4xx_HAL_Driver/Src/stm32f4xx_hal_tim_ex.c:854:3
	add	sp, #32
	pop	{r7, pc}
.Ltmp196:
.Lfunc_end14:
	.size	HAL_TIMEx_OCN_Stop_IT, .Lfunc_end14-HAL_TIMEx_OCN_Stop_IT
	.cfi_endproc
	.cantunwind
	.fnend
                                        @ -- End function
	.section	.text.HAL_TIMEx_OCN_Start_DMA,"ax",%progbits
	.hidden	HAL_TIMEx_OCN_Start_DMA         @ -- Begin function HAL_TIMEx_OCN_Start_DMA
	.globl	HAL_TIMEx_OCN_Start_DMA
	.p2align	2
	.type	HAL_TIMEx_OCN_Start_DMA,%function
	.code	16                              @ @HAL_TIMEx_OCN_Start_DMA
	.thumb_func
HAL_TIMEx_OCN_Start_DMA:
.Lfunc_begin15:
	.loc	7 872 0 is_stmt 1               @ ../Drivers/STM32F4xx_HAL_Driver/Src/stm32f4xx_hal_tim_ex.c:872:0
	.fnstart
	.cfi_startproc
@ %bb.0:
	.save	{r7, lr}
	push	{r7, lr}
	.cfi_def_cfa_offset 8
	.cfi_offset lr, -4
	.cfi_offset r7, -8
	.pad	#64
	sub	sp, #64
	.cfi_def_cfa_offset 72
                                        @ kill: def $r12 killed $r3
	str	r0, [sp, #56]
	str	r1, [sp, #52]
	str	r2, [sp, #48]
	strh.w	r3, [sp, #46]
	movs	r0, #0
.Ltmp197:
	.loc	7 873 21 prologue_end           @ ../Drivers/STM32F4xx_HAL_Driver/Src/stm32f4xx_hal_tim_ex.c:873:21
	strb.w	r0, [sp, #45]
.Ltmp198:
	.loc	7 880 10                        @ ../Drivers/STM32F4xx_HAL_Driver/Src/stm32f4xx_hal_tim_ex.c:880:10
	ldr	r0, [sp, #52]
	.loc	7 880 8 is_stmt 0               @ ../Drivers/STM32F4xx_HAL_Driver/Src/stm32f4xx_hal_tim_ex.c:880:8
	cbnz	r0, .LBB15_2
	b	.LBB15_1
.LBB15_1:
	.loc	7 880 38                        @ ../Drivers/STM32F4xx_HAL_Driver/Src/stm32f4xx_hal_tim_ex.c:880:38
	ldr	r0, [sp, #56]
	.loc	7 880 37                        @ ../Drivers/STM32F4xx_HAL_Driver/Src/stm32f4xx_hal_tim_ex.c:880:37
	ldrb.w	r0, [r0, #66]
	.loc	7 880 8                         @ ../Drivers/STM32F4xx_HAL_Driver/Src/stm32f4xx_hal_tim_ex.c:880:8
	str	r0, [sp, #36]                   @ 4-byte Spill
	b	.LBB15_9
.LBB15_2:
	.loc	7 880 66                        @ ../Drivers/STM32F4xx_HAL_Driver/Src/stm32f4xx_hal_tim_ex.c:880:66
	ldr	r0, [sp, #52]
	.loc	7 880 64                        @ ../Drivers/STM32F4xx_HAL_Driver/Src/stm32f4xx_hal_tim_ex.c:880:64
	cmp	r0, #4
	bne	.LBB15_4
	b	.LBB15_3
.LBB15_3:
	.loc	7 880 94                        @ ../Drivers/STM32F4xx_HAL_Driver/Src/stm32f4xx_hal_tim_ex.c:880:94
	ldr	r0, [sp, #56]
	.loc	7 880 93                        @ ../Drivers/STM32F4xx_HAL_Driver/Src/stm32f4xx_hal_tim_ex.c:880:93
	ldrb.w	r0, [r0, #67]
	.loc	7 880 64                        @ ../Drivers/STM32F4xx_HAL_Driver/Src/stm32f4xx_hal_tim_ex.c:880:64
	str	r0, [sp, #32]                   @ 4-byte Spill
	b	.LBB15_8
.LBB15_4:
	.loc	7 880 122                       @ ../Drivers/STM32F4xx_HAL_Driver/Src/stm32f4xx_hal_tim_ex.c:880:122
	ldr	r0, [sp, #52]
	.loc	7 880 120                       @ ../Drivers/STM32F4xx_HAL_Driver/Src/stm32f4xx_hal_tim_ex.c:880:120
	cmp	r0, #8
	bne	.LBB15_6
	b	.LBB15_5
.LBB15_5:
	.loc	7 880 150                       @ ../Drivers/STM32F4xx_HAL_Driver/Src/stm32f4xx_hal_tim_ex.c:880:150
	ldr	r0, [sp, #56]
	.loc	7 880 149                       @ ../Drivers/STM32F4xx_HAL_Driver/Src/stm32f4xx_hal_tim_ex.c:880:149
	ldrb.w	r0, [r0, #68]
	.loc	7 880 120                       @ ../Drivers/STM32F4xx_HAL_Driver/Src/stm32f4xx_hal_tim_ex.c:880:120
	str	r0, [sp, #28]                   @ 4-byte Spill
	b	.LBB15_7
.LBB15_6:
	.loc	7 880 177                       @ ../Drivers/STM32F4xx_HAL_Driver/Src/stm32f4xx_hal_tim_ex.c:880:177
	ldr	r0, [sp, #56]
	.loc	7 880 176                       @ ../Drivers/STM32F4xx_HAL_Driver/Src/stm32f4xx_hal_tim_ex.c:880:176
	ldrb.w	r0, [r0, #69]
	.loc	7 880 120                       @ ../Drivers/STM32F4xx_HAL_Driver/Src/stm32f4xx_hal_tim_ex.c:880:120
	str	r0, [sp, #28]                   @ 4-byte Spill
	b	.LBB15_7
.LBB15_7:
	ldr	r0, [sp, #28]                   @ 4-byte Reload
	.loc	7 880 64                        @ ../Drivers/STM32F4xx_HAL_Driver/Src/stm32f4xx_hal_tim_ex.c:880:64
	str	r0, [sp, #32]                   @ 4-byte Spill
	b	.LBB15_8
.LBB15_8:
	ldr	r0, [sp, #32]                   @ 4-byte Reload
	.loc	7 880 8                         @ ../Drivers/STM32F4xx_HAL_Driver/Src/stm32f4xx_hal_tim_ex.c:880:8
	str	r0, [sp, #36]                   @ 4-byte Spill
	b	.LBB15_9
.LBB15_9:
	ldr	r0, [sp, #36]                   @ 4-byte Reload
.Ltmp199:
	.loc	7 880 7                         @ ../Drivers/STM32F4xx_HAL_Driver/Src/stm32f4xx_hal_tim_ex.c:880:7
	cmp	r0, #2
	bne	.LBB15_11
	b	.LBB15_10
.LBB15_10:
	.loc	7 0 7                           @ ../Drivers/STM32F4xx_HAL_Driver/Src/stm32f4xx_hal_tim_ex.c:0:7
	movs	r0, #2
.Ltmp200:
	.loc	7 882 5 is_stmt 1               @ ../Drivers/STM32F4xx_HAL_Driver/Src/stm32f4xx_hal_tim_ex.c:882:5
	strb.w	r0, [sp, #63]
	b	.LBB15_65
.Ltmp201:
.LBB15_11:
	.loc	7 884 15                        @ ../Drivers/STM32F4xx_HAL_Driver/Src/stm32f4xx_hal_tim_ex.c:884:15
	ldr	r0, [sp, #52]
	.loc	7 884 13 is_stmt 0              @ ../Drivers/STM32F4xx_HAL_Driver/Src/stm32f4xx_hal_tim_ex.c:884:13
	cbnz	r0, .LBB15_13
	b	.LBB15_12
.LBB15_12:
	.loc	7 884 43                        @ ../Drivers/STM32F4xx_HAL_Driver/Src/stm32f4xx_hal_tim_ex.c:884:43
	ldr	r0, [sp, #56]
	.loc	7 884 42                        @ ../Drivers/STM32F4xx_HAL_Driver/Src/stm32f4xx_hal_tim_ex.c:884:42
	ldrb.w	r0, [r0, #66]
	.loc	7 884 13                        @ ../Drivers/STM32F4xx_HAL_Driver/Src/stm32f4xx_hal_tim_ex.c:884:13
	str	r0, [sp, #24]                   @ 4-byte Spill
	b	.LBB15_20
.LBB15_13:
	.loc	7 884 71                        @ ../Drivers/STM32F4xx_HAL_Driver/Src/stm32f4xx_hal_tim_ex.c:884:71
	ldr	r0, [sp, #52]
	.loc	7 884 69                        @ ../Drivers/STM32F4xx_HAL_Driver/Src/stm32f4xx_hal_tim_ex.c:884:69
	cmp	r0, #4
	bne	.LBB15_15
	b	.LBB15_14
.LBB15_14:
	.loc	7 884 99                        @ ../Drivers/STM32F4xx_HAL_Driver/Src/stm32f4xx_hal_tim_ex.c:884:99
	ldr	r0, [sp, #56]
	.loc	7 884 98                        @ ../Drivers/STM32F4xx_HAL_Driver/Src/stm32f4xx_hal_tim_ex.c:884:98
	ldrb.w	r0, [r0, #67]
	.loc	7 884 69                        @ ../Drivers/STM32F4xx_HAL_Driver/Src/stm32f4xx_hal_tim_ex.c:884:69
	str	r0, [sp, #20]                   @ 4-byte Spill
	b	.LBB15_19
.LBB15_15:
	.loc	7 884 127                       @ ../Drivers/STM32F4xx_HAL_Driver/Src/stm32f4xx_hal_tim_ex.c:884:127
	ldr	r0, [sp, #52]
	.loc	7 884 125                       @ ../Drivers/STM32F4xx_HAL_Driver/Src/stm32f4xx_hal_tim_ex.c:884:125
	cmp	r0, #8
	bne	.LBB15_17
	b	.LBB15_16
.LBB15_16:
	.loc	7 884 155                       @ ../Drivers/STM32F4xx_HAL_Driver/Src/stm32f4xx_hal_tim_ex.c:884:155
	ldr	r0, [sp, #56]
	.loc	7 884 154                       @ ../Drivers/STM32F4xx_HAL_Driver/Src/stm32f4xx_hal_tim_ex.c:884:154
	ldrb.w	r0, [r0, #68]
	.loc	7 884 125                       @ ../Drivers/STM32F4xx_HAL_Driver/Src/stm32f4xx_hal_tim_ex.c:884:125
	str	r0, [sp, #16]                   @ 4-byte Spill
	b	.LBB15_18
.LBB15_17:
	.loc	7 884 182                       @ ../Drivers/STM32F4xx_HAL_Driver/Src/stm32f4xx_hal_tim_ex.c:884:182
	ldr	r0, [sp, #56]
	.loc	7 884 181                       @ ../Drivers/STM32F4xx_HAL_Driver/Src/stm32f4xx_hal_tim_ex.c:884:181
	ldrb.w	r0, [r0, #69]
	.loc	7 884 125                       @ ../Drivers/STM32F4xx_HAL_Driver/Src/stm32f4xx_hal_tim_ex.c:884:125
	str	r0, [sp, #16]                   @ 4-byte Spill
	b	.LBB15_18
.LBB15_18:
	ldr	r0, [sp, #16]                   @ 4-byte Reload
	.loc	7 884 69                        @ ../Drivers/STM32F4xx_HAL_Driver/Src/stm32f4xx_hal_tim_ex.c:884:69
	str	r0, [sp, #20]                   @ 4-byte Spill
	b	.LBB15_19
.LBB15_19:
	ldr	r0, [sp, #20]                   @ 4-byte Reload
	.loc	7 884 13                        @ ../Drivers/STM32F4xx_HAL_Driver/Src/stm32f4xx_hal_tim_ex.c:884:13
	str	r0, [sp, #24]                   @ 4-byte Spill
	b	.LBB15_20
.LBB15_20:
	ldr	r0, [sp, #24]                   @ 4-byte Reload
.Ltmp202:
	.loc	7 884 12                        @ ../Drivers/STM32F4xx_HAL_Driver/Src/stm32f4xx_hal_tim_ex.c:884:12
	cmp	r0, #1
	bne	.LBB15_35
	b	.LBB15_21
.LBB15_21:
.Ltmp203:
	.loc	7 886 10 is_stmt 1              @ ../Drivers/STM32F4xx_HAL_Driver/Src/stm32f4xx_hal_tim_ex.c:886:10
	ldr	r0, [sp, #48]
	.loc	7 886 22 is_stmt 0              @ ../Drivers/STM32F4xx_HAL_Driver/Src/stm32f4xx_hal_tim_ex.c:886:22
	cbz	r0, .LBB15_23
	b	.LBB15_22
.LBB15_22:
	.loc	7 886 26                        @ ../Drivers/STM32F4xx_HAL_Driver/Src/stm32f4xx_hal_tim_ex.c:886:26
	ldrh.w	r0, [sp, #46]
.Ltmp204:
	.loc	7 886 9                         @ ../Drivers/STM32F4xx_HAL_Driver/Src/stm32f4xx_hal_tim_ex.c:886:9
	cbnz	r0, .LBB15_24
	b	.LBB15_23
.LBB15_23:
	.loc	7 0 9                           @ ../Drivers/STM32F4xx_HAL_Driver/Src/stm32f4xx_hal_tim_ex.c:0:9
	movs	r0, #1
.Ltmp205:
	.loc	7 888 7 is_stmt 1               @ ../Drivers/STM32F4xx_HAL_Driver/Src/stm32f4xx_hal_tim_ex.c:888:7
	strb.w	r0, [sp, #63]
	b	.LBB15_65
.Ltmp206:
.LBB15_24:
	.loc	7 892 10                        @ ../Drivers/STM32F4xx_HAL_Driver/Src/stm32f4xx_hal_tim_ex.c:892:10
	ldr	r0, [sp, #52]
	.loc	7 892 8 is_stmt 0               @ ../Drivers/STM32F4xx_HAL_Driver/Src/stm32f4xx_hal_tim_ex.c:892:8
	cbnz	r0, .LBB15_26
	b	.LBB15_25
.LBB15_25:
	.loc	7 892 39                        @ ../Drivers/STM32F4xx_HAL_Driver/Src/stm32f4xx_hal_tim_ex.c:892:39
	ldr	r1, [sp, #56]
	movs	r0, #2
	.loc	7 892 63                        @ ../Drivers/STM32F4xx_HAL_Driver/Src/stm32f4xx_hal_tim_ex.c:892:63
	strb.w	r0, [r1, #66]
	.loc	7 892 8                         @ ../Drivers/STM32F4xx_HAL_Driver/Src/stm32f4xx_hal_tim_ex.c:892:8
	b	.LBB15_33
.LBB15_26:
	.loc	7 892 99                        @ ../Drivers/STM32F4xx_HAL_Driver/Src/stm32f4xx_hal_tim_ex.c:892:99
	ldr	r0, [sp, #52]
	.loc	7 892 97                        @ ../Drivers/STM32F4xx_HAL_Driver/Src/stm32f4xx_hal_tim_ex.c:892:97
	cmp	r0, #4
	bne	.LBB15_28
	b	.LBB15_27
.LBB15_27:
	.loc	7 892 128                       @ ../Drivers/STM32F4xx_HAL_Driver/Src/stm32f4xx_hal_tim_ex.c:892:128
	ldr	r1, [sp, #56]
	movs	r0, #2
	.loc	7 892 152                       @ ../Drivers/STM32F4xx_HAL_Driver/Src/stm32f4xx_hal_tim_ex.c:892:152
	strb.w	r0, [r1, #67]
	.loc	7 892 97                        @ ../Drivers/STM32F4xx_HAL_Driver/Src/stm32f4xx_hal_tim_ex.c:892:97
	str	r0, [sp, #12]                   @ 4-byte Spill
	b	.LBB15_32
.LBB15_28:
	.loc	7 892 188                       @ ../Drivers/STM32F4xx_HAL_Driver/Src/stm32f4xx_hal_tim_ex.c:892:188
	ldr	r0, [sp, #52]
	.loc	7 892 186                       @ ../Drivers/STM32F4xx_HAL_Driver/Src/stm32f4xx_hal_tim_ex.c:892:186
	cmp	r0, #8
	bne	.LBB15_30
	b	.LBB15_29
.LBB15_29:
	.loc	7 892 217                       @ ../Drivers/STM32F4xx_HAL_Driver/Src/stm32f4xx_hal_tim_ex.c:892:217
	ldr	r1, [sp, #56]
	movs	r0, #2
	.loc	7 892 241                       @ ../Drivers/STM32F4xx_HAL_Driver/Src/stm32f4xx_hal_tim_ex.c:892:241
	strb.w	r0, [r1, #68]
	.loc	7 892 186                       @ ../Drivers/STM32F4xx_HAL_Driver/Src/stm32f4xx_hal_tim_ex.c:892:186
	str	r0, [sp, #8]                    @ 4-byte Spill
	b	.LBB15_31
.LBB15_30:
	.loc	7 892 277                       @ ../Drivers/STM32F4xx_HAL_Driver/Src/stm32f4xx_hal_tim_ex.c:892:277
	ldr	r1, [sp, #56]
	movs	r0, #2
	.loc	7 892 301                       @ ../Drivers/STM32F4xx_HAL_Driver/Src/stm32f4xx_hal_tim_ex.c:892:301
	strb.w	r0, [r1, #69]
	.loc	7 892 186                       @ ../Drivers/STM32F4xx_HAL_Driver/Src/stm32f4xx_hal_tim_ex.c:892:186
	str	r0, [sp, #8]                    @ 4-byte Spill
	b	.LBB15_31
.LBB15_31:
	ldr	r0, [sp, #8]                    @ 4-byte Reload
	.loc	7 892 97                        @ ../Drivers/STM32F4xx_HAL_Driver/Src/stm32f4xx_hal_tim_ex.c:892:97
	str	r0, [sp, #12]                   @ 4-byte Spill
	b	.LBB15_32
.LBB15_32:
	ldr	r0, [sp, #12]                   @ 4-byte Reload
	.loc	7 892 8                         @ ../Drivers/STM32F4xx_HAL_Driver/Src/stm32f4xx_hal_tim_ex.c:892:8
	b	.LBB15_33
.Ltmp207:
.LBB15_33:
	.loc	7 0 8                           @ ../Drivers/STM32F4xx_HAL_Driver/Src/stm32f4xx_hal_tim_ex.c:0:8
	b	.LBB15_34
.LBB15_34:
	.loc	7 894 3 is_stmt 1               @ ../Drivers/STM32F4xx_HAL_Driver/Src/stm32f4xx_hal_tim_ex.c:894:3
	b	.LBB15_36
.Ltmp208:
.LBB15_35:
	.loc	7 0 3 is_stmt 0                 @ ../Drivers/STM32F4xx_HAL_Driver/Src/stm32f4xx_hal_tim_ex.c:0:3
	movs	r0, #1
.Ltmp209:
	.loc	7 897 5 is_stmt 1               @ ../Drivers/STM32F4xx_HAL_Driver/Src/stm32f4xx_hal_tim_ex.c:897:5
	strb.w	r0, [sp, #63]
	b	.LBB15_65
.Ltmp210:
.LBB15_36:
	.loc	7 0 5 is_stmt 0                 @ ../Drivers/STM32F4xx_HAL_Driver/Src/stm32f4xx_hal_tim_ex.c:0:5
	b	.LBB15_37
.LBB15_37:
	.loc	7 900 11 is_stmt 1              @ ../Drivers/STM32F4xx_HAL_Driver/Src/stm32f4xx_hal_tim_ex.c:900:11
	ldr	r0, [sp, #52]
	.loc	7 900 3 is_stmt 0               @ ../Drivers/STM32F4xx_HAL_Driver/Src/stm32f4xx_hal_tim_ex.c:900:3
	str	r0, [sp, #4]                    @ 4-byte Spill
	cbz	r0, .LBB15_40
	b	.LBB15_38
.LBB15_38:
	ldr	r0, [sp, #4]                    @ 4-byte Reload
	cmp	r0, #4
	beq	.LBB15_43
	b	.LBB15_39
.LBB15_39:
	ldr	r0, [sp, #4]                    @ 4-byte Reload
	cmp	r0, #8
	beq	.LBB15_46
	b	.LBB15_49
.LBB15_40:
.Ltmp211:
	.loc	7 905 7 is_stmt 1               @ ../Drivers/STM32F4xx_HAL_Driver/Src/stm32f4xx_hal_tim_ex.c:905:7
	ldr	r0, [sp, #56]
	ldr	r1, [r0, #36]
	.loc	7 905 57 is_stmt 0              @ ../Drivers/STM32F4xx_HAL_Driver/Src/stm32f4xx_hal_tim_ex.c:905:57
	movw	r0, :lower16:TIM_DMADelayPulseNCplt
	movt	r0, :upper16:TIM_DMADelayPulseNCplt
	str	r0, [r1, #60]
	.loc	7 906 7 is_stmt 1               @ ../Drivers/STM32F4xx_HAL_Driver/Src/stm32f4xx_hal_tim_ex.c:906:7
	ldr	r0, [sp, #56]
	ldr	r1, [r0, #36]
	.loc	7 906 61 is_stmt 0              @ ../Drivers/STM32F4xx_HAL_Driver/Src/stm32f4xx_hal_tim_ex.c:906:61
	movw	r0, :lower16:TIM_DMADelayPulseHalfCplt
	movt	r0, :upper16:TIM_DMADelayPulseHalfCplt
	str	r0, [r1, #64]
	.loc	7 909 7 is_stmt 1               @ ../Drivers/STM32F4xx_HAL_Driver/Src/stm32f4xx_hal_tim_ex.c:909:7
	ldr	r0, [sp, #56]
	ldr	r1, [r0, #36]
	.loc	7 909 58 is_stmt 0              @ ../Drivers/STM32F4xx_HAL_Driver/Src/stm32f4xx_hal_tim_ex.c:909:58
	movw	r0, :lower16:TIM_DMAErrorCCxN
	movt	r0, :upper16:TIM_DMAErrorCCxN
	str	r0, [r1, #76]
.Ltmp212:
	.loc	7 912 28 is_stmt 1              @ ../Drivers/STM32F4xx_HAL_Driver/Src/stm32f4xx_hal_tim_ex.c:912:28
	ldr	r0, [sp, #56]
	.loc	7 912 95 is_stmt 0              @ ../Drivers/STM32F4xx_HAL_Driver/Src/stm32f4xx_hal_tim_ex.c:912:95
	ldr	r2, [r0]
	.loc	7 912 28                        @ ../Drivers/STM32F4xx_HAL_Driver/Src/stm32f4xx_hal_tim_ex.c:912:28
	ldr	r0, [r0, #36]
	.loc	7 912 71                        @ ../Drivers/STM32F4xx_HAL_Driver/Src/stm32f4xx_hal_tim_ex.c:912:71
	ldr	r1, [sp, #48]
	.loc	7 912 105                       @ ../Drivers/STM32F4xx_HAL_Driver/Src/stm32f4xx_hal_tim_ex.c:912:105
	adds	r2, #52
	.loc	7 913 28 is_stmt 1              @ ../Drivers/STM32F4xx_HAL_Driver/Src/stm32f4xx_hal_tim_ex.c:913:28
	ldrh.w	r3, [sp, #46]
	.loc	7 912 11                        @ ../Drivers/STM32F4xx_HAL_Driver/Src/stm32f4xx_hal_tim_ex.c:912:11
	bl	HAL_DMA_Start_IT
.Ltmp213:
	.loc	7 912 11 is_stmt 0              @ ../Drivers/STM32F4xx_HAL_Driver/Src/stm32f4xx_hal_tim_ex.c:912:11
	cbz	r0, .LBB15_42
	b	.LBB15_41
.LBB15_41:
	.loc	7 0 11                          @ ../Drivers/STM32F4xx_HAL_Driver/Src/stm32f4xx_hal_tim_ex.c:0:11
	movs	r0, #1
.Ltmp214:
	.loc	7 916 9 is_stmt 1               @ ../Drivers/STM32F4xx_HAL_Driver/Src/stm32f4xx_hal_tim_ex.c:916:9
	strb.w	r0, [sp, #63]
	b	.LBB15_65
.Ltmp215:
.LBB15_42:
	.loc	7 919 9                         @ ../Drivers/STM32F4xx_HAL_Driver/Src/stm32f4xx_hal_tim_ex.c:919:9
	ldr	r0, [sp, #56]
	.loc	7 919 16 is_stmt 0              @ ../Drivers/STM32F4xx_HAL_Driver/Src/stm32f4xx_hal_tim_ex.c:919:16
	ldr	r1, [r0]
	.loc	7 919 31                        @ ../Drivers/STM32F4xx_HAL_Driver/Src/stm32f4xx_hal_tim_ex.c:919:31
	ldr	r0, [r1, #12]
	orr	r0, r0, #512
	str	r0, [r1, #12]
	.loc	7 920 7 is_stmt 1               @ ../Drivers/STM32F4xx_HAL_Driver/Src/stm32f4xx_hal_tim_ex.c:920:7
	b	.LBB15_50
.Ltmp216:
.LBB15_43:
	.loc	7 926 7                         @ ../Drivers/STM32F4xx_HAL_Driver/Src/stm32f4xx_hal_tim_ex.c:926:7
	ldr	r0, [sp, #56]
	ldr	r1, [r0, #40]
	.loc	7 926 57 is_stmt 0              @ ../Drivers/STM32F4xx_HAL_Driver/Src/stm32f4xx_hal_tim_ex.c:926:57
	movw	r0, :lower16:TIM_DMADelayPulseNCplt
	movt	r0, :upper16:TIM_DMADelayPulseNCplt
	str	r0, [r1, #60]
	.loc	7 927 7 is_stmt 1               @ ../Drivers/STM32F4xx_HAL_Driver/Src/stm32f4xx_hal_tim_ex.c:927:7
	ldr	r0, [sp, #56]
	ldr	r1, [r0, #40]
	.loc	7 927 61 is_stmt 0              @ ../Drivers/STM32F4xx_HAL_Driver/Src/stm32f4xx_hal_tim_ex.c:927:61
	movw	r0, :lower16:TIM_DMADelayPulseHalfCplt
	movt	r0, :upper16:TIM_DMADelayPulseHalfCplt
	str	r0, [r1, #64]
	.loc	7 930 7 is_stmt 1               @ ../Drivers/STM32F4xx_HAL_Driver/Src/stm32f4xx_hal_tim_ex.c:930:7
	ldr	r0, [sp, #56]
	ldr	r1, [r0, #40]
	.loc	7 930 58 is_stmt 0              @ ../Drivers/STM32F4xx_HAL_Driver/Src/stm32f4xx_hal_tim_ex.c:930:58
	movw	r0, :lower16:TIM_DMAErrorCCxN
	movt	r0, :upper16:TIM_DMAErrorCCxN
	str	r0, [r1, #76]
.Ltmp217:
	.loc	7 933 28 is_stmt 1              @ ../Drivers/STM32F4xx_HAL_Driver/Src/stm32f4xx_hal_tim_ex.c:933:28
	ldr	r0, [sp, #56]
	.loc	7 933 95 is_stmt 0              @ ../Drivers/STM32F4xx_HAL_Driver/Src/stm32f4xx_hal_tim_ex.c:933:95
	ldr	r2, [r0]
	.loc	7 933 28                        @ ../Drivers/STM32F4xx_HAL_Driver/Src/stm32f4xx_hal_tim_ex.c:933:28
	ldr	r0, [r0, #40]
	.loc	7 933 71                        @ ../Drivers/STM32F4xx_HAL_Driver/Src/stm32f4xx_hal_tim_ex.c:933:71
	ldr	r1, [sp, #48]
	.loc	7 933 105                       @ ../Drivers/STM32F4xx_HAL_Driver/Src/stm32f4xx_hal_tim_ex.c:933:105
	adds	r2, #56
	.loc	7 934 28 is_stmt 1              @ ../Drivers/STM32F4xx_HAL_Driver/Src/stm32f4xx_hal_tim_ex.c:934:28
	ldrh.w	r3, [sp, #46]
	.loc	7 933 11                        @ ../Drivers/STM32F4xx_HAL_Driver/Src/stm32f4xx_hal_tim_ex.c:933:11
	bl	HAL_DMA_Start_IT
.Ltmp218:
	.loc	7 933 11 is_stmt 0              @ ../Drivers/STM32F4xx_HAL_Driver/Src/stm32f4xx_hal_tim_ex.c:933:11
	cbz	r0, .LBB15_45
	b	.LBB15_44
.LBB15_44:
	.loc	7 0 11                          @ ../Drivers/STM32F4xx_HAL_Driver/Src/stm32f4xx_hal_tim_ex.c:0:11
	movs	r0, #1
.Ltmp219:
	.loc	7 937 9 is_stmt 1               @ ../Drivers/STM32F4xx_HAL_Driver/Src/stm32f4xx_hal_tim_ex.c:937:9
	strb.w	r0, [sp, #63]
	b	.LBB15_65
.Ltmp220:
.LBB15_45:
	.loc	7 940 9                         @ ../Drivers/STM32F4xx_HAL_Driver/Src/stm32f4xx_hal_tim_ex.c:940:9
	ldr	r0, [sp, #56]
	.loc	7 940 16 is_stmt 0              @ ../Drivers/STM32F4xx_HAL_Driver/Src/stm32f4xx_hal_tim_ex.c:940:16
	ldr	r1, [r0]
	.loc	7 940 31                        @ ../Drivers/STM32F4xx_HAL_Driver/Src/stm32f4xx_hal_tim_ex.c:940:31
	ldr	r0, [r1, #12]
	orr	r0, r0, #1024
	str	r0, [r1, #12]
	.loc	7 941 7 is_stmt 1               @ ../Drivers/STM32F4xx_HAL_Driver/Src/stm32f4xx_hal_tim_ex.c:941:7
	b	.LBB15_50
.Ltmp221:
.LBB15_46:
	.loc	7 947 7                         @ ../Drivers/STM32F4xx_HAL_Driver/Src/stm32f4xx_hal_tim_ex.c:947:7
	ldr	r0, [sp, #56]
	ldr	r1, [r0, #44]
	.loc	7 947 57 is_stmt 0              @ ../Drivers/STM32F4xx_HAL_Driver/Src/stm32f4xx_hal_tim_ex.c:947:57
	movw	r0, :lower16:TIM_DMADelayPulseNCplt
	movt	r0, :upper16:TIM_DMADelayPulseNCplt
	str	r0, [r1, #60]
	.loc	7 948 7 is_stmt 1               @ ../Drivers/STM32F4xx_HAL_Driver/Src/stm32f4xx_hal_tim_ex.c:948:7
	ldr	r0, [sp, #56]
	ldr	r1, [r0, #44]
	.loc	7 948 61 is_stmt 0              @ ../Drivers/STM32F4xx_HAL_Driver/Src/stm32f4xx_hal_tim_ex.c:948:61
	movw	r0, :lower16:TIM_DMADelayPulseHalfCplt
	movt	r0, :upper16:TIM_DMADelayPulseHalfCplt
	str	r0, [r1, #64]
	.loc	7 951 7 is_stmt 1               @ ../Drivers/STM32F4xx_HAL_Driver/Src/stm32f4xx_hal_tim_ex.c:951:7
	ldr	r0, [sp, #56]
	ldr	r1, [r0, #44]
	.loc	7 951 58 is_stmt 0              @ ../Drivers/STM32F4xx_HAL_Driver/Src/stm32f4xx_hal_tim_ex.c:951:58
	movw	r0, :lower16:TIM_DMAErrorCCxN
	movt	r0, :upper16:TIM_DMAErrorCCxN
	str	r0, [r1, #76]
.Ltmp222:
	.loc	7 954 28 is_stmt 1              @ ../Drivers/STM32F4xx_HAL_Driver/Src/stm32f4xx_hal_tim_ex.c:954:28
	ldr	r0, [sp, #56]
	.loc	7 954 95 is_stmt 0              @ ../Drivers/STM32F4xx_HAL_Driver/Src/stm32f4xx_hal_tim_ex.c:954:95
	ldr	r2, [r0]
	.loc	7 954 28                        @ ../Drivers/STM32F4xx_HAL_Driver/Src/stm32f4xx_hal_tim_ex.c:954:28
	ldr	r0, [r0, #44]
	.loc	7 954 71                        @ ../Drivers/STM32F4xx_HAL_Driver/Src/stm32f4xx_hal_tim_ex.c:954:71
	ldr	r1, [sp, #48]
	.loc	7 954 105                       @ ../Drivers/STM32F4xx_HAL_Driver/Src/stm32f4xx_hal_tim_ex.c:954:105
	adds	r2, #60
	.loc	7 955 28 is_stmt 1              @ ../Drivers/STM32F4xx_HAL_Driver/Src/stm32f4xx_hal_tim_ex.c:955:28
	ldrh.w	r3, [sp, #46]
	.loc	7 954 11                        @ ../Drivers/STM32F4xx_HAL_Driver/Src/stm32f4xx_hal_tim_ex.c:954:11
	bl	HAL_DMA_Start_IT
.Ltmp223:
	.loc	7 954 11 is_stmt 0              @ ../Drivers/STM32F4xx_HAL_Driver/Src/stm32f4xx_hal_tim_ex.c:954:11
	cbz	r0, .LBB15_48
	b	.LBB15_47
.LBB15_47:
	.loc	7 0 11                          @ ../Drivers/STM32F4xx_HAL_Driver/Src/stm32f4xx_hal_tim_ex.c:0:11
	movs	r0, #1
.Ltmp224:
	.loc	7 958 9 is_stmt 1               @ ../Drivers/STM32F4xx_HAL_Driver/Src/stm32f4xx_hal_tim_ex.c:958:9
	strb.w	r0, [sp, #63]
	b	.LBB15_65
.Ltmp225:
.LBB15_48:
	.loc	7 961 9                         @ ../Drivers/STM32F4xx_HAL_Driver/Src/stm32f4xx_hal_tim_ex.c:961:9
	ldr	r0, [sp, #56]
	.loc	7 961 16 is_stmt 0              @ ../Drivers/STM32F4xx_HAL_Driver/Src/stm32f4xx_hal_tim_ex.c:961:16
	ldr	r1, [r0]
	.loc	7 961 31                        @ ../Drivers/STM32F4xx_HAL_Driver/Src/stm32f4xx_hal_tim_ex.c:961:31
	ldr	r0, [r1, #12]
	orr	r0, r0, #2048
	str	r0, [r1, #12]
	.loc	7 962 7 is_stmt 1               @ ../Drivers/STM32F4xx_HAL_Driver/Src/stm32f4xx_hal_tim_ex.c:962:7
	b	.LBB15_50
.Ltmp226:
.LBB15_49:
	.loc	7 0 7 is_stmt 0                 @ ../Drivers/STM32F4xx_HAL_Driver/Src/stm32f4xx_hal_tim_ex.c:0:7
	movs	r0, #1
	.loc	7 966 14 is_stmt 1              @ ../Drivers/STM32F4xx_HAL_Driver/Src/stm32f4xx_hal_tim_ex.c:966:14
	strb.w	r0, [sp, #45]
	.loc	7 967 7                         @ ../Drivers/STM32F4xx_HAL_Driver/Src/stm32f4xx_hal_tim_ex.c:967:7
	b	.LBB15_50
.Ltmp227:
.LBB15_50:
	.loc	7 970 7                         @ ../Drivers/STM32F4xx_HAL_Driver/Src/stm32f4xx_hal_tim_ex.c:970:7
	ldrb.w	r0, [sp, #45]
.Ltmp228:
	.loc	7 970 7 is_stmt 0               @ ../Drivers/STM32F4xx_HAL_Driver/Src/stm32f4xx_hal_tim_ex.c:970:7
	cmp	r0, #0
	bne	.LBB15_64
	b	.LBB15_51
.LBB15_51:
.Ltmp229:
	.loc	7 973 24 is_stmt 1              @ ../Drivers/STM32F4xx_HAL_Driver/Src/stm32f4xx_hal_tim_ex.c:973:24
	ldr	r0, [sp, #56]
	.loc	7 973 30 is_stmt 0              @ ../Drivers/STM32F4xx_HAL_Driver/Src/stm32f4xx_hal_tim_ex.c:973:30
	ldr	r0, [r0]
	.loc	7 973 40                        @ ../Drivers/STM32F4xx_HAL_Driver/Src/stm32f4xx_hal_tim_ex.c:973:40
	ldr	r1, [sp, #52]
	movs	r2, #4
	.loc	7 973 5                         @ ../Drivers/STM32F4xx_HAL_Driver/Src/stm32f4xx_hal_tim_ex.c:973:5
	bl	TIM_CCxNChannelCmd
	.loc	7 976 7 is_stmt 1               @ ../Drivers/STM32F4xx_HAL_Driver/Src/stm32f4xx_hal_tim_ex.c:976:7
	ldr	r0, [sp, #56]
	.loc	7 976 14 is_stmt 0              @ ../Drivers/STM32F4xx_HAL_Driver/Src/stm32f4xx_hal_tim_ex.c:976:14
	ldr	r1, [r0]
	.loc	7 976 28                        @ ../Drivers/STM32F4xx_HAL_Driver/Src/stm32f4xx_hal_tim_ex.c:976:28
	ldr	r0, [r1, #68]
	orr	r0, r0, #32768
	str	r0, [r1, #68]
.Ltmp230:
	.loc	7 979 12 is_stmt 1              @ ../Drivers/STM32F4xx_HAL_Driver/Src/stm32f4xx_hal_tim_ex.c:979:12
	ldr	r0, [sp, #56]
	.loc	7 979 18 is_stmt 0              @ ../Drivers/STM32F4xx_HAL_Driver/Src/stm32f4xx_hal_tim_ex.c:979:18
	ldr	r0, [r0]
	movs	r1, #0
	movt	r1, #16385
	.loc	7 979 93                        @ ../Drivers/STM32F4xx_HAL_Driver/Src/stm32f4xx_hal_tim_ex.c:979:93
	cmp	r0, r1
	beq	.LBB15_59
	b	.LBB15_52
.LBB15_52:
	.loc	7 979 98                        @ ../Drivers/STM32F4xx_HAL_Driver/Src/stm32f4xx_hal_tim_ex.c:979:98
	ldr	r0, [sp, #56]
	.loc	7 979 104                       @ ../Drivers/STM32F4xx_HAL_Driver/Src/stm32f4xx_hal_tim_ex.c:979:104
	ldr	r0, [r0]
	.loc	7 979 162                       @ ../Drivers/STM32F4xx_HAL_Driver/Src/stm32f4xx_hal_tim_ex.c:979:162
	cmp.w	r0, #1073741824
	beq	.LBB15_59
	b	.LBB15_53
.LBB15_53:
	.loc	7 979 167                       @ ../Drivers/STM32F4xx_HAL_Driver/Src/stm32f4xx_hal_tim_ex.c:979:167
	ldr	r0, [sp, #56]
	.loc	7 979 173                       @ ../Drivers/STM32F4xx_HAL_Driver/Src/stm32f4xx_hal_tim_ex.c:979:173
	ldr	r0, [r0]
	movw	r1, #1024
	movt	r1, #16384
	.loc	7 979 231                       @ ../Drivers/STM32F4xx_HAL_Driver/Src/stm32f4xx_hal_tim_ex.c:979:231
	cmp	r0, r1
	beq	.LBB15_59
	b	.LBB15_54
.LBB15_54:
	.loc	7 979 236                       @ ../Drivers/STM32F4xx_HAL_Driver/Src/stm32f4xx_hal_tim_ex.c:979:236
	ldr	r0, [sp, #56]
	.loc	7 979 242                       @ ../Drivers/STM32F4xx_HAL_Driver/Src/stm32f4xx_hal_tim_ex.c:979:242
	ldr	r0, [r0]
	movw	r1, #2048
	movt	r1, #16384
	.loc	7 979 300                       @ ../Drivers/STM32F4xx_HAL_Driver/Src/stm32f4xx_hal_tim_ex.c:979:300
	cmp	r0, r1
	beq	.LBB15_59
	b	.LBB15_55
.LBB15_55:
	.loc	7 979 305                       @ ../Drivers/STM32F4xx_HAL_Driver/Src/stm32f4xx_hal_tim_ex.c:979:305
	ldr	r0, [sp, #56]
	.loc	7 979 311                       @ ../Drivers/STM32F4xx_HAL_Driver/Src/stm32f4xx_hal_tim_ex.c:979:311
	ldr	r0, [r0]
	movw	r1, #3072
	movt	r1, #16384
	.loc	7 979 369                       @ ../Drivers/STM32F4xx_HAL_Driver/Src/stm32f4xx_hal_tim_ex.c:979:369
	cmp	r0, r1
	beq	.LBB15_59
	b	.LBB15_56
.LBB15_56:
	.loc	7 979 374                       @ ../Drivers/STM32F4xx_HAL_Driver/Src/stm32f4xx_hal_tim_ex.c:979:374
	ldr	r0, [sp, #56]
	.loc	7 979 380                       @ ../Drivers/STM32F4xx_HAL_Driver/Src/stm32f4xx_hal_tim_ex.c:979:380
	ldr	r0, [r0]
	movw	r1, #1024
	movt	r1, #16385
	.loc	7 979 455                       @ ../Drivers/STM32F4xx_HAL_Driver/Src/stm32f4xx_hal_tim_ex.c:979:455
	cmp	r0, r1
	beq	.LBB15_59
	b	.LBB15_57
.LBB15_57:
	.loc	7 979 460                       @ ../Drivers/STM32F4xx_HAL_Driver/Src/stm32f4xx_hal_tim_ex.c:979:460
	ldr	r0, [sp, #56]
	.loc	7 979 466                       @ ../Drivers/STM32F4xx_HAL_Driver/Src/stm32f4xx_hal_tim_ex.c:979:466
	ldr	r0, [r0]
	movw	r1, #16384
	movt	r1, #16385
	.loc	7 979 541                       @ ../Drivers/STM32F4xx_HAL_Driver/Src/stm32f4xx_hal_tim_ex.c:979:541
	cmp	r0, r1
	beq	.LBB15_59
	b	.LBB15_58
.LBB15_58:
	.loc	7 979 546                       @ ../Drivers/STM32F4xx_HAL_Driver/Src/stm32f4xx_hal_tim_ex.c:979:546
	ldr	r0, [sp, #56]
	.loc	7 979 552                       @ ../Drivers/STM32F4xx_HAL_Driver/Src/stm32f4xx_hal_tim_ex.c:979:552
	ldr	r0, [r0]
	movw	r1, #6144
	movt	r1, #16384
.Ltmp231:
	.loc	7 979 9                         @ ../Drivers/STM32F4xx_HAL_Driver/Src/stm32f4xx_hal_tim_ex.c:979:9
	cmp	r0, r1
	bne	.LBB15_62
	b	.LBB15_59
.LBB15_59:
.Ltmp232:
	.loc	7 981 17 is_stmt 1              @ ../Drivers/STM32F4xx_HAL_Driver/Src/stm32f4xx_hal_tim_ex.c:981:17
	ldr	r0, [sp, #56]
	.loc	7 981 23 is_stmt 0              @ ../Drivers/STM32F4xx_HAL_Driver/Src/stm32f4xx_hal_tim_ex.c:981:23
	ldr	r0, [r0]
	.loc	7 981 33                        @ ../Drivers/STM32F4xx_HAL_Driver/Src/stm32f4xx_hal_tim_ex.c:981:33
	ldr	r0, [r0, #8]
	.loc	7 981 38                        @ ../Drivers/STM32F4xx_HAL_Driver/Src/stm32f4xx_hal_tim_ex.c:981:38
	and	r0, r0, #7
	.loc	7 981 15                        @ ../Drivers/STM32F4xx_HAL_Driver/Src/stm32f4xx_hal_tim_ex.c:981:15
	str	r0, [sp, #40]
.Ltmp233:
	.loc	7 982 14 is_stmt 1              @ ../Drivers/STM32F4xx_HAL_Driver/Src/stm32f4xx_hal_tim_ex.c:982:14
	ldr	r0, [sp, #40]
.Ltmp234:
	.loc	7 982 11 is_stmt 0              @ ../Drivers/STM32F4xx_HAL_Driver/Src/stm32f4xx_hal_tim_ex.c:982:11
	cmp	r0, #6
	beq	.LBB15_61
	b	.LBB15_60
.LBB15_60:
.Ltmp235:
	.loc	7 984 11 is_stmt 1              @ ../Drivers/STM32F4xx_HAL_Driver/Src/stm32f4xx_hal_tim_ex.c:984:11
	ldr	r0, [sp, #56]
	.loc	7 984 18 is_stmt 0              @ ../Drivers/STM32F4xx_HAL_Driver/Src/stm32f4xx_hal_tim_ex.c:984:18
	ldr	r1, [r0]
	.loc	7 984 31                        @ ../Drivers/STM32F4xx_HAL_Driver/Src/stm32f4xx_hal_tim_ex.c:984:31
	ldr	r0, [r1]
	orr	r0, r0, #1
	str	r0, [r1]
	.loc	7 985 7 is_stmt 1               @ ../Drivers/STM32F4xx_HAL_Driver/Src/stm32f4xx_hal_tim_ex.c:985:7
	b	.LBB15_61
.Ltmp236:
.LBB15_61:
	.loc	7 986 5                         @ ../Drivers/STM32F4xx_HAL_Driver/Src/stm32f4xx_hal_tim_ex.c:986:5
	b	.LBB15_63
.Ltmp237:
.LBB15_62:
	.loc	7 989 9                         @ ../Drivers/STM32F4xx_HAL_Driver/Src/stm32f4xx_hal_tim_ex.c:989:9
	ldr	r0, [sp, #56]
	.loc	7 989 16 is_stmt 0              @ ../Drivers/STM32F4xx_HAL_Driver/Src/stm32f4xx_hal_tim_ex.c:989:16
	ldr	r1, [r0]
	.loc	7 989 29                        @ ../Drivers/STM32F4xx_HAL_Driver/Src/stm32f4xx_hal_tim_ex.c:989:29
	ldr	r0, [r1]
	orr	r0, r0, #1
	str	r0, [r1]
	b	.LBB15_63
.Ltmp238:
.LBB15_63:
	.loc	7 991 3 is_stmt 1               @ ../Drivers/STM32F4xx_HAL_Driver/Src/stm32f4xx_hal_tim_ex.c:991:3
	b	.LBB15_64
.Ltmp239:
.LBB15_64:
	.loc	7 994 10                        @ ../Drivers/STM32F4xx_HAL_Driver/Src/stm32f4xx_hal_tim_ex.c:994:10
	ldrb.w	r0, [sp, #45]
	.loc	7 994 3 is_stmt 0               @ ../Drivers/STM32F4xx_HAL_Driver/Src/stm32f4xx_hal_tim_ex.c:994:3
	strb.w	r0, [sp, #63]
	b	.LBB15_65
.LBB15_65:
	.loc	7 995 1 is_stmt 1               @ ../Drivers/STM32F4xx_HAL_Driver/Src/stm32f4xx_hal_tim_ex.c:995:1
	ldrb.w	r0, [sp, #63]
	add	sp, #64
	pop	{r7, pc}
.Ltmp240:
.Lfunc_end15:
	.size	HAL_TIMEx_OCN_Start_DMA, .Lfunc_end15-HAL_TIMEx_OCN_Start_DMA
	.cfi_endproc
	.cantunwind
	.fnend
                                        @ -- End function
	.section	.text.TIM_DMADelayPulseNCplt,"ax",%progbits
	.p2align	2                               @ -- Begin function TIM_DMADelayPulseNCplt
	.type	TIM_DMADelayPulseNCplt,%function
	.code	16                              @ @TIM_DMADelayPulseNCplt
	.thumb_func
TIM_DMADelayPulseNCplt:
.Lfunc_begin16:
	.loc	7 2293 0                        @ ../Drivers/STM32F4xx_HAL_Driver/Src/stm32f4xx_hal_tim_ex.c:2293:0
	.fnstart
	.cfi_startproc
@ %bb.0:
	.save	{r7, lr}
	push	{r7, lr}
	.cfi_def_cfa_offset 8
	.cfi_offset lr, -4
	.cfi_offset r7, -8
	.pad	#8
	sub	sp, #8
	.cfi_def_cfa_offset 16
	str	r0, [sp, #4]
.Ltmp241:
	.loc	7 2294 72 prologue_end          @ ../Drivers/STM32F4xx_HAL_Driver/Src/stm32f4xx_hal_tim_ex.c:2294:72
	ldr	r0, [sp, #4]
	.loc	7 2294 79 is_stmt 0             @ ../Drivers/STM32F4xx_HAL_Driver/Src/stm32f4xx_hal_tim_ex.c:2294:79
	ldr	r0, [r0, #56]
	.loc	7 2294 22                       @ ../Drivers/STM32F4xx_HAL_Driver/Src/stm32f4xx_hal_tim_ex.c:2294:22
	str	r0, [sp]
.Ltmp242:
	.loc	7 2296 7 is_stmt 1              @ ../Drivers/STM32F4xx_HAL_Driver/Src/stm32f4xx_hal_tim_ex.c:2296:7
	ldr	r0, [sp, #4]
	.loc	7 2296 15 is_stmt 0             @ ../Drivers/STM32F4xx_HAL_Driver/Src/stm32f4xx_hal_tim_ex.c:2296:15
	ldr	r1, [sp]
	ldr	r1, [r1, #36]
.Ltmp243:
	.loc	7 2296 7                        @ ../Drivers/STM32F4xx_HAL_Driver/Src/stm32f4xx_hal_tim_ex.c:2296:7
	cmp	r0, r1
	bne	.LBB16_4
	b	.LBB16_1
.LBB16_1:
.Ltmp244:
	.loc	7 2298 5 is_stmt 1              @ ../Drivers/STM32F4xx_HAL_Driver/Src/stm32f4xx_hal_tim_ex.c:2298:5
	ldr	r1, [sp]
	movs	r0, #1
	.loc	7 2298 19 is_stmt 0             @ ../Drivers/STM32F4xx_HAL_Driver/Src/stm32f4xx_hal_tim_ex.c:2298:19
	strb	r0, [r1, #28]
.Ltmp245:
	.loc	7 2300 9 is_stmt 1              @ ../Drivers/STM32F4xx_HAL_Driver/Src/stm32f4xx_hal_tim_ex.c:2300:9
	ldr	r0, [sp, #4]
	.loc	7 2300 20 is_stmt 0             @ ../Drivers/STM32F4xx_HAL_Driver/Src/stm32f4xx_hal_tim_ex.c:2300:20
	ldr	r0, [r0, #28]
.Ltmp246:
	.loc	7 2300 9                        @ ../Drivers/STM32F4xx_HAL_Driver/Src/stm32f4xx_hal_tim_ex.c:2300:9
	cbnz	r0, .LBB16_3
	b	.LBB16_2
.LBB16_2:
.Ltmp247:
	.loc	7 2302 43 is_stmt 1             @ ../Drivers/STM32F4xx_HAL_Driver/Src/stm32f4xx_hal_tim_ex.c:2302:43
	ldr	r1, [sp]
	movs	r0, #1
	.loc	7 2302 67 is_stmt 0             @ ../Drivers/STM32F4xx_HAL_Driver/Src/stm32f4xx_hal_tim_ex.c:2302:67
	strb.w	r0, [r1, #66]
	.loc	7 2303 5 is_stmt 1              @ ../Drivers/STM32F4xx_HAL_Driver/Src/stm32f4xx_hal_tim_ex.c:2303:5
	b	.LBB16_3
.Ltmp248:
.LBB16_3:
	.loc	7 2304 3                        @ ../Drivers/STM32F4xx_HAL_Driver/Src/stm32f4xx_hal_tim_ex.c:2304:3
	b	.LBB16_15
.Ltmp249:
.LBB16_4:
	.loc	7 2305 12                       @ ../Drivers/STM32F4xx_HAL_Driver/Src/stm32f4xx_hal_tim_ex.c:2305:12
	ldr	r0, [sp, #4]
	.loc	7 2305 20 is_stmt 0             @ ../Drivers/STM32F4xx_HAL_Driver/Src/stm32f4xx_hal_tim_ex.c:2305:20
	ldr	r1, [sp]
	ldr	r1, [r1, #40]
.Ltmp250:
	.loc	7 2305 12                       @ ../Drivers/STM32F4xx_HAL_Driver/Src/stm32f4xx_hal_tim_ex.c:2305:12
	cmp	r0, r1
	bne	.LBB16_8
	b	.LBB16_5
.LBB16_5:
.Ltmp251:
	.loc	7 2307 5 is_stmt 1              @ ../Drivers/STM32F4xx_HAL_Driver/Src/stm32f4xx_hal_tim_ex.c:2307:5
	ldr	r1, [sp]
	movs	r0, #2
	.loc	7 2307 19 is_stmt 0             @ ../Drivers/STM32F4xx_HAL_Driver/Src/stm32f4xx_hal_tim_ex.c:2307:19
	strb	r0, [r1, #28]
.Ltmp252:
	.loc	7 2309 9 is_stmt 1              @ ../Drivers/STM32F4xx_HAL_Driver/Src/stm32f4xx_hal_tim_ex.c:2309:9
	ldr	r0, [sp, #4]
	.loc	7 2309 20 is_stmt 0             @ ../Drivers/STM32F4xx_HAL_Driver/Src/stm32f4xx_hal_tim_ex.c:2309:20
	ldr	r0, [r0, #28]
.Ltmp253:
	.loc	7 2309 9                        @ ../Drivers/STM32F4xx_HAL_Driver/Src/stm32f4xx_hal_tim_ex.c:2309:9
	cbnz	r0, .LBB16_7
	b	.LBB16_6
.LBB16_6:
.Ltmp254:
	.loc	7 2311 137 is_stmt 1            @ ../Drivers/STM32F4xx_HAL_Driver/Src/stm32f4xx_hal_tim_ex.c:2311:137
	ldr	r1, [sp]
	movs	r0, #1
	.loc	7 2311 161 is_stmt 0            @ ../Drivers/STM32F4xx_HAL_Driver/Src/stm32f4xx_hal_tim_ex.c:2311:161
	strb.w	r0, [r1, #67]
	.loc	7 2312 5 is_stmt 1              @ ../Drivers/STM32F4xx_HAL_Driver/Src/stm32f4xx_hal_tim_ex.c:2312:5
	b	.LBB16_7
.Ltmp255:
.LBB16_7:
	.loc	7 2313 3                        @ ../Drivers/STM32F4xx_HAL_Driver/Src/stm32f4xx_hal_tim_ex.c:2313:3
	b	.LBB16_14
.Ltmp256:
.LBB16_8:
	.loc	7 2314 12                       @ ../Drivers/STM32F4xx_HAL_Driver/Src/stm32f4xx_hal_tim_ex.c:2314:12
	ldr	r0, [sp, #4]
	.loc	7 2314 20 is_stmt 0             @ ../Drivers/STM32F4xx_HAL_Driver/Src/stm32f4xx_hal_tim_ex.c:2314:20
	ldr	r1, [sp]
	ldr	r1, [r1, #44]
.Ltmp257:
	.loc	7 2314 12                       @ ../Drivers/STM32F4xx_HAL_Driver/Src/stm32f4xx_hal_tim_ex.c:2314:12
	cmp	r0, r1
	bne	.LBB16_12
	b	.LBB16_9
.LBB16_9:
.Ltmp258:
	.loc	7 2316 5 is_stmt 1              @ ../Drivers/STM32F4xx_HAL_Driver/Src/stm32f4xx_hal_tim_ex.c:2316:5
	ldr	r1, [sp]
	movs	r0, #4
	.loc	7 2316 19 is_stmt 0             @ ../Drivers/STM32F4xx_HAL_Driver/Src/stm32f4xx_hal_tim_ex.c:2316:19
	strb	r0, [r1, #28]
.Ltmp259:
	.loc	7 2318 9 is_stmt 1              @ ../Drivers/STM32F4xx_HAL_Driver/Src/stm32f4xx_hal_tim_ex.c:2318:9
	ldr	r0, [sp, #4]
	.loc	7 2318 20 is_stmt 0             @ ../Drivers/STM32F4xx_HAL_Driver/Src/stm32f4xx_hal_tim_ex.c:2318:20
	ldr	r0, [r0, #28]
.Ltmp260:
	.loc	7 2318 9                        @ ../Drivers/STM32F4xx_HAL_Driver/Src/stm32f4xx_hal_tim_ex.c:2318:9
	cbnz	r0, .LBB16_11
	b	.LBB16_10
.LBB16_10:
.Ltmp261:
	.loc	7 2320 231 is_stmt 1            @ ../Drivers/STM32F4xx_HAL_Driver/Src/stm32f4xx_hal_tim_ex.c:2320:231
	ldr	r1, [sp]
	movs	r0, #1
	.loc	7 2320 255 is_stmt 0            @ ../Drivers/STM32F4xx_HAL_Driver/Src/stm32f4xx_hal_tim_ex.c:2320:255
	strb.w	r0, [r1, #68]
	.loc	7 2321 5 is_stmt 1              @ ../Drivers/STM32F4xx_HAL_Driver/Src/stm32f4xx_hal_tim_ex.c:2321:5
	b	.LBB16_11
.Ltmp262:
.LBB16_11:
	.loc	7 2322 3                        @ ../Drivers/STM32F4xx_HAL_Driver/Src/stm32f4xx_hal_tim_ex.c:2322:3
	b	.LBB16_13
.Ltmp263:
.LBB16_12:
	.loc	7 0 3 is_stmt 0                 @ ../Drivers/STM32F4xx_HAL_Driver/Src/stm32f4xx_hal_tim_ex.c:0:3
	b	.LBB16_13
.LBB16_13:
	b	.LBB16_14
.LBB16_14:
	b	.LBB16_15
.LBB16_15:
	.loc	7 2331 37 is_stmt 1             @ ../Drivers/STM32F4xx_HAL_Driver/Src/stm32f4xx_hal_tim_ex.c:2331:37
	ldr	r0, [sp]
	.loc	7 2331 3 is_stmt 0              @ ../Drivers/STM32F4xx_HAL_Driver/Src/stm32f4xx_hal_tim_ex.c:2331:3
	bl	HAL_TIM_PWM_PulseFinishedCallback
	.loc	7 2334 3 is_stmt 1              @ ../Drivers/STM32F4xx_HAL_Driver/Src/stm32f4xx_hal_tim_ex.c:2334:3
	ldr	r1, [sp]
	movs	r0, #0
	.loc	7 2334 17 is_stmt 0             @ ../Drivers/STM32F4xx_HAL_Driver/Src/stm32f4xx_hal_tim_ex.c:2334:17
	strb	r0, [r1, #28]
	.loc	7 2335 1 is_stmt 1              @ ../Drivers/STM32F4xx_HAL_Driver/Src/stm32f4xx_hal_tim_ex.c:2335:1
	add	sp, #8
	pop	{r7, pc}
.Ltmp264:
.Lfunc_end16:
	.size	TIM_DMADelayPulseNCplt, .Lfunc_end16-TIM_DMADelayPulseNCplt
	.cfi_endproc
	.cantunwind
	.fnend
                                        @ -- End function
	.section	.text.TIM_DMAErrorCCxN,"ax",%progbits
	.p2align	2                               @ -- Begin function TIM_DMAErrorCCxN
	.type	TIM_DMAErrorCCxN,%function
	.code	16                              @ @TIM_DMAErrorCCxN
	.thumb_func
TIM_DMAErrorCCxN:
.Lfunc_begin17:
	.loc	7 2343 0                        @ ../Drivers/STM32F4xx_HAL_Driver/Src/stm32f4xx_hal_tim_ex.c:2343:0
	.fnstart
	.cfi_startproc
@ %bb.0:
	.save	{r7, lr}
	push	{r7, lr}
	.cfi_def_cfa_offset 8
	.cfi_offset lr, -4
	.cfi_offset r7, -8
	.pad	#8
	sub	sp, #8
	.cfi_def_cfa_offset 16
	str	r0, [sp, #4]
.Ltmp265:
	.loc	7 2344 72 prologue_end          @ ../Drivers/STM32F4xx_HAL_Driver/Src/stm32f4xx_hal_tim_ex.c:2344:72
	ldr	r0, [sp, #4]
	.loc	7 2344 79 is_stmt 0             @ ../Drivers/STM32F4xx_HAL_Driver/Src/stm32f4xx_hal_tim_ex.c:2344:79
	ldr	r0, [r0, #56]
	.loc	7 2344 22                       @ ../Drivers/STM32F4xx_HAL_Driver/Src/stm32f4xx_hal_tim_ex.c:2344:22
	str	r0, [sp]
.Ltmp266:
	.loc	7 2346 7 is_stmt 1              @ ../Drivers/STM32F4xx_HAL_Driver/Src/stm32f4xx_hal_tim_ex.c:2346:7
	ldr	r0, [sp, #4]
	.loc	7 2346 15 is_stmt 0             @ ../Drivers/STM32F4xx_HAL_Driver/Src/stm32f4xx_hal_tim_ex.c:2346:15
	ldr	r1, [sp]
	ldr	r1, [r1, #36]
.Ltmp267:
	.loc	7 2346 7                        @ ../Drivers/STM32F4xx_HAL_Driver/Src/stm32f4xx_hal_tim_ex.c:2346:7
	cmp	r0, r1
	bne	.LBB17_2
	b	.LBB17_1
.LBB17_1:
.Ltmp268:
	.loc	7 2348 5 is_stmt 1              @ ../Drivers/STM32F4xx_HAL_Driver/Src/stm32f4xx_hal_tim_ex.c:2348:5
	ldr	r1, [sp]
	movs	r0, #1
	.loc	7 2348 19 is_stmt 0             @ ../Drivers/STM32F4xx_HAL_Driver/Src/stm32f4xx_hal_tim_ex.c:2348:19
	strb	r0, [r1, #28]
	.loc	7 2349 41 is_stmt 1             @ ../Drivers/STM32F4xx_HAL_Driver/Src/stm32f4xx_hal_tim_ex.c:2349:41
	ldr	r1, [sp]
	.loc	7 2349 65 is_stmt 0             @ ../Drivers/STM32F4xx_HAL_Driver/Src/stm32f4xx_hal_tim_ex.c:2349:65
	strb.w	r0, [r1, #66]
	.loc	7 2350 3 is_stmt 1              @ ../Drivers/STM32F4xx_HAL_Driver/Src/stm32f4xx_hal_tim_ex.c:2350:3
	b	.LBB17_9
.Ltmp269:
.LBB17_2:
	.loc	7 2351 12                       @ ../Drivers/STM32F4xx_HAL_Driver/Src/stm32f4xx_hal_tim_ex.c:2351:12
	ldr	r0, [sp, #4]
	.loc	7 2351 20 is_stmt 0             @ ../Drivers/STM32F4xx_HAL_Driver/Src/stm32f4xx_hal_tim_ex.c:2351:20
	ldr	r1, [sp]
	ldr	r1, [r1, #40]
.Ltmp270:
	.loc	7 2351 12                       @ ../Drivers/STM32F4xx_HAL_Driver/Src/stm32f4xx_hal_tim_ex.c:2351:12
	cmp	r0, r1
	bne	.LBB17_4
	b	.LBB17_3
.LBB17_3:
.Ltmp271:
	.loc	7 2353 5 is_stmt 1              @ ../Drivers/STM32F4xx_HAL_Driver/Src/stm32f4xx_hal_tim_ex.c:2353:5
	ldr	r1, [sp]
	movs	r0, #2
	.loc	7 2353 19 is_stmt 0             @ ../Drivers/STM32F4xx_HAL_Driver/Src/stm32f4xx_hal_tim_ex.c:2353:19
	strb	r0, [r1, #28]
	.loc	7 2354 135 is_stmt 1            @ ../Drivers/STM32F4xx_HAL_Driver/Src/stm32f4xx_hal_tim_ex.c:2354:135
	ldr	r1, [sp]
	movs	r0, #1
	.loc	7 2354 159 is_stmt 0            @ ../Drivers/STM32F4xx_HAL_Driver/Src/stm32f4xx_hal_tim_ex.c:2354:159
	strb.w	r0, [r1, #67]
	.loc	7 2355 3 is_stmt 1              @ ../Drivers/STM32F4xx_HAL_Driver/Src/stm32f4xx_hal_tim_ex.c:2355:3
	b	.LBB17_8
.Ltmp272:
.LBB17_4:
	.loc	7 2356 12                       @ ../Drivers/STM32F4xx_HAL_Driver/Src/stm32f4xx_hal_tim_ex.c:2356:12
	ldr	r0, [sp, #4]
	.loc	7 2356 20 is_stmt 0             @ ../Drivers/STM32F4xx_HAL_Driver/Src/stm32f4xx_hal_tim_ex.c:2356:20
	ldr	r1, [sp]
	ldr	r1, [r1, #44]
.Ltmp273:
	.loc	7 2356 12                       @ ../Drivers/STM32F4xx_HAL_Driver/Src/stm32f4xx_hal_tim_ex.c:2356:12
	cmp	r0, r1
	bne	.LBB17_6
	b	.LBB17_5
.LBB17_5:
.Ltmp274:
	.loc	7 2358 5 is_stmt 1              @ ../Drivers/STM32F4xx_HAL_Driver/Src/stm32f4xx_hal_tim_ex.c:2358:5
	ldr	r1, [sp]
	movs	r0, #4
	.loc	7 2358 19 is_stmt 0             @ ../Drivers/STM32F4xx_HAL_Driver/Src/stm32f4xx_hal_tim_ex.c:2358:19
	strb	r0, [r1, #28]
	.loc	7 2359 229 is_stmt 1            @ ../Drivers/STM32F4xx_HAL_Driver/Src/stm32f4xx_hal_tim_ex.c:2359:229
	ldr	r1, [sp]
	movs	r0, #1
	.loc	7 2359 253 is_stmt 0            @ ../Drivers/STM32F4xx_HAL_Driver/Src/stm32f4xx_hal_tim_ex.c:2359:253
	strb.w	r0, [r1, #68]
	.loc	7 2360 3 is_stmt 1              @ ../Drivers/STM32F4xx_HAL_Driver/Src/stm32f4xx_hal_tim_ex.c:2360:3
	b	.LBB17_7
.Ltmp275:
.LBB17_6:
	.loc	7 0 3 is_stmt 0                 @ ../Drivers/STM32F4xx_HAL_Driver/Src/stm32f4xx_hal_tim_ex.c:0:3
	b	.LBB17_7
.LBB17_7:
	b	.LBB17_8
.LBB17_8:
	b	.LBB17_9
.LBB17_9:
	.loc	7 2369 25 is_stmt 1             @ ../Drivers/STM32F4xx_HAL_Driver/Src/stm32f4xx_hal_tim_ex.c:2369:25
	ldr	r0, [sp]
	.loc	7 2369 3 is_stmt 0              @ ../Drivers/STM32F4xx_HAL_Driver/Src/stm32f4xx_hal_tim_ex.c:2369:3
	bl	HAL_TIM_ErrorCallback
	.loc	7 2372 3 is_stmt 1              @ ../Drivers/STM32F4xx_HAL_Driver/Src/stm32f4xx_hal_tim_ex.c:2372:3
	ldr	r1, [sp]
	movs	r0, #0
	.loc	7 2372 17 is_stmt 0             @ ../Drivers/STM32F4xx_HAL_Driver/Src/stm32f4xx_hal_tim_ex.c:2372:17
	strb	r0, [r1, #28]
	.loc	7 2373 1 is_stmt 1              @ ../Drivers/STM32F4xx_HAL_Driver/Src/stm32f4xx_hal_tim_ex.c:2373:1
	add	sp, #8
	pop	{r7, pc}
.Ltmp276:
.Lfunc_end17:
	.size	TIM_DMAErrorCCxN, .Lfunc_end17-TIM_DMAErrorCCxN
	.cfi_endproc
	.cantunwind
	.fnend
                                        @ -- End function
	.section	.text.HAL_TIMEx_OCN_Stop_DMA,"ax",%progbits
	.hidden	HAL_TIMEx_OCN_Stop_DMA          @ -- Begin function HAL_TIMEx_OCN_Stop_DMA
	.globl	HAL_TIMEx_OCN_Stop_DMA
	.p2align	2
	.type	HAL_TIMEx_OCN_Stop_DMA,%function
	.code	16                              @ @HAL_TIMEx_OCN_Stop_DMA
	.thumb_func
HAL_TIMEx_OCN_Stop_DMA:
.Lfunc_begin18:
	.loc	7 1009 0                        @ ../Drivers/STM32F4xx_HAL_Driver/Src/stm32f4xx_hal_tim_ex.c:1009:0
	.fnstart
	.cfi_startproc
@ %bb.0:
	.save	{r7, lr}
	push	{r7, lr}
	.cfi_def_cfa_offset 8
	.cfi_offset lr, -4
	.cfi_offset r7, -8
	.pad	#24
	sub	sp, #24
	.cfi_def_cfa_offset 32
	str	r0, [sp, #20]
	str	r1, [sp, #16]
	movs	r0, #0
.Ltmp277:
	.loc	7 1010 21 prologue_end          @ ../Drivers/STM32F4xx_HAL_Driver/Src/stm32f4xx_hal_tim_ex.c:1010:21
	strb.w	r0, [sp, #15]
	.loc	7 1015 11                       @ ../Drivers/STM32F4xx_HAL_Driver/Src/stm32f4xx_hal_tim_ex.c:1015:11
	ldr	r0, [sp, #16]
	.loc	7 1015 3 is_stmt 0              @ ../Drivers/STM32F4xx_HAL_Driver/Src/stm32f4xx_hal_tim_ex.c:1015:3
	str	r0, [sp, #8]                    @ 4-byte Spill
	cbz	r0, .LBB18_3
	b	.LBB18_1
.LBB18_1:
	ldr	r0, [sp, #8]                    @ 4-byte Reload
	cmp	r0, #4
	beq	.LBB18_4
	b	.LBB18_2
.LBB18_2:
	ldr	r0, [sp, #8]                    @ 4-byte Reload
	cmp	r0, #8
	beq	.LBB18_5
	b	.LBB18_6
.LBB18_3:
.Ltmp278:
	.loc	7 1020 9 is_stmt 1              @ ../Drivers/STM32F4xx_HAL_Driver/Src/stm32f4xx_hal_tim_ex.c:1020:9
	ldr	r0, [sp, #20]
	.loc	7 1020 16 is_stmt 0             @ ../Drivers/STM32F4xx_HAL_Driver/Src/stm32f4xx_hal_tim_ex.c:1020:16
	ldr	r1, [r0]
	.loc	7 1020 31                       @ ../Drivers/STM32F4xx_HAL_Driver/Src/stm32f4xx_hal_tim_ex.c:1020:31
	ldr	r0, [r1, #12]
	bic	r0, r0, #512
	str	r0, [r1, #12]
	.loc	7 1021 30 is_stmt 1             @ ../Drivers/STM32F4xx_HAL_Driver/Src/stm32f4xx_hal_tim_ex.c:1021:30
	ldr	r0, [sp, #20]
	ldr	r0, [r0, #36]
	.loc	7 1021 13 is_stmt 0             @ ../Drivers/STM32F4xx_HAL_Driver/Src/stm32f4xx_hal_tim_ex.c:1021:13
	bl	HAL_DMA_Abort_IT
	.loc	7 1022 7 is_stmt 1              @ ../Drivers/STM32F4xx_HAL_Driver/Src/stm32f4xx_hal_tim_ex.c:1022:7
	b	.LBB18_7
.Ltmp279:
.LBB18_4:
	.loc	7 1028 9                        @ ../Drivers/STM32F4xx_HAL_Driver/Src/stm32f4xx_hal_tim_ex.c:1028:9
	ldr	r0, [sp, #20]
	.loc	7 1028 16 is_stmt 0             @ ../Drivers/STM32F4xx_HAL_Driver/Src/stm32f4xx_hal_tim_ex.c:1028:16
	ldr	r1, [r0]
	.loc	7 1028 31                       @ ../Drivers/STM32F4xx_HAL_Driver/Src/stm32f4xx_hal_tim_ex.c:1028:31
	ldr	r0, [r1, #12]
	bic	r0, r0, #1024
	str	r0, [r1, #12]
	.loc	7 1029 30 is_stmt 1             @ ../Drivers/STM32F4xx_HAL_Driver/Src/stm32f4xx_hal_tim_ex.c:1029:30
	ldr	r0, [sp, #20]
	ldr	r0, [r0, #40]
	.loc	7 1029 13 is_stmt 0             @ ../Drivers/STM32F4xx_HAL_Driver/Src/stm32f4xx_hal_tim_ex.c:1029:13
	bl	HAL_DMA_Abort_IT
	.loc	7 1030 7 is_stmt 1              @ ../Drivers/STM32F4xx_HAL_Driver/Src/stm32f4xx_hal_tim_ex.c:1030:7
	b	.LBB18_7
.Ltmp280:
.LBB18_5:
	.loc	7 1036 9                        @ ../Drivers/STM32F4xx_HAL_Driver/Src/stm32f4xx_hal_tim_ex.c:1036:9
	ldr	r0, [sp, #20]
	.loc	7 1036 16 is_stmt 0             @ ../Drivers/STM32F4xx_HAL_Driver/Src/stm32f4xx_hal_tim_ex.c:1036:16
	ldr	r1, [r0]
	.loc	7 1036 31                       @ ../Drivers/STM32F4xx_HAL_Driver/Src/stm32f4xx_hal_tim_ex.c:1036:31
	ldr	r0, [r1, #12]
	bic	r0, r0, #2048
	str	r0, [r1, #12]
	.loc	7 1037 30 is_stmt 1             @ ../Drivers/STM32F4xx_HAL_Driver/Src/stm32f4xx_hal_tim_ex.c:1037:30
	ldr	r0, [sp, #20]
	ldr	r0, [r0, #44]
	.loc	7 1037 13 is_stmt 0             @ ../Drivers/STM32F4xx_HAL_Driver/Src/stm32f4xx_hal_tim_ex.c:1037:13
	bl	HAL_DMA_Abort_IT
	.loc	7 1038 7 is_stmt 1              @ ../Drivers/STM32F4xx_HAL_Driver/Src/stm32f4xx_hal_tim_ex.c:1038:7
	b	.LBB18_7
.Ltmp281:
.LBB18_6:
	.loc	7 0 7 is_stmt 0                 @ ../Drivers/STM32F4xx_HAL_Driver/Src/stm32f4xx_hal_tim_ex.c:0:7
	movs	r0, #1
	.loc	7 1042 14 is_stmt 1             @ ../Drivers/STM32F4xx_HAL_Driver/Src/stm32f4xx_hal_tim_ex.c:1042:14
	strb.w	r0, [sp, #15]
	.loc	7 1043 7                        @ ../Drivers/STM32F4xx_HAL_Driver/Src/stm32f4xx_hal_tim_ex.c:1043:7
	b	.LBB18_7
.Ltmp282:
.LBB18_7:
	.loc	7 1046 7                        @ ../Drivers/STM32F4xx_HAL_Driver/Src/stm32f4xx_hal_tim_ex.c:1046:7
	ldrb.w	r0, [sp, #15]
.Ltmp283:
	.loc	7 1046 7 is_stmt 0              @ ../Drivers/STM32F4xx_HAL_Driver/Src/stm32f4xx_hal_tim_ex.c:1046:7
	cmp	r0, #0
	bne	.LBB18_30
	b	.LBB18_8
.LBB18_8:
.Ltmp284:
	.loc	7 1049 24 is_stmt 1             @ ../Drivers/STM32F4xx_HAL_Driver/Src/stm32f4xx_hal_tim_ex.c:1049:24
	ldr	r0, [sp, #20]
	.loc	7 1049 30 is_stmt 0             @ ../Drivers/STM32F4xx_HAL_Driver/Src/stm32f4xx_hal_tim_ex.c:1049:30
	ldr	r0, [r0]
	.loc	7 1049 40                       @ ../Drivers/STM32F4xx_HAL_Driver/Src/stm32f4xx_hal_tim_ex.c:1049:40
	ldr	r1, [sp, #16]
	movs	r2, #0
	.loc	7 1049 5                        @ ../Drivers/STM32F4xx_HAL_Driver/Src/stm32f4xx_hal_tim_ex.c:1049:5
	bl	TIM_CCxNChannelCmd
	.loc	7 1052 5 is_stmt 1              @ ../Drivers/STM32F4xx_HAL_Driver/Src/stm32f4xx_hal_tim_ex.c:1052:5
	b	.LBB18_9
.LBB18_9:
.Ltmp285:
	.loc	7 1052 16 is_stmt 0             @ ../Drivers/STM32F4xx_HAL_Driver/Src/stm32f4xx_hal_tim_ex.c:1052:16
	ldr	r0, [sp, #20]
	.loc	7 1052 23                       @ ../Drivers/STM32F4xx_HAL_Driver/Src/stm32f4xx_hal_tim_ex.c:1052:23
	ldr	r0, [r0]
	.loc	7 1052 33                       @ ../Drivers/STM32F4xx_HAL_Driver/Src/stm32f4xx_hal_tim_ex.c:1052:33
	ldr	r0, [r0, #32]
	movw	r1, #4369
.Ltmp286:
	.loc	7 1052 14                       @ ../Drivers/STM32F4xx_HAL_Driver/Src/stm32f4xx_hal_tim_ex.c:1052:14
	tst	r0, r1
	bne	.LBB18_13
	b	.LBB18_10
.LBB18_10:
.Ltmp287:
	.loc	7 1052 141                      @ ../Drivers/STM32F4xx_HAL_Driver/Src/stm32f4xx_hal_tim_ex.c:1052:141
	ldr	r0, [sp, #20]
	.loc	7 1052 148                      @ ../Drivers/STM32F4xx_HAL_Driver/Src/stm32f4xx_hal_tim_ex.c:1052:148
	ldr	r0, [r0]
	.loc	7 1052 158                      @ ../Drivers/STM32F4xx_HAL_Driver/Src/stm32f4xx_hal_tim_ex.c:1052:158
	ldr	r0, [r0, #32]
	movw	r1, #1092
.Ltmp288:
	.loc	7 1052 139                      @ ../Drivers/STM32F4xx_HAL_Driver/Src/stm32f4xx_hal_tim_ex.c:1052:139
	tst	r0, r1
	bne	.LBB18_12
	b	.LBB18_11
.LBB18_11:
.Ltmp289:
	.loc	7 1052 244                      @ ../Drivers/STM32F4xx_HAL_Driver/Src/stm32f4xx_hal_tim_ex.c:1052:244
	ldr	r0, [sp, #20]
	.loc	7 1052 251                      @ ../Drivers/STM32F4xx_HAL_Driver/Src/stm32f4xx_hal_tim_ex.c:1052:251
	ldr	r1, [r0]
	.loc	7 1052 266                      @ ../Drivers/STM32F4xx_HAL_Driver/Src/stm32f4xx_hal_tim_ex.c:1052:266
	ldr	r0, [r1, #68]
	bic	r0, r0, #32768
	str	r0, [r1, #68]
	.loc	7 1052 290                      @ ../Drivers/STM32F4xx_HAL_Driver/Src/stm32f4xx_hal_tim_ex.c:1052:290
	b	.LBB18_12
.Ltmp290:
.LBB18_12:
	.loc	7 1052 292                      @ ../Drivers/STM32F4xx_HAL_Driver/Src/stm32f4xx_hal_tim_ex.c:1052:292
	b	.LBB18_13
.Ltmp291:
.LBB18_13:
	.loc	7 1052 294                      @ ../Drivers/STM32F4xx_HAL_Driver/Src/stm32f4xx_hal_tim_ex.c:1052:294
	b	.LBB18_14
.Ltmp292:
.LBB18_14:
	.loc	7 1055 5 is_stmt 1              @ ../Drivers/STM32F4xx_HAL_Driver/Src/stm32f4xx_hal_tim_ex.c:1055:5
	b	.LBB18_15
.LBB18_15:
.Ltmp293:
	.loc	7 1055 16 is_stmt 0             @ ../Drivers/STM32F4xx_HAL_Driver/Src/stm32f4xx_hal_tim_ex.c:1055:16
	ldr	r0, [sp, #20]
	.loc	7 1055 23                       @ ../Drivers/STM32F4xx_HAL_Driver/Src/stm32f4xx_hal_tim_ex.c:1055:23
	ldr	r0, [r0]
	.loc	7 1055 33                       @ ../Drivers/STM32F4xx_HAL_Driver/Src/stm32f4xx_hal_tim_ex.c:1055:33
	ldr	r0, [r0, #32]
	movw	r1, #4369
.Ltmp294:
	.loc	7 1055 14                       @ ../Drivers/STM32F4xx_HAL_Driver/Src/stm32f4xx_hal_tim_ex.c:1055:14
	tst	r0, r1
	bne	.LBB18_19
	b	.LBB18_16
.LBB18_16:
.Ltmp295:
	.loc	7 1055 141                      @ ../Drivers/STM32F4xx_HAL_Driver/Src/stm32f4xx_hal_tim_ex.c:1055:141
	ldr	r0, [sp, #20]
	.loc	7 1055 148                      @ ../Drivers/STM32F4xx_HAL_Driver/Src/stm32f4xx_hal_tim_ex.c:1055:148
	ldr	r0, [r0]
	.loc	7 1055 158                      @ ../Drivers/STM32F4xx_HAL_Driver/Src/stm32f4xx_hal_tim_ex.c:1055:158
	ldr	r0, [r0, #32]
	movw	r1, #1092
.Ltmp296:
	.loc	7 1055 139                      @ ../Drivers/STM32F4xx_HAL_Driver/Src/stm32f4xx_hal_tim_ex.c:1055:139
	tst	r0, r1
	bne	.LBB18_18
	b	.LBB18_17
.LBB18_17:
.Ltmp297:
	.loc	7 1055 244                      @ ../Drivers/STM32F4xx_HAL_Driver/Src/stm32f4xx_hal_tim_ex.c:1055:244
	ldr	r0, [sp, #20]
	.loc	7 1055 251                      @ ../Drivers/STM32F4xx_HAL_Driver/Src/stm32f4xx_hal_tim_ex.c:1055:251
	ldr	r1, [r0]
	.loc	7 1055 265                      @ ../Drivers/STM32F4xx_HAL_Driver/Src/stm32f4xx_hal_tim_ex.c:1055:265
	ldr	r0, [r1]
	bic	r0, r0, #1
	str	r0, [r1]
	.loc	7 1055 288                      @ ../Drivers/STM32F4xx_HAL_Driver/Src/stm32f4xx_hal_tim_ex.c:1055:288
	b	.LBB18_18
.Ltmp298:
.LBB18_18:
	.loc	7 1055 290                      @ ../Drivers/STM32F4xx_HAL_Driver/Src/stm32f4xx_hal_tim_ex.c:1055:290
	b	.LBB18_19
.Ltmp299:
.LBB18_19:
	.loc	7 1055 292                      @ ../Drivers/STM32F4xx_HAL_Driver/Src/stm32f4xx_hal_tim_ex.c:1055:292
	b	.LBB18_20
.Ltmp300:
.LBB18_20:
	.loc	7 1058 8 is_stmt 1              @ ../Drivers/STM32F4xx_HAL_Driver/Src/stm32f4xx_hal_tim_ex.c:1058:8
	ldr	r0, [sp, #16]
	.loc	7 1058 6 is_stmt 0              @ ../Drivers/STM32F4xx_HAL_Driver/Src/stm32f4xx_hal_tim_ex.c:1058:6
	cbnz	r0, .LBB18_22
	b	.LBB18_21
.LBB18_21:
	.loc	7 1058 37                       @ ../Drivers/STM32F4xx_HAL_Driver/Src/stm32f4xx_hal_tim_ex.c:1058:37
	ldr	r1, [sp, #20]
	movs	r0, #1
	.loc	7 1058 61                       @ ../Drivers/STM32F4xx_HAL_Driver/Src/stm32f4xx_hal_tim_ex.c:1058:61
	strb.w	r0, [r1, #66]
	.loc	7 1058 6                        @ ../Drivers/STM32F4xx_HAL_Driver/Src/stm32f4xx_hal_tim_ex.c:1058:6
	b	.LBB18_29
.LBB18_22:
	.loc	7 1058 98                       @ ../Drivers/STM32F4xx_HAL_Driver/Src/stm32f4xx_hal_tim_ex.c:1058:98
	ldr	r0, [sp, #16]
	.loc	7 1058 96                       @ ../Drivers/STM32F4xx_HAL_Driver/Src/stm32f4xx_hal_tim_ex.c:1058:96
	cmp	r0, #4
	bne	.LBB18_24
	b	.LBB18_23
.LBB18_23:
	.loc	7 1058 127                      @ ../Drivers/STM32F4xx_HAL_Driver/Src/stm32f4xx_hal_tim_ex.c:1058:127
	ldr	r1, [sp, #20]
	movs	r0, #1
	.loc	7 1058 151                      @ ../Drivers/STM32F4xx_HAL_Driver/Src/stm32f4xx_hal_tim_ex.c:1058:151
	strb.w	r0, [r1, #67]
	.loc	7 1058 96                       @ ../Drivers/STM32F4xx_HAL_Driver/Src/stm32f4xx_hal_tim_ex.c:1058:96
	str	r0, [sp, #4]                    @ 4-byte Spill
	b	.LBB18_28
.LBB18_24:
	.loc	7 1058 188                      @ ../Drivers/STM32F4xx_HAL_Driver/Src/stm32f4xx_hal_tim_ex.c:1058:188
	ldr	r0, [sp, #16]
	.loc	7 1058 186                      @ ../Drivers/STM32F4xx_HAL_Driver/Src/stm32f4xx_hal_tim_ex.c:1058:186
	cmp	r0, #8
	bne	.LBB18_26
	b	.LBB18_25
.LBB18_25:
	.loc	7 1058 217                      @ ../Drivers/STM32F4xx_HAL_Driver/Src/stm32f4xx_hal_tim_ex.c:1058:217
	ldr	r1, [sp, #20]
	movs	r0, #1
	.loc	7 1058 241                      @ ../Drivers/STM32F4xx_HAL_Driver/Src/stm32f4xx_hal_tim_ex.c:1058:241
	strb.w	r0, [r1, #68]
	.loc	7 1058 186                      @ ../Drivers/STM32F4xx_HAL_Driver/Src/stm32f4xx_hal_tim_ex.c:1058:186
	str	r0, [sp]                        @ 4-byte Spill
	b	.LBB18_27
.LBB18_26:
	.loc	7 1058 278                      @ ../Drivers/STM32F4xx_HAL_Driver/Src/stm32f4xx_hal_tim_ex.c:1058:278
	ldr	r1, [sp, #20]
	movs	r0, #1
	.loc	7 1058 302                      @ ../Drivers/STM32F4xx_HAL_Driver/Src/stm32f4xx_hal_tim_ex.c:1058:302
	strb.w	r0, [r1, #69]
	.loc	7 1058 186                      @ ../Drivers/STM32F4xx_HAL_Driver/Src/stm32f4xx_hal_tim_ex.c:1058:186
	str	r0, [sp]                        @ 4-byte Spill
	b	.LBB18_27
.LBB18_27:
	ldr	r0, [sp]                        @ 4-byte Reload
	.loc	7 1058 96                       @ ../Drivers/STM32F4xx_HAL_Driver/Src/stm32f4xx_hal_tim_ex.c:1058:96
	str	r0, [sp, #4]                    @ 4-byte Spill
	b	.LBB18_28
.LBB18_28:
	ldr	r0, [sp, #4]                    @ 4-byte Reload
	.loc	7 1058 6                        @ ../Drivers/STM32F4xx_HAL_Driver/Src/stm32f4xx_hal_tim_ex.c:1058:6
	b	.LBB18_29
.LBB18_29:
	.loc	7 1059 3 is_stmt 1              @ ../Drivers/STM32F4xx_HAL_Driver/Src/stm32f4xx_hal_tim_ex.c:1059:3
	b	.LBB18_30
.Ltmp301:
.LBB18_30:
	.loc	7 1062 10                       @ ../Drivers/STM32F4xx_HAL_Driver/Src/stm32f4xx_hal_tim_ex.c:1062:10
	ldrb.w	r0, [sp, #15]
	.loc	7 1062 3 is_stmt 0              @ ../Drivers/STM32F4xx_HAL_Driver/Src/stm32f4xx_hal_tim_ex.c:1062:3
	add	sp, #24
	pop	{r7, pc}
.Ltmp302:
.Lfunc_end18:
	.size	HAL_TIMEx_OCN_Stop_DMA, .Lfunc_end18-HAL_TIMEx_OCN_Stop_DMA
	.cfi_endproc
	.cantunwind
	.fnend
                                        @ -- End function
	.section	.text.HAL_TIMEx_PWMN_Start,"ax",%progbits
	.hidden	HAL_TIMEx_PWMN_Start            @ -- Begin function HAL_TIMEx_PWMN_Start
	.globl	HAL_TIMEx_PWMN_Start
	.p2align	2
	.type	HAL_TIMEx_PWMN_Start,%function
	.code	16                              @ @HAL_TIMEx_PWMN_Start
	.thumb_func
HAL_TIMEx_PWMN_Start:
.Lfunc_begin19:
	.loc	7 1099 0 is_stmt 1              @ ../Drivers/STM32F4xx_HAL_Driver/Src/stm32f4xx_hal_tim_ex.c:1099:0
	.fnstart
	.cfi_startproc
@ %bb.0:
	.save	{r7, lr}
	push	{r7, lr}
	.cfi_def_cfa_offset 8
	.cfi_offset lr, -4
	.cfi_offset r7, -8
	.pad	#40
	sub	sp, #40
	.cfi_def_cfa_offset 48
	str	r0, [sp, #32]
	str	r1, [sp, #28]
.Ltmp303:
	.loc	7 1106 10 prologue_end          @ ../Drivers/STM32F4xx_HAL_Driver/Src/stm32f4xx_hal_tim_ex.c:1106:10
	ldr	r0, [sp, #28]
	.loc	7 1106 8 is_stmt 0              @ ../Drivers/STM32F4xx_HAL_Driver/Src/stm32f4xx_hal_tim_ex.c:1106:8
	cbnz	r0, .LBB19_2
	b	.LBB19_1
.LBB19_1:
	.loc	7 1106 38                       @ ../Drivers/STM32F4xx_HAL_Driver/Src/stm32f4xx_hal_tim_ex.c:1106:38
	ldr	r0, [sp, #32]
	.loc	7 1106 37                       @ ../Drivers/STM32F4xx_HAL_Driver/Src/stm32f4xx_hal_tim_ex.c:1106:37
	ldrb.w	r0, [r0, #66]
	.loc	7 1106 8                        @ ../Drivers/STM32F4xx_HAL_Driver/Src/stm32f4xx_hal_tim_ex.c:1106:8
	str	r0, [sp, #20]                   @ 4-byte Spill
	b	.LBB19_9
.LBB19_2:
	.loc	7 1106 66                       @ ../Drivers/STM32F4xx_HAL_Driver/Src/stm32f4xx_hal_tim_ex.c:1106:66
	ldr	r0, [sp, #28]
	.loc	7 1106 64                       @ ../Drivers/STM32F4xx_HAL_Driver/Src/stm32f4xx_hal_tim_ex.c:1106:64
	cmp	r0, #4
	bne	.LBB19_4
	b	.LBB19_3
.LBB19_3:
	.loc	7 1106 94                       @ ../Drivers/STM32F4xx_HAL_Driver/Src/stm32f4xx_hal_tim_ex.c:1106:94
	ldr	r0, [sp, #32]
	.loc	7 1106 93                       @ ../Drivers/STM32F4xx_HAL_Driver/Src/stm32f4xx_hal_tim_ex.c:1106:93
	ldrb.w	r0, [r0, #67]
	.loc	7 1106 64                       @ ../Drivers/STM32F4xx_HAL_Driver/Src/stm32f4xx_hal_tim_ex.c:1106:64
	str	r0, [sp, #16]                   @ 4-byte Spill
	b	.LBB19_8
.LBB19_4:
	.loc	7 1106 122                      @ ../Drivers/STM32F4xx_HAL_Driver/Src/stm32f4xx_hal_tim_ex.c:1106:122
	ldr	r0, [sp, #28]
	.loc	7 1106 120                      @ ../Drivers/STM32F4xx_HAL_Driver/Src/stm32f4xx_hal_tim_ex.c:1106:120
	cmp	r0, #8
	bne	.LBB19_6
	b	.LBB19_5
.LBB19_5:
	.loc	7 1106 150                      @ ../Drivers/STM32F4xx_HAL_Driver/Src/stm32f4xx_hal_tim_ex.c:1106:150
	ldr	r0, [sp, #32]
	.loc	7 1106 149                      @ ../Drivers/STM32F4xx_HAL_Driver/Src/stm32f4xx_hal_tim_ex.c:1106:149
	ldrb.w	r0, [r0, #68]
	.loc	7 1106 120                      @ ../Drivers/STM32F4xx_HAL_Driver/Src/stm32f4xx_hal_tim_ex.c:1106:120
	str	r0, [sp, #12]                   @ 4-byte Spill
	b	.LBB19_7
.LBB19_6:
	.loc	7 1106 177                      @ ../Drivers/STM32F4xx_HAL_Driver/Src/stm32f4xx_hal_tim_ex.c:1106:177
	ldr	r0, [sp, #32]
	.loc	7 1106 176                      @ ../Drivers/STM32F4xx_HAL_Driver/Src/stm32f4xx_hal_tim_ex.c:1106:176
	ldrb.w	r0, [r0, #69]
	.loc	7 1106 120                      @ ../Drivers/STM32F4xx_HAL_Driver/Src/stm32f4xx_hal_tim_ex.c:1106:120
	str	r0, [sp, #12]                   @ 4-byte Spill
	b	.LBB19_7
.LBB19_7:
	ldr	r0, [sp, #12]                   @ 4-byte Reload
	.loc	7 1106 64                       @ ../Drivers/STM32F4xx_HAL_Driver/Src/stm32f4xx_hal_tim_ex.c:1106:64
	str	r0, [sp, #16]                   @ 4-byte Spill
	b	.LBB19_8
.LBB19_8:
	ldr	r0, [sp, #16]                   @ 4-byte Reload
	.loc	7 1106 8                        @ ../Drivers/STM32F4xx_HAL_Driver/Src/stm32f4xx_hal_tim_ex.c:1106:8
	str	r0, [sp, #20]                   @ 4-byte Spill
	b	.LBB19_9
.LBB19_9:
	ldr	r0, [sp, #20]                   @ 4-byte Reload
.Ltmp304:
	.loc	7 1106 7                        @ ../Drivers/STM32F4xx_HAL_Driver/Src/stm32f4xx_hal_tim_ex.c:1106:7
	cmp	r0, #1
	beq	.LBB19_11
	b	.LBB19_10
.LBB19_10:
	.loc	7 0 7                           @ ../Drivers/STM32F4xx_HAL_Driver/Src/stm32f4xx_hal_tim_ex.c:0:7
	movs	r0, #1
.Ltmp305:
	.loc	7 1108 5 is_stmt 1              @ ../Drivers/STM32F4xx_HAL_Driver/Src/stm32f4xx_hal_tim_ex.c:1108:5
	strb.w	r0, [sp, #39]
	b	.LBB19_33
.Ltmp306:
.LBB19_11:
	.loc	7 1112 6                        @ ../Drivers/STM32F4xx_HAL_Driver/Src/stm32f4xx_hal_tim_ex.c:1112:6
	ldr	r0, [sp, #28]
	.loc	7 1112 4 is_stmt 0              @ ../Drivers/STM32F4xx_HAL_Driver/Src/stm32f4xx_hal_tim_ex.c:1112:4
	cbnz	r0, .LBB19_13
	b	.LBB19_12
.LBB19_12:
	.loc	7 1112 35                       @ ../Drivers/STM32F4xx_HAL_Driver/Src/stm32f4xx_hal_tim_ex.c:1112:35
	ldr	r1, [sp, #32]
	movs	r0, #2
	.loc	7 1112 59                       @ ../Drivers/STM32F4xx_HAL_Driver/Src/stm32f4xx_hal_tim_ex.c:1112:59
	strb.w	r0, [r1, #66]
	.loc	7 1112 4                        @ ../Drivers/STM32F4xx_HAL_Driver/Src/stm32f4xx_hal_tim_ex.c:1112:4
	b	.LBB19_20
.LBB19_13:
	.loc	7 1112 95                       @ ../Drivers/STM32F4xx_HAL_Driver/Src/stm32f4xx_hal_tim_ex.c:1112:95
	ldr	r0, [sp, #28]
	.loc	7 1112 93                       @ ../Drivers/STM32F4xx_HAL_Driver/Src/stm32f4xx_hal_tim_ex.c:1112:93
	cmp	r0, #4
	bne	.LBB19_15
	b	.LBB19_14
.LBB19_14:
	.loc	7 1112 124                      @ ../Drivers/STM32F4xx_HAL_Driver/Src/stm32f4xx_hal_tim_ex.c:1112:124
	ldr	r1, [sp, #32]
	movs	r0, #2
	.loc	7 1112 148                      @ ../Drivers/STM32F4xx_HAL_Driver/Src/stm32f4xx_hal_tim_ex.c:1112:148
	strb.w	r0, [r1, #67]
	.loc	7 1112 93                       @ ../Drivers/STM32F4xx_HAL_Driver/Src/stm32f4xx_hal_tim_ex.c:1112:93
	str	r0, [sp, #8]                    @ 4-byte Spill
	b	.LBB19_19
.LBB19_15:
	.loc	7 1112 184                      @ ../Drivers/STM32F4xx_HAL_Driver/Src/stm32f4xx_hal_tim_ex.c:1112:184
	ldr	r0, [sp, #28]
	.loc	7 1112 182                      @ ../Drivers/STM32F4xx_HAL_Driver/Src/stm32f4xx_hal_tim_ex.c:1112:182
	cmp	r0, #8
	bne	.LBB19_17
	b	.LBB19_16
.LBB19_16:
	.loc	7 1112 213                      @ ../Drivers/STM32F4xx_HAL_Driver/Src/stm32f4xx_hal_tim_ex.c:1112:213
	ldr	r1, [sp, #32]
	movs	r0, #2
	.loc	7 1112 237                      @ ../Drivers/STM32F4xx_HAL_Driver/Src/stm32f4xx_hal_tim_ex.c:1112:237
	strb.w	r0, [r1, #68]
	.loc	7 1112 182                      @ ../Drivers/STM32F4xx_HAL_Driver/Src/stm32f4xx_hal_tim_ex.c:1112:182
	str	r0, [sp, #4]                    @ 4-byte Spill
	b	.LBB19_18
.LBB19_17:
	.loc	7 1112 273                      @ ../Drivers/STM32F4xx_HAL_Driver/Src/stm32f4xx_hal_tim_ex.c:1112:273
	ldr	r1, [sp, #32]
	movs	r0, #2
	.loc	7 1112 297                      @ ../Drivers/STM32F4xx_HAL_Driver/Src/stm32f4xx_hal_tim_ex.c:1112:297
	strb.w	r0, [r1, #69]
	.loc	7 1112 182                      @ ../Drivers/STM32F4xx_HAL_Driver/Src/stm32f4xx_hal_tim_ex.c:1112:182
	str	r0, [sp, #4]                    @ 4-byte Spill
	b	.LBB19_18
.LBB19_18:
	ldr	r0, [sp, #4]                    @ 4-byte Reload
	.loc	7 1112 93                       @ ../Drivers/STM32F4xx_HAL_Driver/Src/stm32f4xx_hal_tim_ex.c:1112:93
	str	r0, [sp, #8]                    @ 4-byte Spill
	b	.LBB19_19
.LBB19_19:
	ldr	r0, [sp, #8]                    @ 4-byte Reload
	.loc	7 1112 4                        @ ../Drivers/STM32F4xx_HAL_Driver/Src/stm32f4xx_hal_tim_ex.c:1112:4
	b	.LBB19_20
.LBB19_20:
	.loc	7 1115 22 is_stmt 1             @ ../Drivers/STM32F4xx_HAL_Driver/Src/stm32f4xx_hal_tim_ex.c:1115:22
	ldr	r0, [sp, #32]
	.loc	7 1115 28 is_stmt 0             @ ../Drivers/STM32F4xx_HAL_Driver/Src/stm32f4xx_hal_tim_ex.c:1115:28
	ldr	r0, [r0]
	.loc	7 1115 38                       @ ../Drivers/STM32F4xx_HAL_Driver/Src/stm32f4xx_hal_tim_ex.c:1115:38
	ldr	r1, [sp, #28]
	movs	r2, #4
	.loc	7 1115 3                        @ ../Drivers/STM32F4xx_HAL_Driver/Src/stm32f4xx_hal_tim_ex.c:1115:3
	bl	TIM_CCxNChannelCmd
	.loc	7 1118 5 is_stmt 1              @ ../Drivers/STM32F4xx_HAL_Driver/Src/stm32f4xx_hal_tim_ex.c:1118:5
	ldr	r0, [sp, #32]
	.loc	7 1118 12 is_stmt 0             @ ../Drivers/STM32F4xx_HAL_Driver/Src/stm32f4xx_hal_tim_ex.c:1118:12
	ldr	r1, [r0]
	.loc	7 1118 26                       @ ../Drivers/STM32F4xx_HAL_Driver/Src/stm32f4xx_hal_tim_ex.c:1118:26
	ldr	r0, [r1, #68]
	orr	r0, r0, #32768
	str	r0, [r1, #68]
.Ltmp307:
	.loc	7 1121 10 is_stmt 1             @ ../Drivers/STM32F4xx_HAL_Driver/Src/stm32f4xx_hal_tim_ex.c:1121:10
	ldr	r0, [sp, #32]
	.loc	7 1121 16 is_stmt 0             @ ../Drivers/STM32F4xx_HAL_Driver/Src/stm32f4xx_hal_tim_ex.c:1121:16
	ldr	r0, [r0]
	movs	r1, #0
	movt	r1, #16385
	.loc	7 1121 91                       @ ../Drivers/STM32F4xx_HAL_Driver/Src/stm32f4xx_hal_tim_ex.c:1121:91
	cmp	r0, r1
	beq	.LBB19_28
	b	.LBB19_21
.LBB19_21:
	.loc	7 1121 96                       @ ../Drivers/STM32F4xx_HAL_Driver/Src/stm32f4xx_hal_tim_ex.c:1121:96
	ldr	r0, [sp, #32]
	.loc	7 1121 102                      @ ../Drivers/STM32F4xx_HAL_Driver/Src/stm32f4xx_hal_tim_ex.c:1121:102
	ldr	r0, [r0]
	.loc	7 1121 160                      @ ../Drivers/STM32F4xx_HAL_Driver/Src/stm32f4xx_hal_tim_ex.c:1121:160
	cmp.w	r0, #1073741824
	beq	.LBB19_28
	b	.LBB19_22
.LBB19_22:
	.loc	7 1121 165                      @ ../Drivers/STM32F4xx_HAL_Driver/Src/stm32f4xx_hal_tim_ex.c:1121:165
	ldr	r0, [sp, #32]
	.loc	7 1121 171                      @ ../Drivers/STM32F4xx_HAL_Driver/Src/stm32f4xx_hal_tim_ex.c:1121:171
	ldr	r0, [r0]
	movw	r1, #1024
	movt	r1, #16384
	.loc	7 1121 229                      @ ../Drivers/STM32F4xx_HAL_Driver/Src/stm32f4xx_hal_tim_ex.c:1121:229
	cmp	r0, r1
	beq	.LBB19_28
	b	.LBB19_23
.LBB19_23:
	.loc	7 1121 234                      @ ../Drivers/STM32F4xx_HAL_Driver/Src/stm32f4xx_hal_tim_ex.c:1121:234
	ldr	r0, [sp, #32]
	.loc	7 1121 240                      @ ../Drivers/STM32F4xx_HAL_Driver/Src/stm32f4xx_hal_tim_ex.c:1121:240
	ldr	r0, [r0]
	movw	r1, #2048
	movt	r1, #16384
	.loc	7 1121 298                      @ ../Drivers/STM32F4xx_HAL_Driver/Src/stm32f4xx_hal_tim_ex.c:1121:298
	cmp	r0, r1
	beq	.LBB19_28
	b	.LBB19_24
.LBB19_24:
	.loc	7 1121 303                      @ ../Drivers/STM32F4xx_HAL_Driver/Src/stm32f4xx_hal_tim_ex.c:1121:303
	ldr	r0, [sp, #32]
	.loc	7 1121 309                      @ ../Drivers/STM32F4xx_HAL_Driver/Src/stm32f4xx_hal_tim_ex.c:1121:309
	ldr	r0, [r0]
	movw	r1, #3072
	movt	r1, #16384
	.loc	7 1121 367                      @ ../Drivers/STM32F4xx_HAL_Driver/Src/stm32f4xx_hal_tim_ex.c:1121:367
	cmp	r0, r1
	beq	.LBB19_28
	b	.LBB19_25
.LBB19_25:
	.loc	7 1121 372                      @ ../Drivers/STM32F4xx_HAL_Driver/Src/stm32f4xx_hal_tim_ex.c:1121:372
	ldr	r0, [sp, #32]
	.loc	7 1121 378                      @ ../Drivers/STM32F4xx_HAL_Driver/Src/stm32f4xx_hal_tim_ex.c:1121:378
	ldr	r0, [r0]
	movw	r1, #1024
	movt	r1, #16385
	.loc	7 1121 453                      @ ../Drivers/STM32F4xx_HAL_Driver/Src/stm32f4xx_hal_tim_ex.c:1121:453
	cmp	r0, r1
	beq	.LBB19_28
	b	.LBB19_26
.LBB19_26:
	.loc	7 1121 458                      @ ../Drivers/STM32F4xx_HAL_Driver/Src/stm32f4xx_hal_tim_ex.c:1121:458
	ldr	r0, [sp, #32]
	.loc	7 1121 464                      @ ../Drivers/STM32F4xx_HAL_Driver/Src/stm32f4xx_hal_tim_ex.c:1121:464
	ldr	r0, [r0]
	movw	r1, #16384
	movt	r1, #16385
	.loc	7 1121 539                      @ ../Drivers/STM32F4xx_HAL_Driver/Src/stm32f4xx_hal_tim_ex.c:1121:539
	cmp	r0, r1
	beq	.LBB19_28
	b	.LBB19_27
.LBB19_27:
	.loc	7 1121 544                      @ ../Drivers/STM32F4xx_HAL_Driver/Src/stm32f4xx_hal_tim_ex.c:1121:544
	ldr	r0, [sp, #32]
	.loc	7 1121 550                      @ ../Drivers/STM32F4xx_HAL_Driver/Src/stm32f4xx_hal_tim_ex.c:1121:550
	ldr	r0, [r0]
	movw	r1, #6144
	movt	r1, #16384
.Ltmp308:
	.loc	7 1121 7                        @ ../Drivers/STM32F4xx_HAL_Driver/Src/stm32f4xx_hal_tim_ex.c:1121:7
	cmp	r0, r1
	bne	.LBB19_31
	b	.LBB19_28
.LBB19_28:
.Ltmp309:
	.loc	7 1123 15 is_stmt 1             @ ../Drivers/STM32F4xx_HAL_Driver/Src/stm32f4xx_hal_tim_ex.c:1123:15
	ldr	r0, [sp, #32]
	.loc	7 1123 21 is_stmt 0             @ ../Drivers/STM32F4xx_HAL_Driver/Src/stm32f4xx_hal_tim_ex.c:1123:21
	ldr	r0, [r0]
	.loc	7 1123 31                       @ ../Drivers/STM32F4xx_HAL_Driver/Src/stm32f4xx_hal_tim_ex.c:1123:31
	ldr	r0, [r0, #8]
	.loc	7 1123 36                       @ ../Drivers/STM32F4xx_HAL_Driver/Src/stm32f4xx_hal_tim_ex.c:1123:36
	and	r0, r0, #7
	.loc	7 1123 13                       @ ../Drivers/STM32F4xx_HAL_Driver/Src/stm32f4xx_hal_tim_ex.c:1123:13
	str	r0, [sp, #24]
.Ltmp310:
	.loc	7 1124 12 is_stmt 1             @ ../Drivers/STM32F4xx_HAL_Driver/Src/stm32f4xx_hal_tim_ex.c:1124:12
	ldr	r0, [sp, #24]
.Ltmp311:
	.loc	7 1124 9 is_stmt 0              @ ../Drivers/STM32F4xx_HAL_Driver/Src/stm32f4xx_hal_tim_ex.c:1124:9
	cmp	r0, #6
	beq	.LBB19_30
	b	.LBB19_29
.LBB19_29:
.Ltmp312:
	.loc	7 1126 9 is_stmt 1              @ ../Drivers/STM32F4xx_HAL_Driver/Src/stm32f4xx_hal_tim_ex.c:1126:9
	ldr	r0, [sp, #32]
	.loc	7 1126 16 is_stmt 0             @ ../Drivers/STM32F4xx_HAL_Driver/Src/stm32f4xx_hal_tim_ex.c:1126:16
	ldr	r1, [r0]
	.loc	7 1126 29                       @ ../Drivers/STM32F4xx_HAL_Driver/Src/stm32f4xx_hal_tim_ex.c:1126:29
	ldr	r0, [r1]
	orr	r0, r0, #1
	str	r0, [r1]
	.loc	7 1127 5 is_stmt 1              @ ../Drivers/STM32F4xx_HAL_Driver/Src/stm32f4xx_hal_tim_ex.c:1127:5
	b	.LBB19_30
.Ltmp313:
.LBB19_30:
	.loc	7 1128 3                        @ ../Drivers/STM32F4xx_HAL_Driver/Src/stm32f4xx_hal_tim_ex.c:1128:3
	b	.LBB19_32
.Ltmp314:
.LBB19_31:
	.loc	7 1131 7                        @ ../Drivers/STM32F4xx_HAL_Driver/Src/stm32f4xx_hal_tim_ex.c:1131:7
	ldr	r0, [sp, #32]
	.loc	7 1131 14 is_stmt 0             @ ../Drivers/STM32F4xx_HAL_Driver/Src/stm32f4xx_hal_tim_ex.c:1131:14
	ldr	r1, [r0]
	.loc	7 1131 27                       @ ../Drivers/STM32F4xx_HAL_Driver/Src/stm32f4xx_hal_tim_ex.c:1131:27
	ldr	r0, [r1]
	orr	r0, r0, #1
	str	r0, [r1]
	b	.LBB19_32
.Ltmp315:
.LBB19_32:
	.loc	7 0 27                          @ ../Drivers/STM32F4xx_HAL_Driver/Src/stm32f4xx_hal_tim_ex.c:0:27
	movs	r0, #0
	.loc	7 1135 3 is_stmt 1              @ ../Drivers/STM32F4xx_HAL_Driver/Src/stm32f4xx_hal_tim_ex.c:1135:3
	strb.w	r0, [sp, #39]
	b	.LBB19_33
.LBB19_33:
	.loc	7 1136 1                        @ ../Drivers/STM32F4xx_HAL_Driver/Src/stm32f4xx_hal_tim_ex.c:1136:1
	ldrb.w	r0, [sp, #39]
	add	sp, #40
	pop	{r7, pc}
.Ltmp316:
.Lfunc_end19:
	.size	HAL_TIMEx_PWMN_Start, .Lfunc_end19-HAL_TIMEx_PWMN_Start
	.cfi_endproc
	.cantunwind
	.fnend
                                        @ -- End function
	.section	.text.HAL_TIMEx_PWMN_Stop,"ax",%progbits
	.hidden	HAL_TIMEx_PWMN_Stop             @ -- Begin function HAL_TIMEx_PWMN_Stop
	.globl	HAL_TIMEx_PWMN_Stop
	.p2align	2
	.type	HAL_TIMEx_PWMN_Stop,%function
	.code	16                              @ @HAL_TIMEx_PWMN_Stop
	.thumb_func
HAL_TIMEx_PWMN_Stop:
.Lfunc_begin20:
	.loc	7 1149 0                        @ ../Drivers/STM32F4xx_HAL_Driver/Src/stm32f4xx_hal_tim_ex.c:1149:0
	.fnstart
	.cfi_startproc
@ %bb.0:
	.save	{r7, lr}
	push	{r7, lr}
	.cfi_def_cfa_offset 8
	.cfi_offset lr, -4
	.cfi_offset r7, -8
	.pad	#16
	sub	sp, #16
	.cfi_def_cfa_offset 24
	str	r0, [sp, #12]
	str	r1, [sp, #8]
.Ltmp317:
	.loc	7 1154 22 prologue_end          @ ../Drivers/STM32F4xx_HAL_Driver/Src/stm32f4xx_hal_tim_ex.c:1154:22
	ldr	r0, [sp, #12]
	.loc	7 1154 28 is_stmt 0             @ ../Drivers/STM32F4xx_HAL_Driver/Src/stm32f4xx_hal_tim_ex.c:1154:28
	ldr	r0, [r0]
	.loc	7 1154 38                       @ ../Drivers/STM32F4xx_HAL_Driver/Src/stm32f4xx_hal_tim_ex.c:1154:38
	ldr	r1, [sp, #8]
	movs	r2, #0
	.loc	7 1154 3                        @ ../Drivers/STM32F4xx_HAL_Driver/Src/stm32f4xx_hal_tim_ex.c:1154:3
	bl	TIM_CCxNChannelCmd
	.loc	7 1157 3 is_stmt 1              @ ../Drivers/STM32F4xx_HAL_Driver/Src/stm32f4xx_hal_tim_ex.c:1157:3
	b	.LBB20_1
.LBB20_1:
.Ltmp318:
	.loc	7 1157 14 is_stmt 0             @ ../Drivers/STM32F4xx_HAL_Driver/Src/stm32f4xx_hal_tim_ex.c:1157:14
	ldr	r0, [sp, #12]
	.loc	7 1157 21                       @ ../Drivers/STM32F4xx_HAL_Driver/Src/stm32f4xx_hal_tim_ex.c:1157:21
	ldr	r0, [r0]
	.loc	7 1157 31                       @ ../Drivers/STM32F4xx_HAL_Driver/Src/stm32f4xx_hal_tim_ex.c:1157:31
	ldr	r0, [r0, #32]
	movw	r1, #4369
.Ltmp319:
	.loc	7 1157 12                       @ ../Drivers/STM32F4xx_HAL_Driver/Src/stm32f4xx_hal_tim_ex.c:1157:12
	tst	r0, r1
	bne	.LBB20_5
	b	.LBB20_2
.LBB20_2:
.Ltmp320:
	.loc	7 1157 139                      @ ../Drivers/STM32F4xx_HAL_Driver/Src/stm32f4xx_hal_tim_ex.c:1157:139
	ldr	r0, [sp, #12]
	.loc	7 1157 146                      @ ../Drivers/STM32F4xx_HAL_Driver/Src/stm32f4xx_hal_tim_ex.c:1157:146
	ldr	r0, [r0]
	.loc	7 1157 156                      @ ../Drivers/STM32F4xx_HAL_Driver/Src/stm32f4xx_hal_tim_ex.c:1157:156
	ldr	r0, [r0, #32]
	movw	r1, #1092
.Ltmp321:
	.loc	7 1157 137                      @ ../Drivers/STM32F4xx_HAL_Driver/Src/stm32f4xx_hal_tim_ex.c:1157:137
	tst	r0, r1
	bne	.LBB20_4
	b	.LBB20_3
.LBB20_3:
.Ltmp322:
	.loc	7 1157 242                      @ ../Drivers/STM32F4xx_HAL_Driver/Src/stm32f4xx_hal_tim_ex.c:1157:242
	ldr	r0, [sp, #12]
	.loc	7 1157 249                      @ ../Drivers/STM32F4xx_HAL_Driver/Src/stm32f4xx_hal_tim_ex.c:1157:249
	ldr	r1, [r0]
	.loc	7 1157 264                      @ ../Drivers/STM32F4xx_HAL_Driver/Src/stm32f4xx_hal_tim_ex.c:1157:264
	ldr	r0, [r1, #68]
	bic	r0, r0, #32768
	str	r0, [r1, #68]
	.loc	7 1157 288                      @ ../Drivers/STM32F4xx_HAL_Driver/Src/stm32f4xx_hal_tim_ex.c:1157:288
	b	.LBB20_4
.Ltmp323:
.LBB20_4:
	.loc	7 1157 290                      @ ../Drivers/STM32F4xx_HAL_Driver/Src/stm32f4xx_hal_tim_ex.c:1157:290
	b	.LBB20_5
.Ltmp324:
.LBB20_5:
	.loc	7 1157 292                      @ ../Drivers/STM32F4xx_HAL_Driver/Src/stm32f4xx_hal_tim_ex.c:1157:292
	b	.LBB20_6
.Ltmp325:
.LBB20_6:
	.loc	7 1160 3 is_stmt 1              @ ../Drivers/STM32F4xx_HAL_Driver/Src/stm32f4xx_hal_tim_ex.c:1160:3
	b	.LBB20_7
.LBB20_7:
.Ltmp326:
	.loc	7 1160 14 is_stmt 0             @ ../Drivers/STM32F4xx_HAL_Driver/Src/stm32f4xx_hal_tim_ex.c:1160:14
	ldr	r0, [sp, #12]
	.loc	7 1160 21                       @ ../Drivers/STM32F4xx_HAL_Driver/Src/stm32f4xx_hal_tim_ex.c:1160:21
	ldr	r0, [r0]
	.loc	7 1160 31                       @ ../Drivers/STM32F4xx_HAL_Driver/Src/stm32f4xx_hal_tim_ex.c:1160:31
	ldr	r0, [r0, #32]
	movw	r1, #4369
.Ltmp327:
	.loc	7 1160 12                       @ ../Drivers/STM32F4xx_HAL_Driver/Src/stm32f4xx_hal_tim_ex.c:1160:12
	tst	r0, r1
	bne	.LBB20_11
	b	.LBB20_8
.LBB20_8:
.Ltmp328:
	.loc	7 1160 139                      @ ../Drivers/STM32F4xx_HAL_Driver/Src/stm32f4xx_hal_tim_ex.c:1160:139
	ldr	r0, [sp, #12]
	.loc	7 1160 146                      @ ../Drivers/STM32F4xx_HAL_Driver/Src/stm32f4xx_hal_tim_ex.c:1160:146
	ldr	r0, [r0]
	.loc	7 1160 156                      @ ../Drivers/STM32F4xx_HAL_Driver/Src/stm32f4xx_hal_tim_ex.c:1160:156
	ldr	r0, [r0, #32]
	movw	r1, #1092
.Ltmp329:
	.loc	7 1160 137                      @ ../Drivers/STM32F4xx_HAL_Driver/Src/stm32f4xx_hal_tim_ex.c:1160:137
	tst	r0, r1
	bne	.LBB20_10
	b	.LBB20_9
.LBB20_9:
.Ltmp330:
	.loc	7 1160 242                      @ ../Drivers/STM32F4xx_HAL_Driver/Src/stm32f4xx_hal_tim_ex.c:1160:242
	ldr	r0, [sp, #12]
	.loc	7 1160 249                      @ ../Drivers/STM32F4xx_HAL_Driver/Src/stm32f4xx_hal_tim_ex.c:1160:249
	ldr	r1, [r0]
	.loc	7 1160 263                      @ ../Drivers/STM32F4xx_HAL_Driver/Src/stm32f4xx_hal_tim_ex.c:1160:263
	ldr	r0, [r1]
	bic	r0, r0, #1
	str	r0, [r1]
	.loc	7 1160 286                      @ ../Drivers/STM32F4xx_HAL_Driver/Src/stm32f4xx_hal_tim_ex.c:1160:286
	b	.LBB20_10
.Ltmp331:
.LBB20_10:
	.loc	7 1160 288                      @ ../Drivers/STM32F4xx_HAL_Driver/Src/stm32f4xx_hal_tim_ex.c:1160:288
	b	.LBB20_11
.Ltmp332:
.LBB20_11:
	.loc	7 1160 290                      @ ../Drivers/STM32F4xx_HAL_Driver/Src/stm32f4xx_hal_tim_ex.c:1160:290
	b	.LBB20_12
.Ltmp333:
.LBB20_12:
	.loc	7 1163 6 is_stmt 1              @ ../Drivers/STM32F4xx_HAL_Driver/Src/stm32f4xx_hal_tim_ex.c:1163:6
	ldr	r0, [sp, #8]
	.loc	7 1163 4 is_stmt 0              @ ../Drivers/STM32F4xx_HAL_Driver/Src/stm32f4xx_hal_tim_ex.c:1163:4
	cbnz	r0, .LBB20_14
	b	.LBB20_13
.LBB20_13:
	.loc	7 1163 35                       @ ../Drivers/STM32F4xx_HAL_Driver/Src/stm32f4xx_hal_tim_ex.c:1163:35
	ldr	r1, [sp, #12]
	movs	r0, #1
	.loc	7 1163 59                       @ ../Drivers/STM32F4xx_HAL_Driver/Src/stm32f4xx_hal_tim_ex.c:1163:59
	strb.w	r0, [r1, #66]
	.loc	7 1163 4                        @ ../Drivers/STM32F4xx_HAL_Driver/Src/stm32f4xx_hal_tim_ex.c:1163:4
	b	.LBB20_21
.LBB20_14:
	.loc	7 1163 96                       @ ../Drivers/STM32F4xx_HAL_Driver/Src/stm32f4xx_hal_tim_ex.c:1163:96
	ldr	r0, [sp, #8]
	.loc	7 1163 94                       @ ../Drivers/STM32F4xx_HAL_Driver/Src/stm32f4xx_hal_tim_ex.c:1163:94
	cmp	r0, #4
	bne	.LBB20_16
	b	.LBB20_15
.LBB20_15:
	.loc	7 1163 125                      @ ../Drivers/STM32F4xx_HAL_Driver/Src/stm32f4xx_hal_tim_ex.c:1163:125
	ldr	r1, [sp, #12]
	movs	r0, #1
	.loc	7 1163 149                      @ ../Drivers/STM32F4xx_HAL_Driver/Src/stm32f4xx_hal_tim_ex.c:1163:149
	strb.w	r0, [r1, #67]
	.loc	7 1163 94                       @ ../Drivers/STM32F4xx_HAL_Driver/Src/stm32f4xx_hal_tim_ex.c:1163:94
	str	r0, [sp, #4]                    @ 4-byte Spill
	b	.LBB20_20
.LBB20_16:
	.loc	7 1163 186                      @ ../Drivers/STM32F4xx_HAL_Driver/Src/stm32f4xx_hal_tim_ex.c:1163:186
	ldr	r0, [sp, #8]
	.loc	7 1163 184                      @ ../Drivers/STM32F4xx_HAL_Driver/Src/stm32f4xx_hal_tim_ex.c:1163:184
	cmp	r0, #8
	bne	.LBB20_18
	b	.LBB20_17
.LBB20_17:
	.loc	7 1163 215                      @ ../Drivers/STM32F4xx_HAL_Driver/Src/stm32f4xx_hal_tim_ex.c:1163:215
	ldr	r1, [sp, #12]
	movs	r0, #1
	.loc	7 1163 239                      @ ../Drivers/STM32F4xx_HAL_Driver/Src/stm32f4xx_hal_tim_ex.c:1163:239
	strb.w	r0, [r1, #68]
	.loc	7 1163 184                      @ ../Drivers/STM32F4xx_HAL_Driver/Src/stm32f4xx_hal_tim_ex.c:1163:184
	str	r0, [sp]                        @ 4-byte Spill
	b	.LBB20_19
.LBB20_18:
	.loc	7 1163 276                      @ ../Drivers/STM32F4xx_HAL_Driver/Src/stm32f4xx_hal_tim_ex.c:1163:276
	ldr	r1, [sp, #12]
	movs	r0, #1
	.loc	7 1163 300                      @ ../Drivers/STM32F4xx_HAL_Driver/Src/stm32f4xx_hal_tim_ex.c:1163:300
	strb.w	r0, [r1, #69]
	.loc	7 1163 184                      @ ../Drivers/STM32F4xx_HAL_Driver/Src/stm32f4xx_hal_tim_ex.c:1163:184
	str	r0, [sp]                        @ 4-byte Spill
	b	.LBB20_19
.LBB20_19:
	ldr	r0, [sp]                        @ 4-byte Reload
	.loc	7 1163 94                       @ ../Drivers/STM32F4xx_HAL_Driver/Src/stm32f4xx_hal_tim_ex.c:1163:94
	str	r0, [sp, #4]                    @ 4-byte Spill
	b	.LBB20_20
.LBB20_20:
	ldr	r0, [sp, #4]                    @ 4-byte Reload
	.loc	7 1163 4                        @ ../Drivers/STM32F4xx_HAL_Driver/Src/stm32f4xx_hal_tim_ex.c:1163:4
	b	.LBB20_21
.LBB20_21:
	.loc	7 0 4                           @ ../Drivers/STM32F4xx_HAL_Driver/Src/stm32f4xx_hal_tim_ex.c:0:4
	movs	r0, #0
	.loc	7 1166 3 is_stmt 1              @ ../Drivers/STM32F4xx_HAL_Driver/Src/stm32f4xx_hal_tim_ex.c:1166:3
	add	sp, #16
	pop	{r7, pc}
.Ltmp334:
.Lfunc_end20:
	.size	HAL_TIMEx_PWMN_Stop, .Lfunc_end20-HAL_TIMEx_PWMN_Stop
	.cfi_endproc
	.cantunwind
	.fnend
                                        @ -- End function
	.section	.text.HAL_TIMEx_PWMN_Start_IT,"ax",%progbits
	.hidden	HAL_TIMEx_PWMN_Start_IT         @ -- Begin function HAL_TIMEx_PWMN_Start_IT
	.globl	HAL_TIMEx_PWMN_Start_IT
	.p2align	2
	.type	HAL_TIMEx_PWMN_Start_IT,%function
	.code	16                              @ @HAL_TIMEx_PWMN_Start_IT
	.thumb_func
HAL_TIMEx_PWMN_Start_IT:
.Lfunc_begin21:
	.loc	7 1181 0                        @ ../Drivers/STM32F4xx_HAL_Driver/Src/stm32f4xx_hal_tim_ex.c:1181:0
	.fnstart
	.cfi_startproc
@ %bb.0:
	.save	{r7, lr}
	push	{r7, lr}
	.cfi_def_cfa_offset 8
	.cfi_offset lr, -4
	.cfi_offset r7, -8
	.pad	#48
	sub	sp, #48
	.cfi_def_cfa_offset 56
	str	r0, [sp, #40]
	str	r1, [sp, #36]
	movs	r0, #0
.Ltmp335:
	.loc	7 1182 21 prologue_end          @ ../Drivers/STM32F4xx_HAL_Driver/Src/stm32f4xx_hal_tim_ex.c:1182:21
	strb.w	r0, [sp, #35]
.Ltmp336:
	.loc	7 1189 10                       @ ../Drivers/STM32F4xx_HAL_Driver/Src/stm32f4xx_hal_tim_ex.c:1189:10
	ldr	r0, [sp, #36]
	.loc	7 1189 8 is_stmt 0              @ ../Drivers/STM32F4xx_HAL_Driver/Src/stm32f4xx_hal_tim_ex.c:1189:8
	cbnz	r0, .LBB21_2
	b	.LBB21_1
.LBB21_1:
	.loc	7 1189 38                       @ ../Drivers/STM32F4xx_HAL_Driver/Src/stm32f4xx_hal_tim_ex.c:1189:38
	ldr	r0, [sp, #40]
	.loc	7 1189 37                       @ ../Drivers/STM32F4xx_HAL_Driver/Src/stm32f4xx_hal_tim_ex.c:1189:37
	ldrb.w	r0, [r0, #66]
	.loc	7 1189 8                        @ ../Drivers/STM32F4xx_HAL_Driver/Src/stm32f4xx_hal_tim_ex.c:1189:8
	str	r0, [sp, #24]                   @ 4-byte Spill
	b	.LBB21_9
.LBB21_2:
	.loc	7 1189 66                       @ ../Drivers/STM32F4xx_HAL_Driver/Src/stm32f4xx_hal_tim_ex.c:1189:66
	ldr	r0, [sp, #36]
	.loc	7 1189 64                       @ ../Drivers/STM32F4xx_HAL_Driver/Src/stm32f4xx_hal_tim_ex.c:1189:64
	cmp	r0, #4
	bne	.LBB21_4
	b	.LBB21_3
.LBB21_3:
	.loc	7 1189 94                       @ ../Drivers/STM32F4xx_HAL_Driver/Src/stm32f4xx_hal_tim_ex.c:1189:94
	ldr	r0, [sp, #40]
	.loc	7 1189 93                       @ ../Drivers/STM32F4xx_HAL_Driver/Src/stm32f4xx_hal_tim_ex.c:1189:93
	ldrb.w	r0, [r0, #67]
	.loc	7 1189 64                       @ ../Drivers/STM32F4xx_HAL_Driver/Src/stm32f4xx_hal_tim_ex.c:1189:64
	str	r0, [sp, #20]                   @ 4-byte Spill
	b	.LBB21_8
.LBB21_4:
	.loc	7 1189 122                      @ ../Drivers/STM32F4xx_HAL_Driver/Src/stm32f4xx_hal_tim_ex.c:1189:122
	ldr	r0, [sp, #36]
	.loc	7 1189 120                      @ ../Drivers/STM32F4xx_HAL_Driver/Src/stm32f4xx_hal_tim_ex.c:1189:120
	cmp	r0, #8
	bne	.LBB21_6
	b	.LBB21_5
.LBB21_5:
	.loc	7 1189 150                      @ ../Drivers/STM32F4xx_HAL_Driver/Src/stm32f4xx_hal_tim_ex.c:1189:150
	ldr	r0, [sp, #40]
	.loc	7 1189 149                      @ ../Drivers/STM32F4xx_HAL_Driver/Src/stm32f4xx_hal_tim_ex.c:1189:149
	ldrb.w	r0, [r0, #68]
	.loc	7 1189 120                      @ ../Drivers/STM32F4xx_HAL_Driver/Src/stm32f4xx_hal_tim_ex.c:1189:120
	str	r0, [sp, #16]                   @ 4-byte Spill
	b	.LBB21_7
.LBB21_6:
	.loc	7 1189 177                      @ ../Drivers/STM32F4xx_HAL_Driver/Src/stm32f4xx_hal_tim_ex.c:1189:177
	ldr	r0, [sp, #40]
	.loc	7 1189 176                      @ ../Drivers/STM32F4xx_HAL_Driver/Src/stm32f4xx_hal_tim_ex.c:1189:176
	ldrb.w	r0, [r0, #69]
	.loc	7 1189 120                      @ ../Drivers/STM32F4xx_HAL_Driver/Src/stm32f4xx_hal_tim_ex.c:1189:120
	str	r0, [sp, #16]                   @ 4-byte Spill
	b	.LBB21_7
.LBB21_7:
	ldr	r0, [sp, #16]                   @ 4-byte Reload
	.loc	7 1189 64                       @ ../Drivers/STM32F4xx_HAL_Driver/Src/stm32f4xx_hal_tim_ex.c:1189:64
	str	r0, [sp, #20]                   @ 4-byte Spill
	b	.LBB21_8
.LBB21_8:
	ldr	r0, [sp, #20]                   @ 4-byte Reload
	.loc	7 1189 8                        @ ../Drivers/STM32F4xx_HAL_Driver/Src/stm32f4xx_hal_tim_ex.c:1189:8
	str	r0, [sp, #24]                   @ 4-byte Spill
	b	.LBB21_9
.LBB21_9:
	ldr	r0, [sp, #24]                   @ 4-byte Reload
.Ltmp337:
	.loc	7 1189 7                        @ ../Drivers/STM32F4xx_HAL_Driver/Src/stm32f4xx_hal_tim_ex.c:1189:7
	cmp	r0, #1
	beq	.LBB21_11
	b	.LBB21_10
.LBB21_10:
	.loc	7 0 7                           @ ../Drivers/STM32F4xx_HAL_Driver/Src/stm32f4xx_hal_tim_ex.c:0:7
	movs	r0, #1
.Ltmp338:
	.loc	7 1191 5 is_stmt 1              @ ../Drivers/STM32F4xx_HAL_Driver/Src/stm32f4xx_hal_tim_ex.c:1191:5
	strb.w	r0, [sp, #47]
	b	.LBB21_42
.Ltmp339:
.LBB21_11:
	.loc	7 1195 6                        @ ../Drivers/STM32F4xx_HAL_Driver/Src/stm32f4xx_hal_tim_ex.c:1195:6
	ldr	r0, [sp, #36]
	.loc	7 1195 4 is_stmt 0              @ ../Drivers/STM32F4xx_HAL_Driver/Src/stm32f4xx_hal_tim_ex.c:1195:4
	cbnz	r0, .LBB21_13
	b	.LBB21_12
.LBB21_12:
	.loc	7 1195 35                       @ ../Drivers/STM32F4xx_HAL_Driver/Src/stm32f4xx_hal_tim_ex.c:1195:35
	ldr	r1, [sp, #40]
	movs	r0, #2
	.loc	7 1195 59                       @ ../Drivers/STM32F4xx_HAL_Driver/Src/stm32f4xx_hal_tim_ex.c:1195:59
	strb.w	r0, [r1, #66]
	.loc	7 1195 4                        @ ../Drivers/STM32F4xx_HAL_Driver/Src/stm32f4xx_hal_tim_ex.c:1195:4
	b	.LBB21_20
.LBB21_13:
	.loc	7 1195 95                       @ ../Drivers/STM32F4xx_HAL_Driver/Src/stm32f4xx_hal_tim_ex.c:1195:95
	ldr	r0, [sp, #36]
	.loc	7 1195 93                       @ ../Drivers/STM32F4xx_HAL_Driver/Src/stm32f4xx_hal_tim_ex.c:1195:93
	cmp	r0, #4
	bne	.LBB21_15
	b	.LBB21_14
.LBB21_14:
	.loc	7 1195 124                      @ ../Drivers/STM32F4xx_HAL_Driver/Src/stm32f4xx_hal_tim_ex.c:1195:124
	ldr	r1, [sp, #40]
	movs	r0, #2
	.loc	7 1195 148                      @ ../Drivers/STM32F4xx_HAL_Driver/Src/stm32f4xx_hal_tim_ex.c:1195:148
	strb.w	r0, [r1, #67]
	.loc	7 1195 93                       @ ../Drivers/STM32F4xx_HAL_Driver/Src/stm32f4xx_hal_tim_ex.c:1195:93
	str	r0, [sp, #12]                   @ 4-byte Spill
	b	.LBB21_19
.LBB21_15:
	.loc	7 1195 184                      @ ../Drivers/STM32F4xx_HAL_Driver/Src/stm32f4xx_hal_tim_ex.c:1195:184
	ldr	r0, [sp, #36]
	.loc	7 1195 182                      @ ../Drivers/STM32F4xx_HAL_Driver/Src/stm32f4xx_hal_tim_ex.c:1195:182
	cmp	r0, #8
	bne	.LBB21_17
	b	.LBB21_16
.LBB21_16:
	.loc	7 1195 213                      @ ../Drivers/STM32F4xx_HAL_Driver/Src/stm32f4xx_hal_tim_ex.c:1195:213
	ldr	r1, [sp, #40]
	movs	r0, #2
	.loc	7 1195 237                      @ ../Drivers/STM32F4xx_HAL_Driver/Src/stm32f4xx_hal_tim_ex.c:1195:237
	strb.w	r0, [r1, #68]
	.loc	7 1195 182                      @ ../Drivers/STM32F4xx_HAL_Driver/Src/stm32f4xx_hal_tim_ex.c:1195:182
	str	r0, [sp, #8]                    @ 4-byte Spill
	b	.LBB21_18
.LBB21_17:
	.loc	7 1195 273                      @ ../Drivers/STM32F4xx_HAL_Driver/Src/stm32f4xx_hal_tim_ex.c:1195:273
	ldr	r1, [sp, #40]
	movs	r0, #2
	.loc	7 1195 297                      @ ../Drivers/STM32F4xx_HAL_Driver/Src/stm32f4xx_hal_tim_ex.c:1195:297
	strb.w	r0, [r1, #69]
	.loc	7 1195 182                      @ ../Drivers/STM32F4xx_HAL_Driver/Src/stm32f4xx_hal_tim_ex.c:1195:182
	str	r0, [sp, #8]                    @ 4-byte Spill
	b	.LBB21_18
.LBB21_18:
	ldr	r0, [sp, #8]                    @ 4-byte Reload
	.loc	7 1195 93                       @ ../Drivers/STM32F4xx_HAL_Driver/Src/stm32f4xx_hal_tim_ex.c:1195:93
	str	r0, [sp, #12]                   @ 4-byte Spill
	b	.LBB21_19
.LBB21_19:
	ldr	r0, [sp, #12]                   @ 4-byte Reload
	.loc	7 1195 4                        @ ../Drivers/STM32F4xx_HAL_Driver/Src/stm32f4xx_hal_tim_ex.c:1195:4
	b	.LBB21_20
.LBB21_20:
	.loc	7 1197 11 is_stmt 1             @ ../Drivers/STM32F4xx_HAL_Driver/Src/stm32f4xx_hal_tim_ex.c:1197:11
	ldr	r0, [sp, #36]
	.loc	7 1197 3 is_stmt 0              @ ../Drivers/STM32F4xx_HAL_Driver/Src/stm32f4xx_hal_tim_ex.c:1197:3
	str	r0, [sp, #4]                    @ 4-byte Spill
	cbz	r0, .LBB21_23
	b	.LBB21_21
.LBB21_21:
	ldr	r0, [sp, #4]                    @ 4-byte Reload
	cmp	r0, #4
	beq	.LBB21_24
	b	.LBB21_22
.LBB21_22:
	ldr	r0, [sp, #4]                    @ 4-byte Reload
	cmp	r0, #8
	beq	.LBB21_25
	b	.LBB21_26
.LBB21_23:
.Ltmp340:
	.loc	7 1202 9 is_stmt 1              @ ../Drivers/STM32F4xx_HAL_Driver/Src/stm32f4xx_hal_tim_ex.c:1202:9
	ldr	r0, [sp, #40]
	.loc	7 1202 16 is_stmt 0             @ ../Drivers/STM32F4xx_HAL_Driver/Src/stm32f4xx_hal_tim_ex.c:1202:16
	ldr	r1, [r0]
	.loc	7 1202 31                       @ ../Drivers/STM32F4xx_HAL_Driver/Src/stm32f4xx_hal_tim_ex.c:1202:31
	ldr	r0, [r1, #12]
	orr	r0, r0, #2
	str	r0, [r1, #12]
	.loc	7 1203 7 is_stmt 1              @ ../Drivers/STM32F4xx_HAL_Driver/Src/stm32f4xx_hal_tim_ex.c:1203:7
	b	.LBB21_27
.Ltmp341:
.LBB21_24:
	.loc	7 1209 9                        @ ../Drivers/STM32F4xx_HAL_Driver/Src/stm32f4xx_hal_tim_ex.c:1209:9
	ldr	r0, [sp, #40]
	.loc	7 1209 16 is_stmt 0             @ ../Drivers/STM32F4xx_HAL_Driver/Src/stm32f4xx_hal_tim_ex.c:1209:16
	ldr	r1, [r0]
	.loc	7 1209 31                       @ ../Drivers/STM32F4xx_HAL_Driver/Src/stm32f4xx_hal_tim_ex.c:1209:31
	ldr	r0, [r1, #12]
	orr	r0, r0, #4
	str	r0, [r1, #12]
	.loc	7 1210 7 is_stmt 1              @ ../Drivers/STM32F4xx_HAL_Driver/Src/stm32f4xx_hal_tim_ex.c:1210:7
	b	.LBB21_27
.Ltmp342:
.LBB21_25:
	.loc	7 1216 9                        @ ../Drivers/STM32F4xx_HAL_Driver/Src/stm32f4xx_hal_tim_ex.c:1216:9
	ldr	r0, [sp, #40]
	.loc	7 1216 16 is_stmt 0             @ ../Drivers/STM32F4xx_HAL_Driver/Src/stm32f4xx_hal_tim_ex.c:1216:16
	ldr	r1, [r0]
	.loc	7 1216 31                       @ ../Drivers/STM32F4xx_HAL_Driver/Src/stm32f4xx_hal_tim_ex.c:1216:31
	ldr	r0, [r1, #12]
	orr	r0, r0, #8
	str	r0, [r1, #12]
	.loc	7 1217 7 is_stmt 1              @ ../Drivers/STM32F4xx_HAL_Driver/Src/stm32f4xx_hal_tim_ex.c:1217:7
	b	.LBB21_27
.Ltmp343:
.LBB21_26:
	.loc	7 0 7 is_stmt 0                 @ ../Drivers/STM32F4xx_HAL_Driver/Src/stm32f4xx_hal_tim_ex.c:0:7
	movs	r0, #1
	.loc	7 1221 14 is_stmt 1             @ ../Drivers/STM32F4xx_HAL_Driver/Src/stm32f4xx_hal_tim_ex.c:1221:14
	strb.w	r0, [sp, #35]
	.loc	7 1222 7                        @ ../Drivers/STM32F4xx_HAL_Driver/Src/stm32f4xx_hal_tim_ex.c:1222:7
	b	.LBB21_27
.Ltmp344:
.LBB21_27:
	.loc	7 1225 7                        @ ../Drivers/STM32F4xx_HAL_Driver/Src/stm32f4xx_hal_tim_ex.c:1225:7
	ldrb.w	r0, [sp, #35]
.Ltmp345:
	.loc	7 1225 7 is_stmt 0              @ ../Drivers/STM32F4xx_HAL_Driver/Src/stm32f4xx_hal_tim_ex.c:1225:7
	cmp	r0, #0
	bne	.LBB21_41
	b	.LBB21_28
.LBB21_28:
.Ltmp346:
	.loc	7 1228 7 is_stmt 1              @ ../Drivers/STM32F4xx_HAL_Driver/Src/stm32f4xx_hal_tim_ex.c:1228:7
	ldr	r0, [sp, #40]
	.loc	7 1228 14 is_stmt 0             @ ../Drivers/STM32F4xx_HAL_Driver/Src/stm32f4xx_hal_tim_ex.c:1228:14
	ldr	r1, [r0]
	.loc	7 1228 29                       @ ../Drivers/STM32F4xx_HAL_Driver/Src/stm32f4xx_hal_tim_ex.c:1228:29
	ldr	r0, [r1, #12]
	orr	r0, r0, #128
	str	r0, [r1, #12]
	.loc	7 1231 24 is_stmt 1             @ ../Drivers/STM32F4xx_HAL_Driver/Src/stm32f4xx_hal_tim_ex.c:1231:24
	ldr	r0, [sp, #40]
	.loc	7 1231 30 is_stmt 0             @ ../Drivers/STM32F4xx_HAL_Driver/Src/stm32f4xx_hal_tim_ex.c:1231:30
	ldr	r0, [r0]
	.loc	7 1231 40                       @ ../Drivers/STM32F4xx_HAL_Driver/Src/stm32f4xx_hal_tim_ex.c:1231:40
	ldr	r1, [sp, #36]
	movs	r2, #4
	.loc	7 1231 5                        @ ../Drivers/STM32F4xx_HAL_Driver/Src/stm32f4xx_hal_tim_ex.c:1231:5
	bl	TIM_CCxNChannelCmd
	.loc	7 1234 7 is_stmt 1              @ ../Drivers/STM32F4xx_HAL_Driver/Src/stm32f4xx_hal_tim_ex.c:1234:7
	ldr	r0, [sp, #40]
	.loc	7 1234 14 is_stmt 0             @ ../Drivers/STM32F4xx_HAL_Driver/Src/stm32f4xx_hal_tim_ex.c:1234:14
	ldr	r1, [r0]
	.loc	7 1234 28                       @ ../Drivers/STM32F4xx_HAL_Driver/Src/stm32f4xx_hal_tim_ex.c:1234:28
	ldr	r0, [r1, #68]
	orr	r0, r0, #32768
	str	r0, [r1, #68]
.Ltmp347:
	.loc	7 1237 12 is_stmt 1             @ ../Drivers/STM32F4xx_HAL_Driver/Src/stm32f4xx_hal_tim_ex.c:1237:12
	ldr	r0, [sp, #40]
	.loc	7 1237 18 is_stmt 0             @ ../Drivers/STM32F4xx_HAL_Driver/Src/stm32f4xx_hal_tim_ex.c:1237:18
	ldr	r0, [r0]
	movs	r1, #0
	movt	r1, #16385
	.loc	7 1237 93                       @ ../Drivers/STM32F4xx_HAL_Driver/Src/stm32f4xx_hal_tim_ex.c:1237:93
	cmp	r0, r1
	beq	.LBB21_36
	b	.LBB21_29
.LBB21_29:
	.loc	7 1237 98                       @ ../Drivers/STM32F4xx_HAL_Driver/Src/stm32f4xx_hal_tim_ex.c:1237:98
	ldr	r0, [sp, #40]
	.loc	7 1237 104                      @ ../Drivers/STM32F4xx_HAL_Driver/Src/stm32f4xx_hal_tim_ex.c:1237:104
	ldr	r0, [r0]
	.loc	7 1237 162                      @ ../Drivers/STM32F4xx_HAL_Driver/Src/stm32f4xx_hal_tim_ex.c:1237:162
	cmp.w	r0, #1073741824
	beq	.LBB21_36
	b	.LBB21_30
.LBB21_30:
	.loc	7 1237 167                      @ ../Drivers/STM32F4xx_HAL_Driver/Src/stm32f4xx_hal_tim_ex.c:1237:167
	ldr	r0, [sp, #40]
	.loc	7 1237 173                      @ ../Drivers/STM32F4xx_HAL_Driver/Src/stm32f4xx_hal_tim_ex.c:1237:173
	ldr	r0, [r0]
	movw	r1, #1024
	movt	r1, #16384
	.loc	7 1237 231                      @ ../Drivers/STM32F4xx_HAL_Driver/Src/stm32f4xx_hal_tim_ex.c:1237:231
	cmp	r0, r1
	beq	.LBB21_36
	b	.LBB21_31
.LBB21_31:
	.loc	7 1237 236                      @ ../Drivers/STM32F4xx_HAL_Driver/Src/stm32f4xx_hal_tim_ex.c:1237:236
	ldr	r0, [sp, #40]
	.loc	7 1237 242                      @ ../Drivers/STM32F4xx_HAL_Driver/Src/stm32f4xx_hal_tim_ex.c:1237:242
	ldr	r0, [r0]
	movw	r1, #2048
	movt	r1, #16384
	.loc	7 1237 300                      @ ../Drivers/STM32F4xx_HAL_Driver/Src/stm32f4xx_hal_tim_ex.c:1237:300
	cmp	r0, r1
	beq	.LBB21_36
	b	.LBB21_32
.LBB21_32:
	.loc	7 1237 305                      @ ../Drivers/STM32F4xx_HAL_Driver/Src/stm32f4xx_hal_tim_ex.c:1237:305
	ldr	r0, [sp, #40]
	.loc	7 1237 311                      @ ../Drivers/STM32F4xx_HAL_Driver/Src/stm32f4xx_hal_tim_ex.c:1237:311
	ldr	r0, [r0]
	movw	r1, #3072
	movt	r1, #16384
	.loc	7 1237 369                      @ ../Drivers/STM32F4xx_HAL_Driver/Src/stm32f4xx_hal_tim_ex.c:1237:369
	cmp	r0, r1
	beq	.LBB21_36
	b	.LBB21_33
.LBB21_33:
	.loc	7 1237 374                      @ ../Drivers/STM32F4xx_HAL_Driver/Src/stm32f4xx_hal_tim_ex.c:1237:374
	ldr	r0, [sp, #40]
	.loc	7 1237 380                      @ ../Drivers/STM32F4xx_HAL_Driver/Src/stm32f4xx_hal_tim_ex.c:1237:380
	ldr	r0, [r0]
	movw	r1, #1024
	movt	r1, #16385
	.loc	7 1237 455                      @ ../Drivers/STM32F4xx_HAL_Driver/Src/stm32f4xx_hal_tim_ex.c:1237:455
	cmp	r0, r1
	beq	.LBB21_36
	b	.LBB21_34
.LBB21_34:
	.loc	7 1237 460                      @ ../Drivers/STM32F4xx_HAL_Driver/Src/stm32f4xx_hal_tim_ex.c:1237:460
	ldr	r0, [sp, #40]
	.loc	7 1237 466                      @ ../Drivers/STM32F4xx_HAL_Driver/Src/stm32f4xx_hal_tim_ex.c:1237:466
	ldr	r0, [r0]
	movw	r1, #16384
	movt	r1, #16385
	.loc	7 1237 541                      @ ../Drivers/STM32F4xx_HAL_Driver/Src/stm32f4xx_hal_tim_ex.c:1237:541
	cmp	r0, r1
	beq	.LBB21_36
	b	.LBB21_35
.LBB21_35:
	.loc	7 1237 546                      @ ../Drivers/STM32F4xx_HAL_Driver/Src/stm32f4xx_hal_tim_ex.c:1237:546
	ldr	r0, [sp, #40]
	.loc	7 1237 552                      @ ../Drivers/STM32F4xx_HAL_Driver/Src/stm32f4xx_hal_tim_ex.c:1237:552
	ldr	r0, [r0]
	movw	r1, #6144
	movt	r1, #16384
.Ltmp348:
	.loc	7 1237 9                        @ ../Drivers/STM32F4xx_HAL_Driver/Src/stm32f4xx_hal_tim_ex.c:1237:9
	cmp	r0, r1
	bne	.LBB21_39
	b	.LBB21_36
.LBB21_36:
.Ltmp349:
	.loc	7 1239 17 is_stmt 1             @ ../Drivers/STM32F4xx_HAL_Driver/Src/stm32f4xx_hal_tim_ex.c:1239:17
	ldr	r0, [sp, #40]
	.loc	7 1239 23 is_stmt 0             @ ../Drivers/STM32F4xx_HAL_Driver/Src/stm32f4xx_hal_tim_ex.c:1239:23
	ldr	r0, [r0]
	.loc	7 1239 33                       @ ../Drivers/STM32F4xx_HAL_Driver/Src/stm32f4xx_hal_tim_ex.c:1239:33
	ldr	r0, [r0, #8]
	.loc	7 1239 38                       @ ../Drivers/STM32F4xx_HAL_Driver/Src/stm32f4xx_hal_tim_ex.c:1239:38
	and	r0, r0, #7
	.loc	7 1239 15                       @ ../Drivers/STM32F4xx_HAL_Driver/Src/stm32f4xx_hal_tim_ex.c:1239:15
	str	r0, [sp, #28]
.Ltmp350:
	.loc	7 1240 14 is_stmt 1             @ ../Drivers/STM32F4xx_HAL_Driver/Src/stm32f4xx_hal_tim_ex.c:1240:14
	ldr	r0, [sp, #28]
.Ltmp351:
	.loc	7 1240 11 is_stmt 0             @ ../Drivers/STM32F4xx_HAL_Driver/Src/stm32f4xx_hal_tim_ex.c:1240:11
	cmp	r0, #6
	beq	.LBB21_38
	b	.LBB21_37
.LBB21_37:
.Ltmp352:
	.loc	7 1242 11 is_stmt 1             @ ../Drivers/STM32F4xx_HAL_Driver/Src/stm32f4xx_hal_tim_ex.c:1242:11
	ldr	r0, [sp, #40]
	.loc	7 1242 18 is_stmt 0             @ ../Drivers/STM32F4xx_HAL_Driver/Src/stm32f4xx_hal_tim_ex.c:1242:18
	ldr	r1, [r0]
	.loc	7 1242 31                       @ ../Drivers/STM32F4xx_HAL_Driver/Src/stm32f4xx_hal_tim_ex.c:1242:31
	ldr	r0, [r1]
	orr	r0, r0, #1
	str	r0, [r1]
	.loc	7 1243 7 is_stmt 1              @ ../Drivers/STM32F4xx_HAL_Driver/Src/stm32f4xx_hal_tim_ex.c:1243:7
	b	.LBB21_38
.Ltmp353:
.LBB21_38:
	.loc	7 1244 5                        @ ../Drivers/STM32F4xx_HAL_Driver/Src/stm32f4xx_hal_tim_ex.c:1244:5
	b	.LBB21_40
.Ltmp354:
.LBB21_39:
	.loc	7 1247 9                        @ ../Drivers/STM32F4xx_HAL_Driver/Src/stm32f4xx_hal_tim_ex.c:1247:9
	ldr	r0, [sp, #40]
	.loc	7 1247 16 is_stmt 0             @ ../Drivers/STM32F4xx_HAL_Driver/Src/stm32f4xx_hal_tim_ex.c:1247:16
	ldr	r1, [r0]
	.loc	7 1247 29                       @ ../Drivers/STM32F4xx_HAL_Driver/Src/stm32f4xx_hal_tim_ex.c:1247:29
	ldr	r0, [r1]
	orr	r0, r0, #1
	str	r0, [r1]
	b	.LBB21_40
.Ltmp355:
.LBB21_40:
	.loc	7 1249 3 is_stmt 1              @ ../Drivers/STM32F4xx_HAL_Driver/Src/stm32f4xx_hal_tim_ex.c:1249:3
	b	.LBB21_41
.Ltmp356:
.LBB21_41:
	.loc	7 1252 10                       @ ../Drivers/STM32F4xx_HAL_Driver/Src/stm32f4xx_hal_tim_ex.c:1252:10
	ldrb.w	r0, [sp, #35]
	.loc	7 1252 3 is_stmt 0              @ ../Drivers/STM32F4xx_HAL_Driver/Src/stm32f4xx_hal_tim_ex.c:1252:3
	strb.w	r0, [sp, #47]
	b	.LBB21_42
.LBB21_42:
	.loc	7 1253 1 is_stmt 1              @ ../Drivers/STM32F4xx_HAL_Driver/Src/stm32f4xx_hal_tim_ex.c:1253:1
	ldrb.w	r0, [sp, #47]
	add	sp, #48
	pop	{r7, pc}
.Ltmp357:
.Lfunc_end21:
	.size	HAL_TIMEx_PWMN_Start_IT, .Lfunc_end21-HAL_TIMEx_PWMN_Start_IT
	.cfi_endproc
	.cantunwind
	.fnend
                                        @ -- End function
	.section	.text.HAL_TIMEx_PWMN_Stop_IT,"ax",%progbits
	.hidden	HAL_TIMEx_PWMN_Stop_IT          @ -- Begin function HAL_TIMEx_PWMN_Stop_IT
	.globl	HAL_TIMEx_PWMN_Stop_IT
	.p2align	2
	.type	HAL_TIMEx_PWMN_Stop_IT,%function
	.code	16                              @ @HAL_TIMEx_PWMN_Stop_IT
	.thumb_func
HAL_TIMEx_PWMN_Stop_IT:
.Lfunc_begin22:
	.loc	7 1267 0                        @ ../Drivers/STM32F4xx_HAL_Driver/Src/stm32f4xx_hal_tim_ex.c:1267:0
	.fnstart
	.cfi_startproc
@ %bb.0:
	.save	{r7, lr}
	push	{r7, lr}
	.cfi_def_cfa_offset 8
	.cfi_offset lr, -4
	.cfi_offset r7, -8
	.pad	#32
	sub	sp, #32
	.cfi_def_cfa_offset 40
	str	r0, [sp, #28]
	str	r1, [sp, #24]
	movs	r0, #0
.Ltmp358:
	.loc	7 1268 21 prologue_end          @ ../Drivers/STM32F4xx_HAL_Driver/Src/stm32f4xx_hal_tim_ex.c:1268:21
	strb.w	r0, [sp, #23]
	.loc	7 1274 11                       @ ../Drivers/STM32F4xx_HAL_Driver/Src/stm32f4xx_hal_tim_ex.c:1274:11
	ldr	r0, [sp, #24]
	.loc	7 1274 3 is_stmt 0              @ ../Drivers/STM32F4xx_HAL_Driver/Src/stm32f4xx_hal_tim_ex.c:1274:3
	str	r0, [sp, #12]                   @ 4-byte Spill
	cbz	r0, .LBB22_3
	b	.LBB22_1
.LBB22_1:
	ldr	r0, [sp, #12]                   @ 4-byte Reload
	cmp	r0, #4
	beq	.LBB22_4
	b	.LBB22_2
.LBB22_2:
	ldr	r0, [sp, #12]                   @ 4-byte Reload
	cmp	r0, #8
	beq	.LBB22_5
	b	.LBB22_6
.LBB22_3:
.Ltmp359:
	.loc	7 1279 9 is_stmt 1              @ ../Drivers/STM32F4xx_HAL_Driver/Src/stm32f4xx_hal_tim_ex.c:1279:9
	ldr	r0, [sp, #28]
	.loc	7 1279 16 is_stmt 0             @ ../Drivers/STM32F4xx_HAL_Driver/Src/stm32f4xx_hal_tim_ex.c:1279:16
	ldr	r1, [r0]
	.loc	7 1279 31                       @ ../Drivers/STM32F4xx_HAL_Driver/Src/stm32f4xx_hal_tim_ex.c:1279:31
	ldr	r0, [r1, #12]
	bic	r0, r0, #2
	str	r0, [r1, #12]
	.loc	7 1280 7 is_stmt 1              @ ../Drivers/STM32F4xx_HAL_Driver/Src/stm32f4xx_hal_tim_ex.c:1280:7
	b	.LBB22_7
.Ltmp360:
.LBB22_4:
	.loc	7 1286 9                        @ ../Drivers/STM32F4xx_HAL_Driver/Src/stm32f4xx_hal_tim_ex.c:1286:9
	ldr	r0, [sp, #28]
	.loc	7 1286 16 is_stmt 0             @ ../Drivers/STM32F4xx_HAL_Driver/Src/stm32f4xx_hal_tim_ex.c:1286:16
	ldr	r1, [r0]
	.loc	7 1286 31                       @ ../Drivers/STM32F4xx_HAL_Driver/Src/stm32f4xx_hal_tim_ex.c:1286:31
	ldr	r0, [r1, #12]
	bic	r0, r0, #4
	str	r0, [r1, #12]
	.loc	7 1287 7 is_stmt 1              @ ../Drivers/STM32F4xx_HAL_Driver/Src/stm32f4xx_hal_tim_ex.c:1287:7
	b	.LBB22_7
.Ltmp361:
.LBB22_5:
	.loc	7 1293 9                        @ ../Drivers/STM32F4xx_HAL_Driver/Src/stm32f4xx_hal_tim_ex.c:1293:9
	ldr	r0, [sp, #28]
	.loc	7 1293 16 is_stmt 0             @ ../Drivers/STM32F4xx_HAL_Driver/Src/stm32f4xx_hal_tim_ex.c:1293:16
	ldr	r1, [r0]
	.loc	7 1293 31                       @ ../Drivers/STM32F4xx_HAL_Driver/Src/stm32f4xx_hal_tim_ex.c:1293:31
	ldr	r0, [r1, #12]
	bic	r0, r0, #8
	str	r0, [r1, #12]
	.loc	7 1294 7 is_stmt 1              @ ../Drivers/STM32F4xx_HAL_Driver/Src/stm32f4xx_hal_tim_ex.c:1294:7
	b	.LBB22_7
.Ltmp362:
.LBB22_6:
	.loc	7 0 7 is_stmt 0                 @ ../Drivers/STM32F4xx_HAL_Driver/Src/stm32f4xx_hal_tim_ex.c:0:7
	movs	r0, #1
	.loc	7 1298 14 is_stmt 1             @ ../Drivers/STM32F4xx_HAL_Driver/Src/stm32f4xx_hal_tim_ex.c:1298:14
	strb.w	r0, [sp, #23]
	.loc	7 1299 7                        @ ../Drivers/STM32F4xx_HAL_Driver/Src/stm32f4xx_hal_tim_ex.c:1299:7
	b	.LBB22_7
.Ltmp363:
.LBB22_7:
	.loc	7 1302 7                        @ ../Drivers/STM32F4xx_HAL_Driver/Src/stm32f4xx_hal_tim_ex.c:1302:7
	ldrb.w	r0, [sp, #23]
.Ltmp364:
	.loc	7 1302 7 is_stmt 0              @ ../Drivers/STM32F4xx_HAL_Driver/Src/stm32f4xx_hal_tim_ex.c:1302:7
	cmp	r0, #0
	bne	.LBB22_32
	b	.LBB22_8
.LBB22_8:
.Ltmp365:
	.loc	7 1305 24 is_stmt 1             @ ../Drivers/STM32F4xx_HAL_Driver/Src/stm32f4xx_hal_tim_ex.c:1305:24
	ldr	r0, [sp, #28]
	.loc	7 1305 30 is_stmt 0             @ ../Drivers/STM32F4xx_HAL_Driver/Src/stm32f4xx_hal_tim_ex.c:1305:30
	ldr	r0, [r0]
	.loc	7 1305 40                       @ ../Drivers/STM32F4xx_HAL_Driver/Src/stm32f4xx_hal_tim_ex.c:1305:40
	ldr	r1, [sp, #24]
	movs	r2, #0
	.loc	7 1305 5                        @ ../Drivers/STM32F4xx_HAL_Driver/Src/stm32f4xx_hal_tim_ex.c:1305:5
	bl	TIM_CCxNChannelCmd
	.loc	7 1308 15 is_stmt 1             @ ../Drivers/STM32F4xx_HAL_Driver/Src/stm32f4xx_hal_tim_ex.c:1308:15
	ldr	r0, [sp, #28]
	.loc	7 1308 21 is_stmt 0             @ ../Drivers/STM32F4xx_HAL_Driver/Src/stm32f4xx_hal_tim_ex.c:1308:21
	ldr	r0, [r0]
	.loc	7 1308 31                       @ ../Drivers/STM32F4xx_HAL_Driver/Src/stm32f4xx_hal_tim_ex.c:1308:31
	ldr	r0, [r0, #32]
	.loc	7 1308 13                       @ ../Drivers/STM32F4xx_HAL_Driver/Src/stm32f4xx_hal_tim_ex.c:1308:13
	str	r0, [sp, #16]
	.loc	7 1309 9 is_stmt 1              @ ../Drivers/STM32F4xx_HAL_Driver/Src/stm32f4xx_hal_tim_ex.c:1309:9
	ldrh.w	r0, [sp, #16]
	movw	r1, #1092
	tst	r0, r1
	bne	.LBB22_10
	b	.LBB22_9
.LBB22_9:
.Ltmp366:
	.loc	7 1311 9                        @ ../Drivers/STM32F4xx_HAL_Driver/Src/stm32f4xx_hal_tim_ex.c:1311:9
	ldr	r0, [sp, #28]
	.loc	7 1311 16 is_stmt 0             @ ../Drivers/STM32F4xx_HAL_Driver/Src/stm32f4xx_hal_tim_ex.c:1311:16
	ldr	r1, [r0]
	.loc	7 1311 31                       @ ../Drivers/STM32F4xx_HAL_Driver/Src/stm32f4xx_hal_tim_ex.c:1311:31
	ldr	r0, [r1, #12]
	bic	r0, r0, #128
	str	r0, [r1, #12]
	.loc	7 1312 5 is_stmt 1              @ ../Drivers/STM32F4xx_HAL_Driver/Src/stm32f4xx_hal_tim_ex.c:1312:5
	b	.LBB22_10
.Ltmp367:
.LBB22_10:
	.loc	7 1315 5                        @ ../Drivers/STM32F4xx_HAL_Driver/Src/stm32f4xx_hal_tim_ex.c:1315:5
	b	.LBB22_11
.LBB22_11:
.Ltmp368:
	.loc	7 1315 16 is_stmt 0             @ ../Drivers/STM32F4xx_HAL_Driver/Src/stm32f4xx_hal_tim_ex.c:1315:16
	ldr	r0, [sp, #28]
	.loc	7 1315 23                       @ ../Drivers/STM32F4xx_HAL_Driver/Src/stm32f4xx_hal_tim_ex.c:1315:23
	ldr	r0, [r0]
	.loc	7 1315 33                       @ ../Drivers/STM32F4xx_HAL_Driver/Src/stm32f4xx_hal_tim_ex.c:1315:33
	ldr	r0, [r0, #32]
	movw	r1, #4369
.Ltmp369:
	.loc	7 1315 14                       @ ../Drivers/STM32F4xx_HAL_Driver/Src/stm32f4xx_hal_tim_ex.c:1315:14
	tst	r0, r1
	bne	.LBB22_15
	b	.LBB22_12
.LBB22_12:
.Ltmp370:
	.loc	7 1315 141                      @ ../Drivers/STM32F4xx_HAL_Driver/Src/stm32f4xx_hal_tim_ex.c:1315:141
	ldr	r0, [sp, #28]
	.loc	7 1315 148                      @ ../Drivers/STM32F4xx_HAL_Driver/Src/stm32f4xx_hal_tim_ex.c:1315:148
	ldr	r0, [r0]
	.loc	7 1315 158                      @ ../Drivers/STM32F4xx_HAL_Driver/Src/stm32f4xx_hal_tim_ex.c:1315:158
	ldr	r0, [r0, #32]
	movw	r1, #1092
.Ltmp371:
	.loc	7 1315 139                      @ ../Drivers/STM32F4xx_HAL_Driver/Src/stm32f4xx_hal_tim_ex.c:1315:139
	tst	r0, r1
	bne	.LBB22_14
	b	.LBB22_13
.LBB22_13:
.Ltmp372:
	.loc	7 1315 244                      @ ../Drivers/STM32F4xx_HAL_Driver/Src/stm32f4xx_hal_tim_ex.c:1315:244
	ldr	r0, [sp, #28]
	.loc	7 1315 251                      @ ../Drivers/STM32F4xx_HAL_Driver/Src/stm32f4xx_hal_tim_ex.c:1315:251
	ldr	r1, [r0]
	.loc	7 1315 266                      @ ../Drivers/STM32F4xx_HAL_Driver/Src/stm32f4xx_hal_tim_ex.c:1315:266
	ldr	r0, [r1, #68]
	bic	r0, r0, #32768
	str	r0, [r1, #68]
	.loc	7 1315 290                      @ ../Drivers/STM32F4xx_HAL_Driver/Src/stm32f4xx_hal_tim_ex.c:1315:290
	b	.LBB22_14
.Ltmp373:
.LBB22_14:
	.loc	7 1315 292                      @ ../Drivers/STM32F4xx_HAL_Driver/Src/stm32f4xx_hal_tim_ex.c:1315:292
	b	.LBB22_15
.Ltmp374:
.LBB22_15:
	.loc	7 1315 294                      @ ../Drivers/STM32F4xx_HAL_Driver/Src/stm32f4xx_hal_tim_ex.c:1315:294
	b	.LBB22_16
.Ltmp375:
.LBB22_16:
	.loc	7 1318 5 is_stmt 1              @ ../Drivers/STM32F4xx_HAL_Driver/Src/stm32f4xx_hal_tim_ex.c:1318:5
	b	.LBB22_17
.LBB22_17:
.Ltmp376:
	.loc	7 1318 16 is_stmt 0             @ ../Drivers/STM32F4xx_HAL_Driver/Src/stm32f4xx_hal_tim_ex.c:1318:16
	ldr	r0, [sp, #28]
	.loc	7 1318 23                       @ ../Drivers/STM32F4xx_HAL_Driver/Src/stm32f4xx_hal_tim_ex.c:1318:23
	ldr	r0, [r0]
	.loc	7 1318 33                       @ ../Drivers/STM32F4xx_HAL_Driver/Src/stm32f4xx_hal_tim_ex.c:1318:33
	ldr	r0, [r0, #32]
	movw	r1, #4369
.Ltmp377:
	.loc	7 1318 14                       @ ../Drivers/STM32F4xx_HAL_Driver/Src/stm32f4xx_hal_tim_ex.c:1318:14
	tst	r0, r1
	bne	.LBB22_21
	b	.LBB22_18
.LBB22_18:
.Ltmp378:
	.loc	7 1318 141                      @ ../Drivers/STM32F4xx_HAL_Driver/Src/stm32f4xx_hal_tim_ex.c:1318:141
	ldr	r0, [sp, #28]
	.loc	7 1318 148                      @ ../Drivers/STM32F4xx_HAL_Driver/Src/stm32f4xx_hal_tim_ex.c:1318:148
	ldr	r0, [r0]
	.loc	7 1318 158                      @ ../Drivers/STM32F4xx_HAL_Driver/Src/stm32f4xx_hal_tim_ex.c:1318:158
	ldr	r0, [r0, #32]
	movw	r1, #1092
.Ltmp379:
	.loc	7 1318 139                      @ ../Drivers/STM32F4xx_HAL_Driver/Src/stm32f4xx_hal_tim_ex.c:1318:139
	tst	r0, r1
	bne	.LBB22_20
	b	.LBB22_19
.LBB22_19:
.Ltmp380:
	.loc	7 1318 244                      @ ../Drivers/STM32F4xx_HAL_Driver/Src/stm32f4xx_hal_tim_ex.c:1318:244
	ldr	r0, [sp, #28]
	.loc	7 1318 251                      @ ../Drivers/STM32F4xx_HAL_Driver/Src/stm32f4xx_hal_tim_ex.c:1318:251
	ldr	r1, [r0]
	.loc	7 1318 265                      @ ../Drivers/STM32F4xx_HAL_Driver/Src/stm32f4xx_hal_tim_ex.c:1318:265
	ldr	r0, [r1]
	bic	r0, r0, #1
	str	r0, [r1]
	.loc	7 1318 288                      @ ../Drivers/STM32F4xx_HAL_Driver/Src/stm32f4xx_hal_tim_ex.c:1318:288
	b	.LBB22_20
.Ltmp381:
.LBB22_20:
	.loc	7 1318 290                      @ ../Drivers/STM32F4xx_HAL_Driver/Src/stm32f4xx_hal_tim_ex.c:1318:290
	b	.LBB22_21
.Ltmp382:
.LBB22_21:
	.loc	7 1318 292                      @ ../Drivers/STM32F4xx_HAL_Driver/Src/stm32f4xx_hal_tim_ex.c:1318:292
	b	.LBB22_22
.Ltmp383:
.LBB22_22:
	.loc	7 1321 8 is_stmt 1              @ ../Drivers/STM32F4xx_HAL_Driver/Src/stm32f4xx_hal_tim_ex.c:1321:8
	ldr	r0, [sp, #24]
	.loc	7 1321 6 is_stmt 0              @ ../Drivers/STM32F4xx_HAL_Driver/Src/stm32f4xx_hal_tim_ex.c:1321:6
	cbnz	r0, .LBB22_24
	b	.LBB22_23
.LBB22_23:
	.loc	7 1321 37                       @ ../Drivers/STM32F4xx_HAL_Driver/Src/stm32f4xx_hal_tim_ex.c:1321:37
	ldr	r1, [sp, #28]
	movs	r0, #1
	.loc	7 1321 61                       @ ../Drivers/STM32F4xx_HAL_Driver/Src/stm32f4xx_hal_tim_ex.c:1321:61
	strb.w	r0, [r1, #66]
	.loc	7 1321 6                        @ ../Drivers/STM32F4xx_HAL_Driver/Src/stm32f4xx_hal_tim_ex.c:1321:6
	b	.LBB22_31
.LBB22_24:
	.loc	7 1321 98                       @ ../Drivers/STM32F4xx_HAL_Driver/Src/stm32f4xx_hal_tim_ex.c:1321:98
	ldr	r0, [sp, #24]
	.loc	7 1321 96                       @ ../Drivers/STM32F4xx_HAL_Driver/Src/stm32f4xx_hal_tim_ex.c:1321:96
	cmp	r0, #4
	bne	.LBB22_26
	b	.LBB22_25
.LBB22_25:
	.loc	7 1321 127                      @ ../Drivers/STM32F4xx_HAL_Driver/Src/stm32f4xx_hal_tim_ex.c:1321:127
	ldr	r1, [sp, #28]
	movs	r0, #1
	.loc	7 1321 151                      @ ../Drivers/STM32F4xx_HAL_Driver/Src/stm32f4xx_hal_tim_ex.c:1321:151
	strb.w	r0, [r1, #67]
	.loc	7 1321 96                       @ ../Drivers/STM32F4xx_HAL_Driver/Src/stm32f4xx_hal_tim_ex.c:1321:96
	str	r0, [sp, #8]                    @ 4-byte Spill
	b	.LBB22_30
.LBB22_26:
	.loc	7 1321 188                      @ ../Drivers/STM32F4xx_HAL_Driver/Src/stm32f4xx_hal_tim_ex.c:1321:188
	ldr	r0, [sp, #24]
	.loc	7 1321 186                      @ ../Drivers/STM32F4xx_HAL_Driver/Src/stm32f4xx_hal_tim_ex.c:1321:186
	cmp	r0, #8
	bne	.LBB22_28
	b	.LBB22_27
.LBB22_27:
	.loc	7 1321 217                      @ ../Drivers/STM32F4xx_HAL_Driver/Src/stm32f4xx_hal_tim_ex.c:1321:217
	ldr	r1, [sp, #28]
	movs	r0, #1
	.loc	7 1321 241                      @ ../Drivers/STM32F4xx_HAL_Driver/Src/stm32f4xx_hal_tim_ex.c:1321:241
	strb.w	r0, [r1, #68]
	.loc	7 1321 186                      @ ../Drivers/STM32F4xx_HAL_Driver/Src/stm32f4xx_hal_tim_ex.c:1321:186
	str	r0, [sp, #4]                    @ 4-byte Spill
	b	.LBB22_29
.LBB22_28:
	.loc	7 1321 278                      @ ../Drivers/STM32F4xx_HAL_Driver/Src/stm32f4xx_hal_tim_ex.c:1321:278
	ldr	r1, [sp, #28]
	movs	r0, #1
	.loc	7 1321 302                      @ ../Drivers/STM32F4xx_HAL_Driver/Src/stm32f4xx_hal_tim_ex.c:1321:302
	strb.w	r0, [r1, #69]
	.loc	7 1321 186                      @ ../Drivers/STM32F4xx_HAL_Driver/Src/stm32f4xx_hal_tim_ex.c:1321:186
	str	r0, [sp, #4]                    @ 4-byte Spill
	b	.LBB22_29
.LBB22_29:
	ldr	r0, [sp, #4]                    @ 4-byte Reload
	.loc	7 1321 96                       @ ../Drivers/STM32F4xx_HAL_Driver/Src/stm32f4xx_hal_tim_ex.c:1321:96
	str	r0, [sp, #8]                    @ 4-byte Spill
	b	.LBB22_30
.LBB22_30:
	ldr	r0, [sp, #8]                    @ 4-byte Reload
	.loc	7 1321 6                        @ ../Drivers/STM32F4xx_HAL_Driver/Src/stm32f4xx_hal_tim_ex.c:1321:6
	b	.LBB22_31
.LBB22_31:
	.loc	7 1322 3 is_stmt 1              @ ../Drivers/STM32F4xx_HAL_Driver/Src/stm32f4xx_hal_tim_ex.c:1322:3
	b	.LBB22_32
.Ltmp384:
.LBB22_32:
	.loc	7 1325 10                       @ ../Drivers/STM32F4xx_HAL_Driver/Src/stm32f4xx_hal_tim_ex.c:1325:10
	ldrb.w	r0, [sp, #23]
	.loc	7 1325 3 is_stmt 0              @ ../Drivers/STM32F4xx_HAL_Driver/Src/stm32f4xx_hal_tim_ex.c:1325:3
	add	sp, #32
	pop	{r7, pc}
.Ltmp385:
.Lfunc_end22:
	.size	HAL_TIMEx_PWMN_Stop_IT, .Lfunc_end22-HAL_TIMEx_PWMN_Stop_IT
	.cfi_endproc
	.cantunwind
	.fnend
                                        @ -- End function
	.section	.text.HAL_TIMEx_PWMN_Start_DMA,"ax",%progbits
	.hidden	HAL_TIMEx_PWMN_Start_DMA        @ -- Begin function HAL_TIMEx_PWMN_Start_DMA
	.globl	HAL_TIMEx_PWMN_Start_DMA
	.p2align	2
	.type	HAL_TIMEx_PWMN_Start_DMA,%function
	.code	16                              @ @HAL_TIMEx_PWMN_Start_DMA
	.thumb_func
HAL_TIMEx_PWMN_Start_DMA:
.Lfunc_begin23:
	.loc	7 1343 0 is_stmt 1              @ ../Drivers/STM32F4xx_HAL_Driver/Src/stm32f4xx_hal_tim_ex.c:1343:0
	.fnstart
	.cfi_startproc
@ %bb.0:
	.save	{r7, lr}
	push	{r7, lr}
	.cfi_def_cfa_offset 8
	.cfi_offset lr, -4
	.cfi_offset r7, -8
	.pad	#64
	sub	sp, #64
	.cfi_def_cfa_offset 72
                                        @ kill: def $r12 killed $r3
	str	r0, [sp, #56]
	str	r1, [sp, #52]
	str	r2, [sp, #48]
	strh.w	r3, [sp, #46]
	movs	r0, #0
.Ltmp386:
	.loc	7 1344 21 prologue_end          @ ../Drivers/STM32F4xx_HAL_Driver/Src/stm32f4xx_hal_tim_ex.c:1344:21
	strb.w	r0, [sp, #45]
.Ltmp387:
	.loc	7 1351 10                       @ ../Drivers/STM32F4xx_HAL_Driver/Src/stm32f4xx_hal_tim_ex.c:1351:10
	ldr	r0, [sp, #52]
	.loc	7 1351 8 is_stmt 0              @ ../Drivers/STM32F4xx_HAL_Driver/Src/stm32f4xx_hal_tim_ex.c:1351:8
	cbnz	r0, .LBB23_2
	b	.LBB23_1
.LBB23_1:
	.loc	7 1351 38                       @ ../Drivers/STM32F4xx_HAL_Driver/Src/stm32f4xx_hal_tim_ex.c:1351:38
	ldr	r0, [sp, #56]
	.loc	7 1351 37                       @ ../Drivers/STM32F4xx_HAL_Driver/Src/stm32f4xx_hal_tim_ex.c:1351:37
	ldrb.w	r0, [r0, #66]
	.loc	7 1351 8                        @ ../Drivers/STM32F4xx_HAL_Driver/Src/stm32f4xx_hal_tim_ex.c:1351:8
	str	r0, [sp, #36]                   @ 4-byte Spill
	b	.LBB23_9
.LBB23_2:
	.loc	7 1351 66                       @ ../Drivers/STM32F4xx_HAL_Driver/Src/stm32f4xx_hal_tim_ex.c:1351:66
	ldr	r0, [sp, #52]
	.loc	7 1351 64                       @ ../Drivers/STM32F4xx_HAL_Driver/Src/stm32f4xx_hal_tim_ex.c:1351:64
	cmp	r0, #4
	bne	.LBB23_4
	b	.LBB23_3
.LBB23_3:
	.loc	7 1351 94                       @ ../Drivers/STM32F4xx_HAL_Driver/Src/stm32f4xx_hal_tim_ex.c:1351:94
	ldr	r0, [sp, #56]
	.loc	7 1351 93                       @ ../Drivers/STM32F4xx_HAL_Driver/Src/stm32f4xx_hal_tim_ex.c:1351:93
	ldrb.w	r0, [r0, #67]
	.loc	7 1351 64                       @ ../Drivers/STM32F4xx_HAL_Driver/Src/stm32f4xx_hal_tim_ex.c:1351:64
	str	r0, [sp, #32]                   @ 4-byte Spill
	b	.LBB23_8
.LBB23_4:
	.loc	7 1351 122                      @ ../Drivers/STM32F4xx_HAL_Driver/Src/stm32f4xx_hal_tim_ex.c:1351:122
	ldr	r0, [sp, #52]
	.loc	7 1351 120                      @ ../Drivers/STM32F4xx_HAL_Driver/Src/stm32f4xx_hal_tim_ex.c:1351:120
	cmp	r0, #8
	bne	.LBB23_6
	b	.LBB23_5
.LBB23_5:
	.loc	7 1351 150                      @ ../Drivers/STM32F4xx_HAL_Driver/Src/stm32f4xx_hal_tim_ex.c:1351:150
	ldr	r0, [sp, #56]
	.loc	7 1351 149                      @ ../Drivers/STM32F4xx_HAL_Driver/Src/stm32f4xx_hal_tim_ex.c:1351:149
	ldrb.w	r0, [r0, #68]
	.loc	7 1351 120                      @ ../Drivers/STM32F4xx_HAL_Driver/Src/stm32f4xx_hal_tim_ex.c:1351:120
	str	r0, [sp, #28]                   @ 4-byte Spill
	b	.LBB23_7
.LBB23_6:
	.loc	7 1351 177                      @ ../Drivers/STM32F4xx_HAL_Driver/Src/stm32f4xx_hal_tim_ex.c:1351:177
	ldr	r0, [sp, #56]
	.loc	7 1351 176                      @ ../Drivers/STM32F4xx_HAL_Driver/Src/stm32f4xx_hal_tim_ex.c:1351:176
	ldrb.w	r0, [r0, #69]
	.loc	7 1351 120                      @ ../Drivers/STM32F4xx_HAL_Driver/Src/stm32f4xx_hal_tim_ex.c:1351:120
	str	r0, [sp, #28]                   @ 4-byte Spill
	b	.LBB23_7
.LBB23_7:
	ldr	r0, [sp, #28]                   @ 4-byte Reload
	.loc	7 1351 64                       @ ../Drivers/STM32F4xx_HAL_Driver/Src/stm32f4xx_hal_tim_ex.c:1351:64
	str	r0, [sp, #32]                   @ 4-byte Spill
	b	.LBB23_8
.LBB23_8:
	ldr	r0, [sp, #32]                   @ 4-byte Reload
	.loc	7 1351 8                        @ ../Drivers/STM32F4xx_HAL_Driver/Src/stm32f4xx_hal_tim_ex.c:1351:8
	str	r0, [sp, #36]                   @ 4-byte Spill
	b	.LBB23_9
.LBB23_9:
	ldr	r0, [sp, #36]                   @ 4-byte Reload
.Ltmp388:
	.loc	7 1351 7                        @ ../Drivers/STM32F4xx_HAL_Driver/Src/stm32f4xx_hal_tim_ex.c:1351:7
	cmp	r0, #2
	bne	.LBB23_11
	b	.LBB23_10
.LBB23_10:
	.loc	7 0 7                           @ ../Drivers/STM32F4xx_HAL_Driver/Src/stm32f4xx_hal_tim_ex.c:0:7
	movs	r0, #2
.Ltmp389:
	.loc	7 1353 5 is_stmt 1              @ ../Drivers/STM32F4xx_HAL_Driver/Src/stm32f4xx_hal_tim_ex.c:1353:5
	strb.w	r0, [sp, #63]
	b	.LBB23_65
.Ltmp390:
.LBB23_11:
	.loc	7 1355 15                       @ ../Drivers/STM32F4xx_HAL_Driver/Src/stm32f4xx_hal_tim_ex.c:1355:15
	ldr	r0, [sp, #52]
	.loc	7 1355 13 is_stmt 0             @ ../Drivers/STM32F4xx_HAL_Driver/Src/stm32f4xx_hal_tim_ex.c:1355:13
	cbnz	r0, .LBB23_13
	b	.LBB23_12
.LBB23_12:
	.loc	7 1355 43                       @ ../Drivers/STM32F4xx_HAL_Driver/Src/stm32f4xx_hal_tim_ex.c:1355:43
	ldr	r0, [sp, #56]
	.loc	7 1355 42                       @ ../Drivers/STM32F4xx_HAL_Driver/Src/stm32f4xx_hal_tim_ex.c:1355:42
	ldrb.w	r0, [r0, #66]
	.loc	7 1355 13                       @ ../Drivers/STM32F4xx_HAL_Driver/Src/stm32f4xx_hal_tim_ex.c:1355:13
	str	r0, [sp, #24]                   @ 4-byte Spill
	b	.LBB23_20
.LBB23_13:
	.loc	7 1355 71                       @ ../Drivers/STM32F4xx_HAL_Driver/Src/stm32f4xx_hal_tim_ex.c:1355:71
	ldr	r0, [sp, #52]
	.loc	7 1355 69                       @ ../Drivers/STM32F4xx_HAL_Driver/Src/stm32f4xx_hal_tim_ex.c:1355:69
	cmp	r0, #4
	bne	.LBB23_15
	b	.LBB23_14
.LBB23_14:
	.loc	7 1355 99                       @ ../Drivers/STM32F4xx_HAL_Driver/Src/stm32f4xx_hal_tim_ex.c:1355:99
	ldr	r0, [sp, #56]
	.loc	7 1355 98                       @ ../Drivers/STM32F4xx_HAL_Driver/Src/stm32f4xx_hal_tim_ex.c:1355:98
	ldrb.w	r0, [r0, #67]
	.loc	7 1355 69                       @ ../Drivers/STM32F4xx_HAL_Driver/Src/stm32f4xx_hal_tim_ex.c:1355:69
	str	r0, [sp, #20]                   @ 4-byte Spill
	b	.LBB23_19
.LBB23_15:
	.loc	7 1355 127                      @ ../Drivers/STM32F4xx_HAL_Driver/Src/stm32f4xx_hal_tim_ex.c:1355:127
	ldr	r0, [sp, #52]
	.loc	7 1355 125                      @ ../Drivers/STM32F4xx_HAL_Driver/Src/stm32f4xx_hal_tim_ex.c:1355:125
	cmp	r0, #8
	bne	.LBB23_17
	b	.LBB23_16
.LBB23_16:
	.loc	7 1355 155                      @ ../Drivers/STM32F4xx_HAL_Driver/Src/stm32f4xx_hal_tim_ex.c:1355:155
	ldr	r0, [sp, #56]
	.loc	7 1355 154                      @ ../Drivers/STM32F4xx_HAL_Driver/Src/stm32f4xx_hal_tim_ex.c:1355:154
	ldrb.w	r0, [r0, #68]
	.loc	7 1355 125                      @ ../Drivers/STM32F4xx_HAL_Driver/Src/stm32f4xx_hal_tim_ex.c:1355:125
	str	r0, [sp, #16]                   @ 4-byte Spill
	b	.LBB23_18
.LBB23_17:
	.loc	7 1355 182                      @ ../Drivers/STM32F4xx_HAL_Driver/Src/stm32f4xx_hal_tim_ex.c:1355:182
	ldr	r0, [sp, #56]
	.loc	7 1355 181                      @ ../Drivers/STM32F4xx_HAL_Driver/Src/stm32f4xx_hal_tim_ex.c:1355:181
	ldrb.w	r0, [r0, #69]
	.loc	7 1355 125                      @ ../Drivers/STM32F4xx_HAL_Driver/Src/stm32f4xx_hal_tim_ex.c:1355:125
	str	r0, [sp, #16]                   @ 4-byte Spill
	b	.LBB23_18
.LBB23_18:
	ldr	r0, [sp, #16]                   @ 4-byte Reload
	.loc	7 1355 69                       @ ../Drivers/STM32F4xx_HAL_Driver/Src/stm32f4xx_hal_tim_ex.c:1355:69
	str	r0, [sp, #20]                   @ 4-byte Spill
	b	.LBB23_19
.LBB23_19:
	ldr	r0, [sp, #20]                   @ 4-byte Reload
	.loc	7 1355 13                       @ ../Drivers/STM32F4xx_HAL_Driver/Src/stm32f4xx_hal_tim_ex.c:1355:13
	str	r0, [sp, #24]                   @ 4-byte Spill
	b	.LBB23_20
.LBB23_20:
	ldr	r0, [sp, #24]                   @ 4-byte Reload
.Ltmp391:
	.loc	7 1355 12                       @ ../Drivers/STM32F4xx_HAL_Driver/Src/stm32f4xx_hal_tim_ex.c:1355:12
	cmp	r0, #1
	bne	.LBB23_35
	b	.LBB23_21
.LBB23_21:
.Ltmp392:
	.loc	7 1357 10 is_stmt 1             @ ../Drivers/STM32F4xx_HAL_Driver/Src/stm32f4xx_hal_tim_ex.c:1357:10
	ldr	r0, [sp, #48]
	.loc	7 1357 22 is_stmt 0             @ ../Drivers/STM32F4xx_HAL_Driver/Src/stm32f4xx_hal_tim_ex.c:1357:22
	cbz	r0, .LBB23_23
	b	.LBB23_22
.LBB23_22:
	.loc	7 1357 26                       @ ../Drivers/STM32F4xx_HAL_Driver/Src/stm32f4xx_hal_tim_ex.c:1357:26
	ldrh.w	r0, [sp, #46]
.Ltmp393:
	.loc	7 1357 9                        @ ../Drivers/STM32F4xx_HAL_Driver/Src/stm32f4xx_hal_tim_ex.c:1357:9
	cbnz	r0, .LBB23_24
	b	.LBB23_23
.LBB23_23:
	.loc	7 0 9                           @ ../Drivers/STM32F4xx_HAL_Driver/Src/stm32f4xx_hal_tim_ex.c:0:9
	movs	r0, #1
.Ltmp394:
	.loc	7 1359 7 is_stmt 1              @ ../Drivers/STM32F4xx_HAL_Driver/Src/stm32f4xx_hal_tim_ex.c:1359:7
	strb.w	r0, [sp, #63]
	b	.LBB23_65
.Ltmp395:
.LBB23_24:
	.loc	7 1363 10                       @ ../Drivers/STM32F4xx_HAL_Driver/Src/stm32f4xx_hal_tim_ex.c:1363:10
	ldr	r0, [sp, #52]
	.loc	7 1363 8 is_stmt 0              @ ../Drivers/STM32F4xx_HAL_Driver/Src/stm32f4xx_hal_tim_ex.c:1363:8
	cbnz	r0, .LBB23_26
	b	.LBB23_25
.LBB23_25:
	.loc	7 1363 39                       @ ../Drivers/STM32F4xx_HAL_Driver/Src/stm32f4xx_hal_tim_ex.c:1363:39
	ldr	r1, [sp, #56]
	movs	r0, #2
	.loc	7 1363 63                       @ ../Drivers/STM32F4xx_HAL_Driver/Src/stm32f4xx_hal_tim_ex.c:1363:63
	strb.w	r0, [r1, #66]
	.loc	7 1363 8                        @ ../Drivers/STM32F4xx_HAL_Driver/Src/stm32f4xx_hal_tim_ex.c:1363:8
	b	.LBB23_33
.LBB23_26:
	.loc	7 1363 99                       @ ../Drivers/STM32F4xx_HAL_Driver/Src/stm32f4xx_hal_tim_ex.c:1363:99
	ldr	r0, [sp, #52]
	.loc	7 1363 97                       @ ../Drivers/STM32F4xx_HAL_Driver/Src/stm32f4xx_hal_tim_ex.c:1363:97
	cmp	r0, #4
	bne	.LBB23_28
	b	.LBB23_27
.LBB23_27:
	.loc	7 1363 128                      @ ../Drivers/STM32F4xx_HAL_Driver/Src/stm32f4xx_hal_tim_ex.c:1363:128
	ldr	r1, [sp, #56]
	movs	r0, #2
	.loc	7 1363 152                      @ ../Drivers/STM32F4xx_HAL_Driver/Src/stm32f4xx_hal_tim_ex.c:1363:152
	strb.w	r0, [r1, #67]
	.loc	7 1363 97                       @ ../Drivers/STM32F4xx_HAL_Driver/Src/stm32f4xx_hal_tim_ex.c:1363:97
	str	r0, [sp, #12]                   @ 4-byte Spill
	b	.LBB23_32
.LBB23_28:
	.loc	7 1363 188                      @ ../Drivers/STM32F4xx_HAL_Driver/Src/stm32f4xx_hal_tim_ex.c:1363:188
	ldr	r0, [sp, #52]
	.loc	7 1363 186                      @ ../Drivers/STM32F4xx_HAL_Driver/Src/stm32f4xx_hal_tim_ex.c:1363:186
	cmp	r0, #8
	bne	.LBB23_30
	b	.LBB23_29
.LBB23_29:
	.loc	7 1363 217                      @ ../Drivers/STM32F4xx_HAL_Driver/Src/stm32f4xx_hal_tim_ex.c:1363:217
	ldr	r1, [sp, #56]
	movs	r0, #2
	.loc	7 1363 241                      @ ../Drivers/STM32F4xx_HAL_Driver/Src/stm32f4xx_hal_tim_ex.c:1363:241
	strb.w	r0, [r1, #68]
	.loc	7 1363 186                      @ ../Drivers/STM32F4xx_HAL_Driver/Src/stm32f4xx_hal_tim_ex.c:1363:186
	str	r0, [sp, #8]                    @ 4-byte Spill
	b	.LBB23_31
.LBB23_30:
	.loc	7 1363 277                      @ ../Drivers/STM32F4xx_HAL_Driver/Src/stm32f4xx_hal_tim_ex.c:1363:277
	ldr	r1, [sp, #56]
	movs	r0, #2
	.loc	7 1363 301                      @ ../Drivers/STM32F4xx_HAL_Driver/Src/stm32f4xx_hal_tim_ex.c:1363:301
	strb.w	r0, [r1, #69]
	.loc	7 1363 186                      @ ../Drivers/STM32F4xx_HAL_Driver/Src/stm32f4xx_hal_tim_ex.c:1363:186
	str	r0, [sp, #8]                    @ 4-byte Spill
	b	.LBB23_31
.LBB23_31:
	ldr	r0, [sp, #8]                    @ 4-byte Reload
	.loc	7 1363 97                       @ ../Drivers/STM32F4xx_HAL_Driver/Src/stm32f4xx_hal_tim_ex.c:1363:97
	str	r0, [sp, #12]                   @ 4-byte Spill
	b	.LBB23_32
.LBB23_32:
	ldr	r0, [sp, #12]                   @ 4-byte Reload
	.loc	7 1363 8                        @ ../Drivers/STM32F4xx_HAL_Driver/Src/stm32f4xx_hal_tim_ex.c:1363:8
	b	.LBB23_33
.Ltmp396:
.LBB23_33:
	.loc	7 0 8                           @ ../Drivers/STM32F4xx_HAL_Driver/Src/stm32f4xx_hal_tim_ex.c:0:8
	b	.LBB23_34
.LBB23_34:
	.loc	7 1365 3 is_stmt 1              @ ../Drivers/STM32F4xx_HAL_Driver/Src/stm32f4xx_hal_tim_ex.c:1365:3
	b	.LBB23_36
.Ltmp397:
.LBB23_35:
	.loc	7 0 3 is_stmt 0                 @ ../Drivers/STM32F4xx_HAL_Driver/Src/stm32f4xx_hal_tim_ex.c:0:3
	movs	r0, #1
.Ltmp398:
	.loc	7 1368 5 is_stmt 1              @ ../Drivers/STM32F4xx_HAL_Driver/Src/stm32f4xx_hal_tim_ex.c:1368:5
	strb.w	r0, [sp, #63]
	b	.LBB23_65
.Ltmp399:
.LBB23_36:
	.loc	7 0 5 is_stmt 0                 @ ../Drivers/STM32F4xx_HAL_Driver/Src/stm32f4xx_hal_tim_ex.c:0:5
	b	.LBB23_37
.LBB23_37:
	.loc	7 1371 11 is_stmt 1             @ ../Drivers/STM32F4xx_HAL_Driver/Src/stm32f4xx_hal_tim_ex.c:1371:11
	ldr	r0, [sp, #52]
	.loc	7 1371 3 is_stmt 0              @ ../Drivers/STM32F4xx_HAL_Driver/Src/stm32f4xx_hal_tim_ex.c:1371:3
	str	r0, [sp, #4]                    @ 4-byte Spill
	cbz	r0, .LBB23_40
	b	.LBB23_38
.LBB23_38:
	ldr	r0, [sp, #4]                    @ 4-byte Reload
	cmp	r0, #4
	beq	.LBB23_43
	b	.LBB23_39
.LBB23_39:
	ldr	r0, [sp, #4]                    @ 4-byte Reload
	cmp	r0, #8
	beq	.LBB23_46
	b	.LBB23_49
.LBB23_40:
.Ltmp400:
	.loc	7 1376 7 is_stmt 1              @ ../Drivers/STM32F4xx_HAL_Driver/Src/stm32f4xx_hal_tim_ex.c:1376:7
	ldr	r0, [sp, #56]
	ldr	r1, [r0, #36]
	.loc	7 1376 57 is_stmt 0             @ ../Drivers/STM32F4xx_HAL_Driver/Src/stm32f4xx_hal_tim_ex.c:1376:57
