	.text
	.syntax unified
	.eabi_attribute	67, "2.09"	@ Tag_conformance
	.cpu	cortex-m4
	.eabi_attribute	6, 13	@ Tag_CPU_arch
	.eabi_attribute	7, 77	@ Tag_CPU_arch_profile
	.eabi_attribute	8, 0	@ Tag_ARM_ISA_use
	.eabi_attribute	9, 2	@ Tag_THUMB_ISA_use
	.fpu	fpv4-sp-d16
	.eabi_attribute	27, 1	@ Tag_ABI_HardFP_use
	.eabi_attribute	36, 1	@ Tag_FP_HP_extension
	.eabi_attribute	34, 1	@ Tag_CPU_unaligned_access
	.eabi_attribute	17, 1	@ Tag_ABI_PCS_GOT_use
	.eabi_attribute	20, 2	@ Tag_ABI_FP_denormal
	.eabi_attribute	21, 0	@ Tag_ABI_FP_exceptions
	.eabi_attribute	23, 3	@ Tag_ABI_FP_number_model
	.eabi_attribute	24, 1	@ Tag_ABI_align_needed
	.eabi_attribute	25, 1	@ Tag_ABI_align_preserved
	.eabi_attribute	28, 1	@ Tag_ABI_VFP_args
	.eabi_attribute	38, 1	@ Tag_ABI_FP_16bit_format
	.eabi_attribute	18, 2	@ Tag_ABI_PCS_wchar_t
	.eabi_attribute	26, 1	@ Tag_ABI_enum_size
	.eabi_attribute	14, 0	@ Tag_ABI_PCS_R9_use
	.file	"stm32f4xx_hal_rcc.c"
	.file	1 "D:\\horizon\\Horizon_Infantry (2)\\MDK-ARM" "../Drivers/STM32F4xx_HAL_Driver/Inc/stm32f4xx_hal_def.h"
	.file	2 "D:\\horizon\\Horizon_Infantry (2)\\MDK-ARM" "../Drivers/CMSIS/Device/ST/STM32F4xx/Include\\stm32f4xx.h"
	.file	3 "D:\\" "kevil\\ARM\\ARMCLANG\\Bin\\..\\include\\stdint.h"
	.file	4 "D:\\horizon\\Horizon_Infantry (2)\\MDK-ARM" "../Drivers/CMSIS/Device/ST/STM32F4xx/Include/stm32f407xx.h"
	.section	.text.HAL_RCC_DeInit,"ax",%progbits
	.hidden	HAL_RCC_DeInit                  @ -- Begin function HAL_RCC_DeInit
	.weak	HAL_RCC_DeInit
	.p2align	2
	.type	HAL_RCC_DeInit,%function
	.code	16                              @ @HAL_RCC_DeInit
	.thumb_func
HAL_RCC_DeInit:
.Lfunc_begin0:
	.file	5 "D:\\horizon\\Horizon_Infantry (2)\\MDK-ARM" "../Drivers/STM32F4xx_HAL_Driver/Src/stm32f4xx_hal_rcc.c"
	.loc	5 201 0                         @ ../Drivers/STM32F4xx_HAL_Driver/Src/stm32f4xx_hal_rcc.c:201:0
	.fnstart
	.cfi_sections .debug_frame
	.cfi_startproc
@ %bb.0:
	movs	r0, #0
.Ltmp0:
	.loc	5 202 3 prologue_end            @ ../Drivers/STM32F4xx_HAL_Driver/Src/stm32f4xx_hal_rcc.c:202:3
	bx	lr
.Ltmp1:
.Lfunc_end0:
	.size	HAL_RCC_DeInit, .Lfunc_end0-HAL_RCC_DeInit
	.cfi_endproc
	.cantunwind
	.fnend
                                        @ -- End function
	.section	.text.HAL_RCC_OscConfig,"ax",%progbits
	.hidden	HAL_RCC_OscConfig               @ -- Begin function HAL_RCC_OscConfig
	.weak	HAL_RCC_OscConfig
	.p2align	2
	.type	HAL_RCC_OscConfig,%function
	.code	16                              @ @HAL_RCC_OscConfig
	.thumb_func
HAL_RCC_OscConfig:
.Lfunc_begin1:
	.loc	5 220 0                         @ ../Drivers/STM32F4xx_HAL_Driver/Src/stm32f4xx_hal_rcc.c:220:0
	.fnstart
	.cfi_startproc
@ %bb.0:
	.save	{r7, lr}
	push	{r7, lr}
	.cfi_def_cfa_offset 8
	.cfi_offset lr, -4
	.cfi_offset r7, -8
	.pad	#24
	sub	sp, #24
	.cfi_def_cfa_offset 32
	str	r0, [sp, #16]
.Ltmp2:
	.loc	5 224 7 prologue_end            @ ../Drivers/STM32F4xx_HAL_Driver/Src/stm32f4xx_hal_rcc.c:224:7
	ldr	r0, [sp, #16]
.Ltmp3:
	.loc	5 224 7 is_stmt 0               @ ../Drivers/STM32F4xx_HAL_Driver/Src/stm32f4xx_hal_rcc.c:224:7
	cbnz	r0, .LBB1_2
	b	.LBB1_1
.LBB1_1:
	.loc	5 0 7                           @ ../Drivers/STM32F4xx_HAL_Driver/Src/stm32f4xx_hal_rcc.c:0:7
	movs	r0, #1
.Ltmp4:
	.loc	5 226 5 is_stmt 1               @ ../Drivers/STM32F4xx_HAL_Driver/Src/stm32f4xx_hal_rcc.c:226:5
	strb.w	r0, [sp, #23]
	b	.LBB1_142
.Ltmp5:
.LBB1_2:
	.loc	5 232 9                         @ ../Drivers/STM32F4xx_HAL_Driver/Src/stm32f4xx_hal_rcc.c:232:9
	ldr	r0, [sp, #16]
.Ltmp6:
	.loc	5 232 7 is_stmt 0               @ ../Drivers/STM32F4xx_HAL_Driver/Src/stm32f4xx_hal_rcc.c:232:7
	ldrb	r0, [r0]
	lsls	r0, r0, #31
	cmp	r0, #0
	beq.w	.LBB1_33
	b	.LBB1_3
.LBB1_3:
	.loc	5 0 7                           @ ../Drivers/STM32F4xx_HAL_Driver/Src/stm32f4xx_hal_rcc.c:0:7
	movw	r0, #14344
	movt	r0, #16386
.Ltmp7:
	.loc	5 237 73 is_stmt 1              @ ../Drivers/STM32F4xx_HAL_Driver/Src/stm32f4xx_hal_rcc.c:237:73
	ldr	r0, [r0]
	.loc	5 237 78 is_stmt 0              @ ../Drivers/STM32F4xx_HAL_Driver/Src/stm32f4xx_hal_rcc.c:237:78
	and	r0, r0, #12
	.loc	5 237 113                       @ ../Drivers/STM32F4xx_HAL_Driver/Src/stm32f4xx_hal_rcc.c:237:113
	cmp	r0, #4
	beq	.LBB1_6
	b	.LBB1_4
.LBB1_4:
	.loc	5 0 113                         @ ../Drivers/STM32F4xx_HAL_Driver/Src/stm32f4xx_hal_rcc.c:0:113
	movw	r0, #14344
	movt	r0, #16386
	.loc	5 237 181                       @ ../Drivers/STM32F4xx_HAL_Driver/Src/stm32f4xx_hal_rcc.c:237:181
	ldr	r0, [r0]
	.loc	5 237 186                       @ ../Drivers/STM32F4xx_HAL_Driver/Src/stm32f4xx_hal_rcc.c:237:186
	and	r0, r0, #12
	.loc	5 237 221                       @ ../Drivers/STM32F4xx_HAL_Driver/Src/stm32f4xx_hal_rcc.c:237:221
	cmp	r0, #8
	bne	.LBB1_10
	b	.LBB1_5
.LBB1_5:
	.loc	5 0 221                         @ ../Drivers/STM32F4xx_HAL_Driver/Src/stm32f4xx_hal_rcc.c:0:221
	movw	r0, #14340
	movt	r0, #16386
	.loc	5 237 288                       @ ../Drivers/STM32F4xx_HAL_Driver/Src/stm32f4xx_hal_rcc.c:237:288
	ldr	r0, [r0]
.Ltmp8:
	.loc	5 237 9                         @ ../Drivers/STM32F4xx_HAL_Driver/Src/stm32f4xx_hal_rcc.c:237:9
	lsls	r0, r0, #9
	cmp	r0, #0
	bpl	.LBB1_10
	b	.LBB1_6
.LBB1_6:
	.loc	5 0 9                           @ ../Drivers/STM32F4xx_HAL_Driver/Src/stm32f4xx_hal_rcc.c:0:9
	movw	r0, #14336
	movt	r0, #16386
.Ltmp9:
	.loc	5 240 113 is_stmt 1             @ ../Drivers/STM32F4xx_HAL_Driver/Src/stm32f4xx_hal_rcc.c:240:113
	ldr	r0, [r0]
	.loc	5 240 394 is_stmt 0             @ ../Drivers/STM32F4xx_HAL_Driver/Src/stm32f4xx_hal_rcc.c:240:394
	and	r1, r0, #131072
	movs	r0, #0
	.loc	5 240 470                       @ ../Drivers/STM32F4xx_HAL_Driver/Src/stm32f4xx_hal_rcc.c:240:470
	cmp.w	r0, r1, lsr #17
	beq	.LBB1_9
	b	.LBB1_7
.LBB1_7:
	.loc	5 240 474                       @ ../Drivers/STM32F4xx_HAL_Driver/Src/stm32f4xx_hal_rcc.c:240:474
	ldr	r0, [sp, #16]
	.loc	5 240 493                       @ ../Drivers/STM32F4xx_HAL_Driver/Src/stm32f4xx_hal_rcc.c:240:493
	ldr	r0, [r0, #4]
.Ltmp10:
	.loc	5 240 11                        @ ../Drivers/STM32F4xx_HAL_Driver/Src/stm32f4xx_hal_rcc.c:240:11
	cbnz	r0, .LBB1_9
	b	.LBB1_8
.LBB1_8:
	.loc	5 0 11                          @ ../Drivers/STM32F4xx_HAL_Driver/Src/stm32f4xx_hal_rcc.c:0:11
	movs	r0, #1
.Ltmp11:
	.loc	5 242 9 is_stmt 1               @ ../Drivers/STM32F4xx_HAL_Driver/Src/stm32f4xx_hal_rcc.c:242:9
	strb.w	r0, [sp, #23]
	b	.LBB1_142
.Ltmp12:
.LBB1_9:
	.loc	5 244 5                         @ ../Drivers/STM32F4xx_HAL_Driver/Src/stm32f4xx_hal_rcc.c:244:5
	b	.LBB1_32
.Ltmp13:
.LBB1_10:
	.loc	5 248 7                         @ ../Drivers/STM32F4xx_HAL_Driver/Src/stm32f4xx_hal_rcc.c:248:7
	b	.LBB1_11
.LBB1_11:
.Ltmp14:
	.loc	5 248 17 is_stmt 0              @ ../Drivers/STM32F4xx_HAL_Driver/Src/stm32f4xx_hal_rcc.c:248:17
	ldr	r0, [sp, #16]
	.loc	5 248 36                        @ ../Drivers/STM32F4xx_HAL_Driver/Src/stm32f4xx_hal_rcc.c:248:36
	ldr	r0, [r0, #4]
.Ltmp15:
	.loc	5 248 16                        @ ../Drivers/STM32F4xx_HAL_Driver/Src/stm32f4xx_hal_rcc.c:248:16
	cmp.w	r0, #65536
	bne	.LBB1_13
	b	.LBB1_12
.LBB1_12:
	.loc	5 0 16                          @ ../Drivers/STM32F4xx_HAL_Driver/Src/stm32f4xx_hal_rcc.c:0:16
	movw	r1, #14336
	movt	r1, #16386
.Ltmp16:
	.loc	5 248 137                       @ ../Drivers/STM32F4xx_HAL_Driver/Src/stm32f4xx_hal_rcc.c:248:137
	ldr	r0, [r1]
	orr	r0, r0, #65536
	str	r0, [r1]
	.loc	5 248 161                       @ ../Drivers/STM32F4xx_HAL_Driver/Src/stm32f4xx_hal_rcc.c:248:161
	b	.LBB1_17
.Ltmp17:
.LBB1_13:
	.loc	5 248 173                       @ ../Drivers/STM32F4xx_HAL_Driver/Src/stm32f4xx_hal_rcc.c:248:173
	ldr	r0, [sp, #16]
	.loc	5 248 192                       @ ../Drivers/STM32F4xx_HAL_Driver/Src/stm32f4xx_hal_rcc.c:248:192
	ldr	r0, [r0, #4]
.Ltmp18:
	.loc	5 248 172                       @ ../Drivers/STM32F4xx_HAL_Driver/Src/stm32f4xx_hal_rcc.c:248:172
	cmp.w	r0, #327680
	bne	.LBB1_15
	b	.LBB1_14
.LBB1_14:
	.loc	5 0 172                         @ ../Drivers/STM32F4xx_HAL_Driver/Src/stm32f4xx_hal_rcc.c:0:172
	movw	r1, #14336
	movt	r1, #16386
.Ltmp19:
	.loc	5 248 326                       @ ../Drivers/STM32F4xx_HAL_Driver/Src/stm32f4xx_hal_rcc.c:248:326
	ldr	r0, [r1]
	orr	r0, r0, #262144
	str	r0, [r1]
	.loc	5 248 418                       @ ../Drivers/STM32F4xx_HAL_Driver/Src/stm32f4xx_hal_rcc.c:248:418
	ldr	r0, [r1]
	orr	r0, r0, #65536
	str	r0, [r1]
	.loc	5 248 442                       @ ../Drivers/STM32F4xx_HAL_Driver/Src/stm32f4xx_hal_rcc.c:248:442
	b	.LBB1_16
.Ltmp20:
.LBB1_15:
	.loc	5 0 442                         @ ../Drivers/STM32F4xx_HAL_Driver/Src/stm32f4xx_hal_rcc.c:0:442
	movw	r1, #14336
	movt	r1, #16386
.Ltmp21:
	.loc	5 248 519                       @ ../Drivers/STM32F4xx_HAL_Driver/Src/stm32f4xx_hal_rcc.c:248:519
	ldr	r0, [r1]
	bic	r0, r0, #65536
	str	r0, [r1]
	.loc	5 248 612                       @ ../Drivers/STM32F4xx_HAL_Driver/Src/stm32f4xx_hal_rcc.c:248:612
	ldr	r0, [r1]
	bic	r0, r0, #262144
	str	r0, [r1]
	b	.LBB1_16
.Ltmp22:
.LBB1_16:
	.loc	5 0 612                         @ ../Drivers/STM32F4xx_HAL_Driver/Src/stm32f4xx_hal_rcc.c:0:612
	b	.LBB1_17
.LBB1_17:
	.loc	5 248 639                       @ ../Drivers/STM32F4xx_HAL_Driver/Src/stm32f4xx_hal_rcc.c:248:639
	b	.LBB1_18
.Ltmp23:
.LBB1_18:
	.loc	5 251 12 is_stmt 1              @ ../Drivers/STM32F4xx_HAL_Driver/Src/stm32f4xx_hal_rcc.c:251:12
	ldr	r0, [sp, #16]
	.loc	5 251 31 is_stmt 0              @ ../Drivers/STM32F4xx_HAL_Driver/Src/stm32f4xx_hal_rcc.c:251:31
	ldr	r0, [r0, #4]
.Ltmp24:
	.loc	5 251 11                        @ ../Drivers/STM32F4xx_HAL_Driver/Src/stm32f4xx_hal_rcc.c:251:11
	cbz	r0, .LBB1_25
	b	.LBB1_19
.LBB1_19:
.Ltmp25:
	.loc	5 254 21 is_stmt 1              @ ../Drivers/STM32F4xx_HAL_Driver/Src/stm32f4xx_hal_rcc.c:254:21
	bl	HAL_GetTick
	.loc	5 254 19 is_stmt 0              @ ../Drivers/STM32F4xx_HAL_Driver/Src/stm32f4xx_hal_rcc.c:254:19
	str	r0, [sp, #12]
	.loc	5 257 9 is_stmt 1               @ ../Drivers/STM32F4xx_HAL_Driver/Src/stm32f4xx_hal_rcc.c:257:9
	b	.LBB1_20
.LBB1_20:                               @ =>This Inner Loop Header: Depth=1
	.loc	5 0 9 is_stmt 0                 @ ../Drivers/STM32F4xx_HAL_Driver/Src/stm32f4xx_hal_rcc.c:0:9
	movw	r0, #14336
	movt	r0, #16386
	.loc	5 257 117                       @ ../Drivers/STM32F4xx_HAL_Driver/Src/stm32f4xx_hal_rcc.c:257:117
	ldr	r0, [r0]
	.loc	5 257 398                       @ ../Drivers/STM32F4xx_HAL_Driver/Src/stm32f4xx_hal_rcc.c:257:398
	and	r1, r0, #131072
	movs	r0, #0
	.loc	5 257 9                         @ ../Drivers/STM32F4xx_HAL_Driver/Src/stm32f4xx_hal_rcc.c:257:9
	cmp.w	r0, r1, lsr #17
	bne	.LBB1_24
	b	.LBB1_21
.LBB1_21:                               @   in Loop: Header=BB1_20 Depth=1
.Ltmp26:
	.loc	5 259 16 is_stmt 1              @ ../Drivers/STM32F4xx_HAL_Driver/Src/stm32f4xx_hal_rcc.c:259:16
	bl	HAL_GetTick
	.loc	5 259 32 is_stmt 0              @ ../Drivers/STM32F4xx_HAL_Driver/Src/stm32f4xx_hal_rcc.c:259:32
	ldr	r1, [sp, #12]
	.loc	5 259 30                        @ ../Drivers/STM32F4xx_HAL_Driver/Src/stm32f4xx_hal_rcc.c:259:30
	subs	r0, r0, r1
.Ltmp27:
	.loc	5 259 15                        @ ../Drivers/STM32F4xx_HAL_Driver/Src/stm32f4xx_hal_rcc.c:259:15
	cmp	r0, #101
	blo	.LBB1_23
	b	.LBB1_22
.LBB1_22:
	.loc	5 0 15                          @ ../Drivers/STM32F4xx_HAL_Driver/Src/stm32f4xx_hal_rcc.c:0:15
	movs	r0, #3
.Ltmp28:
	.loc	5 261 13 is_stmt 1              @ ../Drivers/STM32F4xx_HAL_Driver/Src/stm32f4xx_hal_rcc.c:261:13
	strb.w	r0, [sp, #23]
	b	.LBB1_142
.Ltmp29:
.LBB1_23:                               @   in Loop: Header=BB1_20 Depth=1
	.loc	5 257 9                         @ ../Drivers/STM32F4xx_HAL_Driver/Src/stm32f4xx_hal_rcc.c:257:9
	b	.LBB1_20
.LBB1_24:
	.loc	5 264 7                         @ ../Drivers/STM32F4xx_HAL_Driver/Src/stm32f4xx_hal_rcc.c:264:7
	b	.LBB1_31
.Ltmp30:
.LBB1_25:
	.loc	5 268 21                        @ ../Drivers/STM32F4xx_HAL_Driver/Src/stm32f4xx_hal_rcc.c:268:21
	bl	HAL_GetTick
	.loc	5 268 19 is_stmt 0              @ ../Drivers/STM32F4xx_HAL_Driver/Src/stm32f4xx_hal_rcc.c:268:19
	str	r0, [sp, #12]
	.loc	5 271 9 is_stmt 1               @ ../Drivers/STM32F4xx_HAL_Driver/Src/stm32f4xx_hal_rcc.c:271:9
	b	.LBB1_26
.LBB1_26:                               @ =>This Inner Loop Header: Depth=1
	.loc	5 0 9 is_stmt 0                 @ ../Drivers/STM32F4xx_HAL_Driver/Src/stm32f4xx_hal_rcc.c:0:9
	movw	r0, #14336
	movt	r0, #16386
	.loc	5 271 117                       @ ../Drivers/STM32F4xx_HAL_Driver/Src/stm32f4xx_hal_rcc.c:271:117
	ldr	r0, [r0]
	.loc	5 271 398                       @ ../Drivers/STM32F4xx_HAL_Driver/Src/stm32f4xx_hal_rcc.c:271:398
	and	r1, r0, #131072
	movs	r0, #0
	.loc	5 271 9                         @ ../Drivers/STM32F4xx_HAL_Driver/Src/stm32f4xx_hal_rcc.c:271:9
	cmp.w	r0, r1, lsr #17
	beq	.LBB1_30
	b	.LBB1_27
.LBB1_27:                               @   in Loop: Header=BB1_26 Depth=1
.Ltmp31:
	.loc	5 273 16 is_stmt 1              @ ../Drivers/STM32F4xx_HAL_Driver/Src/stm32f4xx_hal_rcc.c:273:16
	bl	HAL_GetTick
	.loc	5 273 32 is_stmt 0              @ ../Drivers/STM32F4xx_HAL_Driver/Src/stm32f4xx_hal_rcc.c:273:32
	ldr	r1, [sp, #12]
	.loc	5 273 30                        @ ../Drivers/STM32F4xx_HAL_Driver/Src/stm32f4xx_hal_rcc.c:273:30
	subs	r0, r0, r1
.Ltmp32:
	.loc	5 273 15                        @ ../Drivers/STM32F4xx_HAL_Driver/Src/stm32f4xx_hal_rcc.c:273:15
	cmp	r0, #101
	blo	.LBB1_29
	b	.LBB1_28
.LBB1_28:
	.loc	5 0 15                          @ ../Drivers/STM32F4xx_HAL_Driver/Src/stm32f4xx_hal_rcc.c:0:15
	movs	r0, #3
.Ltmp33:
	.loc	5 275 13 is_stmt 1              @ ../Drivers/STM32F4xx_HAL_Driver/Src/stm32f4xx_hal_rcc.c:275:13
	strb.w	r0, [sp, #23]
	b	.LBB1_142
.Ltmp34:
.LBB1_29:                               @   in Loop: Header=BB1_26 Depth=1
	.loc	5 271 9                         @ ../Drivers/STM32F4xx_HAL_Driver/Src/stm32f4xx_hal_rcc.c:271:9
	b	.LBB1_26
.Ltmp35:
.LBB1_30:
	.loc	5 0 9 is_stmt 0                 @ ../Drivers/STM32F4xx_HAL_Driver/Src/stm32f4xx_hal_rcc.c:0:9
	b	.LBB1_31
.LBB1_31:
	b	.LBB1_32
.LBB1_32:
	.loc	5 280 3 is_stmt 1               @ ../Drivers/STM32F4xx_HAL_Driver/Src/stm32f4xx_hal_rcc.c:280:3
	b	.LBB1_33
.Ltmp36:
.LBB1_33:
	.loc	5 282 9                         @ ../Drivers/STM32F4xx_HAL_Driver/Src/stm32f4xx_hal_rcc.c:282:9
	ldr	r0, [sp, #16]
.Ltmp37:
	.loc	5 282 7 is_stmt 0               @ ../Drivers/STM32F4xx_HAL_Driver/Src/stm32f4xx_hal_rcc.c:282:7
	ldrb	r0, [r0]
	lsls	r0, r0, #30
	cmp	r0, #0
	bpl.w	.LBB1_57
	b	.LBB1_34
.LBB1_34:
	.loc	5 0 7                           @ ../Drivers/STM32F4xx_HAL_Driver/Src/stm32f4xx_hal_rcc.c:0:7
	movw	r0, #14344
	movt	r0, #16386
.Ltmp38:
	.loc	5 289 73 is_stmt 1              @ ../Drivers/STM32F4xx_HAL_Driver/Src/stm32f4xx_hal_rcc.c:289:73
	ldr	r0, [r0]
	.loc	5 289 113 is_stmt 0             @ ../Drivers/STM32F4xx_HAL_Driver/Src/stm32f4xx_hal_rcc.c:289:113
	tst.w	r0, #12
	beq	.LBB1_37
	b	.LBB1_35
.LBB1_35:
	.loc	5 0 113                         @ ../Drivers/STM32F4xx_HAL_Driver/Src/stm32f4xx_hal_rcc.c:0:113
	movw	r0, #14344
	movt	r0, #16386
	.loc	5 289 181                       @ ../Drivers/STM32F4xx_HAL_Driver/Src/stm32f4xx_hal_rcc.c:289:181
	ldr	r0, [r0]
	.loc	5 289 186                       @ ../Drivers/STM32F4xx_HAL_Driver/Src/stm32f4xx_hal_rcc.c:289:186
	and	r0, r0, #12
	.loc	5 289 221                       @ ../Drivers/STM32F4xx_HAL_Driver/Src/stm32f4xx_hal_rcc.c:289:221
	cmp	r0, #8
	bne	.LBB1_42
	b	.LBB1_36
.LBB1_36:
	.loc	5 0 221                         @ ../Drivers/STM32F4xx_HAL_Driver/Src/stm32f4xx_hal_rcc.c:0:221
	movw	r0, #14340
	movt	r0, #16386
	.loc	5 289 288                       @ ../Drivers/STM32F4xx_HAL_Driver/Src/stm32f4xx_hal_rcc.c:289:288
	ldr	r0, [r0]
.Ltmp39:
	.loc	5 289 9                         @ ../Drivers/STM32F4xx_HAL_Driver/Src/stm32f4xx_hal_rcc.c:289:9
	lsls	r0, r0, #9
	cmp	r0, #0
	bmi	.LBB1_42
	b	.LBB1_37
.LBB1_37:
	.loc	5 0 9                           @ ../Drivers/STM32F4xx_HAL_Driver/Src/stm32f4xx_hal_rcc.c:0:9
	movw	r0, #14336
	movt	r0, #16386
.Ltmp40:
	.loc	5 293 113 is_stmt 1             @ ../Drivers/STM32F4xx_HAL_Driver/Src/stm32f4xx_hal_rcc.c:293:113
	ldr	r0, [r0]
	.loc	5 293 394 is_stmt 0             @ ../Drivers/STM32F4xx_HAL_Driver/Src/stm32f4xx_hal_rcc.c:293:394
	and	r1, r0, #2
	movs	r0, #0
	.loc	5 293 470                       @ ../Drivers/STM32F4xx_HAL_Driver/Src/stm32f4xx_hal_rcc.c:293:470
	cmp.w	r0, r1, lsr #1
	beq	.LBB1_40
	b	.LBB1_38
.LBB1_38:
	.loc	5 293 474                       @ ../Drivers/STM32F4xx_HAL_Driver/Src/stm32f4xx_hal_rcc.c:293:474
	ldr	r0, [sp, #16]
	.loc	5 293 493                       @ ../Drivers/STM32F4xx_HAL_Driver/Src/stm32f4xx_hal_rcc.c:293:493
	ldr	r0, [r0, #12]
.Ltmp41:
	.loc	5 293 11                        @ ../Drivers/STM32F4xx_HAL_Driver/Src/stm32f4xx_hal_rcc.c:293:11
	cmp	r0, #1
	beq	.LBB1_40
	b	.LBB1_39
.LBB1_39:
	.loc	5 0 11                          @ ../Drivers/STM32F4xx_HAL_Driver/Src/stm32f4xx_hal_rcc.c:0:11
	movs	r0, #1
.Ltmp42:
	.loc	5 295 9 is_stmt 1               @ ../Drivers/STM32F4xx_HAL_Driver/Src/stm32f4xx_hal_rcc.c:295:9
	strb.w	r0, [sp, #23]
	b	.LBB1_142
.Ltmp43:
.LBB1_40:
	.loc	5 0 9 is_stmt 0                 @ ../Drivers/STM32F4xx_HAL_Driver/Src/stm32f4xx_hal_rcc.c:0:9
	movw	r1, #14336
	movt	r1, #16386
.Ltmp44:
	.loc	5 301 150 is_stmt 1             @ ../Drivers/STM32F4xx_HAL_Driver/Src/stm32f4xx_hal_rcc.c:301:150
	ldr	r0, [r1]
	.loc	5 301 156 is_stmt 0             @ ../Drivers/STM32F4xx_HAL_Driver/Src/stm32f4xx_hal_rcc.c:301:156
	bic	r0, r0, #248
	.loc	5 301 195                       @ ../Drivers/STM32F4xx_HAL_Driver/Src/stm32f4xx_hal_rcc.c:301:195
	ldr	r2, [sp, #16]
	.loc	5 301 214                       @ ../Drivers/STM32F4xx_HAL_Driver/Src/stm32f4xx_hal_rcc.c:301:214
	ldr	r2, [r2, #16]
	.loc	5 301 181                       @ ../Drivers/STM32F4xx_HAL_Driver/Src/stm32f4xx_hal_rcc.c:301:181
	orr.w	r0, r0, r2, lsl #3
	.loc	5 301 80                        @ ../Drivers/STM32F4xx_HAL_Driver/Src/stm32f4xx_hal_rcc.c:301:80
	str	r0, [r1]
	b	.LBB1_41
.Ltmp45:
.LBB1_41:
	.loc	5 303 5 is_stmt 1               @ ../Drivers/STM32F4xx_HAL_Driver/Src/stm32f4xx_hal_rcc.c:303:5
	b	.LBB1_56
.Ltmp46:
.LBB1_42:
	.loc	5 307 12                        @ ../Drivers/STM32F4xx_HAL_Driver/Src/stm32f4xx_hal_rcc.c:307:12
	ldr	r0, [sp, #16]
	.loc	5 307 31 is_stmt 0              @ ../Drivers/STM32F4xx_HAL_Driver/Src/stm32f4xx_hal_rcc.c:307:31
	ldr	r0, [r0, #12]
.Ltmp47:
	.loc	5 307 11                        @ ../Drivers/STM32F4xx_HAL_Driver/Src/stm32f4xx_hal_rcc.c:307:11
	cbz	r0, .LBB1_49
	b	.LBB1_43
.LBB1_43:
	.loc	5 0 11                          @ ../Drivers/STM32F4xx_HAL_Driver/Src/stm32f4xx_hal_rcc.c:0:11
	movs	r1, #0
	movt	r1, #16967
	movs	r0, #1
.Ltmp48:
	.loc	5 310 143 is_stmt 1             @ ../Drivers/STM32F4xx_HAL_Driver/Src/stm32f4xx_hal_rcc.c:310:143
	str	r0, [r1]
	.loc	5 313 21                        @ ../Drivers/STM32F4xx_HAL_Driver/Src/stm32f4xx_hal_rcc.c:313:21
	bl	HAL_GetTick
	.loc	5 313 19 is_stmt 0              @ ../Drivers/STM32F4xx_HAL_Driver/Src/stm32f4xx_hal_rcc.c:313:19
	str	r0, [sp, #12]
	.loc	5 316 9 is_stmt 1               @ ../Drivers/STM32F4xx_HAL_Driver/Src/stm32f4xx_hal_rcc.c:316:9
	b	.LBB1_44
.LBB1_44:                               @ =>This Inner Loop Header: Depth=1
	.loc	5 0 9 is_stmt 0                 @ ../Drivers/STM32F4xx_HAL_Driver/Src/stm32f4xx_hal_rcc.c:0:9
	movw	r0, #14336
	movt	r0, #16386
	.loc	5 316 117                       @ ../Drivers/STM32F4xx_HAL_Driver/Src/stm32f4xx_hal_rcc.c:316:117
	ldr	r0, [r0]
	.loc	5 316 398                       @ ../Drivers/STM32F4xx_HAL_Driver/Src/stm32f4xx_hal_rcc.c:316:398
	and	r1, r0, #2
	movs	r0, #0
	.loc	5 316 9                         @ ../Drivers/STM32F4xx_HAL_Driver/Src/stm32f4xx_hal_rcc.c:316:9
	cmp.w	r0, r1, lsr #1
	bne	.LBB1_48
	b	.LBB1_45
.LBB1_45:                               @   in Loop: Header=BB1_44 Depth=1
.Ltmp49:
	.loc	5 318 16 is_stmt 1              @ ../Drivers/STM32F4xx_HAL_Driver/Src/stm32f4xx_hal_rcc.c:318:16
	bl	HAL_GetTick
	.loc	5 318 32 is_stmt 0              @ ../Drivers/STM32F4xx_HAL_Driver/Src/stm32f4xx_hal_rcc.c:318:32
	ldr	r1, [sp, #12]
	.loc	5 318 30                        @ ../Drivers/STM32F4xx_HAL_Driver/Src/stm32f4xx_hal_rcc.c:318:30
	subs	r0, r0, r1
.Ltmp50:
	.loc	5 318 15                        @ ../Drivers/STM32F4xx_HAL_Driver/Src/stm32f4xx_hal_rcc.c:318:15
	cmp	r0, #3
	blo	.LBB1_47
	b	.LBB1_46
.LBB1_46:
	.loc	5 0 15                          @ ../Drivers/STM32F4xx_HAL_Driver/Src/stm32f4xx_hal_rcc.c:0:15
	movs	r0, #3
.Ltmp51:
	.loc	5 320 13 is_stmt 1              @ ../Drivers/STM32F4xx_HAL_Driver/Src/stm32f4xx_hal_rcc.c:320:13
	strb.w	r0, [sp, #23]
	b	.LBB1_142
.Ltmp52:
.LBB1_47:                               @   in Loop: Header=BB1_44 Depth=1
	.loc	5 316 9                         @ ../Drivers/STM32F4xx_HAL_Driver/Src/stm32f4xx_hal_rcc.c:316:9
	b	.LBB1_44
.LBB1_48:
	.loc	5 0 9 is_stmt 0                 @ ../Drivers/STM32F4xx_HAL_Driver/Src/stm32f4xx_hal_rcc.c:0:9
	movw	r1, #14336
	movt	r1, #16386
	.loc	5 325 150 is_stmt 1             @ ../Drivers/STM32F4xx_HAL_Driver/Src/stm32f4xx_hal_rcc.c:325:150
	ldr	r0, [r1]
	.loc	5 325 156 is_stmt 0             @ ../Drivers/STM32F4xx_HAL_Driver/Src/stm32f4xx_hal_rcc.c:325:156
	bic	r0, r0, #248
	.loc	5 325 195                       @ ../Drivers/STM32F4xx_HAL_Driver/Src/stm32f4xx_hal_rcc.c:325:195
	ldr	r2, [sp, #16]
	.loc	5 325 214                       @ ../Drivers/STM32F4xx_HAL_Driver/Src/stm32f4xx_hal_rcc.c:325:214
	ldr	r2, [r2, #16]
	.loc	5 325 181                       @ ../Drivers/STM32F4xx_HAL_Driver/Src/stm32f4xx_hal_rcc.c:325:181
	orr.w	r0, r0, r2, lsl #3
	.loc	5 325 80                        @ ../Drivers/STM32F4xx_HAL_Driver/Src/stm32f4xx_hal_rcc.c:325:80
	str	r0, [r1]
	.loc	5 326 7 is_stmt 1               @ ../Drivers/STM32F4xx_HAL_Driver/Src/stm32f4xx_hal_rcc.c:326:7
	b	.LBB1_55
.Ltmp53:
.LBB1_49:
	.loc	5 0 7 is_stmt 0                 @ ../Drivers/STM32F4xx_HAL_Driver/Src/stm32f4xx_hal_rcc.c:0:7
	movs	r1, #0
	movt	r1, #16967
	movs	r0, #0
.Ltmp54:
	.loc	5 330 143 is_stmt 1             @ ../Drivers/STM32F4xx_HAL_Driver/Src/stm32f4xx_hal_rcc.c:330:143
	str	r0, [r1]
	.loc	5 333 21                        @ ../Drivers/STM32F4xx_HAL_Driver/Src/stm32f4xx_hal_rcc.c:333:21
	bl	HAL_GetTick
	.loc	5 333 19 is_stmt 0              @ ../Drivers/STM32F4xx_HAL_Driver/Src/stm32f4xx_hal_rcc.c:333:19
	str	r0, [sp, #12]
	.loc	5 336 9 is_stmt 1               @ ../Drivers/STM32F4xx_HAL_Driver/Src/stm32f4xx_hal_rcc.c:336:9
	b	.LBB1_50
.LBB1_50:                               @ =>This Inner Loop Header: Depth=1
	.loc	5 0 9 is_stmt 0                 @ ../Drivers/STM32F4xx_HAL_Driver/Src/stm32f4xx_hal_rcc.c:0:9
	movw	r0, #14336
	movt	r0, #16386
	.loc	5 336 117                       @ ../Drivers/STM32F4xx_HAL_Driver/Src/stm32f4xx_hal_rcc.c:336:117
	ldr	r0, [r0]
	.loc	5 336 398                       @ ../Drivers/STM32F4xx_HAL_Driver/Src/stm32f4xx_hal_rcc.c:336:398
	and	r1, r0, #2
	movs	r0, #0
	.loc	5 336 9                         @ ../Drivers/STM32F4xx_HAL_Driver/Src/stm32f4xx_hal_rcc.c:336:9
	cmp.w	r0, r1, lsr #1
	beq	.LBB1_54
	b	.LBB1_51
.LBB1_51:                               @   in Loop: Header=BB1_50 Depth=1
.Ltmp55:
	.loc	5 338 16 is_stmt 1              @ ../Drivers/STM32F4xx_HAL_Driver/Src/stm32f4xx_hal_rcc.c:338:16
	bl	HAL_GetTick
	.loc	5 338 32 is_stmt 0              @ ../Drivers/STM32F4xx_HAL_Driver/Src/stm32f4xx_hal_rcc.c:338:32
	ldr	r1, [sp, #12]
	.loc	5 338 30                        @ ../Drivers/STM32F4xx_HAL_Driver/Src/stm32f4xx_hal_rcc.c:338:30
	subs	r0, r0, r1
.Ltmp56:
	.loc	5 338 15                        @ ../Drivers/STM32F4xx_HAL_Driver/Src/stm32f4xx_hal_rcc.c:338:15
	cmp	r0, #3
	blo	.LBB1_53
	b	.LBB1_52
.LBB1_52:
	.loc	5 0 15                          @ ../Drivers/STM32F4xx_HAL_Driver/Src/stm32f4xx_hal_rcc.c:0:15
	movs	r0, #3
.Ltmp57:
	.loc	5 340 13 is_stmt 1              @ ../Drivers/STM32F4xx_HAL_Driver/Src/stm32f4xx_hal_rcc.c:340:13
	strb.w	r0, [sp, #23]
	b	.LBB1_142
.Ltmp58:
.LBB1_53:                               @   in Loop: Header=BB1_50 Depth=1
	.loc	5 336 9                         @ ../Drivers/STM32F4xx_HAL_Driver/Src/stm32f4xx_hal_rcc.c:336:9
	b	.LBB1_50
.Ltmp59:
.LBB1_54:
	.loc	5 0 9 is_stmt 0                 @ ../Drivers/STM32F4xx_HAL_Driver/Src/stm32f4xx_hal_rcc.c:0:9
	b	.LBB1_55
.LBB1_55:
	b	.LBB1_56
.LBB1_56:
	.loc	5 345 3 is_stmt 1               @ ../Drivers/STM32F4xx_HAL_Driver/Src/stm32f4xx_hal_rcc.c:345:3
	b	.LBB1_57
.Ltmp60:
.LBB1_57:
	.loc	5 347 9                         @ ../Drivers/STM32F4xx_HAL_Driver/Src/stm32f4xx_hal_rcc.c:347:9
	ldr	r0, [sp, #16]
.Ltmp61:
	.loc	5 347 7 is_stmt 0               @ ../Drivers/STM32F4xx_HAL_Driver/Src/stm32f4xx_hal_rcc.c:347:7
	ldrb	r0, [r0]
	lsls	r0, r0, #28
	cmp	r0, #0
	bpl	.LBB1_72
	b	.LBB1_58
.LBB1_58:
.Ltmp62:
	.loc	5 353 10 is_stmt 1              @ ../Drivers/STM32F4xx_HAL_Driver/Src/stm32f4xx_hal_rcc.c:353:10
	ldr	r0, [sp, #16]
	.loc	5 353 29 is_stmt 0              @ ../Drivers/STM32F4xx_HAL_Driver/Src/stm32f4xx_hal_rcc.c:353:29
	ldr	r0, [r0, #20]
.Ltmp63:
	.loc	5 353 9                         @ ../Drivers/STM32F4xx_HAL_Driver/Src/stm32f4xx_hal_rcc.c:353:9
	cbz	r0, .LBB1_65
	b	.LBB1_59
.LBB1_59:
	.loc	5 0 9                           @ ../Drivers/STM32F4xx_HAL_Driver/Src/stm32f4xx_hal_rcc.c:0:9
	movw	r1, #3712
	movt	r1, #16967
	movs	r0, #1
.Ltmp64:
	.loc	5 356 141 is_stmt 1             @ ../Drivers/STM32F4xx_HAL_Driver/Src/stm32f4xx_hal_rcc.c:356:141
	str	r0, [r1]
	.loc	5 359 19                        @ ../Drivers/STM32F4xx_HAL_Driver/Src/stm32f4xx_hal_rcc.c:359:19
	bl	HAL_GetTick
	.loc	5 359 17 is_stmt 0              @ ../Drivers/STM32F4xx_HAL_Driver/Src/stm32f4xx_hal_rcc.c:359:17
	str	r0, [sp, #12]
	.loc	5 362 7 is_stmt 1               @ ../Drivers/STM32F4xx_HAL_Driver/Src/stm32f4xx_hal_rcc.c:362:7
	b	.LBB1_60
.LBB1_60:                               @ =>This Inner Loop Header: Depth=1
	.loc	5 0 7 is_stmt 0                 @ ../Drivers/STM32F4xx_HAL_Driver/Src/stm32f4xx_hal_rcc.c:0:7
	movw	r0, #14452
	movt	r0, #16386
	.loc	5 362 322                       @ ../Drivers/STM32F4xx_HAL_Driver/Src/stm32f4xx_hal_rcc.c:362:322
	ldr	r0, [r0]
	.loc	5 362 396                       @ ../Drivers/STM32F4xx_HAL_Driver/Src/stm32f4xx_hal_rcc.c:362:396
	and	r1, r0, #2
	movs	r0, #0
	.loc	5 362 7                         @ ../Drivers/STM32F4xx_HAL_Driver/Src/stm32f4xx_hal_rcc.c:362:7
	cmp.w	r0, r1, lsr #1
	bne	.LBB1_64
	b	.LBB1_61
.LBB1_61:                               @   in Loop: Header=BB1_60 Depth=1
.Ltmp65:
	.loc	5 364 14 is_stmt 1              @ ../Drivers/STM32F4xx_HAL_Driver/Src/stm32f4xx_hal_rcc.c:364:14
	bl	HAL_GetTick
	.loc	5 364 30 is_stmt 0              @ ../Drivers/STM32F4xx_HAL_Driver/Src/stm32f4xx_hal_rcc.c:364:30
	ldr	r1, [sp, #12]
	.loc	5 364 28                        @ ../Drivers/STM32F4xx_HAL_Driver/Src/stm32f4xx_hal_rcc.c:364:28
	subs	r0, r0, r1
.Ltmp66:
	.loc	5 364 13                        @ ../Drivers/STM32F4xx_HAL_Driver/Src/stm32f4xx_hal_rcc.c:364:13
	cmp	r0, #3
	blo	.LBB1_63
	b	.LBB1_62
.LBB1_62:
	.loc	5 0 13                          @ ../Drivers/STM32F4xx_HAL_Driver/Src/stm32f4xx_hal_rcc.c:0:13
	movs	r0, #3
.Ltmp67:
	.loc	5 366 11 is_stmt 1              @ ../Drivers/STM32F4xx_HAL_Driver/Src/stm32f4xx_hal_rcc.c:366:11
	strb.w	r0, [sp, #23]
	b	.LBB1_142
.Ltmp68:
.LBB1_63:                               @   in Loop: Header=BB1_60 Depth=1
	.loc	5 362 7                         @ ../Drivers/STM32F4xx_HAL_Driver/Src/stm32f4xx_hal_rcc.c:362:7
	b	.LBB1_60
.LBB1_64:
	.loc	5 369 5                         @ ../Drivers/STM32F4xx_HAL_Driver/Src/stm32f4xx_hal_rcc.c:369:5
	b	.LBB1_71
.Ltmp69:
.LBB1_65:
	.loc	5 0 5 is_stmt 0                 @ ../Drivers/STM32F4xx_HAL_Driver/Src/stm32f4xx_hal_rcc.c:0:5
	movw	r1, #3712
	movt	r1, #16967
	movs	r0, #0
.Ltmp70:
	.loc	5 373 141 is_stmt 1             @ ../Drivers/STM32F4xx_HAL_Driver/Src/stm32f4xx_hal_rcc.c:373:141
	str	r0, [r1]
	.loc	5 376 19                        @ ../Drivers/STM32F4xx_HAL_Driver/Src/stm32f4xx_hal_rcc.c:376:19
	bl	HAL_GetTick
	.loc	5 376 17 is_stmt 0              @ ../Drivers/STM32F4xx_HAL_Driver/Src/stm32f4xx_hal_rcc.c:376:17
	str	r0, [sp, #12]
	.loc	5 379 7 is_stmt 1               @ ../Drivers/STM32F4xx_HAL_Driver/Src/stm32f4xx_hal_rcc.c:379:7
	b	.LBB1_66
.LBB1_66:                               @ =>This Inner Loop Header: Depth=1
	.loc	5 0 7 is_stmt 0                 @ ../Drivers/STM32F4xx_HAL_Driver/Src/stm32f4xx_hal_rcc.c:0:7
	movw	r0, #14452
	movt	r0, #16386
	.loc	5 379 322                       @ ../Drivers/STM32F4xx_HAL_Driver/Src/stm32f4xx_hal_rcc.c:379:322
	ldr	r0, [r0]
	.loc	5 379 396                       @ ../Drivers/STM32F4xx_HAL_Driver/Src/stm32f4xx_hal_rcc.c:379:396
	and	r1, r0, #2
	movs	r0, #0
	.loc	5 379 7                         @ ../Drivers/STM32F4xx_HAL_Driver/Src/stm32f4xx_hal_rcc.c:379:7
	cmp.w	r0, r1, lsr #1
	beq	.LBB1_70
	b	.LBB1_67
.LBB1_67:                               @   in Loop: Header=BB1_66 Depth=1
.Ltmp71:
	.loc	5 381 14 is_stmt 1              @ ../Drivers/STM32F4xx_HAL_Driver/Src/stm32f4xx_hal_rcc.c:381:14
	bl	HAL_GetTick
	.loc	5 381 30 is_stmt 0              @ ../Drivers/STM32F4xx_HAL_Driver/Src/stm32f4xx_hal_rcc.c:381:30
	ldr	r1, [sp, #12]
	.loc	5 381 28                        @ ../Drivers/STM32F4xx_HAL_Driver/Src/stm32f4xx_hal_rcc.c:381:28
	subs	r0, r0, r1
.Ltmp72:
	.loc	5 381 13                        @ ../Drivers/STM32F4xx_HAL_Driver/Src/stm32f4xx_hal_rcc.c:381:13
	cmp	r0, #3
	blo	.LBB1_69
	b	.LBB1_68
.LBB1_68:
	.loc	5 0 13                          @ ../Drivers/STM32F4xx_HAL_Driver/Src/stm32f4xx_hal_rcc.c:0:13
	movs	r0, #3
.Ltmp73:
	.loc	5 383 11 is_stmt 1              @ ../Drivers/STM32F4xx_HAL_Driver/Src/stm32f4xx_hal_rcc.c:383:11
	strb.w	r0, [sp, #23]
	b	.LBB1_142
.Ltmp74:
.LBB1_69:                               @   in Loop: Header=BB1_66 Depth=1
	.loc	5 379 7                         @ ../Drivers/STM32F4xx_HAL_Driver/Src/stm32f4xx_hal_rcc.c:379:7
	b	.LBB1_66
.Ltmp75:
.LBB1_70:
	.loc	5 0 7 is_stmt 0                 @ ../Drivers/STM32F4xx_HAL_Driver/Src/stm32f4xx_hal_rcc.c:0:7
	b	.LBB1_71
.LBB1_71:
	.loc	5 387 3 is_stmt 1               @ ../Drivers/STM32F4xx_HAL_Driver/Src/stm32f4xx_hal_rcc.c:387:3
	b	.LBB1_72
.Ltmp76:
.LBB1_72:
	.loc	5 389 9                         @ ../Drivers/STM32F4xx_HAL_Driver/Src/stm32f4xx_hal_rcc.c:389:9
	ldr	r0, [sp, #16]
.Ltmp77:
	.loc	5 389 7 is_stmt 0               @ ../Drivers/STM32F4xx_HAL_Driver/Src/stm32f4xx_hal_rcc.c:389:7
	ldrb	r0, [r0]
	lsls	r0, r0, #29
	cmp	r0, #0
	bpl.w	.LBB1_108
	b	.LBB1_73
.LBB1_73:
	.loc	5 0 7                           @ ../Drivers/STM32F4xx_HAL_Driver/Src/stm32f4xx_hal_rcc.c:0:7
	movs	r0, #0
.Ltmp78:
	.loc	5 391 16 is_stmt 1              @ ../Drivers/STM32F4xx_HAL_Driver/Src/stm32f4xx_hal_rcc.c:391:16
	strb.w	r0, [sp, #7]
	movw	r0, #14400
	movt	r0, #16386
.Ltmp79:
	.loc	5 398 73                        @ ../Drivers/STM32F4xx_HAL_Driver/Src/stm32f4xx_hal_rcc.c:398:73
	ldr	r0, [r0]
.Ltmp80:
	.loc	5 398 9 is_stmt 0               @ ../Drivers/STM32F4xx_HAL_Driver/Src/stm32f4xx_hal_rcc.c:398:9
	lsls	r0, r0, #3
	cmp	r0, #0
	bmi	.LBB1_77
	b	.LBB1_74
.LBB1_74:
.Ltmp81:
	.loc	5 400 7 is_stmt 1               @ ../Drivers/STM32F4xx_HAL_Driver/Src/stm32f4xx_hal_rcc.c:400:7
	b	.LBB1_75
.LBB1_75:
	.loc	5 0 7 is_stmt 0                 @ ../Drivers/STM32F4xx_HAL_Driver/Src/stm32f4xx_hal_rcc.c:0:7
	movs	r0, #0
.Ltmp82:
	.loc	5 400 30                        @ ../Drivers/STM32F4xx_HAL_Driver/Src/stm32f4xx_hal_rcc.c:400:30
	str	r0, [sp]
	movw	r0, #14400
	movt	r0, #16386
	.loc	5 400 119                       @ ../Drivers/STM32F4xx_HAL_Driver/Src/stm32f4xx_hal_rcc.c:400:119
	ldr	r1, [r0]
	orr	r1, r1, #268435456
	str	r1, [r0]
	.loc	5 400 216                       @ ../Drivers/STM32F4xx_HAL_Driver/Src/stm32f4xx_hal_rcc.c:400:216
	ldr	r0, [r0]
	.loc	5 400 225                       @ ../Drivers/STM32F4xx_HAL_Driver/Src/stm32f4xx_hal_rcc.c:400:225
	and	r0, r0, #268435456
	.loc	5 400 150                       @ ../Drivers/STM32F4xx_HAL_Driver/Src/stm32f4xx_hal_rcc.c:400:150
	str	r0, [sp]
	.loc	5 400 254                       @ ../Drivers/STM32F4xx_HAL_Driver/Src/stm32f4xx_hal_rcc.c:400:254
	ldr	r0, [sp]
	.loc	5 400 262                       @ ../Drivers/STM32F4xx_HAL_Driver/Src/stm32f4xx_hal_rcc.c:400:262
	b	.LBB1_76
.Ltmp83:
.LBB1_76:
	.loc	5 0 262                         @ ../Drivers/STM32F4xx_HAL_Driver/Src/stm32f4xx_hal_rcc.c:0:262
	movs	r0, #1
	.loc	5 401 21 is_stmt 1              @ ../Drivers/STM32F4xx_HAL_Driver/Src/stm32f4xx_hal_rcc.c:401:21
	strb.w	r0, [sp, #7]
	.loc	5 402 5                         @ ../Drivers/STM32F4xx_HAL_Driver/Src/stm32f4xx_hal_rcc.c:402:5
	b	.LBB1_77
.Ltmp84:
.LBB1_77:
	.loc	5 0 5 is_stmt 0                 @ ../Drivers/STM32F4xx_HAL_Driver/Src/stm32f4xx_hal_rcc.c:0:5
	movw	r0, #28672
	movt	r0, #16384
.Ltmp85:
	.loc	5 404 57 is_stmt 1              @ ../Drivers/STM32F4xx_HAL_Driver/Src/stm32f4xx_hal_rcc.c:404:57
	ldr	r0, [r0]
.Ltmp86:
	.loc	5 404 9 is_stmt 0               @ ../Drivers/STM32F4xx_HAL_Driver/Src/stm32f4xx_hal_rcc.c:404:9
	lsls	r0, r0, #23
	cmp	r0, #0
	bmi	.LBB1_84
	b	.LBB1_78
.LBB1_78:
	.loc	5 0 9                           @ ../Drivers/STM32F4xx_HAL_Driver/Src/stm32f4xx_hal_rcc.c:0:9
	movw	r1, #28672
	movt	r1, #16384
.Ltmp87:
	.loc	5 407 58 is_stmt 1              @ ../Drivers/STM32F4xx_HAL_Driver/Src/stm32f4xx_hal_rcc.c:407:58
	ldr	r0, [r1]
	orr	r0, r0, #256
	str	r0, [r1]
	.loc	5 410 19                        @ ../Drivers/STM32F4xx_HAL_Driver/Src/stm32f4xx_hal_rcc.c:410:19
	bl	HAL_GetTick
	.loc	5 410 17 is_stmt 0              @ ../Drivers/STM32F4xx_HAL_Driver/Src/stm32f4xx_hal_rcc.c:410:17
	str	r0, [sp, #12]
	.loc	5 412 7 is_stmt 1               @ ../Drivers/STM32F4xx_HAL_Driver/Src/stm32f4xx_hal_rcc.c:412:7
	b	.LBB1_79
.LBB1_79:                               @ =>This Inner Loop Header: Depth=1
	.loc	5 0 7 is_stmt 0                 @ ../Drivers/STM32F4xx_HAL_Driver/Src/stm32f4xx_hal_rcc.c:0:7
	movw	r0, #28672
	movt	r0, #16384
	.loc	5 412 62                        @ ../Drivers/STM32F4xx_HAL_Driver/Src/stm32f4xx_hal_rcc.c:412:62
	ldr	r0, [r0]
	.loc	5 412 7                         @ ../Drivers/STM32F4xx_HAL_Driver/Src/stm32f4xx_hal_rcc.c:412:7
	lsls	r0, r0, #23
	cmp	r0, #0
	bmi	.LBB1_83
	b	.LBB1_80
.LBB1_80:                               @   in Loop: Header=BB1_79 Depth=1
.Ltmp88:
	.loc	5 414 14 is_stmt 1              @ ../Drivers/STM32F4xx_HAL_Driver/Src/stm32f4xx_hal_rcc.c:414:14
	bl	HAL_GetTick
	.loc	5 414 30 is_stmt 0              @ ../Drivers/STM32F4xx_HAL_Driver/Src/stm32f4xx_hal_rcc.c:414:30
	ldr	r1, [sp, #12]
	.loc	5 414 28                        @ ../Drivers/STM32F4xx_HAL_Driver/Src/stm32f4xx_hal_rcc.c:414:28
	subs	r0, r0, r1
.Ltmp89:
	.loc	5 414 13                        @ ../Drivers/STM32F4xx_HAL_Driver/Src/stm32f4xx_hal_rcc.c:414:13
	cmp	r0, #3
	blo	.LBB1_82
	b	.LBB1_81
.LBB1_81:
	.loc	5 0 13                          @ ../Drivers/STM32F4xx_HAL_Driver/Src/stm32f4xx_hal_rcc.c:0:13
	movs	r0, #3
.Ltmp90:
	.loc	5 416 11 is_stmt 1              @ ../Drivers/STM32F4xx_HAL_Driver/Src/stm32f4xx_hal_rcc.c:416:11
	strb.w	r0, [sp, #23]
	b	.LBB1_142
.Ltmp91:
.LBB1_82:                               @   in Loop: Header=BB1_79 Depth=1
	.loc	5 412 7                         @ ../Drivers/STM32F4xx_HAL_Driver/Src/stm32f4xx_hal_rcc.c:412:7
	b	.LBB1_79
.LBB1_83:
	.loc	5 419 5                         @ ../Drivers/STM32F4xx_HAL_Driver/Src/stm32f4xx_hal_rcc.c:419:5
	b	.LBB1_84
.Ltmp92:
.LBB1_84:
	.loc	5 422 5                         @ ../Drivers/STM32F4xx_HAL_Driver/Src/stm32f4xx_hal_rcc.c:422:5
	b	.LBB1_85
.LBB1_85:
.Ltmp93:
	.loc	5 422 14 is_stmt 0              @ ../Drivers/STM32F4xx_HAL_Driver/Src/stm32f4xx_hal_rcc.c:422:14
	ldr	r0, [sp, #16]
	.loc	5 422 33                        @ ../Drivers/STM32F4xx_HAL_Driver/Src/stm32f4xx_hal_rcc.c:422:33
	ldr	r0, [r0, #8]
.Ltmp94:
	.loc	5 422 13                        @ ../Drivers/STM32F4xx_HAL_Driver/Src/stm32f4xx_hal_rcc.c:422:13
	cmp	r0, #1
	bne	.LBB1_87
	b	.LBB1_86
.LBB1_86:
	.loc	5 0 13                          @ ../Drivers/STM32F4xx_HAL_Driver/Src/stm32f4xx_hal_rcc.c:0:13
	movw	r1, #14448
	movt	r1, #16386
.Ltmp95:
	.loc	5 422 135                       @ ../Drivers/STM32F4xx_HAL_Driver/Src/stm32f4xx_hal_rcc.c:422:135
	ldr	r0, [r1]
	orr	r0, r0, #1
	str	r0, [r1]
	.loc	5 422 158                       @ ../Drivers/STM32F4xx_HAL_Driver/Src/stm32f4xx_hal_rcc.c:422:158
	b	.LBB1_91
.Ltmp96:
.LBB1_87:
	.loc	5 422 169                       @ ../Drivers/STM32F4xx_HAL_Driver/Src/stm32f4xx_hal_rcc.c:422:169
	ldr	r0, [sp, #16]
	.loc	5 422 188                       @ ../Drivers/STM32F4xx_HAL_Driver/Src/stm32f4xx_hal_rcc.c:422:188
	ldr	r0, [r0, #8]
.Ltmp97:
	.loc	5 422 168                       @ ../Drivers/STM32F4xx_HAL_Driver/Src/stm32f4xx_hal_rcc.c:422:168
	cmp	r0, #5
	bne	.LBB1_89
	b	.LBB1_88
.LBB1_88:
	.loc	5 0 168                         @ ../Drivers/STM32F4xx_HAL_Driver/Src/stm32f4xx_hal_rcc.c:0:168
	movw	r1, #14448
	movt	r1, #16386
.Ltmp98:
	.loc	5 422 322                       @ ../Drivers/STM32F4xx_HAL_Driver/Src/stm32f4xx_hal_rcc.c:422:322
	ldr	r0, [r1]
	orr	r0, r0, #4
	str	r0, [r1]
	.loc	5 422 415                       @ ../Drivers/STM32F4xx_HAL_Driver/Src/stm32f4xx_hal_rcc.c:422:415
	ldr	r0, [r1]
	orr	r0, r0, #1
	str	r0, [r1]
	.loc	5 422 438                       @ ../Drivers/STM32F4xx_HAL_Driver/Src/stm32f4xx_hal_rcc.c:422:438
	b	.LBB1_90
.Ltmp99:
.LBB1_89:
	.loc	5 0 438                         @ ../Drivers/STM32F4xx_HAL_Driver/Src/stm32f4xx_hal_rcc.c:0:438
	movw	r1, #14448
	movt	r1, #16386
.Ltmp100:
	.loc	5 422 517                       @ ../Drivers/STM32F4xx_HAL_Driver/Src/stm32f4xx_hal_rcc.c:422:517
	ldr	r0, [r1]
	bic	r0, r0, #1
	str	r0, [r1]
	.loc	5 422 611                       @ ../Drivers/STM32F4xx_HAL_Driver/Src/stm32f4xx_hal_rcc.c:422:611
	ldr	r0, [r1]
	bic	r0, r0, #4
	str	r0, [r1]
	b	.LBB1_90
.Ltmp101:
.LBB1_90:
	.loc	5 0 611                         @ ../Drivers/STM32F4xx_HAL_Driver/Src/stm32f4xx_hal_rcc.c:0:611
	b	.LBB1_91
.LBB1_91:
	.loc	5 422 637                       @ ../Drivers/STM32F4xx_HAL_Driver/Src/stm32f4xx_hal_rcc.c:422:637
	b	.LBB1_92
.Ltmp102:
.LBB1_92:
	.loc	5 424 10 is_stmt 1              @ ../Drivers/STM32F4xx_HAL_Driver/Src/stm32f4xx_hal_rcc.c:424:10
	ldr	r0, [sp, #16]
	.loc	5 424 29 is_stmt 0              @ ../Drivers/STM32F4xx_HAL_Driver/Src/stm32f4xx_hal_rcc.c:424:29
	ldr	r0, [r0, #8]
.Ltmp103:
	.loc	5 424 9                         @ ../Drivers/STM32F4xx_HAL_Driver/Src/stm32f4xx_hal_rcc.c:424:9
	cbz	r0, .LBB1_99
	b	.LBB1_93
.LBB1_93:
.Ltmp104:
	.loc	5 427 19 is_stmt 1              @ ../Drivers/STM32F4xx_HAL_Driver/Src/stm32f4xx_hal_rcc.c:427:19
	bl	HAL_GetTick
	.loc	5 427 17 is_stmt 0              @ ../Drivers/STM32F4xx_HAL_Driver/Src/stm32f4xx_hal_rcc.c:427:17
	str	r0, [sp, #12]
	.loc	5 430 7 is_stmt 1               @ ../Drivers/STM32F4xx_HAL_Driver/Src/stm32f4xx_hal_rcc.c:430:7
	b	.LBB1_94
.LBB1_94:                               @ =>This Inner Loop Header: Depth=1
	.loc	5 0 7 is_stmt 0                 @ ../Drivers/STM32F4xx_HAL_Driver/Src/stm32f4xx_hal_rcc.c:0:7
	movw	r0, #14448
	movt	r0, #16386
	.loc	5 430 218                       @ ../Drivers/STM32F4xx_HAL_Driver/Src/stm32f4xx_hal_rcc.c:430:218
	ldr	r0, [r0]
	.loc	5 430 396                       @ ../Drivers/STM32F4xx_HAL_Driver/Src/stm32f4xx_hal_rcc.c:430:396
	and	r1, r0, #2
	movs	r0, #0
	.loc	5 430 7                         @ ../Drivers/STM32F4xx_HAL_Driver/Src/stm32f4xx_hal_rcc.c:430:7
	cmp.w	r0, r1, lsr #1
	bne	.LBB1_98
	b	.LBB1_95
.LBB1_95:                               @   in Loop: Header=BB1_94 Depth=1
.Ltmp105:
	.loc	5 432 14 is_stmt 1              @ ../Drivers/STM32F4xx_HAL_Driver/Src/stm32f4xx_hal_rcc.c:432:14
	bl	HAL_GetTick
	.loc	5 432 30 is_stmt 0              @ ../Drivers/STM32F4xx_HAL_Driver/Src/stm32f4xx_hal_rcc.c:432:30
	ldr	r1, [sp, #12]
	.loc	5 432 28                        @ ../Drivers/STM32F4xx_HAL_Driver/Src/stm32f4xx_hal_rcc.c:432:28
	subs	r0, r0, r1
	movw	r1, #5001
.Ltmp106:
	.loc	5 432 13                        @ ../Drivers/STM32F4xx_HAL_Driver/Src/stm32f4xx_hal_rcc.c:432:13
	cmp	r0, r1
	blo	.LBB1_97
	b	.LBB1_96
.LBB1_96:
	.loc	5 0 13                          @ ../Drivers/STM32F4xx_HAL_Driver/Src/stm32f4xx_hal_rcc.c:0:13
	movs	r0, #3
.Ltmp107:
	.loc	5 434 11 is_stmt 1              @ ../Drivers/STM32F4xx_HAL_Driver/Src/stm32f4xx_hal_rcc.c:434:11
	strb.w	r0, [sp, #23]
	b	.LBB1_142
.Ltmp108:
.LBB1_97:                               @   in Loop: Header=BB1_94 Depth=1
	.loc	5 430 7                         @ ../Drivers/STM32F4xx_HAL_Driver/Src/stm32f4xx_hal_rcc.c:430:7
	b	.LBB1_94
.LBB1_98:
	.loc	5 437 5                         @ ../Drivers/STM32F4xx_HAL_Driver/Src/stm32f4xx_hal_rcc.c:437:5
	b	.LBB1_105
.Ltmp109:
.LBB1_99:
	.loc	5 441 19                        @ ../Drivers/STM32F4xx_HAL_Driver/Src/stm32f4xx_hal_rcc.c:441:19
	bl	HAL_GetTick
	.loc	5 441 17 is_stmt 0              @ ../Drivers/STM32F4xx_HAL_Driver/Src/stm32f4xx_hal_rcc.c:441:17
	str	r0, [sp, #12]
	.loc	5 444 7 is_stmt 1               @ ../Drivers/STM32F4xx_HAL_Driver/Src/stm32f4xx_hal_rcc.c:444:7
	b	.LBB1_100
.LBB1_100:                              @ =>This Inner Loop Header: Depth=1
	.loc	5 0 7 is_stmt 0                 @ ../Drivers/STM32F4xx_HAL_Driver/Src/stm32f4xx_hal_rcc.c:0:7
	movw	r0, #14448
	movt	r0, #16386
	.loc	5 444 218                       @ ../Drivers/STM32F4xx_HAL_Driver/Src/stm32f4xx_hal_rcc.c:444:218
	ldr	r0, [r0]
	.loc	5 444 396                       @ ../Drivers/STM32F4xx_HAL_Driver/Src/stm32f4xx_hal_rcc.c:444:396
	and	r1, r0, #2
	movs	r0, #0
	.loc	5 444 7                         @ ../Drivers/STM32F4xx_HAL_Driver/Src/stm32f4xx_hal_rcc.c:444:7
	cmp.w	r0, r1, lsr #1
	beq	.LBB1_104
	b	.LBB1_101
.LBB1_101:                              @   in Loop: Header=BB1_100 Depth=1
.Ltmp110:
	.loc	5 446 14 is_stmt 1              @ ../Drivers/STM32F4xx_HAL_Driver/Src/stm32f4xx_hal_rcc.c:446:14
	bl	HAL_GetTick
	.loc	5 446 30 is_stmt 0              @ ../Drivers/STM32F4xx_HAL_Driver/Src/stm32f4xx_hal_rcc.c:446:30
	ldr	r1, [sp, #12]
	.loc	5 446 28                        @ ../Drivers/STM32F4xx_HAL_Driver/Src/stm32f4xx_hal_rcc.c:446:28
	subs	r0, r0, r1
	movw	r1, #5001
.Ltmp111:
	.loc	5 446 13                        @ ../Drivers/STM32F4xx_HAL_Driver/Src/stm32f4xx_hal_rcc.c:446:13
	cmp	r0, r1
	blo	.LBB1_103
	b	.LBB1_102
.LBB1_102:
	.loc	5 0 13                          @ ../Drivers/STM32F4xx_HAL_Driver/Src/stm32f4xx_hal_rcc.c:0:13
	movs	r0, #3
.Ltmp112:
	.loc	5 448 11 is_stmt 1              @ ../Drivers/STM32F4xx_HAL_Driver/Src/stm32f4xx_hal_rcc.c:448:11
	strb.w	r0, [sp, #23]
	b	.LBB1_142
.Ltmp113:
.LBB1_103:                              @   in Loop: Header=BB1_100 Depth=1
	.loc	5 444 7                         @ ../Drivers/STM32F4xx_HAL_Driver/Src/stm32f4xx_hal_rcc.c:444:7
	b	.LBB1_100
.Ltmp114:
.LBB1_104:
	.loc	5 0 7 is_stmt 0                 @ ../Drivers/STM32F4xx_HAL_Driver/Src/stm32f4xx_hal_rcc.c:0:7
	b	.LBB1_105
.LBB1_105:
.Ltmp115:
	.loc	5 454 9 is_stmt 1               @ ../Drivers/STM32F4xx_HAL_Driver/Src/stm32f4xx_hal_rcc.c:454:9
	ldrb.w	r0, [sp, #7]
.Ltmp116:
	.loc	5 454 9 is_stmt 0               @ ../Drivers/STM32F4xx_HAL_Driver/Src/stm32f4xx_hal_rcc.c:454:9
	cmp	r0, #1
	bne	.LBB1_107
	b	.LBB1_106
.LBB1_106:
	.loc	5 0 9                           @ ../Drivers/STM32F4xx_HAL_Driver/Src/stm32f4xx_hal_rcc.c:0:9
	movw	r1, #14400
	movt	r1, #16386
.Ltmp117:
	.loc	5 456 78 is_stmt 1              @ ../Drivers/STM32F4xx_HAL_Driver/Src/stm32f4xx_hal_rcc.c:456:78
	ldr	r0, [r1]
	bic	r0, r0, #268435456
	str	r0, [r1]
	.loc	5 457 5                         @ ../Drivers/STM32F4xx_HAL_Driver/Src/stm32f4xx_hal_rcc.c:457:5
	b	.LBB1_107
.Ltmp118:
.LBB1_107:
	.loc	5 458 3                         @ ../Drivers/STM32F4xx_HAL_Driver/Src/stm32f4xx_hal_rcc.c:458:3
	b	.LBB1_108
.Ltmp119:
.LBB1_108:
	.loc	5 462 8                         @ ../Drivers/STM32F4xx_HAL_Driver/Src/stm32f4xx_hal_rcc.c:462:8
	ldr	r0, [sp, #16]
	.loc	5 462 31 is_stmt 0              @ ../Drivers/STM32F4xx_HAL_Driver/Src/stm32f4xx_hal_rcc.c:462:31
	ldr	r0, [r0, #24]
.Ltmp120:
	.loc	5 462 7                         @ ../Drivers/STM32F4xx_HAL_Driver/Src/stm32f4xx_hal_rcc.c:462:7
	cmp	r0, #0
	beq.w	.LBB1_141
	b	.LBB1_109
.LBB1_109:
	.loc	5 0 7                           @ ../Drivers/STM32F4xx_HAL_Driver/Src/stm32f4xx_hal_rcc.c:0:7
	movw	r0, #14344
	movt	r0, #16386
.Ltmp121:
	.loc	5 465 72 is_stmt 1              @ ../Drivers/STM32F4xx_HAL_Driver/Src/stm32f4xx_hal_rcc.c:465:72
	ldr	r0, [r0]
	.loc	5 465 77 is_stmt 0              @ ../Drivers/STM32F4xx_HAL_Driver/Src/stm32f4xx_hal_rcc.c:465:77
	and	r0, r0, #12
.Ltmp122:
	.loc	5 465 9                         @ ../Drivers/STM32F4xx_HAL_Driver/Src/stm32f4xx_hal_rcc.c:465:9
	cmp	r0, #8
	beq.w	.LBB1_129
	b	.LBB1_110
.LBB1_110:
.Ltmp123:
	.loc	5 467 12 is_stmt 1              @ ../Drivers/STM32F4xx_HAL_Driver/Src/stm32f4xx_hal_rcc.c:467:12
	ldr	r0, [sp, #16]
	.loc	5 467 35 is_stmt 0              @ ../Drivers/STM32F4xx_HAL_Driver/Src/stm32f4xx_hal_rcc.c:467:35
	ldr	r0, [r0, #24]
.Ltmp124:
	.loc	5 467 11                        @ ../Drivers/STM32F4xx_HAL_Driver/Src/stm32f4xx_hal_rcc.c:467:11
	cmp	r0, #2
	bne	.LBB1_122
	b	.LBB1_111
.LBB1_111:
	.loc	5 0 11                          @ ../Drivers/STM32F4xx_HAL_Driver/Src/stm32f4xx_hal_rcc.c:0:11
	movs	r1, #96
	movt	r1, #16967
	movs	r0, #0
.Ltmp125:
	.loc	5 477 143 is_stmt 1             @ ../Drivers/STM32F4xx_HAL_Driver/Src/stm32f4xx_hal_rcc.c:477:143
	str	r0, [r1]
	.loc	5 480 21                        @ ../Drivers/STM32F4xx_HAL_Driver/Src/stm32f4xx_hal_rcc.c:480:21
	bl	HAL_GetTick
	.loc	5 480 19 is_stmt 0              @ ../Drivers/STM32F4xx_HAL_Driver/Src/stm32f4xx_hal_rcc.c:480:19
	str	r0, [sp, #12]
	.loc	5 483 9 is_stmt 1               @ ../Drivers/STM32F4xx_HAL_Driver/Src/stm32f4xx_hal_rcc.c:483:9
	b	.LBB1_112
.LBB1_112:                              @ =>This Inner Loop Header: Depth=1
	.loc	5 0 9 is_stmt 0                 @ ../Drivers/STM32F4xx_HAL_Driver/Src/stm32f4xx_hal_rcc.c:0:9
	movw	r0, #14336
	movt	r0, #16386
	.loc	5 483 117                       @ ../Drivers/STM32F4xx_HAL_Driver/Src/stm32f4xx_hal_rcc.c:483:117
	ldr	r0, [r0]
	.loc	5 483 398                       @ ../Drivers/STM32F4xx_HAL_Driver/Src/stm32f4xx_hal_rcc.c:483:398
	and	r1, r0, #33554432
	movs	r0, #0
	.loc	5 483 9                         @ ../Drivers/STM32F4xx_HAL_Driver/Src/stm32f4xx_hal_rcc.c:483:9
	cmp.w	r0, r1, lsr #25
	beq	.LBB1_116
	b	.LBB1_113
.LBB1_113:                              @   in Loop: Header=BB1_112 Depth=1
.Ltmp126:
	.loc	5 485 16 is_stmt 1              @ ../Drivers/STM32F4xx_HAL_Driver/Src/stm32f4xx_hal_rcc.c:485:16
	bl	HAL_GetTick
	.loc	5 485 32 is_stmt 0              @ ../Drivers/STM32F4xx_HAL_Driver/Src/stm32f4xx_hal_rcc.c:485:32
	ldr	r1, [sp, #12]
	.loc	5 485 30                        @ ../Drivers/STM32F4xx_HAL_Driver/Src/stm32f4xx_hal_rcc.c:485:30
	subs	r0, r0, r1
.Ltmp127:
	.loc	5 485 15                        @ ../Drivers/STM32F4xx_HAL_Driver/Src/stm32f4xx_hal_rcc.c:485:15
	cmp	r0, #3
	blo	.LBB1_115
	b	.LBB1_114
.LBB1_114:
	.loc	5 0 15                          @ ../Drivers/STM32F4xx_HAL_Driver/Src/stm32f4xx_hal_rcc.c:0:15
	movs	r0, #3
.Ltmp128:
	.loc	5 487 13 is_stmt 1              @ ../Drivers/STM32F4xx_HAL_Driver/Src/stm32f4xx_hal_rcc.c:487:13
	strb.w	r0, [sp, #23]
	b	.LBB1_142
.Ltmp129:
.LBB1_115:                              @   in Loop: Header=BB1_112 Depth=1
	.loc	5 483 9                         @ ../Drivers/STM32F4xx_HAL_Driver/Src/stm32f4xx_hal_rcc.c:483:9
	b	.LBB1_112
.LBB1_116:
	.loc	5 492 86                        @ ../Drivers/STM32F4xx_HAL_Driver/Src/stm32f4xx_hal_rcc.c:492:86
	ldr	r1, [sp, #16]
	.loc	5 492 109 is_stmt 0             @ ../Drivers/STM32F4xx_HAL_Driver/Src/stm32f4xx_hal_rcc.c:492:109
	ldr	r0, [r1, #28]
	.loc	5 492 144                       @ ../Drivers/STM32F4xx_HAL_Driver/Src/stm32f4xx_hal_rcc.c:492:144
	ldr.w	r12, [r1, #32]
	.loc	5 492 175                       @ ../Drivers/STM32F4xx_HAL_Driver/Src/stm32f4xx_hal_rcc.c:492:175
	ldr	r3, [r1, #36]
	.loc	5 492 217                       @ ../Drivers/STM32F4xx_HAL_Driver/Src/stm32f4xx_hal_rcc.c:492:217
	ldr	r2, [r1, #40]
	.loc	5 492 119                       @ ../Drivers/STM32F4xx_HAL_Driver/Src/stm32f4xx_hal_rcc.c:492:119
	orr.w	r0, r0, r12
	.loc	5 492 149                       @ ../Drivers/STM32F4xx_HAL_Driver/Src/stm32f4xx_hal_rcc.c:492:149
	orr.w	r0, r0, r3, lsl #6
	.loc	5 492 229                       @ ../Drivers/STM32F4xx_HAL_Driver/Src/stm32f4xx_hal_rcc.c:492:229
	lsls	r2, r2, #15
	movw	r3, #65535
	.loc	5 492 222                       @ ../Drivers/STM32F4xx_HAL_Driver/Src/stm32f4xx_hal_rcc.c:492:222
	bics	r2, r3
	.loc	5 492 235                       @ ../Drivers/STM32F4xx_HAL_Driver/Src/stm32f4xx_hal_rcc.c:492:235
	sub.w	r2, r2, #65536
	.loc	5 492 189                       @ ../Drivers/STM32F4xx_HAL_Driver/Src/stm32f4xx_hal_rcc.c:492:189
	orrs	r0, r2
	.loc	5 492 271                       @ ../Drivers/STM32F4xx_HAL_Driver/Src/stm32f4xx_hal_rcc.c:492:271
	ldr	r1, [r1, #44]
	.loc	5 492 245                       @ ../Drivers/STM32F4xx_HAL_Driver/Src/stm32f4xx_hal_rcc.c:492:245
	orr.w	r0, r0, r1, lsl #24
	movw	r1, #14340
	movt	r1, #16386
	.loc	5 492 82                        @ ../Drivers/STM32F4xx_HAL_Driver/Src/stm32f4xx_hal_rcc.c:492:82
	str	r0, [r1]
	movs	r1, #96
	movt	r1, #16967
	movs	r0, #1
	.loc	5 498 143 is_stmt 1             @ ../Drivers/STM32F4xx_HAL_Driver/Src/stm32f4xx_hal_rcc.c:498:143
	str	r0, [r1]
	.loc	5 501 21                        @ ../Drivers/STM32F4xx_HAL_Driver/Src/stm32f4xx_hal_rcc.c:501:21
	bl	HAL_GetTick
	.loc	5 501 19 is_stmt 0              @ ../Drivers/STM32F4xx_HAL_Driver/Src/stm32f4xx_hal_rcc.c:501:19
	str	r0, [sp, #12]
	.loc	5 504 9 is_stmt 1               @ ../Drivers/STM32F4xx_HAL_Driver/Src/stm32f4xx_hal_rcc.c:504:9
	b	.LBB1_117
.LBB1_117:                              @ =>This Inner Loop Header: Depth=1
	.loc	5 0 9 is_stmt 0                 @ ../Drivers/STM32F4xx_HAL_Driver/Src/stm32f4xx_hal_rcc.c:0:9
	movw	r0, #14336
	movt	r0, #16386
	.loc	5 504 117                       @ ../Drivers/STM32F4xx_HAL_Driver/Src/stm32f4xx_hal_rcc.c:504:117
	ldr	r0, [r0]
	.loc	5 504 398                       @ ../Drivers/STM32F4xx_HAL_Driver/Src/stm32f4xx_hal_rcc.c:504:398
	and	r1, r0, #33554432
	movs	r0, #0
	.loc	5 504 9                         @ ../Drivers/STM32F4xx_HAL_Driver/Src/stm32f4xx_hal_rcc.c:504:9
	cmp.w	r0, r1, lsr #25
	bne	.LBB1_121
	b	.LBB1_118
.LBB1_118:                              @   in Loop: Header=BB1_117 Depth=1
.Ltmp130:
	.loc	5 506 16 is_stmt 1              @ ../Drivers/STM32F4xx_HAL_Driver/Src/stm32f4xx_hal_rcc.c:506:16
	bl	HAL_GetTick
	.loc	5 506 32 is_stmt 0              @ ../Drivers/STM32F4xx_HAL_Driver/Src/stm32f4xx_hal_rcc.c:506:32
	ldr	r1, [sp, #12]
	.loc	5 506 30                        @ ../Drivers/STM32F4xx_HAL_Driver/Src/stm32f4xx_hal_rcc.c:506:30
	subs	r0, r0, r1
.Ltmp131:
	.loc	5 506 15                        @ ../Drivers/STM32F4xx_HAL_Driver/Src/stm32f4xx_hal_rcc.c:506:15
	cmp	r0, #3
	blo	.LBB1_120
	b	.LBB1_119
.LBB1_119:
	.loc	5 0 15                          @ ../Drivers/STM32F4xx_HAL_Driver/Src/stm32f4xx_hal_rcc.c:0:15
	movs	r0, #3
.Ltmp132:
	.loc	5 508 13 is_stmt 1              @ ../Drivers/STM32F4xx_HAL_Driver/Src/stm32f4xx_hal_rcc.c:508:13
	strb.w	r0, [sp, #23]
	b	.LBB1_142
.Ltmp133:
.LBB1_120:                              @   in Loop: Header=BB1_117 Depth=1
	.loc	5 504 9                         @ ../Drivers/STM32F4xx_HAL_Driver/Src/stm32f4xx_hal_rcc.c:504:9
	b	.LBB1_117
.LBB1_121:
	.loc	5 511 7                         @ ../Drivers/STM32F4xx_HAL_Driver/Src/stm32f4xx_hal_rcc.c:511:7
	b	.LBB1_128
.Ltmp134:
.LBB1_122:
	.loc	5 0 7 is_stmt 0                 @ ../Drivers/STM32F4xx_HAL_Driver/Src/stm32f4xx_hal_rcc.c:0:7
	movs	r1, #96
	movt	r1, #16967
	movs	r0, #0
.Ltmp135:
	.loc	5 515 143 is_stmt 1             @ ../Drivers/STM32F4xx_HAL_Driver/Src/stm32f4xx_hal_rcc.c:515:143
	str	r0, [r1]
	.loc	5 518 21                        @ ../Drivers/STM32F4xx_HAL_Driver/Src/stm32f4xx_hal_rcc.c:518:21
	bl	HAL_GetTick
	.loc	5 518 19 is_stmt 0              @ ../Drivers/STM32F4xx_HAL_Driver/Src/stm32f4xx_hal_rcc.c:518:19
	str	r0, [sp, #12]
	.loc	5 521 9 is_stmt 1               @ ../Drivers/STM32F4xx_HAL_Driver/Src/stm32f4xx_hal_rcc.c:521:9
	b	.LBB1_123
.LBB1_123:                              @ =>This Inner Loop Header: Depth=1
	.loc	5 0 9 is_stmt 0                 @ ../Drivers/STM32F4xx_HAL_Driver/Src/stm32f4xx_hal_rcc.c:0:9
	movw	r0, #14336
	movt	r0, #16386
	.loc	5 521 117                       @ ../Drivers/STM32F4xx_HAL_Driver/Src/stm32f4xx_hal_rcc.c:521:117
	ldr	r0, [r0]
	.loc	5 521 398                       @ ../Drivers/STM32F4xx_HAL_Driver/Src/stm32f4xx_hal_rcc.c:521:398
	and	r1, r0, #33554432
	movs	r0, #0
	.loc	5 521 9                         @ ../Drivers/STM32F4xx_HAL_Driver/Src/stm32f4xx_hal_rcc.c:521:9
	cmp.w	r0, r1, lsr #25
	beq	.LBB1_127
	b	.LBB1_124
.LBB1_124:                              @   in Loop: Header=BB1_123 Depth=1
.Ltmp136:
	.loc	5 523 16 is_stmt 1              @ ../Drivers/STM32F4xx_HAL_Driver/Src/stm32f4xx_hal_rcc.c:523:16
	bl	HAL_GetTick
	.loc	5 523 32 is_stmt 0              @ ../Drivers/STM32F4xx_HAL_Driver/Src/stm32f4xx_hal_rcc.c:523:32
	ldr	r1, [sp, #12]
	.loc	5 523 30                        @ ../Drivers/STM32F4xx_HAL_Driver/Src/stm32f4xx_hal_rcc.c:523:30
	subs	r0, r0, r1
.Ltmp137:
	.loc	5 523 15                        @ ../Drivers/STM32F4xx_HAL_Driver/Src/stm32f4xx_hal_rcc.c:523:15
	cmp	r0, #3
	blo	.LBB1_126
	b	.LBB1_125
.LBB1_125:
	.loc	5 0 15                          @ ../Drivers/STM32F4xx_HAL_Driver/Src/stm32f4xx_hal_rcc.c:0:15
	movs	r0, #3
.Ltmp138:
	.loc	5 525 13 is_stmt 1              @ ../Drivers/STM32F4xx_HAL_Driver/Src/stm32f4xx_hal_rcc.c:525:13
	strb.w	r0, [sp, #23]
	b	.LBB1_142
.Ltmp139:
.LBB1_126:                              @   in Loop: Header=BB1_123 Depth=1
	.loc	5 521 9                         @ ../Drivers/STM32F4xx_HAL_Driver/Src/stm32f4xx_hal_rcc.c:521:9
	b	.LBB1_123
.Ltmp140:
.LBB1_127:
	.loc	5 0 9 is_stmt 0                 @ ../Drivers/STM32F4xx_HAL_Driver/Src/stm32f4xx_hal_rcc.c:0:9
	b	.LBB1_128
.LBB1_128:
	.loc	5 529 5 is_stmt 1               @ ../Drivers/STM32F4xx_HAL_Driver/Src/stm32f4xx_hal_rcc.c:529:5
	b	.LBB1_140
.Ltmp141:
.LBB1_129:
	.loc	5 533 12                        @ ../Drivers/STM32F4xx_HAL_Driver/Src/stm32f4xx_hal_rcc.c:533:12
	ldr	r0, [sp, #16]
	.loc	5 533 35 is_stmt 0              @ ../Drivers/STM32F4xx_HAL_Driver/Src/stm32f4xx_hal_rcc.c:533:35
	ldr	r0, [r0, #24]
.Ltmp142:
	.loc	5 533 11                        @ ../Drivers/STM32F4xx_HAL_Driver/Src/stm32f4xx_hal_rcc.c:533:11
	cmp	r0, #1
	bne	.LBB1_131
	b	.LBB1_130
.LBB1_130:
	.loc	5 0 11                          @ ../Drivers/STM32F4xx_HAL_Driver/Src/stm32f4xx_hal_rcc.c:0:11
	movs	r0, #1
.Ltmp143:
	.loc	5 535 9 is_stmt 1               @ ../Drivers/STM32F4xx_HAL_Driver/Src/stm32f4xx_hal_rcc.c:535:9
	strb.w	r0, [sp, #23]
	b	.LBB1_142
.Ltmp144:
.LBB1_131:
	.loc	5 0 9 is_stmt 0                 @ ../Drivers/STM32F4xx_HAL_Driver/Src/stm32f4xx_hal_rcc.c:0:9
	movw	r0, #14340
	movt	r0, #16386
.Ltmp145:
	.loc	5 540 84 is_stmt 1              @ ../Drivers/STM32F4xx_HAL_Driver/Src/stm32f4xx_hal_rcc.c:540:84
	ldr	r0, [r0]
	.loc	5 540 20 is_stmt 0              @ ../Drivers/STM32F4xx_HAL_Driver/Src/stm32f4xx_hal_rcc.c:540:20
	str	r0, [sp, #8]
.Ltmp146:
	.loc	5 550 15 is_stmt 1              @ ../Drivers/STM32F4xx_HAL_Driver/Src/stm32f4xx_hal_rcc.c:550:15
	ldr	r0, [sp, #16]
	.loc	5 550 38 is_stmt 0              @ ../Drivers/STM32F4xx_HAL_Driver/Src/stm32f4xx_hal_rcc.c:550:38
	ldr	r0, [r0, #24]
	.loc	5 550 68                        @ ../Drivers/STM32F4xx_HAL_Driver/Src/stm32f4xx_hal_rcc.c:550:68
	cmp	r0, #1
	beq	.LBB1_137
	b	.LBB1_132
.LBB1_132:
	.loc	5 551 16 is_stmt 1              @ ../Drivers/STM32F4xx_HAL_Driver/Src/stm32f4xx_hal_rcc.c:551:16
	ldr	r0, [sp, #8]
	.loc	5 551 28 is_stmt 0              @ ../Drivers/STM32F4xx_HAL_Driver/Src/stm32f4xx_hal_rcc.c:551:28
	and	r0, r0, #4194304
	.loc	5 551 53                        @ ../Drivers/STM32F4xx_HAL_Driver/Src/stm32f4xx_hal_rcc.c:551:53
	ldr	r1, [sp, #16]
	.loc	5 551 76                        @ ../Drivers/STM32F4xx_HAL_Driver/Src/stm32f4xx_hal_rcc.c:551:76
	ldr	r1, [r1, #28]
	.loc	5 551 87                        @ ../Drivers/STM32F4xx_HAL_Driver/Src/stm32f4xx_hal_rcc.c:551:87
	cmp	r0, r1
	bne	.LBB1_137
	b	.LBB1_133
.LBB1_133:
	.loc	5 552 16 is_stmt 1              @ ../Drivers/STM32F4xx_HAL_Driver/Src/stm32f4xx_hal_rcc.c:552:16
	ldr	r0, [sp, #8]
	.loc	5 552 28 is_stmt 0              @ ../Drivers/STM32F4xx_HAL_Driver/Src/stm32f4xx_hal_rcc.c:552:28
	and	r0, r0, #63
	.loc	5 552 54                        @ ../Drivers/STM32F4xx_HAL_Driver/Src/stm32f4xx_hal_rcc.c:552:54
	ldr	r1, [sp, #16]
	.loc	5 552 77                        @ ../Drivers/STM32F4xx_HAL_Driver/Src/stm32f4xx_hal_rcc.c:552:77
	ldr	r1, [r1, #32]
	.loc	5 552 92                        @ ../Drivers/STM32F4xx_HAL_Driver/Src/stm32f4xx_hal_rcc.c:552:92
	cmp	r0, r1
	bne	.LBB1_137
	b	.LBB1_134
.LBB1_134:
	.loc	5 553 16 is_stmt 1              @ ../Drivers/STM32F4xx_HAL_Driver/Src/stm32f4xx_hal_rcc.c:553:16
	ldr	r0, [sp, #8]
	movw	r1, #32704
	.loc	5 553 28 is_stmt 0              @ ../Drivers/STM32F4xx_HAL_Driver/Src/stm32f4xx_hal_rcc.c:553:28
	ands	r0, r1
	.loc	5 553 55                        @ ../Drivers/STM32F4xx_HAL_Driver/Src/stm32f4xx_hal_rcc.c:553:55
	ldr	r1, [sp, #16]
	.loc	5 553 78                        @ ../Drivers/STM32F4xx_HAL_Driver/Src/stm32f4xx_hal_rcc.c:553:78
	ldr	r1, [r1, #36]
	.loc	5 553 93                        @ ../Drivers/STM32F4xx_HAL_Driver/Src/stm32f4xx_hal_rcc.c:553:93
	cmp.w	r0, r1, lsl #6
	bne	.LBB1_137
	b	.LBB1_135
.LBB1_135:
	.loc	5 554 16 is_stmt 1              @ ../Drivers/STM32F4xx_HAL_Driver/Src/stm32f4xx_hal_rcc.c:554:16
	ldr	r0, [sp, #8]
	.loc	5 554 28 is_stmt 0              @ ../Drivers/STM32F4xx_HAL_Driver/Src/stm32f4xx_hal_rcc.c:554:28
	and	r0, r0, #196608
	.loc	5 554 56                        @ ../Drivers/STM32F4xx_HAL_Driver/Src/stm32f4xx_hal_rcc.c:554:56
	ldr	r1, [sp, #16]
	.loc	5 554 79                        @ ../Drivers/STM32F4xx_HAL_Driver/Src/stm32f4xx_hal_rcc.c:554:79
	ldr	r1, [r1, #40]
	.loc	5 554 91                        @ ../Drivers/STM32F4xx_HAL_Driver/Src/stm32f4xx_hal_rcc.c:554:91
	lsls	r1, r1, #15
	movw	r2, #65535
	.loc	5 554 84                        @ ../Drivers/STM32F4xx_HAL_Driver/Src/stm32f4xx_hal_rcc.c:554:84
	bics	r1, r2
	.loc	5 554 98                        @ ../Drivers/STM32F4xx_HAL_Driver/Src/stm32f4xx_hal_rcc.c:554:98
	sub.w	r1, r1, #65536
	.loc	5 554 108                       @ ../Drivers/STM32F4xx_HAL_Driver/Src/stm32f4xx_hal_rcc.c:554:108
	cmp	r0, r1
	bne	.LBB1_137
	b	.LBB1_136
.LBB1_136:
	.loc	5 555 16 is_stmt 1              @ ../Drivers/STM32F4xx_HAL_Driver/Src/stm32f4xx_hal_rcc.c:555:16
	ldr	r0, [sp, #8]
	.loc	5 555 28 is_stmt 0              @ ../Drivers/STM32F4xx_HAL_Driver/Src/stm32f4xx_hal_rcc.c:555:28
	and	r0, r0, #251658240
	.loc	5 555 54                        @ ../Drivers/STM32F4xx_HAL_Driver/Src/stm32f4xx_hal_rcc.c:555:54
	ldr	r1, [sp, #16]
	.loc	5 555 77                        @ ../Drivers/STM32F4xx_HAL_Driver/Src/stm32f4xx_hal_rcc.c:555:77
	ldr	r1, [r1, #44]
.Ltmp147:
	.loc	5 550 13 is_stmt 1              @ ../Drivers/STM32F4xx_HAL_Driver/Src/stm32f4xx_hal_rcc.c:550:13
	cmp.w	r0, r1, lsl #24
	beq	.LBB1_138
	b	.LBB1_137
.LBB1_137:
	.loc	5 0 13 is_stmt 0                @ ../Drivers/STM32F4xx_HAL_Driver/Src/stm32f4xx_hal_rcc.c:0:13
	movs	r0, #1
.Ltmp148:
	.loc	5 558 11 is_stmt 1              @ ../Drivers/STM32F4xx_HAL_Driver/Src/stm32f4xx_hal_rcc.c:558:11
	strb.w	r0, [sp, #23]
	b	.LBB1_142
.Ltmp149:
.LBB1_138:
	.loc	5 0 11 is_stmt 0                @ ../Drivers/STM32F4xx_HAL_Driver/Src/stm32f4xx_hal_rcc.c:0:11
	b	.LBB1_139
.LBB1_139:
	b	.LBB1_140
.LBB1_140:
	.loc	5 562 3 is_stmt 1               @ ../Drivers/STM32F4xx_HAL_Driver/Src/stm32f4xx_hal_rcc.c:562:3
	b	.LBB1_141
.Ltmp150:
.LBB1_141:
	.loc	5 0 3 is_stmt 0                 @ ../Drivers/STM32F4xx_HAL_Driver/Src/stm32f4xx_hal_rcc.c:0:3
	movs	r0, #0
	.loc	5 563 3 is_stmt 1               @ ../Drivers/STM32F4xx_HAL_Driver/Src/stm32f4xx_hal_rcc.c:563:3
	strb.w	r0, [sp, #23]
	b	.LBB1_142
.LBB1_142:
	.loc	5 564 1                         @ ../Drivers/STM32F4xx_HAL_Driver/Src/stm32f4xx_hal_rcc.c:564:1
	ldrb.w	r0, [sp, #23]
	add	sp, #24
	pop	{r7, pc}
.Ltmp151:
.Lfunc_end1:
	.size	HAL_RCC_OscConfig, .Lfunc_end1-HAL_RCC_OscConfig
	.cfi_endproc
	.cantunwind
	.fnend
                                        @ -- End function
	.section	.text.HAL_RCC_ClockConfig,"ax",%progbits
	.hidden	HAL_RCC_ClockConfig             @ -- Begin function HAL_RCC_ClockConfig
	.globl	HAL_RCC_ClockConfig
	.p2align	2
	.type	HAL_RCC_ClockConfig,%function
	.code	16                              @ @HAL_RCC_ClockConfig
	.thumb_func
HAL_RCC_ClockConfig:
.Lfunc_begin2:
	.loc	5 592 0                         @ ../Drivers/STM32F4xx_HAL_Driver/Src/stm32f4xx_hal_rcc.c:592:0
	.fnstart
	.cfi_startproc
@ %bb.0:
	.save	{r7, lr}
	push	{r7, lr}
	.cfi_def_cfa_offset 8
	.cfi_offset lr, -4
	.cfi_offset r7, -8
	.pad	#16
	sub	sp, #16
	.cfi_def_cfa_offset 24
	str	r0, [sp, #8]
	str	r1, [sp, #4]
.Ltmp152:
	.loc	5 596 7 prologue_end            @ ../Drivers/STM32F4xx_HAL_Driver/Src/stm32f4xx_hal_rcc.c:596:7
	ldr	r0, [sp, #8]
.Ltmp153:
	.loc	5 596 7 is_stmt 0               @ ../Drivers/STM32F4xx_HAL_Driver/Src/stm32f4xx_hal_rcc.c:596:7
	cbnz	r0, .LBB2_2
	b	.LBB2_1
.LBB2_1:
	.loc	5 0 7                           @ ../Drivers/STM32F4xx_HAL_Driver/Src/stm32f4xx_hal_rcc.c:0:7
	movs	r0, #1
.Ltmp154:
	.loc	5 598 5 is_stmt 1               @ ../Drivers/STM32F4xx_HAL_Driver/Src/stm32f4xx_hal_rcc.c:598:5
	strb.w	r0, [sp, #15]
	b	.LBB2_41
.Ltmp155:
.LBB2_2:
	.loc	5 610 7                         @ ../Drivers/STM32F4xx_HAL_Driver/Src/stm32f4xx_hal_rcc.c:610:7
	ldr	r0, [sp, #4]
	movw	r1, #15360
	movt	r1, #16386
	.loc	5 610 86 is_stmt 0              @ ../Drivers/STM32F4xx_HAL_Driver/Src/stm32f4xx_hal_rcc.c:610:86
	ldr	r1, [r1]
	.loc	5 610 92                        @ ../Drivers/STM32F4xx_HAL_Driver/Src/stm32f4xx_hal_rcc.c:610:92
	and	r1, r1, #7
.Ltmp156:
	.loc	5 610 7                         @ ../Drivers/STM32F4xx_HAL_Driver/Src/stm32f4xx_hal_rcc.c:610:7
	cmp	r0, r1
	bls	.LBB2_6
	b	.LBB2_3
.LBB2_3:
.Ltmp157:
	.loc	5 613 51 is_stmt 1              @ ../Drivers/STM32F4xx_HAL_Driver/Src/stm32f4xx_hal_rcc.c:613:51
	ldr	r1, [sp, #4]
	movw	r0, #15360
	movt	r0, #16386
	.loc	5 613 39 is_stmt 0              @ ../Drivers/STM32F4xx_HAL_Driver/Src/stm32f4xx_hal_rcc.c:613:39
	strb	r1, [r0]
.Ltmp158:
	.loc	5 617 77 is_stmt 1              @ ../Drivers/STM32F4xx_HAL_Driver/Src/stm32f4xx_hal_rcc.c:617:77
	ldr	r0, [r0]
	.loc	5 617 83 is_stmt 0              @ ../Drivers/STM32F4xx_HAL_Driver/Src/stm32f4xx_hal_rcc.c:617:83
	and	r0, r0, #7
	.loc	5 617 108                       @ ../Drivers/STM32F4xx_HAL_Driver/Src/stm32f4xx_hal_rcc.c:617:108
	ldr	r1, [sp, #4]
.Ltmp159:
	.loc	5 617 9                         @ ../Drivers/STM32F4xx_HAL_Driver/Src/stm32f4xx_hal_rcc.c:617:9
	cmp	r0, r1
	beq	.LBB2_5
	b	.LBB2_4
.LBB2_4:
	.loc	5 0 9                           @ ../Drivers/STM32F4xx_HAL_Driver/Src/stm32f4xx_hal_rcc.c:0:9
	movs	r0, #1
.Ltmp160:
	.loc	5 619 7 is_stmt 1               @ ../Drivers/STM32F4xx_HAL_Driver/Src/stm32f4xx_hal_rcc.c:619:7
	strb.w	r0, [sp, #15]
	b	.LBB2_41
.Ltmp161:
.LBB2_5:
	.loc	5 621 3                         @ ../Drivers/STM32F4xx_HAL_Driver/Src/stm32f4xx_hal_rcc.c:621:3
	b	.LBB2_6
.Ltmp162:
.LBB2_6:
	.loc	5 624 9                         @ ../Drivers/STM32F4xx_HAL_Driver/Src/stm32f4xx_hal_rcc.c:624:9
	ldr	r0, [sp, #8]
.Ltmp163:
	.loc	5 624 7 is_stmt 0               @ ../Drivers/STM32F4xx_HAL_Driver/Src/stm32f4xx_hal_rcc.c:624:7
	ldrb	r0, [r0]
	lsls	r0, r0, #30
	cmp	r0, #0
	bpl	.LBB2_12
	b	.LBB2_7
.LBB2_7:
.Ltmp164:
	.loc	5 628 11 is_stmt 1              @ ../Drivers/STM32F4xx_HAL_Driver/Src/stm32f4xx_hal_rcc.c:628:11
	ldr	r0, [sp, #8]
.Ltmp165:
	.loc	5 628 9 is_stmt 0               @ ../Drivers/STM32F4xx_HAL_Driver/Src/stm32f4xx_hal_rcc.c:628:9
	ldrb	r0, [r0]
	lsls	r0, r0, #29
	cmp	r0, #0
	bpl	.LBB2_9
	b	.LBB2_8
.LBB2_8:
	.loc	5 0 9                           @ ../Drivers/STM32F4xx_HAL_Driver/Src/stm32f4xx_hal_rcc.c:0:9
	movw	r1, #14344
	movt	r1, #16386
.Ltmp166:
	.loc	5 630 149 is_stmt 1             @ ../Drivers/STM32F4xx_HAL_Driver/Src/stm32f4xx_hal_rcc.c:630:149
	ldr	r0, [r1]
	.loc	5 630 182 is_stmt 0             @ ../Drivers/STM32F4xx_HAL_Driver/Src/stm32f4xx_hal_rcc.c:630:182
	orr	r0, r0, #7168
	.loc	5 630 79                        @ ../Drivers/STM32F4xx_HAL_Driver/Src/stm32f4xx_hal_rcc.c:630:79
	str	r0, [r1]
	.loc	5 631 5 is_stmt 1               @ ../Drivers/STM32F4xx_HAL_Driver/Src/stm32f4xx_hal_rcc.c:631:5
	b	.LBB2_9
.Ltmp167:
.LBB2_9:
	.loc	5 633 11                        @ ../Drivers/STM32F4xx_HAL_Driver/Src/stm32f4xx_hal_rcc.c:633:11
	ldr	r0, [sp, #8]
.Ltmp168:
	.loc	5 633 9 is_stmt 0               @ ../Drivers/STM32F4xx_HAL_Driver/Src/stm32f4xx_hal_rcc.c:633:9
	ldrb	r0, [r0]
	lsls	r0, r0, #28
	cmp	r0, #0
	bpl	.LBB2_11
	b	.LBB2_10
.LBB2_10:
	.loc	5 0 9                           @ ../Drivers/STM32F4xx_HAL_Driver/Src/stm32f4xx_hal_rcc.c:0:9
	movw	r1, #14344
	movt	r1, #16386
.Ltmp169:
	.loc	5 635 149 is_stmt 1             @ ../Drivers/STM32F4xx_HAL_Driver/Src/stm32f4xx_hal_rcc.c:635:149
	ldr	r0, [r1]
	.loc	5 635 182 is_stmt 0             @ ../Drivers/STM32F4xx_HAL_Driver/Src/stm32f4xx_hal_rcc.c:635:182
	orr	r0, r0, #57344
	.loc	5 635 79                        @ ../Drivers/STM32F4xx_HAL_Driver/Src/stm32f4xx_hal_rcc.c:635:79
	str	r0, [r1]
	.loc	5 636 5 is_stmt 1               @ ../Drivers/STM32F4xx_HAL_Driver/Src/stm32f4xx_hal_rcc.c:636:5
	b	.LBB2_11
.Ltmp170:
.LBB2_11:
	.loc	5 0 5 is_stmt 0                 @ ../Drivers/STM32F4xx_HAL_Driver/Src/stm32f4xx_hal_rcc.c:0:5
	movw	r1, #14344
	movt	r1, #16386
	.loc	5 639 147 is_stmt 1             @ ../Drivers/STM32F4xx_HAL_Driver/Src/stm32f4xx_hal_rcc.c:639:147
	ldr	r0, [r1]
	.loc	5 639 155 is_stmt 0             @ ../Drivers/STM32F4xx_HAL_Driver/Src/stm32f4xx_hal_rcc.c:639:155
	bic	r0, r0, #240
	.loc	5 639 182                       @ ../Drivers/STM32F4xx_HAL_Driver/Src/stm32f4xx_hal_rcc.c:639:182
	ldr	r2, [sp, #8]
	.loc	5 639 201                       @ ../Drivers/STM32F4xx_HAL_Driver/Src/stm32f4xx_hal_rcc.c:639:201
	ldr	r2, [r2, #8]
	.loc	5 639 179                       @ ../Drivers/STM32F4xx_HAL_Driver/Src/stm32f4xx_hal_rcc.c:639:179
	orrs	r0, r2
	.loc	5 639 77                        @ ../Drivers/STM32F4xx_HAL_Driver/Src/stm32f4xx_hal_rcc.c:639:77
	str	r0, [r1]
	.loc	5 640 3 is_stmt 1               @ ../Drivers/STM32F4xx_HAL_Driver/Src/stm32f4xx_hal_rcc.c:640:3
	b	.LBB2_12
.Ltmp171:
.LBB2_12:
	.loc	5 643 9                         @ ../Drivers/STM32F4xx_HAL_Driver/Src/stm32f4xx_hal_rcc.c:643:9
	ldr	r0, [sp, #8]
.Ltmp172:
	.loc	5 643 7 is_stmt 0               @ ../Drivers/STM32F4xx_HAL_Driver/Src/stm32f4xx_hal_rcc.c:643:7
	ldrb	r0, [r0]
	lsls	r0, r0, #31
	cmp	r0, #0
	beq	.LBB2_32
	b	.LBB2_13
.LBB2_13:
.Ltmp173:
	.loc	5 648 9 is_stmt 1               @ ../Drivers/STM32F4xx_HAL_Driver/Src/stm32f4xx_hal_rcc.c:648:9
	ldr	r0, [sp, #8]
	.loc	5 648 28 is_stmt 0              @ ../Drivers/STM32F4xx_HAL_Driver/Src/stm32f4xx_hal_rcc.c:648:28
	ldr	r0, [r0, #4]
.Ltmp174:
	.loc	5 648 9                         @ ../Drivers/STM32F4xx_HAL_Driver/Src/stm32f4xx_hal_rcc.c:648:9
	cmp	r0, #1
	bne	.LBB2_17
	b	.LBB2_14
.LBB2_14:
	.loc	5 0 9                           @ ../Drivers/STM32F4xx_HAL_Driver/Src/stm32f4xx_hal_rcc.c:0:9
	movw	r0, #14336
	movt	r0, #16386
.Ltmp175:
	.loc	5 651 112 is_stmt 1             @ ../Drivers/STM32F4xx_HAL_Driver/Src/stm32f4xx_hal_rcc.c:651:112
	ldr	r0, [r0]
	.loc	5 651 393 is_stmt 0             @ ../Drivers/STM32F4xx_HAL_Driver/Src/stm32f4xx_hal_rcc.c:651:393
	and	r1, r0, #131072
	movs	r0, #0
.Ltmp176:
	.loc	5 651 11                        @ ../Drivers/STM32F4xx_HAL_Driver/Src/stm32f4xx_hal_rcc.c:651:11
	cmp.w	r0, r1, lsr #17
	bne	.LBB2_16
	b	.LBB2_15
.LBB2_15:
	.loc	5 0 11                          @ ../Drivers/STM32F4xx_HAL_Driver/Src/stm32f4xx_hal_rcc.c:0:11
	movs	r0, #1
.Ltmp177:
	.loc	5 653 9 is_stmt 1               @ ../Drivers/STM32F4xx_HAL_Driver/Src/stm32f4xx_hal_rcc.c:653:9
	strb.w	r0, [sp, #15]
	b	.LBB2_41
.Ltmp178:
.LBB2_16:
	.loc	5 655 5                         @ ../Drivers/STM32F4xx_HAL_Driver/Src/stm32f4xx_hal_rcc.c:655:5
	b	.LBB2_26
.Ltmp179:
.LBB2_17:
	.loc	5 657 15                        @ ../Drivers/STM32F4xx_HAL_Driver/Src/stm32f4xx_hal_rcc.c:657:15
	ldr	r0, [sp, #8]
	.loc	5 657 34 is_stmt 0              @ ../Drivers/STM32F4xx_HAL_Driver/Src/stm32f4xx_hal_rcc.c:657:34
	ldr	r0, [r0, #4]
	.loc	5 657 63                        @ ../Drivers/STM32F4xx_HAL_Driver/Src/stm32f4xx_hal_rcc.c:657:63
	cmp	r0, #2
	beq	.LBB2_19
	b	.LBB2_18
.LBB2_18:
	.loc	5 658 15 is_stmt 1              @ ../Drivers/STM32F4xx_HAL_Driver/Src/stm32f4xx_hal_rcc.c:658:15
	ldr	r0, [sp, #8]
	.loc	5 658 34 is_stmt 0              @ ../Drivers/STM32F4xx_HAL_Driver/Src/stm32f4xx_hal_rcc.c:658:34
	ldr	r0, [r0, #4]
.Ltmp180:
	.loc	5 657 14 is_stmt 1              @ ../Drivers/STM32F4xx_HAL_Driver/Src/stm32f4xx_hal_rcc.c:657:14
	cmp	r0, #3
	bne	.LBB2_22
	b	.LBB2_19
.LBB2_19:
	.loc	5 0 14 is_stmt 0                @ ../Drivers/STM32F4xx_HAL_Driver/Src/stm32f4xx_hal_rcc.c:0:14
	movw	r0, #14336
	movt	r0, #16386
.Ltmp181:
	.loc	5 661 112 is_stmt 1             @ ../Drivers/STM32F4xx_HAL_Driver/Src/stm32f4xx_hal_rcc.c:661:112
	ldr	r0, [r0]
	.loc	5 661 393 is_stmt 0             @ ../Drivers/STM32F4xx_HAL_Driver/Src/stm32f4xx_hal_rcc.c:661:393
	and	r1, r0, #33554432
	movs	r0, #0
.Ltmp182:
	.loc	5 661 11                        @ ../Drivers/STM32F4xx_HAL_Driver/Src/stm32f4xx_hal_rcc.c:661:11
	cmp.w	r0, r1, lsr #25
	bne	.LBB2_21
	b	.LBB2_20
.LBB2_20:
	.loc	5 0 11                          @ ../Drivers/STM32F4xx_HAL_Driver/Src/stm32f4xx_hal_rcc.c:0:11
	movs	r0, #1
.Ltmp183:
	.loc	5 663 9 is_stmt 1               @ ../Drivers/STM32F4xx_HAL_Driver/Src/stm32f4xx_hal_rcc.c:663:9
	strb.w	r0, [sp, #15]
	b	.LBB2_41
.Ltmp184:
.LBB2_21:
	.loc	5 665 5                         @ ../Drivers/STM32F4xx_HAL_Driver/Src/stm32f4xx_hal_rcc.c:665:5
	b	.LBB2_25
.Ltmp185:
.LBB2_22:
	.loc	5 0 5 is_stmt 0                 @ ../Drivers/STM32F4xx_HAL_Driver/Src/stm32f4xx_hal_rcc.c:0:5
	movw	r0, #14336
	movt	r0, #16386
.Ltmp186:
	.loc	5 670 112 is_stmt 1             @ ../Drivers/STM32F4xx_HAL_Driver/Src/stm32f4xx_hal_rcc.c:670:112
	ldr	r0, [r0]
	.loc	5 670 393 is_stmt 0             @ ../Drivers/STM32F4xx_HAL_Driver/Src/stm32f4xx_hal_rcc.c:670:393
	and	r1, r0, #2
	movs	r0, #0
.Ltmp187:
	.loc	5 670 11                        @ ../Drivers/STM32F4xx_HAL_Driver/Src/stm32f4xx_hal_rcc.c:670:11
	cmp.w	r0, r1, lsr #1
	bne	.LBB2_24
	b	.LBB2_23
.LBB2_23:
	.loc	5 0 11                          @ ../Drivers/STM32F4xx_HAL_Driver/Src/stm32f4xx_hal_rcc.c:0:11
	movs	r0, #1
.Ltmp188:
	.loc	5 672 9 is_stmt 1               @ ../Drivers/STM32F4xx_HAL_Driver/Src/stm32f4xx_hal_rcc.c:672:9
	strb.w	r0, [sp, #15]
	b	.LBB2_41
.Ltmp189:
.LBB2_24:
	.loc	5 0 9 is_stmt 0                 @ ../Drivers/STM32F4xx_HAL_Driver/Src/stm32f4xx_hal_rcc.c:0:9
	b	.LBB2_25
.LBB2_25:
	b	.LBB2_26
.LBB2_26:
	movw	r1, #14344
	movt	r1, #16386
	.loc	5 676 147 is_stmt 1             @ ../Drivers/STM32F4xx_HAL_Driver/Src/stm32f4xx_hal_rcc.c:676:147
	ldr	r0, [r1]
	.loc	5 676 155 is_stmt 0             @ ../Drivers/STM32F4xx_HAL_Driver/Src/stm32f4xx_hal_rcc.c:676:155
	bic	r0, r0, #3
	.loc	5 676 183                       @ ../Drivers/STM32F4xx_HAL_Driver/Src/stm32f4xx_hal_rcc.c:676:183
	ldr	r2, [sp, #8]
	.loc	5 676 202                       @ ../Drivers/STM32F4xx_HAL_Driver/Src/stm32f4xx_hal_rcc.c:676:202
	ldr	r2, [r2, #4]
	.loc	5 676 179                       @ ../Drivers/STM32F4xx_HAL_Driver/Src/stm32f4xx_hal_rcc.c:676:179
	orrs	r0, r2
	.loc	5 676 77                        @ ../Drivers/STM32F4xx_HAL_Driver/Src/stm32f4xx_hal_rcc.c:676:77
	str	r0, [r1]
	.loc	5 679 17 is_stmt 1              @ ../Drivers/STM32F4xx_HAL_Driver/Src/stm32f4xx_hal_rcc.c:679:17
	bl	HAL_GetTick
	.loc	5 679 15 is_stmt 0              @ ../Drivers/STM32F4xx_HAL_Driver/Src/stm32f4xx_hal_rcc.c:679:15
	str	r0, [sp]
	.loc	5 681 5 is_stmt 1               @ ../Drivers/STM32F4xx_HAL_Driver/Src/stm32f4xx_hal_rcc.c:681:5
	b	.LBB2_27
.LBB2_27:                               @ =>This Inner Loop Header: Depth=1
	.loc	5 0 5 is_stmt 0                 @ ../Drivers/STM32F4xx_HAL_Driver/Src/stm32f4xx_hal_rcc.c:0:5
	movw	r0, #14344
	movt	r0, #16386
	.loc	5 681 75                        @ ../Drivers/STM32F4xx_HAL_Driver/Src/stm32f4xx_hal_rcc.c:681:75
	ldr	r0, [r0]
	.loc	5 681 80                        @ ../Drivers/STM32F4xx_HAL_Driver/Src/stm32f4xx_hal_rcc.c:681:80
	and	r0, r0, #12
	.loc	5 681 103                       @ ../Drivers/STM32F4xx_HAL_Driver/Src/stm32f4xx_hal_rcc.c:681:103
	ldr	r1, [sp, #8]
	.loc	5 681 122                       @ ../Drivers/STM32F4xx_HAL_Driver/Src/stm32f4xx_hal_rcc.c:681:122
	ldr	r1, [r1, #4]
	.loc	5 681 5                         @ ../Drivers/STM32F4xx_HAL_Driver/Src/stm32f4xx_hal_rcc.c:681:5
	cmp.w	r0, r1, lsl #2
	beq	.LBB2_31
	b	.LBB2_28
.LBB2_28:                               @   in Loop: Header=BB2_27 Depth=1
.Ltmp190:
	.loc	5 683 12 is_stmt 1              @ ../Drivers/STM32F4xx_HAL_Driver/Src/stm32f4xx_hal_rcc.c:683:12
	bl	HAL_GetTick
	.loc	5 683 28 is_stmt 0              @ ../Drivers/STM32F4xx_HAL_Driver/Src/stm32f4xx_hal_rcc.c:683:28
	ldr	r1, [sp]
	.loc	5 683 26                        @ ../Drivers/STM32F4xx_HAL_Driver/Src/stm32f4xx_hal_rcc.c:683:26
	subs	r0, r0, r1
	movw	r1, #5001
.Ltmp191:
	.loc	5 683 11                        @ ../Drivers/STM32F4xx_HAL_Driver/Src/stm32f4xx_hal_rcc.c:683:11
	cmp	r0, r1
	blo	.LBB2_30
	b	.LBB2_29
.LBB2_29:
	.loc	5 0 11                          @ ../Drivers/STM32F4xx_HAL_Driver/Src/stm32f4xx_hal_rcc.c:0:11
	movs	r0, #3
.Ltmp192:
	.loc	5 685 9 is_stmt 1               @ ../Drivers/STM32F4xx_HAL_Driver/Src/stm32f4xx_hal_rcc.c:685:9
	strb.w	r0, [sp, #15]
	b	.LBB2_41
.Ltmp193:
.LBB2_30:                               @   in Loop: Header=BB2_27 Depth=1
	.loc	5 681 5                         @ ../Drivers/STM32F4xx_HAL_Driver/Src/stm32f4xx_hal_rcc.c:681:5
	b	.LBB2_27
.LBB2_31:
	.loc	5 688 3                         @ ../Drivers/STM32F4xx_HAL_Driver/Src/stm32f4xx_hal_rcc.c:688:3
	b	.LBB2_32
.Ltmp194:
.LBB2_32:
	.loc	5 691 7                         @ ../Drivers/STM32F4xx_HAL_Driver/Src/stm32f4xx_hal_rcc.c:691:7
	ldr	r0, [sp, #4]
	movw	r1, #15360
	movt	r1, #16386
	.loc	5 691 86 is_stmt 0              @ ../Drivers/STM32F4xx_HAL_Driver/Src/stm32f4xx_hal_rcc.c:691:86
	ldr	r1, [r1]
	.loc	5 691 92                        @ ../Drivers/STM32F4xx_HAL_Driver/Src/stm32f4xx_hal_rcc.c:691:92
	and	r1, r1, #7
.Ltmp195:
	.loc	5 691 7                         @ ../Drivers/STM32F4xx_HAL_Driver/Src/stm32f4xx_hal_rcc.c:691:7
	cmp	r0, r1
	bhs	.LBB2_36
	b	.LBB2_33
.LBB2_33:
.Ltmp196:
	.loc	5 694 51 is_stmt 1              @ ../Drivers/STM32F4xx_HAL_Driver/Src/stm32f4xx_hal_rcc.c:694:51
	ldr	r1, [sp, #4]
	movw	r0, #15360
	movt	r0, #16386
	.loc	5 694 39 is_stmt 0              @ ../Drivers/STM32F4xx_HAL_Driver/Src/stm32f4xx_hal_rcc.c:694:39
	strb	r1, [r0]
.Ltmp197:
	.loc	5 698 77 is_stmt 1              @ ../Drivers/STM32F4xx_HAL_Driver/Src/stm32f4xx_hal_rcc.c:698:77
	ldr	r0, [r0]
	.loc	5 698 83 is_stmt 0              @ ../Drivers/STM32F4xx_HAL_Driver/Src/stm32f4xx_hal_rcc.c:698:83
	and	r0, r0, #7
	.loc	5 698 108                       @ ../Drivers/STM32F4xx_HAL_Driver/Src/stm32f4xx_hal_rcc.c:698:108
	ldr	r1, [sp, #4]
.Ltmp198:
	.loc	5 698 9                         @ ../Drivers/STM32F4xx_HAL_Driver/Src/stm32f4xx_hal_rcc.c:698:9
	cmp	r0, r1
	beq	.LBB2_35
	b	.LBB2_34
.LBB2_34:
	.loc	5 0 9                           @ ../Drivers/STM32F4xx_HAL_Driver/Src/stm32f4xx_hal_rcc.c:0:9
	movs	r0, #1
.Ltmp199:
	.loc	5 700 7 is_stmt 1               @ ../Drivers/STM32F4xx_HAL_Driver/Src/stm32f4xx_hal_rcc.c:700:7
	strb.w	r0, [sp, #15]
	b	.LBB2_41
.Ltmp200:
.LBB2_35:
	.loc	5 702 3                         @ ../Drivers/STM32F4xx_HAL_Driver/Src/stm32f4xx_hal_rcc.c:702:3
	b	.LBB2_36
.Ltmp201:
.LBB2_36:
	.loc	5 705 9                         @ ../Drivers/STM32F4xx_HAL_Driver/Src/stm32f4xx_hal_rcc.c:705:9
	ldr	r0, [sp, #8]
.Ltmp202:
	.loc	5 705 7 is_stmt 0               @ ../Drivers/STM32F4xx_HAL_Driver/Src/stm32f4xx_hal_rcc.c:705:7
	ldrb	r0, [r0]
	lsls	r0, r0, #29
	cmp	r0, #0
	bpl	.LBB2_38
	b	.LBB2_37
.LBB2_37:
	.loc	5 0 7                           @ ../Drivers/STM32F4xx_HAL_Driver/Src/stm32f4xx_hal_rcc.c:0:7
	movw	r1, #14344
	movt	r1, #16386
.Ltmp203:
	.loc	5 708 147 is_stmt 1             @ ../Drivers/STM32F4xx_HAL_Driver/Src/stm32f4xx_hal_rcc.c:708:147
	ldr	r0, [r1]
	.loc	5 708 155 is_stmt 0             @ ../Drivers/STM32F4xx_HAL_Driver/Src/stm32f4xx_hal_rcc.c:708:155
	bic	r0, r0, #7168
	.loc	5 708 183                       @ ../Drivers/STM32F4xx_HAL_Driver/Src/stm32f4xx_hal_rcc.c:708:183
	ldr	r2, [sp, #8]
	.loc	5 708 202                       @ ../Drivers/STM32F4xx_HAL_Driver/Src/stm32f4xx_hal_rcc.c:708:202
	ldr	r2, [r2, #12]
	.loc	5 708 180                       @ ../Drivers/STM32F4xx_HAL_Driver/Src/stm32f4xx_hal_rcc.c:708:180
	orrs	r0, r2
	.loc	5 708 77                        @ ../Drivers/STM32F4xx_HAL_Driver/Src/stm32f4xx_hal_rcc.c:708:77
	str	r0, [r1]
	.loc	5 709 3 is_stmt 1               @ ../Drivers/STM32F4xx_HAL_Driver/Src/stm32f4xx_hal_rcc.c:709:3
	b	.LBB2_38
.Ltmp204:
.LBB2_38:
	.loc	5 712 9                         @ ../Drivers/STM32F4xx_HAL_Driver/Src/stm32f4xx_hal_rcc.c:712:9
	ldr	r0, [sp, #8]
.Ltmp205:
	.loc	5 712 7 is_stmt 0               @ ../Drivers/STM32F4xx_HAL_Driver/Src/stm32f4xx_hal_rcc.c:712:7
	ldrb	r0, [r0]
	lsls	r0, r0, #28
	cmp	r0, #0
	bpl	.LBB2_40
	b	.LBB2_39
.LBB2_39:
	.loc	5 0 7                           @ ../Drivers/STM32F4xx_HAL_Driver/Src/stm32f4xx_hal_rcc.c:0:7
	movw	r1, #14344
	movt	r1, #16386
.Ltmp206:
	.loc	5 715 147 is_stmt 1             @ ../Drivers/STM32F4xx_HAL_Driver/Src/stm32f4xx_hal_rcc.c:715:147
	ldr	r0, [r1]
	.loc	5 715 155 is_stmt 0             @ ../Drivers/STM32F4xx_HAL_Driver/Src/stm32f4xx_hal_rcc.c:715:155
	bic	r0, r0, #57344
	.loc	5 715 185                       @ ../Drivers/STM32F4xx_HAL_Driver/Src/stm32f4xx_hal_rcc.c:715:185
	ldr	r2, [sp, #8]
	.loc	5 715 204                       @ ../Drivers/STM32F4xx_HAL_Driver/Src/stm32f4xx_hal_rcc.c:715:204
	ldr	r2, [r2, #16]
	.loc	5 715 180                       @ ../Drivers/STM32F4xx_HAL_Driver/Src/stm32f4xx_hal_rcc.c:715:180
	orr.w	r0, r0, r2, lsl #3
	.loc	5 715 77                        @ ../Drivers/STM32F4xx_HAL_Driver/Src/stm32f4xx_hal_rcc.c:715:77
	str	r0, [r1]
	.loc	5 716 3 is_stmt 1               @ ../Drivers/STM32F4xx_HAL_Driver/Src/stm32f4xx_hal_rcc.c:716:3
	b	.LBB2_40
.Ltmp207:
.LBB2_40:
	.loc	5 719 21                        @ ../Drivers/STM32F4xx_HAL_Driver/Src/stm32f4xx_hal_rcc.c:719:21
	bl	HAL_RCC_GetSysClockFreq
	movw	r1, #14344
	movt	r1, #16386
	.loc	5 719 127 is_stmt 0             @ ../Drivers/STM32F4xx_HAL_Driver/Src/stm32f4xx_hal_rcc.c:719:127
	ldr	r1, [r1]
	.loc	5 719 132                       @ ../Drivers/STM32F4xx_HAL_Driver/Src/stm32f4xx_hal_rcc.c:719:132
	uxtb	r1, r1
	.loc	5 719 151                       @ ../Drivers/STM32F4xx_HAL_Driver/Src/stm32f4xx_hal_rcc.c:719:151
	lsrs	r2, r1, #4
	.loc	5 719 50                        @ ../Drivers/STM32F4xx_HAL_Driver/Src/stm32f4xx_hal_rcc.c:719:50
	movw	r1, :lower16:AHBPrescTable
	movt	r1, :upper16:AHBPrescTable
	ldrb	r1, [r1, r2]
	.loc	5 719 47                        @ ../Drivers/STM32F4xx_HAL_Driver/Src/stm32f4xx_hal_rcc.c:719:47
	lsrs	r0, r1
	.loc	5 719 19                        @ ../Drivers/STM32F4xx_HAL_Driver/Src/stm32f4xx_hal_rcc.c:719:19
	movw	r1, :lower16:SystemCoreClock
	movt	r1, :upper16:SystemCoreClock
	str	r0, [r1]
	.loc	5 722 16 is_stmt 1              @ ../Drivers/STM32F4xx_HAL_Driver/Src/stm32f4xx_hal_rcc.c:722:16
	movw	r0, :lower16:uwTickPrio
	movt	r0, :upper16:uwTickPrio
	ldr	r0, [r0]
	.loc	5 722 3 is_stmt 0               @ ../Drivers/STM32F4xx_HAL_Driver/Src/stm32f4xx_hal_rcc.c:722:3
	bl	HAL_InitTick
	movs	r0, #0
	.loc	5 724 3 is_stmt 1               @ ../Drivers/STM32F4xx_HAL_Driver/Src/stm32f4xx_hal_rcc.c:724:3
	strb.w	r0, [sp, #15]
	b	.LBB2_41
.LBB2_41:
	.loc	5 725 1                         @ ../Drivers/STM32F4xx_HAL_Driver/Src/stm32f4xx_hal_rcc.c:725:1
	ldrb.w	r0, [sp, #15]
	add	sp, #16
	pop	{r7, pc}
.Ltmp208:
.Lfunc_end2:
	.size	HAL_RCC_ClockConfig, .Lfunc_end2-HAL_RCC_ClockConfig
	.cfi_endproc
	.cantunwind
	.fnend
                                        @ -- End function
	.section	.text.HAL_RCC_GetSysClockFreq,"ax",%progbits
	.hidden	HAL_RCC_GetSysClockFreq         @ -- Begin function HAL_RCC_GetSysClockFreq
	.weak	HAL_RCC_GetSysClockFreq
	.p2align	2
	.type	HAL_RCC_GetSysClockFreq,%function
	.code	16                              @ @HAL_RCC_GetSysClockFreq
	.thumb_func
HAL_RCC_GetSysClockFreq:
.Lfunc_begin3:
	.loc	5 886 0                         @ ../Drivers/STM32F4xx_HAL_Driver/Src/stm32f4xx_hal_rcc.c:886:0
	.fnstart
	.cfi_startproc
@ %bb.0:
	.save	{r7, lr}
	push	{r7, lr}
	.cfi_def_cfa_offset 8
	.cfi_offset lr, -4
	.cfi_offset r7, -8
	.pad	#24
	sub	sp, #24
	.cfi_def_cfa_offset 32
	movs	r0, #0
.Ltmp209:
	.loc	5 887 12 prologue_end           @ ../Drivers/STM32F4xx_HAL_Driver/Src/stm32f4xx_hal_rcc.c:887:12
	str	r0, [sp, #20]
	.loc	5 888 12                        @ ../Drivers/STM32F4xx_HAL_Driver/Src/stm32f4xx_hal_rcc.c:888:12
	str	r0, [sp, #16]
	.loc	5 889 12                        @ ../Drivers/STM32F4xx_HAL_Driver/Src/stm32f4xx_hal_rcc.c:889:12
	str	r0, [sp, #12]
	.loc	5 890 12                        @ ../Drivers/STM32F4xx_HAL_Driver/Src/stm32f4xx_hal_rcc.c:890:12
	str	r0, [sp, #8]
	movw	r0, #14344
	movt	r0, #16386
	.loc	5 893 73                        @ ../Drivers/STM32F4xx_HAL_Driver/Src/stm32f4xx_hal_rcc.c:893:73
	ldr	r0, [r0]
	.loc	5 893 78 is_stmt 0              @ ../Drivers/STM32F4xx_HAL_Driver/Src/stm32f4xx_hal_rcc.c:893:78
	and	r0, r0, #12
	.loc	5 893 3                         @ ../Drivers/STM32F4xx_HAL_Driver/Src/stm32f4xx_hal_rcc.c:893:3
	mov	r1, r0
	str	r1, [sp, #4]                    @ 4-byte Spill
	cbz	r0, .LBB3_3
	b	.LBB3_1
.LBB3_1:
	ldr	r0, [sp, #4]                    @ 4-byte Reload
	cmp	r0, #4
	beq	.LBB3_4
	b	.LBB3_2
.LBB3_2:
	ldr	r0, [sp, #4]                    @ 4-byte Reload
	cmp	r0, #8
	beq	.LBB3_5
	b	.LBB3_9
.LBB3_3:
	.loc	5 0 3                           @ ../Drivers/STM32F4xx_HAL_Driver/Src/stm32f4xx_hal_rcc.c:0:3
	movw	r0, #9216
	movt	r0, #244
.Ltmp210:
	.loc	5 897 20 is_stmt 1              @ ../Drivers/STM32F4xx_HAL_Driver/Src/stm32f4xx_hal_rcc.c:897:20
	str	r0, [sp, #8]
	.loc	5 898 7                         @ ../Drivers/STM32F4xx_HAL_Driver/Src/stm32f4xx_hal_rcc.c:898:7
	b	.LBB3_10
.Ltmp211:
.LBB3_4:
	.loc	5 0 7 is_stmt 0                 @ ../Drivers/STM32F4xx_HAL_Driver/Src/stm32f4xx_hal_rcc.c:0:7
	movw	r0, #6912
	movt	r0, #183
.Ltmp212:
	.loc	5 902 20 is_stmt 1              @ ../Drivers/STM32F4xx_HAL_Driver/Src/stm32f4xx_hal_rcc.c:902:20
	str	r0, [sp, #8]
	.loc	5 903 7                         @ ../Drivers/STM32F4xx_HAL_Driver/Src/stm32f4xx_hal_rcc.c:903:7
	b	.LBB3_10
.Ltmp213:
.LBB3_5:
	.loc	5 0 7 is_stmt 0                 @ ../Drivers/STM32F4xx_HAL_Driver/Src/stm32f4xx_hal_rcc.c:0:7
	movw	r0, #14340
	movt	r0, #16386
.Ltmp214:
	.loc	5 909 76 is_stmt 1              @ ../Drivers/STM32F4xx_HAL_Driver/Src/stm32f4xx_hal_rcc.c:909:76
	ldr	r1, [r0]
	.loc	5 909 84 is_stmt 0              @ ../Drivers/STM32F4xx_HAL_Driver/Src/stm32f4xx_hal_rcc.c:909:84
	and	r1, r1, #63
	.loc	5 909 12                        @ ../Drivers/STM32F4xx_HAL_Driver/Src/stm32f4xx_hal_rcc.c:909:12
	str	r1, [sp, #20]
.Ltmp215:
	.loc	5 910 85 is_stmt 1              @ ../Drivers/STM32F4xx_HAL_Driver/Src/stm32f4xx_hal_rcc.c:910:85
	ldr	r0, [r0]
.Ltmp216:
	.loc	5 910 11 is_stmt 0              @ ../Drivers/STM32F4xx_HAL_Driver/Src/stm32f4xx_hal_rcc.c:910:11
	lsls	r0, r0, #9
	cmp	r0, #0
	bpl	.LBB3_7
	b	.LBB3_6
.LBB3_6:
	.loc	5 0 11                          @ ../Drivers/STM32F4xx_HAL_Driver/Src/stm32f4xx_hal_rcc.c:0:11
	movw	r0, #14340
	movt	r0, #16386
.Ltmp217:
	.loc	5 913 129 is_stmt 1             @ ../Drivers/STM32F4xx_HAL_Driver/Src/stm32f4xx_hal_rcc.c:913:129
	ldr	r0, [r0]
	.loc	5 913 158 is_stmt 0             @ ../Drivers/STM32F4xx_HAL_Driver/Src/stm32f4xx_hal_rcc.c:913:158
	ubfx	r0, r0, #6, #9
	movw	r1, #6912
	movt	r1, #183
	.loc	5 913 52                        @ ../Drivers/STM32F4xx_HAL_Driver/Src/stm32f4xx_hal_rcc.c:913:52
	umull	r0, r1, r0, r1
	.loc	5 913 182                       @ ../Drivers/STM32F4xx_HAL_Driver/Src/stm32f4xx_hal_rcc.c:913:182
	ldr	r2, [sp, #20]
	movs	r3, #0
	.loc	5 913 170                       @ ../Drivers/STM32F4xx_HAL_Driver/Src/stm32f4xx_hal_rcc.c:913:170
	bl	__aeabi_uldivmod
	.loc	5 913 16                        @ ../Drivers/STM32F4xx_HAL_Driver/Src/stm32f4xx_hal_rcc.c:913:16
	str	r0, [sp, #16]
	.loc	5 914 7 is_stmt 1               @ ../Drivers/STM32F4xx_HAL_Driver/Src/stm32f4xx_hal_rcc.c:914:7
	b	.LBB3_8
.Ltmp218:
.LBB3_7:
	.loc	5 0 7 is_stmt 0                 @ ../Drivers/STM32F4xx_HAL_Driver/Src/stm32f4xx_hal_rcc.c:0:7
	movw	r0, #14340
	movt	r0, #16386
.Ltmp219:
	.loc	5 918 141 is_stmt 1             @ ../Drivers/STM32F4xx_HAL_Driver/Src/stm32f4xx_hal_rcc.c:918:141
	ldr	r0, [r0]
	.loc	5 918 170 is_stmt 0             @ ../Drivers/STM32F4xx_HAL_Driver/Src/stm32f4xx_hal_rcc.c:918:170
	ubfx	r0, r0, #6, #9
	movw	r1, #9216
	movt	r1, #244
	.loc	5 918 64                        @ ../Drivers/STM32F4xx_HAL_Driver/Src/stm32f4xx_hal_rcc.c:918:64
	umull	r0, r1, r0, r1
	.loc	5 918 194                       @ ../Drivers/STM32F4xx_HAL_Driver/Src/stm32f4xx_hal_rcc.c:918:194
	ldr	r2, [sp, #20]
	movs	r3, #0
	.loc	5 918 182                       @ ../Drivers/STM32F4xx_HAL_Driver/Src/stm32f4xx_hal_rcc.c:918:182
	bl	__aeabi_uldivmod
	.loc	5 918 16                        @ ../Drivers/STM32F4xx_HAL_Driver/Src/stm32f4xx_hal_rcc.c:918:16
	str	r0, [sp, #16]
	b	.LBB3_8
.Ltmp220:
.LBB3_8:
	.loc	5 0 16                          @ ../Drivers/STM32F4xx_HAL_Driver/Src/stm32f4xx_hal_rcc.c:0:16
	movw	r0, #14340
	movt	r0, #16386
	.loc	5 920 80 is_stmt 1              @ ../Drivers/STM32F4xx_HAL_Driver/Src/stm32f4xx_hal_rcc.c:920:80
	ldr	r0, [r0]
	.loc	5 920 88 is_stmt 0              @ ../Drivers/STM32F4xx_HAL_Driver/Src/stm32f4xx_hal_rcc.c:920:88
	and	r1, r0, #196608
	movs	r0, #2
	.loc	5 920 124                       @ ../Drivers/STM32F4xx_HAL_Driver/Src/stm32f4xx_hal_rcc.c:920:124
	add.w	r0, r0, r1, lsr #15
	.loc	5 920 12                        @ ../Drivers/STM32F4xx_HAL_Driver/Src/stm32f4xx_hal_rcc.c:920:12
	str	r0, [sp, #12]
	.loc	5 922 22 is_stmt 1              @ ../Drivers/STM32F4xx_HAL_Driver/Src/stm32f4xx_hal_rcc.c:922:22
	ldr	r0, [sp, #16]
	.loc	5 922 31 is_stmt 0              @ ../Drivers/STM32F4xx_HAL_Driver/Src/stm32f4xx_hal_rcc.c:922:31
	ldr	r1, [sp, #12]
	.loc	5 922 29                        @ ../Drivers/STM32F4xx_HAL_Driver/Src/stm32f4xx_hal_rcc.c:922:29
	udiv	r0, r0, r1
	.loc	5 922 20                        @ ../Drivers/STM32F4xx_HAL_Driver/Src/stm32f4xx_hal_rcc.c:922:20
	str	r0, [sp, #8]
	.loc	5 923 7 is_stmt 1               @ ../Drivers/STM32F4xx_HAL_Driver/Src/stm32f4xx_hal_rcc.c:923:7
	b	.LBB3_10
.Ltmp221:
.LBB3_9:
	.loc	5 0 7 is_stmt 0                 @ ../Drivers/STM32F4xx_HAL_Driver/Src/stm32f4xx_hal_rcc.c:0:7
	movw	r0, #9216
	movt	r0, #244
.Ltmp222:
	.loc	5 927 20 is_stmt 1              @ ../Drivers/STM32F4xx_HAL_Driver/Src/stm32f4xx_hal_rcc.c:927:20
	str	r0, [sp, #8]
	.loc	5 928 7                         @ ../Drivers/STM32F4xx_HAL_Driver/Src/stm32f4xx_hal_rcc.c:928:7
	b	.LBB3_10
.Ltmp223:
.LBB3_10:
	.loc	5 931 10                        @ ../Drivers/STM32F4xx_HAL_Driver/Src/stm32f4xx_hal_rcc.c:931:10
	ldr	r0, [sp, #8]
	.loc	5 931 3 is_stmt 0               @ ../Drivers/STM32F4xx_HAL_Driver/Src/stm32f4xx_hal_rcc.c:931:3
	add	sp, #24
	pop	{r7, pc}
.Ltmp224:
.Lfunc_end3:
	.size	HAL_RCC_GetSysClockFreq, .Lfunc_end3-HAL_RCC_GetSysClockFreq
	.cfi_endproc
	.cantunwind
	.fnend
                                        @ -- End function
	.section	.text.HAL_RCC_MCOConfig,"ax",%progbits
	.hidden	HAL_RCC_MCOConfig               @ -- Begin function HAL_RCC_MCOConfig
	.globl	HAL_RCC_MCOConfig
	.p2align	2
	.type	HAL_RCC_MCOConfig,%function
	.code	16                              @ @HAL_RCC_MCOConfig
	.thumb_func
HAL_RCC_MCOConfig:
.Lfunc_begin4:
	.loc	5 776 0 is_stmt 1               @ ../Drivers/STM32F4xx_HAL_Driver/Src/stm32f4xx_hal_rcc.c:776:0
	.fnstart
	.cfi_startproc
@ %bb.0:
	.save	{r7, lr}
	push	{r7, lr}
	.cfi_def_cfa_offset 8
	.cfi_offset lr, -4
	.cfi_offset r7, -8
	.pad	#40
	sub	sp, #40
	.cfi_def_cfa_offset 48
	str	r0, [sp, #36]
	str	r1, [sp, #32]
	str	r2, [sp, #28]
.Ltmp225:
	.loc	5 782 7 prologue_end            @ ../Drivers/STM32F4xx_HAL_Driver/Src/stm32f4xx_hal_rcc.c:782:7
	ldr	r0, [sp, #36]
.Ltmp226:
	.loc	5 782 7 is_stmt 0               @ ../Drivers/STM32F4xx_HAL_Driver/Src/stm32f4xx_hal_rcc.c:782:7
	cbnz	r0, .LBB4_4
	b	.LBB4_1
.LBB4_1:
.Ltmp227:
	.loc	5 787 5 is_stmt 1               @ ../Drivers/STM32F4xx_HAL_Driver/Src/stm32f4xx_hal_rcc.c:787:5
	b	.LBB4_2
.LBB4_2:
	.loc	5 0 5 is_stmt 0                 @ ../Drivers/STM32F4xx_HAL_Driver/Src/stm32f4xx_hal_rcc.c:0:5
	movs	r0, #0
.Ltmp228:
	.loc	5 787 28                        @ ../Drivers/STM32F4xx_HAL_Driver/Src/stm32f4xx_hal_rcc.c:787:28
	str	r0, [sp, #4]
	movw	r0, #14384
	movt	r0, #16386
	.loc	5 787 117                       @ ../Drivers/STM32F4xx_HAL_Driver/Src/stm32f4xx_hal_rcc.c:787:117
	ldr	r1, [r0]
	orr	r1, r1, #1
	str	r1, [r0]
	.loc	5 787 213                       @ ../Drivers/STM32F4xx_HAL_Driver/Src/stm32f4xx_hal_rcc.c:787:213
	ldr	r0, [r0]
	.loc	5 787 222                       @ ../Drivers/STM32F4xx_HAL_Driver/Src/stm32f4xx_hal_rcc.c:787:222
	and	r0, r0, #1
	.loc	5 787 147                       @ ../Drivers/STM32F4xx_HAL_Driver/Src/stm32f4xx_hal_rcc.c:787:147
	str	r0, [sp, #4]
	.loc	5 787 250                       @ ../Drivers/STM32F4xx_HAL_Driver/Src/stm32f4xx_hal_rcc.c:787:250
	ldr	r0, [sp, #4]
	.loc	5 787 258                       @ ../Drivers/STM32F4xx_HAL_Driver/Src/stm32f4xx_hal_rcc.c:787:258
	b	.LBB4_3
.Ltmp229:
.LBB4_3:
	.loc	5 0 258                         @ ../Drivers/STM32F4xx_HAL_Driver/Src/stm32f4xx_hal_rcc.c:0:258
	mov.w	r0, #256
	.loc	5 790 25 is_stmt 1              @ ../Drivers/STM32F4xx_HAL_Driver/Src/stm32f4xx_hal_rcc.c:790:25
	str	r0, [sp, #8]
	movs	r0, #2
	.loc	5 791 26                        @ ../Drivers/STM32F4xx_HAL_Driver/Src/stm32f4xx_hal_rcc.c:791:26
	str	r0, [sp, #12]
	movs	r0, #3
	.loc	5 792 27                        @ ../Drivers/STM32F4xx_HAL_Driver/Src/stm32f4xx_hal_rcc.c:792:27
	str	r0, [sp, #20]
	movs	r0, #0
	.loc	5 793 26                        @ ../Drivers/STM32F4xx_HAL_Driver/Src/stm32f4xx_hal_rcc.c:793:26
	str	r0, [sp, #16]
	.loc	5 794 31                        @ ../Drivers/STM32F4xx_HAL_Driver/Src/stm32f4xx_hal_rcc.c:794:31
	str	r0, [sp, #24]
	movs	r0, #0
	movt	r0, #16386
	add	r1, sp, #8
	.loc	5 795 5                         @ ../Drivers/STM32F4xx_HAL_Driver/Src/stm32f4xx_hal_rcc.c:795:5
	bl	HAL_GPIO_Init
	movw	r1, #14344
	movt	r1, #16386
	.loc	5 798 147                       @ ../Drivers/STM32F4xx_HAL_Driver/Src/stm32f4xx_hal_rcc.c:798:147
	ldr	r0, [r1]
	.loc	5 798 155 is_stmt 0             @ ../Drivers/STM32F4xx_HAL_Driver/Src/stm32f4xx_hal_rcc.c:798:155
	bic	r0, r0, #123731968
	.loc	5 798 205                       @ ../Drivers/STM32F4xx_HAL_Driver/Src/stm32f4xx_hal_rcc.c:798:205
	ldr	r2, [sp, #32]
	.loc	5 798 221                       @ ../Drivers/STM32F4xx_HAL_Driver/Src/stm32f4xx_hal_rcc.c:798:221
	ldr	r3, [sp, #28]
	.loc	5 798 219                       @ ../Drivers/STM32F4xx_HAL_Driver/Src/stm32f4xx_hal_rcc.c:798:219
	orrs	r2, r3
	.loc	5 798 201                       @ ../Drivers/STM32F4xx_HAL_Driver/Src/stm32f4xx_hal_rcc.c:798:201
	orrs	r0, r2
	.loc	5 798 77                        @ ../Drivers/STM32F4xx_HAL_Driver/Src/stm32f4xx_hal_rcc.c:798:77
	str	r0, [r1]
	.loc	5 804 3 is_stmt 1               @ ../Drivers/STM32F4xx_HAL_Driver/Src/stm32f4xx_hal_rcc.c:804:3
	b	.LBB4_7
.Ltmp230:
.LBB4_4:
	.loc	5 811 5                         @ ../Drivers/STM32F4xx_HAL_Driver/Src/stm32f4xx_hal_rcc.c:811:5
	b	.LBB4_5
.LBB4_5:
	.loc	5 0 5 is_stmt 0                 @ ../Drivers/STM32F4xx_HAL_Driver/Src/stm32f4xx_hal_rcc.c:0:5
	movs	r0, #0
.Ltmp231:
	.loc	5 811 28                        @ ../Drivers/STM32F4xx_HAL_Driver/Src/stm32f4xx_hal_rcc.c:811:28
	str	r0, [sp]
	movw	r0, #14384
	movt	r0, #16386
	.loc	5 811 117                       @ ../Drivers/STM32F4xx_HAL_Driver/Src/stm32f4xx_hal_rcc.c:811:117
	ldr	r1, [r0]
	orr	r1, r1, #4
	str	r1, [r0]
	.loc	5 811 213                       @ ../Drivers/STM32F4xx_HAL_Driver/Src/stm32f4xx_hal_rcc.c:811:213
	ldr	r0, [r0]
	.loc	5 811 222                       @ ../Drivers/STM32F4xx_HAL_Driver/Src/stm32f4xx_hal_rcc.c:811:222
	and	r0, r0, #4
	.loc	5 811 147                       @ ../Drivers/STM32F4xx_HAL_Driver/Src/stm32f4xx_hal_rcc.c:811:147
	str	r0, [sp]
	.loc	5 811 250                       @ ../Drivers/STM32F4xx_HAL_Driver/Src/stm32f4xx_hal_rcc.c:811:250
	ldr	r0, [sp]
	.loc	5 811 258                       @ ../Drivers/STM32F4xx_HAL_Driver/Src/stm32f4xx_hal_rcc.c:811:258
	b	.LBB4_6
.Ltmp232:
.LBB4_6:
	.loc	5 0 258                         @ ../Drivers/STM32F4xx_HAL_Driver/Src/stm32f4xx_hal_rcc.c:0:258
	mov.w	r0, #512
	.loc	5 814 25 is_stmt 1              @ ../Drivers/STM32F4xx_HAL_Driver/Src/stm32f4xx_hal_rcc.c:814:25
	str	r0, [sp, #8]
	movs	r0, #2
	.loc	5 815 26                        @ ../Drivers/STM32F4xx_HAL_Driver/Src/stm32f4xx_hal_rcc.c:815:26
	str	r0, [sp, #12]
	movs	r0, #3
	.loc	5 816 27                        @ ../Drivers/STM32F4xx_HAL_Driver/Src/stm32f4xx_hal_rcc.c:816:27
	str	r0, [sp, #20]
	movs	r0, #0
	.loc	5 817 26                        @ ../Drivers/STM32F4xx_HAL_Driver/Src/stm32f4xx_hal_rcc.c:817:26
	str	r0, [sp, #16]
	.loc	5 818 31                        @ ../Drivers/STM32F4xx_HAL_Driver/Src/stm32f4xx_hal_rcc.c:818:31
	str	r0, [sp, #24]
	movw	r0, #2048
	movt	r0, #16386
	add	r1, sp, #8
	.loc	5 819 5                         @ ../Drivers/STM32F4xx_HAL_Driver/Src/stm32f4xx_hal_rcc.c:819:5
	bl	HAL_GPIO_Init
	movw	r1, #14344
	movt	r1, #16386
	.loc	5 822 147                       @ ../Drivers/STM32F4xx_HAL_Driver/Src/stm32f4xx_hal_rcc.c:822:147
	ldr	r0, [r1]
	.loc	5 822 155 is_stmt 0             @ ../Drivers/STM32F4xx_HAL_Driver/Src/stm32f4xx_hal_rcc.c:822:155
	bic	r0, r0, #-134217728
	.loc	5 822 205                       @ ../Drivers/STM32F4xx_HAL_Driver/Src/stm32f4xx_hal_rcc.c:822:205
	ldr	r2, [sp, #32]
	.loc	5 822 222                       @ ../Drivers/STM32F4xx_HAL_Driver/Src/stm32f4xx_hal_rcc.c:822:222
	ldr	r3, [sp, #28]
	.loc	5 822 219                       @ ../Drivers/STM32F4xx_HAL_Driver/Src/stm32f4xx_hal_rcc.c:822:219
	orr.w	r2, r2, r3, lsl #3
	.loc	5 822 201                       @ ../Drivers/STM32F4xx_HAL_Driver/Src/stm32f4xx_hal_rcc.c:822:201
	orrs	r0, r2
	.loc	5 822 77                        @ ../Drivers/STM32F4xx_HAL_Driver/Src/stm32f4xx_hal_rcc.c:822:77
	str	r0, [r1]
	b	.LBB4_7
.Ltmp233:
.LBB4_7:
	.loc	5 830 1 is_stmt 1               @ ../Drivers/STM32F4xx_HAL_Driver/Src/stm32f4xx_hal_rcc.c:830:1
	add	sp, #40
	pop	{r7, pc}
.Ltmp234:
.Lfunc_end4:
	.size	HAL_RCC_MCOConfig, .Lfunc_end4-HAL_RCC_MCOConfig
	.cfi_endproc
	.cantunwind
	.fnend
                                        @ -- End function
	.section	.text.HAL_RCC_EnableCSS,"ax",%progbits
	.hidden	HAL_RCC_EnableCSS               @ -- Begin function HAL_RCC_EnableCSS
	.globl	HAL_RCC_EnableCSS
	.p2align	2
	.type	HAL_RCC_EnableCSS,%function
	.code	16                              @ @HAL_RCC_EnableCSS
	.thumb_func
HAL_RCC_EnableCSS:
.Lfunc_begin5:
	.loc	5 842 0                         @ ../Drivers/STM32F4xx_HAL_Driver/Src/stm32f4xx_hal_rcc.c:842:0
	.fnstart
	.cfi_startproc
@ %bb.0:
	movs	r1, #76
	movt	r1, #16967
	movs	r0, #1
.Ltmp235:
	.loc	5 843 136 prologue_end          @ ../Drivers/STM32F4xx_HAL_Driver/Src/stm32f4xx_hal_rcc.c:843:136
	str	r0, [r1]
	.loc	5 844 1                         @ ../Drivers/STM32F4xx_HAL_Driver/Src/stm32f4xx_hal_rcc.c:844:1
	bx	lr
.Ltmp236:
.Lfunc_end5:
	.size	HAL_RCC_EnableCSS, .Lfunc_end5-HAL_RCC_EnableCSS
	.cfi_endproc
	.cantunwind
	.fnend
                                        @ -- End function
	.section	.text.HAL_RCC_DisableCSS,"ax",%progbits
	.hidden	HAL_RCC_DisableCSS              @ -- Begin function HAL_RCC_DisableCSS
	.globl	HAL_RCC_DisableCSS
	.p2align	2
	.type	HAL_RCC_DisableCSS,%function
	.code	16                              @ @HAL_RCC_DisableCSS
	.thumb_func
HAL_RCC_DisableCSS:
.Lfunc_begin6:
	.loc	5 851 0                         @ ../Drivers/STM32F4xx_HAL_Driver/Src/stm32f4xx_hal_rcc.c:851:0
	.fnstart
	.cfi_startproc
@ %bb.0:
	movs	r1, #76
	movt	r1, #16967
	movs	r0, #0
.Ltmp237:
	.loc	5 852 136 prologue_end          @ ../Drivers/STM32F4xx_HAL_Driver/Src/stm32f4xx_hal_rcc.c:852:136
	str	r0, [r1]
	.loc	5 853 1                         @ ../Drivers/STM32F4xx_HAL_Driver/Src/stm32f4xx_hal_rcc.c:853:1
	bx	lr
.Ltmp238:
.Lfunc_end6:
	.size	HAL_RCC_DisableCSS, .Lfunc_end6-HAL_RCC_DisableCSS
	.cfi_endproc
	.cantunwind
	.fnend
                                        @ -- End function
	.section	.text.HAL_RCC_GetHCLKFreq,"ax",%progbits
	.hidden	HAL_RCC_GetHCLKFreq             @ -- Begin function HAL_RCC_GetHCLKFreq
	.globl	HAL_RCC_GetHCLKFreq
	.p2align	2
	.type	HAL_RCC_GetHCLKFreq,%function
	.code	16                              @ @HAL_RCC_GetHCLKFreq
	.thumb_func
HAL_RCC_GetHCLKFreq:
.Lfunc_begin7:
	.loc	5 944 0                         @ ../Drivers/STM32F4xx_HAL_Driver/Src/stm32f4xx_hal_rcc.c:944:0
	.fnstart
	.cfi_startproc
@ %bb.0:
	.loc	5 945 10 prologue_end           @ ../Drivers/STM32F4xx_HAL_Driver/Src/stm32f4xx_hal_rcc.c:945:10
	movw	r0, :lower16:SystemCoreClock
	movt	r0, :upper16:SystemCoreClock
	ldr	r0, [r0]
	.loc	5 945 3 is_stmt 0               @ ../Drivers/STM32F4xx_HAL_Driver/Src/stm32f4xx_hal_rcc.c:945:3
	bx	lr
.Ltmp239:
.Lfunc_end7:
	.size	HAL_RCC_GetHCLKFreq, .Lfunc_end7-HAL_RCC_GetHCLKFreq
	.cfi_endproc
	.cantunwind
	.fnend
                                        @ -- End function
	.section	.text.HAL_RCC_GetPCLK1Freq,"ax",%progbits
	.hidden	HAL_RCC_GetPCLK1Freq            @ -- Begin function HAL_RCC_GetPCLK1Freq
	.globl	HAL_RCC_GetPCLK1Freq
	.p2align	2
	.type	HAL_RCC_GetPCLK1Freq,%function
	.code	16                              @ @HAL_RCC_GetPCLK1Freq
	.thumb_func
HAL_RCC_GetPCLK1Freq:
.Lfunc_begin8:
	.loc	5 955 0 is_stmt 1               @ ../Drivers/STM32F4xx_HAL_Driver/Src/stm32f4xx_hal_rcc.c:955:0
	.fnstart
	.cfi_startproc
@ %bb.0:
	.save	{r7, lr}
	push	{r7, lr}
	.cfi_def_cfa_offset 8
	.cfi_offset lr, -4
	.cfi_offset r7, -8
.Ltmp240:
	.loc	5 957 11 prologue_end           @ ../Drivers/STM32F4xx_HAL_Driver/Src/stm32f4xx_hal_rcc.c:957:11
	bl	HAL_RCC_GetHCLKFreq
	movw	r1, #14344
	movt	r1, #16386
	.loc	5 957 113 is_stmt 0             @ ../Drivers/STM32F4xx_HAL_Driver/Src/stm32f4xx_hal_rcc.c:957:113
	ldr	r1, [r1]
	.loc	5 957 138                       @ ../Drivers/STM32F4xx_HAL_Driver/Src/stm32f4xx_hal_rcc.c:957:138
	ubfx	r2, r1, #10, #3
	.loc	5 957 36                        @ ../Drivers/STM32F4xx_HAL_Driver/Src/stm32f4xx_hal_rcc.c:957:36
	movw	r1, :lower16:APBPrescTable
	movt	r1, :upper16:APBPrescTable
	ldrb	r1, [r1, r2]
	.loc	5 957 33                        @ ../Drivers/STM32F4xx_HAL_Driver/Src/stm32f4xx_hal_rcc.c:957:33
	lsrs	r0, r1
	.loc	5 957 3                         @ ../Drivers/STM32F4xx_HAL_Driver/Src/stm32f4xx_hal_rcc.c:957:3
	pop	{r7, pc}
.Ltmp241:
.Lfunc_end8:
	.size	HAL_RCC_GetPCLK1Freq, .Lfunc_end8-HAL_RCC_GetPCLK1Freq
	.cfi_endproc
	.cantunwind
	.fnend
                                        @ -- End function
	.section	.text.HAL_RCC_GetPCLK2Freq,"ax",%progbits
	.hidden	HAL_RCC_GetPCLK2Freq            @ -- Begin function HAL_RCC_GetPCLK2Freq
	.globl	HAL_RCC_GetPCLK2Freq
	.p2align	2
	.type	HAL_RCC_GetPCLK2Freq,%function
	.code	16                              @ @HAL_RCC_GetPCLK2Freq
	.thumb_func
HAL_RCC_GetPCLK2Freq:
.Lfunc_begin9:
	.loc	5 967 0 is_stmt 1               @ ../Drivers/STM32F4xx_HAL_Driver/Src/stm32f4xx_hal_rcc.c:967:0
	.fnstart
	.cfi_startproc
@ %bb.0:
	.save	{r7, lr}
	push	{r7, lr}
	.cfi_def_cfa_offset 8
	.cfi_offset lr, -4
	.cfi_offset r7, -8
.Ltmp242:
	.loc	5 969 11 prologue_end           @ ../Drivers/STM32F4xx_HAL_Driver/Src/stm32f4xx_hal_rcc.c:969:11
	bl	HAL_RCC_GetHCLKFreq
	movw	r1, #14344
	movt	r1, #16386
	.loc	5 969 113 is_stmt 0             @ ../Drivers/STM32F4xx_HAL_Driver/Src/stm32f4xx_hal_rcc.c:969:113
	ldr	r1, [r1]
	.loc	5 969 118                       @ ../Drivers/STM32F4xx_HAL_Driver/Src/stm32f4xx_hal_rcc.c:969:118
	uxth	r1, r1
	.loc	5 969 138                       @ ../Drivers/STM32F4xx_HAL_Driver/Src/stm32f4xx_hal_rcc.c:969:138
	lsrs	r2, r1, #13
	.loc	5 969 36                        @ ../Drivers/STM32F4xx_HAL_Driver/Src/stm32f4xx_hal_rcc.c:969:36
	movw	r1, :lower16:APBPrescTable
	movt	r1, :upper16:APBPrescTable
	ldrb	r1, [r1, r2]
	.loc	5 969 33                        @ ../Drivers/STM32F4xx_HAL_Driver/Src/stm32f4xx_hal_rcc.c:969:33
	lsrs	r0, r1
	.loc	5 969 3                         @ ../Drivers/STM32F4xx_HAL_Driver/Src/stm32f4xx_hal_rcc.c:969:3
	pop	{r7, pc}
.Ltmp243:
.Lfunc_end9:
	.size	HAL_RCC_GetPCLK2Freq, .Lfunc_end9-HAL_RCC_GetPCLK2Freq
	.cfi_endproc
	.cantunwind
	.fnend
                                        @ -- End function
	.section	.text.HAL_RCC_GetOscConfig,"ax",%progbits
	.hidden	HAL_RCC_GetOscConfig            @ -- Begin function HAL_RCC_GetOscConfig
	.weak	HAL_RCC_GetOscConfig
	.p2align	2
	.type	HAL_RCC_GetOscConfig,%function
	.code	16                              @ @HAL_RCC_GetOscConfig
	.thumb_func
HAL_RCC_GetOscConfig:
.Lfunc_begin10:
	.loc	5 980 0 is_stmt 1               @ ../Drivers/STM32F4xx_HAL_Driver/Src/stm32f4xx_hal_rcc.c:980:0
	.fnstart
	.cfi_startproc
@ %bb.0:
	.pad	#4
	sub	sp, #4
	.cfi_def_cfa_offset 4
	str	r0, [sp]
.Ltmp244:
	.loc	5 982 3 prologue_end            @ ../Drivers/STM32F4xx_HAL_Driver/Src/stm32f4xx_hal_rcc.c:982:3
	ldr	r1, [sp]
	movs	r0, #15
	.loc	5 982 37 is_stmt 0              @ ../Drivers/STM32F4xx_HAL_Driver/Src/stm32f4xx_hal_rcc.c:982:37
	str	r0, [r1]
	movw	r0, #14336
	movt	r0, #16386
.Ltmp245:
	.loc	5 985 70 is_stmt 1              @ ../Drivers/STM32F4xx_HAL_Driver/Src/stm32f4xx_hal_rcc.c:985:70
	ldr	r0, [r0]
.Ltmp246:
	.loc	5 985 7 is_stmt 0               @ ../Drivers/STM32F4xx_HAL_Driver/Src/stm32f4xx_hal_rcc.c:985:7
	lsls	r0, r0, #13
	cmp	r0, #0
	bpl	.LBB10_2
	b	.LBB10_1
.LBB10_1:
.Ltmp247:
	.loc	5 987 5 is_stmt 1               @ ../Drivers/STM32F4xx_HAL_Driver/Src/stm32f4xx_hal_rcc.c:987:5
	ldr	r1, [sp]
	mov.w	r0, #327680
	.loc	5 987 33 is_stmt 0              @ ../Drivers/STM32F4xx_HAL_Driver/Src/stm32f4xx_hal_rcc.c:987:33
	str	r0, [r1, #4]
	.loc	5 988 3 is_stmt 1               @ ../Drivers/STM32F4xx_HAL_Driver/Src/stm32f4xx_hal_rcc.c:988:3
	b	.LBB10_6
.Ltmp248:
.LBB10_2:
	.loc	5 0 3 is_stmt 0                 @ ../Drivers/STM32F4xx_HAL_Driver/Src/stm32f4xx_hal_rcc.c:0:3
	movw	r0, #14336
	movt	r0, #16386
.Ltmp249:
	.loc	5 989 75 is_stmt 1              @ ../Drivers/STM32F4xx_HAL_Driver/Src/stm32f4xx_hal_rcc.c:989:75
	ldr	r0, [r0]
.Ltmp250:
	.loc	5 989 12 is_stmt 0              @ ../Drivers/STM32F4xx_HAL_Driver/Src/stm32f4xx_hal_rcc.c:989:12
	lsls	r0, r0, #15
	cmp	r0, #0
	bpl	.LBB10_4
	b	.LBB10_3
.LBB10_3:
.Ltmp251:
	.loc	5 991 5 is_stmt 1               @ ../Drivers/STM32F4xx_HAL_Driver/Src/stm32f4xx_hal_rcc.c:991:5
	ldr	r1, [sp]
	mov.w	r0, #65536
	.loc	5 991 33 is_stmt 0              @ ../Drivers/STM32F4xx_HAL_Driver/Src/stm32f4xx_hal_rcc.c:991:33
	str	r0, [r1, #4]
	.loc	5 992 3 is_stmt 1               @ ../Drivers/STM32F4xx_HAL_Driver/Src/stm32f4xx_hal_rcc.c:992:3
	b	.LBB10_5
.Ltmp252:
.LBB10_4:
	.loc	5 995 5                         @ ../Drivers/STM32F4xx_HAL_Driver/Src/stm32f4xx_hal_rcc.c:995:5
	ldr	r1, [sp]
	movs	r0, #0
	.loc	5 995 33 is_stmt 0              @ ../Drivers/STM32F4xx_HAL_Driver/Src/stm32f4xx_hal_rcc.c:995:33
	str	r0, [r1, #4]
	b	.LBB10_5
.Ltmp253:
.LBB10_5:
	.loc	5 0 33                          @ ../Drivers/STM32F4xx_HAL_Driver/Src/stm32f4xx_hal_rcc.c:0:33
	b	.LBB10_6
.LBB10_6:
	movw	r0, #14336
	movt	r0, #16386
.Ltmp254:
	.loc	5 999 70 is_stmt 1              @ ../Drivers/STM32F4xx_HAL_Driver/Src/stm32f4xx_hal_rcc.c:999:70
	ldr	r0, [r0]
.Ltmp255:
	.loc	5 999 7 is_stmt 0               @ ../Drivers/STM32F4xx_HAL_Driver/Src/stm32f4xx_hal_rcc.c:999:7
	lsls	r0, r0, #31
	cbz	r0, .LBB10_8
	b	.LBB10_7
.LBB10_7:
.Ltmp256:
	.loc	5 1001 5 is_stmt 1              @ ../Drivers/STM32F4xx_HAL_Driver/Src/stm32f4xx_hal_rcc.c:1001:5
	ldr	r1, [sp]
	movs	r0, #1
	.loc	5 1001 33 is_stmt 0             @ ../Drivers/STM32F4xx_HAL_Driver/Src/stm32f4xx_hal_rcc.c:1001:33
	str	r0, [r1, #12]
	.loc	5 1002 3 is_stmt 1              @ ../Drivers/STM32F4xx_HAL_Driver/Src/stm32f4xx_hal_rcc.c:1002:3
	b	.LBB10_9
.Ltmp257:
.LBB10_8:
	.loc	5 1005 5                        @ ../Drivers/STM32F4xx_HAL_Driver/Src/stm32f4xx_hal_rcc.c:1005:5
	ldr	r1, [sp]
	movs	r0, #0
	.loc	5 1005 33 is_stmt 0             @ ../Drivers/STM32F4xx_HAL_Driver/Src/stm32f4xx_hal_rcc.c:1005:33
	str	r0, [r1, #12]
	b	.LBB10_9
.Ltmp258:
.LBB10_9:
	.loc	5 0 33                          @ ../Drivers/STM32F4xx_HAL_Driver/Src/stm32f4xx_hal_rcc.c:0:33
	movw	r0, #14336
	movt	r0, #16386
	.loc	5 1008 118 is_stmt 1            @ ../Drivers/STM32F4xx_HAL_Driver/Src/stm32f4xx_hal_rcc.c:1008:118
	ldr	r0, [r0]
	.loc	5 1008 121 is_stmt 0            @ ../Drivers/STM32F4xx_HAL_Driver/Src/stm32f4xx_hal_rcc.c:1008:121
	uxtb	r0, r0
	.loc	5 1008 141                      @ ../Drivers/STM32F4xx_HAL_Driver/Src/stm32f4xx_hal_rcc.c:1008:141
	lsrs	r0, r0, #3
	.loc	5 1008 3                        @ ../Drivers/STM32F4xx_HAL_Driver/Src/stm32f4xx_hal_rcc.c:1008:3
	ldr	r1, [sp]
	.loc	5 1008 42                       @ ../Drivers/STM32F4xx_HAL_Driver/Src/stm32f4xx_hal_rcc.c:1008:42
	str	r0, [r1, #16]
	movw	r0, #14448
	movt	r0, #16386
.Ltmp259:
	.loc	5 1011 70 is_stmt 1             @ ../Drivers/STM32F4xx_HAL_Driver/Src/stm32f4xx_hal_rcc.c:1011:70
	ldr	r0, [r0]
.Ltmp260:
	.loc	5 1011 7 is_stmt 0              @ ../Drivers/STM32F4xx_HAL_Driver/Src/stm32f4xx_hal_rcc.c:1011:7
	lsls	r0, r0, #29
	cmp	r0, #0
	bpl	.LBB10_11
	b	.LBB10_10
.LBB10_10:
.Ltmp261:
	.loc	5 1013 5 is_stmt 1              @ ../Drivers/STM32F4xx_HAL_Driver/Src/stm32f4xx_hal_rcc.c:1013:5
	ldr	r1, [sp]
	movs	r0, #5
	.loc	5 1013 33 is_stmt 0             @ ../Drivers/STM32F4xx_HAL_Driver/Src/stm32f4xx_hal_rcc.c:1013:33
	str	r0, [r1, #8]
	.loc	5 1014 3 is_stmt 1              @ ../Drivers/STM32F4xx_HAL_Driver/Src/stm32f4xx_hal_rcc.c:1014:3
	b	.LBB10_15
.Ltmp262:
.LBB10_11:
	.loc	5 0 3 is_stmt 0                 @ ../Drivers/STM32F4xx_HAL_Driver/Src/stm32f4xx_hal_rcc.c:0:3
	movw	r0, #14448
	movt	r0, #16386
.Ltmp263:
	.loc	5 1015 75 is_stmt 1             @ ../Drivers/STM32F4xx_HAL_Driver/Src/stm32f4xx_hal_rcc.c:1015:75
	ldr	r0, [r0]
.Ltmp264:
	.loc	5 1015 12 is_stmt 0             @ ../Drivers/STM32F4xx_HAL_Driver/Src/stm32f4xx_hal_rcc.c:1015:12
	lsls	r0, r0, #31
	cbz	r0, .LBB10_13
	b	.LBB10_12
.LBB10_12:
.Ltmp265:
	.loc	5 1017 5 is_stmt 1              @ ../Drivers/STM32F4xx_HAL_Driver/Src/stm32f4xx_hal_rcc.c:1017:5
	ldr	r1, [sp]
	movs	r0, #1
	.loc	5 1017 33 is_stmt 0             @ ../Drivers/STM32F4xx_HAL_Driver/Src/stm32f4xx_hal_rcc.c:1017:33
	str	r0, [r1, #8]
	.loc	5 1018 3 is_stmt 1              @ ../Drivers/STM32F4xx_HAL_Driver/Src/stm32f4xx_hal_rcc.c:1018:3
	b	.LBB10_14
.Ltmp266:
.LBB10_13:
	.loc	5 1021 5                        @ ../Drivers/STM32F4xx_HAL_Driver/Src/stm32f4xx_hal_rcc.c:1021:5
	ldr	r1, [sp]
	movs	r0, #0
	.loc	5 1021 33 is_stmt 0             @ ../Drivers/STM32F4xx_HAL_Driver/Src/stm32f4xx_hal_rcc.c:1021:33
	str	r0, [r1, #8]
	b	.LBB10_14
.Ltmp267:
.LBB10_14:
	.loc	5 0 33                          @ ../Drivers/STM32F4xx_HAL_Driver/Src/stm32f4xx_hal_rcc.c:0:33
	b	.LBB10_15
.LBB10_15:
	movw	r0, #14452
	movt	r0, #16386
.Ltmp268:
	.loc	5 1025 70 is_stmt 1             @ ../Drivers/STM32F4xx_HAL_Driver/Src/stm32f4xx_hal_rcc.c:1025:70
	ldr	r0, [r0]
.Ltmp269:
	.loc	5 1025 7 is_stmt 0              @ ../Drivers/STM32F4xx_HAL_Driver/Src/stm32f4xx_hal_rcc.c:1025:7
	lsls	r0, r0, #31
	cbz	r0, .LBB10_17
	b	.LBB10_16
.LBB10_16:
.Ltmp270:
	.loc	5 1027 5 is_stmt 1              @ ../Drivers/STM32F4xx_HAL_Driver/Src/stm32f4xx_hal_rcc.c:1027:5
	ldr	r1, [sp]
	movs	r0, #1
	.loc	5 1027 33 is_stmt 0             @ ../Drivers/STM32F4xx_HAL_Driver/Src/stm32f4xx_hal_rcc.c:1027:33
	str	r0, [r1, #20]
	.loc	5 1028 3 is_stmt 1              @ ../Drivers/STM32F4xx_HAL_Driver/Src/stm32f4xx_hal_rcc.c:1028:3
	b	.LBB10_18
.Ltmp271:
.LBB10_17:
	.loc	5 1031 5                        @ ../Drivers/STM32F4xx_HAL_Driver/Src/stm32f4xx_hal_rcc.c:1031:5
	ldr	r1, [sp]
	movs	r0, #0
	.loc	5 1031 33 is_stmt 0             @ ../Drivers/STM32F4xx_HAL_Driver/Src/stm32f4xx_hal_rcc.c:1031:33
	str	r0, [r1, #20]
	b	.LBB10_18
.Ltmp272:
.LBB10_18:
	.loc	5 0 33                          @ ../Drivers/STM32F4xx_HAL_Driver/Src/stm32f4xx_hal_rcc.c:0:33
	movw	r0, #14336
	movt	r0, #16386
.Ltmp273:
	.loc	5 1035 70 is_stmt 1             @ ../Drivers/STM32F4xx_HAL_Driver/Src/stm32f4xx_hal_rcc.c:1035:70
	ldr	r0, [r0]
.Ltmp274:
	.loc	5 1035 7 is_stmt 0              @ ../Drivers/STM32F4xx_HAL_Driver/Src/stm32f4xx_hal_rcc.c:1035:7
	lsls	r0, r0, #7
	cmp	r0, #0
	bpl	.LBB10_20
	b	.LBB10_19
.LBB10_19:
.Ltmp275:
	.loc	5 1037 5 is_stmt 1              @ ../Drivers/STM32F4xx_HAL_Driver/Src/stm32f4xx_hal_rcc.c:1037:5
	ldr	r1, [sp]
	movs	r0, #2
	.loc	5 1037 37 is_stmt 0             @ ../Drivers/STM32F4xx_HAL_Driver/Src/stm32f4xx_hal_rcc.c:1037:37
	str	r0, [r1, #24]
	.loc	5 1038 3 is_stmt 1              @ ../Drivers/STM32F4xx_HAL_Driver/Src/stm32f4xx_hal_rcc.c:1038:3
	b	.LBB10_21
.Ltmp276:
.LBB10_20:
	.loc	5 1041 5                        @ ../Drivers/STM32F4xx_HAL_Driver/Src/stm32f4xx_hal_rcc.c:1041:5
	ldr	r1, [sp]
	movs	r0, #1
	.loc	5 1041 37 is_stmt 0             @ ../Drivers/STM32F4xx_HAL_Driver/Src/stm32f4xx_hal_rcc.c:1041:37
	str	r0, [r1, #24]
	b	.LBB10_21
.Ltmp277:
.LBB10_21:
	.loc	5 0 37                          @ ../Drivers/STM32F4xx_HAL_Driver/Src/stm32f4xx_hal_rcc.c:0:37
	movw	r0, #14340
	movt	r0, #16386
	.loc	5 1043 111 is_stmt 1            @ ../Drivers/STM32F4xx_HAL_Driver/Src/stm32f4xx_hal_rcc.c:1043:111
	ldr	r1, [r0]
	.loc	5 1043 119 is_stmt 0            @ ../Drivers/STM32F4xx_HAL_Driver/Src/stm32f4xx_hal_rcc.c:1043:119
	and	r1, r1, #4194304
	.loc	5 1043 3                        @ ../Drivers/STM32F4xx_HAL_Driver/Src/stm32f4xx_hal_rcc.c:1043:3
	ldr	r2, [sp]
	.loc	5 1043 36                       @ ../Drivers/STM32F4xx_HAL_Driver/Src/stm32f4xx_hal_rcc.c:1043:36
	str	r1, [r2, #28]
	.loc	5 1044 106 is_stmt 1            @ ../Drivers/STM32F4xx_HAL_Driver/Src/stm32f4xx_hal_rcc.c:1044:106
	ldr	r1, [r0]
	.loc	5 1044 114 is_stmt 0            @ ../Drivers/STM32F4xx_HAL_Driver/Src/stm32f4xx_hal_rcc.c:1044:114
	and	r1, r1, #63
	.loc	5 1044 3                        @ ../Drivers/STM32F4xx_HAL_Driver/Src/stm32f4xx_hal_rcc.c:1044:3
	ldr	r2, [sp]
	.loc	5 1044 31                       @ ../Drivers/STM32F4xx_HAL_Driver/Src/stm32f4xx_hal_rcc.c:1044:31
	str	r1, [r2, #32]
	.loc	5 1045 107 is_stmt 1            @ ../Drivers/STM32F4xx_HAL_Driver/Src/stm32f4xx_hal_rcc.c:1045:107
	ldr	r1, [r0]
	.loc	5 1045 136 is_stmt 0            @ ../Drivers/STM32F4xx_HAL_Driver/Src/stm32f4xx_hal_rcc.c:1045:136
	ubfx	r1, r1, #6, #9
	.loc	5 1045 3                        @ ../Drivers/STM32F4xx_HAL_Driver/Src/stm32f4xx_hal_rcc.c:1045:3
	ldr	r2, [sp]
	.loc	5 1045 31                       @ ../Drivers/STM32F4xx_HAL_Driver/Src/stm32f4xx_hal_rcc.c:1045:31
	str	r1, [r2, #36]
	.loc	5 1046 109 is_stmt 1            @ ../Drivers/STM32F4xx_HAL_Driver/Src/stm32f4xx_hal_rcc.c:1046:109
	ldr	r1, [r0]
	.loc	5 1046 117 is_stmt 0            @ ../Drivers/STM32F4xx_HAL_Driver/Src/stm32f4xx_hal_rcc.c:1046:117
	and	r2, r1, #196608
	mov.w	r1, #131072
	.loc	5 1046 157                      @ ../Drivers/STM32F4xx_HAL_Driver/Src/stm32f4xx_hal_rcc.c:1046:157
	add.w	r1, r1, r2, lsl #1
	.loc	5 1046 164                      @ ../Drivers/STM32F4xx_HAL_Driver/Src/stm32f4xx_hal_rcc.c:1046:164
	lsrs	r1, r1, #16
	.loc	5 1046 3                        @ ../Drivers/STM32F4xx_HAL_Driver/Src/stm32f4xx_hal_rcc.c:1046:3
	ldr	r2, [sp]
	.loc	5 1046 31                       @ ../Drivers/STM32F4xx_HAL_Driver/Src/stm32f4xx_hal_rcc.c:1046:31
	str	r1, [r2, #40]
	.loc	5 1047 107 is_stmt 1            @ ../Drivers/STM32F4xx_HAL_Driver/Src/stm32f4xx_hal_rcc.c:1047:107
	ldr	r0, [r0]
	.loc	5 1047 135 is_stmt 0            @ ../Drivers/STM32F4xx_HAL_Driver/Src/stm32f4xx_hal_rcc.c:1047:135
	ubfx	r0, r0, #24, #4
	.loc	5 1047 3                        @ ../Drivers/STM32F4xx_HAL_Driver/Src/stm32f4xx_hal_rcc.c:1047:3
	ldr	r1, [sp]
	.loc	5 1047 31                       @ ../Drivers/STM32F4xx_HAL_Driver/Src/stm32f4xx_hal_rcc.c:1047:31
	str	r0, [r1, #44]
	.loc	5 1048 1 is_stmt 1              @ ../Drivers/STM32F4xx_HAL_Driver/Src/stm32f4xx_hal_rcc.c:1048:1
	add	sp, #4
	bx	lr
.Ltmp278:
.Lfunc_end10:
	.size	HAL_RCC_GetOscConfig, .Lfunc_end10-HAL_RCC_GetOscConfig
	.cfi_endproc
	.cantunwind
	.fnend
                                        @ -- End function
	.section	.text.HAL_RCC_GetClockConfig,"ax",%progbits
	.hidden	HAL_RCC_GetClockConfig          @ -- Begin function HAL_RCC_GetClockConfig
	.globl	HAL_RCC_GetClockConfig
	.p2align	2
	.type	HAL_RCC_GetClockConfig,%function
	.code	16                              @ @HAL_RCC_GetClockConfig
	.thumb_func
HAL_RCC_GetClockConfig:
.Lfunc_begin11:
	.loc	5 1059 0                        @ ../Drivers/STM32F4xx_HAL_Driver/Src/stm32f4xx_hal_rcc.c:1059:0
	.fnstart
	.cfi_startproc
@ %bb.0:
	.pad	#8
	sub	sp, #8
	.cfi_def_cfa_offset 8
	str	r0, [sp, #4]
	str	r1, [sp]
.Ltmp279:
	.loc	5 1061 3 prologue_end           @ ../Drivers/STM32F4xx_HAL_Driver/Src/stm32f4xx_hal_rcc.c:1061:3
	ldr	r1, [sp, #4]
	movs	r0, #15
	.loc	5 1061 32 is_stmt 0             @ ../Drivers/STM32F4xx_HAL_Driver/Src/stm32f4xx_hal_rcc.c:1061:32
	str	r0, [r1]
	movw	r0, #14344
	movt	r0, #16386
	.loc	5 1064 110 is_stmt 1            @ ../Drivers/STM32F4xx_HAL_Driver/Src/stm32f4xx_hal_rcc.c:1064:110
	ldr	r1, [r0]
	.loc	5 1064 115 is_stmt 0            @ ../Drivers/STM32F4xx_HAL_Driver/Src/stm32f4xx_hal_rcc.c:1064:115
	and	r1, r1, #3
	.loc	5 1064 3                        @ ../Drivers/STM32F4xx_HAL_Driver/Src/stm32f4xx_hal_rcc.c:1064:3
	ldr	r2, [sp, #4]
	.loc	5 1064 35                       @ ../Drivers/STM32F4xx_HAL_Driver/Src/stm32f4xx_hal_rcc.c:1064:35
	str	r1, [r2, #4]
	.loc	5 1067 111 is_stmt 1            @ ../Drivers/STM32F4xx_HAL_Driver/Src/stm32f4xx_hal_rcc.c:1067:111
	ldr	r1, [r0]
	.loc	5 1067 116 is_stmt 0            @ ../Drivers/STM32F4xx_HAL_Driver/Src/stm32f4xx_hal_rcc.c:1067:116
	and	r1, r1, #240
	.loc	5 1067 3                        @ ../Drivers/STM32F4xx_HAL_Driver/Src/stm32f4xx_hal_rcc.c:1067:3
	ldr	r2, [sp, #4]
	.loc	5 1067 36                       @ ../Drivers/STM32F4xx_HAL_Driver/Src/stm32f4xx_hal_rcc.c:1067:36
	str	r1, [r2, #8]
	.loc	5 1070 112 is_stmt 1            @ ../Drivers/STM32F4xx_HAL_Driver/Src/stm32f4xx_hal_rcc.c:1070:112
	ldr	r1, [r0]
	.loc	5 1070 117 is_stmt 0            @ ../Drivers/STM32F4xx_HAL_Driver/Src/stm32f4xx_hal_rcc.c:1070:117
	and	r1, r1, #7168
	.loc	5 1070 3                        @ ../Drivers/STM32F4xx_HAL_Driver/Src/stm32f4xx_hal_rcc.c:1070:3
	ldr	r2, [sp, #4]
	.loc	5 1070 37                       @ ../Drivers/STM32F4xx_HAL_Driver/Src/stm32f4xx_hal_rcc.c:1070:37
	str	r1, [r2, #12]
	.loc	5 1073 113 is_stmt 1            @ ../Drivers/STM32F4xx_HAL_Driver/Src/stm32f4xx_hal_rcc.c:1073:113
	ldr	r0, [r0]
	.loc	5 1073 118 is_stmt 0            @ ../Drivers/STM32F4xx_HAL_Driver/Src/stm32f4xx_hal_rcc.c:1073:118
	and	r0, r0, #57344
	.loc	5 1073 138                      @ ../Drivers/STM32F4xx_HAL_Driver/Src/stm32f4xx_hal_rcc.c:1073:138
	lsrs	r0, r0, #3
	.loc	5 1073 3                        @ ../Drivers/STM32F4xx_HAL_Driver/Src/stm32f4xx_hal_rcc.c:1073:3
	ldr	r1, [sp, #4]
	.loc	5 1073 37                       @ ../Drivers/STM32F4xx_HAL_Driver/Src/stm32f4xx_hal_rcc.c:1073:37
	str	r0, [r1, #16]
	movw	r0, #15360
	movt	r0, #16386
	.loc	5 1076 91 is_stmt 1             @ ../Drivers/STM32F4xx_HAL_Driver/Src/stm32f4xx_hal_rcc.c:1076:91
	ldr	r0, [r0]
	.loc	5 1076 95 is_stmt 0             @ ../Drivers/STM32F4xx_HAL_Driver/Src/stm32f4xx_hal_rcc.c:1076:95
	and	r0, r0, #7
	.loc	5 1076 4                        @ ../Drivers/STM32F4xx_HAL_Driver/Src/stm32f4xx_hal_rcc.c:1076:4
	ldr	r1, [sp]
	.loc	5 1076 14                       @ ../Drivers/STM32F4xx_HAL_Driver/Src/stm32f4xx_hal_rcc.c:1076:14
	str	r0, [r1]
	.loc	5 1077 1 is_stmt 1              @ ../Drivers/STM32F4xx_HAL_Driver/Src/stm32f4xx_hal_rcc.c:1077:1
	add	sp, #8
	bx	lr
.Ltmp280:
.Lfunc_end11:
	.size	HAL_RCC_GetClockConfig, .Lfunc_end11-HAL_RCC_GetClockConfig
	.cfi_endproc
	.cantunwind
	.fnend
                                        @ -- End function
	.section	.text.HAL_RCC_NMI_IRQHandler,"ax",%progbits
	.hidden	HAL_RCC_NMI_IRQHandler          @ -- Begin function HAL_RCC_NMI_IRQHandler
	.globl	HAL_RCC_NMI_IRQHandler
	.p2align	2
	.type	HAL_RCC_NMI_IRQHandler,%function
	.code	16                              @ @HAL_RCC_NMI_IRQHandler
	.thumb_func
HAL_RCC_NMI_IRQHandler:
.Lfunc_begin12:
	.loc	5 1085 0                        @ ../Drivers/STM32F4xx_HAL_Driver/Src/stm32f4xx_hal_rcc.c:1085:0
	.fnstart
	.cfi_startproc
@ %bb.0:
	.save	{r7, lr}
	push	{r7, lr}
	.cfi_def_cfa_offset 8
	.cfi_offset lr, -4
	.cfi_offset r7, -8
	movw	r0, #14348
	movt	r0, #16386
.Ltmp281:
	.loc	5 1087 71 prologue_end          @ ../Drivers/STM32F4xx_HAL_Driver/Src/stm32f4xx_hal_rcc.c:1087:71
	ldr	r0, [r0]
.Ltmp282:
	.loc	5 1087 7 is_stmt 0              @ ../Drivers/STM32F4xx_HAL_Driver/Src/stm32f4xx_hal_rcc.c:1087:7
	lsls	r0, r0, #24
	cmp	r0, #0
	bpl	.LBB12_2
	b	.LBB12_1
.LBB12_1:
.Ltmp283:
	.loc	5 1090 5 is_stmt 1              @ ../Drivers/STM32F4xx_HAL_Driver/Src/stm32f4xx_hal_rcc.c:1090:5
	bl	HAL_RCC_CSSCallback
	movw	r1, #14350
	movt	r1, #16386
	movs	r0, #128
	.loc	5 1093 101                      @ ../Drivers/STM32F4xx_HAL_Driver/Src/stm32f4xx_hal_rcc.c:1093:101
	strb	r0, [r1]
	.loc	5 1094 3                        @ ../Drivers/STM32F4xx_HAL_Driver/Src/stm32f4xx_hal_rcc.c:1094:3
	b	.LBB12_2
.Ltmp284:
.LBB12_2:
	.loc	5 1095 1                        @ ../Drivers/STM32F4xx_HAL_Driver/Src/stm32f4xx_hal_rcc.c:1095:1
	pop	{r7, pc}
.Ltmp285:
.Lfunc_end12:
	.size	HAL_RCC_NMI_IRQHandler, .Lfunc_end12-HAL_RCC_NMI_IRQHandler
	.cfi_endproc
	.cantunwind
	.fnend
                                        @ -- End function
	.section	.text.HAL_RCC_CSSCallback,"ax",%progbits
	.hidden	HAL_RCC_CSSCallback             @ -- Begin function HAL_RCC_CSSCallback
	.weak	HAL_RCC_CSSCallback
	.p2align	2
	.type	HAL_RCC_CSSCallback,%function
	.code	16                              @ @HAL_RCC_CSSCallback
	.thumb_func
HAL_RCC_CSSCallback:
.Lfunc_begin13:
	.loc	5 1102 0                        @ ../Drivers/STM32F4xx_HAL_Driver/Src/stm32f4xx_hal_rcc.c:1102:0
	.fnstart
	.cfi_startproc
@ %bb.0:
	.loc	5 1106 1 prologue_end           @ ../Drivers/STM32F4xx_HAL_Driver/Src/stm32f4xx_hal_rcc.c:1106:1
	bx	lr
.Ltmp286:
.Lfunc_end13:
	.size	HAL_RCC_CSSCallback, .Lfunc_end13-HAL_RCC_CSSCallback
	.cfi_endproc
	.cantunwind
	.fnend
                                        @ -- End function
	.file	6 "D:\\horizon\\Horizon_Infantry (2)\\MDK-ARM" "../Drivers/STM32F4xx_HAL_Driver/Inc\\stm32f4xx_hal_rcc.h"
	.file	7 "D:\\horizon\\Horizon_Infantry (2)\\MDK-ARM" "../Drivers/STM32F4xx_HAL_Driver/Inc/stm32f4xx_hal_rcc_ex.h"
	.file	8 "D:\\horizon\\Horizon_Infantry (2)\\MDK-ARM" "../Drivers/STM32F4xx_HAL_Driver/Inc\\stm32f4xx_hal_gpio.h"
	.section	".note.GNU-stack","",%progbits
	.eabi_attribute	30, 6	@ Tag_ABI_optimization_goals
	.ARM_attribute	16, 1	@ Tag_AV_eba