	.text
	.syntax unified
	.eabi_attribute	67, "2.09"	@ Tag_conformance
	.cpu	cortex-m4
	.eabi_attribute	6, 13	@ Tag_CPU_arch
	.eabi_attribute	7, 77	@ Tag_CPU_arch_profile
	.eabi_attribute	8, 0	@ Tag_ARM_ISA_use
	.eabi_attribute	9, 2	@ Tag_THUMB_ISA_use
	.fpu	fpv4-sp-d16
	.eabi_attribute	27, 1	@ Tag_ABI_HardFP_use
	.eabi_attribute	36, 1	@ Tag_FP_HP_extension
	.eabi_attribute	34, 1	@ Tag_CPU_unaligned_access
	.eabi_attribute	17, 1	@ Tag_ABI_PCS_GOT_use
	.eabi_attribute	20, 2	@ Tag_ABI_FP_denormal
	.eabi_attribute	21, 0	@ Tag_ABI_FP_exceptions
	.eabi_attribute	23, 3	@ Tag_ABI_FP_number_model
	.eabi_attribute	24, 1	@ Tag_ABI_align_needed
	.eabi_attribute	25, 1	@ Tag_ABI_align_preserved
	.eabi_attribute	28, 1	@ Tag_ABI_VFP_args
	.eabi_attribute	38, 1	@ Tag_ABI_FP_16bit_format
	.eabi_attribute	18, 2	@ Tag_ABI_PCS_wchar_t
	.eabi_attribute	26, 1	@ Tag_ABI_enum_size
	.eabi_attribute	14, 0	@ Tag_ABI_PCS_R9_use
	.file	"stm32f4xx_hal_tim.c"
	.file	1 "D:\\horizon\\Horizon_Infantry (2)\\MDK-ARM" "../Drivers/STM32F4xx_HAL_Driver/Inc/stm32f4xx_hal_def.h"
	.file	2 "D:\\horizon\\Horizon_Infantry (2)\\MDK-ARM" "../Drivers/STM32F4xx_HAL_Driver/Inc\\stm32f4xx_hal_tim.h"
	.file	3 "D:\\horizon\\Horizon_Infantry (2)\\MDK-ARM" "../Drivers/STM32F4xx_HAL_Driver/Inc\\stm32f4xx_hal_dma.h"
	.file	4 "D:\\horizon\\Horizon_Infantry (2)\\MDK-ARM" "../Drivers/CMSIS/Device/ST/STM32F4xx/Include\\stm32f4xx.h"
	.file	5 "D:\\" "kevil\\ARM\\ARMCLANG\\Bin\\..\\include\\stdint.h"
	.file	6 "D:\\horizon\\Horizon_Infantry (2)\\MDK-ARM" "../Drivers/CMSIS/Device/ST/STM32F4xx/Include/stm32f407xx.h"
	.section	.text.HAL_TIM_Base_Init,"ax",%progbits
	.hidden	HAL_TIM_Base_Init               @ -- Begin function HAL_TIM_Base_Init
	.globl	HAL_TIM_Base_Init
	.p2align	2
	.type	HAL_TIM_Base_Init,%function
	.code	16                              @ @HAL_TIM_Base_Init
	.thumb_func
HAL_TIM_Base_Init:
.Lfunc_begin0:
	.file	7 "D:\\horizon\\Horizon_Infantry (2)\\MDK-ARM" "../Drivers/STM32F4xx_HAL_Driver/Src/stm32f4xx_hal_tim.c"
	.loc	7 267 0                         @ ../Drivers/STM32F4xx_HAL_Driver/Src/stm32f4xx_hal_tim.c:267:0
	.fnstart
	.cfi_sections .debug_frame
	.cfi_startproc
@ %bb.0:
	.save	{r7, lr}
	push	{r7, lr}
	.cfi_def_cfa_offset 8
	.cfi_offset lr, -4
	.cfi_offset r7, -8
	.pad	#8
	sub	sp, #8
	.cfi_def_cfa_offset 16
	str	r0, [sp]
.Ltmp0:
	.loc	7 269 7 prologue_end            @ ../Drivers/STM32F4xx_HAL_Driver/Src/stm32f4xx_hal_tim.c:269:7
	ldr	r0, [sp]
.Ltmp1:
	.loc	7 269 7 is_stmt 0               @ ../Drivers/STM32F4xx_HAL_Driver/Src/stm32f4xx_hal_tim.c:269:7
	cbnz	r0, .LBB0_2
	b	.LBB0_1
.LBB0_1:
	.loc	7 0 7                           @ ../Drivers/STM32F4xx_HAL_Driver/Src/stm32f4xx_hal_tim.c:0:7
	movs	r0, #1
.Ltmp2:
	.loc	7 271 5 is_stmt 1               @ ../Drivers/STM32F4xx_HAL_Driver/Src/stm32f4xx_hal_tim.c:271:5
	strb.w	r0, [sp, #7]
	b	.LBB0_9
.Ltmp3:
.LBB0_2:
	.loc	7 281 7                         @ ../Drivers/STM32F4xx_HAL_Driver/Src/stm32f4xx_hal_tim.c:281:7
	ldr	r0, [sp]
	.loc	7 281 13 is_stmt 0              @ ../Drivers/STM32F4xx_HAL_Driver/Src/stm32f4xx_hal_tim.c:281:13
	ldrb.w	r0, [r0, #61]
.Ltmp4:
	.loc	7 281 7                         @ ../Drivers/STM32F4xx_HAL_Driver/Src/stm32f4xx_hal_tim.c:281:7
	cbnz	r0, .LBB0_4
	b	.LBB0_3
.LBB0_3:
.Ltmp5:
	.loc	7 284 5 is_stmt 1               @ ../Drivers/STM32F4xx_HAL_Driver/Src/stm32f4xx_hal_tim.c:284:5
	ldr	r1, [sp]
	movs	r0, #0
	.loc	7 284 16 is_stmt 0              @ ../Drivers/STM32F4xx_HAL_Driver/Src/stm32f4xx_hal_tim.c:284:16
	strb.w	r0, [r1, #60]
	.loc	7 298 26 is_stmt 1              @ ../Drivers/STM32F4xx_HAL_Driver/Src/stm32f4xx_hal_tim.c:298:26
	ldr	r0, [sp]
	.loc	7 298 5 is_stmt 0               @ ../Drivers/STM32F4xx_HAL_Driver/Src/stm32f4xx_hal_tim.c:298:5
	bl	HAL_TIM_Base_MspInit
	.loc	7 300 3 is_stmt 1               @ ../Drivers/STM32F4xx_HAL_Driver/Src/stm32f4xx_hal_tim.c:300:3
	b	.LBB0_4
.Ltmp6:
.LBB0_4:
	.loc	7 303 3                         @ ../Drivers/STM32F4xx_HAL_Driver/Src/stm32f4xx_hal_tim.c:303:3
	ldr	r1, [sp]
	movs	r0, #2
	.loc	7 303 15 is_stmt 0              @ ../Drivers/STM32F4xx_HAL_Driver/Src/stm32f4xx_hal_tim.c:303:15
	strb.w	r0, [r1, #61]
	.loc	7 306 22 is_stmt 1              @ ../Drivers/STM32F4xx_HAL_Driver/Src/stm32f4xx_hal_tim.c:306:22
	ldr	r1, [sp]
	.loc	7 306 28 is_stmt 0              @ ../Drivers/STM32F4xx_HAL_Driver/Src/stm32f4xx_hal_tim.c:306:28
	ldr	r0, [r1], #4
	.loc	7 306 3                         @ ../Drivers/STM32F4xx_HAL_Driver/Src/stm32f4xx_hal_tim.c:306:3
	bl	TIM_Base_SetConfig
	.loc	7 309 3 is_stmt 1               @ ../Drivers/STM32F4xx_HAL_Driver/Src/stm32f4xx_hal_tim.c:309:3
	ldr	r1, [sp]
	movs	r0, #1
	.loc	7 309 23 is_stmt 0              @ ../Drivers/STM32F4xx_HAL_Driver/Src/stm32f4xx_hal_tim.c:309:23
	strb.w	r0, [r1, #70]
	.loc	7 312 3 is_stmt 1               @ ../Drivers/STM32F4xx_HAL_Driver/Src/stm32f4xx_hal_tim.c:312:3
	b	.LBB0_5
.LBB0_5:
.Ltmp7:
	.loc	7 312 9 is_stmt 0               @ ../Drivers/STM32F4xx_HAL_Driver/Src/stm32f4xx_hal_tim.c:312:9
	ldr	r1, [sp]
	movs	r0, #1
	.loc	7 312 32                        @ ../Drivers/STM32F4xx_HAL_Driver/Src/stm32f4xx_hal_tim.c:312:32
	strb.w	r0, [r1, #62]
	.loc	7 312 66                        @ ../Drivers/STM32F4xx_HAL_Driver/Src/stm32f4xx_hal_tim.c:312:66
	ldr	r1, [sp]
	.loc	7 312 89                        @ ../Drivers/STM32F4xx_HAL_Driver/Src/stm32f4xx_hal_tim.c:312:89
	strb.w	r0, [r1, #63]
	.loc	7 312 123                       @ ../Drivers/STM32F4xx_HAL_Driver/Src/stm32f4xx_hal_tim.c:312:123
	ldr	r1, [sp]
	.loc	7 312 146                       @ ../Drivers/STM32F4xx_HAL_Driver/Src/stm32f4xx_hal_tim.c:312:146
	strb.w	r0, [r1, #64]
	.loc	7 312 180                       @ ../Drivers/STM32F4xx_HAL_Driver/Src/stm32f4xx_hal_tim.c:312:180
	ldr	r1, [sp]
	.loc	7 312 203                       @ ../Drivers/STM32F4xx_HAL_Driver/Src/stm32f4xx_hal_tim.c:312:203
	strb.w	r0, [r1, #65]
	.loc	7 312 236                       @ ../Drivers/STM32F4xx_HAL_Driver/Src/stm32f4xx_hal_tim.c:312:236
	b	.LBB0_6
.Ltmp8:
.LBB0_6:
	.loc	7 313 3 is_stmt 1               @ ../Drivers/STM32F4xx_HAL_Driver/Src/stm32f4xx_hal_tim.c:313:3
	b	.LBB0_7
.LBB0_7:
.Ltmp9:
	.loc	7 313 9 is_stmt 0               @ ../Drivers/STM32F4xx_HAL_Driver/Src/stm32f4xx_hal_tim.c:313:9
	ldr	r1, [sp]
	movs	r0, #1
	.loc	7 313 33                        @ ../Drivers/STM32F4xx_HAL_Driver/Src/stm32f4xx_hal_tim.c:313:33
	strb.w	r0, [r1, #66]
	.loc	7 313 67                        @ ../Drivers/STM32F4xx_HAL_Driver/Src/stm32f4xx_hal_tim.c:313:67
	ldr	r1, [sp]
	.loc	7 313 91                        @ ../Drivers/STM32F4xx_HAL_Driver/Src/stm32f4xx_hal_tim.c:313:91
	strb.w	r0, [r1, #67]
	.loc	7 313 125                       @ ../Drivers/STM32F4xx_HAL_Driver/Src/stm32f4xx_hal_tim.c:313:125
	ldr	r1, [sp]
	.loc	7 313 149                       @ ../Drivers/STM32F4xx_HAL_Driver/Src/stm32f4xx_hal_tim.c:313:149
	strb.w	r0, [r1, #68]
	.loc	7 313 183                       @ ../Drivers/STM32F4xx_HAL_Driver/Src/stm32f4xx_hal_tim.c:313:183
	ldr	r1, [sp]
	.loc	7 313 207                       @ ../Drivers/STM32F4xx_HAL_Driver/Src/stm32f4xx_hal_tim.c:313:207
	strb.w	r0, [r1, #69]
	.loc	7 313 240                       @ ../Drivers/STM32F4xx_HAL_Driver/Src/stm32f4xx_hal_tim.c:313:240
	b	.LBB0_8
.Ltmp10:
.LBB0_8:
	.loc	7 316 3 is_stmt 1               @ ../Drivers/STM32F4xx_HAL_Driver/Src/stm32f4xx_hal_tim.c:316:3
	ldr	r1, [sp]
	movs	r0, #1
	.loc	7 316 15 is_stmt 0              @ ../Drivers/STM32F4xx_HAL_Driver/Src/stm32f4xx_hal_tim.c:316:15
	strb.w	r0, [r1, #61]
	movs	r0, #0
	.loc	7 318 3 is_stmt 1               @ ../Drivers/STM32F4xx_HAL_Driver/Src/stm32f4xx_hal_tim.c:318:3
	strb.w	r0, [sp, #7]
	b	.LBB0_9
.LBB0_9:
	.loc	7 319 1                         @ ../Drivers/STM32F4xx_HAL_Driver/Src/stm32f4xx_hal_tim.c:319:1
	ldrb.w	r0, [sp, #7]
	add	sp, #8
	pop	{r7, pc}
.Ltmp11:
.Lfunc_end0:
	.size	HAL_TIM_Base_Init, .Lfunc_end0-HAL_TIM_Base_Init
	.cfi_endproc
	.cantunwind
	.fnend
                                        @ -- End function
	.section	.text.HAL_TIM_Base_MspInit,"ax",%progbits
	.hidden	HAL_TIM_Base_MspInit            @ -- Begin function HAL_TIM_Base_MspInit
	.weak	HAL_TIM_Base_MspInit
	.p2align	2
	.type	HAL_TIM_Base_MspInit,%function
	.code	16                              @ @HAL_TIM_Base_MspInit
	.thumb_func
HAL_TIM_Base_MspInit:
.Lfunc_begin1:
	.loc	7 370 0                         @ ../Drivers/STM32F4xx_HAL_Driver/Src/stm32f4xx_hal_tim.c:370:0
	.fnstart
	.cfi_startproc
@ %bb.0:
	.pad	#4
	sub	sp, #4
	.cfi_def_cfa_offset 4
	str	r0, [sp]
.Ltmp12:
	.loc	7 377 1 prologue_end            @ ../Drivers/STM32F4xx_HAL_Driver/Src/stm32f4xx_hal_tim.c:377:1
	add	sp, #4
	bx	lr
.Ltmp13:
.Lfunc_end1:
	.size	HAL_TIM_Base_MspInit, .Lfunc_end1-HAL_TIM_Base_MspInit
	.cfi_endproc
	.cantunwind
	.fnend
                                        @ -- End function
	.section	.text.TIM_Base_SetConfig,"ax",%progbits
	.hidden	TIM_Base_SetConfig              @ -- Begin function TIM_Base_SetConfig
	.globl	TIM_Base_SetConfig
	.p2align	2
	.type	TIM_Base_SetConfig,%function
	.code	16                              @ @TIM_Base_SetConfig
	.thumb_func
TIM_Base_SetConfig:
.Lfunc_begin2:
	.loc	7 6778 0                        @ ../Drivers/STM32F4xx_HAL_Driver/Src/stm32f4xx_hal_tim.c:6778:0
	.fnstart
	.cfi_startproc
@ %bb.0:
	.pad	#12
	sub	sp, #12
	.cfi_def_cfa_offset 12
	str	r0, [sp, #8]
	str	r1, [sp, #4]
.Ltmp14:
	.loc	7 6780 12 prologue_end          @ ../Drivers/STM32F4xx_HAL_Driver/Src/stm32f4xx_hal_tim.c:6780:12
	ldr	r0, [sp, #8]
	.loc	7 6780 18 is_stmt 0             @ ../Drivers/STM32F4xx_HAL_Driver/Src/stm32f4xx_hal_tim.c:6780:18
	ldr	r0, [r0]
	.loc	7 6780 10                       @ ../Drivers/STM32F4xx_HAL_Driver/Src/stm32f4xx_hal_tim.c:6780:10
	str	r0, [sp]
.Ltmp15:
	.loc	7 6783 10 is_stmt 1             @ ../Drivers/STM32F4xx_HAL_Driver/Src/stm32f4xx_hal_tim.c:6783:10
	ldr	r0, [sp, #8]
	movs	r1, #0
	movt	r1, #16385
	.loc	7 6783 81 is_stmt 0             @ ../Drivers/STM32F4xx_HAL_Driver/Src/stm32f4xx_hal_tim.c:6783:81
	cmp	r0, r1
	beq	.LBB2_6
	b	.LBB2_1
.LBB2_1:
	.loc	7 6783 86                       @ ../Drivers/STM32F4xx_HAL_Driver/Src/stm32f4xx_hal_tim.c:6783:86
	ldr	r0, [sp, #8]
	.loc	7 6783 140                      @ ../Drivers/STM32F4xx_HAL_Driver/Src/stm32f4xx_hal_tim.c:6783:140
	cmp.w	r0, #1073741824
	beq	.LBB2_6
	b	.LBB2_2
.LBB2_2:
	.loc	7 6783 145                      @ ../Drivers/STM32F4xx_HAL_Driver/Src/stm32f4xx_hal_tim.c:6783:145
	ldr	r0, [sp, #8]
	movw	r1, #1024
	movt	r1, #16384
	.loc	7 6783 199                      @ ../Drivers/STM32F4xx_HAL_Driver/Src/stm32f4xx_hal_tim.c:6783:199
	cmp	r0, r1
	beq	.LBB2_6
	b	.LBB2_3
.LBB2_3:
	.loc	7 6783 204                      @ ../Drivers/STM32F4xx_HAL_Driver/Src/stm32f4xx_hal_tim.c:6783:204
	ldr	r0, [sp, #8]
	movw	r1, #2048
	movt	r1, #16384
	.loc	7 6783 258                      @ ../Drivers/STM32F4xx_HAL_Driver/Src/stm32f4xx_hal_tim.c:6783:258
	cmp	r0, r1
	beq	.LBB2_6
	b	.LBB2_4
.LBB2_4:
	.loc	7 6783 263                      @ ../Drivers/STM32F4xx_HAL_Driver/Src/stm32f4xx_hal_tim.c:6783:263
	ldr	r0, [sp, #8]
	movw	r1, #3072
	movt	r1, #16384
	.loc	7 6783 317                      @ ../Drivers/STM32F4xx_HAL_Driver/Src/stm32f4xx_hal_tim.c:6783:317
	cmp	r0, r1
	beq	.LBB2_6
	b	.LBB2_5
.LBB2_5:
	.loc	7 6783 322                      @ ../Drivers/STM32F4xx_HAL_Driver/Src/stm32f4xx_hal_tim.c:6783:322
	ldr	r0, [sp, #8]
	movw	r1, #1024
	movt	r1, #16385
.Ltmp16:
	.loc	7 6783 7                        @ ../Drivers/STM32F4xx_HAL_Driver/Src/stm32f4xx_hal_tim.c:6783:7
	cmp	r0, r1
	bne	.LBB2_7
	b	.LBB2_6
.LBB2_6:
.Ltmp17:
	.loc	7 6786 12 is_stmt 1             @ ../Drivers/STM32F4xx_HAL_Driver/Src/stm32f4xx_hal_tim.c:6786:12
	ldr	r0, [sp]
	bic	r0, r0, #112
	str	r0, [sp]
	.loc	7 6787 15                       @ ../Drivers/STM32F4xx_HAL_Driver/Src/stm32f4xx_hal_tim.c:6787:15
	ldr	r0, [sp, #4]
	.loc	7 6787 26 is_stmt 0             @ ../Drivers/STM32F4xx_HAL_Driver/Src/stm32f4xx_hal_tim.c:6787:26
	ldr	r1, [r0, #4]
	.loc	7 6787 12                       @ ../Drivers/STM32F4xx_HAL_Driver/Src/stm32f4xx_hal_tim.c:6787:12
	ldr	r0, [sp]
	orrs	r0, r1
	str	r0, [sp]
	.loc	7 6788 3 is_stmt 1              @ ../Drivers/STM32F4xx_HAL_Driver/Src/stm32f4xx_hal_tim.c:6788:3
	b	.LBB2_7
.Ltmp18:
.LBB2_7:
	.loc	7 6790 10                       @ ../Drivers/STM32F4xx_HAL_Driver/Src/stm32f4xx_hal_tim.c:6790:10
	ldr	r0, [sp, #8]
	movs	r1, #0
	movt	r1, #16385
	.loc	7 6790 81 is_stmt 0             @ ../Drivers/STM32F4xx_HAL_Driver/Src/stm32f4xx_hal_tim.c:6790:81
	cmp	r0, r1
	beq	.LBB2_19
	b	.LBB2_8
.LBB2_8:
	.loc	7 6790 86                       @ ../Drivers/STM32F4xx_HAL_Driver/Src/stm32f4xx_hal_tim.c:6790:86
	ldr	r0, [sp, #8]
	.loc	7 6790 140                      @ ../Drivers/STM32F4xx_HAL_Driver/Src/stm32f4xx_hal_tim.c:6790:140
	cmp.w	r0, #1073741824
	beq	.LBB2_19
	b	.LBB2_9
.LBB2_9:
	.loc	7 6790 145                      @ ../Drivers/STM32F4xx_HAL_Driver/Src/stm32f4xx_hal_tim.c:6790:145
	ldr	r0, [sp, #8]
	movw	r1, #1024
	movt	r1, #16384
	.loc	7 6790 199                      @ ../Drivers/STM32F4xx_HAL_Driver/Src/stm32f4xx_hal_tim.c:6790:199
	cmp	r0, r1
	beq	.LBB2_19
	b	.LBB2_10
.LBB2_10:
	.loc	7 6790 204                      @ ../Drivers/STM32F4xx_HAL_Driver/Src/stm32f4xx_hal_tim.c:6790:204
	ldr	r0, [sp, #8]
	movw	r1, #2048
	movt	r1, #16384
	.loc	7 6790 258                      @ ../Drivers/STM32F4xx_HAL_Driver/Src/stm32f4xx_hal_tim.c:6790:258
	cmp	r0, r1
	beq	.LBB2_19
	b	.LBB2_11
.LBB2_11:
	.loc	7 6790 263                      @ ../Drivers/STM32F4xx_HAL_Driver/Src/stm32f4xx_hal_tim.c:6790:263
	ldr	r0, [sp, #8]
	movw	r1, #3072
	movt	r1, #16384
	.loc	7 6790 317                      @ ../Drivers/STM32F4xx_HAL_Driver/Src/stm32f4xx_hal_tim.c:6790:317
	cmp	r0, r1
	beq	.LBB2_19
	b	.LBB2_12
.LBB2_12:
	.loc	7 6790 322                      @ ../Drivers/STM32F4xx_HAL_Driver/Src/stm32f4xx_hal_tim.c:6790:322
	ldr	r0, [sp, #8]
	movw	r1, #1024
	movt	r1, #16385
	.loc	7 6790 393                      @ ../Drivers/STM32F4xx_HAL_Driver/Src/stm32f4xx_hal_tim.c:6790:393
	cmp	r0, r1
	beq	.LBB2_19
	b	.LBB2_13
.LBB2_13:
	.loc	7 6790 398                      @ ../Drivers/STM32F4xx_HAL_Driver/Src/stm32f4xx_hal_tim.c:6790:398
	ldr	r0, [sp, #8]
	movw	r1, #16384
	movt	r1, #16385
	.loc	7 6790 469                      @ ../Drivers/STM32F4xx_HAL_Driver/Src/stm32f4xx_hal_tim.c:6790:469
	cmp	r0, r1
	beq	.LBB2_19
	b	.LBB2_14
.LBB2_14:
	.loc	7 6790 474                      @ ../Drivers/STM32F4xx_HAL_Driver/Src/stm32f4xx_hal_tim.c:6790:474
	ldr	r0, [sp, #8]
	movw	r1, #17408
	movt	r1, #16385
	.loc	7 6790 544                      @ ../Drivers/STM32F4xx_HAL_Driver/Src/stm32f4xx_hal_tim.c:6790:544
	cmp	r0, r1
	beq	.LBB2_19
	b	.LBB2_15
.LBB2_15:
	.loc	7 6790 549                      @ ../Drivers/STM32F4xx_HAL_Driver/Src/stm32f4xx_hal_tim.c:6790:549
	ldr	r0, [sp, #8]
	movw	r1, #18432
	movt	r1, #16385
	.loc	7 6790 619                      @ ../Drivers/STM32F4xx_HAL_Driver/Src/stm32f4xx_hal_tim.c:6790:619
	cmp	r0, r1
	beq	.LBB2_19
	b	.LBB2_16
.LBB2_16:
	.loc	7 6790 624                      @ ../Drivers/STM32F4xx_HAL_Driver/Src/stm32f4xx_hal_tim.c:6790:624
	ldr	r0, [sp, #8]
	movw	r1, #6144
	movt	r1, #16384
	.loc	7 6790 677                      @ ../Drivers/STM32F4xx_HAL_Driver/Src/stm32f4xx_hal_tim.c:6790:677
	cmp	r0, r1
	beq	.LBB2_19
	b	.LBB2_17
.LBB2_17:
	.loc	7 6790 682                      @ ../Drivers/STM32F4xx_HAL_Driver/Src/stm32f4xx_hal_tim.c:6790:682
	ldr	r0, [sp, #8]
	movw	r1, #7168
	movt	r1, #16384
	.loc	7 6790 735                      @ ../Drivers/STM32F4xx_HAL_Driver/Src/stm32f4xx_hal_tim.c:6790:735
	cmp	r0, r1
	beq	.LBB2_19
	b	.LBB2_18
.LBB2_18:
	.loc	7 6790 740                      @ ../Drivers/STM32F4xx_HAL_Driver/Src/stm32f4xx_hal_tim.c:6790:740
	ldr	r0, [sp, #8]
	movw	r1, #8192
	movt	r1, #16384
.Ltmp19:
	.loc	7 6790 7                        @ ../Drivers/STM32F4xx_HAL_Driver/Src/stm32f4xx_hal_tim.c:6790:7
	cmp	r0, r1
	bne	.LBB2_20
	b	.LBB2_19
.LBB2_19:
.Ltmp20:
	.loc	7 6793 12 is_stmt 1             @ ../Drivers/STM32F4xx_HAL_Driver/Src/stm32f4xx_hal_tim.c:6793:12
	ldr	r0, [sp]
	bic	r0, r0, #768
	str	r0, [sp]
	.loc	7 6794 25                       @ ../Drivers/STM32F4xx_HAL_Driver/Src/stm32f4xx_hal_tim.c:6794:25
	ldr	r0, [sp, #4]
	.loc	7 6794 36 is_stmt 0             @ ../Drivers/STM32F4xx_HAL_Driver/Src/stm32f4xx_hal_tim.c:6794:36
	ldr	r1, [r0, #12]
	.loc	7 6794 12                       @ ../Drivers/STM32F4xx_HAL_Driver/Src/stm32f4xx_hal_tim.c:6794:12
	ldr	r0, [sp]
	orrs	r0, r1
	str	r0, [sp]
	.loc	7 6795 3 is_stmt 1              @ ../Drivers/STM32F4xx_HAL_Driver/Src/stm32f4xx_hal_tim.c:6795:3
	b	.LBB2_20
.Ltmp21:
.LBB2_20:
	.loc	7 6798 23                       @ ../Drivers/STM32F4xx_HAL_Driver/Src/stm32f4xx_hal_tim.c:6798:23
	ldr	r0, [sp]
	.loc	7 6798 33 is_stmt 0             @ ../Drivers/STM32F4xx_HAL_Driver/Src/stm32f4xx_hal_tim.c:6798:33
	bic	r0, r0, #128
	.loc	7 6798 60                       @ ../Drivers/STM32F4xx_HAL_Driver/Src/stm32f4xx_hal_tim.c:6798:60
	ldr	r1, [sp, #4]
	.loc	7 6798 71                       @ ../Drivers/STM32F4xx_HAL_Driver/Src/stm32f4xx_hal_tim.c:6798:71
	ldr	r1, [r1, #20]
	.loc	7 6798 57                       @ ../Drivers/STM32F4xx_HAL_Driver/Src/stm32f4xx_hal_tim.c:6798:57
	orrs	r0, r1
	.loc	7 6798 15                       @ ../Drivers/STM32F4xx_HAL_Driver/Src/stm32f4xx_hal_tim.c:6798:15
	str	r0, [sp]
	.loc	7 6801 25 is_stmt 1             @ ../Drivers/STM32F4xx_HAL_Driver/Src/stm32f4xx_hal_tim.c:6801:25
	ldr	r0, [sp, #4]
	.loc	7 6801 36 is_stmt 0             @ ../Drivers/STM32F4xx_HAL_Driver/Src/stm32f4xx_hal_tim.c:6801:36
	ldr	r0, [r0, #8]
	.loc	7 6801 3                        @ ../Drivers/STM32F4xx_HAL_Driver/Src/stm32f4xx_hal_tim.c:6801:3
	ldr	r1, [sp, #8]
	.loc	7 6801 13                       @ ../Drivers/STM32F4xx_HAL_Driver/Src/stm32f4xx_hal_tim.c:6801:13
	str	r0, [r1, #44]
	.loc	7 6804 15 is_stmt 1             @ ../Drivers/STM32F4xx_HAL_Driver/Src/stm32f4xx_hal_tim.c:6804:15
	ldr	r0, [sp, #4]
	.loc	7 6804 26 is_stmt 0             @ ../Drivers/STM32F4xx_HAL_Driver/Src/stm32f4xx_hal_tim.c:6804:26
	ldr	r0, [r0]
	.loc	7 6804 3                        @ ../Drivers/STM32F4xx_HAL_Driver/Src/stm32f4xx_hal_tim.c:6804:3
	ldr	r1, [sp, #8]
	.loc	7 6804 13                       @ ../Drivers/STM32F4xx_HAL_Driver/Src/stm32f4xx_hal_tim.c:6804:13
	str	r0, [r1, #40]
.Ltmp22:
	.loc	7 6806 10 is_stmt 1             @ ../Drivers/STM32F4xx_HAL_Driver/Src/stm32f4xx_hal_tim.c:6806:10
	ldr	r0, [sp, #8]
	movs	r1, #0
	movt	r1, #16385
	.loc	7 6806 81 is_stmt 0             @ ../Drivers/STM32F4xx_HAL_Driver/Src/stm32f4xx_hal_tim.c:6806:81
	cmp	r0, r1
	beq	.LBB2_22
	b	.LBB2_21
.LBB2_21:
	.loc	7 6806 86                       @ ../Drivers/STM32F4xx_HAL_Driver/Src/stm32f4xx_hal_tim.c:6806:86
	ldr	r0, [sp, #8]
	movw	r1, #1024
	movt	r1, #16385
.Ltmp23:
	.loc	7 6806 7                        @ ../Drivers/STM32F4xx_HAL_Driver/Src/stm32f4xx_hal_tim.c:6806:7
	cmp	r0, r1
	bne	.LBB2_23
	b	.LBB2_22
.LBB2_22:
.Ltmp24:
	.loc	7 6809 17 is_stmt 1             @ ../Drivers/STM32F4xx_HAL_Driver/Src/stm32f4xx_hal_tim.c:6809:17
	ldr	r0, [sp, #4]
	.loc	7 6809 28 is_stmt 0             @ ../Drivers/STM32F4xx_HAL_Driver/Src/stm32f4xx_hal_tim.c:6809:28
	ldr	r0, [r0, #16]
	.loc	7 6809 5                        @ ../Drivers/STM32F4xx_HAL_Driver/Src/stm32f4xx_hal_tim.c:6809:5
	ldr	r1, [sp, #8]
	.loc	7 6809 15                       @ ../Drivers/STM32F4xx_HAL_Driver/Src/stm32f4xx_hal_tim.c:6809:15
	str	r0, [r1, #48]
	.loc	7 6810 3 is_stmt 1              @ ../Drivers/STM32F4xx_HAL_Driver/Src/stm32f4xx_hal_tim.c:6810:3
	b	.LBB2_23
.Ltmp25:
.LBB2_23:
	.loc	7 6814 5                        @ ../Drivers/STM32F4xx_HAL_Driver/Src/stm32f4xx_hal_tim.c:6814:5
	ldr	r1, [sp, #8]
	.loc	7 6814 16 is_stmt 0             @ ../Drivers/STM32F4xx_HAL_Driver/Src/stm32f4xx_hal_tim.c:6814:16
	ldr	r0, [r1]
	orr	r0, r0, #4
	str	r0, [r1]
	.loc	7 6818 3 is_stmt 1              @ ../Drivers/STM32F4xx_HAL_Driver/Src/stm32f4xx_hal_tim.c:6818:3
	ldr	r1, [sp, #8]
	movs	r0, #1
	.loc	7 6818 13 is_stmt 0             @ ../Drivers/STM32F4xx_HAL_Driver/Src/stm32f4xx_hal_tim.c:6818:13
	str	r0, [r1, #20]
	.loc	7 6820 15 is_stmt 1             @ ../Drivers/STM32F4xx_HAL_Driver/Src/stm32f4xx_hal_tim.c:6820:15
	ldr	r0, [sp]
	.loc	7 6820 3 is_stmt 0              @ ../Drivers/STM32F4xx_HAL_Driver/Src/stm32f4xx_hal_tim.c:6820:3
	ldr	r1, [sp, #8]
	.loc	7 6820 13                       @ ../Drivers/STM32F4xx_HAL_Driver/Src/stm32f4xx_hal_tim.c:6820:13
	str	r0, [r1]
	.loc	7 6821 1 is_stmt 1              @ ../Drivers/STM32F4xx_HAL_Driver/Src/stm32f4xx_hal_tim.c:6821:1
	add	sp, #12
	bx	lr
.Ltmp26:
.Lfunc_end2:
	.size	TIM_Base_SetConfig, .Lfunc_end2-TIM_Base_SetConfig
	.cfi_endproc
	.cantunwind
	.fnend
                                        @ -- End function
	.section	.text.HAL_TIM_Base_DeInit,"ax",%progbits
	.hidden	HAL_TIM_Base_DeInit             @ -- Begin function HAL_TIM_Base_DeInit
	.globl	HAL_TIM_Base_DeInit
	.p2align	2
	.type	HAL_TIM_Base_DeInit,%function
	.code	16                              @ @HAL_TIM_Base_DeInit
	.thumb_func
HAL_TIM_Base_DeInit:
.Lfunc_begin3:
	.loc	7 327 0                         @ ../Drivers/STM32F4xx_HAL_Driver/Src/stm32f4xx_hal_tim.c:327:0
	.fnstart
	.cfi_startproc
@ %bb.0:
	.save	{r7, lr}
	push	{r7, lr}
	.cfi_def_cfa_offset 8
	.cfi_offset lr, -4
	.cfi_offset r7, -8
	.pad	#8
	sub	sp, #8
	.cfi_def_cfa_offset 16
	str	r0, [sp, #4]
.Ltmp27:
	.loc	7 331 3 prologue_end            @ ../Drivers/STM32F4xx_HAL_Driver/Src/stm32f4xx_hal_tim.c:331:3
	ldr	r1, [sp, #4]
	movs	r0, #2
	.loc	7 331 15 is_stmt 0              @ ../Drivers/STM32F4xx_HAL_Driver/Src/stm32f4xx_hal_tim.c:331:15
	strb.w	r0, [r1, #61]
	.loc	7 334 3 is_stmt 1               @ ../Drivers/STM32F4xx_HAL_Driver/Src/stm32f4xx_hal_tim.c:334:3
	b	.LBB3_1
.LBB3_1:
.Ltmp28:
	.loc	7 334 14 is_stmt 0              @ ../Drivers/STM32F4xx_HAL_Driver/Src/stm32f4xx_hal_tim.c:334:14
	ldr	r0, [sp, #4]
	.loc	7 334 21                        @ ../Drivers/STM32F4xx_HAL_Driver/Src/stm32f4xx_hal_tim.c:334:21
	ldr	r0, [r0]
	.loc	7 334 31                        @ ../Drivers/STM32F4xx_HAL_Driver/Src/stm32f4xx_hal_tim.c:334:31
	ldr	r0, [r0, #32]
	movw	r1, #4369
.Ltmp29:
	.loc	7 334 12                        @ ../Drivers/STM32F4xx_HAL_Driver/Src/stm32f4xx_hal_tim.c:334:12
	tst	r0, r1
	bne	.LBB3_5
	b	.LBB3_2
.LBB3_2:
.Ltmp30:
	.loc	7 334 139                       @ ../Drivers/STM32F4xx_HAL_Driver/Src/stm32f4xx_hal_tim.c:334:139
	ldr	r0, [sp, #4]
	.loc	7 334 146                       @ ../Drivers/STM32F4xx_HAL_Driver/Src/stm32f4xx_hal_tim.c:334:146
	ldr	r0, [r0]
	.loc	7 334 156                       @ ../Drivers/STM32F4xx_HAL_Driver/Src/stm32f4xx_hal_tim.c:334:156
	ldr	r0, [r0, #32]
	movw	r1, #1092
.Ltmp31:
	.loc	7 334 137                       @ ../Drivers/STM32F4xx_HAL_Driver/Src/stm32f4xx_hal_tim.c:334:137
	tst	r0, r1
	bne	.LBB3_4
	b	.LBB3_3
.LBB3_3:
.Ltmp32:
	.loc	7 334 242                       @ ../Drivers/STM32F4xx_HAL_Driver/Src/stm32f4xx_hal_tim.c:334:242
	ldr	r0, [sp, #4]
	.loc	7 334 249                       @ ../Drivers/STM32F4xx_HAL_Driver/Src/stm32f4xx_hal_tim.c:334:249
	ldr	r1, [r0]
	.loc	7 334 263                       @ ../Drivers/STM32F4xx_HAL_Driver/Src/stm32f4xx_hal_tim.c:334:263
	ldr	r0, [r1]
	bic	r0, r0, #1
	str	r0, [r1]
	.loc	7 334 286                       @ ../Drivers/STM32F4xx_HAL_Driver/Src/stm32f4xx_hal_tim.c:334:286
	b	.LBB3_4
.Ltmp33:
.LBB3_4:
	.loc	7 334 288                       @ ../Drivers/STM32F4xx_HAL_Driver/Src/stm32f4xx_hal_tim.c:334:288
	b	.LBB3_5
.Ltmp34:
.LBB3_5:
	.loc	7 334 290                       @ ../Drivers/STM32F4xx_HAL_Driver/Src/stm32f4xx_hal_tim.c:334:290
	b	.LBB3_6
.Ltmp35:
.LBB3_6:
	.loc	7 345 26 is_stmt 1              @ ../Drivers/STM32F4xx_HAL_Driver/Src/stm32f4xx_hal_tim.c:345:26
	ldr	r0, [sp, #4]
	.loc	7 345 3 is_stmt 0               @ ../Drivers/STM32F4xx_HAL_Driver/Src/stm32f4xx_hal_tim.c:345:3
	bl	HAL_TIM_Base_MspDeInit
	.loc	7 349 3 is_stmt 1               @ ../Drivers/STM32F4xx_HAL_Driver/Src/stm32f4xx_hal_tim.c:349:3
	ldr	r1, [sp, #4]
	movs	r0, #0
	.loc	7 349 23 is_stmt 0              @ ../Drivers/STM32F4xx_HAL_Driver/Src/stm32f4xx_hal_tim.c:349:23
	strb.w	r0, [r1, #70]
	.loc	7 352 3 is_stmt 1               @ ../Drivers/STM32F4xx_HAL_Driver/Src/stm32f4xx_hal_tim.c:352:3
	b	.LBB3_7
.LBB3_7:
.Ltmp36:
	.loc	7 352 9 is_stmt 0               @ ../Drivers/STM32F4xx_HAL_Driver/Src/stm32f4xx_hal_tim.c:352:9
	ldr	r1, [sp, #4]
	movs	r0, #0
	.loc	7 352 32                        @ ../Drivers/STM32F4xx_HAL_Driver/Src/stm32f4xx_hal_tim.c:352:32
	strb.w	r0, [r1, #62]
	.loc	7 352 66                        @ ../Drivers/STM32F4xx_HAL_Driver/Src/stm32f4xx_hal_tim.c:352:66
	ldr	r1, [sp, #4]
	.loc	7 352 89                        @ ../Drivers/STM32F4xx_HAL_Driver/Src/stm32f4xx_hal_tim.c:352:89
	strb.w	r0, [r1, #63]
	.loc	7 352 123                       @ ../Drivers/STM32F4xx_HAL_Driver/Src/stm32f4xx_hal_tim.c:352:123
	ldr	r1, [sp, #4]
	.loc	7 352 146                       @ ../Drivers/STM32F4xx_HAL_Driver/Src/stm32f4xx_hal_tim.c:352:146
	strb.w	r0, [r1, #64]
	.loc	7 352 180                       @ ../Drivers/STM32F4xx_HAL_Driver/Src/stm32f4xx_hal_tim.c:352:180
	ldr	r1, [sp, #4]
	.loc	7 352 203                       @ ../Drivers/STM32F4xx_HAL_Driver/Src/stm32f4xx_hal_tim.c:352:203
	strb.w	r0, [r1, #65]
	.loc	7 352 236                       @ ../Drivers/STM32F4xx_HAL_Driver/Src/stm32f4xx_hal_tim.c:352:236
	b	.LBB3_8
.Ltmp37:
.LBB3_8:
	.loc	7 353 3 is_stmt 1               @ ../Drivers/STM32F4xx_HAL_Driver/Src/stm32f4xx_hal_tim.c:353:3
	b	.LBB3_9
.LBB3_9:
.Ltmp38:
	.loc	7 353 9 is_stmt 0               @ ../Drivers/STM32F4xx_HAL_Driver/Src/stm32f4xx_hal_tim.c:353:9
	ldr	r1, [sp, #4]
	movs	r0, #0
	.loc	7 353 33                        @ ../Drivers/STM32F4xx_HAL_Driver/Src/stm32f4xx_hal_tim.c:353:33
	strb.w	r0, [r1, #66]
	.loc	7 353 67                        @ ../Drivers/STM32F4xx_HAL_Driver/Src/stm32f4xx_hal_tim.c:353:67
	ldr	r1, [sp, #4]
	.loc	7 353 91                        @ ../Drivers/STM32F4xx_HAL_Driver/Src/stm32f4xx_hal_tim.c:353:91
	strb.w	r0, [r1, #67]
	.loc	7 353 125                       @ ../Drivers/STM32F4xx_HAL_Driver/Src/stm32f4xx_hal_tim.c:353:125
	ldr	r1, [sp, #4]
	.loc	7 353 149                       @ ../Drivers/STM32F4xx_HAL_Driver/Src/stm32f4xx_hal_tim.c:353:149
	strb.w	r0, [r1, #68]
	.loc	7 353 183                       @ ../Drivers/STM32F4xx_HAL_Driver/Src/stm32f4xx_hal_tim.c:353:183
	ldr	r1, [sp, #4]
	.loc	7 353 207                       @ ../Drivers/STM32F4xx_HAL_Driver/Src/stm32f4xx_hal_tim.c:353:207
	strb.w	r0, [r1, #69]
	.loc	7 353 240                       @ ../Drivers/STM32F4xx_HAL_Driver/Src/stm32f4xx_hal_tim.c:353:240
	b	.LBB3_10
.Ltmp39:
.LBB3_10:
	.loc	7 356 3 is_stmt 1               @ ../Drivers/STM32F4xx_HAL_Driver/Src/stm32f4xx_hal_tim.c:356:3
	ldr	r1, [sp, #4]
	movs	r0, #0
	.loc	7 356 15 is_stmt 0              @ ../Drivers/STM32F4xx_HAL_Driver/Src/stm32f4xx_hal_tim.c:356:15
	strb.w	r0, [r1, #61]
	.loc	7 359 3 is_stmt 1               @ ../Drivers/STM32F4xx_HAL_Driver/Src/stm32f4xx_hal_tim.c:359:3
	b	.LBB3_11
.LBB3_11:
.Ltmp40:
	.loc	7 359 8 is_stmt 0               @ ../Drivers/STM32F4xx_HAL_Driver/Src/stm32f4xx_hal_tim.c:359:8
	ldr	r1, [sp, #4]
	movs	r0, #0
	.loc	7 359 20                        @ ../Drivers/STM32F4xx_HAL_Driver/Src/stm32f4xx_hal_tim.c:359:20
	strb.w	r0, [r1, #60]
	.loc	7 359 36                        @ ../Drivers/STM32F4xx_HAL_Driver/Src/stm32f4xx_hal_tim.c:359:36
	b	.LBB3_12
.Ltmp41:
.LBB3_12:
	.loc	7 0 36                          @ ../Drivers/STM32F4xx_HAL_Driver/Src/stm32f4xx_hal_tim.c:0:36
	movs	r0, #0
	.loc	7 361 3 is_stmt 1               @ ../Drivers/STM32F4xx_HAL_Driver/Src/stm32f4xx_hal_tim.c:361:3
	add	sp, #8
	pop	{r7, pc}
.Ltmp42:
.Lfunc_end3:
	.size	HAL_TIM_Base_DeInit, .Lfunc_end3-HAL_TIM_Base_DeInit
	.cfi_endproc
	.cantunwind
	.fnend
                                        @ -- End function
	.section	.text.HAL_TIM_Base_MspDeInit,"ax",%progbits
	.hidden	HAL_TIM_Base_MspDeInit          @ -- Begin function HAL_TIM_Base_MspDeInit
	.weak	HAL_TIM_Base_MspDeInit
	.p2align	2
	.type	HAL_TIM_Base_MspDeInit,%function
	.code	16                              @ @HAL_TIM_Base_MspDeInit
	.thumb_func
HAL_TIM_Base_MspDeInit:
.Lfunc_begin4:
	.loc	7 385 0                         @ ../Drivers/STM32F4xx_HAL_Driver/Src/stm32f4xx_hal_tim.c:385:0
	.fnstart
	.cfi_startproc
@ %bb.0:
	.pad	#4
	sub	sp, #4
	.cfi_def_cfa_offset 4
	str	r0, [sp]
.Ltmp43:
	.loc	7 392 1 prologue_end            @ ../Drivers/STM32F4xx_HAL_Driver/Src/stm32f4xx_hal_tim.c:392:1
	add	sp, #4
	bx	lr
.Ltmp44:
.Lfunc_end4:
	.size	HAL_TIM_Base_MspDeInit, .Lfunc_end4-HAL_TIM_Base_MspDeInit
	.cfi_endproc
	.cantunwind
	.fnend
                                        @ -- End function
	.section	.text.HAL_TIM_Base_Start,"ax",%progbits
	.hidden	HAL_TIM_Base_Start              @ -- Begin function HAL_TIM_Base_Start
	.globl	HAL_TIM_Base_Start
	.p2align	2
	.type	HAL_TIM_Base_Start,%function
	.code	16                              @ @HAL_TIM_Base_Start
	.thumb_func
HAL_TIM_Base_Start:
.Lfunc_begin5:
	.loc	7 401 0                         @ ../Drivers/STM32F4xx_HAL_Driver/Src/stm32f4xx_hal_tim.c:401:0
	.fnstart
	.cfi_startproc
@ %bb.0:
	.pad	#12
	sub	sp, #12
	.cfi_def_cfa_offset 12
	str	r0, [sp, #4]
.Ltmp45:
	.loc	7 408 7 prologue_end            @ ../Drivers/STM32F4xx_HAL_Driver/Src/stm32f4xx_hal_tim.c:408:7
	ldr	r0, [sp, #4]
	.loc	7 408 13 is_stmt 0              @ ../Drivers/STM32F4xx_HAL_Driver/Src/stm32f4xx_hal_tim.c:408:13
	ldrb.w	r0, [r0, #61]
.Ltmp46:
	.loc	7 408 7                         @ ../Drivers/STM32F4xx_HAL_Driver/Src/stm32f4xx_hal_tim.c:408:7
	cmp	r0, #1
	beq	.LBB5_2
	b	.LBB5_1
.LBB5_1:
	.loc	7 0 7                           @ ../Drivers/STM32F4xx_HAL_Driver/Src/stm32f4xx_hal_tim.c:0:7
	movs	r0, #1
.Ltmp47:
	.loc	7 410 5 is_stmt 1               @ ../Drivers/STM32F4xx_HAL_Driver/Src/stm32f4xx_hal_tim.c:410:5
	strb.w	r0, [sp, #11]
	b	.LBB5_15
.Ltmp48:
.LBB5_2:
	.loc	7 414 3                         @ ../Drivers/STM32F4xx_HAL_Driver/Src/stm32f4xx_hal_tim.c:414:3
	ldr	r1, [sp, #4]
	movs	r0, #2
	.loc	7 414 15 is_stmt 0              @ ../Drivers/STM32F4xx_HAL_Driver/Src/stm32f4xx_hal_tim.c:414:15
	strb.w	r0, [r1, #61]
.Ltmp49:
	.loc	7 417 10 is_stmt 1              @ ../Drivers/STM32F4xx_HAL_Driver/Src/stm32f4xx_hal_tim.c:417:10
	ldr	r0, [sp, #4]
	.loc	7 417 16 is_stmt 0              @ ../Drivers/STM32F4xx_HAL_Driver/Src/stm32f4xx_hal_tim.c:417:16
	ldr	r0, [r0]
	movs	r1, #0
	movt	r1, #16385
	.loc	7 417 91                        @ ../Drivers/STM32F4xx_HAL_Driver/Src/stm32f4xx_hal_tim.c:417:91
	cmp	r0, r1
	beq	.LBB5_10
	b	.LBB5_3
.LBB5_3:
	.loc	7 417 96                        @ ../Drivers/STM32F4xx_HAL_Driver/Src/stm32f4xx_hal_tim.c:417:96
	ldr	r0, [sp, #4]
	.loc	7 417 102                       @ ../Drivers/STM32F4xx_HAL_Driver/Src/stm32f4xx_hal_tim.c:417:102
	ldr	r0, [r0]
	.loc	7 417 160                       @ ../Drivers/STM32F4xx_HAL_Driver/Src/stm32f4xx_hal_tim.c:417:160
	cmp.w	r0, #1073741824
	beq	.LBB5_10
	b	.LBB5_4
.LBB5_4:
	.loc	7 417 165                       @ ../Drivers/STM32F4xx_HAL_Driver/Src/stm32f4xx_hal_tim.c:417:165
	ldr	r0, [sp, #4]
	.loc	7 417 171                       @ ../Drivers/STM32F4xx_HAL_Driver/Src/stm32f4xx_hal_tim.c:417:171
	ldr	r0, [r0]
	movw	r1, #1024
	movt	r1, #16384
	.loc	7 417 229                       @ ../Drivers/STM32F4xx_HAL_Driver/Src/stm32f4xx_hal_tim.c:417:229
	cmp	r0, r1
	beq	.LBB5_10
	b	.LBB5_5
.LBB5_5:
	.loc	7 417 234                       @ ../Drivers/STM32F4xx_HAL_Driver/Src/stm32f4xx_hal_tim.c:417:234
	ldr	r0, [sp, #4]
	.loc	7 417 240                       @ ../Drivers/STM32F4xx_HAL_Driver/Src/stm32f4xx_hal_tim.c:417:240
	ldr	r0, [r0]
	movw	r1, #2048
	movt	r1, #16384
	.loc	7 417 298                       @ ../Drivers/STM32F4xx_HAL_Driver/Src/stm32f4xx_hal_tim.c:417:298
	cmp	r0, r1
	beq	.LBB5_10
	b	.LBB5_6
.LBB5_6:
	.loc	7 417 303                       @ ../Drivers/STM32F4xx_HAL_Driver/Src/stm32f4xx_hal_tim.c:417:303
	ldr	r0, [sp, #4]
	.loc	7 417 309                       @ ../Drivers/STM32F4xx_HAL_Driver/Src/stm32f4xx_hal_tim.c:417:309
	ldr	r0, [r0]
	movw	r1, #3072
	movt	r1, #16384
	.loc	7 417 367                       @ ../Drivers/STM32F4xx_HAL_Driver/Src/stm32f4xx_hal_tim.c:417:367
	cmp	r0, r1
	beq	.LBB5_10
	b	.LBB5_7
.LBB5_7:
	.loc	7 417 372                       @ ../Drivers/STM32F4xx_HAL_Driver/Src/stm32f4xx_hal_tim.c:417:372
	ldr	r0, [sp, #4]
	.loc	7 417 378                       @ ../Drivers/STM32F4xx_HAL_Driver/Src/stm32f4xx_hal_tim.c:417:378
	ldr	r0, [r0]
	movw	r1, #1024
	movt	r1, #16385
	.loc	7 417 453                       @ ../Drivers/STM32F4xx_HAL_Driver/Src/stm32f4xx_hal_tim.c:417:453
	cmp	r0, r1
	beq	.LBB5_10
	b	.LBB5_8
.LBB5_8:
	.loc	7 417 458                       @ ../Drivers/STM32F4xx_HAL_Driver/Src/stm32f4xx_hal_tim.c:417:458
	ldr	r0, [sp, #4]
	.loc	7 417 464                       @ ../Drivers/STM32F4xx_HAL_Driver/Src/stm32f4xx_hal_tim.c:417:464
	ldr	r0, [r0]
	movw	r1, #16384
	movt	r1, #16385
	.loc	7 417 539                       @ ../Drivers/STM32F4xx_HAL_Driver/Src/stm32f4xx_hal_tim.c:417:539
	cmp	r0, r1
	beq	.LBB5_10
	b	.LBB5_9
.LBB5_9:
	.loc	7 417 544                       @ ../Drivers/STM32F4xx_HAL_Driver/Src/stm32f4xx_hal_tim.c:417:544
	ldr	r0, [sp, #4]
	.loc	7 417 550                       @ ../Drivers/STM32F4xx_HAL_Driver/Src/stm32f4xx_hal_tim.c:417:550
	ldr	r0, [r0]
	movw	r1, #6144
	movt	r1, #16384
.Ltmp50:
	.loc	7 417 7                         @ ../Drivers/STM32F4xx_HAL_Driver/Src/stm32f4xx_hal_tim.c:417:7
	cmp	r0, r1
	bne	.LBB5_13
	b	.LBB5_10
.LBB5_10:
.Ltmp51:
	.loc	7 419 15 is_stmt 1              @ ../Drivers/STM32F4xx_HAL_Driver/Src/stm32f4xx_hal_tim.c:419:15
	ldr	r0, [sp, #4]
	.loc	7 419 21 is_stmt 0              @ ../Drivers/STM32F4xx_HAL_Driver/Src/stm32f4xx_hal_tim.c:419:21
	ldr	r0, [r0]
	.loc	7 419 31                        @ ../Drivers/STM32F4xx_HAL_Driver/Src/stm32f4xx_hal_tim.c:419:31
	ldr	r0, [r0, #8]
	.loc	7 419 36                        @ ../Drivers/STM32F4xx_HAL_Driver/Src/stm32f4xx_hal_tim.c:419:36
	and	r0, r0, #7
	.loc	7 419 13                        @ ../Drivers/STM32F4xx_HAL_Driver/Src/stm32f4xx_hal_tim.c:419:13
	str	r0, [sp]
.Ltmp52:
	.loc	7 420 12 is_stmt 1              @ ../Drivers/STM32F4xx_HAL_Driver/Src/stm32f4xx_hal_tim.c:420:12
	ldr	r0, [sp]
.Ltmp53:
	.loc	7 420 9 is_stmt 0               @ ../Drivers/STM32F4xx_HAL_Driver/Src/stm32f4xx_hal_tim.c:420:9
	cmp	r0, #6
	beq	.LBB5_12
	b	.LBB5_11
.LBB5_11:
.Ltmp54:
	.loc	7 422 9 is_stmt 1               @ ../Drivers/STM32F4xx_HAL_Driver/Src/stm32f4xx_hal_tim.c:422:9
	ldr	r0, [sp, #4]
	.loc	7 422 16 is_stmt 0              @ ../Drivers/STM32F4xx_HAL_Driver/Src/stm32f4xx_hal_tim.c:422:16
	ldr	r1, [r0]
	.loc	7 422 29                        @ ../Drivers/STM32F4xx_HAL_Driver/Src/stm32f4xx_hal_tim.c:422:29
	ldr	r0, [r1]
	orr	r0, r0, #1
	str	r0, [r1]
	.loc	7 423 5 is_stmt 1               @ ../Drivers/STM32F4xx_HAL_Driver/Src/stm32f4xx_hal_tim.c:423:5
	b	.LBB5_12
.Ltmp55:
.LBB5_12:
	.loc	7 424 3                         @ ../Drivers/STM32F4xx_HAL_Driver/Src/stm32f4xx_hal_tim.c:424:3
	b	.LBB5_14
.Ltmp56:
.LBB5_13:
	.loc	7 427 7                         @ ../Drivers/STM32F4xx_HAL_Driver/Src/stm32f4xx_hal_tim.c:427:7
	ldr	r0, [sp, #4]
	.loc	7 427 14 is_stmt 0              @ ../Drivers/STM32F4xx_HAL_Driver/Src/stm32f4xx_hal_tim.c:427:14
	ldr	r1, [r0]
	.loc	7 427 27                        @ ../Drivers/STM32F4xx_HAL_Driver/Src/stm32f4xx_hal_tim.c:427:27
	ldr	r0, [r1]
	orr	r0, r0, #1
	str	r0, [r1]
	b	.LBB5_14
.Ltmp57:
.LBB5_14:
	.loc	7 0 27                          @ ../Drivers/STM32F4xx_HAL_Driver/Src/stm32f4xx_hal_tim.c:0:27
	movs	r0, #0
	.loc	7 431 3 is_stmt 1               @ ../Drivers/STM32F4xx_HAL_Driver/Src/stm32f4xx_hal_tim.c:431:3
	strb.w	r0, [sp, #11]
	b	.LBB5_15
.LBB5_15:
	.loc	7 432 1                         @ ../Drivers/STM32F4xx_HAL_Driver/Src/stm32f4xx_hal_tim.c:432:1
	ldrb.w	r0, [sp, #11]
	add	sp, #12
	bx	lr
.Ltmp58:
.Lfunc_end5:
	.size	HAL_TIM_Base_Start, .Lfunc_end5-HAL_TIM_Base_Start
	.cfi_endproc
	.cantunwind
	.fnend
                                        @ -- End function
	.section	.text.HAL_TIM_Base_Stop,"ax",%progbits
	.hidden	HAL_TIM_Base_Stop               @ -- Begin function HAL_TIM_Base_Stop
	.globl	HAL_TIM_Base_Stop
	.p2align	2
	.type	HAL_TIM_Base_Stop,%function
	.code	16                              @ @HAL_TIM_Base_Stop
	.thumb_func
HAL_TIM_Base_Stop:
.Lfunc_begin6:
	.loc	7 440 0                         @ ../Drivers/STM32F4xx_HAL_Driver/Src/stm32f4xx_hal_tim.c:440:0
	.fnstart
	.cfi_startproc
@ %bb.0:
	.pad	#4
	sub	sp, #4
	.cfi_def_cfa_offset 4
	str	r0, [sp]
.Ltmp59:
	.loc	7 445 3 prologue_end            @ ../Drivers/STM32F4xx_HAL_Driver/Src/stm32f4xx_hal_tim.c:445:3
	b	.LBB6_1
.LBB6_1:
.Ltmp60:
	.loc	7 445 14 is_stmt 0              @ ../Drivers/STM32F4xx_HAL_Driver/Src/stm32f4xx_hal_tim.c:445:14
	ldr	r0, [sp]
	.loc	7 445 21                        @ ../Drivers/STM32F4xx_HAL_Driver/Src/stm32f4xx_hal_tim.c:445:21
	ldr	r0, [r0]
	.loc	7 445 31                        @ ../Drivers/STM32F4xx_HAL_Driver/Src/stm32f4xx_hal_tim.c:445:31
	ldr	r0, [r0, #32]
	movw	r1, #4369
.Ltmp61:
	.loc	7 445 12                        @ ../Drivers/STM32F4xx_HAL_Driver/Src/stm32f4xx_hal_tim.c:445:12
	tst	r0, r1
	bne	.LBB6_5
	b	.LBB6_2
.LBB6_2:
.Ltmp62:
	.loc	7 445 139                       @ ../Drivers/STM32F4xx_HAL_Driver/Src/stm32f4xx_hal_tim.c:445:139
	ldr	r0, [sp]
	.loc	7 445 146                       @ ../Drivers/STM32F4xx_HAL_Driver/Src/stm32f4xx_hal_tim.c:445:146
	ldr	r0, [r0]
	.loc	7 445 156                       @ ../Drivers/STM32F4xx_HAL_Driver/Src/stm32f4xx_hal_tim.c:445:156
	ldr	r0, [r0, #32]
	movw	r1, #1092
.Ltmp63:
	.loc	7 445 137                       @ ../Drivers/STM32F4xx_HAL_Driver/Src/stm32f4xx_hal_tim.c:445:137
	tst	r0, r1
	bne	.LBB6_4
	b	.LBB6_3
.LBB6_3:
.Ltmp64:
	.loc	7 445 242                       @ ../Drivers/STM32F4xx_HAL_Driver/Src/stm32f4xx_hal_tim.c:445:242
	ldr	r0, [sp]
	.loc	7 445 249                       @ ../Drivers/STM32F4xx_HAL_Driver/Src/stm32f4xx_hal_tim.c:445:249
	ldr	r1, [r0]
	.loc	7 445 263                       @ ../Drivers/STM32F4xx_HAL_Driver/Src/stm32f4xx_hal_tim.c:445:263
	ldr	r0, [r1]
	bic	r0, r0, #1
	str	r0, [r1]
	.loc	7 445 286                       @ ../Drivers/STM32F4xx_HAL_Driver/Src/stm32f4xx_hal_tim.c:445:286
	b	.LBB6_4
.Ltmp65:
.LBB6_4:
	.loc	7 445 288                       @ ../Drivers/STM32F4xx_HAL_Driver/Src/stm32f4xx_hal_tim.c:445:288
	b	.LBB6_5
.Ltmp66:
.LBB6_5:
	.loc	7 445 290                       @ ../Drivers/STM32F4xx_HAL_Driver/Src/stm32f4xx_hal_tim.c:445:290
	b	.LBB6_6
.Ltmp67:
.LBB6_6:
	.loc	7 448 3 is_stmt 1               @ ../Drivers/STM32F4xx_HAL_Driver/Src/stm32f4xx_hal_tim.c:448:3
	ldr	r1, [sp]
	movs	r0, #1
	.loc	7 448 15 is_stmt 0              @ ../Drivers/STM32F4xx_HAL_Driver/Src/stm32f4xx_hal_tim.c:448:15
	strb.w	r0, [r1, #61]
	movs	r0, #0
	.loc	7 451 3 is_stmt 1               @ ../Drivers/STM32F4xx_HAL_Driver/Src/stm32f4xx_hal_tim.c:451:3
	add	sp, #4
	bx	lr
.Ltmp68:
.Lfunc_end6:
	.size	HAL_TIM_Base_Stop, .Lfunc_end6-HAL_TIM_Base_Stop
	.cfi_endproc
	.cantunwind
	.fnend
                                        @ -- End function
	.section	.text.HAL_TIM_Base_Start_IT,"ax",%progbits
	.hidden	HAL_TIM_Base_Start_IT           @ -- Begin function HAL_TIM_Base_Start_IT
	.globl	HAL_TIM_Base_Start_IT
	.p2align	2
	.type	HAL_TIM_Base_Start_IT,%function
	.code	16                              @ @HAL_TIM_Base_Start_IT
	.thumb_func
HAL_TIM_Base_Start_IT:
.Lfunc_begin7:
	.loc	7 460 0                         @ ../Drivers/STM32F4xx_HAL_Driver/Src/stm32f4xx_hal_tim.c:460:0
	.fnstart
	.cfi_startproc
@ %bb.0:
	.pad	#12
	sub	sp, #12
	.cfi_def_cfa_offset 12
	str	r0, [sp, #4]
.Ltmp69:
	.loc	7 467 7 prologue_end            @ ../Drivers/STM32F4xx_HAL_Driver/Src/stm32f4xx_hal_tim.c:467:7
	ldr	r0, [sp, #4]
	.loc	7 467 13 is_stmt 0              @ ../Drivers/STM32F4xx_HAL_Driver/Src/stm32f4xx_hal_tim.c:467:13
	ldrb.w	r0, [r0, #61]
.Ltmp70:
	.loc	7 467 7                         @ ../Drivers/STM32F4xx_HAL_Driver/Src/stm32f4xx_hal_tim.c:467:7
	cmp	r0, #1
	beq	.LBB7_2
	b	.LBB7_1
.LBB7_1:
	.loc	7 0 7                           @ ../Drivers/STM32F4xx_HAL_Driver/Src/stm32f4xx_hal_tim.c:0:7
	movs	r0, #1
.Ltmp71:
	.loc	7 469 5 is_stmt 1               @ ../Drivers/STM32F4xx_HAL_Driver/Src/stm32f4xx_hal_tim.c:469:5
	strb.w	r0, [sp, #11]
	b	.LBB7_15
.Ltmp72:
.LBB7_2:
	.loc	7 473 3                         @ ../Drivers/STM32F4xx_HAL_Driver/Src/stm32f4xx_hal_tim.c:473:3
	ldr	r1, [sp, #4]
	movs	r0, #2
	.loc	7 473 15 is_stmt 0              @ ../Drivers/STM32F4xx_HAL_Driver/Src/stm32f4xx_hal_tim.c:473:15
	strb.w	r0, [r1, #61]
	.loc	7 476 5 is_stmt 1               @ ../Drivers/STM32F4xx_HAL_Driver/Src/stm32f4xx_hal_tim.c:476:5
	ldr	r0, [sp, #4]
	.loc	7 476 12 is_stmt 0              @ ../Drivers/STM32F4xx_HAL_Driver/Src/stm32f4xx_hal_tim.c:476:12
	ldr	r1, [r0]
	.loc	7 476 27                        @ ../Drivers/STM32F4xx_HAL_Driver/Src/stm32f4xx_hal_tim.c:476:27
	ldr	r0, [r1, #12]
	orr	r0, r0, #1
	str	r0, [r1, #12]
.Ltmp73:
	.loc	7 479 10 is_stmt 1              @ ../Drivers/STM32F4xx_HAL_Driver/Src/stm32f4xx_hal_tim.c:479:10
	ldr	r0, [sp, #4]
	.loc	7 479 16 is_stmt 0              @ ../Drivers/STM32F4xx_HAL_Driver/Src/stm32f4xx_hal_tim.c:479:16
	ldr	r0, [r0]
	movs	r1, #0
	movt	r1, #16385
	.loc	7 479 91                        @ ../Drivers/STM32F4xx_HAL_Driver/Src/stm32f4xx_hal_tim.c:479:91
	cmp	r0, r1
	beq	.LBB7_10
	b	.LBB7_3
.LBB7_3:
	.loc	7 479 96                        @ ../Drivers/STM32F4xx_HAL_Driver/Src/stm32f4xx_hal_tim.c:479:96
	ldr	r0, [sp, #4]
	.loc	7 479 102                       @ ../Drivers/STM32F4xx_HAL_Driver/Src/stm32f4xx_hal_tim.c:479:102
	ldr	r0, [r0]
	.loc	7 479 160                       @ ../Drivers/STM32F4xx_HAL_Driver/Src/stm32f4xx_hal_tim.c:479:160
	cmp.w	r0, #1073741824
	beq	.LBB7_10
	b	.LBB7_4
.LBB7_4:
	.loc	7 479 165                       @ ../Drivers/STM32F4xx_HAL_Driver/Src/stm32f4xx_hal_tim.c:479:165
	ldr	r0, [sp, #4]
	.loc	7 479 171                       @ ../Drivers/STM32F4xx_HAL_Driver/Src/stm32f4xx_hal_tim.c:479:171
	ldr	r0, [r0]
	movw	r1, #1024
	movt	r1, #16384
	.loc	7 479 229                       @ ../Drivers/STM32F4xx_HAL_Driver/Src/stm32f4xx_hal_tim.c:479:229
	cmp	r0, r1
	beq	.LBB7_10
	b	.LBB7_5
.LBB7_5:
	.loc	7 479 234                       @ ../Drivers/STM32F4xx_HAL_Driver/Src/stm32f4xx_hal_tim.c:479:234
	ldr	r0, [sp, #4]
	.loc	7 479 240                       @ ../Drivers/STM32F4xx_HAL_Driver/Src/stm32f4xx_hal_tim.c:479:240
	ldr	r0, [r0]
	movw	r1, #2048
	movt	r1, #16384
	.loc	7 479 298                       @ ../Drivers/STM32F4xx_HAL_Driver/Src/stm32f4xx_hal_tim.c:479:298
	cmp	r0, r1
	beq	.LBB7_10
	b	.LBB7_6
.LBB7_6:
	.loc	7 479 303                       @ ../Drivers/STM32F4xx_HAL_Driver/Src/stm32f4xx_hal_tim.c:479:303
	ldr	r0, [sp, #4]
	.loc	7 479 309                       @ ../Drivers/STM32F4xx_HAL_Driver/Src/stm32f4xx_hal_tim.c:479:309
	ldr	r0, [r0]
	movw	r1, #3072
	movt	r1, #16384
	.loc	7 479 367                       @ ../Drivers/STM32F4xx_HAL_Driver/Src/stm32f4xx_hal_tim.c:479:367
	cmp	r0, r1
	beq	.LBB7_10
	b	.LBB7_7
.LBB7_7:
	.loc	7 479 372                       @ ../Drivers/STM32F4xx_HAL_Driver/Src/stm32f4xx_hal_tim.c:479:372
	ldr	r0, [sp, #4]
	.loc	7 479 378                       @ ../Drivers/STM32F4xx_HAL_Driver/Src/stm32f4xx_hal_tim.c:479:378
	ldr	r0, [r0]
	movw	r1, #1024
	movt	r1, #16385
	.loc	7 479 453                       @ ../Drivers/STM32F4xx_HAL_Driver/Src/stm32f4xx_hal_tim.c:479:453
	cmp	r0, r1
	beq	.LBB7_10
	b	.LBB7_8
.LBB7_8:
	.loc	7 479 458                       @ ../Drivers/STM32F4xx_HAL_Driver/Src/stm32f4xx_hal_tim.c:479:458
	ldr	r0, [sp, #4]
	.loc	7 479 464                       @ ../Drivers/STM32F4xx_HAL_Driver/Src/stm32f4xx_hal_tim.c:479:464
	ldr	r0, [r0]
	movw	r1, #16384
	movt	r1, #16385
	.loc	7 479 539                       @ ../Drivers/STM32F4xx_HAL_Driver/Src/stm32f4xx_hal_tim.c:479:539
	cmp	r0, r1
	beq	.LBB7_10
	b	.LBB7_9
.LBB7_9:
	.loc	7 479 544                       @ ../Drivers/STM32F4xx_HAL_Driver/Src/stm32f4xx_hal_tim.c:479:544
	ldr	r0, [sp, #4]
	.loc	7 479 550                       @ ../Drivers/STM32F4xx_HAL_Driver/Src/stm32f4xx_hal_tim.c:479:550
	ldr	r0, [r0]
	movw	r1, #6144
	movt	r1, #16384
.Ltmp74:
	.loc	7 479 7                         @ ../Drivers/STM32F4xx_HAL_Driver/Src/stm32f4xx_hal_tim.c:479:7
	cmp	r0, r1
	bne	.LBB7_13
	b	.LBB7_10
.LBB7_10:
.Ltmp75:
	.loc	7 481 15 is_stmt 1              @ ../Drivers/STM32F4xx_HAL_Driver/Src/stm32f4xx_hal_tim.c:481:15
	ldr	r0, [sp, #4]
	.loc	7 481 21 is_stmt 0              @ ../Drivers/STM32F4xx_HAL_Driver/Src/stm32f4xx_hal_tim.c:481:21
	ldr	r0, [r0]
	.loc	7 481 31                        @ ../Drivers/STM32F4xx_HAL_Driver/Src/stm32f4xx_hal_tim.c:481:31
	ldr	r0, [r0, #8]
	.loc	7 481 36                        @ ../Drivers/STM32F4xx_HAL_Driver/Src/stm32f4xx_hal_tim.c:481:36
	and	r0, r0, #7
	.loc	7 481 13                        @ ../Drivers/STM32F4xx_HAL_Driver/Src/stm32f4xx_hal_tim.c:481:13
	str	r0, [sp]
.Ltmp76:
	.loc	7 482 12 is_stmt 1              @ ../Drivers/STM32F4xx_HAL_Driver/Src/stm32f4xx_hal_tim.c:482:12
	ldr	r0, [sp]
.Ltmp77:
	.loc	7 482 9 is_stmt 0               @ ../Drivers/STM32F4xx_HAL_Driver/Src/stm32f4xx_hal_tim.c:482:9
	cmp	r0, #6
	beq	.LBB7_12
	b	.LBB7_11
.LBB7_11:
.Ltmp78:
	.loc	7 484 9 is_stmt 1               @ ../Drivers/STM32F4xx_HAL_Driver/Src/stm32f4xx_hal_tim.c:484:9
	ldr	r0, [sp, #4]
	.loc	7 484 16 is_stmt 0              @ ../Drivers/STM32F4xx_HAL_Driver/Src/stm32f4xx_hal_tim.c:484:16
	ldr	r1, [r0]
	.loc	7 484 29                        @ ../Drivers/STM32F4xx_HAL_Driver/Src/stm32f4xx_hal_tim.c:484:29
	ldr	r0, [r1]
	orr	r0, r0, #1
	str	r0, [r1]
	.loc	7 485 5 is_stmt 1               @ ../Drivers/STM32F4xx_HAL_Driver/Src/stm32f4xx_hal_tim.c:485:5
	b	.LBB7_12
.Ltmp79:
.LBB7_12:
	.loc	7 486 3                         @ ../Drivers/STM32F4xx_HAL_Driver/Src/stm32f4xx_hal_tim.c:486:3
	b	.LBB7_14
.Ltmp80:
.LBB7_13:
	.loc	7 489 7                         @ ../Drivers/STM32F4xx_HAL_Driver/Src/stm32f4xx_hal_tim.c:489:7
	ldr	r0, [sp, #4]
	.loc	7 489 14 is_stmt 0              @ ../Drivers/STM32F4xx_HAL_Driver/Src/stm32f4xx_hal_tim.c:489:14
	ldr	r1, [r0]
	.loc	7 489 27                        @ ../Drivers/STM32F4xx_HAL_Driver/Src/stm32f4xx_hal_tim.c:489:27
	ldr	r0, [r1]
	orr	r0, r0, #1
	str	r0, [r1]
	b	.LBB7_14
.Ltmp81:
.LBB7_14:
	.loc	7 0 27                          @ ../Drivers/STM32F4xx_HAL_Driver/Src/stm32f4xx_hal_tim.c:0:27
	movs	r0, #0
	.loc	7 493 3 is_stmt 1               @ ../Drivers/STM32F4xx_HAL_Driver/Src/stm32f4xx_hal_tim.c:493:3
	strb.w	r0, [sp, #11]
	b	.LBB7_15
.LBB7_15:
	.loc	7 494 1                         @ ../Drivers/STM32F4xx_HAL_Driver/Src/stm32f4xx_hal_tim.c:494:1
	ldrb.w	r0, [sp, #11]
	add	sp, #12
	bx	lr
.Ltmp82:
.Lfunc_end7:
	.size	HAL_TIM_Base_Start_IT, .Lfunc_end7-HAL_TIM_Base_Start_IT
	.cfi_endproc
	.cantunwind
	.fnend
                                        @ -- End function
	.section	.text.HAL_TIM_Base_Stop_IT,"ax",%progbits
	.hidden	HAL_TIM_Base_Stop_IT            @ -- Begin function HAL_TIM_Base_Stop_IT
	.globl	HAL_TIM_Base_Stop_IT
	.p2align	2
	.type	HAL_TIM_Base_Stop_IT,%function
	.code	16                              @ @HAL_TIM_Base_Stop_IT
	.thumb_func
HAL_TIM_Base_Stop_IT:
.Lfunc_begin8:
	.loc	7 502 0                         @ ../Drivers/STM32F4xx_HAL_Driver/Src/stm32f4xx_hal_tim.c:502:0
	.fnstart
	.cfi_startproc
@ %bb.0:
	.pad	#4
	sub	sp, #4
	.cfi_def_cfa_offset 4
	str	r0, [sp]
.Ltmp83:
	.loc	7 507 5 prologue_end            @ ../Drivers/STM32F4xx_HAL_Driver/Src/stm32f4xx_hal_tim.c:507:5
	ldr	r0, [sp]
	.loc	7 507 12 is_stmt 0              @ ../Drivers/STM32F4xx_HAL_Driver/Src/stm32f4xx_hal_tim.c:507:12
	ldr	r1, [r0]
	.loc	7 507 27                        @ ../Drivers/STM32F4xx_HAL_Driver/Src/stm32f4xx_hal_tim.c:507:27
	ldr	r0, [r1, #12]
	bic	r0, r0, #1
	str	r0, [r1, #12]
	.loc	7 510 3 is_stmt 1               @ ../Drivers/STM32F4xx_HAL_Driver/Src/stm32f4xx_hal_tim.c:510:3
	b	.LBB8_1
.LBB8_1:
.Ltmp84:
	.loc	7 510 14 is_stmt 0              @ ../Drivers/STM32F4xx_HAL_Driver/Src/stm32f4xx_hal_tim.c:510:14
	ldr	r0, [sp]
	.loc	7 510 21                        @ ../Drivers/STM32F4xx_HAL_Driver/Src/stm32f4xx_hal_tim.c:510:21
	ldr	r0, [r0]
	.loc	7 510 31                        @ ../Drivers/STM32F4xx_HAL_Driver/Src/stm32f4xx_hal_tim.c:510:31
	ldr	r0, [r0, #32]
	movw	r1, #4369
.Ltmp85:
	.loc	7 510 12                        @ ../Drivers/STM32F4xx_HAL_Driver/Src/stm32f4xx_hal_tim.c:510:12
	tst	r0, r1
	bne	.LBB8_5
	b	.LBB8_2
.LBB8_2:
.Ltmp86:
	.loc	7 510 139                       @ ../Drivers/STM32F4xx_HAL_Driver/Src/stm32f4xx_hal_tim.c:510:139
	ldr	r0, [sp]
	.loc	7 510 146                       @ ../Drivers/STM32F4xx_HAL_Driver/Src/stm32f4xx_hal_tim.c:510:146
	ldr	r0, [r0]
	.loc	7 510 156                       @ ../Drivers/STM32F4xx_HAL_Driver/Src/stm32f4xx_hal_tim.c:510:156
	ldr	r0, [r0, #32]
	movw	r1, #1092
.Ltmp87:
	.loc	7 510 137                       @ ../Drivers/STM32F4xx_HAL_Driver/Src/stm32f4xx_hal_tim.c:510:137
	tst	r0, r1
	bne	.LBB8_4
	b	.LBB8_3
.LBB8_3:
.Ltmp88:
	.loc	7 510 242                       @ ../Drivers/STM32F4xx_HAL_Driver/Src/stm32f4xx_hal_tim.c:510:242
	ldr	r0, [sp]
	.loc	7 510 249                       @ ../Drivers/STM32F4xx_HAL_Driver/Src/stm32f4xx_hal_tim.c:510:249
	ldr	r1, [r0]
	.loc	7 510 263                       @ ../Drivers/STM32F4xx_HAL_Driver/Src/stm32f4xx_hal_tim.c:510:263
	ldr	r0, [r1]
	bic	r0, r0, #1
	str	r0, [r1]
	.loc	7 510 286                       @ ../Drivers/STM32F4xx_HAL_Driver/Src/stm32f4xx_hal_tim.c:510:286
	b	.LBB8_4
.Ltmp89:
.LBB8_4:
	.loc	7 510 288                       @ ../Drivers/STM32F4xx_HAL_Driver/Src/stm32f4xx_hal_tim.c:510:288
	b	.LBB8_5
.Ltmp90:
.LBB8_5:
	.loc	7 510 290                       @ ../Drivers/STM32F4xx_HAL_Driver/Src/stm32f4xx_hal_tim.c:510:290
	b	.LBB8_6
.Ltmp91:
.LBB8_6:
	.loc	7 513 3 is_stmt 1               @ ../Drivers/STM32F4xx_HAL_Driver/Src/stm32f4xx_hal_tim.c:513:3
	ldr	r1, [sp]
	movs	r0, #1
	.loc	7 513 15 is_stmt 0              @ ../Drivers/STM32F4xx_HAL_Driver/Src/stm32f4xx_hal_tim.c:513:15
	strb.w	r0, [r1, #61]
	movs	r0, #0
	.loc	7 516 3 is_stmt 1               @ ../Drivers/STM32F4xx_HAL_Driver/Src/stm32f4xx_hal_tim.c:516:3
	add	sp, #4
	bx	lr
.Ltmp92:
.Lfunc_end8:
	.size	HAL_TIM_Base_Stop_IT, .Lfunc_end8-HAL_TIM_Base_Stop_IT
	.cfi_endproc
	.cantunwind
	.fnend
                                        @ -- End function
	.section	.text.HAL_TIM_Base_Start_DMA,"ax",%progbits
	.hidden	HAL_TIM_Base_Start_DMA          @ -- Begin function HAL_TIM_Base_Start_DMA
	.globl	HAL_TIM_Base_Start_DMA
	.p2align	2
	.type	HAL_TIM_Base_Start_DMA,%function
	.code	16                              @ @HAL_TIM_Base_Start_DMA
	.thumb_func
HAL_TIM_Base_Start_DMA:
.Lfunc_begin9:
	.loc	7 527 0                         @ ../Drivers/STM32F4xx_HAL_Driver/Src/stm32f4xx_hal_tim.c:527:0
	.fnstart
	.cfi_startproc
@ %bb.0:
	.save	{r7, lr}
	push	{r7, lr}
	.cfi_def_cfa_offset 8
	.cfi_offset lr, -4
	.cfi_offset r7, -8
	.pad	#24
	sub	sp, #24
	.cfi_def_cfa_offset 32
                                        @ kill: def $r3 killed $r2
	str	r0, [sp, #16]
	str	r1, [sp, #12]
	strh.w	r2, [sp, #10]
.Ltmp93:
	.loc	7 534 7 prologue_end            @ ../Drivers/STM32F4xx_HAL_Driver/Src/stm32f4xx_hal_tim.c:534:7
	ldr	r0, [sp, #16]
	.loc	7 534 13 is_stmt 0              @ ../Drivers/STM32F4xx_HAL_Driver/Src/stm32f4xx_hal_tim.c:534:13
	ldrb.w	r0, [r0, #61]
.Ltmp94:
	.loc	7 534 7                         @ ../Drivers/STM32F4xx_HAL_Driver/Src/stm32f4xx_hal_tim.c:534:7
	cmp	r0, #2
	bne	.LBB9_2
	b	.LBB9_1
.LBB9_1:
	.loc	7 0 7                           @ ../Drivers/STM32F4xx_HAL_Driver/Src/stm32f4xx_hal_tim.c:0:7
	movs	r0, #2
.Ltmp95:
	.loc	7 536 5 is_stmt 1               @ ../Drivers/STM32F4xx_HAL_Driver/Src/stm32f4xx_hal_tim.c:536:5
	strb.w	r0, [sp, #23]
	b	.LBB9_25
.Ltmp96:
.LBB9_2:
	.loc	7 538 12                        @ ../Drivers/STM32F4xx_HAL_Driver/Src/stm32f4xx_hal_tim.c:538:12
	ldr	r0, [sp, #16]
	.loc	7 538 18 is_stmt 0              @ ../Drivers/STM32F4xx_HAL_Driver/Src/stm32f4xx_hal_tim.c:538:18
	ldrb.w	r0, [r0, #61]
.Ltmp97:
	.loc	7 538 12                        @ ../Drivers/STM32F4xx_HAL_Driver/Src/stm32f4xx_hal_tim.c:538:12
	cmp	r0, #1
	bne	.LBB9_8
	b	.LBB9_3
.LBB9_3:
.Ltmp98:
	.loc	7 540 10 is_stmt 1              @ ../Drivers/STM32F4xx_HAL_Driver/Src/stm32f4xx_hal_tim.c:540:10
	ldr	r0, [sp, #12]
	.loc	7 540 22 is_stmt 0              @ ../Drivers/STM32F4xx_HAL_Driver/Src/stm32f4xx_hal_tim.c:540:22
	cbz	r0, .LBB9_5
	b	.LBB9_4
.LBB9_4:
	.loc	7 540 26                        @ ../Drivers/STM32F4xx_HAL_Driver/Src/stm32f4xx_hal_tim.c:540:26
	ldrh.w	r0, [sp, #10]
.Ltmp99:
	.loc	7 540 9                         @ ../Drivers/STM32F4xx_HAL_Driver/Src/stm32f4xx_hal_tim.c:540:9
	cbnz	r0, .LBB9_6
	b	.LBB9_5
.LBB9_5:
	.loc	7 0 9                           @ ../Drivers/STM32F4xx_HAL_Driver/Src/stm32f4xx_hal_tim.c:0:9
	movs	r0, #1
.Ltmp100:
	.loc	7 542 7 is_stmt 1               @ ../Drivers/STM32F4xx_HAL_Driver/Src/stm32f4xx_hal_tim.c:542:7
	strb.w	r0, [sp, #23]
	b	.LBB9_25
.Ltmp101:
.LBB9_6:
	.loc	7 546 7                         @ ../Drivers/STM32F4xx_HAL_Driver/Src/stm32f4xx_hal_tim.c:546:7
	ldr	r1, [sp, #16]
	movs	r0, #2
	.loc	7 546 19 is_stmt 0              @ ../Drivers/STM32F4xx_HAL_Driver/Src/stm32f4xx_hal_tim.c:546:19
	strb.w	r0, [r1, #61]
	b	.LBB9_7
.Ltmp102:
.LBB9_7:
	.loc	7 548 3 is_stmt 1               @ ../Drivers/STM32F4xx_HAL_Driver/Src/stm32f4xx_hal_tim.c:548:3
	b	.LBB9_9
.Ltmp103:
.LBB9_8:
	.loc	7 0 3 is_stmt 0                 @ ../Drivers/STM32F4xx_HAL_Driver/Src/stm32f4xx_hal_tim.c:0:3
	movs	r0, #1
.Ltmp104:
	.loc	7 551 5 is_stmt 1               @ ../Drivers/STM32F4xx_HAL_Driver/Src/stm32f4xx_hal_tim.c:551:5
	strb.w	r0, [sp, #23]
	b	.LBB9_25
.Ltmp105:
.LBB9_9:
	.loc	7 0 5 is_stmt 0                 @ ../Drivers/STM32F4xx_HAL_Driver/Src/stm32f4xx_hal_tim.c:0:5
	b	.LBB9_10
.LBB9_10:
	.loc	7 555 3 is_stmt 1               @ ../Drivers/STM32F4xx_HAL_Driver/Src/stm32f4xx_hal_tim.c:555:3
	ldr	r0, [sp, #16]
	ldr	r1, [r0, #32]
	.loc	7 555 53 is_stmt 0              @ ../Drivers/STM32F4xx_HAL_Driver/Src/stm32f4xx_hal_tim.c:555:53
	movw	r0, :lower16:TIM_DMAPeriodElapsedCplt
	movt	r0, :upper16:TIM_DMAPeriodElapsedCplt
	str	r0, [r1, #60]
	.loc	7 556 3 is_stmt 1               @ ../Drivers/STM32F4xx_HAL_Driver/Src/stm32f4xx_hal_tim.c:556:3
	ldr	r0, [sp, #16]
	ldr	r1, [r0, #32]
	.loc	7 556 57 is_stmt 0              @ ../Drivers/STM32F4xx_HAL_Driver/Src/stm32f4xx_hal_tim.c:556:57
	movw	r0, :lower16:TIM_DMAPeriodElapsedHalfCplt
	movt	r0, :upper16:TIM_DMAPeriodElapsedHalfCplt
	str	r0, [r1, #64]
	.loc	7 559 3 is_stmt 1               @ ../Drivers/STM32F4xx_HAL_Driver/Src/stm32f4xx_hal_tim.c:559:3
	ldr	r0, [sp, #16]
	ldr	r1, [r0, #32]
	.loc	7 559 54 is_stmt 0              @ ../Drivers/STM32F4xx_HAL_Driver/Src/stm32f4xx_hal_tim.c:559:54
	movw	r0, :lower16:TIM_DMAError
	movt	r0, :upper16:TIM_DMAError
	str	r0, [r1, #76]
.Ltmp106:
	.loc	7 562 24 is_stmt 1              @ ../Drivers/STM32F4xx_HAL_Driver/Src/stm32f4xx_hal_tim.c:562:24
	ldr	r0, [sp, #16]
	.loc	7 562 91 is_stmt 0              @ ../Drivers/STM32F4xx_HAL_Driver/Src/stm32f4xx_hal_tim.c:562:91
	ldr	r2, [r0]
	.loc	7 562 24                        @ ../Drivers/STM32F4xx_HAL_Driver/Src/stm32f4xx_hal_tim.c:562:24
	ldr	r0, [r0, #32]
	.loc	7 562 67                        @ ../Drivers/STM32F4xx_HAL_Driver/Src/stm32f4xx_hal_tim.c:562:67
	ldr	r1, [sp, #12]
	.loc	7 562 101                       @ ../Drivers/STM32F4xx_HAL_Driver/Src/stm32f4xx_hal_tim.c:562:101
	adds	r2, #44
	.loc	7 563 24 is_stmt 1              @ ../Drivers/STM32F4xx_HAL_Driver/Src/stm32f4xx_hal_tim.c:563:24
	ldrh.w	r3, [sp, #10]
	.loc	7 562 7                         @ ../Drivers/STM32F4xx_HAL_Driver/Src/stm32f4xx_hal_tim.c:562:7
	bl	HAL_DMA_Start_IT
.Ltmp107:
	.loc	7 562 7 is_stmt 0               @ ../Drivers/STM32F4xx_HAL_Driver/Src/stm32f4xx_hal_tim.c:562:7
	cbz	r0, .LBB9_12
	b	.LBB9_11
.LBB9_11:
	.loc	7 0 7                           @ ../Drivers/STM32F4xx_HAL_Driver/Src/stm32f4xx_hal_tim.c:0:7
	movs	r0, #1
.Ltmp108:
	.loc	7 566 5 is_stmt 1               @ ../Drivers/STM32F4xx_HAL_Driver/Src/stm32f4xx_hal_tim.c:566:5
	strb.w	r0, [sp, #23]
	b	.LBB9_25
.Ltmp109:
.LBB9_12:
	.loc	7 570 5                         @ ../Drivers/STM32F4xx_HAL_Driver/Src/stm32f4xx_hal_tim.c:570:5
	ldr	r0, [sp, #16]
	.loc	7 570 12 is_stmt 0              @ ../Drivers/STM32F4xx_HAL_Driver/Src/stm32f4xx_hal_tim.c:570:12
	ldr	r1, [r0]
	.loc	7 570 27                        @ ../Drivers/STM32F4xx_HAL_Driver/Src/stm32f4xx_hal_tim.c:570:27
	ldr	r0, [r1, #12]
	orr	r0, r0, #256
	str	r0, [r1, #12]
.Ltmp110:
	.loc	7 573 10 is_stmt 1              @ ../Drivers/STM32F4xx_HAL_Driver/Src/stm32f4xx_hal_tim.c:573:10
	ldr	r0, [sp, #16]
	.loc	7 573 16 is_stmt 0              @ ../Drivers/STM32F4xx_HAL_Driver/Src/stm32f4xx_hal_tim.c:573:16
	ldr	r0, [r0]
	movs	r1, #0
	movt	r1, #16385
	.loc	7 573 91                        @ ../Drivers/STM32F4xx_HAL_Driver/Src/stm32f4xx_hal_tim.c:573:91
	cmp	r0, r1
	beq	.LBB9_20
	b	.LBB9_13
.LBB9_13:
	.loc	7 573 96                        @ ../Drivers/STM32F4xx_HAL_Driver/Src/stm32f4xx_hal_tim.c:573:96
	ldr	r0, [sp, #16]
	.loc	7 573 102                       @ ../Drivers/STM32F4xx_HAL_Driver/Src/stm32f4xx_hal_tim.c:573:102
	ldr	r0, [r0]
	.loc	7 573 160                       @ ../Drivers/STM32F4xx_HAL_Driver/Src/stm32f4xx_hal_tim.c:573:160
	cmp.w	r0, #1073741824
	beq	.LBB9_20
	b	.LBB9_14
.LBB9_14:
	.loc	7 573 165                       @ ../Drivers/STM32F4xx_HAL_Driver/Src/stm32f4xx_hal_tim.c:573:165
	ldr	r0, [sp, #16]
	.loc	7 573 171                       @ ../Drivers/STM32F4xx_HAL_Driver/Src/stm32f4xx_hal_tim.c:573:171
	ldr	r0, [r0]
	movw	r1, #1024
	movt	r1, #16384
	.loc	7 573 229                       @ ../Drivers/STM32F4xx_HAL_Driver/Src/stm32f4xx_hal_tim.c:573:229
	cmp	r0, r1
	beq	.LBB9_20
	b	.LBB9_15
.LBB9_15:
	.loc	7 573 234                       @ ../Drivers/STM32F4xx_HAL_Driver/Src/stm32f4xx_hal_tim.c:573:234
	ldr	r0, [sp, #16]
	.loc	7 573 240                       @ ../Drivers/STM32F4xx_HAL_Driver/Src/stm32f4xx_hal_tim.c:573:240
	ldr	r0, [r0]
	movw	r1, #2048
	movt	r1, #16384
	.loc	7 573 298                       @ ../Drivers/STM32F4xx_HAL_Driver/Src/stm32f4xx_hal_tim.c:573:298
	cmp	r0, r1
	beq	.LBB9_20
	b	.LBB9_16
.LBB9_16:
	.loc	7 573 303                       @ ../Drivers/STM32F4xx_HAL_Driver/Src/stm32f4xx_hal_tim.c:573:303
	ldr	r0, [sp, #16]
	.loc	7 573 309                       @ ../Drivers/STM32F4xx_HAL_Driver/Src/stm32f4xx_hal_tim.c:573:309
	ldr	r0, [r0]
	movw	r1, #3072
	movt	r1, #16384
	.loc	7 573 367                       @ ../Drivers/STM32F4xx_HAL_Driver/Src/stm32f4xx_hal_tim.c:573:367
	cmp	r0, r1
	beq	.LBB9_20
	b	.LBB9_17
.LBB9_17:
	.loc	7 573 372                       @ ../Drivers/STM32F4xx_HAL_Driver/Src/stm32f4xx_hal_tim.c:573:372
	ldr	r0, [sp, #16]
	.loc	7 573 378                       @ ../Drivers/STM32F4xx_HAL_Driver/Src/stm32f4xx_hal_tim.c:573:378
	ldr	r0, [r0]
	movw	r1, #1024
	movt	r1, #16385
	.loc	7 573 453                       @ ../Drivers/STM32F4xx_HAL_Driver/Src/stm32f4xx_hal_tim.c:573:453
	cmp	r0, r1
	beq	.LBB9_20
	b	.LBB9_18
.LBB9_18:
	.loc	7 573 458                       @ ../Drivers/STM32F4xx_HAL_Driver/Src/stm32f4xx_hal_tim.c:573:458
	ldr	r0, [sp, #16]
	.loc	7 573 464                       @ ../Drivers/STM32F4xx_HAL_Driver/Src/stm32f4xx_hal_tim.c:573:464
	ldr	r0, [r0]
	movw	r1, #16384
	movt	r1, #16385
	.loc	7 573 539                       @ ../Drivers/STM32F4xx_HAL_Driver/Src/stm32f4xx_hal_tim.c:573:539
	cmp	r0, r1
	beq	.LBB9_20
	b	.LBB9_19
.LBB9_19:
	.loc	7 573 544                       @ ../Drivers/STM32F4xx_HAL_Driver/Src/stm32f4xx_hal_tim.c:573:544
	ldr	r0, [sp, #16]
	.loc	7 573 550                       @ ../Drivers/STM32F4xx_HAL_Driver/Src/stm32f4xx_hal_tim.c:573:550
	ldr	r0, [r0]
	movw	r1, #6144
	movt	r1, #16384
.Ltmp111:
	.loc	7 573 7                         @ ../Drivers/STM32F4xx_HAL_Driver/Src/stm32f4xx_hal_tim.c:573:7
	cmp	r0, r1
	bne	.LBB9_23
	b	.LBB9_20
.LBB9_20:
.Ltmp112:
	.loc	7 575 15 is_stmt 1              @ ../Drivers/STM32F4xx_HAL_Driver/Src/stm32f4xx_hal_tim.c:575:15
	ldr	r0, [sp, #16]
	.loc	7 575 21 is_stmt 0              @ ../Drivers/STM32F4xx_HAL_Driver/Src/stm32f4xx_hal_tim.c:575:21
	ldr	r0, [r0]
	.loc	7 575 31                        @ ../Drivers/STM32F4xx_HAL_Driver/Src/stm32f4xx_hal_tim.c:575:31
	ldr	r0, [r0, #8]
	.loc	7 575 36                        @ ../Drivers/STM32F4xx_HAL_Driver/Src/stm32f4xx_hal_tim.c:575:36
	and	r0, r0, #7
	.loc	7 575 13                        @ ../Drivers/STM32F4xx_HAL_Driver/Src/stm32f4xx_hal_tim.c:575:13
	str	r0, [sp, #4]
.Ltmp113:
	.loc	7 576 12 is_stmt 1              @ ../Drivers/STM32F4xx_HAL_Driver/Src/stm32f4xx_hal_tim.c:576:12
	ldr	r0, [sp, #4]
.Ltmp114:
	.loc	7 576 9 is_stmt 0               @ ../Drivers/STM32F4xx_HAL_Driver/Src/stm32f4xx_hal_tim.c:576:9
	cmp	r0, #6
	beq	.LBB9_22
	b	.LBB9_21
.LBB9_21:
.Ltmp115:
	.loc	7 578 9 is_stmt 1               @ ../Drivers/STM32F4xx_HAL_Driver/Src/stm32f4xx_hal_tim.c:578:9
	ldr	r0, [sp, #16]
	.loc	7 578 16 is_stmt 0              @ ../Drivers/STM32F4xx_HAL_Driver/Src/stm32f4xx_hal_tim.c:578:16
	ldr	r1, [r0]
	.loc	7 578 29                        @ ../Drivers/STM32F4xx_HAL_Driver/Src/stm32f4xx_hal_tim.c:578:29
	ldr	r0, [r1]
	orr	r0, r0, #1
	str	r0, [r1]
	.loc	7 579 5 is_stmt 1               @ ../Drivers/STM32F4xx_HAL_Driver/Src/stm32f4xx_hal_tim.c:579:5
	b	.LBB9_22
.Ltmp116:
.LBB9_22:
	.loc	7 580 3                         @ ../Drivers/STM32F4xx_HAL_Driver/Src/stm32f4xx_hal_tim.c:580:3
	b	.LBB9_24
.Ltmp117:
.LBB9_23:
	.loc	7 583 7                         @ ../Drivers/STM32F4xx_HAL_Driver/Src/stm32f4xx_hal_tim.c:583:7
	ldr	r0, [sp, #16]
	.loc	7 583 14 is_stmt 0              @ ../Drivers/STM32F4xx_HAL_Driver/Src/stm32f4xx_hal_tim.c:583:14
	ldr	r1, [r0]
	.loc	7 583 27                        @ ../Drivers/STM32F4xx_HAL_Driver/Src/stm32f4xx_hal_tim.c:583:27
	ldr	r0, [r1]
	orr	r0, r0, #1
	str	r0, [r1]
	b	.LBB9_24
.Ltmp118:
.LBB9_24:
	.loc	7 0 27                          @ ../Drivers/STM32F4xx_HAL_Driver/Src/stm32f4xx_hal_tim.c:0:27
	movs	r0, #0
	.loc	7 587 3 is_stmt 1               @ ../Drivers/STM32F4xx_HAL_Driver/Src/stm32f4xx_hal_tim.c:587:3
	strb.w	r0, [sp, #23]
	b	.LBB9_25
.LBB9_25:
	.loc	7 588 1                         @ ../Drivers/STM32F4xx_HAL_Driver/Src/stm32f4xx_hal_tim.c:588:1
	ldrb.w	r0, [sp, #23]
	add	sp, #24
	pop	{r7, pc}
.Ltmp119:
.Lfunc_end9:
	.size	HAL_TIM_Base_Start_DMA, .Lfunc_end9-HAL_TIM_Base_Start_DMA
	.cfi_endproc
	.cantunwind
	.fnend
                                        @ -- End function
	.section	.text.TIM_DMAPeriodElapsedCplt,"ax",%progbits
	.p2align	2                               @ -- Begin function TIM_DMAPeriodElapsedCplt
	.type	TIM_DMAPeriodElapsedCplt,%function
	.code	16                              @ @TIM_DMAPeriodElapsedCplt
	.thumb_func
TIM_DMAPeriodElapsedCplt:
.Lfunc_begin10:
	.loc	7 6703 0                        @ ../Drivers/STM32F4xx_HAL_Driver/Src/stm32f4xx_hal_tim.c:6703:0
	.fnstart
	.cfi_startproc
@ %bb.0:
	.save	{r7, lr}
	push	{r7, lr}
	.cfi_def_cfa_offset 8
	.cfi_offset lr, -4
	.cfi_offset r7, -8
	.pad	#8
	sub	sp, #8
	.cfi_def_cfa_offset 16
	str	r0, [sp, #4]
.Ltmp120:
	.loc	7 6704 72 prologue_end          @ ../Drivers/STM32F4xx_HAL_Driver/Src/stm32f4xx_hal_tim.c:6704:72
	ldr	r0, [sp, #4]
	.loc	7 6704 79 is_stmt 0             @ ../Drivers/STM32F4xx_HAL_Driver/Src/stm32f4xx_hal_tim.c:6704:79
	ldr	r0, [r0, #56]
	.loc	7 6704 22                       @ ../Drivers/STM32F4xx_HAL_Driver/Src/stm32f4xx_hal_tim.c:6704:22
	str	r0, [sp]
.Ltmp121:
	.loc	7 6706 7 is_stmt 1              @ ../Drivers/STM32F4xx_HAL_Driver/Src/stm32f4xx_hal_tim.c:6706:7
	ldr	r0, [sp]
	ldr	r0, [r0, #32]
	.loc	7 6706 45 is_stmt 0             @ ../Drivers/STM32F4xx_HAL_Driver/Src/stm32f4xx_hal_tim.c:6706:45
	ldr	r0, [r0, #28]
.Ltmp122:
	.loc	7 6706 7                        @ ../Drivers/STM32F4xx_HAL_Driver/Src/stm32f4xx_hal_tim.c:6706:7
	cbnz	r0, .LBB10_2
	b	.LBB10_1
.LBB10_1:
.Ltmp123:
	.loc	7 6708 5 is_stmt 1              @ ../Drivers/STM32F4xx_HAL_Driver/Src/stm32f4xx_hal_tim.c:6708:5
	ldr	r1, [sp]
	movs	r0, #1
	.loc	7 6708 17 is_stmt 0             @ ../Drivers/STM32F4xx_HAL_Driver/Src/stm32f4xx_hal_tim.c:6708:17
	strb.w	r0, [r1, #61]
	.loc	7 6709 3 is_stmt 1              @ ../Drivers/STM32F4xx_HAL_Driver/Src/stm32f4xx_hal_tim.c:6709:3
	b	.LBB10_2
.Ltmp124:
.LBB10_2:
	.loc	7 6714 33                       @ ../Drivers/STM32F4xx_HAL_Driver/Src/stm32f4xx_hal_tim.c:6714:33
	ldr	r0, [sp]
	.loc	7 6714 3 is_stmt 0              @ ../Drivers/STM32F4xx_HAL_Driver/Src/stm32f4xx_hal_tim.c:6714:3
	bl	HAL_TIM_PeriodElapsedCallback
	.loc	7 6716 1 is_stmt 1              @ ../Drivers/STM32F4xx_HAL_Driver/Src/stm32f4xx_hal_tim.c:6716:1
	add	sp, #8
	pop	{r7, pc}
.Ltmp125:
.Lfunc_end10:
	.size	TIM_DMAPeriodElapsedCplt, .Lfunc_end10-TIM_DMAPeriodElapsedCplt
	.cfi_endproc
	.cantunwind
	.fnend
                                        @ -- End function
	.section	.text.TIM_DMAPeriodElapsedHalfCplt,"ax",%progbits
	.p2align	2                               @ -- Begin function TIM_DMAPeriodElapsedHalfCplt
	.type	TIM_DMAPeriodElapsedHalfCplt,%function
	.code	16                              @ @TIM_DMAPeriodElapsedHalfCplt
	.thumb_func
TIM_DMAPeriodElapsedHalfCplt:
.Lfunc_begin11:
	.loc	7 6724 0                        @ ../Drivers/STM32F4xx_HAL_Driver/Src/stm32f4xx_hal_tim.c:6724:0
	.fnstart
	.cfi_startproc
@ %bb.0:
	.save	{r7, lr}
	push	{r7, lr}
	.cfi_def_cfa_offset 8
	.cfi_offset lr, -4
	.cfi_offset r7, -8
	.pad	#8
	sub	sp, #8
	.cfi_def_cfa_offset 16
	str	r0, [sp, #4]
.Ltmp126:
	.loc	7 6725 72 prologue_end          @ ../Drivers/STM32F4xx_HAL_Driver/Src/stm32f4xx_hal_tim.c:6725:72
	ldr	r0, [sp, #4]
	.loc	7 6725 79 is_stmt 0             @ ../Drivers/STM32F4xx_HAL_Driver/Src/stm32f4xx_hal_tim.c:6725:79
	ldr	r0, [r0, #56]
	.loc	7 6725 22                       @ ../Drivers/STM32F4xx_HAL_Driver/Src/stm32f4xx_hal_tim.c:6725:22
	str	r0, [sp]
	.loc	7 6730 41 is_stmt 1             @ ../Drivers/STM32F4xx_HAL_Driver/Src/stm32f4xx_hal_tim.c:6730:41
	ldr	r0, [sp]
	.loc	7 6730 3 is_stmt 0              @ ../Drivers/STM32F4xx_HAL_Driver/Src/stm32f4xx_hal_tim.c:6730:3
	bl	HAL_TIM_PeriodElapsedHalfCpltCallback
	.loc	7 6732 1 is_stmt 1              @ ../Drivers/STM32F4xx_HAL_Driver/Src/stm32f4xx_hal_tim.c:6732:1
	add	sp, #8
	pop	{r7, pc}
.Ltmp127:
.Lfunc_end11:
	.size	TIM_DMAPeriodElapsedHalfCplt, .Lfunc_end11-TIM_DMAPeriodElapsedHalfCplt
	.cfi_endproc
	.cantunwind
	.fnend
                                        @ -- End function
	.section	.text.TIM_DMAError,"ax",%progbits
	.hidden	TIM_DMAError                    @ -- Begin function TIM_DMAError
	.globl	TIM_DMAError
	.p2align	2
	.type	TIM_DMAError,%function
	.code	16                              @ @TIM_DMAError
	.thumb_func
TIM_DMAError:
.Lfunc_begin12:
	.loc	7 6460 0                        @ ../Drivers/STM32F4xx_HAL_Driver/Src/stm32f4xx_hal_tim.c:6460:0
	.fnstart
	.cfi_startproc
@ %bb.0:
	.save	{r7, lr}
	push	{r7, lr}
	.cfi_def_cfa_offset 8
	.cfi_offset lr, -4
	.cfi_offset r7, -8
	.pad	#8
	sub	sp, #8
	.cfi_def_cfa_offset 16
	str	r0, [sp, #4]
.Ltmp128:
	.loc	7 6461 72 prologue_end          @ ../Drivers/STM32F4xx_HAL_Driver/Src/stm32f4xx_hal_tim.c:6461:72
	ldr	r0, [sp, #4]
	.loc	7 6461 79 is_stmt 0             @ ../Drivers/STM32F4xx_HAL_Driver/Src/stm32f4xx_hal_tim.c:6461:79
	ldr	r0, [r0, #56]
	.loc	7 6461 22                       @ ../Drivers/STM32F4xx_HAL_Driver/Src/stm32f4xx_hal_tim.c:6461:22
	str	r0, [sp]
.Ltmp129:
	.loc	7 6463 7 is_stmt 1              @ ../Drivers/STM32F4xx_HAL_Driver/Src/stm32f4xx_hal_tim.c:6463:7
	ldr	r0, [sp, #4]
	.loc	7 6463 15 is_stmt 0             @ ../Drivers/STM32F4xx_HAL_Driver/Src/stm32f4xx_hal_tim.c:6463:15
	ldr	r1, [sp]
	ldr	r1, [r1, #36]
.Ltmp130:
	.loc	7 6463 7                        @ ../Drivers/STM32F4xx_HAL_Driver/Src/stm32f4xx_hal_tim.c:6463:7
	cmp	r0, r1
	bne	.LBB12_2
	b	.LBB12_1
.LBB12_1:
.Ltmp131:
	.loc	7 6465 5 is_stmt 1              @ ../Drivers/STM32F4xx_HAL_Driver/Src/stm32f4xx_hal_tim.c:6465:5
	ldr	r1, [sp]
	movs	r0, #1
	.loc	7 6465 19 is_stmt 0             @ ../Drivers/STM32F4xx_HAL_Driver/Src/stm32f4xx_hal_tim.c:6465:19
	strb	r0, [r1, #28]
	.loc	7 6466 41 is_stmt 1             @ ../Drivers/STM32F4xx_HAL_Driver/Src/stm32f4xx_hal_tim.c:6466:41
	ldr	r1, [sp]
	.loc	7 6466 64 is_stmt 0             @ ../Drivers/STM32F4xx_HAL_Driver/Src/stm32f4xx_hal_tim.c:6466:64
	strb.w	r0, [r1, #62]
	.loc	7 6467 3 is_stmt 1              @ ../Drivers/STM32F4xx_HAL_Driver/Src/stm32f4xx_hal_tim.c:6467:3
	b	.LBB12_12
.Ltmp132:
.LBB12_2:
	.loc	7 6468 12                       @ ../Drivers/STM32F4xx_HAL_Driver/Src/stm32f4xx_hal_tim.c:6468:12
	ldr	r0, [sp, #4]
	.loc	7 6468 20 is_stmt 0             @ ../Drivers/STM32F4xx_HAL_Driver/Src/stm32f4xx_hal_tim.c:6468:20
	ldr	r1, [sp]
	ldr	r1, [r1, #40]
.Ltmp133:
	.loc	7 6468 12                       @ ../Drivers/STM32F4xx_HAL_Driver/Src/stm32f4xx_hal_tim.c:6468:12
	cmp	r0, r1
	bne	.LBB12_4
	b	.LBB12_3
.LBB12_3:
.Ltmp134:
	.loc	7 6470 5 is_stmt 1              @ ../Drivers/STM32F4xx_HAL_Driver/Src/stm32f4xx_hal_tim.c:6470:5
	ldr	r1, [sp]
	movs	r0, #2
	.loc	7 6470 19 is_stmt 0             @ ../Drivers/STM32F4xx_HAL_Driver/Src/stm32f4xx_hal_tim.c:6470:19
	strb	r0, [r1, #28]
	.loc	7 6471 134 is_stmt 1            @ ../Drivers/STM32F4xx_HAL_Driver/Src/stm32f4xx_hal_tim.c:6471:134
	ldr	r1, [sp]
	movs	r0, #1
	.loc	7 6471 157 is_stmt 0            @ ../Drivers/STM32F4xx_HAL_Driver/Src/stm32f4xx_hal_tim.c:6471:157
	strb.w	r0, [r1, #63]
	.loc	7 6472 3 is_stmt 1              @ ../Drivers/STM32F4xx_HAL_Driver/Src/stm32f4xx_hal_tim.c:6472:3
	b	.LBB12_11
.Ltmp135:
.LBB12_4:
	.loc	7 6473 12                       @ ../Drivers/STM32F4xx_HAL_Driver/Src/stm32f4xx_hal_tim.c:6473:12
	ldr	r0, [sp, #4]
	.loc	7 6473 20 is_stmt 0             @ ../Drivers/STM32F4xx_HAL_Driver/Src/stm32f4xx_hal_tim.c:6473:20
	ldr	r1, [sp]
	ldr	r1, [r1, #44]
.Ltmp136:
	.loc	7 6473 12                       @ ../Drivers/STM32F4xx_HAL_Driver/Src/stm32f4xx_hal_tim.c:6473:12
	cmp	r0, r1
	bne	.LBB12_6
	b	.LBB12_5
.LBB12_5:
.Ltmp137:
	.loc	7 6475 5 is_stmt 1              @ ../Drivers/STM32F4xx_HAL_Driver/Src/stm32f4xx_hal_tim.c:6475:5
	ldr	r1, [sp]
	movs	r0, #4
	.loc	7 6475 19 is_stmt 0             @ ../Drivers/STM32F4xx_HAL_Driver/Src/stm32f4xx_hal_tim.c:6475:19
	strb	r0, [r1, #28]
	.loc	7 6476 227 is_stmt 1            @ ../Drivers/STM32F4xx_HAL_Driver/Src/stm32f4xx_hal_tim.c:6476:227
	ldr	r1, [sp]
	movs	r0, #1
	.loc	7 6476 250 is_stmt 0            @ ../Drivers/STM32F4xx_HAL_Driver/Src/stm32f4xx_hal_tim.c:6476:250
	strb.w	r0, [r1, #64]
	.loc	7 6477 3 is_stmt 1              @ ../Drivers/STM32F4xx_HAL_Driver/Src/stm32f4xx_hal_tim.c:6477:3
	b	.LBB12_10
.Ltmp138:
.LBB12_6:
	.loc	7 6478 12                       @ ../Drivers/STM32F4xx_HAL_Driver/Src/stm32f4xx_hal_tim.c:6478:12
	ldr	r0, [sp, #4]
	.loc	7 6478 20 is_stmt 0             @ ../Drivers/STM32F4xx_HAL_Driver/Src/stm32f4xx_hal_tim.c:6478:20
	ldr	r1, [sp]
	ldr	r1, [r1, #48]
.Ltmp139:
	.loc	7 6478 12                       @ ../Drivers/STM32F4xx_HAL_Driver/Src/stm32f4xx_hal_tim.c:6478:12
	cmp	r0, r1
	bne	.LBB12_8
	b	.LBB12_7
.LBB12_7:
.Ltmp140:
	.loc	7 6480 5 is_stmt 1              @ ../Drivers/STM32F4xx_HAL_Driver/Src/stm32f4xx_hal_tim.c:6480:5
	ldr	r1, [sp]
	movs	r0, #8
	.loc	7 6480 19 is_stmt 0             @ ../Drivers/STM32F4xx_HAL_Driver/Src/stm32f4xx_hal_tim.c:6480:19
	strb	r0, [r1, #28]
	.loc	7 6481 287 is_stmt 1            @ ../Drivers/STM32F4xx_HAL_Driver/Src/stm32f4xx_hal_tim.c:6481:287
	ldr	r1, [sp]
	movs	r0, #1
	.loc	7 6481 310 is_stmt 0            @ ../Drivers/STM32F4xx_HAL_Driver/Src/stm32f4xx_hal_tim.c:6481:310
	strb.w	r0, [r1, #65]
	.loc	7 6482 3 is_stmt 1              @ ../Drivers/STM32F4xx_HAL_Driver/Src/stm32f4xx_hal_tim.c:6482:3
	b	.LBB12_9
.Ltmp141:
.LBB12_8:
	.loc	7 6485 5                        @ ../Drivers/STM32F4xx_HAL_Driver/Src/stm32f4xx_hal_tim.c:6485:5
	ldr	r1, [sp]
	movs	r0, #1
	.loc	7 6485 17 is_stmt 0             @ ../Drivers/STM32F4xx_HAL_Driver/Src/stm32f4xx_hal_tim.c:6485:17
	strb.w	r0, [r1, #61]
	b	.LBB12_9
.Ltmp142:
.LBB12_9:
	.loc	7 0 17                          @ ../Drivers/STM32F4xx_HAL_Driver/Src/stm32f4xx_hal_tim.c:0:17
	b	.LBB12_10
.LBB12_10:
	b	.LBB12_11
.LBB12_11:
	b	.LBB12_12
.LBB12_12:
	.loc	7 6491 25 is_stmt 1             @ ../Drivers/STM32F4xx_HAL_Driver/Src/stm32f4xx_hal_tim.c:6491:25
	ldr	r0, [sp]
	.loc	7 6491 3 is_stmt 0              @ ../Drivers/STM32F4xx_HAL_Driver/Src/stm32f4xx_hal_tim.c:6491:3
	bl	HAL_TIM_ErrorCallback
	.loc	7 6494 3 is_stmt 1              @ ../Drivers/STM32F4xx_HAL_Driver/Src/stm32f4xx_hal_tim.c:6494:3
	ldr	r1, [sp]
	movs	r0, #0
	.loc	7 6494 17 is_stmt 0             @ ../Drivers/STM32F4xx_HAL_Driver/Src/stm32f4xx_hal_tim.c:6494:17
	strb	r0, [r1, #28]
	.loc	7 6495 1 is_stmt 1              @ ../Drivers/STM32F4xx_HAL_Driver/Src/stm32f4xx_hal_tim.c:6495:1
	add	sp, #8
	pop	{r7, pc}
.Ltmp143:
.Lfunc_end12:
	.size	TIM_DMAError, .Lfunc_end12-TIM_DMAError
	.cfi_endproc
	.cantunwind
	.fnend
                                        @ -- End function
	.section	.text.HAL_TIM_Base_Stop_DMA,"ax",%progbits
	.hidden	HAL_TIM_Base_Stop_DMA           @ -- Begin function HAL_TIM_Base_Stop_DMA
	.globl	HAL_TIM_Base_Stop_DMA
	.p2align	2
	.type	HAL_TIM_Base_Stop_DMA,%function
	.code	16                              @ @HAL_TIM_Base_Stop_DMA
	.thumb_func
HAL_TIM_Base_Stop_DMA:
.Lfunc_begin13:
	.loc	7 596 0                         @ ../Drivers/STM32F4xx_HAL_Driver/Src/stm32f4xx_hal_tim.c:596:0
	.fnstart
	.cfi_startproc
@ %bb.0:
	.save	{r7, lr}
	push	{r7, lr}
	.cfi_def_cfa_offset 8
	.cfi_offset lr, -4
	.cfi_offset r7, -8
	.pad	#8
	sub	sp, #8
	.cfi_def_cfa_offset 16
	str	r0, [sp, #4]
.Ltmp144:
	.loc	7 601 5 prologue_end            @ ../Drivers/STM32F4xx_HAL_Driver/Src/stm32f4xx_hal_tim.c:601:5
	ldr	r0, [sp, #4]
	.loc	7 601 12 is_stmt 0              @ ../Drivers/STM32F4xx_HAL_Driver/Src/stm32f4xx_hal_tim.c:601:12
	ldr	r1, [r0]
	.loc	7 601 27                        @ ../Drivers/STM32F4xx_HAL_Driver/Src/stm32f4xx_hal_tim.c:601:27
	ldr	r0, [r1, #12]
	bic	r0, r0, #256
	str	r0, [r1, #12]
	.loc	7 603 26 is_stmt 1              @ ../Drivers/STM32F4xx_HAL_Driver/Src/stm32f4xx_hal_tim.c:603:26
	ldr	r0, [sp, #4]
	ldr	r0, [r0, #32]
	.loc	7 603 9 is_stmt 0               @ ../Drivers/STM32F4xx_HAL_Driver/Src/stm32f4xx_hal_tim.c:603:9
	bl	HAL_DMA_Abort_IT
	.loc	7 606 3 is_stmt 1               @ ../Drivers/STM32F4xx_HAL_Driver/Src/stm32f4xx_hal_tim.c:606:3
	b	.LBB13_1
.LBB13_1:
.Ltmp145:
	.loc	7 606 14 is_stmt 0              @ ../Drivers/STM32F4xx_HAL_Driver/Src/stm32f4xx_hal_tim.c:606:14
	ldr	r0, [sp, #4]
	.loc	7 606 21                        @ ../Drivers/STM32F4xx_HAL_Driver/Src/stm32f4xx_hal_tim.c:606:21
	ldr	r0, [r0]
	.loc	7 606 31                        @ ../Drivers/STM32F4xx_HAL_Driver/Src/stm32f4xx_hal_tim.c:606:31
	ldr	r0, [r0, #32]
	movw	r1, #4369
.Ltmp146:
	.loc	7 606 12                        @ ../Drivers/STM32F4xx_HAL_Driver/Src/stm32f4xx_hal_tim.c:606:12
	tst	r0, r1
	bne	.LBB13_5
	b	.LBB13_2
.LBB13_2:
.Ltmp147:
	.loc	7 606 139                       @ ../Drivers/STM32F4xx_HAL_Driver/Src/stm32f4xx_hal_tim.c:606:139
	ldr	r0, [sp, #4]
	.loc	7 606 146                       @ ../Drivers/STM32F4xx_HAL_Driver/Src/stm32f4xx_hal_tim.c:606:146
	ldr	r0, [r0]
	.loc	7 606 156                       @ ../Drivers/STM32F4xx_HAL_Driver/Src/stm32f4xx_hal_tim.c:606:156
	ldr	r0, [r0, #32]
	movw	r1, #1092
.Ltmp148:
	.loc	7 606 137                       @ ../Drivers/STM32F4xx_HAL_Driver/Src/stm32f4xx_hal_tim.c:606:137
	tst	r0, r1
	bne	.LBB13_4
	b	.LBB13_3
.LBB13_3:
.Ltmp149:
	.loc	7 606 242                       @ ../Drivers/STM32F4xx_HAL_Driver/Src/stm32f4xx_hal_tim.c:606:242
	ldr	r0, [sp, #4]
	.loc	7 606 249                       @ ../Drivers/STM32F4xx_HAL_Driver/Src/stm32f4xx_hal_tim.c:606:249
	ldr	r1, [r0]
	.loc	7 606 263                       @ ../Drivers/STM32F4xx_HAL_Driver/Src/stm32f4xx_hal_tim.c:606:263
	ldr	r0, [r1]
	bic	r0, r0, #1
	str	r0, [r1]
	.loc	7 606 286                       @ ../Drivers/STM32F4xx_HAL_Driver/Src/stm32f4xx_hal_tim.c:606:286
	b	.LBB13_4
.Ltmp150:
.LBB13_4:
	.loc	7 606 288                       @ ../Drivers/STM32F4xx_HAL_Driver/Src/stm32f4xx_hal_tim.c:606:288
	b	.LBB13_5
.Ltmp151:
.LBB13_5:
	.loc	7 606 290                       @ ../Drivers/STM32F4xx_HAL_Driver/Src/stm32f4xx_hal_tim.c:606:290
	b	.LBB13_6
.Ltmp152:
.LBB13_6:
	.loc	7 609 3 is_stmt 1               @ ../Drivers/STM32F4xx_HAL_Driver/Src/stm32f4xx_hal_tim.c:609:3
	ldr	r1, [sp, #4]
	movs	r0, #1
	.loc	7 609 15 is_stmt 0              @ ../Drivers/STM32F4xx_HAL_Driver/Src/stm32f4xx_hal_tim.c:609:15
	strb.w	r0, [r1, #61]
	movs	r0, #0
	.loc	7 612 3 is_stmt 1               @ ../Drivers/STM32F4xx_HAL_Driver/Src/stm32f4xx_hal_tim.c:612:3
	add	sp, #8
	pop	{r7, pc}
.Ltmp153:
.Lfunc_end13:
	.size	HAL_TIM_Base_Stop_DMA, .Lfunc_end13-HAL_TIM_Base_Stop_DMA
	.cfi_endproc
	.cantunwind
	.fnend
                                        @ -- End function
	.section	.text.HAL_TIM_OC_Init,"ax",%progbits
	.hidden	HAL_TIM_OC_Init                 @ -- Begin function HAL_TIM_OC_Init
	.globl	HAL_TIM_OC_Init
	.p2align	2
	.type	HAL_TIM_OC_Init,%function
	.code	16                              @ @HAL_TIM_OC_Init
	.thumb_func
HAL_TIM_OC_Init:
.Lfunc_begin14:
	.loc	7 651 0                         @ ../Drivers/STM32F4xx_HAL_Driver/Src/stm32f4xx_hal_tim.c:651:0
	.fnstart
	.cfi_startproc
@ %bb.0:
	.save	{r7, lr}
	push	{r7, lr}
	.cfi_def_cfa_offset 8
	.cfi_offset lr, -4
	.cfi_offset r7, -8
	.pad	#8
	sub	sp, #8
	.cfi_def_cfa_offset 16
	str	r0, [sp]
.Ltmp154:
	.loc	7 653 7 prologue_end            @ ../Drivers/STM32F4xx_HAL_Driver/Src/stm32f4xx_hal_tim.c:653:7
	ldr	r0, [sp]
.Ltmp155:
	.loc	7 653 7 is_stmt 0               @ ../Drivers/STM32F4xx_HAL_Driver/Src/stm32f4xx_hal_tim.c:653:7
	cbnz	r0, .LBB14_2
	b	.LBB14_1
.LBB14_1:
	.loc	7 0 7                           @ ../Drivers/STM32F4xx_HAL_Driver/Src/stm32f4xx_hal_tim.c:0:7
	movs	r0, #1
.Ltmp156:
	.loc	7 655 5 is_stmt 1               @ ../Drivers/STM32F4xx_HAL_Driver/Src/stm32f4xx_hal_tim.c:655:5
	strb.w	r0, [sp, #7]
	b	.LBB14_9
.Ltmp157:
.LBB14_2:
	.loc	7 665 7                         @ ../Drivers/STM32F4xx_HAL_Driver/Src/stm32f4xx_hal_tim.c:665:7
	ldr	r0, [sp]
	.loc	7 665 13 is_stmt 0              @ ../Drivers/STM32F4xx_HAL_Driver/Src/stm32f4xx_hal_tim.c:665:13
	ldrb.w	r0, [r0, #61]
.Ltmp158:
	.loc	7 665 7                         @ ../Drivers/STM32F4xx_HAL_Driver/Src/stm32f4xx_hal_tim.c:665:7
	cbnz	r0, .LBB14_4
	b	.LBB14_3
.LBB14_3:
.Ltmp159:
	.loc	7 668 5 is_stmt 1               @ ../Drivers/STM32F4xx_HAL_Driver/Src/stm32f4xx_hal_tim.c:668:5
	ldr	r1, [sp]
	movs	r0, #0
	.loc	7 668 16 is_stmt 0              @ ../Drivers/STM32F4xx_HAL_Driver/Src/stm32f4xx_hal_tim.c:668:16
	strb.w	r0, [r1, #60]
	.loc	7 682 24 is_stmt 1              @ ../Drivers/STM32F4xx_HAL_Driver/Src/stm32f4xx_hal_tim.c:682:24
	ldr	r0, [sp]
	.loc	7 682 5 is_stmt 0               @ ../Drivers/STM32F4xx_HAL_Driver/Src/stm32f4xx_hal_tim.c:682:5
	bl	HAL_TIM_OC_MspInit
	.loc	7 684 3 is_stmt 1               @ ../Drivers/STM32F4xx_HAL_Driver/Src/stm32f4xx_hal_tim.c:684:3
	b	.LBB14_4
.Ltmp160:
.LBB14_4:
	.loc	7 687 3                         @ ../Drivers/STM32F4xx_HAL_Driver/Src/stm32f4xx_hal_tim.c:687:3
	ldr	r1, [sp]
	movs	r0, #2
	.loc	7 687 15 is_stmt 0              @ ../Drivers/STM32F4xx_HAL_Driver/Src/stm32f4xx_hal_tim.c:687:15
	strb.w	r0, [r1, #61]
	.loc	7 690 22 is_stmt 1              @ ../Drivers/STM32F4xx_HAL_Driver/Src/stm32f4xx_hal_tim.c:690:22
	ldr	r1, [sp]
	.loc	7 690 28 is_stmt 0              @ ../Drivers/STM32F4xx_HAL_Driver/Src/stm32f4xx_hal_tim.c:690:28
	ldr	r0, [r1], #4
	.loc	7 690 3                         @ ../Drivers/STM32F4xx_HAL_Driver/Src/stm32f4xx_hal_tim.c:690:3
	bl	TIM_Base_SetConfig
	.loc	7 693 3 is_stmt 1               @ ../Drivers/STM32F4xx_HAL_Driver/Src/stm32f4xx_hal_tim.c:693:3
	ldr	r1, [sp]
	movs	r0, #1
	.loc	7 693 23 is_stmt 0              @ ../Drivers/STM32F4xx_HAL_Driver/Src/stm32f4xx_hal_tim.c:693:23
	strb.w	r0, [r1, #70]
	.loc	7 696 3 is_stmt 1               @ ../Drivers/STM32F4xx_HAL_Driver/Src/stm32f4xx_hal_tim.c:696:3
	b	.LBB14_5
.LBB14_5:
.Ltmp161:
	.loc	7 696 9 is_stmt 0               @ ../Drivers/STM32F4xx_HAL_Driver/Src/stm32f4xx_hal_tim.c:696:9
	ldr	r1, [sp]
	movs	r0, #1
	.loc	7 696 32                        @ ../Drivers/STM32F4xx_HAL_Driver/Src/stm32f4xx_hal_tim.c:696:32
	strb.w	r0, [r1, #62]
	.loc	7 696 66                        @ ../Drivers/STM32F4xx_HAL_Driver/Src/stm32f4xx_hal_tim.c:696:66
	ldr	r1, [sp]
	.loc	7 696 89                        @ ../Drivers/STM32F4xx_HAL_Driver/Src/stm32f4xx_hal_tim.c:696:89
	strb.w	r0, [r1, #63]
	.loc	7 696 123                       @ ../Drivers/STM32F4xx_HAL_Driver/Src/stm32f4xx_hal_tim.c:696:123
	ldr	r1, [sp]
	.loc	7 696 146                       @ ../Drivers/STM32F4xx_HAL_Driver/Src/stm32f4xx_hal_tim.c:696:146
	strb.w	r0, [r1, #64]
	.loc	7 696 180                       @ ../Drivers/STM32F4xx_HAL_Driver/Src/stm32f4xx_hal_tim.c:696:180
	ldr	r1, [sp]
	.loc	7 696 203                       @ ../Drivers/STM32F4xx_HAL_Driver/Src/stm32f4xx_hal_tim.c:696:203
	strb.w	r0, [r1, #65]
	.loc	7 696 236                       @ ../Drivers/STM32F4xx_HAL_Driver/Src/stm32f4xx_hal_tim.c:696:236
	b	.LBB14_6
.Ltmp162:
.LBB14_6:
	.loc	7 697 3 is_stmt 1               @ ../Drivers/STM32F4xx_HAL_Driver/Src/stm32f4xx_hal_tim.c:697:3
	b	.LBB14_7
.LBB14_7:
.Ltmp163:
	.loc	7 697 9 is_stmt 0               @ ../Drivers/STM32F4xx_HAL_Driver/Src/stm32f4xx_hal_tim.c:697:9
	ldr	r1, [sp]
	movs	r0, #1
	.loc	7 697 33                        @ ../Drivers/STM32F4xx_HAL_Driver/Src/stm32f4xx_hal_tim.c:697:33
	strb.w	r0, [r1, #66]
	.loc	7 697 67                        @ ../Drivers/STM32F4xx_HAL_Driver/Src/stm32f4xx_hal_tim.c:697:67
	ldr	r1, [sp]
	.loc	7 697 91                        @ ../Drivers/STM32F4xx_HAL_Driver/Src/stm32f4xx_hal_tim.c:697:91
	strb.w	r0, [r1, #67]
	.loc	7 697 125                       @ ../Drivers/STM32F4xx_HAL_Driver/Src/stm32f4xx_hal_tim.c:697:125
	ldr	r1, [sp]
	.loc	7 697 149                       @ ../Drivers/STM32F4xx_HAL_Driver/Src/stm32f4xx_hal_tim.c:697:149
	strb.w	r0, [r1, #68]
	.loc	7 697 183                       @ ../Drivers/STM32F4xx_HAL_Driver/Src/stm32f4xx_hal_tim.c:697:183
	ldr	r1, [sp]
	.loc	7 697 207                       @ ../Drivers/STM32F4xx_HAL_Driver/Src/stm32f4xx_hal_tim.c:697:207
	strb.w	r0, [r1, #69]
	.loc	7 697 240                       @ ../Drivers/STM32F4xx_HAL_Driver/Src/stm32f4xx_hal_tim.c:697:240
	b	.LBB14_8
.Ltmp164:
.LBB14_8:
	.loc	7 700 3 is_stmt 1               @ ../Drivers/STM32F4xx_HAL_Driver/Src/stm32f4xx_hal_tim.c:700:3
	ldr	r1, [sp]
	movs	r0, #1
	.loc	7 700 15 is_stmt 0              @ ../Drivers/STM32F4xx_HAL_Driver/Src/stm32f4xx_hal_tim.c:700:15
	strb.w	r0, [r1, #61]
	movs	r0, #0
	.loc	7 702 3 is_stmt 1               @ ../Drivers/STM32F4xx_HAL_Driver/Src/stm32f4xx_hal_tim.c:702:3
	strb.w	r0, [sp, #7]
	b	.LBB14_9
.LBB14_9:
	.loc	7 703 1                         @ ../Drivers/STM32F4xx_HAL_Driver/Src/stm32f4xx_hal_tim.c:703:1
	ldrb.w	r0, [sp, #7]
	add	sp, #8
	pop	{r7, pc}
.Ltmp165:
.Lfunc_end14:
	.size	HAL_TIM_OC_Init, .Lfunc_end14-HAL_TIM_OC_Init
	.cfi_endproc
	.cantunwind
	.fnend
                                        @ -- End function
	.section	.text.HAL_TIM_OC_MspInit,"ax",%progbits
	.hidden	HAL_TIM_OC_MspInit              @ -- Begin function HAL_TIM_OC_MspInit
	.weak	HAL_TIM_OC_MspInit
	.p2align	2
	.type	HAL_TIM_OC_MspInit,%function
	.code	16                              @ @HAL_TIM_OC_MspInit
	.thumb_func
HAL_TIM_OC_MspInit:
.Lfunc_begin15:
	.loc	7 754 0                         @ ../Drivers/STM32F4xx_HAL_Driver/Src/stm32f4xx_hal_tim.c:754:0
	.fnstart
	.cfi_startproc
@ %bb.0:
	.pad	#4
	sub	sp, #4
	.cfi_def_cfa_offset 4
	str	r0, [sp]
.Ltmp166:
	.loc	7 761 1 prologue_end            @ ../Drivers/STM32F4xx_HAL_Driver/Src/stm32f4xx_hal_tim.c:761:1
	add	sp, #4
	bx	lr
.Ltmp167:
.Lfunc_end15:
	.size	HAL_TIM_OC_MspInit, .Lfunc_end15-HAL_TIM_OC_MspInit
	.cfi_endproc
	.cantunwind
	.fnend
                                        @ -- End function
	.section	.text.HAL_TIM_OC_DeInit,"ax",%progbits
	.hidden	HAL_TIM_OC_DeInit               @ -- Begin function HAL_TIM_OC_DeInit
	.globl	HAL_TIM_OC_DeInit
	.p2align	2
	.type	HAL_TIM_OC_DeInit,%function
	.code	16                              @ @HAL_TIM_OC_DeInit
	.thumb_func
HAL_TIM_OC_DeInit:
.Lfunc_begin16:
	.loc	7 711 0                         @ ../Drivers/STM32F4xx_HAL_Driver/Src/stm32f4xx_hal_tim.c:711:0
	.fnstart
	.cfi_startproc
@ %bb.0:
	.save	{r7, lr}
	push	{r7, lr}
	.cfi_def_cfa_offset 8
	.cfi_offset lr, -4
	.cfi_offset r7, -8
	.pad	#8
	sub	sp, #8
	.cfi_def_cfa_offset 16
	str	r0, [sp, #4]
.Ltmp168:
	.loc	7 715 3 prologue_end            @ ../Drivers/STM32F4xx_HAL_Driver/Src/stm32f4xx_hal_tim.c:715:3
	ldr	r1, [sp, #4]
	movs	r0, #2
	.loc	7 715 15 is_stmt 0              @ ../Drivers/STM32F4xx_HAL_Driver/Src/stm32f4xx_hal_tim.c:715:15
	strb.w	r0, [r1, #61]
	.loc	7 718 3 is_stmt 1               @ ../Drivers/STM32F4xx_HAL_Driver/Src/stm32f4xx_hal_tim.c:718:3
	b	.LBB16_1
.LBB16_1:
.Ltmp169:
	.loc	7 718 14 is_stmt 0              @ ../Drivers/STM32F4xx_HAL_Driver/Src/stm32f4xx_hal_tim.c:718:14
	ldr	r0, [sp, #4]
	.loc	7 718 21                        @ ../Drivers/STM32F4xx_HAL_Driver/Src/stm32f4xx_hal_tim.c:718:21
	ldr	r0, [r0]
	.loc	7 718 31                        @ ../Drivers/STM32F4xx_HAL_Driver/Src/stm32f4xx_hal_tim.c:718:31
	ldr	r0, [r0, #32]
	movw	r1, #4369
.Ltmp170:
	.loc	7 718 12                        @ ../Drivers/STM32F4xx_HAL_Driver/Src/stm32f4xx_hal_tim.c:718:12
	tst	r0, r1
	bne	.LBB16_5
	b	.LBB16_2
.LBB16_2:
.Ltmp171:
	.loc	7 718 139                       @ ../Drivers/STM32F4xx_HAL_Driver/Src/stm32f4xx_hal_tim.c:718:139
	ldr	r0, [sp, #4]
	.loc	7 718 146                       @ ../Drivers/STM32F4xx_HAL_Driver/Src/stm32f4xx_hal_tim.c:718:146
	ldr	r0, [r0]
	.loc	7 718 156                       @ ../Drivers/STM32F4xx_HAL_Driver/Src/stm32f4xx_hal_tim.c:718:156
	ldr	r0, [r0, #32]
	movw	r1, #1092
.Ltmp172:
	.loc	7 718 137                       @ ../Drivers/STM32F4xx_HAL_Driver/Src/stm32f4xx_hal_tim.c:718:137
	tst	r0, r1
	bne	.LBB16_4
	b	.LBB16_3
.LBB16_3:
.Ltmp173:
	.loc	7 718 242                       @ ../Drivers/STM32F4xx_HAL_Driver/Src/stm32f4xx_hal_tim.c:718:242
	ldr	r0, [sp, #4]
	.loc	7 718 249                       @ ../Drivers/STM32F4xx_HAL_Driver/Src/stm32f4xx_hal_tim.c:718:249
	ldr	r1, [r0]
	.loc	7 718 263                       @ ../Drivers/STM32F4xx_HAL_Driver/Src/stm32f4xx_hal_tim.c:718:263
	ldr	r0, [r1]
	bic	r0, r0, #1
	str	r0, [r1]
	.loc	7 718 286                       @ ../Drivers/STM32F4xx_HAL_Driver/Src/stm32f4xx_hal_tim.c:718:286
	b	.LBB16_4
.Ltmp174:
.LBB16_4:
	.loc	7 718 288                       @ ../Drivers/STM32F4xx_HAL_Driver/Src/stm32f4xx_hal_tim.c:718:288
	b	.LBB16_5
.Ltmp175:
.LBB16_5:
	.loc	7 718 290                       @ ../Drivers/STM32F4xx_HAL_Driver/Src/stm32f4xx_hal_tim.c:718:290
	b	.LBB16_6
.Ltmp176:
.LBB16_6:
	.loc	7 729 24 is_stmt 1              @ ../Drivers/STM32F4xx_HAL_Driver/Src/stm32f4xx_hal_tim.c:729:24
	ldr	r0, [sp, #4]
	.loc	7 729 3 is_stmt 0               @ ../Drivers/STM32F4xx_HAL_Driver/Src/stm32f4xx_hal_tim.c:729:3
	bl	HAL_TIM_OC_MspDeInit
	.loc	7 733 3 is_stmt 1               @ ../Drivers/STM32F4xx_HAL_Driver/Src/stm32f4xx_hal_tim.c:733:3
	ldr	r1, [sp, #4]
	movs	r0, #0
	.loc	7 733 23 is_stmt 0              @ ../Drivers/STM32F4xx_HAL_Driver/Src/stm32f4xx_hal_tim.c:733:23
	strb.w	r0, [r1, #70]
	.loc	7 736 3 is_stmt 1               @ ../Drivers/STM32F4xx_HAL_Driver/Src/stm32f4xx_hal_tim.c:736:3
	b	.LBB16_7
.LBB16_7:
.Ltmp177:
	.loc	7 736 9 is_stmt 0               @ ../Drivers/STM32F4xx_HAL_Driver/Src/stm32f4xx_hal_tim.c:736:9
	ldr	r1, [sp, #4]
	movs	r0, #0
	.loc	7 736 32                        @ ../Drivers/STM32F4xx_HAL_Driver/Src/stm32f4xx_hal_tim.c:736:32
	strb.w	r0, [r1, #62]
	.loc	7 736 66                        @ ../Drivers/STM32F4xx_HAL_Driver/Src/stm32f4xx_hal_tim.c:736:66
	ldr	r1, [sp, #4]
	.loc	7 736 89                        @ ../Drivers/STM32F4xx_HAL_Driver/Src/stm32f4xx_hal_tim.c:736:89
	strb.w	r0, [r1, #63]
	.loc	7 736 123                       @ ../Drivers/STM32F4xx_HAL_Driver/Src/stm32f4xx_hal_tim.c:736:123
	ldr	r1, [sp, #4]
	.loc	7 736 146                       @ ../Drivers/STM32F4xx_HAL_Driver/Src/stm32f4xx_hal_tim.c:736:146
	strb.w	r0, [r1, #64]
	.loc	7 736 180                       @ ../Drivers/STM32F4xx_HAL_Driver/Src/stm32f4xx_hal_tim.c:736:180
	ldr	r1, [sp, #4]
	.loc	7 736 203                       @ ../Drivers/STM32F4xx_HAL_Driver/Src/stm32f4xx_hal_tim.c:736:203
	strb.w	r0, [r1, #65]
	.loc	7 736 236                       @ ../Drivers/STM32F4xx_HAL_Driver/Src/stm32f4xx_hal_tim.c:736:236
	b	.LBB16_8
.Ltmp178:
.LBB16_8:
	.loc	7 737 3 is_stmt 1               @ ../Drivers/STM32F4xx_HAL_Driver/Src/stm32f4xx_hal_tim.c:737:3
	b	.LBB16_9
.LBB16_9:
.Ltmp179:
	.loc	7 737 9 is_stmt 0               @ ../Drivers/STM32F4xx_HAL_Driver/Src/stm32f4xx_hal_tim.c:737:9
	ldr	r1, [sp, #4]
	movs	r0, #0
	.loc	7 737 33                        @ ../Drivers/STM32F4xx_HAL_Driver/Src/stm32f4xx_hal_tim.c:737:33
	strb.w	r0, [r1, #66]
	.loc	7 737 67                        @ ../Drivers/STM32F4xx_HAL_Driver/Src/stm32f4xx_hal_tim.c:737:67
	ldr	r1, [sp, #4]
	.loc	7 737 91                        @ ../Drivers/STM32F4xx_HAL_Driver/Src/stm32f4xx_hal_tim.c:737:91
	strb.w	r0, [r1, #67]
	.loc	7 737 125                       @ ../Drivers/STM32F4xx_HAL_Driver/Src/stm32f4xx_hal_tim.c:737:125
	ldr	r1, [sp, #4]
	.loc	7 737 149                       @ ../Drivers/STM32F4xx_HAL_Driver/Src/stm32f4xx_hal_tim.c:737:149
	strb.w	r0, [r1, #68]
	.loc	7 737 183                       @ ../Drivers/STM32F4xx_HAL_Driver/Src/stm32f4xx_hal_tim.c:737:183
	ldr	r1, [sp, #4]
	.loc	7 737 207                       @ ../Drivers/STM32F4xx_HAL_Driver/Src/stm32f4xx_hal_tim.c:737:207
	strb.w	r0, [r1, #69]
	.loc	7 737 240                       @ ../Drivers/STM32F4xx_HAL_Driver/Src/stm32f4xx_hal_tim.c:737:240
	b	.LBB16_10
.Ltmp180:
.LBB16_10:
	.loc	7 740 3 is_stmt 1               @ ../Drivers/STM32F4xx_HAL_Driver/Src/stm32f4xx_hal_tim.c:740:3
	ldr	r1, [sp, #4]
	movs	r0, #0
	.loc	7 740 15 is_stmt 0              @ ../Drivers/STM32F4xx_HAL_Driver/Src/stm32f4xx_hal_tim.c:740:15
	strb.w	r0, [r1, #61]
	.loc	7 743 3 is_stmt 1               @ ../Drivers/STM32F4xx_HAL_Driver/Src/stm32f4xx_hal_tim.c:743:3
	b	.LBB16_11
.LBB16_11:
.Ltmp181:
	.loc	7 743 8 is_stmt 0               @ ../Drivers/STM32F4xx_HAL_Driver/Src/stm32f4xx_hal_tim.c:743:8
	ldr	r1, [sp, #4]
	movs	r0, #0
	.loc	7 743 20                        @ ../Drivers/STM32F4xx_HAL_Driver/Src/stm32f4xx_hal_tim.c:743:20
	strb.w	r0, [r1, #60]
	.loc	7 743 36                        @ ../Drivers/STM32F4xx_HAL_Driver/Src/stm32f4xx_hal_tim.c:743:36
	b	.LBB16_12
.Ltmp182:
.LBB16_12:
	.loc	7 0 36                          @ ../Drivers/STM32F4xx_HAL_Driver/Src/stm32f4xx_hal_tim.c:0:36
	movs	r0, #0
	.loc	7 745 3 is_stmt 1               @ ../Drivers/STM32F4xx_HAL_Driver/Src/stm32f4xx_hal_tim.c:745:3
	add	sp, #8
	pop	{r7, pc}
.Ltmp183:
.Lfunc_end16:
	.size	HAL_TIM_OC_DeInit, .Lfunc_end16-HAL_TIM_OC_DeInit
	.cfi_endproc
	.cantunwind
	.fnend
                                        @ -- End function
	.section	.text.HAL_TIM_OC_MspDeInit,"ax",%progbits
	.hidden	HAL_TIM_OC_MspDeInit            @ -- Begin function HAL_TIM_OC_MspDeInit
	.weak	HAL_TIM_OC_MspDeInit
	.p2align	2
	.type	HAL_TIM_OC_MspDeInit,%function
	.code	16                              @ @HAL_TIM_OC_MspDeInit
	.thumb_func
HAL_TIM_OC_MspDeInit:
.Lfunc_begin17:
	.loc	7 769 0                         @ ../Drivers/STM32F4xx_HAL_Driver/Src/stm32f4xx_hal_tim.c:769:0
	.fnstart
	.cfi_startproc
@ %bb.0:
	.pad	#4
	sub	sp, #4
	.cfi_def_cfa_offset 4
	str	r0, [sp]
.Ltmp184:
	.loc	7 776 1 prologue_end            @ ../Drivers/STM32F4xx_HAL_Driver/Src/stm32f4xx_hal_tim.c:776:1
	add	sp, #4
	bx	lr
.Ltmp185:
.Lfunc_end17:
	.size	HAL_TIM_OC_MspDeInit, .Lfunc_end17-HAL_TIM_OC_MspDeInit
	.cfi_endproc
	.cantunwind
	.fnend
                                        @ -- End function
	.section	.text.HAL_TIM_OC_Start,"ax",%progbits
	.hidden	HAL_TIM_OC_Start                @ -- Begin function HAL_TIM_OC_Start
	.globl	HAL_TIM_OC_Start
	.p2align	2
	.type	HAL_TIM_OC_Start,%function
	.code	16                              @ @HAL_TIM_OC_Start
	.thumb_func
HAL_TIM_OC_Start:
.Lfunc_begin18:
	.loc	7 790 0                         @ ../Drivers/STM32F4xx_HAL_Driver/Src/stm32f4xx_hal_tim.c:790:0
	.fnstart
	.cfi_startproc
@ %bb.0:
	.save	{r7, lr}
	push	{r7, lr}
	.cfi_def_cfa_offset 8
	.cfi_offset lr, -4
	.cfi_offset r7, -8
	.pad	#48
	sub	sp, #48
	.cfi_def_cfa_offset 56
	str	r0, [sp, #40]
	str	r1, [sp, #36]
.Ltmp186:
	.loc	7 797 10 prologue_end           @ ../Drivers/STM32F4xx_HAL_Driver/Src/stm32f4xx_hal_tim.c:797:10
	ldr	r0, [sp, #36]
	.loc	7 797 8 is_stmt 0               @ ../Drivers/STM32F4xx_HAL_Driver/Src/stm32f4xx_hal_tim.c:797:8
	cbnz	r0, .LBB18_2
	b	.LBB18_1
.LBB18_1:
	.loc	7 797 38                        @ ../Drivers/STM32F4xx_HAL_Driver/Src/stm32f4xx_hal_tim.c:797:38
	ldr	r0, [sp, #40]
	.loc	7 797 37                        @ ../Drivers/STM32F4xx_HAL_Driver/Src/stm32f4xx_hal_tim.c:797:37
	ldrb.w	r0, [r0, #62]
	.loc	7 797 8                         @ ../Drivers/STM32F4xx_HAL_Driver/Src/stm32f4xx_hal_tim.c:797:8
	str	r0, [sp, #28]                   @ 4-byte Spill
	b	.LBB18_9
.LBB18_2:
	.loc	7 797 65                        @ ../Drivers/STM32F4xx_HAL_Driver/Src/stm32f4xx_hal_tim.c:797:65
	ldr	r0, [sp, #36]
	.loc	7 797 63                        @ ../Drivers/STM32F4xx_HAL_Driver/Src/stm32f4xx_hal_tim.c:797:63
	cmp	r0, #4
	bne	.LBB18_4
	b	.LBB18_3
.LBB18_3:
	.loc	7 797 93                        @ ../Drivers/STM32F4xx_HAL_Driver/Src/stm32f4xx_hal_tim.c:797:93
	ldr	r0, [sp, #40]
	.loc	7 797 92                        @ ../Drivers/STM32F4xx_HAL_Driver/Src/stm32f4xx_hal_tim.c:797:92
	ldrb.w	r0, [r0, #63]
	.loc	7 797 63                        @ ../Drivers/STM32F4xx_HAL_Driver/Src/stm32f4xx_hal_tim.c:797:63
	str	r0, [sp, #24]                   @ 4-byte Spill
	b	.LBB18_8
.LBB18_4:
	.loc	7 797 120                       @ ../Drivers/STM32F4xx_HAL_Driver/Src/stm32f4xx_hal_tim.c:797:120
	ldr	r0, [sp, #36]
	.loc	7 797 118                       @ ../Drivers/STM32F4xx_HAL_Driver/Src/stm32f4xx_hal_tim.c:797:118
	cmp	r0, #8
	bne	.LBB18_6
	b	.LBB18_5
.LBB18_5:
	.loc	7 797 148                       @ ../Drivers/STM32F4xx_HAL_Driver/Src/stm32f4xx_hal_tim.c:797:148
	ldr	r0, [sp, #40]
	.loc	7 797 147                       @ ../Drivers/STM32F4xx_HAL_Driver/Src/stm32f4xx_hal_tim.c:797:147
	ldrb.w	r0, [r0, #64]
	.loc	7 797 118                       @ ../Drivers/STM32F4xx_HAL_Driver/Src/stm32f4xx_hal_tim.c:797:118
	str	r0, [sp, #20]                   @ 4-byte Spill
	b	.LBB18_7
.LBB18_6:
	.loc	7 797 174                       @ ../Drivers/STM32F4xx_HAL_Driver/Src/stm32f4xx_hal_tim.c:797:174
	ldr	r0, [sp, #40]
	.loc	7 797 173                       @ ../Drivers/STM32F4xx_HAL_Driver/Src/stm32f4xx_hal_tim.c:797:173
	ldrb.w	r0, [r0, #65]
	.loc	7 797 118                       @ ../Drivers/STM32F4xx_HAL_Driver/Src/stm32f4xx_hal_tim.c:797:118
	str	r0, [sp, #20]                   @ 4-byte Spill
	b	.LBB18_7
.LBB18_7:
	ldr	r0, [sp, #20]                   @ 4-byte Reload
	.loc	7 797 63                        @ ../Drivers/STM32F4xx_HAL_Driver/Src/stm32f4xx_hal_tim.c:797:63
	str	r0, [sp, #24]                   @ 4-byte Spill
	b	.LBB18_8
.LBB18_8:
	ldr	r0, [sp, #24]                   @ 4-byte Reload
	.loc	7 797 8                         @ ../Drivers/STM32F4xx_HAL_Driver/Src/stm32f4xx_hal_tim.c:797:8
	str	r0, [sp, #28]                   @ 4-byte Spill
	b	.LBB18_9
.LBB18_9:
	ldr	r0, [sp, #28]                   @ 4-byte Reload
.Ltmp187:
	.loc	7 797 7                         @ ../Drivers/STM32F4xx_HAL_Driver/Src/stm32f4xx_hal_tim.c:797:7
	cmp	r0, #1
	beq	.LBB18_11
	b	.LBB18_10
.LBB18_10:
	.loc	7 0 7                           @ ../Drivers/STM32F4xx_HAL_Driver/Src/stm32f4xx_hal_tim.c:0:7
	movs	r0, #1
.Ltmp188:
	.loc	7 799 5 is_stmt 1               @ ../Drivers/STM32F4xx_HAL_Driver/Src/stm32f4xx_hal_tim.c:799:5
	strb.w	r0, [sp, #47]
	b	.LBB18_37
.Ltmp189:
.LBB18_11:
	.loc	7 803 6                         @ ../Drivers/STM32F4xx_HAL_Driver/Src/stm32f4xx_hal_tim.c:803:6
	ldr	r0, [sp, #36]
	.loc	7 803 4 is_stmt 0               @ ../Drivers/STM32F4xx_HAL_Driver/Src/stm32f4xx_hal_tim.c:803:4
	cbnz	r0, .LBB18_13
	b	.LBB18_12
.LBB18_12:
	.loc	7 803 35                        @ ../Drivers/STM32F4xx_HAL_Driver/Src/stm32f4xx_hal_tim.c:803:35
	ldr	r1, [sp, #40]
	movs	r0, #2
	.loc	7 803 58                        @ ../Drivers/STM32F4xx_HAL_Driver/Src/stm32f4xx_hal_tim.c:803:58
	strb.w	r0, [r1, #62]
	.loc	7 803 4                         @ ../Drivers/STM32F4xx_HAL_Driver/Src/stm32f4xx_hal_tim.c:803:4
	b	.LBB18_20
.LBB18_13:
	.loc	7 803 94                        @ ../Drivers/STM32F4xx_HAL_Driver/Src/stm32f4xx_hal_tim.c:803:94
	ldr	r0, [sp, #36]
	.loc	7 803 92                        @ ../Drivers/STM32F4xx_HAL_Driver/Src/stm32f4xx_hal_tim.c:803:92
	cmp	r0, #4
	bne	.LBB18_15
	b	.LBB18_14
.LBB18_14:
	.loc	7 803 123                       @ ../Drivers/STM32F4xx_HAL_Driver/Src/stm32f4xx_hal_tim.c:803:123
	ldr	r1, [sp, #40]
	movs	r0, #2
	.loc	7 803 146                       @ ../Drivers/STM32F4xx_HAL_Driver/Src/stm32f4xx_hal_tim.c:803:146
	strb.w	r0, [r1, #63]
	.loc	7 803 92                        @ ../Drivers/STM32F4xx_HAL_Driver/Src/stm32f4xx_hal_tim.c:803:92
	str	r0, [sp, #16]                   @ 4-byte Spill
	b	.LBB18_19
.LBB18_15:
	.loc	7 803 182                       @ ../Drivers/STM32F4xx_HAL_Driver/Src/stm32f4xx_hal_tim.c:803:182
	ldr	r0, [sp, #36]
	.loc	7 803 180                       @ ../Drivers/STM32F4xx_HAL_Driver/Src/stm32f4xx_hal_tim.c:803:180
	cmp	r0, #8
	bne	.LBB18_17
	b	.LBB18_16
.LBB18_16:
	.loc	7 803 211                       @ ../Drivers/STM32F4xx_HAL_Driver/Src/stm32f4xx_hal_tim.c:803:211
	ldr	r1, [sp, #40]
	movs	r0, #2
	.loc	7 803 234                       @ ../Drivers/STM32F4xx_HAL_Driver/Src/stm32f4xx_hal_tim.c:803:234
	strb.w	r0, [r1, #64]
	.loc	7 803 180                       @ ../Drivers/STM32F4xx_HAL_Driver/Src/stm32f4xx_hal_tim.c:803:180
	str	r0, [sp, #12]                   @ 4-byte Spill
	b	.LBB18_18
.LBB18_17:
	.loc	7 803 270                       @ ../Drivers/STM32F4xx_HAL_Driver/Src/stm32f4xx_hal_tim.c:803:270
	ldr	r1, [sp, #40]
	movs	r0, #2
	.loc	7 803 293                       @ ../Drivers/STM32F4xx_HAL_Driver/Src/stm32f4xx_hal_tim.c:803:293
	strb.w	r0, [r1, #65]
	.loc	7 803 180                       @ ../Drivers/STM32F4xx_HAL_Driver/Src/stm32f4xx_hal_tim.c:803:180
	str	r0, [sp, #12]                   @ 4-byte Spill
	b	.LBB18_18
.LBB18_18:
	ldr	r0, [sp, #12]                   @ 4-byte Reload
	.loc	7 803 92                        @ ../Drivers/STM32F4xx_HAL_Driver/Src/stm32f4xx_hal_tim.c:803:92
	str	r0, [sp, #16]                   @ 4-byte Spill
	b	.LBB18_19
.LBB18_19:
	ldr	r0, [sp, #16]                   @ 4-byte Reload
	.loc	7 803 4                         @ ../Drivers/STM32F4xx_HAL_Driver/Src/stm32f4xx_hal_tim.c:803:4
	b	.LBB18_20
.LBB18_20:
	.loc	7 806 21 is_stmt 1              @ ../Drivers/STM32F4xx_HAL_Driver/Src/stm32f4xx_hal_tim.c:806:21
	ldr	r0, [sp, #40]
	.loc	7 806 27 is_stmt 0              @ ../Drivers/STM32F4xx_HAL_Driver/Src/stm32f4xx_hal_tim.c:806:27
	ldr	r0, [r0]
	.loc	7 806 37                        @ ../Drivers/STM32F4xx_HAL_Driver/Src/stm32f4xx_hal_tim.c:806:37
	ldr	r1, [sp, #36]
	movs	r2, #1
	.loc	7 806 3                         @ ../Drivers/STM32F4xx_HAL_Driver/Src/stm32f4xx_hal_tim.c:806:3
	str	r2, [sp, #4]                    @ 4-byte Spill
	bl	TIM_CCxChannelCmd
	ldr	r0, [sp, #4]                    @ 4-byte Reload
.Ltmp190:
	.loc	7 808 10 is_stmt 1              @ ../Drivers/STM32F4xx_HAL_Driver/Src/stm32f4xx_hal_tim.c:808:10
	ldr	r1, [sp, #40]
	.loc	7 808 16 is_stmt 0              @ ../Drivers/STM32F4xx_HAL_Driver/Src/stm32f4xx_hal_tim.c:808:16
	ldr	r1, [r1]
	movs	r2, #0
	movt	r2, #16385
	.loc	7 808 91                        @ ../Drivers/STM32F4xx_HAL_Driver/Src/stm32f4xx_hal_tim.c:808:91
	cmp	r1, r2
	str	r0, [sp, #8]                    @ 4-byte Spill
	beq	.LBB18_22
	b	.LBB18_21
.LBB18_21:
	.loc	7 808 96                        @ ../Drivers/STM32F4xx_HAL_Driver/Src/stm32f4xx_hal_tim.c:808:96
	ldr	r0, [sp, #40]
	.loc	7 808 102                       @ ../Drivers/STM32F4xx_HAL_Driver/Src/stm32f4xx_hal_tim.c:808:102
	ldr	r0, [r0]
	movw	r1, #64512
	movt	r1, #49150
	.loc	7 808 112                       @ ../Drivers/STM32F4xx_HAL_Driver/Src/stm32f4xx_hal_tim.c:808:112
	add	r0, r1
	clz	r0, r0
	lsrs	r0, r0, #5
	.loc	7 808 91                        @ ../Drivers/STM32F4xx_HAL_Driver/Src/stm32f4xx_hal_tim.c:808:91
	str	r0, [sp, #8]                    @ 4-byte Spill
	b	.LBB18_22
.Ltmp191:
.LBB18_22:
	.loc	7 0 91                          @ ../Drivers/STM32F4xx_HAL_Driver/Src/stm32f4xx_hal_tim.c:0:91
	ldr	r0, [sp, #8]                    @ 4-byte Reload
	.loc	7 808 7                         @ ../Drivers/STM32F4xx_HAL_Driver/Src/stm32f4xx_hal_tim.c:808:7
	lsls	r0, r0, #31
	cbz	r0, .LBB18_24
	b	.LBB18_23
.LBB18_23:
.Ltmp192:
	.loc	7 811 7 is_stmt 1               @ ../Drivers/STM32F4xx_HAL_Driver/Src/stm32f4xx_hal_tim.c:811:7
	ldr	r0, [sp, #40]
	.loc	7 811 14 is_stmt 0              @ ../Drivers/STM32F4xx_HAL_Driver/Src/stm32f4xx_hal_tim.c:811:14
	ldr	r1, [r0]
	.loc	7 811 28                        @ ../Drivers/STM32F4xx_HAL_Driver/Src/stm32f4xx_hal_tim.c:811:28
	ldr	r0, [r1, #68]
	orr	r0, r0, #32768
	str	r0, [r1, #68]
	.loc	7 812 3 is_stmt 1               @ ../Drivers/STM32F4xx_HAL_Driver/Src/stm32f4xx_hal_tim.c:812:3
	b	.LBB18_24
.Ltmp193:
.LBB18_24:
	.loc	7 815 10                        @ ../Drivers/STM32F4xx_HAL_Driver/Src/stm32f4xx_hal_tim.c:815:10
	ldr	r0, [sp, #40]
	.loc	7 815 16 is_stmt 0              @ ../Drivers/STM32F4xx_HAL_Driver/Src/stm32f4xx_hal_tim.c:815:16
	ldr	r0, [r0]
	movs	r1, #0
	movt	r1, #16385
	.loc	7 815 91                        @ ../Drivers/STM32F4xx_HAL_Driver/Src/stm32f4xx_hal_tim.c:815:91
	cmp	r0, r1
	beq	.LBB18_32
	b	.LBB18_25
.LBB18_25:
	.loc	7 815 96                        @ ../Drivers/STM32F4xx_HAL_Driver/Src/stm32f4xx_hal_tim.c:815:96
	ldr	r0, [sp, #40]
	.loc	7 815 102                       @ ../Drivers/STM32F4xx_HAL_Driver/Src/stm32f4xx_hal_tim.c:815:102
	ldr	r0, [r0]
	.loc	7 815 160                       @ ../Drivers/STM32F4xx_HAL_Driver/Src/stm32f4xx_hal_tim.c:815:160
	cmp.w	r0, #1073741824
	beq	.LBB18_32
	b	.LBB18_26
.LBB18_26:
	.loc	7 815 165                       @ ../Drivers/STM32F4xx_HAL_Driver/Src/stm32f4xx_hal_tim.c:815:165
	ldr	r0, [sp, #40]
	.loc	7 815 171                       @ ../Drivers/STM32F4xx_HAL_Driver/Src/stm32f4xx_hal_tim.c:815:171
	ldr	r0, [r0]
	movw	r1, #1024
	movt	r1, #16384
	.loc	7 815 229                       @ ../Drivers/STM32F4xx_HAL_Driver/Src/stm32f4xx_hal_tim.c:815:229
	cmp	r0, r1
	beq	.LBB18_32
	b	.LBB18_27
.LBB18_27:
	.loc	7 815 234                       @ ../Drivers/STM32F4xx_HAL_Driver/Src/stm32f4xx_hal_tim.c:815:234
	ldr	r0, [sp, #40]
	.loc	7 815 240                       @ ../Drivers/STM32F4xx_HAL_Driver/Src/stm32f4xx_hal_tim.c:815:240
	ldr	r0, [r0]
	movw	r1, #2048
	movt	r1, #16384
	.loc	7 815 298                       @ ../Drivers/STM32F4xx_HAL_Driver/Src/stm32f4xx_hal_tim.c:815:298
	cmp	r0, r1
	beq	.LBB18_32
	b	.LBB18_28
.LBB18_28:
	.loc	7 815 303                       @ ../Drivers/STM32F4xx_HAL_Driver/Src/stm32f4xx_hal_tim.c:815:303
	ldr	r0, [sp, #40]
	.loc	7 815 309                       @ ../Drivers/STM32F4xx_HAL_Driver/Src/stm32f4xx_hal_tim.c:815:309
	ldr	r0, [r0]
	movw	r1, #3072
	movt	r1, #16384
	.loc	7 815 367                       @ ../Drivers/STM32F4xx_HAL_Driver/Src/stm32f4xx_hal_tim.c:815:367
	cmp	r0, r1
	beq	.LBB18_32
	b	.LBB18_29
.LBB18_29:
	.loc	7 815 372                       @ ../Drivers/STM32F4xx_HAL_Driver/Src/stm32f4xx_hal_tim.c:815:372
	ldr	r0, [sp, #40]
	.loc	7 815 378                       @ ../Drivers/STM32F4xx_HAL_Driver/Src/stm32f4xx_hal_tim.c:815:378
	ldr	r0, [r0]
	movw	r1, #1024
	movt	r1, #16385
	.loc	7 815 453                       @ ../Drivers/STM32F4xx_HAL_Driver/Src/stm32f4xx_hal_tim.c:815:453
	cmp	r0, r1
	beq	.LBB18_32
	b	.LBB18_30
.LBB18_30:
	.loc	7 815 458                       @ ../Drivers/STM32F4xx_HAL_Driver/Src/stm32f4xx_hal_tim.c:815:458
	ldr	r0, [sp, #40]
	.loc	7 815 464                       @ ../Drivers/STM32F4xx_HAL_Driver/Src/stm32f4xx_hal_tim.c:815:464
	ldr	r0, [r0]
	movw	r1, #16384
	movt	r1, #16385
	.loc	7 815 539                       @ ../Drivers/STM32F4xx_HAL_Driver/Src/stm32f4xx_hal_tim.c:815:539
	cmp	r0, r1
	beq	.LBB18_32
	b	.LBB18_31
.LBB18_31:
	.loc	7 815 544                       @ ../Drivers/STM32F4xx_HAL_Driver/Src/stm32f4xx_hal_tim.c:815:544
	ldr	r0, [sp, #40]
	.loc	7 815 550                       @ ../Drivers/STM32F4xx_HAL_Driver/Src/stm32f4xx_hal_tim.c:815:550
	ldr	r0, [r0]
	movw	r1, #6144
	movt	r1, #16384
.Ltmp194:
	.loc	7 815 7                         @ ../Drivers/STM32F4xx_HAL_Driver/Src/stm32f4xx_hal_tim.c:815:7
	cmp	r0, r1
	bne	.LBB18_35
	b	.LBB18_32
.LBB18_32:
.Ltmp195:
	.loc	7 817 15 is_stmt 1              @ ../Drivers/STM32F4xx_HAL_Driver/Src/stm32f4xx_hal_tim.c:817:15
	ldr	r0, [sp, #40]
	.loc	7 817 21 is_stmt 0              @ ../Drivers/STM32F4xx_HAL_Driver/Src/stm32f4xx_hal_tim.c:817:21
	ldr	r0, [r0]
	.loc	7 817 31                        @ ../Drivers/STM32F4xx_HAL_Driver/Src/stm32f4xx_hal_tim.c:817:31
	ldr	r0, [r0, #8]
	.loc	7 817 36                        @ ../Drivers/STM32F4xx_HAL_Driver/Src/stm32f4xx_hal_tim.c:817:36
	and	r0, r0, #7
	.loc	7 817 13                        @ ../Drivers/STM32F4xx_HAL_Driver/Src/stm32f4xx_hal_tim.c:817:13
	str	r0, [sp, #32]
.Ltmp196:
	.loc	7 818 12 is_stmt 1              @ ../Drivers/STM32F4xx_HAL_Driver/Src/stm32f4xx_hal_tim.c:818:12
	ldr	r0, [sp, #32]
.Ltmp197:
	.loc	7 818 9 is_stmt 0               @ ../Drivers/STM32F4xx_HAL_Driver/Src/stm32f4xx_hal_tim.c:818:9
	cmp	r0, #6
	beq	.LBB18_34
	b	.LBB18_33
.LBB18_33:
.Ltmp198:
	.loc	7 820 9 is_stmt 1               @ ../Drivers/STM32F4xx_HAL_Driver/Src/stm32f4xx_hal_tim.c:820:9
	ldr	r0, [sp, #40]
	.loc	7 820 16 is_stmt 0              @ ../Drivers/STM32F4xx_HAL_Driver/Src/stm32f4xx_hal_tim.c:820:16
	ldr	r1, [r0]
	.loc	7 820 29                        @ ../Drivers/STM32F4xx_HAL_Driver/Src/stm32f4xx_hal_tim.c:820:29
	ldr	r0, [r1]
	orr	r0, r0, #1
	str	r0, [r1]
	.loc	7 821 5 is_stmt 1               @ ../Drivers/STM32F4xx_HAL_Driver/Src/stm32f4xx_hal_tim.c:821:5
	b	.LBB18_34
.Ltmp199:
.LBB18_34:
	.loc	7 822 3                         @ ../Drivers/STM32F4xx_HAL_Driver/Src/stm32f4xx_hal_tim.c:822:3
	b	.LBB18_36
.Ltmp200:
.LBB18_35:
	.loc	7 825 7                         @ ../Drivers/STM32F4xx_HAL_Driver/Src/stm32f4xx_hal_tim.c:825:7
	ldr	r0, [sp, #40]
	.loc	7 825 14 is_stmt 0              @ ../Drivers/STM32F4xx_HAL_Driver/Src/stm32f4xx_hal_tim.c:825:14
	ldr	r1, [r0]
	.loc	7 825 27                        @ ../Drivers/STM32F4xx_HAL_Driver/Src/stm32f4xx_hal_tim.c:825:27
	ldr	r0, [r1]
	orr	r0, r0, #1
	str	r0, [r1]
	b	.LBB18_36
.Ltmp201:
.LBB18_36:
	.loc	7 0 27                          @ ../Drivers/STM32F4xx_HAL_Driver/Src/stm32f4xx_hal_tim.c:0:27
	movs	r0, #0
	.loc	7 829 3 is_stmt 1               @ ../Drivers/STM32F4xx_HAL_Driver/Src/stm32f4xx_hal_tim.c:829:3
	strb.w	r0, [sp, #47]
	b	.LBB18_37
.LBB18_37:
	.loc	7 830 1                         @ ../Drivers/STM32F4xx_HAL_Driver/Src/stm32f4xx_hal_tim.c:830:1
	ldrb.w	r0, [sp, #47]
	add	sp, #48
	pop	{r7, pc}
.Ltmp202:
.Lfunc_end18:
	.size	HAL_TIM_OC_Start, .Lfunc_end18-HAL_TIM_OC_Start
	.cfi_endproc
	.cantunwind
	.fnend
                                        @ -- End function
	.section	.text.TIM_CCxChannelCmd,"ax",%progbits
	.hidden	TIM_CCxChannelCmd               @ -- Begin function TIM_CCxChannelCmd
	.globl	TIM_CCxChannelCmd
	.p2align	2
	.type	TIM_CCxChannelCmd,%function
	.code	16                              @ @TIM_CCxChannelCmd
	.thumb_func
TIM_CCxChannelCmd:
.Lfunc_begin19:
	.loc	7 7576 0                        @ ../Drivers/STM32F4xx_HAL_Driver/Src/stm32f4xx_hal_tim.c:7576:0
	.fnstart
	.cfi_startproc
@ %bb.0:
	.pad	#16
	sub	sp, #16
	.cfi_def_cfa_offset 16
	str	r0, [sp, #12]
	str	r1, [sp, #8]
	str	r2, [sp, #4]
.Ltmp203:
	.loc	7 7583 29 prologue_end          @ ../Drivers/STM32F4xx_HAL_Driver/Src/stm32f4xx_hal_tim.c:7583:29
	ldr	r0, [sp, #8]
	.loc	7 7583 37 is_stmt 0             @ ../Drivers/STM32F4xx_HAL_Driver/Src/stm32f4xx_hal_tim.c:7583:37
	and	r1, r0, #31
	movs	r0, #1
	.loc	7 7583 25                       @ ../Drivers/STM32F4xx_HAL_Driver/Src/stm32f4xx_hal_tim.c:7583:25
	lsls	r0, r1
	.loc	7 7583 7                        @ ../Drivers/STM32F4xx_HAL_Driver/Src/stm32f4xx_hal_tim.c:7583:7
	str	r0, [sp]
	.loc	7 7586 18 is_stmt 1             @ ../Drivers/STM32F4xx_HAL_Driver/Src/stm32f4xx_hal_tim.c:7586:18
	ldr	r2, [sp]
	.loc	7 7586 3 is_stmt 0              @ ../Drivers/STM32F4xx_HAL_Driver/Src/stm32f4xx_hal_tim.c:7586:3
	ldr	r1, [sp, #12]
	.loc	7 7586 14                       @ ../Drivers/STM32F4xx_HAL_Driver/Src/stm32f4xx_hal_tim.c:7586:14
	ldr	r0, [r1, #32]
	bics	r0, r2
	str	r0, [r1, #32]
	.loc	7 7589 28 is_stmt 1             @ ../Drivers/STM32F4xx_HAL_Driver/Src/stm32f4xx_hal_tim.c:7589:28
	ldr	r0, [sp, #4]
	.loc	7 7589 45 is_stmt 0             @ ../Drivers/STM32F4xx_HAL_Driver/Src/stm32f4xx_hal_tim.c:7589:45
	ldr	r1, [sp, #8]
	.loc	7 7589 53                       @ ../Drivers/STM32F4xx_HAL_Driver/Src/stm32f4xx_hal_tim.c:7589:53
	and	r1, r1, #31
	.loc	7 7589 41                       @ ../Drivers/STM32F4xx_HAL_Driver/Src/stm32f4xx_hal_tim.c:7589:41
	lsl.w	r2, r0, r1
	.loc	7 7589 3                        @ ../Drivers/STM32F4xx_HAL_Driver/Src/stm32f4xx_hal_tim.c:7589:3
	ldr	r1, [sp, #12]
	.loc	7 7589 14                       @ ../Drivers/STM32F4xx_HAL_Driver/Src/stm32f4xx_hal_tim.c:7589:14
	ldr	r0, [r1, #32]
	orrs	r0, r2
	str	r0, [r1, #32]
	.loc	7 7590 1 is_stmt 1              @ ../Drivers/STM32F4xx_HAL_Driver/Src/stm32f4xx_hal_tim.c:7590:1
	add	sp, #16
	bx	lr
.Ltmp204:
.Lfunc_end19:
	.size	TIM_CCxChannelCmd, .Lfunc_end19-TIM_CCxChannelCmd
	.cfi_endproc
	.cantunwind
	.fnend
                                        @ -- End function
	.section	.text.HAL_TIM_OC_Stop,"ax",%progbits
	.hidden	HAL_TIM_OC_Stop                 @ -- Begin function HAL_TIM_OC_Stop
	.globl	HAL_TIM_OC_Stop
	.p2align	2
	.type	HAL_TIM_OC_Stop,%function
	.code	16                              @ @HAL_TIM_OC_Stop
	.thumb_func
HAL_TIM_OC_Stop:
.Lfunc_begin20:
	.loc	7 844 0                         @ ../Drivers/STM32F4xx_HAL_Driver/Src/stm32f4xx_hal_tim.c:844:0
	.fnstart
	.cfi_startproc
@ %bb.0:
	.save	{r7, lr}
	push	{r7, lr}
	.cfi_def_cfa_offset 8
	.cfi_offset lr, -4
	.cfi_offset r7, -8
	.pad	#24
	sub	sp, #24
	.cfi_def_cfa_offset 32
	str	r0, [sp, #20]
	str	r1, [sp, #16]
.Ltmp205:
	.loc	7 849 21 prologue_end           @ ../Drivers/STM32F4xx_HAL_Driver/Src/stm32f4xx_hal_tim.c:849:21
	ldr	r0, [sp, #20]
	.loc	7 849 27 is_stmt 0              @ ../Drivers/STM32F4xx_HAL_Driver/Src/stm32f4xx_hal_tim.c:849:27
	ldr	r0, [r0]
	.loc	7 849 37                        @ ../Drivers/STM32F4xx_HAL_Driver/Src/stm32f4xx_hal_tim.c:849:37
	ldr	r1, [sp, #16]
	movs	r2, #0
	.loc	7 849 3                         @ ../Drivers/STM32F4xx_HAL_Driver/Src/stm32f4xx_hal_tim.c:849:3
	bl	TIM_CCxChannelCmd
.Ltmp206:
	.loc	7 851 10 is_stmt 1              @ ../Drivers/STM32F4xx_HAL_Driver/Src/stm32f4xx_hal_tim.c:851:10
	ldr	r0, [sp, #20]
	.loc	7 851 16 is_stmt 0              @ ../Drivers/STM32F4xx_HAL_Driver/Src/stm32f4xx_hal_tim.c:851:16
	ldr	r1, [r0]
	movs	r0, #1
	movs	r2, #0
	movt	r2, #16385
	.loc	7 851 91                        @ ../Drivers/STM32F4xx_HAL_Driver/Src/stm32f4xx_hal_tim.c:851:91
	cmp	r1, r2
	str	r0, [sp, #12]                   @ 4-byte Spill
	beq	.LBB20_2
	b	.LBB20_1
.LBB20_1:
	.loc	7 851 96                        @ ../Drivers/STM32F4xx_HAL_Driver/Src/stm32f4xx_hal_tim.c:851:96
	ldr	r0, [sp, #20]
	.loc	7 851 102                       @ ../Drivers/STM32F4xx_HAL_Driver/Src/stm32f4xx_hal_tim.c:851:102
	ldr	r0, [r0]
	movw	r1, #64512
	movt	r1, #49150
	.loc	7 851 112                       @ ../Drivers/STM32F4xx_HAL_Driver/Src/stm32f4xx_hal_tim.c:851:112
	add	r0, r1
	clz	r0, r0
	lsrs	r0, r0, #5
	.loc	7 851 91                        @ ../Drivers/STM32F4xx_HAL_Driver/Src/stm32f4xx_hal_tim.c:851:91
	str	r0, [sp, #12]                   @ 4-byte Spill
	b	.LBB20_2
.Ltmp207:
.LBB20_2:
	.loc	7 0 91                          @ ../Drivers/STM32F4xx_HAL_Driver/Src/stm32f4xx_hal_tim.c:0:91
	ldr	r0, [sp, #12]                   @ 4-byte Reload
	.loc	7 851 7                         @ ../Drivers/STM32F4xx_HAL_Driver/Src/stm32f4xx_hal_tim.c:851:7
	lsls	r0, r0, #31
	cbz	r0, .LBB20_10
	b	.LBB20_3
.LBB20_3:
.Ltmp208:
	.loc	7 854 5 is_stmt 1               @ ../Drivers/STM32F4xx_HAL_Driver/Src/stm32f4xx_hal_tim.c:854:5
	b	.LBB20_4
.LBB20_4:
.Ltmp209:
	.loc	7 854 16 is_stmt 0              @ ../Drivers/STM32F4xx_HAL_Driver/Src/stm32f4xx_hal_tim.c:854:16
	ldr	r0, [sp, #20]
	.loc	7 854 23                        @ ../Drivers/STM32F4xx_HAL_Driver/Src/stm32f4xx_hal_tim.c:854:23
	ldr	r0, [r0]
	.loc	7 854 33                        @ ../Drivers/STM32F4xx_HAL_Driver/Src/stm32f4xx_hal_tim.c:854:33
	ldr	r0, [r0, #32]
	movw	r1, #4369
.Ltmp210:
	.loc	7 854 14                        @ ../Drivers/STM32F4xx_HAL_Driver/Src/stm32f4xx_hal_tim.c:854:14
	tst	r0, r1
	bne	.LBB20_8
	b	.LBB20_5
.LBB20_5:
.Ltmp211:
	.loc	7 854 141                       @ ../Drivers/STM32F4xx_HAL_Driver/Src/stm32f4xx_hal_tim.c:854:141
	ldr	r0, [sp, #20]
	.loc	7 854 148                       @ ../Drivers/STM32F4xx_HAL_Driver/Src/stm32f4xx_hal_tim.c:854:148
	ldr	r0, [r0]
	.loc	7 854 158                       @ ../Drivers/STM32F4xx_HAL_Driver/Src/stm32f4xx_hal_tim.c:854:158
	ldr	r0, [r0, #32]
	movw	r1, #1092
.Ltmp212:
	.loc	7 854 139                       @ ../Drivers/STM32F4xx_HAL_Driver/Src/stm32f4xx_hal_tim.c:854:139
	tst	r0, r1
	bne	.LBB20_7
	b	.LBB20_6
.LBB20_6:
.Ltmp213:
	.loc	7 854 244                       @ ../Drivers/STM32F4xx_HAL_Driver/Src/stm32f4xx_hal_tim.c:854:244
	ldr	r0, [sp, #20]
	.loc	7 854 251                       @ ../Drivers/STM32F4xx_HAL_Driver/Src/stm32f4xx_hal_tim.c:854:251
	ldr	r1, [r0]
	.loc	7 854 266                       @ ../Drivers/STM32F4xx_HAL_Driver/Src/stm32f4xx_hal_tim.c:854:266
	ldr	r0, [r1, #68]
	bic	r0, r0, #32768
	str	r0, [r1, #68]
	.loc	7 854 290                       @ ../Drivers/STM32F4xx_HAL_Driver/Src/stm32f4xx_hal_tim.c:854:290
	b	.LBB20_7
.Ltmp214:
.LBB20_7:
	.loc	7 854 292                       @ ../Drivers/STM32F4xx_HAL_Driver/Src/stm32f4xx_hal_tim.c:854:292
	b	.LBB20_8
.Ltmp215:
.LBB20_8:
	.loc	7 854 294                       @ ../Drivers/STM32F4xx_HAL_Driver/Src/stm32f4xx_hal_tim.c:854:294
	b	.LBB20_9
.Ltmp216:
.LBB20_9:
	.loc	7 855 3 is_stmt 1               @ ../Drivers/STM32F4xx_HAL_Driver/Src/stm32f4xx_hal_tim.c:855:3
	b	.LBB20_10
.Ltmp217:
.LBB20_10:
	.loc	7 858 3                         @ ../Drivers/STM32F4xx_HAL_Driver/Src/stm32f4xx_hal_tim.c:858:3
	b	.LBB20_11
.LBB20_11:
.Ltmp218:
	.loc	7 858 14 is_stmt 0              @ ../Drivers/STM32F4xx_HAL_Driver/Src/stm32f4xx_hal_tim.c:858:14
	ldr	r0, [sp, #20]
	.loc	7 858 21                        @ ../Drivers/STM32F4xx_HAL_Driver/Src/stm32f4xx_hal_tim.c:858:21
	ldr	r0, [r0]
	.loc	7 858 31                        @ ../Drivers/STM32F4xx_HAL_Driver/Src/stm32f4xx_hal_tim.c:858:31
	ldr	r0, [r0, #32]
	movw	r1, #4369
.Ltmp219:
	.loc	7 858 12                        @ ../Drivers/STM32F4xx_HAL_Driver/Src/stm32f4xx_hal_tim.c:858:12
	tst	r0, r1
	bne	.LBB20_15
	b	.LBB20_12
.LBB20_12:
.Ltmp220:
	.loc	7 858 139                       @ ../Drivers/STM32F4xx_HAL_Driver/Src/stm32f4xx_hal_tim.c:858:139
	ldr	r0, [sp, #20]
	.loc	7 858 146                       @ ../Drivers/STM32F4xx_HAL_Driver/Src/stm32f4xx_hal_tim.c:858:146
	ldr	r0, [r0]
	.loc	7 858 156                       @ ../Drivers/STM32F4xx_HAL_Driver/Src/stm32f4xx_hal_tim.c:858:156
	ldr	r0, [r0, #32]
	movw	r1, #1092
.Ltmp221:
	.loc	7 858 137                       @ ../Drivers/STM32F4xx_HAL_Driver/Src/stm32f4xx_hal_tim.c:858:137
	tst	r0, r1
	bne	.LBB20_14
	b	.LBB20_13
.LBB20_13:
.Ltmp222:
	.loc	7 858 242                       @ ../Drivers/STM32F4xx_HAL_Driver/Src/stm32f4xx_hal_tim.c:858:242
	ldr	r0, [sp, #20]
	.loc	7 858 249                       @ ../Drivers/STM32F4xx_HAL_Driver/Src/stm32f4xx_hal_tim.c:858:249
	ldr	r1, [r0]
	.loc	7 858 263                       @ ../Drivers/STM32F4xx_HAL_Driver/Src/stm32f4xx_hal_tim.c:858:263
	ldr	r0, [r1]
	bic	r0, r0, #1
	str	r0, [r1]
	.loc	7 858 286                       @ ../Drivers/STM32F4xx_HAL_Driver/Src/stm32f4xx_hal_tim.c:858:286
	b	.LBB20_14
.Ltmp223:
.LBB20_14:
	.loc	7 858 288                       @ ../Drivers/STM32F4xx_HAL_Driver/Src/stm32f4xx_hal_tim.c:858:288
	b	.LBB20_15
.Ltmp224:
.LBB20_15:
	.loc	7 858 290                       @ ../Drivers/STM32F4xx_HAL_Driver/Src/stm32f4xx_hal_tim.c:858:290
	b	.LBB20_16
.Ltmp225:
.LBB20_16:
	.loc	7 861 6 is_stmt 1               @ ../Drivers/STM32F4xx_HAL_Driver/Src/stm32f4xx_hal_tim.c:861:6
	ldr	r0, [sp, #16]
	.loc	7 861 4 is_stmt 0               @ ../Drivers/STM32F4xx_HAL_Driver/Src/stm32f4xx_hal_tim.c:861:4
	cbnz	r0, .LBB20_18
	b	.LBB20_17
.LBB20_17:
	.loc	7 861 35                        @ ../Drivers/STM32F4xx_HAL_Driver/Src/stm32f4xx_hal_tim.c:861:35
	ldr	r1, [sp, #20]
	movs	r0, #1
	.loc	7 861 58                        @ ../Drivers/STM32F4xx_HAL_Driver/Src/stm32f4xx_hal_tim.c:861:58
	strb.w	r0, [r1, #62]
	.loc	7 861 4                         @ ../Drivers/STM32F4xx_HAL_Driver/Src/stm32f4xx_hal_tim.c:861:4
	b	.LBB20_25
.LBB20_18:
	.loc	7 861 95                        @ ../Drivers/STM32F4xx_HAL_Driver/Src/stm32f4xx_hal_tim.c:861:95
	ldr	r0, [sp, #16]
	.loc	7 861 93                        @ ../Drivers/STM32F4xx_HAL_Driver/Src/stm32f4xx_hal_tim.c:861:93
	cmp	r0, #4
	bne	.LBB20_20
	b	.LBB20_19
.LBB20_19:
	.loc	7 861 124                       @ ../Drivers/STM32F4xx_HAL_Driver/Src/stm32f4xx_hal_tim.c:861:124
	ldr	r1, [sp, #20]
	movs	r0, #1
	.loc	7 861 147                       @ ../Drivers/STM32F4xx_HAL_Driver/Src/stm32f4xx_hal_tim.c:861:147
	strb.w	r0, [r1, #63]
	.loc	7 861 93                        @ ../Drivers/STM32F4xx_HAL_Driver/Src/stm32f4xx_hal_tim.c:861:93
	str	r0, [sp, #8]                    @ 4-byte Spill
	b	.LBB20_24
.LBB20_20:
	.loc	7 861 184                       @ ../Drivers/STM32F4xx_HAL_Driver/Src/stm32f4xx_hal_tim.c:861:184
	ldr	r0, [sp, #16]
	.loc	7 861 182                       @ ../Drivers/STM32F4xx_HAL_Driver/Src/stm32f4xx_hal_tim.c:861:182
	cmp	r0, #8
	bne	.LBB20_22
	b	.LBB20_21
.LBB20_21:
	.loc	7 861 213                       @ ../Drivers/STM32F4xx_HAL_Driver/Src/stm32f4xx_hal_tim.c:861:213
	ldr	r1, [sp, #20]
	movs	r0, #1
	.loc	7 861 236                       @ ../Drivers/STM32F4xx_HAL_Driver/Src/stm32f4xx_hal_tim.c:861:236
	strb.w	r0, [r1, #64]
	.loc	7 861 182                       @ ../Drivers/STM32F4xx_HAL_Driver/Src/stm32f4xx_hal_tim.c:861:182
	str	r0, [sp, #4]                    @ 4-byte Spill
	b	.LBB20_23
.LBB20_22:
	.loc	7 861 273                       @ ../Drivers/STM32F4xx_HAL_Driver/Src/stm32f4xx_hal_tim.c:861:273
	ldr	r1, [sp, #20]
	movs	r0, #1
	.loc	7 861 296                       @ ../Drivers/STM32F4xx_HAL_Driver/Src/stm32f4xx_hal_tim.c:861:296
	strb.w	r0, [r1, #65]
	.loc	7 861 182                       @ ../Drivers/STM32F4xx_HAL_Driver/Src/stm32f4xx_hal_tim.c:861:182
	str	r0, [sp, #4]                    @ 4-byte Spill
	b	.LBB20_23
.LBB20_23:
	ldr	r0, [sp, #4]                    @ 4-byte Reload
	.loc	7 861 93                        @ ../Drivers/STM32F4xx_HAL_Driver/Src/stm32f4xx_hal_tim.c:861:93
	str	r0, [sp, #8]                    @ 4-byte Spill
	b	.LBB20_24
.LBB20_24:
	ldr	r0, [sp, #8]                    @ 4-byte Reload
	.loc	7 861 4                         @ ../Drivers/STM32F4xx_HAL_Driver/Src/stm32f4xx_hal_tim.c:861:4
	b	.LBB20_25
.LBB20_25:
	.loc	7 0 4                           @ ../Drivers/STM32F4xx_HAL_Driver/Src/stm32f4xx_hal_tim.c:0:4
	movs	r0, #0
	.loc	7 864 3 is_stmt 1               @ ../Drivers/STM32F4xx_HAL_Driver/Src/stm32f4xx_hal_tim.c:864:3
	add	sp, #24
	pop	{r7, pc}
.Ltmp226:
.Lfunc_end20:
	.size	HAL_TIM_OC_Stop, .Lfunc_end20-HAL_TIM_OC_Stop
	.cfi_endproc
	.cantunwind
	.fnend
                                        @ -- End function
	.section	.text.HAL_TIM_OC_Start_IT,"ax",%progbits
	.hidden	HAL_TIM_OC_Start_IT             @ -- Begin function HAL_TIM_OC_Start_IT
	.globl	HAL_TIM_OC_Start_IT
	.p2align	2
	.type	HAL_TIM_OC_Start_IT,%function
	.code	16                              @ @HAL_TIM_OC_Start_IT
	.thumb_func
HAL_TIM_OC_Start_IT:
.Lfunc_begin21:
	.loc	7 879 0                         @ ../Drivers/STM32F4xx_HAL_Driver/Src/stm32f4xx_hal_tim.c:879:0
	.fnstart
	.cfi_startproc
@ %bb.0:
	.save	{r7, lr}
	push	{r7, lr}
	.cfi_def_cfa_offset 8
	.cfi_offset lr, -4
	.cfi_offset r7, -8
	.pad	#56
	sub	sp, #56
	.cfi_def_cfa_offset 64
	str	r0, [sp, #48]
	str	r1, [sp, #44]
	movs	r0, #0
.Ltmp227:
	.loc	7 880 21 prologue_end           @ ../Drivers/STM32F4xx_HAL_Driver/Src/stm32f4xx_hal_tim.c:880:21
	strb.w	r0, [sp, #43]
.Ltmp228:
	.loc	7 887 10                        @ ../Drivers/STM32F4xx_HAL_Driver/Src/stm32f4xx_hal_tim.c:887:10
	ldr	r0, [sp, #44]
	.loc	7 887 8 is_stmt 0               @ ../Drivers/STM32F4xx_HAL_Driver/Src/stm32f4xx_hal_tim.c:887:8
	cbnz	r0, .LBB21_2
	b	.LBB21_1
.LBB21_1:
	.loc	7 887 38                        @ ../Drivers/STM32F4xx_HAL_Driver/Src/stm32f4xx_hal_tim.c:887:38
	ldr	r0, [sp, #48]
	.loc	7 887 37                        @ ../Drivers/STM32F4xx_HAL_Driver/Src/stm32f4xx_hal_tim.c:887:37
	ldrb.w	r0, [r0, #62]
	.loc	7 887 8                         @ ../Drivers/STM32F4xx_HAL_Driver/Src/stm32f4xx_hal_tim.c:887:8
	str	r0, [sp, #32]                   @ 4-byte Spill
	b	.LBB21_9
.LBB21_2:
	.loc	7 887 65                        @ ../Drivers/STM32F4xx_HAL_Driver/Src/stm32f4xx_hal_tim.c:887:65
	ldr	r0, [sp, #44]
	.loc	7 887 63                        @ ../Drivers/STM32F4xx_HAL_Driver/Src/stm32f4xx_hal_tim.c:887:63
	cmp	r0, #4
	bne	.LBB21_4
	b	.LBB21_3
.LBB21_3:
	.loc	7 887 93                        @ ../Drivers/STM32F4xx_HAL_Driver/Src/stm32f4xx_hal_tim.c:887:93
	ldr	r0, [sp, #48]
	.loc	7 887 92                        @ ../Drivers/STM32F4xx_HAL_Driver/Src/stm32f4xx_hal_tim.c:887:92
	ldrb.w	r0, [r0, #63]
	.loc	7 887 63                        @ ../Drivers/STM32F4xx_HAL_Driver/Src/stm32f4xx_hal_tim.c:887:63
	str	r0, [sp, #28]                   @ 4-byte Spill
	b	.LBB21_8
.LBB21_4:
	.loc	7 887 120                       @ ../Drivers/STM32F4xx_HAL_Driver/Src/stm32f4xx_hal_tim.c:887:120
	ldr	r0, [sp, #44]
	.loc	7 887 118                       @ ../Drivers/STM32F4xx_HAL_Driver/Src/stm32f4xx_hal_tim.c:887:118
	cmp	r0, #8
	bne	.LBB21_6
	b	.LBB21_5
.LBB21_5:
	.loc	7 887 148                       @ ../Drivers/STM32F4xx_HAL_Driver/Src/stm32f4xx_hal_tim.c:887:148
	ldr	r0, [sp, #48]
	.loc	7 887 147                       @ ../Drivers/STM32F4xx_HAL_Driver/Src/stm32f4xx_hal_tim.c:887:147
	ldrb.w	r0, [r0, #64]
	.loc	7 887 118                       @ ../Drivers/STM32F4xx_HAL_Driver/Src/stm32f4xx_hal_tim.c:887:118
	str	r0, [sp, #24]                   @ 4-byte Spill
	b	.LBB21_7
.LBB21_6:
	.loc	7 887 174                       @ ../Drivers/STM32F4xx_HAL_Driver/Src/stm32f4xx_hal_tim.c:887:174
	ldr	r0, [sp, #48]
	.loc	7 887 173                       @ ../Drivers/STM32F4xx_HAL_Driver/Src/stm32f4xx_hal_tim.c:887:173
	ldrb.w	r0, [r0, #65]
	.loc	7 887 118                       @ ../Drivers/STM32F4xx_HAL_Driver/Src/stm32f4xx_hal_tim.c:887:118
	str	r0, [sp, #24]                   @ 4-byte Spill
	b	.LBB21_7
.LBB21_7:
	ldr	r0, [sp, #24]                   @ 4-byte Reload
	.loc	7 887 63                        @ ../Drivers/STM32F4xx_HAL_Driver/Src/stm32f4xx_hal_tim.c:887:63
	str	r0, [sp, #28]                   @ 4-byte Spill
	b	.LBB21_8
.LBB21_8:
	ldr	r0, [sp, #28]                   @ 4-byte Reload
	.loc	7 887 8                         @ ../Drivers/STM32F4xx_HAL_Driver/Src/stm32f4xx_hal_tim.c:887:8
	str	r0, [sp, #32]                   @ 4-byte Spill
	b	.LBB21_9
.LBB21_9:
	ldr	r0, [sp, #32]                   @ 4-byte Reload
.Ltmp229:
	.loc	7 887 7                         @ ../Drivers/STM32F4xx_HAL_Driver/Src/stm32f4xx_hal_tim.c:887:7
	cmp	r0, #1
	beq	.LBB21_11
	b	.LBB21_10
.LBB21_10:
	.loc	7 0 7                           @ ../Drivers/STM32F4xx_HAL_Driver/Src/stm32f4xx_hal_tim.c:0:7
	movs	r0, #1
.Ltmp230:
	.loc	7 889 5 is_stmt 1               @ ../Drivers/STM32F4xx_HAL_Driver/Src/stm32f4xx_hal_tim.c:889:5
	strb.w	r0, [sp, #55]
	b	.LBB21_47
.Ltmp231:
.LBB21_11:
	.loc	7 893 6                         @ ../Drivers/STM32F4xx_HAL_Driver/Src/stm32f4xx_hal_tim.c:893:6
	ldr	r0, [sp, #44]
	.loc	7 893 4 is_stmt 0               @ ../Drivers/STM32F4xx_HAL_Driver/Src/stm32f4xx_hal_tim.c:893:4
	cbnz	r0, .LBB21_13
	b	.LBB21_12
.LBB21_12:
	.loc	7 893 35                        @ ../Drivers/STM32F4xx_HAL_Driver/Src/stm32f4xx_hal_tim.c:893:35
	ldr	r1, [sp, #48]
	movs	r0, #2
	.loc	7 893 58                        @ ../Drivers/STM32F4xx_HAL_Driver/Src/stm32f4xx_hal_tim.c:893:58
	strb.w	r0, [r1, #62]
	.loc	7 893 4                         @ ../Drivers/STM32F4xx_HAL_Driver/Src/stm32f4xx_hal_tim.c:893:4
	b	.LBB21_20
.LBB21_13:
	.loc	7 893 94                        @ ../Drivers/STM32F4xx_HAL_Driver/Src/stm32f4xx_hal_tim.c:893:94
	ldr	r0, [sp, #44]
	.loc	7 893 92                        @ ../Drivers/STM32F4xx_HAL_Driver/Src/stm32f4xx_hal_tim.c:893:92
	cmp	r0, #4
	bne	.LBB21_15
	b	.LBB21_14
.LBB21_14:
	.loc	7 893 123                       @ ../Drivers/STM32F4xx_HAL_Driver/Src/stm32f4xx_hal_tim.c:893:123
	ldr	r1, [sp, #48]
	movs	r0, #2
	.loc	7 893 146                       @ ../Drivers/STM32F4xx_HAL_Driver/Src/stm32f4xx_hal_tim.c:893:146
	strb.w	r0, [r1, #63]
	.loc	7 893 92                        @ ../Drivers/STM32F4xx_HAL_Driver/Src/stm32f4xx_hal_tim.c:893:92
	str	r0, [sp, #20]                   @ 4-byte Spill
	b	.LBB21_19
.LBB21_15:
	.loc	7 893 182                       @ ../Drivers/STM32F4xx_HAL_Driver/Src/stm32f4xx_hal_tim.c:893:182
	ldr	r0, [sp, #44]
	.loc	7 893 180                       @ ../Drivers/STM32F4xx_HAL_Driver/Src/stm32f4xx_hal_tim.c:893:180
	cmp	r0, #8
	bne	.LBB21_17
	b	.LBB21_16
.LBB21_16:
	.loc	7 893 211                       @ ../Drivers/STM32F4xx_HAL_Driver/Src/stm32f4xx_hal_tim.c:893:211
	ldr	r1, [sp, #48]
	movs	r0, #2
	.loc	7 893 234                       @ ../Drivers/STM32F4xx_HAL_Driver/Src/stm32f4xx_hal_tim.c:893:234
	strb.w	r0, [r1, #64]
	.loc	7 893 180                       @ ../Drivers/STM32F4xx_HAL_Driver/Src/stm32f4xx_hal_tim.c:893:180
	str	r0, [sp, #16]                   @ 4-byte Spill
	b	.LBB21_18
.LBB21_17:
	.loc	7 893 270                       @ ../Drivers/STM32F4xx_HAL_Driver/Src/stm32f4xx_hal_tim.c:893:270
	ldr	r1, [sp, #48]
	movs	r0, #2
	.loc	7 893 293                       @ ../Drivers/STM32F4xx_HAL_Driver/Src/stm32f4xx_hal_tim.c:893:293
	strb.w	r0, [r1, #65]
	.loc	7 893 180                       @ ../Drivers/STM32F4xx_HAL_Driver/Src/stm32f4xx_hal_tim.c:893:180
	str	r0, [sp, #16]                   @ 4-byte Spill
	b	.LBB21_18
.LBB21_18:
	ldr	r0, [sp, #16]                   @ 4-byte Reload
	.loc	7 893 92                        @ ../Drivers/STM32F4xx_HAL_Driver/Src/stm32f4xx_hal_tim.c:893:92
	str	r0, [sp, #20]                   @ 4-byte Spill
	b	.LBB21_19
.LBB21_19:
	ldr	r0, [sp, #20]                   @ 4-byte Reload
	.loc	7 893 4                         @ ../Drivers/STM32F4xx_HAL_Driver/Src/stm32f4xx_hal_tim.c:893:4
	b	.LBB21_20
.LBB21_20:
	.loc	7 895 11 is_stmt 1              @ ../Drivers/STM32F4xx_HAL_Driver/Src/stm32f4xx_hal_tim.c:895:11
	ldr	r0, [sp, #44]
	.loc	7 895 3 is_stmt 0               @ ../Drivers/STM32F4xx_HAL_Driver/Src/stm32f4xx_hal_tim.c:895:3
	str	r0, [sp, #12]                   @ 4-byte Spill
	cmp	r0, #12
	bhi	.LBB21_27
@ %bb.21:
	.loc	7 0 3                           @ ../Drivers/STM32F4xx_HAL_Driver/Src/stm32f4xx_hal_tim.c:0:3
	ldr	r1, [sp, #12]                   @ 4-byte Reload
.LCPI21_0:
	tbb	[pc, r1]
@ %bb.22:
.LJTI21_0:
	.byte	(.LBB21_23-(.LCPI21_0+4))/2
	.byte	(.LBB21_27-(.LCPI21_0+4))/2
	.byte	(.LBB21_27-(.LCPI21_0+4))/2
	.byte	(.LBB21_27-(.LCPI21_0+4))/2
	.byte	(.LBB21_24-(.LCPI21_0+4))/2
	.byte	(.LBB21_27-(.LCPI21_0+4))/2
	.byte	(.LBB21_27-(.LCPI21_0+4))/2
	.byte	(.LBB21_27-(.LCPI21_0+4))/2
	.byte	(.LBB21_25-(.LCPI21_0+4))/2
	.byte	(.LBB21_27-(.LCPI21_0+4))/2
	.byte	(.LBB21_27-(.LCPI21_0+4))/2
	.byte	(.LBB21_27-(.LCPI21_0+4))/2
	.byte	(.LBB21_26-(.LCPI21_0+4))/2
	.p2align	1
.LBB21_23:
.Ltmp232:
	.loc	7 900 9 is_stmt 1               @ ../Drivers/STM32F4xx_HAL_Driver/Src/stm32f4xx_hal_tim.c:900:9
	ldr	r0, [sp, #48]
	.loc	7 900 16 is_stmt 0              @ ../Drivers/STM32F4xx_HAL_Driver/Src/stm32f4xx_hal_tim.c:900:16
	ldr	r1, [r0]
	.loc	7 900 31                        @ ../Drivers/STM32F4xx_HAL_Driver/Src/stm32f4xx_hal_tim.c:900:31
	ldr	r0, [r1, #12]
	orr	r0, r0, #2
	str	r0, [r1, #12]
	.loc	7 901 7 is_stmt 1               @ ../Drivers/STM32F4xx_HAL_Driver/Src/stm32f4xx_hal_tim.c:901:7
	b	.LBB21_28
.Ltmp233:
.LBB21_24:
	.loc	7 907 9                         @ ../Drivers/STM32F4xx_HAL_Driver/Src/stm32f4xx_hal_tim.c:907:9
	ldr	r0, [sp, #48]
	.loc	7 907 16 is_stmt 0              @ ../Drivers/STM32F4xx_HAL_Driver/Src/stm32f4xx_hal_tim.c:907:16
	ldr	r1, [r0]
	.loc	7 907 31                        @ ../Drivers/STM32F4xx_HAL_Driver/Src/stm32f4xx_hal_tim.c:907:31
	ldr	r0, [r1, #12]
	orr	r0, r0, #4
	str	r0, [r1, #12]
	.loc	7 908 7 is_stmt 1               @ ../Drivers/STM32F4xx_HAL_Driver/Src/stm32f4xx_hal_tim.c:908:7
	b	.LBB21_28
.Ltmp234:
.LBB21_25:
	.loc	7 914 9                         @ ../Drivers/STM32F4xx_HAL_Driver/Src/stm32f4xx_hal_tim.c:914:9
	ldr	r0, [sp, #48]
	.loc	7 914 16 is_stmt 0              @ ../Drivers/STM32F4xx_HAL_Driver/Src/stm32f4xx_hal_tim.c:914:16
	ldr	r1, [r0]
	.loc	7 914 31                        @ ../Drivers/STM32F4xx_HAL_Driver/Src/stm32f4xx_hal_tim.c:914:31
	ldr	r0, [r1, #12]
	orr	r0, r0, #8
	str	r0, [r1, #12]
	.loc	7 915 7 is_stmt 1               @ ../Drivers/STM32F4xx_HAL_Driver/Src/stm32f4xx_hal_tim.c:915:7
	b	.LBB21_28
.Ltmp235:
.LBB21_26:
	.loc	7 921 9                         @ ../Drivers/STM32F4xx_HAL_Driver/Src/stm32f4xx_hal_tim.c:921:9
	ldr	r0, [sp, #48]
	.loc	7 921 16 is_stmt 0              @ ../Drivers/STM32F4xx_HAL_Driver/Src/stm32f4xx_hal_tim.c:921:16
	ldr	r1, [r0]
	.loc	7 921 31                        @ ../Drivers/STM32F4xx_HAL_Driver/Src/stm32f4xx_hal_tim.c:921:31
	ldr	r0, [r1, #12]
	orr	r0, r0, #16
	str	r0, [r1, #12]
	.loc	7 922 7 is_stmt 1               @ ../Drivers/STM32F4xx_HAL_Driver/Src/stm32f4xx_hal_tim.c:922:7
	b	.LBB21_28
.Ltmp236:
.LBB21_27:
	.loc	7 0 7 is_stmt 0                 @ ../Drivers/STM32F4xx_HAL_Driver/Src/stm32f4xx_hal_tim.c:0:7
	movs	r0, #1
	.loc	7 926 14 is_stmt 1              @ ../Drivers/STM32F4xx_HAL_Driver/Src/stm32f4xx_hal_tim.c:926:14
	strb.w	r0, [sp, #43]
	.loc	7 927 7                         @ ../Drivers/STM32F4xx_HAL_Driver/Src/stm32f4xx_hal_tim.c:927:7
	b	.LBB21_28
.Ltmp237:
.LBB21_28:
	.loc	7 930 7                         @ ../Drivers/STM32F4xx_HAL_Driver/Src/stm32f4xx_hal_tim.c:930:7
	ldrb.w	r0, [sp, #43]
.Ltmp238:
	.loc	7 930 7 is_stmt 0               @ ../Drivers/STM32F4xx_HAL_Driver/Src/stm32f4xx_hal_tim.c:930:7
	cmp	r0, #0
	bne.w	.LBB21_46
	b	.LBB21_29
.LBB21_29:
.Ltmp239:
	.loc	7 933 23 is_stmt 1              @ ../Drivers/STM32F4xx_HAL_Driver/Src/stm32f4xx_hal_tim.c:933:23
	ldr	r0, [sp, #48]
	.loc	7 933 29 is_stmt 0              @ ../Drivers/STM32F4xx_HAL_Driver/Src/stm32f4xx_hal_tim.c:933:29
	ldr	r0, [r0]
	.loc	7 933 39                        @ ../Drivers/STM32F4xx_HAL_Driver/Src/stm32f4xx_hal_tim.c:933:39
	ldr	r1, [sp, #44]
	movs	r2, #1
	.loc	7 933 5                         @ ../Drivers/STM32F4xx_HAL_Driver/Src/stm32f4xx_hal_tim.c:933:5
	str	r2, [sp, #4]                    @ 4-byte Spill
	bl	TIM_CCxChannelCmd
	ldr	r0, [sp, #4]                    @ 4-byte Reload
.Ltmp240:
	.loc	7 935 12 is_stmt 1              @ ../Drivers/STM32F4xx_HAL_Driver/Src/stm32f4xx_hal_tim.c:935:12
	ldr	r1, [sp, #48]
	.loc	7 935 18 is_stmt 0              @ ../Drivers/STM32F4xx_HAL_Driver/Src/stm32f4xx_hal_tim.c:935:18
	ldr	r1, [r1]
	movs	r2, #0
	movt	r2, #16385
	.loc	7 935 93                        @ ../Drivers/STM32F4xx_HAL_Driver/Src/stm32f4xx_hal_tim.c:935:93
	cmp	r1, r2
	str	r0, [sp, #8]                    @ 4-byte Spill
	beq	.LBB21_31
	b	.LBB21_30
.LBB21_30:
	.loc	7 935 98                        @ ../Drivers/STM32F4xx_HAL_Driver/Src/stm32f4xx_hal_tim.c:935:98
	ldr	r0, [sp, #48]
	.loc	7 935 104                       @ ../Drivers/STM32F4xx_HAL_Driver/Src/stm32f4xx_hal_tim.c:935:104
	ldr	r0, [r0]
	movw	r1, #64512
	movt	r1, #49150
	.loc	7 935 114                       @ ../Drivers/STM32F4xx_HAL_Driver/Src/stm32f4xx_hal_tim.c:935:114
	add	r0, r1
	clz	r0, r0
	lsrs	r0, r0, #5
	.loc	7 935 93                        @ ../Drivers/STM32F4xx_HAL_Driver/Src/stm32f4xx_hal_tim.c:935:93
	str	r0, [sp, #8]                    @ 4-byte Spill
	b	.LBB21_31
.Ltmp241:
.LBB21_31:
	.loc	7 0 93                          @ ../Drivers/STM32F4xx_HAL_Driver/Src/stm32f4xx_hal_tim.c:0:93
	ldr	r0, [sp, #8]                    @ 4-byte Reload
	.loc	7 935 9                         @ ../Drivers/STM32F4xx_HAL_Driver/Src/stm32f4xx_hal_tim.c:935:9
	lsls	r0, r0, #31
	cbz	r0, .LBB21_33
	b	.LBB21_32
.LBB21_32:
.Ltmp242:
	.loc	7 938 9 is_stmt 1               @ ../Drivers/STM32F4xx_HAL_Driver/Src/stm32f4xx_hal_tim.c:938:9
	ldr	r0, [sp, #48]
	.loc	7 938 16 is_stmt 0              @ ../Drivers/STM32F4xx_HAL_Driver/Src/stm32f4xx_hal_tim.c:938:16
	ldr	r1, [r0]
	.loc	7 938 30                        @ ../Drivers/STM32F4xx_HAL_Driver/Src/stm32f4xx_hal_tim.c:938:30
	ldr	r0, [r1, #68]
	orr	r0, r0, #32768
	str	r0, [r1, #68]
	.loc	7 939 5 is_stmt 1               @ ../Drivers/STM32F4xx_HAL_Driver/Src/stm32f4xx_hal_tim.c:939:5
	b	.LBB21_33
.Ltmp243:
.LBB21_33:
	.loc	7 942 12                        @ ../Drivers/STM32F4xx_HAL_Driver/Src/stm32f4xx_hal_tim.c:942:12
	ldr	r0, [sp, #48]
	.loc	7 942 18 is_stmt 0              @ ../Drivers/STM32F4xx_HAL_Driver/Src/stm32f4xx_hal_tim.c:942:18
	ldr	r0, [r0]
	movs	r1, #0
	movt	r1, #16385
	.loc	7 942 93                        @ ../Drivers/STM32F4xx_HAL_Driver/Src/stm32f4xx_hal_tim.c:942:93
	cmp	r0, r1
	beq	.LBB21_41
	b	.LBB21_34
.LBB21_34:
	.loc	7 942 98                        @ ../Drivers/STM32F4xx_HAL_Driver/Src/stm32f4xx_hal_tim.c:942:98
	ldr	r0, [sp, #48]
	.loc	7 942 104                       @ ../Drivers/STM32F4xx_HAL_Driver/Src/stm32f4xx_hal_tim.c:942:104
	ldr	r0, [r0]
	.loc	7 942 162                       @ ../Drivers/STM32F4xx_HAL_Driver/Src/stm32f4xx_hal_tim.c:942:162
	cmp.w	r0, #1073741824
	beq	.LBB21_41
	b	.LBB21_35
.LBB21_35:
	.loc	7 942 167                       @ ../Drivers/STM32F4xx_HAL_Driver/Src/stm32f4xx_hal_tim.c:942:167
	ldr	r0, [sp, #48]
	.loc	7 942 173                       @ ../Drivers/STM32F4xx_HAL_Driver/Src/stm32f4xx_hal_tim.c:942:173
	ldr	r0, [r0]
	movw	r1, #1024
	movt	r1, #16384
	.loc	7 942 231                       @ ../Drivers/STM32F4xx_HAL_Driver/Src/stm32f4xx_hal_tim.c:942:231
	cmp	r0, r1
	beq	.LBB21_41
	b	.LBB21_36
.LBB21_36:
	.loc	7 942 236                       @ ../Drivers/STM32F4xx_HAL_Driver/Src/stm32f4xx_hal_tim.c:942:236
	ldr	r0, [sp, #48]
	.loc	7 942 242                       @ ../Drivers/STM32F4xx_HAL_Driver/Src/stm32f4xx_hal_tim.c:942:242
	ldr	r0, [r0]
	movw	r1, #2048
	movt	r1, #16384
	.loc	7 942 300                       @ ../Drivers/STM32F4xx_HAL_Driver/Src/stm32f4xx_hal_tim.c:942:300
	cmp	r0, r1
	beq	.LBB21_41
	b	.LBB21_37
.LBB21_37:
	.loc	7 942 305                       @ ../Drivers/STM32F4xx_HAL_Driver/Src/stm32f4xx_hal_tim.c:942:305
	ldr	r0, [sp, #48]
	.loc	7 942 311                       @ ../Drivers/STM32F4xx_HAL_Driver/Src/stm32f4xx_hal_tim.c:942:311
	ldr	r0, [r0]
	movw	r1, #3072
	movt	r1, #16384
	.loc	7 942 369                       @ ../Drivers/STM32F4xx_HAL_Driver/Src/stm32f4xx_hal_tim.c:942:369
	cmp	r0, r1
	beq	.LBB21_41
	b	.LBB21_38
.LBB21_38:
	.loc	7 942 374                       @ ../Drivers/STM32F4xx_HAL_Driver/Src/stm32f4xx_hal_tim.c:942:374
	ldr	r0, [sp, #48]
	.loc	7 942 380                       @ ../Drivers/STM32F4xx_HAL_Driver/Src/stm32f4xx_hal_tim.c:942:380
	ldr	r0, [r0]
	movw	r1, #1024
	movt	r1, #16385
	.loc	7 942 455                       @ ../Drivers/STM32F4xx_HAL_Driver/Src/stm32f4xx_hal_tim.c:942:455
	cmp	r0, r1
	beq	.LBB21_41
	b	.LBB21_39
.LBB21_39:
	.loc	7 942 460                       @ ../Drivers/STM32F4xx_HAL_Driver/Src/stm32f4xx_hal_tim.c:942:460
	ldr	r0, [sp, #48]
	.loc	7 942 466                       @ ../Drivers/STM32F4xx_HAL_Driver/Src/stm32f4xx_hal_tim.c:942:466
	ldr	r0, [r0]
	movw	r1, #16384
	movt	r1, #16385
	.loc	7 942 541                       @ ../Drivers/STM32F4xx_HAL_Driver/Src/stm32f4xx_hal_tim.c:942:541
	cmp	r0, r1
	beq	.LBB21_41
	b	.LBB21_40
.LBB21_40:
	.loc	7 942 546                       @ ../Drivers/STM32F4xx_HAL_Driver/Src/stm32f4xx_hal_tim.c:942:546
	ldr	r0, [sp, #48]
	.loc	7 942 552                       @ ../Drivers/STM32F4xx_HAL_Driver/Src/stm32f4xx_hal_tim.c:942:552
	ldr	r0, [r0]
	movw	r1, #6144
	movt	r1, #16384
.Ltmp244:
	.loc	7 942 9                         @ ../Drivers/STM32F4xx_HAL_Driver/Src/stm32f4xx_hal_tim.c:942:9
	cmp	r0, r1
	bne	.LBB21_44
	b	.LBB21_41
.LBB21_41:
.Ltmp245:
	.loc	7 944 17 is_stmt 1              @ ../Drivers/STM32F4xx_HAL_Driver/Src/stm32f4xx_hal_tim.c:944:17
	ldr	r0, [sp, #48]
	.loc	7 944 23 is_stmt 0              @ ../Drivers/STM32F4xx_HAL_Driver/Src/stm32f4xx_hal_tim.c:944:23
	ldr	r0, [r0]
	.loc	7 944 33                        @ ../Drivers/STM32F4xx_HAL_Driver/Src/stm32f4xx_hal_tim.c:944:33
	ldr	r0, [r0, #8]
	.loc	7 944 38                        @ ../Drivers/STM32F4xx_HAL_Driver/Src/stm32f4xx_hal_tim.c:944:38
	and	r0, r0, #7
	.loc	7 944 15                        @ ../Drivers/STM32F4xx_HAL_Driver/Src/stm32f4xx_hal_tim.c:944:15
	str	r0, [sp, #36]
.Ltmp246:
	.loc	7 945 14 is_stmt 1              @ ../Drivers/STM32F4xx_HAL_Driver/Src/stm32f4xx_hal_tim.c:945:14
	ldr	r0, [sp, #36]
.Ltmp247:
	.loc	7 945 11 is_stmt 0              @ ../Drivers/STM32F4xx_HAL_Driver/Src/stm32f4xx_hal_tim.c:945:11
	cmp	r0, #6
	beq	.LBB21_43
	b	.LBB21_42
.LBB21_42:
.Ltmp248:
	.loc	7 947 11 is_stmt 1              @ ../Drivers/STM32F4xx_HAL_Driver/Src/stm32f4xx_hal_tim.c:947:11
	ldr	r0, [sp, #48]
	.loc	7 947 18 is_stmt 0              @ ../Drivers/STM32F4xx_HAL_Driver/Src/stm32f4xx_hal_tim.c:947:18
	ldr	r1, [r0]
	.loc	7 947 31                        @ ../Drivers/STM32F4xx_HAL_Driver/Src/stm32f4xx_hal_tim.c:947:31
	ldr	r0, [r1]
	orr	r0, r0, #1
	str	r0, [r1]
	.loc	7 948 7 is_stmt 1               @ ../Drivers/STM32F4xx_HAL_Driver/Src/stm32f4xx_hal_tim.c:948:7
	b	.LBB21_43
.Ltmp249:
.LBB21_43:
	.loc	7 949 5                         @ ../Drivers/STM32F4xx_HAL_Driver/Src/stm32f4xx_hal_tim.c:949:5
	b	.LBB21_45
.Ltmp250:
.LBB21_44:
	.loc	7 952 9                         @ ../Drivers/STM32F4xx_HAL_Driver/Src/stm32f4xx_hal_tim.c:952:9
	ldr	r0, [sp, #48]
	.loc	7 952 16 is_stmt 0              @ ../Drivers/STM32F4xx_HAL_Driver/Src/stm32f4xx_hal_tim.c:952:16
	ldr	r1, [r0]
	.loc	7 952 29                        @ ../Drivers/STM32F4xx_HAL_Driver/Src/stm32f4xx_hal_tim.c:952:29
	ldr	r0, [r1]
	orr	r0, r0, #1
	str	r0, [r1]
	b	.LBB21_45
.Ltmp251:
.LBB21_45:
	.loc	7 954 3 is_stmt 1               @ ../Drivers/STM32F4xx_HAL_Driver/Src/stm32f4xx_hal_tim.c:954:3
	b	.LBB21_46
.Ltmp252:
.LBB21_46:
	.loc	7 957 10                        @ ../Drivers/STM32F4xx_HAL_Driver/Src/stm32f4xx_hal_tim.c:957:10
	ldrb.w	r0, [sp, #43]
	.loc	7 957 3 is_stmt 0               @ ../Drivers/STM32F4xx_HAL_Driver/Src/stm32f4xx_hal_tim.c:957:3
	strb.w	r0, [sp, #55]
	b	.LBB21_47
.LBB21_47:
	.loc	7 958 1 is_stmt 1               @ ../Drivers/STM32F4xx_HAL_Driver/Src/stm32f4xx_hal_tim.c:958:1
	ldrb.w	r0, [sp, #55]
	add	sp, #56
	pop	{r7, pc}
.Ltmp253:
.Lfunc_end21:
	.size	HAL_TIM_OC_Start_IT, .Lfunc_end21-HAL_TIM_OC_Start_IT
	.cfi_endproc
	.cantunwind
	.fnend
                                        @ -- End function
	.section	.text.HAL_TIM_OC_Stop_IT,"ax",%progbits
	.hidden	HAL_TIM_OC_Stop_IT              @ -- Begin function HAL_TIM_OC_Stop_IT
	.globl	HAL_TIM_OC_Stop_IT
	.p2align	2
	.type	HAL_TIM_OC_Stop_IT,%function
	.code	16                              @ @HAL_TIM_OC_Stop_IT
	.thumb_func
HAL_TIM_OC_Stop_IT:
.Lfunc_begin22:
	.loc	7 972 0                         @ ../Drivers/STM32F4xx_HAL_Driver/Src/stm32f4xx_hal_tim.c:972:0
	.fnstart
	.cfi_startproc
@ %bb.0:
	.save	{r7, lr}
	push	{r7, lr}
	.cfi_def_cfa_offset 8
	.cfi_offset lr, -4
	.cfi_offset r7, -8
	.pad	#32
	sub	sp, #32
	.cfi_def_cfa_offset 40
	str	r0, [sp, #28]
	str	r1, [sp, #24]
	movs	r0, #0
.Ltmp254:
	.loc	7 973 21 prologue_end           @ ../Drivers/STM32F4xx_HAL_Driver/Src/stm32f4xx_hal_tim.c:973:21
	strb.w	r0, [sp, #23]
	.loc	7 978 11                        @ ../Drivers/STM32F4xx_HAL_Driver/Src/stm32f4xx_hal_tim.c:978:11
	ldr	r0, [sp, #24]
	.loc	7 978 3 is_stmt 0               @ ../Drivers/STM32F4xx_HAL_Driver/Src/stm32f4xx_hal_tim.c:978:3
	str	r0, [sp, #16]                   @ 4-byte Spill
	cmp	r0, #12
	bhi	.LBB22_7
@ %bb.1:
	.loc	7 0 3                           @ ../Drivers/STM32F4xx_HAL_Driver/Src/stm32f4xx_hal_tim.c:0:3
	ldr	r1, [sp, #16]                   @ 4-byte Reload
.LCPI22_0:
	tbb	[pc, r1]
@ %bb.2:
.LJTI22_0:
	.byte	(.LBB22_3-(.LCPI22_0+4))/2
	.byte	(.LBB22_7-(.LCPI22_0+4))/2
	.byte	(.LBB22_7-(.LCPI22_0+4))/2
	.byte	(.LBB22_7-(.LCPI22_0+4))/2
	.byte	(.LBB22_4-(.LCPI22_0+4))/2
	.byte	(.LBB22_7-(.LCPI22_0+4))/2
	.byte	(.LBB22_7-(.LCPI22_0+4))/2
	.byte	(.LBB22_7-(.LCPI22_0+4))/2
	.byte	(.LBB22_5-(.LCPI22_0+4))/2
	.byte	(.LBB22_7-(.LCPI22_0+4))/2
	.byte	(.LBB22_7-(.LCPI22_0+4))/2
	.byte	(.LBB22_7-(.LCPI22_0+4))/2
	.byte	(.LBB22_6-(.LCPI22_0+4))/2
	.p2align	1
.LBB22_3:
.Ltmp255:
	.loc	7 983 9 is_stmt 1               @ ../Drivers/STM32F4xx_HAL_Driver/Src/stm32f4xx_hal_tim.c:983:9
	ldr	r0, [sp, #28]
	.loc	7 983 16 is_stmt 0              @ ../Drivers/STM32F4xx_HAL_Driver/Src/stm32f4xx_hal_tim.c:983:16
	ldr	r1, [r0]
	.loc	7 983 31                        @ ../Drivers/STM32F4xx_HAL_Driver/Src/stm32f4xx_hal_tim.c:983:31
	ldr	r0, [r1, #12]
	bic	r0, r0, #2
	str	r0, [r1, #12]
	.loc	7 984 7 is_stmt 1               @ ../Drivers/STM32F4xx_HAL_Driver/Src/stm32f4xx_hal_tim.c:984:7
	b	.LBB22_8
.Ltmp256:
.LBB22_4:
	.loc	7 990 9                         @ ../Drivers/STM32F4xx_HAL_Driver/Src/stm32f4xx_hal_tim.c:990:9
	ldr	r0, [sp, #28]
	.loc	7 990 16 is_stmt 0              @ ../Drivers/STM32F4xx_HAL_Driver/Src/stm32f4xx_hal_tim.c:990:16
	ldr	r1, [r0]
	.loc	7 990 31                        @ ../Drivers/STM32F4xx_HAL_Driver/Src/stm32f4xx_hal_tim.c:990:31
	ldr	r0, [r1, #12]
	bic	r0, r0, #4
	str	r0, [r1, #12]
	.loc	7 991 7 is_stmt 1               @ ../Drivers/STM32F4xx_HAL_Driver/Src/stm32f4xx_hal_tim.c:991:7
	b	.LBB22_8
.Ltmp257:
.LBB22_5:
	.loc	7 997 9                         @ ../Drivers/STM32F4xx_HAL_Driver/Src/stm32f4xx_hal_tim.c:997:9
	ldr	r0, [sp, #28]
	.loc	7 997 16 is_stmt 0              @ ../Drivers/STM32F4xx_HAL_Driver/Src/stm32f4xx_hal_tim.c:997:16
	ldr	r1, [r0]
	.loc	7 997 31                        @ ../Drivers/STM32F4xx_HAL_Driver/Src/stm32f4xx_hal_tim.c:997:31
	ldr	r0, [r1, #12]
	bic	r0, r0, #8
	str	r0, [r1, #12]
	.loc	7 998 7 is_stmt 1               @ ../Drivers/STM32F4xx_HAL_Driver/Src/stm32f4xx_hal_tim.c:998:7
	b	.LBB22_8
.Ltmp258:
.LBB22_6:
	.loc	7 1004 9                        @ ../Drivers/STM32F4xx_HAL_Driver/Src/stm32f4xx_hal_tim.c:1004:9
	ldr	r0, [sp, #28]
	.loc	7 1004 16 is_stmt 0             @ ../Drivers/STM32F4xx_HAL_Driver/Src/stm32f4xx_hal_tim.c:1004:16
	ldr	r1, [r0]
	.loc	7 1004 31                       @ ../Drivers/STM32F4xx_HAL_Driver/Src/stm32f4xx_hal_tim.c:1004:31
	ldr	r0, [r1, #12]
	bic	r0, r0, #16
	str	r0, [r1, #12]
	.loc	7 1005 7 is_stmt 1              @ ../Drivers/STM32F4xx_HAL_Driver/Src/stm32f4xx_hal_tim.c:1005:7
	b	.LBB22_8
.Ltmp259:
.LBB22_7:
	.loc	7 0 7 is_stmt 0                 @ ../Drivers/STM32F4xx_HAL_Driver/Src/stm32f4xx_hal_tim.c:0:7
	movs	r0, #1
	.loc	7 1009 14 is_stmt 1             @ ../Drivers/STM32F4xx_HAL_Driver/Src/stm32f4xx_hal_tim.c:1009:14
	strb.w	r0, [sp, #23]
	.loc	7 1010 7                        @ ../Drivers/STM32F4xx_HAL_Driver/Src/stm32f4xx_hal_tim.c:1010:7
	b	.LBB22_8
.Ltmp260:
.LBB22_8:
	.loc	7 1013 7                        @ ../Drivers/STM32F4xx_HAL_Driver/Src/stm32f4xx_hal_tim.c:1013:7
	ldrb.w	r0, [sp, #23]
.Ltmp261:
	.loc	7 1013 7 is_stmt 0              @ ../Drivers/STM32F4xx_HAL_Driver/Src/stm32f4xx_hal_tim.c:1013:7
	cmp	r0, #0
	bne	.LBB22_35
	b	.LBB22_9
.LBB22_9:
.Ltmp262:
	.loc	7 1016 23 is_stmt 1             @ ../Drivers/STM32F4xx_HAL_Driver/Src/stm32f4xx_hal_tim.c:1016:23
	ldr	r0, [sp, #28]
	.loc	7 1016 29 is_stmt 0             @ ../Drivers/STM32F4xx_HAL_Driver/Src/stm32f4xx_hal_tim.c:1016:29
	ldr	r0, [r0]
	.loc	7 1016 39                       @ ../Drivers/STM32F4xx_HAL_Driver/Src/stm32f4xx_hal_tim.c:1016:39
	ldr	r1, [sp, #24]
	movs	r2, #0
	.loc	7 1016 5                        @ ../Drivers/STM32F4xx_HAL_Driver/Src/stm32f4xx_hal_tim.c:1016:5
	bl	TIM_CCxChannelCmd
.Ltmp263:
	.loc	7 1018 12 is_stmt 1             @ ../Drivers/STM32F4xx_HAL_Driver/Src/stm32f4xx_hal_tim.c:1018:12
	ldr	r0, [sp, #28]
	.loc	7 1018 18 is_stmt 0             @ ../Drivers/STM32F4xx_HAL_Driver/Src/stm32f4xx_hal_tim.c:1018:18
	ldr	r1, [r0]
	movs	r0, #1
	movs	r2, #0
	movt	r2, #16385
	.loc	7 1018 93                       @ ../Drivers/STM32F4xx_HAL_Driver/Src/stm32f4xx_hal_tim.c:1018:93
	cmp	r1, r2
	str	r0, [sp, #12]                   @ 4-byte Spill
	beq	.LBB22_11
	b	.LBB22_10
.LBB22_10:
	.loc	7 1018 98                       @ ../Drivers/STM32F4xx_HAL_Driver/Src/stm32f4xx_hal_tim.c:1018:98
	ldr	r0, [sp, #28]
	.loc	7 1018 104                      @ ../Drivers/STM32F4xx_HAL_Driver/Src/stm32f4xx_hal_tim.c:1018:104
	ldr	r0, [r0]
	movw	r1, #64512
	movt	r1, #49150
	.loc	7 1018 114                      @ ../Drivers/STM32F4xx_HAL_Driver/Src/stm32f4xx_hal_tim.c:1018:114
	add	r0, r1
	clz	r0, r0
	lsrs	r0, r0, #5
	.loc	7 1018 93                       @ ../Drivers/STM32F4xx_HAL_Driver/Src/stm32f4xx_hal_tim.c:1018:93
	str	r0, [sp, #12]                   @ 4-byte Spill
	b	.LBB22_11
.Ltmp264:
.LBB22_11:
	.loc	7 0 93                          @ ../Drivers/STM32F4xx_HAL_Driver/Src/stm32f4xx_hal_tim.c:0:93
	ldr	r0, [sp, #12]                   @ 4-byte Reload
	.loc	7 1018 9                        @ ../Drivers/STM32F4xx_HAL_Driver/Src/stm32f4xx_hal_tim.c:1018:9
	lsls	r0, r0, #31
	cbz	r0, .LBB22_19
	b	.LBB22_12
.LBB22_12:
.Ltmp265:
	.loc	7 1021 7 is_stmt 1              @ ../Drivers/STM32F4xx_HAL_Driver/Src/stm32f4xx_hal_tim.c:1021:7
	b	.LBB22_13
.LBB22_13:
.Ltmp266:
	.loc	7 1021 18 is_stmt 0             @ ../Drivers/STM32F4xx_HAL_Driver/Src/stm32f4xx_hal_tim.c:1021:18
	ldr	r0, [sp, #28]
	.loc	7 1021 25                       @ ../Drivers/STM32F4xx_HAL_Driver/Src/stm32f4xx_hal_tim.c:1021:25
	ldr	r0, [r0]
	.loc	7 1021 35                       @ ../Drivers/STM32F4xx_HAL_Driver/Src/stm32f4xx_hal_tim.c:1021:35
	ldr	r0, [r0, #32]
	movw	r1, #4369
.Ltmp267:
	.loc	7 1021 16                       @ ../Drivers/STM32F4xx_HAL_Driver/Src/stm32f4xx_hal_tim.c:1021:16
	tst	r0, r1
	bne	.LBB22_17
	b	.LBB22_14
.LBB22_14:
.Ltmp268:
	.loc	7 1021 143                      @ ../Drivers/STM32F4xx_HAL_Driver/Src/stm32f4xx_hal_tim.c:1021:143
	ldr	r0, [sp, #28]
	.loc	7 1021 150                      @ ../Drivers/STM32F4xx_HAL_Driver/Src/stm32f4xx_hal_tim.c:1021:150
	ldr	r0, [r0]
	.loc	7 1021 160                      @ ../Drivers/STM32F4xx_HAL_Driver/Src/stm32f4xx_hal_tim.c:1021:160
	ldr	r0, [r0, #32]
	movw	r1, #1092
.Ltmp269:
	.loc	7 1021 141                      @ ../Drivers/STM32F4xx_HAL_Driver/Src/stm32f4xx_hal_tim.c:1021:141
	tst	r0, r1
	bne	.LBB22_16
	b	.LBB22_15
.LBB22_15:
.Ltmp270:
	.loc	7 1021 246                      @ ../Drivers/STM32F4xx_HAL_Driver/Src/stm32f4xx_hal_tim.c:1021:246
	ldr	r0, [sp, #28]
	.loc	7 1021 253                      @ ../Drivers/STM32F4xx_HAL_Driver/Src/stm32f4xx_hal_tim.c:1021:253
	ldr	r1, [r0]
	.loc	7 1021 268                      @ ../Drivers/STM32F4xx_HAL_Driver/Src/stm32f4xx_hal_tim.c:1021:268
	ldr	r0, [r1, #68]
	bic	r0, r0, #32768
	str	r0, [r1, #68]
	.loc	7 1021 292                      @ ../Drivers/STM32F4xx_HAL_Driver/Src/stm32f4xx_hal_tim.c:1021:292
	b	.LBB22_16
.Ltmp271:
.LBB22_16:
	.loc	7 1021 294                      @ ../Drivers/STM32F4xx_HAL_Driver/Src/stm32f4xx_hal_tim.c:1021:294
	b	.LBB22_17
.Ltmp272:
.LBB22_17:
	.loc	7 1021 296                      @ ../Drivers/STM32F4xx_HAL_Driver/Src/stm32f4xx_hal_tim.c:1021:296
	b	.LBB22_18
.Ltmp273:
.LBB22_18:
	.loc	7 1022 5 is_stmt 1              @ ../Drivers/STM32F4xx_HAL_Driver/Src/stm32f4xx_hal_tim.c:1022:5
	b	.LBB22_19
.Ltmp274:
.LBB22_19:
	.loc	7 1025 5                        @ ../Drivers/STM32F4xx_HAL_Driver/Src/stm32f4xx_hal_tim.c:1025:5
	b	.LBB22_20
.LBB22_20:
.Ltmp275:
	.loc	7 1025 16 is_stmt 0             @ ../Drivers/STM32F4xx_HAL_Driver/Src/stm32f4xx_hal_tim.c:1025:16
	ldr	r0, [sp, #28]
	.loc	7 1025 23                       @ ../Drivers/STM32F4xx_HAL_Driver/Src/stm32f4xx_hal_tim.c:1025:23
	ldr	r0, [r0]
	.loc	7 1025 33                       @ ../Drivers/STM32F4xx_HAL_Driver/Src/stm32f4xx_hal_tim.c:1025:33
	ldr	r0, [r0, #32]
	movw	r1, #4369
.Ltmp276:
	.loc	7 1025 14                       @ ../Drivers/STM32F4xx_HAL_Driver/Src/stm32f4xx_hal_tim.c:1025:14
	tst	r0, r1
	bne	.LBB22_24
	b	.LBB22_21
.LBB22_21:
.Ltmp277:
	.loc	7 1025 141                      @ ../Drivers/STM32F4xx_HAL_Driver/Src/stm32f4xx_hal_tim.c:1025:141
	ldr	r0, [sp, #28]
	.loc	7 1025 148                      @ ../Drivers/STM32F4xx_HAL_Driver/Src/stm32f4xx_hal_tim.c:1025:148
	ldr	r0, [r0]
	.loc	7 1025 158                      @ ../Drivers/STM32F4xx_HAL_Driver/Src/stm32f4xx_hal_tim.c:1025:158
	ldr	r0, [r0, #32]
	movw	r1, #1092
.Ltmp278:
	.loc	7 1025 139                      @ ../Drivers/STM32F4xx_HAL_Driver/Src/stm32f4xx_hal_tim.c:1025:139
	tst	r0, r1
	bne	.LBB22_23
	b	.LBB22_22
.LBB22_22:
.Ltmp279:
	.loc	7 1025 244                      @ ../Drivers/STM32F4xx_HAL_Driver/Src/stm32f4xx_hal_tim.c:1025:244
	ldr	r0, [sp, #28]
	.loc	7 1025 251                      @ ../Drivers/STM32F4xx_HAL_Driver/Src/stm32f4xx_hal_tim.c:1025:251
	ldr	r1, [r0]
	.loc	7 1025 265                      @ ../Drivers/STM32F4xx_HAL_Driver/Src/stm32f4xx_hal_tim.c:1025:265
	ldr	r0, [r1]
	bic	r0, r0, #1
	str	r0, [r1]
	.loc	7 1025 288                      @ ../Drivers/STM32F4xx_HAL_Driver/Src/stm32f4xx_hal_tim.c:1025:288
	b	.LBB22_23
.Ltmp280:
.LBB22_23:
	.loc	7 1025 290                      @ ../Drivers/STM32F4xx_HAL_Driver/Src/stm32f4xx_hal_tim.c:1025:290
	b	.LBB22_24
.Ltmp281:
.LBB22_24:
	.loc	7 1025 292                      @ ../Drivers/STM32F4xx_HAL_Driver/Src/stm32f4xx_hal_tim.c:1025:292
	b	.LBB22_25
.Ltmp282:
.LBB22_25:
	.loc	7 1028 8 is_stmt 1              @ ../Drivers/STM32F4xx_HAL_Driver/Src/stm32f4xx_hal_tim.c:1028:8
	ldr	r0, [sp, #24]
	.loc	7 1028 6 is_stmt 0              @ ../Drivers/STM32F4xx_HAL_Driver/Src/stm32f4xx_hal_tim.c:1028:6
	cbnz	r0, .LBB22_27
	b	.LBB22_26
.LBB22_26:
	.loc	7 1028 37                       @ ../Drivers/STM32F4xx_HAL_Driver/Src/stm32f4xx_hal_tim.c:1028:37
	ldr	r1, [sp, #28]
	movs	r0, #1
	.loc	7 1028 60                       @ ../Drivers/STM32F4xx_HAL_Driver/Src/stm32f4xx_hal_tim.c:1028:60
	strb.w	r0, [r1, #62]
	.loc	7 1028 6                        @ ../Drivers/STM32F4xx_HAL_Driver/Src/stm32f4xx_hal_tim.c:1028:6
	b	.LBB22_34
.LBB22_27:
	.loc	7 1028 97                       @ ../Drivers/STM32F4xx_HAL_Driver/Src/stm32f4xx_hal_tim.c:1028:97
	ldr	r0, [sp, #24]
	.loc	7 1028 95                       @ ../Drivers/STM32F4xx_HAL_Driver/Src/stm32f4xx_hal_tim.c:1028:95
	cmp	r0, #4
	bne	.LBB22_29
	b	.LBB22_28
.LBB22_28:
	.loc	7 1028 126                      @ ../Drivers/STM32F4xx_HAL_Driver/Src/stm32f4xx_hal_tim.c:1028:126
	ldr	r1, [sp, #28]
	movs	r0, #1
	.loc	7 1028 149                      @ ../Drivers/STM32F4xx_HAL_Driver/Src/stm32f4xx_hal_tim.c:1028:149
	strb.w	r0, [r1, #63]
	.loc	7 1028 95                       @ ../Drivers/STM32F4xx_HAL_Driver/Src/stm32f4xx_hal_tim.c:1028:95
	str	r0, [sp, #8]                    @ 4-byte Spill
	b	.LBB22_33
.LBB22_29:
	.loc	7 1028 186                      @ ../Drivers/STM32F4xx_HAL_Driver/Src/stm32f4xx_hal_tim.c:1028:186
	ldr	r0, [sp, #24]
	.loc	7 1028 184                      @ ../Drivers/STM32F4xx_HAL_Driver/Src/stm32f4xx_hal_tim.c:1028:184
	cmp	r0, #8
	bne	.LBB22_31
	b	.LBB22_30
.LBB22_30:
	.loc	7 1028 215                      @ ../Drivers/STM32F4xx_HAL_Driver/Src/stm32f4xx_hal_tim.c:1028:215
	ldr	r1, [sp, #28]
	movs	r0, #1
	.loc	7 1028 238                      @ ../Drivers/STM32F4xx_HAL_Driver/Src/stm32f4xx_hal_tim.c:1028:238
	strb.w	r0, [r1, #64]
	.loc	7 1028 184                      @ ../Drivers/STM32F4xx_HAL_Driver/Src/stm32f4xx_hal_tim.c:1028:184
	str	r0, [sp, #4]                    @ 4-byte Spill
	b	.LBB22_32
.LBB22_31:
	.loc	7 1028 275                      @ ../Drivers/STM32F4xx_HAL_Driver/Src/stm32f4xx_hal_tim.c:1028:275
	ldr	r1, [sp, #28]
	movs	r0, #1
	.loc	7 1028 298                      @ ../Drivers/STM32F4xx_HAL_Driver/Src/stm32f4xx_hal_tim.c:1028:298
	strb.w	r0, [r1, #65]
	.loc	7 1028 184                      @ ../Drivers/STM32F4xx_HAL_Driver/Src/stm32f4xx_hal_tim.c:1028:184
	str	r0, [sp, #4]                    @ 4-byte Spill
	b	.LBB22_32
.LBB22_32:
	ldr	r0, [sp, #4]                    @ 4-byte Reload
	.loc	7 1028 95                       @ ../Drivers/STM32F4xx_HAL_Driver/Src/stm32f4xx_hal_tim.c:1028:95
	str	r0, [sp, #8]                    @ 4-byte Spill
	b	.LBB22_33
.LBB22_33:
	ldr	r0, [sp, #8]                    @ 4-byte Reload
	.loc	7 1028 6                        @ ../Drivers/STM32F4xx_HAL_Driver/Src/stm32f4xx_hal_tim.c:1028:6
	b	.LBB22_34
.LBB22_34:
	.loc	7 1029 3 is_stmt 1              @ ../Drivers/STM32F4xx_HAL_Driver/Src/stm32f4xx_hal_tim.c:1029:3
	b	.LBB22_35
.Ltmp283:
.LBB22_35:
	.loc	7 1032 10                       @ ../Drivers/STM32F4xx_HAL_Driver/Src/stm32f4xx_hal_tim.c:1032:10
	ldrb.w	r0, [sp, #23]
	.loc	7 1032 3 is_stmt 0              @ ../Drivers/STM32F4xx_HAL_Driver/Src/stm32f4xx_hal_tim.c:1032:3
	add	sp, #32
	pop	{r7, pc}
.Ltmp284:
.Lfunc_end22:
	.size	HAL_TIM_OC_Stop_IT, .Lfunc_end22-HAL_TIM_OC_Stop_IT
	.cfi_endproc
	.cantunwind
	.fnend
                                        @ -- End function
	.section	.text.HAL_TIM_OC_Start_DMA,"ax",%progbits
	.hidden	HAL_TIM_OC_Start_DMA            @ -- Begin function HAL_TIM_OC_Start_DMA
	.globl	HAL_TIM_OC_Start_DMA
	.p2align	2
	.type	HAL_TIM_OC_Start_DMA,%function
	.code	16                              @ @HAL_TIM_OC_Start_DMA
	.thumb_func
HAL_TIM_OC_Start_DMA:
.Lfunc_begin23:
	.loc	7 1050 0 is_stmt 1              @ ../Drivers/STM32F4xx_HAL_Driver/Src/stm32f4xx_hal_tim.c:1050:0
	.fnstart
	.cfi_startproc
@ %bb.0:
	.save	{r7, lr}
	push	{r7, lr}
	.cfi_def_cfa_offset 8
	.cfi_offset lr, -4
	.cfi_offset r7, -8
	.pad	#72
	sub	sp, #72
	.cfi_def_cfa_offset 80
                                        @ kill: def $r12 killed $r3
	str	r0, [sp, #64]
	str	r1, [sp, #60]
	str	r2, [sp, #56]
	strh.w	r3, [sp, #54]
	movs	r0, #0
.Ltmp285:
	.loc	7 1051 21 prologue_end          @ ../Drivers/STM32F4xx_HAL_Driver/Src/stm32f4xx_hal_tim.c:1051:21
	strb.w	r0, [sp, #53]
.Ltmp286:
	.loc	7 1058 10                       @ ../Drivers/STM32F4xx_HAL_Driver/Src/stm32f4xx_hal_tim.c:1058:10
	ldr	r0, [sp, #60]
	.loc	7 1058 8 is_stmt 0              @ ../Drivers/STM32F4xx_HAL_Driver/Src/stm32f4xx_hal_tim.c:1058:8
	cbnz	r0, .LBB23_2
	b	.LBB23_1
.LBB23_1:
	.loc	7 1058 38                       @ ../Drivers/STM32F4xx_HAL_Driver/Src/stm32f4xx_hal_tim.c:1058:38
	ldr	r0, [sp, #64]
	.loc	7 1058 37                       @ ../Drivers/STM32F4xx_HAL_Driver/Src/stm32f4xx_hal_tim.c:1058:37
	ldrb.w	r0, [r0, #62]
	.loc	7 1058 8                        @ ../Drivers/STM32F4xx_HAL_Driver/Src/stm32f4xx_hal_tim.c:1058:8
	str	r0, [sp, #44]                   @ 4-byte Spill
	b	.LBB23_9
.LBB23_2:
	.loc	7 1058 65                       @ ../Drivers/STM32F4xx_HAL_Driver/Src/stm32f4xx_hal_tim.c:1058:65
	ldr	r0, [sp, #60]
	.loc	7 1058 63                       @ ../Drivers/STM32F4xx_HAL_Driver/Src/stm32f4xx_hal_tim.c:1058:63
	cmp	r0, #4
	bne	.LBB23_4
	b	.LBB23_3
.LBB23_3:
	.loc	7 1058 93                       @ ../Drivers/STM32F4xx_HAL_Driver/Src/stm32f4xx_hal_tim.c:1058:93
	ldr	r0, [sp, #64]
	.loc	7 1058 92                       @ ../Drivers/STM32F4xx_HAL_Driver/Src/stm32f4xx_hal_tim.c:1058:92
	ldrb.w	r0, [r0, #63]
	.loc	7 1058 63                       @ ../Drivers/STM32F4xx_HAL_Driver/Src/stm32f4xx_hal_tim.c:1058:63
	str	r0, [sp, #40]                   @ 4-byte Spill
	b	.LBB23_8
.LBB23_4:
	.loc	7 1058 120                      @ ../Drivers/STM32F4xx_HAL_Driver/Src/stm32f4xx_hal_tim.c:1058:120
	ldr	r0, [sp, #60]
	.loc	7 1058 118                      @ ../Drivers/STM32F4xx_HAL_Driver/Src/stm32f4xx_hal_tim.c:1058:118
	cmp	r0, #8
	bne	.LBB23_6
	b	.LBB23_5
.LBB23_5:
	.loc	7 1058 148                      @ ../Drivers/STM32F4xx_HAL_Driver/Src/stm32f4xx_hal_tim.c:1058:148
	ldr	r0, [sp, #64]
	.loc	7 1058 147                      @ ../Drivers/STM32F4xx_HAL_Driver/Src/stm32f4xx_hal_tim.c:1058:147
	ldrb.w	r0, [r0, #64]
	.loc	7 1058 118                      @ ../Drivers/STM32F4xx_HAL_Driver/Src/stm32f4xx_hal_tim.c:1058:118
	str	r0, [sp, #36]                   @ 4-byte Spill
	b	.LBB23_7
.LBB23_6:
	.loc	7 1058 174                      @ ../Drivers/STM32F4xx_HAL_Driver/Src/stm32f4xx_hal_tim.c:1058:174
	ldr	r0, [sp, #64]
	.loc	7 1058 173                      @ ../Drivers/STM32F4xx_HAL_Driver/Src/stm32f4xx_hal_tim.c:1058:173
	ldrb.w	r0, [r0, #65]
	.loc	7 1058 118                      @ ../Drivers/STM32F4xx_HAL_Driver/Src/stm32f4xx_hal_tim.c:1058:118
	str	r0, [sp, #36]                   @ 4-byte Spill
	b	.LBB23_7
.LBB23_7:
	ldr	r0, [sp, #36]                   @ 4-byte Reload
	.loc	7 1058 63                       @ ../Drivers/STM32F4xx_HAL_Driver/Src/stm32f4xx_hal_tim.c:1058:63
	str	r0, [sp, #40]                   @ 4-byte Spill
	b	.LBB23_8
.LBB23_8:
	ldr	r0, [sp, #40]                   @ 4-byte Reload
	.loc	7 1058 8                        @ ../Drivers/STM32F4xx_HAL_Driver/Src/stm32f4xx_hal_tim.c:1058:8
	str	r0, [sp, #44]                   @ 4-byte Spill
	b	.LBB23_9
.LBB23_9:
	ldr	r0, [sp, #44]                   @ 4-byte Reload
.Ltmp287:
	.loc	7 1058 7                        @ ../Drivers/STM32F4xx_HAL_Driver/Src/stm32f4xx_hal_tim.c:1058:7
	cmp	r0, #2
	bne	.LBB23_11
	b	.LBB23_10
.LBB23_10:
	.loc	7 0 7                           @ ../Drivers/STM32F4xx_HAL_Driver/Src/stm32f4xx_hal_tim.c:0:7
	movs	r0, #2
.Ltmp288:
	.loc	7 1060 5 is_stmt 1              @ ../Drivers/STM32F4xx_HAL_Driver/Src/stm32f4xx_hal_tim.c:1060:5
	strb.w	r0, [sp, #71]
	b	.LBB23_72
.Ltmp289:
.LBB23_11:
	.loc	7 1062 15                       @ ../Drivers/STM32F4xx_HAL_Driver/Src/stm32f4xx_hal_tim.c:1062:15
	ldr	r0, [sp, #60]
	.loc	7 1062 13 is_stmt 0             @ ../Drivers/STM32F4xx_HAL_Driver/Src/stm32f4xx_hal_tim.c:1062:13
	cbnz	r0, .LBB23_13
	b	.LBB23_12
.LBB23_12:
	.loc	7 1062 43                       @ ../Drivers/STM32F4xx_HAL_Driver/Src/stm32f4xx_hal_tim.c:1062:43
	ldr	r0, [sp, #64]
	.loc	7 1062 42                       @ ../Drivers/STM32F4xx_HAL_Driver/Src/stm32f4xx_hal_tim.c:1062:42
	ldrb.w	r0, [r0, #62]
	.loc	7 1062 13                       @ ../Drivers/STM32F4xx_HAL_Driver/Src/stm32f4xx_hal_tim.c:1062:13
	str	r0, [sp, #32]                   @ 4-byte Spill
	b	.LBB23_20
.LBB23_13:
	.loc	7 1062 70                       @ ../Drivers/STM32F4xx_HAL_Driver/Src/stm32f4xx_hal_tim.c:1062:70
	ldr	r0, [sp, #60]
	.loc	7 1062 68                       @ ../Drivers/STM32F4xx_HAL_Driver/Src/stm32f4xx_hal_tim.c:1062:68
	cmp	r0, #4
	bne	.LBB23_15
	b	.LBB23_14
.LBB23_14:
	.loc	7 1062 98                       @ ../Drivers/STM32F4xx_HAL_Driver/Src/stm32f4xx_hal_tim.c:1062:98
	ldr	r0, [sp, #64]
	.loc	7 1062 97                       @ ../Drivers/STM32F4xx_HAL_Driver/Src/stm32f4xx_hal_tim.c:1062:97
	ldrb.w	r0, [r0, #63]
	.loc	7 1062 68                       @ ../Drivers/STM32F4xx_HAL_Driver/Src/stm32f4xx_hal_tim.c:1062:68
	str	r0, [sp, #28]                   @ 4-byte Spill
	b	.LBB23_19
.LBB23_15:
	.loc	7 1062 125                      @ ../Drivers/STM32F4xx_HAL_Driver/Src/stm32f4xx_hal_tim.c:1062:125
	ldr	r0, [sp, #60]
	.loc	7 1062 123                      @ ../Drivers/STM32F4xx_HAL_Driver/Src/stm32f4xx_hal_tim.c:1062:123
	cmp	r0, #8
	bne	.LBB23_17
	b	.LBB23_16
.LBB23_16:
	.loc	7 1062 153                      @ ../Drivers/STM32F4xx_HAL_Driver/Src/stm32f4xx_hal_tim.c:1062:153
	ldr	r0, [sp, #64]
	.loc	7 1062 152                      @ ../Drivers/STM32F4xx_HAL_Driver/Src/stm32f4xx_hal_tim.c:1062:152
	ldrb.w	r0, [r0, #64]
	.loc	7 1062 123                      @ ../Drivers/STM32F4xx_HAL_Driver/Src/stm32f4xx_hal_tim.c:1062:123
	str	r0, [sp, #24]                   @ 4-byte Spill
	b	.LBB23_18
.LBB23_17:
	.loc	7 1062 179                      @ ../Drivers/STM32F4xx_HAL_Driver/Src/stm32f4xx_hal_tim.c:1062:179
	ldr	r0, [sp, #64]
	.loc	7 1062 178                      @ ../Drivers/STM32F4xx_HAL_Driver/Src/stm32f4xx_hal_tim.c:1062:178
	ldrb.w	r0, [r0, #65]
	.loc	7 1062 123                      @ ../Drivers/STM32F4xx_HAL_Driver/Src/stm32f4xx_hal_tim.c:1062:123
	str	r0, [sp, #24]                   @ 4-byte Spill
	b	.LBB23_18
.LBB23_18:
	ldr	r0, [sp, #24]                   @ 4-byte Reload
	.loc	7 1062 68                       @ ../Drivers/STM32F4xx_HAL_Driver/Src/stm32f4xx_hal_tim.c:1062:68
	str	r0, [sp, #28]                   @ 4-byte Spill
	b	.LBB23_19
.LBB23_19:
	ldr	r0, [sp, #28]                   @ 4-byte Reload
	.loc	7 1062 13                       @ ../Drivers/STM32F4xx_HAL_Driver/Src/stm32f4xx_hal_tim.c:1062:13
	str	r0, [sp, #32]                   @ 4-byte Spill
	b	.LBB23_20
.LBB23_20:
	ldr	r0, [sp, #32]                   @ 4-byte Reload
.Ltmp290:
	.loc	7 1062 12                       @ ../Drivers/STM32F4xx_HAL_Driver/Src/stm32f4xx_hal_tim.c:1062:12
	cmp	r0, #1
	bne	.LBB23_35
	b	.LBB23_21
.LBB23_21:
.Ltmp291:
	.loc	7 1064 10 is_stmt 1             @ ../Drivers/STM32F4xx_HAL_Driver/Src/stm32f4xx_hal_tim.c:1064:10
	ldr	r0, [sp, #56]
	.loc	7 1064 22 is_stmt 0             @ ../Drivers/STM32F4xx_HAL_Driver/Src/stm32f4xx_hal_tim.c:1064:22
	cbz	r0, .LBB23_23
	b	.LBB23_22
.LBB23_22:
	.loc	7 1064 26                       @ ../Drivers/STM32F4xx_HAL_Driver/Src/stm32f4xx_hal_tim.c:1064:26
	ldrh.w	r0, [sp, #54]
.Ltmp292:
	.loc	7 1064 9                        @ ../Drivers/STM32F4xx_HAL_Driver/Src/stm32f4xx_hal_tim.c:1064:9
	cbnz	r0, .LBB23_24
	b	.LBB23_23
.LBB23_23:
	.loc	7 0 9                           @ ../Drivers/STM32F4xx_HAL_Driver/Src/stm32f4xx_hal_tim.c:0:9
	movs	r0, #1
.Ltmp293:
	.loc	7 1066 7 is_stmt 1              @ ../Drivers/STM32F4xx_HAL_Driver/Src/stm32f4xx_hal_tim.c:1066:7
	strb.w	r0, [sp, #71]
	b	.LBB23_72
.Ltmp294:
.LBB23_24:
	.loc	7 1070 10                       @ ../Drivers/STM32F4xx_HAL_Driver/Src/stm32f4xx_hal_tim.c:1070:10
	ldr	r0, [sp, #60]
	.loc	7 1070 8 is_stmt 0              @ ../Drivers/STM32F4xx_HAL_Driver/Src/stm32f4xx_hal_tim.c:1070:8
	cbnz	r0, .LBB23_26
	b	.LBB23_25
.LBB23_25:
	.loc	7 1070 39                       @ ../Drivers/STM32F4xx_HAL_Driver/Src/stm32f4xx_hal_tim.c:1070:39
	ldr	r1, [sp, #64]
	movs	r0, #2
	.loc	7 1070 62                       @ ../Drivers/STM32F4xx_HAL_Driver/Src/stm32f4xx_hal_tim.c:1070:62
	strb.w	r0, [r1, #62]
	.loc	7 1070 8                        @ ../Drivers/STM32F4xx_HAL_Driver/Src/stm32f4xx_hal_tim.c:1070:8
	b	.LBB23_33
.LBB23_26:
	.loc	7 1070 98                       @ ../Drivers/STM32F4xx_HAL_Driver/Src/stm32f4xx_hal_tim.c:1070:98
	ldr	r0, [sp, #60]
	.loc	7 1070 96                       @ ../Drivers/STM32F4xx_HAL_Driver/Src/stm32f4xx_hal_tim.c:1070:96
	cmp	r0, #4
	bne	.LBB23_28
	b	.LBB23_27
.LBB23_27:
	.loc	7 1070 127                      @ ../Drivers/STM32F4xx_HAL_Driver/Src/stm32f4xx_hal_tim.c:1070:127
	ldr	r1, [sp, #64]
	movs	r0, #2
	.loc	7 1070 150                      @ ../Drivers/STM32F4xx_HAL_Driver/Src/stm32f4xx_hal_tim.c:1070:150
	strb.w	r0, [r1, #63]
	.loc	7 1070 96                       @ ../Drivers/STM32F4xx_HAL_Driver/Src/stm32f4xx_hal_tim.c:1070:96
	str	r0, [sp, #20]                   @ 4-byte Spill
	b	.LBB23_32
.LBB23_28:
	.loc	7 1070 186                      @ ../Drivers/STM32F4xx_HAL_Driver/Src/stm32f4xx_hal_tim.c:1070:186
	ldr	r0, [sp, #60]
	.loc	7 1070 184                      @ ../Drivers/STM32F4xx_HAL_Driver/Src/stm32f4xx_hal_tim.c:1070:184
	cmp	r0, #8
	bne	.LBB23_30
	b	.LBB23_29
.LBB23_29:
	.loc	7 1070 215                      @ ../Drivers/STM32F4xx_HAL_Driver/Src/stm32f4xx_hal_tim.c:1070:215
	ldr	r1, [sp, #64]
	movs	r0, #2
	.loc	7 1070 238                      @ ../Drivers/STM32F4xx_HAL_Driver/Src/stm32f4xx_hal_tim.c:1070:238
	strb.w	r0, [r1, #64]
	.loc	7 1070 184                      @ ../Drivers/STM32F4xx_HAL_Driver/Src/stm32f4xx_hal_tim.c:1070:184
	str	r0, [sp, #16]                   @ 4-byte Spill
	b	.LBB23_31
.LBB23_30:
	.loc	7 1070 274                      @ ../Drivers/STM32F4xx_HAL_Driver/Src/stm32f4xx_hal_tim.c:1070:274
	ldr	r1, [sp, #64]
	movs	r0, #2
	.loc	7 1070 297                      @ ../Drivers/STM32F4xx_HAL_Driver/Src/stm32f4xx_hal_tim.c:1070:297
	strb.w	r0, [r1, #65]
	.loc	7 1070 184                      @ ../Drivers/STM32F4xx_HAL_Driver/Src/stm32f4xx_hal_tim.c:1070:184
	str	r0, [sp, #16]                   @ 4-byte Spill
	b	.LBB23_31
.LBB23_31:
	ldr	r0, [sp, #16]                   @ 4-byte Reload
	.loc	7 1070 96                       @ ../Drivers/STM32F4xx_HAL_Driver/Src/stm32f4xx_hal_tim.c:1070:96
	str	r0, [sp, #20]                   @ 4-byte Spill
	b	.LBB23_32
.LBB23_32:
	ldr	r0, [sp, #20]                   @ 4-byte Reload
	.loc	7 1070 8                        @ ../Drivers/STM32F4xx_HAL_Driver/Src/stm32f4xx_hal_tim.c:1070:8
	b	.LBB23_33
.Ltmp295:
.LBB23_33:
	.loc	7 0 8                           @ ../Drivers/STM32F4xx_HAL_Driver/Src/stm32f4xx_hal_tim.c:0:8
	b	.LBB23_34
.LBB23_34:
	.loc	7 1072 3 is_stmt 1              @ ../Drivers/STM32F4xx_HAL_Driver/Src/stm32f4xx_hal_tim.c:1072:3
	b	.LBB23_36
.Ltmp296:
.LBB23_35:
	.loc	7 0 3 is_stmt 0                 @ ../Drivers/STM32F4xx_HAL_Driver/Src/stm32f4xx_hal_tim.c:0:3
	movs	r0, #1
.Ltmp297:
	.loc	7 1075 5 is_stmt 1              @ ../Drivers/STM32F4xx_HAL_Driver/Src/stm32f4xx_hal_tim.c:1075:5
	strb.w	r0, [sp, #71]
	b	.LBB23_72
.Ltmp298:
.LBB23_36:
	.loc	7 0 5 is_stmt 0                 @ ../Drivers/STM32F4xx_HAL_Driver/Src/stm32f4xx_hal_tim.c:0:5
	b	.LBB23_37
.LBB23_37:
	.loc	7 1078 11 is_stmt 1             @ ../Drivers/STM32F4xx_HAL_Driver/Src/stm32f4xx_hal_tim.c:1078:11
	ldr	r0, [sp, #60]
	.loc	7 1078 3 is_stmt 0              @ ../Drivers/STM32F4xx_HAL_Driver/Src/stm32f4xx_hal_tim.c:1078:3
	str	r0, [sp, #12]                   @ 4-byte Spill
	cmp	r0, #12
	bhi.w	.LBB23_52
@ %bb.38:
	.loc	7 0 3                           @ ../Drivers/STM32F4xx_HAL_Driver/Src/stm32f4xx_hal_tim.c:0:3
	ldr	r1, [sp, #12]                   @ 4-byte Reload
.LCPI23_0:
	tbb	[pc, r1]
@ %bb.39:
.LJTI23_0:
	.byte	(.LBB23_40-(.LCPI23_0+4))/2
	.byte	(.LBB23_52-(.LCPI23_0+4))/2
	.byte	(.LBB23_52-(.LCPI23_0+4))/2
	.byte	(.LBB23_52-(.LCPI23_0+4))/2
	.byte	(.LBB23_43-(.LCPI23_0+4))/2
	.byte	(.LBB23_52-(.LCPI23_0+4))/2
	.byte	(.LBB23_52-(.LCPI23_0+4))/2
	.byte	(.LBB23_52-(.LCPI23_0+4))/2
	.byte	(.LBB23_46-(.LCPI23_0+4))/2
	.byte	(.LBB23_52-(.LCPI23_0+4))/2
	.byte	(.LBB23_52-(.LCPI23_0+4))/2
	.byte	(.LBB23_52-(.LCPI23_0+4))/2
	.byte	(.LBB23_49-(.LCPI23_0+4))/2
	.p2align	1
.LBB23_40:
.Ltmp299:
	.loc	7 1083 7 is_stmt 1              @ ../Drivers/STM32F4xx_HAL_Driver/Src/stm32f4xx_hal_tim.c:1083:7
	ldr	r0, [sp, #64]
	ldr	r1, [r0, #36]
	.loc	7 1083 57 is_stmt 0             @ ../Drivers/STM32F4xx_HAL_Driver/Src/stm32f4xx_hal_tim.c:1083:57
	movw	r0, :lower16:TIM_DMADelayPulseCplt
	movt	r0, :upper16:TIM_DMADelayPulseCplt
	str	r0, [r1, #60]
	.loc	7 1084 7 is_stmt 1              @ ../Drivers/STM32F4xx_HAL_Driver/Src/stm32f4xx_hal_tim.c:1084:7
	ldr	r0, [sp, #64]
	ldr	r1, [r0, #36]
	.loc	7 1084 61 is_stmt 0             @ ../Drivers/STM32F4xx_HAL_Driver/Src/stm32f4xx_hal_tim.c:1084:61
	movw	r0, :lower16:TIM_DMADelayPulseHalfCplt
	movt	r0, :upper16:TIM_DMADelayPulseHalfCplt
	str	r0, [r1, #64]
	.loc	7 1087 7 is_stmt 1              @ ../Drivers/STM32F4xx_HAL_Driver/Src/stm32f4xx_hal_tim.c:1087:7
	ldr	r0, [sp, #64]
	ldr	r1, [r0, #36]
	.loc	7 1087 58 is_stmt 0             @ ../Drivers/STM32F4xx_HAL_Driver/Src/stm32f4xx_hal_tim.c:1087:58
	movw	r0, :lower16:TIM_DMAError
	movt	r0, :upper16:TIM_DMAError
	str	r0, [r1, #76]
.Ltmp300:
	.loc	7 1090 28 is_stmt 1             @ ../Drivers/STM32F4xx_HAL_Driver/Src/stm32f4xx_hal_tim.c:1090:28
	ldr	r0, [sp, #64]
	.loc	7 1090 95 is_stmt 0             @ ../Drivers/STM32F4xx_HAL_Driver/Src/stm32f4xx_hal_tim.c:1090:95
	ldr	r2, [r0]
	.loc	7 1090 28                       @ ../Drivers/STM32F4xx_HAL_Driver/Src/stm32f4xx_hal_tim.c:1090:28
	ldr	r0, [r0, #36]
	.loc	7 1090 71                       @ ../Drivers/STM32F4xx_HAL_Driver/Src/stm32f4xx_hal_tim.c:1090:71
	ldr	r1, [sp, #56]
	.loc	7 1090 105                      @ ../Drivers/STM32F4xx_HAL_Driver/Src/stm32f4xx_hal_tim.c:1090:105
	adds	r2, #52
	.loc	7 1091 28 is_stmt 1             @ ../Drivers/STM32F4xx_HAL_Driver/Src/stm32f4xx_hal_tim.c:1091:28
	ldrh.w	r3, [sp, #54]
	.loc	7 1090 11                       @ ../Drivers/STM32F4xx_HAL_Driver/Src/stm32f4xx_hal_tim.c:1090:11
	bl	HAL_DMA_Start_IT
.Ltmp301:
	.loc	7 1090 11 is_stmt 0             @ ../Drivers/STM32F4xx_HAL_Driver/Src/stm32f4xx_hal_tim.c:1090:11
	cbz	r0, .LBB23_42
	b	.LBB23_41
.LBB23_41:
	.loc	7 0 11                          @ ../Drivers/STM32F4xx_HAL_Driver/Src/stm32f4xx_hal_tim.c:0:11
	movs	r0, #1
.Ltmp302:
	.loc	7 1094 9 is_stmt 1              @ ../Drivers/STM32F4xx_HAL_Driver/Src/stm32f4xx_hal_tim.c:1094:9
	strb.w	r0, [sp, #71]
	b	.LBB23_72
.Ltmp303:
.LBB23_42:
	.loc	7 1098 9                        @ ../Drivers/STM32F4xx_HAL_Driver/Src/stm32f4xx_hal_tim.c:1098:9
	ldr	r0, [sp, #64]
	.loc	7 1098 16 is_stmt 0             @ ../Drivers/STM32F4xx_HAL_Driver/Src/stm32f4xx_hal_tim.c:1098:16
	ldr	r1, [r0]
	.loc	7 1098 31                       @ ../Drivers/STM32F4xx_HAL_Driver/Src/stm32f4xx_hal_tim.c:1098:31
	ldr	r0, [r1, #12]
	orr	r0, r0, #512
	str	r0, [r1, #12]
	.loc	7 1099 7 is_stmt 1              @ ../Drivers/STM32F4xx_HAL_Driver/Src/stm32f4xx_hal_tim.c:1099:7
	b	.LBB23_53
.Ltmp304:
.LBB23_43:
	.loc	7 1105 7                        @ ../Drivers/STM32F4xx_HAL_Driver/Src/stm32f4xx_hal_tim.c:1105:7
	ldr	r0, [sp, #64]
	ldr	r1, [r0, #40]
	.loc	7 1105 57 is_stmt 0             @ ../Drivers/STM32F4xx_HAL_Driver/Src/stm32f4xx_hal_tim.c:1105:57
	movw	r0, :lower16:TIM_DMADelayPulseCplt
	movt	r0, :upper16:TIM_DMADelayPulseCplt
	str	r0, [r1, #60]
	.loc	7 1106 7 is_stmt 1              @ ../Drivers/STM32F4xx_HAL_Driver/Src/stm32f4xx_hal_tim.c:1106:7
	ldr	r0, [sp, #64]
	ldr	r1, [r0, #40]
	.loc	7 1106 61 is_stmt 0             @ ../Drivers/STM32F4xx_HAL_Driver/Src/stm32f4xx_hal_tim.c:1106:61
	movw	r0, :lower16:TIM_DMADelayPulseHalfCplt
	movt	r0, :upper16:TIM_DMADelayPulseHalfCplt
	str	r0, [r1, #64]
	.loc	7 1109 7 is_stmt 1              @ ../Drivers/STM32F4xx_HAL_Driver/Src/stm32f4xx_hal_tim.c:1109:7
	ldr	r0, [sp, #64]
	ldr	r1, [r0, #40]
	.loc	7 1109 58 is_stmt 0             @ ../Drivers/STM32F4xx_HAL_Driver/Src/stm32f4xx_hal_tim.c:1109:58
	movw	r0, :lower16:TIM_DMAError
	movt	r0, :upper16:TIM_DMAError
	str	r0, [r1, #76]
.Ltmp305:
	.loc	7 1112 28 is_stmt 1             @ ../Drivers/STM32F4xx_HAL_Driver/Src/stm32f4xx_hal_tim.c:1112:28
	ldr	r0, [sp, #64]
	.loc	7 1112 95 is_stmt 0             @ ../Drivers/STM32F4xx_HAL_Driver/Src/stm32f4xx_hal_tim.c:1112:95
	ldr	r2, [r0]
	.loc	7 1112 28                       @ ../Drivers/STM32F4xx_HAL_Driver/Src/stm32f4xx_hal_tim.c:1112:28
	ldr	r0, [r0, #40]
	.loc	7 1112 71                       @ ../Drivers/STM32F4xx_HAL_Driver/Src/stm32f4xx_hal_tim.c:1112:71
	ldr	r1, [sp, #56]
	.loc	7 1112 105                      @ ../Drivers/STM32F4xx_HAL_Driver/Src/stm32f4xx_hal_tim.c:1112:105
	adds	r2, #56
	.loc	7 1113 28 is_stmt 1             @ ../Drivers/STM32F4xx_HAL_Driver/Src/stm32f4xx_hal_tim.c:1113:28
	ldrh.w	r3, [sp, #54]
	.loc	7 1112 11                       @ ../Drivers/STM32F4xx_HAL_Driver/Src/stm32f4xx_hal_tim.c:1112:11
	bl	HAL_DMA_Start_IT
.Ltmp306:
	.loc	7 1112 11 is_stmt 0             @ ../Drivers/STM32F4xx_HAL_Driver/Src/stm32f4xx_hal_tim.c:1112:11
	cbz	r0, .LBB23_45
	b	.LBB23_44
.LBB23_44:
	.loc	7 0 11                          @ ../Drivers/STM32F4xx_HAL_Driver/Src/stm32f4xx_hal_tim.c:0:11
	movs	r0, #1
.Ltmp307:
	.loc	7 1116 9 is_stmt 1              @ ../Drivers/STM32F4xx_HAL_Driver/Src/stm32f4xx_hal_tim.c:1116:9
	strb.w	r0, [sp, #71]
	b	.LBB23_72
.Ltmp308:
.LBB23_45:
	.loc	7 1120 9                        @ ../Drivers/STM32F4xx_HAL_Driver/Src/stm32f4xx_hal_tim.c:1120:9
	ldr	r0, [sp, #64]
	.loc	7 1120 16 is_stmt 0             @ ../Drivers/STM32F4xx_HAL_Driver/Src/stm32f4xx_hal_tim.c:1120:16
	ldr	r1, [r0]
	.loc	7 1120 31                       @ ../Drivers/STM32F4xx_HAL_Driver/Src/stm32f4xx_hal_tim.c:1120:31
	ldr	r0, [r1, #12]
	orr	r0, r0, #1024
	str	r0, [r1, #12]
	.loc	7 1121 7 is_stmt 1              @ ../Drivers/STM32F4xx_HAL_Driver/Src/stm32f4xx_hal_tim.c:1121:7
	b	.LBB23_53
.Ltmp309:
.LBB23_46:
	.loc	7 1127 7                        @ ../Drivers/STM32F4xx_HAL_Driver/Src/stm32f4xx_hal_tim.c:1127:7
	ldr	r0, [sp, #64]
	ldr	r1, [r0, #44]
	.loc	7 1127 57 is_stmt 0             @ ../Drivers/STM32F4xx_HAL_Driver/Src/stm32f4xx_hal_tim.c:1127:57
	movw	r0, :lower16:TIM_DMADelayPulseCplt
	movt	r0, :upper16:TIM_DMADelayPulseCplt
	str	r0, [r1, #60]
	.loc	7 1128 7 is_stmt 1              @ ../Drivers/STM32F4xx_HAL_Driver/Src/stm32f4xx_hal_tim.c:1128:7
	ldr	r0, [sp, #64]
	ldr	r1, [r0, #44]
	.loc	7 1128 61 is_stmt 0             @ ../Drivers/STM32F4xx_HAL_Driver/Src/stm32f4xx_hal_tim.c:1128:61
	movw	r0, :lower16:TIM_DMADelayPulseHalfCplt
	movt	r0, :upper16:TIM_DMADelayPulseHalfCplt
	str	r0, [r1, #64]
	.loc	7 1131 7 is_stmt 1              @ ../Drivers/STM32F4xx_HAL_Driver/Src/stm32f4xx_hal_tim.c:1131:7
	ldr	r0, [sp, #64]
	ldr	r1, [r0, #44]
	.loc	7 1131 58 is_stmt 0             @ ../Drivers/STM32F4xx_HAL_Driver/Src/stm32f4xx_hal_tim.c:1131:58
	movw	r0, :lower16:TIM_DMAError
	movt	r0, :upper16:TIM_DMAError
	str	r0, [r1, #76]
.Ltmp310:
	.loc	7 1134 28 is_stmt 1             @ ../Drivers/STM32F4xx_HAL_Driver/Src/stm32f4xx_hal_tim.c:1134:28
	ldr	r0, [sp, #64]
	.loc	7 1134 95 is_stmt 0             @ ../Drivers/STM32F4xx_HAL_Driver/Src/stm32f4xx_hal_tim.c:1134:95
	ldr	r2, [r0]
	.loc	7 1134 28                       @ ../Drivers/STM32F4xx_HAL_Driver/Src/stm32f4xx_hal_tim.c:1134:28
	ldr	r0, [r0, #44]
	.loc	7 1134 71                       @ ../Drivers/STM32F4xx_HAL_Driver/Src/stm32f4xx_hal_tim.c:1134:71
	ldr	r1, [sp, #56]
	.loc	7 1134 105                      @ ../Drivers/STM32F4xx_HAL_Driver/Src/stm32f4xx_hal_tim.c:1134:105
	adds	r2, #60
	.loc	7 1135 28 is_stmt 1             @ ../Drivers/STM32F4xx_HAL_Driver/Src/stm32f4xx_hal_tim.c:1135:28
	ldrh.w	r3, [sp, #54]
	.loc	7 1134 11                       @ ../Drivers/STM32F4xx_HAL_Driver/Src/stm32f4xx_hal_tim.c:1134:11
	bl	HAL_DMA_Start_IT
.Ltmp311:
	.loc	7 1134 11 is_stmt 0             @ ../Drivers/STM32F4xx_HAL_Driver/Src/stm32f4xx_hal_tim.c:1134:11
	cbz	r0, .LBB23_48
	b	.LBB23_47
.LBB23_47:
	.loc	7 0 11                          @ ../Drivers/STM32F4xx_HAL_Driver/Src/stm32f4xx_hal_tim.c:0:11
	movs	r0, #1
.Ltmp312:
	.loc	7 1138 9 is_stmt 1              @ ../Drivers/STM32F4xx_HAL_Driver/Src/stm32f4xx_hal_tim.c:1138:9
	strb.w	r0, [sp, #71]
	b	.LBB23_72
.Ltmp313:
.LBB23_48:
	.loc	7 1141 9                        @ ../Drivers/STM32F4xx_HAL_Driver/Src/stm32f4xx_hal_tim.c:1141:9
	ldr	r0, [sp, #64]
	.loc	7 1141 16 is_stmt 0             @ ../Drivers/STM32F4xx_HAL_Driver/Src/stm32f4xx_hal_tim.c:1141:16
	ldr	r1, [r0]
	.loc	7 1141 31                       @ ../Drivers/STM32F4xx_HAL_Driver/Src/stm32f4xx_hal_tim.c:1141:31
	ldr	r0, [r1, #12]
	orr	r0, r0, #2048
	str	r0, [r1, #12]
	.loc	7 1142 7 is_stmt 1              @ ../Drivers/STM32F4xx_HAL_Driver/Src/stm32f4xx_hal_tim.c:1142:7
	b	.LBB23_53
.Ltmp314:
.LBB23_49:
	.loc	7 1148 7                        @ ../Drivers/STM32F4xx_HAL_Driver/Src/stm32f4xx_hal_tim.c:1148:7
	ldr	r0, [sp, #64]
	ldr	r1, [r0, #48]
	.loc	7 1148 57 is_stmt 0             @ ../Drivers/STM32F4xx_HAL_Driver/Src/stm32f4xx_hal_tim.c:1148:57
	movw	r0, :lower16:TIM_DMADelayPulseCplt
	movt	r0, :upper16:TIM_DMADelayPulseCplt
	str	r0, [r1, #60]
	.loc	7 1149 7 is_stmt 1              @ ../Drivers/STM32F4xx_HAL_Driver/Src/stm32f4xx_hal_tim.c:1149:7
	ldr	r0, [sp, #64]
	ldr	r1, [r0, #48]
	.loc	7 1149 61 is_stmt 0             @ ../Drivers/STM32F4xx_HAL_Driver/Src/stm32f4xx_hal_tim.c:1149:61
	movw	r0, :lower16:TIM_DMADelayPulseHalfCplt
	movt	r0, :upper16:TIM_DMADelayPulseHalfCplt
	str	r0, [r1, #64]
	.loc	7 1152 7 is_stmt 1              @ ../Drivers/STM32F4xx_HAL_Driver/Src/stm32f4xx_hal_tim.c:1152:7
	ldr	r0, [sp, #64]
	ldr	r1, [r0, #48]
	.loc	7 1152 58 is_stmt 0             @ ../Drivers/STM32F4xx_HAL_Driver/Src/stm32f4xx_hal_tim.c:1152:58
	movw	r0, :lower16:TIM_DMAError
	movt	r0, :upper16:TIM_DMAError
	str	r0, [r1, #76]
.Ltmp315:
	.loc	7 1155 28 is_stmt 1             @ ../Drivers/STM32F4xx_HAL_Driver/Src/stm32f4xx_hal_tim.c:1155:28
	ldr	r0, [sp, #64]
	.loc	7 1155 95 is_stmt 0             @ ../Drivers/STM32F4xx_HAL_Driver/Src/stm32f4xx_hal_tim.c:1155:95
	ldr	r2, [r0]
	.loc	7 1155 28                       @ ../Drivers/STM32F4xx_HAL_Driver/Src/stm32f4xx_hal_tim.c:1155:28
	ldr	r0, [r0, #48]
	.loc	7 1155 71                       @ ../Drivers/STM32F4xx_HAL_Driver/Src/stm32f4xx_hal_tim.c:1155:71
	ldr	r1, [sp, #56]
	.loc	7 1155 105                      @ ../Drivers/STM32F4xx_HAL_Driver/Src/stm32f4xx_hal_tim.c:1155:105
	adds	r2, #64
	.loc	7 1156 28 is_stmt 1             @ ../Drivers/STM32F4xx_HAL_Driver/Src/stm32f4xx_hal_tim.c:1156:28
	ldrh.w	r3, [sp, #54]
	.loc	7 1155 11                       @ ../Drivers/STM32F4xx_HAL_Driver/Src/stm32f4xx_hal_tim.c:1155:11
	bl	HAL_DMA_Start_IT
.Ltmp316:
	.loc	7 1155 11 is_stmt 0             @ ../Drivers/STM32F4xx_HAL_Driver/Src/stm32f4xx_hal_tim.c:1155:11
	cbz	r0, .LBB23_51
	b	.LBB23_50
.LBB23_50:
	.loc	7 0 11                          @ ../Drivers/STM32F4xx_HAL_Driver/Src/stm32f4xx_hal_tim.c:0:11
	movs	r0, #1
.Ltmp317:
	.loc	7 1159 9 is_stmt 1              @ ../Drivers/STM32F4xx_HAL_Driver/Src/stm32f4xx_hal_tim.c:1159:9
	strb.w	r0, [sp, #71]
	b	.LBB23_72
.Ltmp318:
.LBB23_51:
	.loc	7 1162 9                        @ ../Drivers/STM32F4xx_HAL_Driver/Src/stm32f4xx_hal_tim.c:1162:9
	ldr	r0, [sp, #64]
	.loc	7 1162 16 is_stmt 0             @ ../Drivers/STM32F4xx_HAL_Driver/Src/stm32f4xx_hal_tim.c:1162:16
	ldr	r1, [r0]
	.loc	7 1162 31                       @ ../Drivers/STM32F4xx_HAL_Driver/Src/stm32f4xx_hal_tim.c:1162:31
	ldr	r0, [r1, #12]
	orr	r0, r0, #4096
	str	r0, [r1, #12]
	.loc	7 1163 7 is_stmt 1              @ ../Drivers/STM32F4xx_HAL_Driver/Src/stm32f4xx_hal_tim.c:1163:7
	b	.LBB23_53
.Ltmp319:
.LBB23_52:
	.loc	7 0 7 is_stmt 0                 @ ../Drivers/STM32F4xx_HAL_Driver/Src/stm32f4xx_hal_tim.c:0:7
	movs	r0, #1
	.loc	7 1167 14 is_stmt 1             @ ../Drivers/STM32F4xx_HAL_Driver/Src/stm32f4xx_hal_tim.c:1167:14
	strb.w	r0, [sp, #53]
	.loc	7 1168 7                        @ ../Drivers/STM32F4xx_HAL_Driver/Src/stm32f4xx_hal_tim.c:1168:7
	b	.LBB23_53
.Ltmp320:
.LBB23_53:
	.loc	7 1171 7                        @ ../Drivers/STM32F4xx_HAL_Driver/Src/stm32f4xx_hal_tim.c:1171:7
	ldrb.w	r0, [sp, #53]
.Ltmp321:
	.loc	7 1171 7 is_stmt 0              @ ../Drivers/STM32F4xx_HAL_Driver/Src/stm32f4xx_hal_tim.c:1171:7
	cmp	r0, #0
	bne.w	.LBB23_71
	b	.LBB23_54
.LBB23_54:
.Ltmp322:
	.loc	7 1174 23 is_stmt 1             @ ../Drivers/STM32F4xx_HAL_Driver/Src/stm32f4xx_hal_tim.c:1174:23
	ldr	r0, [sp, #64]
	.loc	7 1174 29 is_stmt 0             @ ../Drivers/STM32F4xx_HAL_Driver/Src/stm32f4xx_hal_tim.c:1174:29
	ldr	r0, [r0]
	.loc	7 1174 39                       @ ../Drivers/STM32F4xx_HAL_Driver/Src/stm32f4xx_hal_tim.c:1174:39
	ldr	r1, [sp, #60]
	movs	r2, #1
	.loc	7 1174 5                        @ ../Drivers/STM32F4xx_HAL_Driver/Src/stm32f4xx_hal_tim.c:1174:5
	str	r2, [sp, #4]                    @ 4-byte Spill
	bl	TIM_CCxChannelCmd
	ldr	r0, [sp, #4]                    @ 4-byte Reload
.Ltmp323:
	.loc	7 1176 12 is_stmt 1             @ ../Drivers/STM32F4xx_HAL_Driver/Src/stm32f4xx_hal_tim.c:1176:12
	ldr	r1, [sp, #64]
	.loc	7 1176 18 is_stmt 0             @ ../Drivers/STM32F4xx_HAL_Driver/Src/stm32f4xx_hal_tim.c:1176:18
	ldr	r1, [r1]
	movs	r2, #0
	movt	r2, #16385
	.loc	7 1176 93                       @ ../Drivers/STM32F4xx_HAL_Driver/Src/stm32f4xx_hal_tim.c:1176:93
	cmp	r1, r2
	str	r0, [sp, #8]                    @ 4-byte Spill
	beq	.LBB23_56
	b	.LBB23_55
.LBB23_55:
	.loc	7 1176 98                       @ ../Drivers/STM32F4xx_HAL_Driver/Src/stm32f4xx_hal_tim.c:1176:98
	ldr	r0, [sp, #64]
	.loc	7 1176 104                      @ ../Drivers/STM32F4xx_HAL_Driver/Src/stm32f4xx_hal_tim.c:1176:104
	ldr	r0, [r0]
	movw	r1, #64512
	movt	r1, #49150
	.loc	7 1176 114                      @ ../Drivers/STM32F4xx_HAL_Driver/Src/stm32f4xx_hal_tim.c:1176:114
	add	r0, r1
	clz	r0, r0
	lsrs	r0, r0, #5
	.loc	7 1176 93                       @ ../Drivers/STM32F4xx_HAL_Driver/Src/stm32f4xx_hal_tim.c:1176:93
	str	r0, [sp, #8]                    @ 4-byte Spill
	b	.LBB23_56
.Ltmp324:
.LBB23_56:
	.loc	7 0 93                          @ ../Drivers/STM32F4xx_HAL_Driver/Src/stm32f4xx_hal_tim.c:0:93
	ldr	r0, [sp, #8]                    @ 4-byte Reload
	.loc	7 1176 9                        @ ../Drivers/STM32F4xx_HAL_Driver/Src/stm32f4xx_hal_tim.c:1176:9
	lsls	r0, r0, #31
	cbz	r0, .LBB23_58
	b	.LBB23_57
.LBB23_57:
.Ltmp325:
	.loc	7 1179 9 is_stmt 1              @ ../Drivers/STM32F4xx_HAL_Driver/Src/stm32f4xx_hal_tim.c:1179:9
	ldr	r0, [sp, #64]
	.loc	7 1179 16 is_stmt 0             @ ../Drivers/STM32F4xx_HAL_Driver/Src/stm32f4xx_hal_tim.c:1179:16
	ldr	r1, [r0]
	.loc	7 1179 30                       @ ../Drivers/STM32F4xx_HAL_Driver/Src/stm32f4xx_hal_tim.c:1179:30
	ldr	r0, [r1, #68]
	orr	r0, r0, #32768
	str	r0, [r1, #68]
	.loc	7 1180 5 is_stmt 1              @ ../Drivers/STM32F4xx_HAL_Driver/Src/stm32f4xx_hal_tim.c:1180:5
	b	.LBB23_58
.Ltmp326:
.LBB23_58:
	.loc	7 1183 12                       @ ../Drivers/STM32F4xx_HAL_Driver/Src/stm32f4xx_hal_tim.c:1183:12
	ldr	r0, [sp, #64]
	.loc	7 1183 18 is_stmt 0             @ ../Drivers/STM32F4xx_HAL_Driver/Src/stm32f4xx_hal_tim.c:1183:18
	ldr	r0, [r0]
	movs	r1, #0
	movt	r1, #16385
	.loc	7 1183 93                       @ ../Drivers/STM32F4xx_HAL_Driver/Src/stm32f4xx_hal_tim.c:1183:93
	cmp	r0, r1
	beq	.LBB23_66
	b	.LBB23_59
.LBB23_59:
	.loc	7 1183 98                       @ ../Drivers/STM32F4xx_HAL_Driver/Src/stm32f4xx_hal_tim.c:1183:98
	ldr	r0, [sp, #64]
	.loc	7 1183 104                      @ ../Drivers/STM32F4xx_HAL_Driver/Src/stm32f4xx_hal_tim.c:1183:104
	ldr	r0, [r0]
	.loc	7 1183 162                      @ ../Drivers/STM32F4xx_HAL_Driver/Src/stm32f4xx_hal_tim.c:1183:162
	cmp.w	r0, #1073741824
	beq	.LBB23_66
	b	.LBB23_60
.LBB23_60:
	.loc	7 1183 167                      @ ../Drivers/STM32F4xx_HAL_Driver/Src/stm32f4xx_hal_tim.c:1183:167
	ldr	r0, [sp, #64]
	.loc	7 1183 173                      @ ../Drivers/STM32F4xx_HAL_Driver/Src/stm32f4xx_hal_tim.c:1183:173
	ldr	r0, [r0]
	movw	r1, #1024
	movt	r1, #16384
	.loc	7 1183 231                      @ ../Drivers/STM32F4xx_HAL_Driver/Src/stm32f4xx_hal_tim.c:1183:231
	cmp	r0, r1
	beq	.LBB23_66
	b	.LBB23_61
.LBB23_61:
	.loc	7 1183 236                      @ ../Drivers/STM32F4xx_HAL_Driver/Src/stm32f4xx_hal_tim.c:1183:236
	ldr	r0, [sp, #64]
	.loc	7 1183 242                      @ ../Drivers/STM32F4xx_HAL_Driver/Src/stm32f4xx_hal_tim.c:1183:242
	ldr	r0, [r0]
	movw	r1, #2048
	movt	r1, #16384
	.loc	7 1183 300                      @ ../Drivers/STM32F4xx_HAL_Driver/Src/stm32f4xx_hal_tim.c:1183:300
	cmp	r0, r1
	beq	.LBB23_66
	b	.LBB23_62
.LBB23_62:
	.loc	7 1183 305                      @ ../Drivers/STM32F4xx_HAL_Driver/Src/stm32f4xx_hal_tim.c:1183:305
	ldr	r0, [sp, #64]
	.loc	7 1183 311                      @ ../Drivers/STM32F4xx_HAL_Driver/Src/stm32f4xx_hal_tim.c:1183:311
	ldr	r0, [r0]
	movw	r1, #3072
	movt	r1, #16384
	.loc	7 1183 369                      @ ../Drivers/STM32F4xx_HAL_Driver/Src/stm32f4xx_hal_tim.c:1183:369
	cmp	r0, r1
	beq	.LBB23_66
	b	.LBB23_63
.LBB23_63:
	.loc	7 1183 374                      @ ../Drivers/STM32F4xx_HAL_Driver/Src/stm32f4xx_hal_tim.c:1183:374
	ldr	r0, [sp, #64]
	.loc	7 1183 380                      @ ../Drivers/STM32F4xx_HAL_Driver/Src/stm32f4xx_hal_tim.c:1183:380
	ldr	r0, [r0]
	movw	r1, #1024
	movt	r1, #16385
	.loc	7 1183 455                      @ ../Drivers/STM32F4xx_HAL_Driver/Src/stm32f4xx_hal_tim.c:1183:455
	cmp	r0, r1
	beq	.LBB23_66
	b	.LBB23_64
.LBB23_64:
	.loc	7 1183 460                      @ ../Drivers/STM32F4xx_HAL_Driver/Src/stm32f4xx_hal_tim.c:1183:460
	ldr	r0, [sp, #64]
	.loc	7 1183 466                      @ ../Drivers/STM32F4xx_HAL_Driver/Src/stm32f4xx_hal_tim.c:1183:466
	ldr	r0, [r0]
	movw	r1, #16384
	movt	r1, #16385
	.loc	7 1183 541                      @ ../Drivers/STM32F4xx_HAL_Driver/Src/stm32f4xx_hal_tim.c:1183:541
	cmp	r0, r1
	beq	.LBB23_66
	b	.LBB23_65
.LBB23_65:
	.loc	7 1183 546                      @ ../Drivers/STM32F4xx_HAL_Driver/Src/stm32f4xx_hal_tim.c:1183:546
	ldr	r0, [sp, #64]
	.loc	7 1183 552                      @ ../Drivers/STM32F4xx_HAL_Driver/Src/stm32f4xx_hal_tim.c:1183:552
	ldr	r0, [r0]
	movw	r1, #6144
	movt	r1, #16384
.Ltmp327:
	.loc	7 1183 9                        @ ../Drivers/STM32F4xx_HAL_Driver/Src/stm32f4xx_hal_tim.c:1183:9
	cmp	r0, r1
	bne	.LBB23_69
	b	.LBB23_66
.LBB23_66:
.Ltmp328:
	.loc	7 1185 17 is_stmt 1             @ ../Drivers/STM32F4xx_HAL_Driver/Src/stm32f4xx_hal_tim.c:1185:17
	ldr	r0, [sp, #64]
	.loc	7 1185 23 is_stmt 0             @ ../Drivers/STM32F4xx_HAL_Driver/Src/stm32f4xx_hal_tim.c:1185:23
	ldr	r0, [r0]
	.loc	7 1185 33                       @ ../Drivers/STM32F4xx_HAL_Driver/Src/stm32f4xx_hal_tim.c:1185:33
	ldr	r0, [r0, #8]
	.loc	7 1185 38                       @ ../Drivers/STM32F4xx_HAL_Driver/Src/stm32f4xx_hal_tim.c:1185:38
	and	r0, r0, #7
	.loc	7 1185 15                       @ ../Drivers/STM32F4xx_HAL_Driver/Src/stm32f4xx_hal_tim.c:1185:15
	str	r0, [sp, #48]
.Ltmp329:
	.loc	7 1186 14 is_stmt 1             @ ../Drivers/STM32F4xx_HAL_Driver/Src/stm32f4xx_hal_tim.c:1186:14
	ldr	r0, [sp, #48]
.Ltmp330:
	.loc	7 1186 11 is_stmt 0             @ ../Drivers/STM32F4xx_HAL_Driver/Src/stm32f4xx_hal_tim.c:1186:11
	cmp	r0, #6
	beq	.LBB23_68
	b	.LBB23_67
.LBB23_67:
.Ltmp331:
	.loc	7 1188 11 is_stmt 1             @ ../Drivers/STM32F4xx_HAL_Driver/Src/stm32f4xx_hal_tim.c:1188:11
	ldr	r0, [sp, #64]
	.loc	7 1188 18 is_stmt 0             @ ../Drivers/STM32F4xx_HAL_Driver/Src/stm32f4xx_hal_tim.c:1188:18
	ldr	r1, [r0]
	.loc	7 1188 31                       @ ../Drivers/STM32F4xx_HAL_Driver/Src/stm32f4xx_hal_tim.c:1188:31
	ldr	r0, [r1]
	orr	r0, r0, #1
	str	r0, [r1]
	.loc	7 1189 7 is_stmt 1              @ ../Drivers/STM32F4xx_HAL_Driver/Src/stm32f4xx_hal_tim.c:1189:7
	b	.LBB23_68
.Ltmp332:
.LBB23_68:
	.loc	7 1190 5                        @ ../Drivers/STM32F4xx_HAL_Driver/Src/stm32f4xx_hal_tim.c:1190:5
	b	.LBB23_70
.Ltmp333:
.LBB23_69:
	.loc	7 1193 9                        @ ../Drivers/STM32F4xx_HAL_Driver/Src/stm32f4xx_hal_tim.c:1193:9
	ldr	r0, [sp, #64]
	.loc	7 1193 16 is_stmt 0             @ ../Drivers/STM32F4xx_HAL_Driver/Src/stm32f4xx_hal_tim.c:1193:16
	ldr	r1, [r0]
	.loc	7 1193 29                       @ ../Drivers/STM32F4xx_HAL_Driver/Src/stm32f4xx_hal_tim.c:1193:29
	ldr	r0, [r1]
	orr	r0, r0, #1
	str	r0, [r1]
	b	.LBB23_70
.Ltmp334:
.LBB23_70:
	.loc	7 1195 3 is_stmt 1              @ ../Drivers/STM32F4xx_HAL_Driver/Src/stm32f4xx_hal_tim.c:1195:3
	b	.LBB23_71
.Ltmp335:
.LBB23_71:
	.loc	7 1198 10                       @ ../Drivers/STM32F4xx_HAL_Driver/Src/stm32f4xx_hal_tim.c:1198:10
	ldrb.w	r0, [sp, #53]
	.loc	7 1198 3 is_stmt 0              @ ../Drivers/STM32F4xx_HAL_Driver/Src/stm32f4xx_hal_tim.c:1198:3
	strb.w	r0, [sp, #71]
	b	.LBB23_72
.LBB23_72:
	.loc	7 1199 1 is_stmt 1              @ ../Drivers/STM32F4xx_HAL_Driver/Src/stm32f4xx_hal_tim.c:1199:1
	ldrb.w	r0, [sp, #71]
	add	sp, #72
	pop	{r7, pc}
.Ltmp336:
.Lfunc_end23:
	.size	HAL_TIM_OC_Start_DMA, .Lfunc_end23-HAL_TIM_OC_Start_DMA
	.cfi_endproc
	.cantunwind
	.fnend
                                        @ -- End function
	.section	.text.TIM_DMADelayPulseCplt,"ax",%progbits
	.p2align	2                               @ -- Begin function TIM_DMADelayPulseCplt
	.type	TIM_DMADelayPulseCplt,%function
	.code	16                              @ @TIM_DMADelayPulseCplt
	.thumb_func
TIM_DMADelayPulseCplt:
.Lfunc_begin24:
	.loc	7 6503 0                        @ ../Drivers/STM32F4xx_HAL_Driver/Src/stm32f4xx_hal_tim.c:6503:0
	.fnstart
	.cfi_startproc
@ %bb.0:
	.save	{r7, lr}
	push	{r7, lr}
	.cfi_def_cfa_offset 8
	.cfi_offset lr, -4
	.cfi_offset r7, -8
	.pad	#8
	sub	sp, #8
	.cfi_def_cfa_offset 16
	str	r0, [sp, #4]
.Ltmp337:
	.loc	7 6504 72 prologue_end          @ ../Drivers/STM32F4xx_HAL_Driver/Src/stm32f4xx_hal_tim.c:6504:72
	ldr	r0, [sp, #4]
	.loc	7 6504 79 is_stmt 0             @ ../Drivers/STM32F4xx_HAL_Driver/Src/stm32f4xx_hal_tim.c:6504:79
	ldr	r0, [r0, #56]
	.loc	7 6504 22                       @ ../Drivers/STM32F4xx_HAL_Driver/Src/stm32f4xx_hal_tim.c:6504:22
	str	r0, [sp]
.Ltmp338:
	.loc	7 6506 7 is_stmt 1              @ ../Drivers/STM32F4xx_HAL_Driver/Src/stm32f4xx_hal_tim.c:6506:7
	ldr	r0, [sp, #4]
	.loc	7 6506 15 is_stmt 0             @ ../Drivers/STM32F4xx_HAL_Driver/Src/stm32f4xx_hal_tim.c:6506:15
	ldr	r1, [sp]
	ldr	r1, [r1, #36]
.Ltmp339:
	.loc	7 6506 7                        @ ../Drivers/STM32F4xx_HAL_Driver/Src/stm32f4xx_hal_tim.c:6506:7
	cmp	r0, r1
	bne	.LBB24_4
	b	.LBB24_1
.LBB24_1:
.Ltmp340:
	.loc	7 6508 5 is_stmt 1              @ ../Drivers/STM32F4xx_HAL_Driver/Src/stm32f4xx_hal_tim.c:6508:5
	ldr	r1, [sp]
	movs	r0, #1
	.loc	7 6508 19 is_stmt 0             @ ../Drivers/STM32F4xx_HAL_Driver/Src/stm32f4xx_hal_tim.c:6508:19
	strb	r0, [r1, #28]
.Ltmp341:
	.loc	7 6510 9 is_stmt 1              @ ../Drivers/STM32F4xx_HAL_Driver/Src/stm32f4xx_hal_tim.c:6510:9
	ldr	r0, [sp, #4]
	.loc	7 6510 20 is_stmt 0             @ ../Drivers/STM32F4xx_HAL_Driver/Src/stm32f4xx_hal_tim.c:6510:20
	ldr	r0, [r0, #28]
.Ltmp342:
	.loc	7 6510 9                        @ ../Drivers/STM32F4xx_HAL_Driver/Src/stm32f4xx_hal_tim.c:6510:9
	cbnz	r0, .LBB24_3
	b	.LBB24_2
.LBB24_2:
.Ltmp343:
	.loc	7 6512 43 is_stmt 1             @ ../Drivers/STM32F4xx_HAL_Driver/Src/stm32f4xx_hal_tim.c:6512:43
	ldr	r1, [sp]
	movs	r0, #1
	.loc	7 6512 66 is_stmt 0             @ ../Drivers/STM32F4xx_HAL_Driver/Src/stm32f4xx_hal_tim.c:6512:66
	strb.w	r0, [r1, #62]
	.loc	7 6513 5 is_stmt 1              @ ../Drivers/STM32F4xx_HAL_Driver/Src/stm32f4xx_hal_tim.c:6513:5
	b	.LBB24_3
.Ltmp344:
.LBB24_3:
	.loc	7 6514 3                        @ ../Drivers/STM32F4xx_HAL_Driver/Src/stm32f4xx_hal_tim.c:6514:3
	b	.LBB24_20
.Ltmp345:
.LBB24_4:
	.loc	7 6515 12                       @ ../Drivers/STM32F4xx_HAL_Driver/Src/stm32f4xx_hal_tim.c:6515:12
	ldr	r0, [sp, #4]
	.loc	7 6515 20 is_stmt 0             @ ../Drivers/STM32F4xx_HAL_Driver/Src/stm32f4xx_hal_tim.c:6515:20
	ldr	r1, [sp]
	ldr	r1, [r1, #40]
.Ltmp346:
	.loc	7 6515 12                       @ ../Drivers/STM32F4xx_HAL_Driver/Src/stm32f4xx_hal_tim.c:6515:12
	cmp	r0, r1
	bne	.LBB24_8
	b	.LBB24_5
.LBB24_5:
.Ltmp347:
	.loc	7 6517 5 is_stmt 1              @ ../Drivers/STM32F4xx_HAL_Driver/Src/stm32f4xx_hal_tim.c:6517:5
	ldr	r1, [sp]
	movs	r0, #2
	.loc	7 6517 19 is_stmt 0             @ ../Drivers/STM32F4xx_HAL_Driver/Src/stm32f4xx_hal_tim.c:6517:19
	strb	r0, [r1, #28]
.Ltmp348:
	.loc	7 6519 9 is_stmt 1              @ ../Drivers/STM32F4xx_HAL_Driver/Src/stm32f4xx_hal_tim.c:6519:9
	ldr	r0, [sp, #4]
	.loc	7 6519 20 is_stmt 0             @ ../Drivers/STM32F4xx_HAL_Driver/Src/stm32f4xx_hal_tim.c:6519:20
	ldr	r0, [r0, #28]
.Ltmp349:
	.loc	7 6519 9                        @ ../Drivers/STM32F4xx_HAL_Driver/Src/stm32f4xx_hal_tim.c:6519:9
	cbnz	r0, .LBB24_7
	b	.LBB24_6
.LBB24_6:
.Ltmp350:
	.loc	7 6521 136 is_stmt 1            @ ../Drivers/STM32F4xx_HAL_Driver/Src/stm32f4xx_hal_tim.c:6521:136
	ldr	r1, [sp]
	movs	r0, #1
	.loc	7 6521 159 is_stmt 0            @ ../Drivers/STM32F4xx_HAL_Driver/Src/stm32f4xx_hal_tim.c:6521:159
	strb.w	r0, [r1, #63]
	.loc	7 6522 5 is_stmt 1              @ ../Drivers/STM32F4xx_HAL_Driver/Src/stm32f4xx_hal_tim.c:6522:5
	b	.LBB24_7
.Ltmp351:
.LBB24_7:
	.loc	7 6523 3                        @ ../Drivers/STM32F4xx_HAL_Driver/Src/stm32f4xx_hal_tim.c:6523:3
	b	.LBB24_19
.Ltmp352:
.LBB24_8:
	.loc	7 6524 12                       @ ../Drivers/STM32F4xx_HAL_Driver/Src/stm32f4xx_hal_tim.c:6524:12
	ldr	r0, [sp, #4]
	.loc	7 6524 20 is_stmt 0             @ ../Drivers/STM32F4xx_HAL_Driver/Src/stm32f4xx_hal_tim.c:6524:20
	ldr	r1, [sp]
	ldr	r1, [r1, #44]
.Ltmp353:
	.loc	7 6524 12                       @ ../Drivers/STM32F4xx_HAL_Driver/Src/stm32f4xx_hal_tim.c:6524:12
	cmp	r0, r1
	bne	.LBB24_12
	b	.LBB24_9
.LBB24_9:
.Ltmp354:
	.loc	7 6526 5 is_stmt 1              @ ../Drivers/STM32F4xx_HAL_Driver/Src/stm32f4xx_hal_tim.c:6526:5
	ldr	r1, [sp]
	movs	r0, #4
	.loc	7 6526 19 is_stmt 0             @ ../Drivers/STM32F4xx_HAL_Driver/Src/stm32f4xx_hal_tim.c:6526:19
	strb	r0, [r1, #28]
.Ltmp355:
	.loc	7 6528 9 is_stmt 1              @ ../Drivers/STM32F4xx_HAL_Driver/Src/stm32f4xx_hal_tim.c:6528:9
	ldr	r0, [sp, #4]
	.loc	7 6528 20 is_stmt 0             @ ../Drivers/STM32F4xx_HAL_Driver/Src/stm32f4xx_hal_tim.c:6528:20
	ldr	r0, [r0, #28]
.Ltmp356:
	.loc	7 6528 9                        @ ../Drivers/STM32F4xx_HAL_Driver/Src/stm32f4xx_hal_tim.c:6528:9
	cbnz	r0, .LBB24_11
	b	.LBB24_10
.LBB24_10:
.Ltmp357:
	.loc	7 6530 229 is_stmt 1            @ ../Drivers/STM32F4xx_HAL_Driver/Src/stm32f4xx_hal_tim.c:6530:229
	ldr	r1, [sp]
	movs	r0, #1
	.loc	7 6530 252 is_stmt 0            @ ../Drivers/STM32F4xx_HAL_Driver/Src/stm32f4xx_hal_tim.c:6530:252
	strb.w	r0, [r1, #64]
	.loc	7 6531 5 is_stmt 1              @ ../Drivers/STM32F4xx_HAL_Driver/Src/stm32f4xx_hal_tim.c:6531:5
	b	.LBB24_11
.Ltmp358:
.LBB24_11:
	.loc	7 6532 3                        @ ../Drivers/STM32F4xx_HAL_Driver/Src/stm32f4xx_hal_tim.c:6532:3
	b	.LBB24_18
.Ltmp359:
.LBB24_12:
	.loc	7 6533 12                       @ ../Drivers/STM32F4xx_HAL_Driver/Src/stm32f4xx_hal_tim.c:6533:12
	ldr	r0, [sp, #4]
	.loc	7 6533 20 is_stmt 0             @ ../Drivers/STM32F4xx_HAL_Driver/Src/stm32f4xx_hal_tim.c:6533:20
	ldr	r1, [sp]
	ldr	r1, [r1, #48]
.Ltmp360:
	.loc	7 6533 12                       @ ../Drivers/STM32F4xx_HAL_Driver/Src/stm32f4xx_hal_tim.c:6533:12
	cmp	r0, r1
	bne	.LBB24_16
	b	.LBB24_13
.LBB24_13:
.Ltmp361:
	.loc	7 6535 5 is_stmt 1              @ ../Drivers/STM32F4xx_HAL_Driver/Src/stm32f4xx_hal_tim.c:6535:5
	ldr	r1, [sp]
	movs	r0, #8
	.loc	7 6535 19 is_stmt 0             @ ../Drivers/STM32F4xx_HAL_Driver/Src/stm32f4xx_hal_tim.c:6535:19
	strb	r0, [r1, #28]
.Ltmp362:
	.loc	7 6537 9 is_stmt 1              @ ../Drivers/STM32F4xx_HAL_Driver/Src/stm32f4xx_hal_tim.c:6537:9
	ldr	r0, [sp, #4]
	.loc	7 6537 20 is_stmt 0             @ ../Drivers/STM32F4xx_HAL_Driver/Src/stm32f4xx_hal_tim.c:6537:20
	ldr	r0, [r0, #28]
.Ltmp363:
	.loc	7 6537 9                        @ ../Drivers/STM32F4xx_HAL_Driver/Src/stm32f4xx_hal_tim.c:6537:9
	cbnz	r0, .LBB24_15
	b	.LBB24_14
.LBB24_14:
.Ltmp364:
	.loc	7 6539 289 is_stmt 1            @ ../Drivers/STM32F4xx_HAL_Driver/Src/stm32f4xx_hal_tim.c:6539:289
	ldr	r1, [sp]
	movs	r0, #1
	.loc	7 6539 312 is_stmt 0            @ ../Drivers/STM32F4xx_HAL_Driver/Src/stm32f4xx_hal_tim.c:6539:312
	strb.w	r0, [r1, #65]
	.loc	7 6540 5 is_stmt 1              @ ../Drivers/STM32F4xx_HAL_Driver/Src/stm32f4xx_hal_tim.c:6540:5
	b	.LBB24_15
.Ltmp365:
.LBB24_15:
	.loc	7 6541 3                        @ ../Drivers/STM32F4xx_HAL_Driver/Src/stm32f4xx_hal_tim.c:6541:3
	b	.LBB24_17
.Ltmp366:
.LBB24_16:
	.loc	7 0 3 is_stmt 0                 @ ../Drivers/STM32F4xx_HAL_Driver/Src/stm32f4xx_hal_tim.c:0:3
	b	.LBB24_17
.LBB24_17:
	b	.LBB24_18
.LBB24_18:
	b	.LBB24_19
.LBB24_19:
	b	.LBB24_20
.LBB24_20:
	.loc	7 6550 37 is_stmt 1             @ ../Drivers/STM32F4xx_HAL_Driver/Src/stm32f4xx_hal_tim.c:6550:37
	ldr	r0, [sp]
	.loc	7 6550 3 is_stmt 0              @ ../Drivers/STM32F4xx_HAL_Driver/Src/stm32f4xx_hal_tim.c:6550:3
	bl	HAL_TIM_PWM_PulseFinishedCallback
	.loc	7 6553 3 is_stmt 1              @ ../Drivers/STM32F4xx_HAL_Driver/Src/stm32f4xx_hal_tim.c:6553:3
	ldr	r1, [sp]
	movs	r0, #0
	.loc	7 6553 17 is_stmt 0             @ ../Drivers/STM32F4xx_HAL_Driver/Src/stm32f4xx_hal_tim.c:6553:17
	strb	r0, [r1, #28]
	.loc	7 6554 1 is_stmt 1              @ ../Drivers/STM32F4xx_HAL_Driver/Src/stm32f4xx_hal_tim.c:6554:1
	add	sp, #8
	pop	{r7, pc}
.Ltmp367:
.Lfunc_end24:
	.size	TIM_DMADelayPulseCplt, .Lfunc_end24-TIM_DMADelayPulseCplt
	.cfi_endproc
	.cantunwind
	.fnend
                                        @ -- End function
	.section	.text.TIM_DMADelayPulseHalfCplt,"ax",%progbits
	.hidden	TIM_DMADelayPulseHalfCplt       @ -- Begin function TIM_DMADelayPulseHalfCplt
	.globl	TIM_DMADelayPulseHalfCplt
	.p2align	2
	.type	TIM_DMADelayPulseHalfCplt,%function
	.code	16                              @ @TIM_DMADelayPulseHalfCplt
	.thumb_func
TIM_DMADelayPulseHalfCplt:
.Lfunc_begin25:
	.loc	7 6562 0                        @ ../Drivers/STM32F4xx_HAL_Driver/Src/stm32f4xx_hal_tim.c:6562:0
	.fnstart
	.cfi_startproc
@ %bb.0:
	.save	{r7, lr}
	push	{r7, lr}
	.cfi_def_cfa_offset 8
	.cfi_offset lr, -4
	.cfi_offset r7, -8
	.pad	#8
	sub	sp, #8
	.cfi_def_cfa_offset 16
	str	r0, [sp, #4]
.Ltmp368:
	.loc	7 6563 72 prologue_end          @ ../Drivers/STM32F4xx_HAL_Driver/Src/stm32f4xx_hal_tim.c:6563:72
	ldr	r0, [sp, #4]
	.loc	7 6563 79 is_stmt 0             @ ../Drivers/STM32F4xx_HAL_Driver/Src/stm32f4xx_hal_tim.c:6563:79
	ldr	r0, [r0, #56]
	.loc	7 6563 22                       @ ../Drivers/STM32F4xx_HAL_Driver/Src/stm32f4xx_hal_tim.c:6563:22
	str	r0, [sp]
.Ltmp369:
	.loc	7 6565 7 is_stmt 1              @ ../Drivers/STM32F4xx_HAL_Driver/Src/stm32f4xx_hal_tim.c:6565:7
	ldr	r0, [sp, #4]
	.loc	7 6565 15 is_stmt 0             @ ../Drivers/STM32F4xx_HAL_Driver/Src/stm32f4xx_hal_tim.c:6565:15
	ldr	r1, [sp]
	ldr	r1, [r1, #36]
.Ltmp370:
	.loc	7 6565 7                        @ ../Drivers/STM32F4xx_HAL_Driver/Src/stm32f4xx_hal_tim.c:6565:7
	cmp	r0, r1
	bne	.LBB25_2
	b	.LBB25_1
.LBB25_1:
.Ltmp371:
	.loc	7 6567 5 is_stmt 1              @ ../Drivers/STM32F4xx_HAL_Driver/Src/stm32f4xx_hal_tim.c:6567:5
	ldr	r1, [sp]
	movs	r0, #1
	.loc	7 6567 19 is_stmt 0             @ ../Drivers/STM32F4xx_HAL_Driver/Src/stm32f4xx_hal_tim.c:6567:19
	strb	r0, [r1, #28]
	.loc	7 6568 3 is_stmt 1              @ ../Drivers/STM32F4xx_HAL_Driver/Src/stm32f4xx_hal_tim.c:6568:3
	b	.LBB25_12
.Ltmp372:
.LBB25_2:
	.loc	7 6569 12                       @ ../Drivers/STM32F4xx_HAL_Driver/Src/stm32f4xx_hal_tim.c:6569:12
	ldr	r0, [sp, #4]
	.loc	7 6569 20 is_stmt 0             @ ../Drivers/STM32F4xx_HAL_Driver/Src/stm32f4xx_hal_tim.c:6569:20
	ldr	r1, [sp]
	ldr	r1, [r1, #40]
.Ltmp373:
	.loc	7 6569 12                       @ ../Drivers/STM32F4xx_HAL_Driver/Src/stm32f4xx_hal_tim.c:6569:12
	cmp	r0, r1
	bne	.LBB25_4
	b	.LBB25_3
.LBB25_3:
.Ltmp374:
	.loc	7 6571 5 is_stmt 1              @ ../Drivers/STM32F4xx_HAL_Driver/Src/stm32f4xx_hal_tim.c:6571:5
	ldr	r1, [sp]
	movs	r0, #2
	.loc	7 6571 19 is_stmt 0             @ ../Drivers/STM32F4xx_HAL_Driver/Src/stm32f4xx_hal_tim.c:6571:19
	strb	r0, [r1, #28]
	.loc	7 6572 3 is_stmt 1              @ ../Drivers/STM32F4xx_HAL_Driver/Src/stm32f4xx_hal_tim.c:6572:3
	b	.LBB25_11
.Ltmp375:
.LBB25_4:
	.loc	7 6573 12                       @ ../Drivers/STM32F4xx_HAL_Driver/Src/stm32f4xx_hal_tim.c:6573:12
	ldr	r0, [sp, #4]
	.loc	7 6573 20 is_stmt 0             @ ../Drivers/STM32F4xx_HAL_Driver/Src/stm32f4xx_hal_tim.c:6573:20
	ldr	r1, [sp]
	ldr	r1, [r1, #44]
.Ltmp376:
	.loc	7 6573 12                       @ ../Drivers/STM32F4xx_HAL_Driver/Src/stm32f4xx_hal_tim.c:6573:12
	cmp	r0, r1
	bne	.LBB25_6
	b	.LBB25_5
.LBB25_5:
.Ltmp377:
	.loc	7 6575 5 is_stmt 1              @ ../Drivers/STM32F4xx_HAL_Driver/Src/stm32f4xx_hal_tim.c:6575:5
	ldr	r1, [sp]
	movs	r0, #4
	.loc	7 6575 19 is_stmt 0             @ ../Drivers/STM32F4xx_HAL_Driver/Src/stm32f4xx_hal_tim.c:6575:19
	strb	r0, [r1, #28]
	.loc	7 6576 3 is_stmt 1              @ ../Drivers/STM32F4xx_HAL_Driver/Src/stm32f4xx_hal_tim.c:6576:3
	b	.LBB25_10
.Ltmp378:
.LBB25_6:
	.loc	7 6577 12                       @ ../Drivers/STM32F4xx_HAL_Driver/Src/stm32f4xx_hal_tim.c:6577:12
	ldr	r0, [sp, #4]
	.loc	7 6577 20 is_stmt 0             @ ../Drivers/STM32F4xx_HAL_Driver/Src/stm32f4xx_hal_tim.c:6577:20
	ldr	r1, [sp]
	ldr	r1, [r1, #48]
.Ltmp379:
	.loc	7 6577 12                       @ ../Drivers/STM32F4xx_HAL_Driver/Src/stm32f4xx_hal_tim.c:6577:12
	cmp	r0, r1
	bne	.LBB25_8
	b	.LBB25_7
.LBB25_7:
.Ltmp380:
	.loc	7 6579 5 is_stmt 1              @ ../Drivers/STM32F4xx_HAL_Driver/Src/stm32f4xx_hal_tim.c:6579:5
	ldr	r1, [sp]
	movs	r0, #8
	.loc	7 6579 19 is_stmt 0             @ ../Drivers/STM32F4xx_HAL_Driver/Src/stm32f4xx_hal_tim.c:6579:19
	strb	r0, [r1, #28]
	.loc	7 6580 3 is_stmt 1              @ ../Drivers/STM32F4xx_HAL_Driver/Src/stm32f4xx_hal_tim.c:6580:3
	b	.LBB25_9
.Ltmp381:
.LBB25_8:
	.loc	7 0 3 is_stmt 0                 @ ../Drivers/STM32F4xx_HAL_Driver/Src/stm32f4xx_hal_tim.c:0:3
	b	.LBB25_9
.LBB25_9:
	b	.LBB25_10
.LBB25_10:
	b	.LBB25_11
.LBB25_11:
	b	.LBB25_12
.LBB25_12:
	.loc	7 6589 45 is_stmt 1             @ ../Drivers/STM32F4xx_HAL_Driver/Src/stm32f4xx_hal_tim.c:6589:45
	ldr	r0, [sp]
	.loc	7 6589 3 is_stmt 0              @ ../Drivers/STM32F4xx_HAL_Driver/Src/stm32f4xx_hal_tim.c:6589:3
	bl	HAL_TIM_PWM_PulseFinishedHalfCpltCallback
	.loc	7 6592 3 is_stmt 1              @ ../Drivers/STM32F4xx_HAL_Driver/Src/stm32f4xx_hal_tim.c:6592:3
	ldr	r1, [sp]
	movs	r0, #0
	.loc	7 6592 17 is_stmt 0             @ ../Drivers/STM32F4xx_HAL_Driver/Src/stm32f4xx_hal_tim.c:6592:17
	strb	r0, [r1, #28]
	.loc	7 6593 1 is_stmt 1              @ ../Drivers/STM32F4xx_HAL_Driver/Src/stm32f4xx_hal_tim.c:6593:1
	add	sp, #8
	pop	{r7, pc}
.Ltmp382:
.Lfunc_end25:
	.size	TIM_DMADelayPulseHalfCplt, .Lfunc_end25-TIM_DMADelayPulseHalfCplt
	.cfi_endproc
	.cantunwind
	.fnend
                                        @ -- End function
	.section	.text.HAL_TIM_OC_Stop_DMA,"ax",%progbits
	.hidden	HAL_TIM_OC_Stop_DMA             @ -- Begin function HAL_TIM_OC_Stop_DMA
	.globl	HAL_TIM_OC_Stop_DMA
	.p2align	2
	.type	HAL_TIM_OC_Stop_DMA,%function
	.code	16                              @ @HAL_TIM_OC_Stop_DMA
	.thumb_func
HAL_TIM_OC_Stop_DMA:
.Lfunc_begin26:
	.loc	7 1213 0                        @ ../Drivers/STM32F4xx_HAL_Driver/Src/stm32f4xx_hal_tim.c:1213:0
	.fnstart
	.cfi_startproc
@ %bb.0:
	.save	{r7, lr}
	push	{r7, lr}
	.cfi_def_cfa_offset 8
	.cfi_offset lr, -4
	.cfi_offset r7, -8
	.pad	#32
	sub	sp, #32
	.cfi_def_cfa_offset 40
	str	r0, [sp, #28]
	str	r1, [sp, #24]
	movs	r0, #0
.Ltmp383:
	.loc	7 1214 21 prologue_end          @ ../Drivers/STM32F4xx_HAL_Driver/Src/stm32f4xx_hal_tim.c:1214:21
	strb.w	r0, [sp, #23]
	.loc	7 1219 11                       @ ../Drivers/STM32F4xx_HAL_Driver/Src/stm32f4xx_hal_tim.c:1219:11
	ldr	r0, [sp, #24]
	.loc	7 1219 3 is_stmt 0              @ ../Drivers/STM32F4xx_HAL_Driver/Src/stm32f4xx_hal_tim.c:1219:3
	str	r0, [sp, #16]                   @ 4-byte Spill
	cmp	r0, #12
	bhi	.LBB26_7
@ %bb.1:
	.loc	7 0 3                           @ ../Drivers/STM32F4xx_HAL_Driver/Src/stm32f4xx_hal_tim.c:0:3
	ldr	r1, [sp, #16]                   @ 4-byte Reload
.LCPI26_0:
	tbb	[pc, r1]
@ %bb.2:
.LJTI26_0:
	.byte	(.LBB26_3-(.LCPI26_0+4))/2
	.byte	(.LBB26_7-(.LCPI26_0+4))/2
	.byte	(.LBB26_7-(.LCPI26_0+4))/2
	.byte	(.LBB26_7-(.LCPI26_0+4))/2
	.byte	(.LBB26_4-(.LCPI26_0+4))/2
	.byte	(.LBB26_7-(.LCPI26_0+4))/2
	.byte	(.LBB26_7-(.LCPI26_0+4))/2
	.byte	(.LBB26_7-(.LCPI26_0+4))/2
	.byte	(.LBB26_5-(.LCPI26_0+4))/2
	.byte	(.LBB26_7-(.LCPI26_0+4))/2
	.byte	(.LBB26_7-(.LCPI26_0+4))/2
	.byte	(.LBB26_7-(.LCPI26_0+4))/2
	.byte	(.LBB26_6-(.LCPI26_0+4))/2
	.p2align	1
.LBB26_3:
.Ltmp384:
	.loc	7 1224 9 is_stmt 1              @ ../Drivers/STM32F4xx_HAL_Driver/Src/stm32f4xx_hal_tim.c:1224:9
	ldr	r0, [sp, #28]
	.loc	7 1224 16 is_stmt 0             @ ../Drivers/STM32F4xx_HAL_Driver/Src/stm32f4xx_hal_tim.c:1224:16
	ldr	r1, [r0]
	.loc	7 1224 31                       @ ../Drivers/STM32F4xx_HAL_Driver/Src/stm32f4xx_hal_tim.c:1224:31
	ldr	r0, [r1, #12]
	bic	r0, r0, #512
	str	r0, [r1, #12]
	.loc	7 1225 30 is_stmt 1             @ ../Drivers/STM32F4xx_HAL_Driver/Src/stm32f4xx_hal_tim.c:1225:30
	ldr	r0, [sp, #28]
	ldr	r0, [r0, #36]
	.loc	7 1225 13 is_stmt 0             @ ../Drivers/STM32F4xx_HAL_Driver/Src/stm32f4xx_hal_tim.c:1225:13
	bl	HAL_DMA_Abort_IT
	.loc	7 1226 7 is_stmt 1              @ ../Drivers/STM32F4xx_HAL_Driver/Src/stm32f4xx_hal_tim.c:1226:7
	b	.LBB26_8
.Ltmp385:
.LBB26_4:
	.loc	7 1232 9                        @ ../Drivers/STM32F4xx_HAL_Driver/Src/stm32f4xx_hal_tim.c:1232:9
	ldr	r0, [sp, #28]
	.loc	7 1232 16 is_stmt 0             @ ../Drivers/STM32F4xx_HAL_Driver/Src/stm32f4xx_hal_tim.c:1232:16
	ldr	r1, [r0]
	.loc	7 1232 31                       @ ../Drivers/STM32F4xx_HAL_Driver/Src/stm32f4xx_hal_tim.c:1232:31
	ldr	r0, [r1, #12]
	bic	r0, r0, #1024
	str	r0, [r1, #12]
	.loc	7 1233 30 is_stmt 1             @ ../Drivers/STM32F4xx_HAL_Driver/Src/stm32f4xx_hal_tim.c:1233:30
	ldr	r0, [sp, #28]
	ldr	r0, [r0, #40]
	.loc	7 1233 13 is_stmt 0             @ ../Drivers/STM32F4xx_HAL_Driver/Src/stm32f4xx_hal_tim.c:1233:13
	bl	HAL_DMA_Abort_IT
	.loc	7 1234 7 is_stmt 1              @ ../Drivers/STM32F4xx_HAL_Driver/Src/stm32f4xx_hal_tim.c:1234:7
	b	.LBB26_8
.Ltmp386:
.LBB26_5:
	.loc	7 1240 9                        @ ../Drivers/STM32F4xx_HAL_Driver/Src/stm32f4xx_hal_tim.c:1240:9
	ldr	r0, [sp, #28]
	.loc	7 1240 16 is_stmt 0             @ ../Drivers/STM32F4xx_HAL_Driver/Src/stm32f4xx_hal_tim.c:1240:16
	ldr	r1, [r0]
	.loc	7 1240 31                       @ ../Drivers/STM32F4xx_HAL_Driver/Src/stm32f4xx_hal_tim.c:1240:31
	ldr	r0, [r1, #12]
	bic	r0, r0, #2048
	str	r0, [r1, #12]
	.loc	7 1241 30 is_stmt 1             @ ../Drivers/STM32F4xx_HAL_Driver/Src/stm32f4xx_hal_tim.c:1241:30
	ldr	r0, [sp, #28]
	ldr	r0, [r0, #44]
	.loc	7 1241 13 is_stmt 0             @ ../Drivers/STM32F4xx_HAL_Driver/Src/stm32f4xx_hal_tim.c:1241:13
	bl	HAL_DMA_Abort_IT
	.loc	7 1242 7 is_stmt 1              @ ../Drivers/STM32F4xx_HAL_Driver/Src/stm32f4xx_hal_tim.c:1242:7
	b	.LBB26_8
.Ltmp387:
.LBB26_6:
	.loc	7 1248 9                        @ ../Drivers/STM32F4xx_HAL_Driver/Src/stm32f4xx_hal_tim.c:1248:9
	ldr	r0, [sp, #28]
	.loc	7 1248 16 is_stmt 0             @ ../Drivers/STM32F4xx_HAL_Driver/Src/stm32f4xx_hal_tim.c:1248:16
	ldr	r1, [r0]
	.loc	7 1248 31                       @ ../Drivers/STM32F4xx_HAL_Driver/Src/stm32f4xx_hal_tim.c:1248:31
	ldr	r0, [r1, #12]
	bic	r0, r0, #4096
	str	r0, [r1, #12]
	.loc	7 1249 30 is_stmt 1             @ ../Drivers/STM32F4xx_HAL_Driver/Src/stm32f4xx_hal_tim.c:1249:30
	ldr	r0, [sp, #28]
	ldr	r0, [r0, #48]
	.loc	7 1249 13 is_stmt 0             @ ../Drivers/STM32F4xx_HAL_Driver/Src/stm32f4xx_hal_tim.c:1249:13
	bl	HAL_DMA_Abort_IT
	.loc	7 1250 7 is_stmt 1              @ ../Drivers/STM32F4xx_HAL_Driver/Src/stm32f4xx_hal_tim.c:1250:7
	b	.LBB26_8
.Ltmp388:
.LBB26_7:
	.loc	7 0 7 is_stmt 0                 @ ../Drivers/STM32F4xx_HAL_Driver/Src/stm32f4xx_hal_tim.c:0:7
	movs	r0, #1
	.loc	7 1254 14 is_stmt 1             @ ../Drivers/STM32F4xx_HAL_Driver/Src/stm32f4xx_hal_tim.c:1254:14
	strb.w	r0, [sp, #23]
	.loc	7 1255 7                        @ ../Drivers/STM32F4xx_HAL_Driver/Src/stm32f4xx_hal_tim.c:1255:7
	b	.LBB26_8
.Ltmp389:
.LBB26_8:
	.loc	7 1258 7                        @ ../Drivers/STM32F4xx_HAL_Driver/Src/stm32f4xx_hal_tim.c:1258:7
	ldrb.w	r0, [sp, #23]
.Ltmp390:
	.loc	7 1258 7 is_stmt 0              @ ../Drivers/STM32F4xx_HAL_Driver/Src/stm32f4xx_hal_tim.c:1258:7
	cmp	r0, #0
	bne	.LBB26_35
	b	.LBB26_9
.LBB26_9:
.Ltmp391:
	.loc	7 1261 23 is_stmt 1             @ ../Drivers/STM32F4xx_HAL_Driver/Src/stm32f4xx_hal_tim.c:1261:23
	ldr	r0, [sp, #28]
	.loc	7 1261 29 is_stmt 0             @ ../Drivers/STM32F4xx_HAL_Driver/Src/stm32f4xx_hal_tim.c:1261:29
	ldr	r0, [r0]
	.loc	7 1261 39                       @ ../Drivers/STM32F4xx_HAL_Driver/Src/stm32f4xx_hal_tim.c:1261:39
	ldr	r1, [sp, #24]
	movs	r2, #0
	.loc	7 1261 5                        @ ../Drivers/STM32F4xx_HAL_Driver/Src/stm32f4xx_hal_tim.c:1261:5
	bl	TIM_CCxChannelCmd
.Ltmp392:
	.loc	7 1263 12 is_stmt 1             @ ../Drivers/STM32F4xx_HAL_Driver/Src/stm32f4xx_hal_tim.c:1263:12
	ldr	r0, [sp, #28]
	.loc	7 1263 18 is_stmt 0             @ ../Drivers/STM32F4xx_HAL_Driver/Src/stm32f4xx_hal_tim.c:1263:18
	ldr	r1, [r0]
	movs	r0, #1
	movs	r2, #0
	movt	r2, #16385
	.loc	7 1263 93                       @ ../Drivers/STM32F4xx_HAL_Driver/Src/stm32f4xx_hal_tim.c:1263:93
	cmp	r1, r2
	str	r0, [sp, #12]                   @ 4-byte Spill
	beq	.LBB26_11
	b	.LBB26_10
.LBB26_10:
	.loc	7 1263 98                       @ ../Drivers/STM32F4xx_HAL_Driver/Src/stm32f4xx_hal_tim.c:1263:98
	ldr	r0, [sp, #28]
	.loc	7 1263 104                      @ ../Drivers/STM32F4xx_HAL_Driver/Src/stm32f4xx_hal_tim.c:1263:104
	ldr	r0, [r0]
	movw	r1, #64512
	movt	r1, #49150
	.loc	7 1263 114                      @ ../Drivers/STM32F4xx_HAL_Driver/Src/stm32f4xx_hal_tim.c:1263:114
	add	r0, r1
	clz	r0, r0
	lsrs	r0, r0, #5
	.loc	7 1263 93                       @ ../Drivers/STM32F4xx_HAL_Driver/Src/stm32f4xx_hal_tim.c:1263:93
	str	r0, [sp, #12]                   @ 4-byte Spill
	b	.LBB26_11
.Ltmp393:
.LBB26_11:
	.loc	7 0 93                          @ ../Drivers/STM32F4xx_HAL_Driver/Src/stm32f4xx_hal_tim.c:0:93
	ldr	r0, [sp, #12]                   @ 4-byte Reload
	.loc	7 1263 9                        @ ../Drivers/STM32F4xx_HAL_Driver/Src/stm32f4xx_hal_tim.c:1263:9
	lsls	r0, r0, #31
	cbz	r0, .LBB26_19
	b	.LBB26_12
.LBB26_12:
.Ltmp394:
	.loc	7 1266 7 is_stmt 1              @ ../Drivers/STM32F4xx_HAL_Driver/Src/stm32f4xx_hal_tim.c:1266:7
	b	.LBB26_13
.LBB26_13:
.Ltmp395:
	.loc	7 1266 18 is_stmt 0             @ ../Drivers/STM32F4xx_HAL_Driver/Src/stm32f4xx_hal_tim.c:1266:18
	ldr	r0, [sp, #28]
	.loc	7 1266 25                       @ ../Drivers/STM32F4xx_HAL_Driver/Src/stm32f4xx_hal_tim.c:1266:25
	ldr	r0, [r0]
	.loc	7 1266 35                       @ ../Drivers/STM32F4xx_HAL_Driver/Src/stm32f4xx_hal_tim.c:1266:35
	ldr	r0, [r0, #32]
	movw	r1, #4369
.Ltmp396:
	.loc	7 1266 16                       @ ../Drivers/STM32F4xx_HAL_Driver/Src/stm32f4xx_hal_tim.c:1266:16
	tst	r0, r1
	bne	.LBB26_17
	b	.LBB26_14
.LBB26_14:
.Ltmp397:
	.loc	7 1266 143                      @ ../Drivers/STM32F4xx_HAL_Driver/Src/stm32f4xx_hal_tim.c:1266:143
	ldr	r0, [sp, #28]
	.loc	7 1266 150                      @ ../Drivers/STM32F4xx_HAL_Driver/Src/stm32f4xx_hal_tim.c:1266:150
	ldr	r0, [r0]
	.loc	7 1266 160                      @ ../Drivers/STM32F4xx_HAL_Driver/Src/stm32f4xx_hal_tim.c:1266:160
	ldr	r0, [r0, #32]
	movw	r1, #1092
.Ltmp398:
	.loc	7 1266 141                      @ ../Drivers/STM32F4xx_HAL_Driver/Src/stm32f4xx_hal_tim.c:1266:141
	tst	r0, r1
	bne	.LBB26_16
	b	.LBB26_15
.LBB26_15:
.Ltmp399:
	.loc	7 1266 246                      @ ../Drivers/STM32F4xx_HAL_Driver/Src/stm32f4xx_hal_tim.c:1266:246
	ldr	r0, [sp, #28]
	.loc	7 1266 253                      @ ../Drivers/STM32F4xx_HAL_Driver/Src/stm32f4xx_hal_tim.c:1266:253
	ldr	r1, [r0]
	.loc	7 1266 268                      @ ../Drivers/STM32F4xx_HAL_Driver/Src/stm32f4xx_hal_tim.c:1266:268
	ldr	r0, [r1, #68]
	bic	r0, r0, #32768
	str	r0, [r1, #68]
	.loc	7 1266 292                      @ ../Drivers/STM32F4xx_HAL_Driver/Src/stm32f4xx_hal_tim.c:1266:292
	b	.LBB26_16
.Ltmp400:
.LBB26_16:
	.loc	7 1266 294                      @ ../Drivers/STM32F4xx_HAL_Driver/Src/stm32f4xx_hal_tim.c:1266:294
	b	.LBB26_17
.Ltmp401:
.LBB26_17:
	.loc	7 1266 296                      @ ../Drivers/STM32F4xx_HAL_Driver/Src/stm32f4xx_hal_tim.c:1266:296
	b	.LBB26_18
.Ltmp402:
.LBB26_18:
	.loc	7 1267 5 is_stmt 1              @ ../Drivers/STM32F4xx_HAL_Driver/Src/stm32f4xx_hal_tim.c:1267:5
	b	.LBB26_19
.Ltmp403:
.LBB26_19:
	.loc	7 1270 5                        @ ../Drivers/STM32F4xx_HAL_Driver/Src/stm32f4xx_hal_tim.c:1270:5
	b	.LBB26_20
.LBB26_20:
.Ltmp404:
	.loc	7 1270 16 is_stmt 0             @ ../Drivers/STM32F4xx_HAL_Driver/Src/stm32f4xx_hal_tim.c:1270:16
	ldr	r0, [sp, #28]
	.loc	7 1270 23                       @ ../Drivers/STM32F4xx_HAL_Driver/Src/stm32f4xx_hal_tim.c:1270:23
	ldr	r0, [r0]
	.loc	7 1270 33                       @ ../Drivers/STM32F4xx_HAL_Driver/Src/stm32f4xx_hal_tim.c:1270:33
	ldr	r0, [r0, #32]
	movw	r1, #4369
.Ltmp405:
	.loc	7 1270 14                       @ ../Drivers/STM32F4xx_HAL_Driver/Src/stm32f4xx_hal_tim.c:1270:14
	tst	r0, r1
	bne	.LBB26_24
	b	.LBB26_21
.LBB26_21:
.Ltmp406:
	.loc	7 1270 141                      @ ../Drivers/STM32F4xx_HAL_Driver/Src/stm32f4xx_hal_tim.c:1270:141
	ldr	r0, [sp, #28]
	.loc	7 1270 148                      @ ../Drivers/STM32F4xx_HAL_Driver/Src/stm32f4xx_hal_tim.c:1270:148
	ldr	r0, [r0]
	.loc	7 1270 158                      @ ../Drivers/STM32F4xx_HAL_Driver/Src/stm32f4xx_hal_tim.c:1270:158
	ldr	r0, [r0, #32]
	movw	r1, #1092
.Ltmp407:
	.loc	7 1270 139                      @ ../Drivers/STM32F4xx_HAL_Driver/Src/stm32f4xx_hal_tim.c:1270:139
	tst	r0, r1
	bne	.LBB26_23
	b	.LBB26_22
.LBB26_22:
.Ltmp408:
	.loc	7 1270 244                      @ ../Drivers/STM32F4xx_HAL_Driver/Src/stm32f4xx_hal_tim.c:1270:244
	ldr	r0, [sp, #28]
	.loc	7 1270 251                      @ ../Drivers/STM32F4xx_HAL_Driver/Src/stm32f4xx_hal_tim.c:1270:251
	ldr	r1, [r0]
	.loc	7 1270 265                      @ ../Drivers/STM32F4xx_HAL_Driver/Src/stm32f4xx_hal_tim.c:1270:265
	ldr	r0, [r1]
	bic	r0, r0, #1
	str	r0, [r1]
	.loc	7 1270 288                      @ ../Drivers/STM32F4xx_HAL_Driver/Src/stm32f4xx_hal_tim.c:1270:288
	b	.LBB26_23
.Ltmp409:
.LBB26_23:
	.loc	7 1270 290                      @ ../Drivers/STM32F4xx_HAL_Driver/Src/stm32f4xx_hal_tim.c:1270:290
	b	.LBB26_24
.Ltmp410:
.LBB26_24:
	.loc	7 1270 292                      @ ../Drivers/STM32F4xx_HAL_Driver/Src/stm32f4xx_hal_tim.c:1270:292
	b	.LBB26_25
.Ltmp411:
.LBB26_25:
	.loc	7 1273 8 is_stmt 1              @ ../Drivers/STM32F4xx_HAL_Driver/Src/stm32f4xx_hal_tim.c:1273:8
	ldr	r0, [sp, #24]
	.loc	7 1273 6 is_stmt 0              @ ../Drivers/STM32F4xx_HAL_Driver/Src/stm32f4xx_hal_tim.c:1273:6
	cbnz	r0, .LBB26_27
	b	.LBB26_26
.LBB26_26:
	.loc	7 1273 37                       @ ../Drivers/STM32F4xx_HAL_Driver/Src/stm32f4xx_hal_tim.c:1273:37
	ldr	r1, [sp, #28]
	movs	r0, #1
	.loc	7 1273 60                       @ ../Drivers/STM32F4xx_HAL_Driver/Src/stm32f4xx_hal_tim.c:1273:60
	strb.w	r0, [r1, #62]
	.loc	7 1273 6                        @ ../Drivers/STM32F4xx_HAL_Driver/Src/stm32f4xx_hal_tim.c:1273:6
	b	.LBB26_34
.LBB26_27:
	.loc	7 1273 97                       @ ../Drivers/STM32F4xx_HAL_Driver/Src/stm32f4xx_hal_tim.c:1273:97
	ldr	r0, [sp, #24]
	.loc	7 1273 95                       @ ../Drivers/STM32F4xx_HAL_Driver/Src/stm32f4xx_hal_tim.c:1273:95
	cmp	r0, #4
	bne	.LBB26_29
	b	.LBB26_28
.LBB26_28:
	.loc	7 1273 126                      @ ../Drivers/STM32F4xx_HAL_Driver/Src/stm32f4xx_hal_tim.c:1273:126
	ldr	r1, [sp, #28]
	movs	r0, #1
	.loc	7 1273 149                      @ ../Drivers/STM32F4xx_HAL_Driver/Src/stm32f4xx_hal_tim.c:1273:149
	strb.w	r0, [r1, #63]
	.loc	7 1273 95                       @ ../Drivers/STM32F4xx_HAL_Driver/Src/stm32f4xx_hal_tim.c:1273:95
	str	r0, [sp, #8]                    @ 4-byte Spill
	b	.LBB26_33
.LBB26_29:
	.loc	7 1273 186                      @ ../Drivers/STM32F4xx_HAL_Driver/Src/stm32f4xx_hal_tim.c:1273:186
	ldr	r0, [sp, #24]
	.loc	7 1273 184                      @ ../Drivers/STM32F4xx_HAL_Driver/Src/stm32f4xx_hal_tim.c:1273:184
	cmp	r0, #8
	bne	.LBB26_31
	b	.LBB26_30
.LBB26_30:
	.loc	7 1273 215                      @ ../Drivers/STM32F4xx_HAL_Driver/Src/stm32f4xx_hal_tim.c:1273:215
	ldr	r1, [sp, #28]
	movs	r0, #1
	.loc	7 1273 238                      @ ../Drivers/STM32F4xx_HAL_Driver/Src/stm32f4xx_hal_tim.c:1273:238
	strb.w	r0, [r1, #64]
	.loc	7 1273 184                      @ ../Drivers/STM32F4xx_HAL_Driver/Src/stm32f4xx_hal_tim.c:1273:184
	str	r0, [sp, #4]                    @ 4-byte Spill
	b	.LBB26_32
.LBB26_31:
	.loc	7 1273 275                      @ ../Drivers/STM32F4xx_HAL_Driver/Src/stm32f4xx_hal_tim.c:1273:275
	ldr	r1, [sp, #28]
	movs	r0, #1
	.loc	7 1273 298                      @ ../Drivers/STM32F4xx_HAL_Driver/Src/stm32f4xx_hal_tim.c:1273:298
	strb.w	r0, [r1, #65]
	.loc	7 1273 184                      @ ../Drivers/STM32F4xx_HAL_Driver/Src/stm32f4xx_hal_tim.c:1273:184
	str	r0, [sp, #4]                    @ 4-byte Spill
	b	.LBB26_32
.LBB26_32:
	ldr	r0, [sp, #4]                    @ 4-byte Reload
	.loc	7 1273 95                       @ ../Drivers/STM32F4xx_HAL_Driver/Src/stm32f4xx_hal_tim.c:1273:95
	str	r0, [sp, #8]                    @ 4-byte Spill
	b	.LBB26_33
.LBB26_33:
	ldr	r0, [sp, #8]                    @ 4-byte Reload
	.loc	7 1273 6                        @ ../Drivers/STM32F4xx_HAL_Driver/Src/stm32f4xx_hal_tim.c:1273:6
	b	.LBB26_34
.LBB26_34:
	.loc	7 1274 3 is_stmt 1              @ ../Drivers/STM32F4xx_HAL_Driver/Src/stm32f4xx_hal_tim.c:1274:3
	b	.LBB26_35
.Ltmp412:
.LBB26_35:
	.loc	7 1277 10                       @ ../Drivers/STM32F4xx_HAL_Driver/Src/stm32f4xx_hal_tim.c:1277:10
	ldrb.w	r0, [sp, #23]
	.loc	7 1277 3 is_stmt 0              @ ../Drivers/STM32F4xx_HAL_Driver/Src/stm32f4xx_hal_tim.c:1277:3
	add	sp, #32
	pop	{r7, pc}
.Ltmp413:
.Lfunc_end26:
	.size	HAL_TIM_OC_Stop_DMA, .Lfunc_end26-HAL_TIM_OC_Stop_DMA
	.cfi_endproc
	.cantunwind
	.fnend
                                        @ -- End function
	.section	.text.HAL_TIM_PWM_Init,"ax",%progbits
	.hidden	HAL_TIM_PWM_Init                @ -- Begin function HAL_TIM_PWM_Init
	.globl	HAL_TIM_PWM_Init
	.p2align	2
	.type	HAL_TIM_PWM_Init,%function
	.code	16                              @ @HAL_TIM_PWM_Init
	.thumb_func
HAL_TIM_PWM_Init:
.Lfunc_begin27:
	.loc	7 1316 0 is_stmt 1              @ ../Drivers/STM32F4xx_HAL_Driver/Src/stm32f4xx_hal_tim.c:1316:0
	.fnstart
	.cfi_startproc
@ %bb.0:
	.save	{r7, lr}
	push	{r7, lr}
	.cfi_def_cfa_offset 8
	.cfi_offset lr, -4
	.cfi_offset r7, -8
	.pad	#8
	sub	sp, #8
	.cfi_def_cfa_offset 16
	str	r0, [sp]
.Ltmp414:
	.loc	7 1318 7 prologue_end           @ ../Drivers/STM32F4xx_HAL_Driver/Src/stm32f4xx_hal_tim.c:1318:7
	ldr	r0, [sp]
.Ltmp415:
	.loc	7 1318 7 is_stmt 0              @ ../Drivers/STM32F4xx_HAL_Driver/Src/stm32f4xx_hal_tim.c:1318:7
	cbnz	r0, .LBB27_2
	b	.LBB27_1
.LBB27_1:
	.loc	7 0 7                           @ ../Drivers/STM32F4xx_HAL_Driver/Src/stm32f4xx_hal_tim.c:0:7
	movs	r0, #1
.Ltmp416:
	.loc	7 1320 5 is_stmt 1              @ ../Drivers/STM32F4xx_HAL_Driver/Src/stm32f4xx_hal_tim.c:1320:5
	strb.w	r0, [sp, #7]
	b	.LBB27_9
.Ltmp417:
.LBB27_2:
	.loc	7 1330 7                        @ ../Drivers/STM32F4xx_HAL_Driver/Src/stm32f4xx_hal_tim.c:1330:7
	ldr	r0, [sp]
	.loc	7 1330 13 is_stmt 0             @ ../Drivers/STM32F4xx_HAL_Driver/Src/stm32f4xx_hal_tim.c:1330:13
	ldrb.w	r0, [r0, #61]
.Ltmp418:
	.loc	7 1330 7                        @ ../Drivers/STM32F4xx_HAL_Driver/Src/stm32f4xx_hal_tim.c:1330:7
	cbnz	r0, .LBB27_4
	b	.LBB27_3
.LBB27_3:
.Ltmp419:
	.loc	7 1333 5 is_stmt 1              @ ../Drivers/STM32F4xx_HAL_Driver/Src/stm32f4xx_hal_tim.c:1333:5
	ldr	r1, [sp]
	movs	r0, #0
	.loc	7 1333 16 is_stmt 0             @ ../Drivers/STM32F4xx_HAL_Driver/Src/stm32f4xx_hal_tim.c:1333:16
	strb.w	r0, [r1, #60]
	.loc	7 1347 25 is_stmt 1             @ ../Drivers/STM32F4xx_HAL_Driver/Src/stm32f4xx_hal_tim.c:1347:25
	ldr	r0, [sp]
	.loc	7 1347 5 is_stmt 0              @ ../Drivers/STM32F4xx_HAL_Driver/Src/stm32f4xx_hal_tim.c:1347:5
	bl	HAL_TIM_PWM_MspInit
	.loc	7 1349 3 is_stmt 1              @ ../Drivers/STM32F4xx_HAL_Driver/Src/stm32f4xx_hal_tim.c:1349:3
	b	.LBB27_4
.Ltmp420:
.LBB27_4:
	.loc	7 1352 3                        @ ../Drivers/STM32F4xx_HAL_Driver/Src/stm32f4xx_hal_tim.c:1352:3
	ldr	r1, [sp]
	movs	r0, #2
	.loc	7 1352 15 is_stmt 0             @ ../Drivers/STM32F4xx_HAL_Driver/Src/stm32f4xx_hal_tim.c:1352:15
	strb.w	r0, [r1, #61]
	.loc	7 1355 22 is_stmt 1             @ ../Drivers/STM32F4xx_HAL_Driver/Src/stm32f4xx_hal_tim.c:1355:22
	ldr	r1, [sp]
	.loc	7 1355 28 is_stmt 0             @ ../Drivers/STM32F4xx_HAL_Driver/Src/stm32f4xx_hal_tim.c:1355:28
	ldr	r0, [r1], #4
	.loc	7 1355 3                        @ ../Drivers/STM32F4xx_HAL_Driver/Src/stm32f4xx_hal_tim.c:1355:3
	bl	TIM_Base_SetConfig
	.loc	7 1358 3 is_stmt 1              @ ../Drivers/STM32F4xx_HAL_Driver/Src/stm32f4xx_hal_tim.c:1358:3
	ldr	r1, [sp]
	movs	r0, #1
	.loc	7 1358 23 is_stmt 0             @ ../Drivers/STM32F4xx_HAL_Driver/Src/stm32f4xx_hal_tim.c:1358:23
	strb.w	r0, [r1, #70]
	.loc	7 1361 3 is_stmt 1              @ ../Drivers/STM32F4xx_HAL_Driver/Src/stm32f4xx_hal_tim.c:1361:3
	b	.LBB27_5
.LBB27_5:
.Ltmp421:
	.loc	7 1361 9 is_stmt 0              @ ../Drivers/STM32F4xx_HAL_Driver/Src/stm32f4xx_hal_tim.c:1361:9
	ldr	r1, [sp]
	movs	r0, #1
	.loc	7 1361 32                       @ ../Drivers/STM32F4xx_HAL_Driver/Src/stm32f4xx_hal_tim.c:1361:32
	strb.w	r0, [r1, #62]
	.loc	7 1361 66                       @ ../Drivers/STM32F4xx_HAL_Driver/Src/stm32f4xx_hal_tim.c:1361:66
	ldr	r1, [sp]
	.loc	7 1361 89                       @ ../Drivers/STM32F4xx_HAL_Driver/Src/stm32f4xx_hal_tim.c:1361:89
	strb.w	r0, [r1, #63]
	.loc	7 1361 123                      @ ../Drivers/STM32F4xx_HAL_Driver/Src/stm32f4xx_hal_tim.c:1361:123
	ldr	r1, [sp]
	.loc	7 1361 146                      @ ../Drivers/STM32F4xx_HAL_Driver/Src/stm32f4xx_hal_tim.c:1361:146
	strb.w	r0, [r1, #64]
	.loc	7 1361 180                      @ ../Drivers/STM32F4xx_HAL_Driver/Src/stm32f4xx_hal_tim.c:1361:180
	ldr	r1, [sp]
	.loc	7 1361 203                      @ ../Drivers/STM32F4xx_HAL_Driver/Src/stm32f4xx_hal_tim.c:1361:203
	strb.w	r0, [r1, #65]
	.loc	7 1361 236                      @ ../Drivers/STM32F4xx_HAL_Driver/Src/stm32f4xx_hal_tim.c:1361:236
	b	.LBB27_6
.Ltmp422:
.LBB27_6:
	.loc	7 1362 3 is_stmt 1              @ ../Drivers/STM32F4xx_HAL_Driver/Src/stm32f4xx_hal_tim.c:1362:3
	b	.LBB27_7
.LBB27_7:
.Ltmp423:
	.loc	7 1362 9 is_stmt 0              @ ../Drivers/STM32F4xx_HAL_Driver/Src/stm32f4xx_hal_tim.c:1362:9
	ldr	r1, [sp]
	movs	r0, #1
	.loc	7 1362 33                       @ ../Drivers/STM32F4xx_HAL_Driver/Src/stm32f4xx_hal_tim.c:1362:33
	strb.w	r0, [r1, #66]
	.loc	7 1362 67                       @ ../Drivers/STM32F4xx_HAL_Driver/Src/stm32f4xx_hal_tim.c:1362:67
	ldr	r1, [sp]
	.loc	7 1362 91                       @ ../Drivers/STM32F4xx_HAL_Driver/Src/stm32f4xx_hal_tim.c:1362:91
	strb.w	r0, [r1, #67]
	.loc	7 1362 125                      @ ../Drivers/STM32F4xx_HAL_Driver/Src/stm32f4xx_hal_tim.c:1362:125
	ldr	r1, [sp]
	.loc	7 1362 149                      @ ../Drivers/STM32F4xx_HAL_Driver/Src/stm32f4xx_hal_tim.c:1362:149
	strb.w	r0, [r1, #68]
	.loc	7 1362 183                      @ ../Drivers/STM32F4xx_HAL_Driver/Src/stm32f4xx_hal_tim.c:1362:183
	ldr	r1, [sp]
	.loc	7 1362 207                      @ ../Drivers/STM32F4xx_HAL_Driver/Src/stm32f4xx_hal_tim.c:1362:207
	strb.w	r0, [r1, #69]
	.loc	7 1362 240                      @ ../Drivers/STM32F4xx_HAL_Driver/Src/stm32f4xx_hal_tim.c:1362:240
	b	.LBB27_8
.Ltmp424:
.LBB27_8:
	.loc	7 1365 3 is_stmt 1              @ ../Drivers/STM32F4xx_HAL_Driver/Src/stm32f4xx_hal_tim.c:1365:3
	ldr	r1, [sp]
	movs	r0, #1
	.loc	7 1365 15 is_stmt 0             @ ../Drivers/STM32F4xx_HAL_Driver/Src/stm32f4xx_hal_tim.c:1365:15
	strb.w	r0, [r1, #61]
	movs	r0, #0
	.loc	7 1367 3 is_stmt 1              @ ../Drivers/STM32F4xx_HAL_Driver/Src/stm32f4xx_hal_tim.c:1367:3
	strb.w	r0, [sp, #7]
	b	.LBB27_9
.LBB27_9:
	.loc	7 1368 1                        @ ../Drivers/STM32F4xx_HAL_Driver/Src/stm32f4xx_hal_tim.c:1368:1
	ldrb.w	r0, [sp, #7]
	add	sp, #8
	pop	{r7, pc}
.Ltmp425:
.Lfunc_end27:
	.size	HAL_TIM_PWM_Init, .Lfunc_end27-HAL_TIM_PWM_Init
	.cfi_endproc
	.cantunwind
	.fnend
                                        @ -- End function
	.section	.text.HAL_TIM_PWM_MspInit,"ax",%progbits
	.hidden	HAL_TIM_PWM_MspInit             @ -- Begin function HAL_TIM_PWM_MspInit
	.weak	HAL_TIM_PWM_MspInit
	.p2align	2
	.type	HAL_TIM_PWM_MspInit,%function
	.code	16                              @ @HAL_TIM_PWM_MspInit
	.thumb_func
HAL_TIM_PWM_MspInit:
.Lfunc_begin28:
	.loc	7 1419 0                        @ ../Drivers/STM32F4xx_HAL_Driver/Src/stm32f4xx_hal_tim.c:1419:0
	.fnstart
	.cfi_startproc
@ %bb.0:
	.pad	#4
	sub	sp, #4
	.cfi_def_cfa_offset 4
	str	r0, [sp]
.Ltmp426:
	.loc	7 1426 1 prologue_end           @ ../Drivers/STM32F4xx_HAL_Driver/Src/stm32f4xx_hal_tim.c:1426:1
	add	sp, #4
	bx	lr
.Ltmp427:
.Lfunc_end28:
	.size	HAL_TIM_PWM_MspInit, .Lfunc_end28-HAL_TIM_PWM_MspInit
	.cfi_endproc
	.cantunwind
	.fnend
                                        @ -- End function
	.section	.text.HAL_TIM_PWM_DeInit,"ax",%progbits
	.hidden	HAL_TIM_PWM_DeInit              @ -- Begin function HAL_TIM_PWM_DeInit
	.globl	HAL_TIM_PWM_DeInit
	.p2align	2
	.type	HAL_TIM_PWM_DeInit,%function
	.code	16                              @ @HAL_TIM_PWM_DeInit
	.thumb_func
HAL_TIM_PWM_DeInit:
.Lfunc_begin29:
	.loc	7 1376 0                        @ ../Drivers/STM32F4xx_HAL_Driver/Src/stm32f4xx_hal_tim.c:1376:0
	.fnstart
	.cfi_startproc
@ %bb.0:
	.save	{r7, lr}
	push	{r7, lr}
	.cfi_def_cfa_offset 8
	.cfi_offset lr, -4
	.cfi_offset r7, -8
	.pad	#8
	sub	sp, #8
	.cfi_def_cfa_offset 16
	str	r0, [sp, #4]
.Ltmp428:
	.loc	7 1380 3 prologue_end           @ ../Drivers/STM32F4xx_HAL_Driver/Src/stm32f4xx_hal_tim.c:1380:3
	ldr	r1, [sp, #4]
	movs	r0, #2
	.loc	7 1380 15 is_stmt 0             @ ../Drivers/STM32F4xx_HAL_Driver/Src/stm32f4xx_hal_tim.c:1380:15
	strb.w	r0, [r1, #61]
	.loc	7 1383 3 is_stmt 1              @ ../Drivers/STM32F4xx_HAL_Driver/Src/stm32f4xx_hal_tim.c:1383:3
	b	.LBB29_1
.LBB29_1:
.Ltmp429:
	.loc	7 1383 14 is_stmt 0             @ ../Drivers/STM32F4xx_HAL_Driver/Src/stm32f4xx_hal_tim.c:1383:14
	ldr	r0, [sp, #4]
	.loc	7 1383 21                       @ ../Drivers/STM32F4xx_HAL_Driver/Src/stm32f4xx_hal_tim.c:1383:21
	ldr	r0, [r0]
	.loc	7 1383 31                       @ ../Drivers/STM32F4xx_HAL_Driver/Src/stm32f4xx_hal_tim.c:1383:31
	ldr	r0, [r0, #32]
	movw	r1, #4369
.Ltmp430:
	.loc	7 1383 12                       @ ../Drivers/STM32F4xx_HAL_Driver/Src/stm32f4xx_hal_tim.c:1383:12
	tst	r0, r1
	bne	.LBB29_5
	b	.LBB29_2
.LBB29_2:
.Ltmp431:
	.loc	7 1383 139                      @ ../Drivers/STM32F4xx_HAL_Driver/Src/stm32f4xx_hal_tim.c:1383:139
	ldr	r0, [sp, #4]
	.loc	7 1383 146                      @ ../Drivers/STM32F4xx_HAL_Driver/Src/stm32f4xx_hal_tim.c:1383:146
	ldr	r0, [r0]
	.loc	7 1383 156                      @ ../Drivers/STM32F4xx_HAL_Driver/Src/stm32f4xx_hal_tim.c:1383:156
	ldr	r0, [r0, #32]
	movw	r1, #1092
.Ltmp432:
	.loc	7 1383 137                      @ ../Drivers/STM32F4xx_HAL_Driver/Src/stm32f4xx_hal_tim.c:1383:137
	tst	r0, r1
	bne	.LBB29_4
	b	.LBB29_3
.LBB29_3:
.Ltmp433:
	.loc	7 1383 242                      @ ../Drivers/STM32F4xx_HAL_Driver/Src/stm32f4xx_hal_tim.c:1383:242
	ldr	r0, [sp, #4]
	.loc	7 1383 249                      @ ../Drivers/STM32F4xx_HAL_Driver/Src/stm32f4xx_hal_tim.c:1383:249
	ldr	r1, [r0]
	.loc	7 1383 263                      @ ../Drivers/STM32F4xx_HAL_Driver/Src/stm32f4xx_hal_tim.c:1383:263
	ldr	r0, [r1]
	bic	r0, r0, #1
	str	r0, [r1]
	.loc	7 1383 286                      @ ../Drivers/STM32F4xx_HAL_Driver/Src/stm32f4xx_hal_tim.c:1383:286
	b	.LBB29_4
.Ltmp434:
.LBB29_4:
	.loc	7 1383 288                      @ ../Drivers/STM32F4xx_HAL_Driver/Src/stm32f4xx_hal_tim.c:1383:288
	b	.LBB29_5
.Ltmp435:
.LBB29_5:
	.loc	7 1383 290                      @ ../Drivers/STM32F4xx_HAL_Driver/Src/stm32f4xx_hal_tim.c:1383:290
	b	.LBB29_6
.Ltmp436:
.LBB29_6:
	.loc	7 1394 25 is_stmt 1             @ ../Drivers/STM32F4xx_HAL_Driver/Src/stm32f4xx_hal_tim.c:1394:25
	ldr	r0, [sp, #4]
	.loc	7 1394 3 is_stmt 0              @ ../Drivers/STM32F4xx_HAL_Driver/Src/stm32f4xx_hal_tim.c:1394:3
	bl	HAL_TIM_PWM_MspDeInit
	.loc	7 1398 3 is_stmt 1              @ ../Drivers/STM32F4xx_HAL_Driver/Src/stm32f4xx_hal_tim.c:1398:3
	ldr	r1, [sp, #4]
	movs	r0, #0
	.loc	7 1398 23 is_stmt 0             @ ../Drivers/STM32F4xx_HAL_Driver/Src/stm32f4xx_hal_tim.c:1398:23
	strb.w	r0, [r1, #70]
	.loc	7 1401 3 is_stmt 1              @ ../Drivers/STM32F4xx_HAL_Driver/Src/stm32f4xx_hal_tim.c:1401:3
	b	.LBB29_7
.LBB29_7:
.Ltmp437:
	.loc	7 1401 9 is_stmt 0              @ ../Drivers/STM32F4xx_HAL_Driver/Src/stm32f4xx_hal_tim.c:1401:9
	ldr	r1, [sp, #4]
	movs	r0, #0
	.loc	7 1401 32                       @ ../Drivers/STM32F4xx_HAL_Driver/Src/stm32f4xx_hal_tim.c:1401:32
	strb.w	r0, [r1, #62]
	.loc	7 1401 66                       @ ../Drivers/STM32F4xx_HAL_Driver/Src/stm32f4xx_hal_tim.c:1401:66
	ldr	r1, [sp, #4]
	.loc	7 1401 89                       @ ../Drivers/STM32F4xx_HAL_Driver/Src/stm32f4xx_hal_tim.c:1401:89
	strb.w	r0, [r1, #63]
	.loc	7 1401 123                      @ ../Drivers/STM32F4xx_HAL_Driver/Src/stm32f4xx_hal_tim.c:1401:123
	ldr	r1, [sp, #4]
	.loc	7 1401 146                      @ ../Drivers/STM32F4xx_HAL_Driver/Src/stm32f4xx_hal_tim.c:1401:146
	strb.w	r0, [r1, #64]
	.loc	7 1401 180                      @ ../Drivers/STM32F4xx_HAL_Driver/Src/stm32f4xx_hal_tim.c:1401:180
	ldr	r1, [sp, #4]
	.loc	7 1401 203                      @ ../Drivers/STM32F4xx_HAL_Driver/Src/stm32f4xx_hal_tim.c:1401:203
	strb.w	r0, [r1, #65]
	.loc	7 1401 236                      @ ../Drivers/STM32F4xx_HAL_Driver/Src/stm32f4xx_hal_tim.c:1401:236
	b	.LBB29_8
.Ltmp438:
.LBB29_8:
	.loc	7 1402 3 is_stmt 1              @ ../Drivers/STM32F4xx_HAL_Driver/Src/stm32f4xx_hal_tim.c:1402:3
	b	.LBB29_9
.LBB29_9:
.Ltmp439:
	.loc	7 1402 9 is_stmt 0              @ ../Drivers/STM32F4xx_HAL_Driver/Src/stm32f4xx_hal_tim.c:1402:9
	ldr	r1, [sp, #4]
	movs	r0, #0
	.loc	7 1402 33                       @ ../Drivers/STM32F4xx_HAL_Driver/Src/stm32f4xx_hal_tim.c:1402:33
	strb.w	r0, [r1, #66]
	.loc	7 1402 67                       @ ../Drivers/STM32F4xx_HAL_Driver/Src/stm32f4xx_hal_tim.c:1402:67
	ldr	r1, [sp, #4]
	.loc	7 1402 91                       @ ../Drivers/STM32F4xx_HAL_Driver/Src/stm32f4xx_hal_tim.c:1402:91
	strb.w	r0, [r1, #67]
	.loc	7 1402 125                      @ ../Drivers/STM32F4xx_HAL_Driver/Src/stm32f4xx_hal_tim.c:1402:125
	ldr	r1, [sp, #4]
	.loc	7 1402 149                      @ ../Drivers/STM32F4xx_HAL_Driver/Src/stm32f4xx_hal_tim.c:1402:149
	strb.w	r0, [r1, #68]
	.loc	7 1402 183                      @ ../Drivers/STM32F4xx_HAL_Driver/Src/stm32f4xx_hal_tim.c:1402:183
	ldr	r1, [sp, #4]
	.loc	7 1402 207                      @ ../Drivers/STM32F4xx_HAL_Driver/Src/stm32f4xx_hal_tim.c:1402:207
	strb.w	r0, [r1, #69]
	.loc	7 1402 240                      @ ../Drivers/STM32F4xx_HAL_Driver/Src/stm32f4xx_hal_tim.c:1402:240
	b	.LBB29_10
.Ltmp440:
.LBB29_10:
	.loc	7 1405 3 is_stmt 1              @ ../Drivers/STM32F4xx_HAL_Driver/Src/stm32f4xx_hal_tim.c:1405:3
	ldr	r1, [sp, #4]
	movs	r0, #0
	.loc	7 1405 15 is_stmt 0             @ ../Drivers/STM32F4xx_HAL_Driver/Src/stm32f4xx_hal_tim.c:1405:15
	strb.w	r0, [r1, #61]
	.loc	7 1408 3 is_stmt 1              @ ../Drivers/STM32F4xx_HAL_Driver/Src/stm32f4xx_hal_tim.c:1408:3
	b	.LBB29_11
.LBB29_11:
.Ltmp441:
	.loc	7 1408 8 is_stmt 0              @ ../Drivers/STM32F4xx_HAL_Driver/Src/stm32f4xx_hal_tim.c:1408:8
	ldr	r1, [sp, #4]
	movs	r0, #0
	.loc	7 1408 20                       @ ../Drivers/STM32F4xx_HAL_Driver/Src/stm32f4xx_hal_tim.c:1408:20
	strb.w	r0, [r1, #60]
	.loc	7 1408 36                       @ ../Drivers/STM32F4xx_HAL_Driver/Src/stm32f4xx_hal_tim.c:1408:36
	b	.LBB29_12
.Ltmp442:
.LBB29_12:
	.loc	7 0 36                          @ ../Drivers/STM32F4xx_HAL_Driver/Src/stm32f4xx_hal_tim.c:0:36
	movs	r0, #0
	.loc	7 1410 3 is_stmt 1              @ ../Drivers/STM32F4xx_HAL_Driver/Src/stm32f4xx_hal_tim.c:1410:3
	add	sp, #8
	pop	{r7, pc}
.Ltmp443:
.Lfunc_end29:
	.size	HAL_TIM_PWM_DeInit, .Lfunc_end29-HAL_TIM_PWM_DeInit
	.cfi_endproc
	.cantunwind
	.fnend
                                        @ -- End function
	.section	.text.HAL_TIM_PWM_MspDeInit,"ax",%progbits
	.hidden	HAL_TIM_PWM_MspDeInit           @ -- Begin function HAL_TIM_PWM_MspDeInit
	.weak	HAL_TIM_PWM_MspDeInit
	.p2align	2
	.type	HAL_TIM_PWM_MspDeInit,%function
	.code	16                              @ @HAL_TIM_PWM_MspDeInit
	.thumb_func
HAL_TIM_PWM_MspDeInit:
.Lfunc_begin30:
	.loc	7 1434 0                        @ ../Drivers/STM32F4xx_HAL_Driver/Src/stm32f4xx_hal_tim.c:1434:0
	.fnstart
	.cfi_startproc
@ %bb.0:
	.pad	#4
	sub	sp, #4
	.cfi_def_cfa_offset 4
	str	r0, [sp]
.Ltmp444:
	.loc	7 1441 1 prologue_end           @ ../Drivers/STM32F4xx_HAL_Driver/Src/stm32f4xx_hal_tim.c:1441:1
	add	sp, #4
	bx	lr
.Ltmp445:
.Lfunc_end30:
	.size	HAL_TIM_PWM_MspDeInit, .Lfunc_end30-HAL_TIM_PWM_MspDeInit
	.cfi_endproc
	.cantunwind
	.fnend
                                        @ -- End function
	.section	.text.HAL_TIM_PWM_Start,"ax",%progbits
	.hidden	HAL_TIM_PWM_Start               @ -- Begin function HAL_TIM_PWM_Start
	.globl	HAL_TIM_PWM_Start
	.p2align	2
	.type	HAL_TIM_PWM_Start,%function
	.code	16                              @ @HAL_TIM_PWM_Start
	.thumb_func
HAL_TIM_PWM_Start:
.Lfunc_begin31:
	.loc	7 1455 0                        @ ../Drivers/STM32F4xx_HAL_Driver/Src/stm32f4xx_hal_tim.c:1455:0
	.fnstart
	.cfi_startproc
@ %bb.0:
	.save	{r7, lr}
	push	{r7, lr}
	.cfi_def_cfa_offset 8
	.cfi_offset lr, -4
	.cfi_offset r7, -8
	.pad	#48
	sub	sp, #48
	.cfi_def_cfa_offset 56
	str	r0, [sp, #40]
	str	r1, [sp, #36]
.Ltmp446:
	.loc	7 1462 10 prologue_end          @ ../Drivers/STM32F4xx_HAL_Driver/Src/stm32f4xx_hal_tim.c:1462:10
	ldr	r0, [sp, #36]
	.loc	7 1462 8 is_stmt 0              @ ../Drivers/STM32F4xx_HAL_Driver/Src/stm32f4xx_hal_tim.c:1462:8
	cbnz	r0, .LBB31_2
	b	.LBB31_1
.LBB31_1:
	.loc	7 1462 38                       @ ../Drivers/STM32F4xx_HAL_Driver/Src/stm32f4xx_hal_tim.c:1462:38
	ldr	r0, [sp, #40]
	.loc	7 1462 37                       @ ../Drivers/STM32F4xx_HAL_Driver/Src/stm32f4xx_hal_tim.c:1462:37
	ldrb.w	r0, [r0, #62]
	.loc	7 1462 8                        @ ../Drivers/STM32F4xx_HAL_Driver/Src/stm32f4xx_hal_tim.c:1462:8
	str	r0, [sp, #28]                   @ 4-byte Spill
	b	.LBB31_9
.LBB31_2:
	.loc	7 1462 65                       @ ../Drivers/STM32F4xx_HAL_Driver/Src/stm32f4xx_hal_tim.c:1462:65
	ldr	r0, [sp, #36]
	.loc	7 1462 63                       @ ../Drivers/STM32F4xx_HAL_Driver/Src/stm32f4xx_hal_tim.c:1462:63
	cmp	r0, #4
	bne	.LBB31_4
	b	.LBB31_3
.LBB31_3:
	.loc	7 1462 93                       @ ../Drivers/STM32F4xx_HAL_Driver/Src/stm32f4xx_hal_tim.c:1462:93
	ldr	r0, [sp, #40]
	.loc	7 1462 92                       @ ../Drivers/STM32F4xx_HAL_Driver/Src/stm32f4xx_hal_tim.c:1462:92
	ldrb.w	r0, [r0, #63]
	.loc	7 1462 63                       @ ../Drivers/STM32F4xx_HAL_Driver/Src/stm32f4xx_hal_tim.c:1462:63
	str	r0, [sp, #24]                   @ 4-byte Spill
	b	.LBB31_8
.LBB31_4:
	.loc	7 1462 120                      @ ../Drivers/STM32F4xx_HAL_Driver/Src/stm32f4xx_hal_tim.c:1462:120
	ldr	r0, [sp, #36]
	.loc	7 1462 118                      @ ../Drivers/STM32F4xx_HAL_Driver/Src/stm32f4xx_hal_tim.c:1462:118
	cmp	r0, #8
	bne	.LBB31_6
	b	.LBB31_5
.LBB31_5:
	.loc	7 1462 148                      @ ../Drivers/STM32F4xx_HAL_Driver/Src/stm32f4xx_hal_tim.c:1462:148
	ldr	r0, [sp, #40]
	.loc	7 1462 147                      @ ../Drivers/STM32F4xx_HAL_Driver/Src/stm32f4xx_hal_tim.c:1462:147
	ldrb.w	r0, [r0, #64]
	.loc	7 1462 118                      @ ../Drivers/STM32F4xx_HAL_Driver/Src/stm32f4xx_hal_tim.c:1462:118
	str	r0, [sp, #20]                   @ 4-byte Spill
	b	.LBB31_7
.LBB31_6:
	.loc	7 1462 174                      @ ../Drivers/STM32F4xx_HAL_Driver/Src/stm32f4xx_hal_tim.c:1462:174
	ldr	r0, [sp, #40]
	.loc	7 1462 173                      @ ../Drivers/STM32F4xx_HAL_Driver/Src/stm32f4xx_hal_tim.c:1462:173
	ldrb.w	r0, [r0, #65]
	.loc	7 1462 118                      @ ../Drivers/STM32F4xx_HAL_Driver/Src/stm32f4xx_hal_tim.c:1462:118
	str	r0, [sp, #20]                   @ 4-byte Spill
	b	.LBB31_7
.LBB31_7:
	ldr	r0, [sp, #20]                   @ 4-byte Reload
	.loc	7 1462 63                       @ ../Drivers/STM32F4xx_HAL_Driver/Src/stm32f4xx_hal_tim.c:1462:63
	str	r0, [sp, #24]                   @ 4-byte Spill
	b	.LBB31_8
.LBB31_8:
	ldr	r0, [sp, #24]                   @ 4-byte Reload
	.loc	7 1462 8                        @ ../Drivers/STM32F4xx_HAL_Driver/Src/stm32f4xx_hal_tim.c:1462:8
	str	r0, [sp, #28]                   @ 4-byte Spill
	b	.LBB31_9
.LBB31_9:
	ldr	r0, [sp, #28]                   @ 4-byte Reload
.Ltmp447:
	.loc	7 1462 7                        @ ../Drivers/STM32F4xx_HAL_Driver/Src/stm32f4xx_hal_tim.c:1462:7
	cmp	r0, #1
	beq	.LBB31_11
	b	.LBB31_10
.LBB31_10:
	.loc	7 0 7                           @ ../Drivers/STM32F4xx_HAL_Driver/Src/stm32f4xx_hal_tim.c:0:7
	movs	r0, #1
.Ltmp448:
	.loc	7 1464 5 is_stmt 1              @ ../Drivers/STM32F4xx_HAL_Driver/Src/stm32f4xx_hal_tim.c:1464:5
	strb.w	r0, [sp, #47]
	b	.LBB31_37
.Ltmp449:
.LBB31_11:
	.loc	7 1468 6                        @ ../Drivers/STM32F4xx_HAL_Driver/Src/stm32f4xx_hal_tim.c:1468:6
	ldr	r0, [sp, #36]
	.loc	7 1468 4 is_stmt 0              @ ../Drivers/STM32F4xx_HAL_Driver/Src/stm32f4xx_hal_tim.c:1468:4
	cbnz	r0, .LBB31_13
	b	.LBB31_12
.LBB31_12:
	.loc	7 1468 35                       @ ../Drivers/STM32F4xx_HAL_Driver/Src/stm32f4xx_hal_tim.c:1468:35
	ldr	r1, [sp, #40]
	movs	r0, #2
	.loc	7 1468 58                       @ ../Drivers/STM32F4xx_HAL_Driver/Src/stm32f4xx_hal_tim.c:1468:58
	strb.w	r0, [r1, #62]
	.loc	7 1468 4                        @ ../Drivers/STM32F4xx_HAL_Driver/Src/stm32f4xx_hal_tim.c:1468:4
	b	.LBB31_20
.LBB31_13:
	.loc	7 1468 94                       @ ../Drivers/STM32F4xx_HAL_Driver/Src/stm32f4xx_hal_tim.c:1468:94
	ldr	r0, [sp, #36]
	.loc	7 1468 92                       @ ../Drivers/STM32F4xx_HAL_Driver/Src/stm32f4xx_hal_tim.c:1468:92
	cmp	r0, #4
	bne	.LBB31_15
	b	.LBB31_14
.LBB31_14:
	.loc	7 1468 123                      @ ../Drivers/STM32F4xx_HAL_Driver/Src/stm32f4xx_hal_tim.c:1468:123
	ldr	r1, [sp, #40]
	movs	r0, #2
	.loc	7 1468 146                      @ ../Drivers/STM32F4xx_HAL_Driver/Src/stm32f4xx_hal_tim.c:1468:146
	strb.w	r0, [r1, #63]
	.loc	7 1468 92                       @ ../Drivers/STM32F4xx_HAL_Driver/Src/stm32f4xx_hal_tim.c:1468:92
	str	r0, [sp, #16]                   @ 4-byte Spill
	b	.LBB31_19
.LBB31_15:
	.loc	7 1468 182                      @ ../Drivers/STM32F4xx_HAL_Driver/Src/stm32f4xx_hal_tim.c:1468:182
	ldr	r0, [sp, #36]
	.loc	7 1468 180                      @ ../Drivers/STM32F4xx_HAL_Driver/Src/stm32f4xx_hal_tim.c:1468:180
	cmp	r0, #8
	bne	.LBB31_17
	b	.LBB31_16
.LBB31_16:
	.loc	7 1468 211                      @ ../Drivers/STM32F4xx_HAL_Driver/Src/stm32f4xx_hal_tim.c:1468:211
	ldr	r1, [sp, #40]
	movs	r0, #2
	.loc	7 1468 234                      @ ../Drivers/STM32F4xx_HAL_Driver/Src/stm32f4xx_hal_tim.c:1468:234
	strb.w	r0, [r1, #64]
	.loc	7 1468 180                      @ ../Drivers/STM32F4xx_HAL_Driver/Src/stm32f4xx_hal_tim.c:1468:180
	str	r0, [sp, #12]                   @ 4-byte Spill
	b	.LBB31_18
.LBB31_17:
	.loc	7 1468 270                      @ ../Drivers/STM32F4xx_HAL_Driver/Src/stm32f4xx_hal_tim.c:1468:270
	ldr	r1, [sp, #40]
	movs	r0, #2
	.loc	7 1468 293                      @ ../Drivers/STM32F4xx_HAL_Driver/Src/stm32f4xx_hal_tim.c:1468:293
	strb.w	r0, [r1, #65]
	.loc	7 1468 180                      @ ../Drivers/STM32F4xx_HAL_Driver/Src/stm32f4xx_hal_tim.c:1468:180
	str	r0, [sp, #12]                   @ 4-byte Spill
	b	.LBB31_18
.LBB31_18:
	ldr	r0, [sp, #12]                   @ 4-byte Reload
	.loc	7 1468 92                       @ ../Drivers/STM32F4xx_HAL_Driver/Src/stm32f4xx_hal_tim.c:1468:92
	str	r0, [sp, #16]                   @ 4-byte Spill
	b	.LBB31_19
.LBB31_19:
	ldr	r0, [sp, #16]                   @ 4-byte Reload
	.loc	7 1468 4                        @ ../Drivers/STM32F4xx_HAL_Driver/Src/stm32f4xx_hal_tim.c:1468:4
	b	.LBB31_20
.LBB31_20:
	.loc	7 1471 21 is_stmt 1             @ ../Drivers/STM32F4xx_HAL_Driver/Src/stm32f4xx_hal_tim.c:1471:21
	ldr	r0, [sp, #40]
	.loc	7 1471 27 is_stmt 0             @ ../Drivers/STM32F4xx_HAL_Driver/Src/stm32f4xx_hal_tim.c:1471:27
	ldr	r0, [r0]
	.loc	7 1471 37                       @ ../Drivers/STM32F4xx_HAL_Driver/Src/stm32f4xx_hal_tim.c:1471:37
	ldr	r1, [sp, #36]
	movs	r2, #1
	.loc	7 1471 3                        @ ../Drivers/STM32F4xx_HAL_Driver/Src/stm32f4xx_hal_tim.c:1471:3
	str	r2, [sp, #4]                    @ 4-byte Spill
	bl	TIM_CCxChannelCmd
	ldr	r0, [sp, #4]                    @ 4-byte Reload
.Ltmp450:
	.loc	7 1473 10 is_stmt 1             @ ../Drivers/STM32F4xx_HAL_Driver/Src/stm32f4xx_hal_tim.c:1473:10
	ldr	r1, [sp, #40]
	.loc	7 1473 16 is_stmt 0             @ ../Drivers/STM32F4xx_HAL_Driver/Src/stm32f4xx_hal_tim.c:1473:16
	ldr	r1, [r1]
	movs	r2, #0
	movt	r2, #16385
	.loc	7 1473 91                       @ ../Drivers/STM32F4xx_HAL_Driver/Src/stm32f4xx_hal_tim.c:1473:91
	cmp	r1, r2
	str	r0, [sp, #8]                    @ 4-byte Spill
	beq	.LBB31_22
	b	.LBB31_21
.LBB31_21:
	.loc	7 1473 96                       @ ../Drivers/STM32F4xx_HAL_Driver/Src/stm32f4xx_hal_tim.c:1473:96
	ldr	r0, [sp, #40]
	.loc	7 1473 102                      @ ../Drivers/STM32F4xx_HAL_Driver/Src/stm32f4xx_hal_tim.c:1473:102
	ldr	r0, [r0]
	movw	r1, #64512
	movt	r1, #49150
	.loc	7 1473 112                      @ ../Drivers/STM32F4xx_HAL_Driver/Src/stm32f4xx_hal_tim.c:1473:112
	add	r0, r1
	clz	r0, r0
	lsrs	r0, r0, #5
	.loc	7 1473 91                       @ ../Drivers/STM32F4xx_HAL_Driver/Src/stm32f4xx_hal_tim.c:1473:91
	str	r0, [sp, #8]                    @ 4-byte Spill
	b	.LBB31_22
.Ltmp451:
.LBB31_22:
	.loc	7 0 91                          @ ../Drivers/STM32F4xx_HAL_Driver/Src/stm32f4xx_hal_tim.c:0:91
	ldr	r0, [sp, #8]                    @ 4-byte Reload
	.loc	7 1473 7                        @ ../Drivers/STM32F4xx_HAL_Driver/Src/stm32f4xx_hal_tim.c:1473:7
	lsls	r0, r0, #31
	cbz	r0, .LBB31_24
	b	.LBB31_23
.LBB31_23:
.Ltmp452:
	.loc	7 1476 7 is_stmt 1              @ ../Drivers/STM32F4xx_HAL_Driver/Src/stm32f4xx_hal_tim.c:1476:7
	ldr	r0, [sp, #40]
	.loc	7 1476 14 is_stmt 0             @ ../Drivers/STM32F4xx_HAL_Driver/Src/stm32f4xx_hal_tim.c:1476:14
	ldr	r1, [r0]
	.loc	7 1476 28                       @ ../Drivers/STM32F4xx_HAL_Driver/Src/stm32f4xx_hal_tim.c:1476:28
	ldr	r0, [r1, #68]
	orr	r0, r0, #32768
	str	r0, [r1, #68]
	.loc	7 1477 3 is_stmt 1              @ ../Drivers/STM32F4xx_HAL_Driver/Src/stm32f4xx_hal_tim.c:1477:3
	b	.LBB31_24
.Ltmp453:
.LBB31_24:
	.loc	7 1480 10                       @ ../Drivers/STM32F4xx_HAL_Driver/Src/stm32f4xx_hal_tim.c:1480:10
	ldr	r0, [sp, #40]
	.loc	7 1480 16 is_stmt 0             @ ../Drivers/STM32F4xx_HAL_Driver/Src/stm32f4xx_hal_tim.c:1480:16
	ldr	r0, [r0]
	movs	r1, #0
	movt	r1, #16385
	.loc	7 1480 91                       @ ../Drivers/STM32F4xx_HAL_Driver/Src/stm32f4xx_hal_tim.c:1480:91
	cmp	r0, r1
	beq	.LBB31_32
	b	.LBB31_25
.LBB31_25:
	.loc	7 1480 96                       @ ../Drivers/STM32F4xx_HAL_Driver/Src/stm32f4xx_hal_tim.c:1480:96
	ldr	r0, [sp, #40]
	.loc	7 1480 102                      @ ../Drivers/STM32F4xx_HAL_Driver/Src/stm32f4xx_hal_tim.c:1480:102
	ldr	r0, [r0]
	.loc	7 1480 160                      @ ../Drivers/STM32F4xx_HAL_Driver/Src/stm32f4xx_hal_tim.c:1480:160
	cmp.w	r0, #1073741824
	beq	.LBB31_32
	b	.LBB31_26
.LBB31_26:
	.loc	7 1480 165                      @ ../Drivers/STM32F4xx_HAL_Driver/Src/stm32f4xx_hal_tim.c:1480:165
	ldr	r0, [sp, #40]
	.loc	7 1480 171                      @ ../Drivers/STM32F4xx_HAL_Driver/Src/stm32f4xx_hal_tim.c:1480:171
	ldr	r0, [r0]
	movw	r1, #1024
	movt	r1, #16384
	.loc	7 1480 229                      @ ../Drivers/STM32F4xx_HAL_Driver/Src/stm32f4xx_hal_tim.c:1480:229
	cmp	r0, r1
	beq	.LBB31_32
	b	.LBB31_27
.LBB31_27:
	.loc	7 1480 234                      @ ../Drivers/STM32F4xx_HAL_Driver/Src/stm32f4xx_hal_tim.c:1480:234
	ldr	r0, [sp, #40]
	.loc	7 1480 240                      @ ../Drivers/STM32F4xx_HAL_Driver/Src/stm32f4xx_hal_tim.c:1480:240
	ldr	r0, [r0]
	movw	r1, #2048
	movt	r1, #16384
	.loc	7 1480 298                      @ ../Drivers/STM32F4xx_HAL_Driver/Src/stm32f4xx_hal_tim.c:1480:298
	cmp	r0, r1
	beq	.LBB31_32
	b	.LBB31_28
.LBB31_28:
	.loc	7 1480 303                      @ ../Drivers/STM32F4xx_HAL_Driver/Src/stm32f4xx_hal_tim.c:1480:303
	ldr	r0, [sp, #40]
	.loc	7 1480 309                      @ ../Drivers/STM32F4xx_HAL_Driver/Src/stm32f4xx_hal_tim.c:1480:309
	ldr	r0, [r0]
	movw	r1, #3072
	movt	r1, #16384
	.loc	7 1480 367                      @ ../Drivers/STM32F4xx_HAL_Driver/Src/stm32f4xx_hal_tim.c:1480:367
	cmp	r0, r1
	beq	.LBB31_32
	b	.LBB31_29
.LBB31_29:
	.loc	7 1480 372                      @ ../Drivers/STM32F4xx_HAL_Driver/Src/stm32f4xx_hal_tim.c:1480:372
	ldr	r0, [sp, #40]
	.loc	7 1480 378                      @ ../Drivers/STM32F4xx_HAL_Driver/Src/stm32f4xx_hal_tim.c:1480:378
	ldr	r0, [r0]
	movw	r1, #1024
	movt	r1, #16385
	.loc	7 1480 453                      @ ../Drivers/STM32F4xx_HAL_Driver/Src/stm32f4xx_hal_tim.c:1480:453
	cmp	r0, r1
	beq	.LBB31_32
	b	.LBB31_30
.LBB31_30:
	.loc	7 1480 458                      @ ../Drivers/STM32F4xx_HAL_Driver/Src/stm32f4xx_hal_tim.c:1480:458
	ldr	r0, [sp, #40]
	.loc	7 1480 464                      @ ../Drivers/STM32F4xx_HAL_Driver/Src/stm32f4xx_hal_tim.c:1480:464
	ldr	r0, [r0]
	movw	r1, #16384
	movt	r1, #16385
	.loc	7 1480 539                      @ ../Drivers/STM32F4xx_HAL_Driver/Src/stm32f4xx_hal_tim.c:1480:539
	cmp	r0, r1
	beq	.LBB31_32
	b	.LBB31_31
.LBB31_31:
	.loc	7 1480 544                      @ ../Drivers/STM32F4xx_HAL_Driver/Src/stm32f4xx_hal_tim.c:1480:544
	ldr	r0, [sp, #40]
	.loc	7 1480 550                      @ ../Drivers/STM32F4xx_HAL_Driver/Src/stm32f4xx_hal_tim.c:1480:550
	ldr	r0, [r0]
	movw	r1, #6144
	movt	r1, #16384
.Ltmp454:
	.loc	7 1480 7                        @ ../Drivers/STM32F4xx_HAL_Driver/Src/stm32f4xx_hal_tim.c:1480:7
	cmp	r0, r1
	bne	.LBB31_35
	b	.LBB31_32
.LBB31_32:
.Ltmp455:
	.loc	7 1482 15 is_stmt 1             @ ../Drivers/STM32F4xx_HAL_Driver/Src/stm32f4xx_hal_tim.c:1482:15
	ldr	r0, [sp, #40]
	.loc	7 1482 21 is_stmt 0             @ ../Drivers/STM32F4xx_HAL_Driver/Src/stm32f4xx_hal_tim.c:1482:21
	ldr	r0, [r0]
	.loc	7 1482 31                       @ ../Drivers/STM32F4xx_HAL_Driver/Src/stm32f4xx_hal_tim.c:1482:31
	ldr	r0, [r0, #8]
	.loc	7 1482 36                       @ ../Drivers/STM32F4xx_HAL_Driver/Src/stm32f4xx_hal_tim.c:1482:36
	and	r0, r0, #7
	.loc	7 1482 13                       @ ../Drivers/STM32F4xx_HAL_Driver/Src/stm32f4xx_hal_tim.c:1482:13
	str	r0, [sp, #32]
.Ltmp456:
	.loc	7 1483 12 is_stmt 1             @ ../Drivers/STM32F4xx_HAL_Driver/Src/stm32f4xx_hal_tim.c:1483:12
	ldr	r0, [sp, #32]
.Ltmp457:
	.loc	7 1483 9 is_stmt 0              @ ../Drivers/STM32F4xx_HAL_Driver/Src/stm32f4xx_hal_tim.c:1483:9
	cmp	r0, #6
	beq	.LBB31_34
	b	.LBB31_33
.LBB31_33:
.Ltmp458:
	.loc	7 1485 9 is_stmt 1              @ ../Drivers/STM32F4xx_HAL_Driver/Src/stm32f4xx_hal_tim.c:1485:9
	ldr	r0, [sp, #40]
	.loc	7 1485 16 is_stmt 0             @ ../Drivers/STM32F4xx_HAL_Driver/Src/stm32f4xx_hal_tim.c:1485:16
	ldr	r1, [r0]
	.loc	7 1485 29                       @ ../Drivers/STM32F4xx_HAL_Driver/Src/stm32f4xx_hal_tim.c:1485:29
	ldr	r0, [r1]
	orr	r0, r0, #1
	str	r0, [r1]
	.loc	7 1486 5 is_stmt 1              @ ../Drivers/STM32F4xx_HAL_Driver/Src/stm32f4xx_hal_tim.c:1486:5
	b	.LBB31_34
.Ltmp459:
.LBB31_34:
	.loc	7 1487 3                        @ ../Drivers/STM32F4xx_HAL_Driver/Src/stm32f4xx_hal_tim.c:1487:3
	b	.LBB31_36
.Ltmp460:
.LBB31_35:
	.loc	7 1490 7                        @ ../Drivers/STM32F4xx_HAL_Driver/Src/stm32f4xx_hal_tim.c:1490:7
	ldr	r0, [sp, #40]
	.loc	7 1490 14 is_stmt 0             @ ../Drivers/STM32F4xx_HAL_Driver/Src/stm32f4xx_hal_tim.c:1490:14
	ldr	r1, [r0]
	.loc	7 1490 27                       @ ../Drivers/STM32F4xx_HAL_Driver/Src/stm32f4xx_hal_tim.c:1490:27
	ldr	r0, [r1]
	orr	r0, r0, #1
	str	r0, [r1]
	b	.LBB31_36
.Ltmp461:
.LBB31_36:
	.loc	7 0 27                          @ ../Drivers/STM32F4xx_HAL_Driver/Src/stm32f4xx_hal_tim.c:0:27
	movs	r0, #0
	.loc	7 1494 3 is_stmt 1              @ ../Drivers/STM32F4xx_HAL_Driver/Src/stm32f4xx_hal_tim.c:1494:3
	strb.w	r0, [sp, #47]
	b	.LBB31_37
.LBB31_37:
	.loc	7 1495 1                        @ ../Drivers/STM32F4xx_HAL_Driver/Src/stm32f4xx_hal_tim.c:1495:1
	ldrb.w	r0, [sp, #47]
	add	sp, #48
	pop	{r7, pc}
.Ltmp462:
.Lfunc_end31:
	.size	HAL_TIM_PWM_Start, .Lfunc_end31-HAL_TIM_PWM_Start
	.cfi_endproc
	.cantunwind
	.fnend
                                        @ -- End function
	.section	.text.HAL_TIM_PWM_Stop,"ax",%progbits
	.hidden	HAL_TIM_PWM_Stop                @ -- Begin function HAL_TIM_PWM_Stop
	.globl	HAL_TIM_PWM_Stop
	.p2align	2
	.type	HAL_TIM_PWM_Stop,%function
	.code	16                              @ @HAL_TIM_PWM_Stop
	.thumb_func
HAL_TIM_PWM_Stop:
.Lfunc_begin32:
	.loc	7 1509 0                        @ ../Drivers/STM32F4xx_HAL_Driver/Src/stm32f4xx_hal_tim.c:1509:0
	.fnstart
	.cfi_startproc
@ %bb.0:
	.save	{r7, lr}
	push	{r7, lr}
	.cfi_def_cfa_offset 8
	.cfi_offset lr, -4
	.cfi_offset r7, -8
	.pad	#24
	sub	sp, #24
	.cfi_def_cfa_offset 32
	str	r0, [sp, #20]
	str	r1, [sp, #16]
.Ltmp463:
	.loc	7 1514 21 prologue_end          @ ../Drivers/STM32F4xx_HAL_Driver/Src/stm32f4xx_hal_tim.c:1514:21
	ldr	r0, [sp, #20]
	.loc	7 1514 27 is_stmt 0             @ ../Drivers/STM32F4xx_HAL_Driver/Src/stm32f4xx_hal_tim.c:1514:27
	ldr	r0, [r0]
	.loc	7 1514 37                       @ ../Drivers/STM32F4xx_HAL_Driver/Src/stm32f4xx_hal_tim.c:1514:37
	ldr	r1, [sp, #16]
	movs	r2, #0
	.loc	7 1514 3                        @ ../Drivers/STM32F4xx_HAL_Driver/Src/stm32f4xx_hal_tim.c:1514:3
	bl	TIM_CCxChannelCmd
.Ltmp464:
	.loc	7 1516 10 is_stmt 1             @ ../Drivers/STM32F4xx_HAL_Driver/Src/stm32f4xx_hal_tim.c:1516:10
	ldr	r0, [sp, #20]
	.loc	7 1516 16 is_stmt 0             @ ../Drivers/STM32F4xx_HAL_Driver/Src/stm32f4xx_hal_tim.c:1516:16
	ldr	r1, [r0]
	movs	r0, #1
	movs	r2, #0
	movt	r2, #16385
