	.text
	.syntax unified
	.eabi_attribute	67, "2.09"	@ Tag_conformance
	.cpu	cortex-m4
	.eabi_attribute	6, 13	@ Tag_CPU_arch
	.eabi_attribute	7, 77	@ Tag_CPU_arch_profile
	.eabi_attribute	8, 0	@ Tag_ARM_ISA_use
	.eabi_attribute	9, 2	@ Tag_THUMB_ISA_use
	.fpu	fpv4-sp-d16
	.eabi_attribute	27, 1	@ Tag_ABI_HardFP_use
	.eabi_attribute	36, 1	@ Tag_FP_HP_extension
	.eabi_attribute	34, 1	@ Tag_CPU_unaligned_access
	.eabi_attribute	17, 1	@ Tag_ABI_PCS_GOT_use
	.eabi_attribute	20, 2	@ Tag_ABI_FP_denormal
	.eabi_attribute	21, 0	@ Tag_ABI_FP_exceptions
	.eabi_attribute	23, 3	@ Tag_ABI_FP_number_model
	.eabi_attribute	24, 1	@ Tag_ABI_align_needed
	.eabi_attribute	25, 1	@ Tag_ABI_align_preserved
	.eabi_attribute	28, 1	@ Tag_ABI_VFP_args
	.eabi_attribute	38, 1	@ Tag_ABI_FP_16bit_format
	.eabi_attribute	18, 2	@ Tag_ABI_PCS_wchar_t
	.eabi_attribute	26, 1	@ Tag_ABI_enum_size
	.eabi_attribute	14, 0	@ Tag_ABI_PCS_R9_use
	.file	"stm32f4xx_hal_gpio.c"
	.file	1 "D:\\horizon\\Horizon_Infantry (2)\\MDK-ARM" "../Drivers/STM32F4xx_HAL_Driver/Inc\\stm32f4xx_hal_gpio.h"
	.file	2 "D:\\horizon\\Horizon_Infantry (2)\\MDK-ARM" "../Drivers/STM32F4xx_HAL_Driver/Inc/stm32f4xx_hal_def.h"
	.file	3 "D:\\horizon\\Horizon_Infantry (2)\\MDK-ARM" "../Drivers/CMSIS/Device/ST/STM32F4xx/Include\\stm32f4xx.h"
	.file	4 "D:\\" "kevil\\ARM\\ARMCLANG\\Bin\\..\\include\\stdint.h"
	.file	5 "D:\\horizon\\Horizon_Infantry (2)\\MDK-ARM" "../Drivers/CMSIS/Device/ST/STM32F4xx/Include/stm32f407xx.h"
	.section	.text.HAL_GPIO_Init,"ax",%progbits
	.hidden	HAL_GPIO_Init                   @ -- Begin function HAL_GPIO_Init
	.globl	HAL_GPIO_Init
	.p2align	2
	.type	HAL_GPIO_Init,%function
	.code	16                              @ @HAL_GPIO_Init
	.thumb_func
HAL_GPIO_Init:
.Lfunc_begin0:
	.file	6 "D:\\horizon\\Horizon_Infantry (2)\\MDK-ARM" "../Drivers/STM32F4xx_HAL_Driver/Src/stm32f4xx_hal_gpio.c"
	.loc	6 165 0                         @ ../Drivers/STM32F4xx_HAL_Driver/Src/stm32f4xx_hal_gpio.c:165:0
	.fnstart
	.cfi_sections .debug_frame
	.cfi_startproc
@ %bb.0:
	.pad	#56
	sub	sp, #56
	.cfi_def_cfa_offset 56
	str	r0, [sp, #52]
	str	r1, [sp, #48]
	movs	r0, #0
.Ltmp0:
	.loc	6 167 12 prologue_end           @ ../Drivers/STM32F4xx_HAL_Driver/Src/stm32f4xx_hal_gpio.c:167:12
	str	r0, [sp, #40]
	.loc	6 168 12                        @ ../Drivers/STM32F4xx_HAL_Driver/Src/stm32f4xx_hal_gpio.c:168:12
	str	r0, [sp, #36]
	.loc	6 169 12                        @ ../Drivers/STM32F4xx_HAL_Driver/Src/stm32f4xx_hal_gpio.c:169:12
	str	r0, [sp, #32]
.Ltmp1:
	.loc	6 177 16                        @ ../Drivers/STM32F4xx_HAL_Driver/Src/stm32f4xx_hal_gpio.c:177:16
	str	r0, [sp, #44]
	.loc	6 177 7 is_stmt 0               @ ../Drivers/STM32F4xx_HAL_Driver/Src/stm32f4xx_hal_gpio.c:177:7
	b	.LBB0_1
.LBB0_1:                                @ =>This Inner Loop Header: Depth=1
.Ltmp2:
	.loc	6 177 22                        @ ../Drivers/STM32F4xx_HAL_Driver/Src/stm32f4xx_hal_gpio.c:177:22
	ldr	r0, [sp, #44]
.Ltmp3:
	.loc	6 177 3                         @ ../Drivers/STM32F4xx_HAL_Driver/Src/stm32f4xx_hal_gpio.c:177:3
	cmp	r0, #15
	bhi.w	.LBB0_46
	b	.LBB0_2
.LBB0_2:                                @   in Loop: Header=BB0_1 Depth=1
.Ltmp4:
	.loc	6 180 27 is_stmt 1              @ ../Drivers/STM32F4xx_HAL_Driver/Src/stm32f4xx_hal_gpio.c:180:27
	ldr	r1, [sp, #44]
	movs	r0, #1
	.loc	6 180 24 is_stmt 0              @ ../Drivers/STM32F4xx_HAL_Driver/Src/stm32f4xx_hal_gpio.c:180:24
	lsls	r0, r1
	.loc	6 180 16                        @ ../Drivers/STM32F4xx_HAL_Driver/Src/stm32f4xx_hal_gpio.c:180:16
	str	r0, [sp, #40]
	.loc	6 182 28 is_stmt 1              @ ../Drivers/STM32F4xx_HAL_Driver/Src/stm32f4xx_hal_gpio.c:182:28
	ldr	r0, [sp, #48]
	.loc	6 182 39 is_stmt 0              @ ../Drivers/STM32F4xx_HAL_Driver/Src/stm32f4xx_hal_gpio.c:182:39
	ldr	r0, [r0]
	.loc	6 182 46                        @ ../Drivers/STM32F4xx_HAL_Driver/Src/stm32f4xx_hal_gpio.c:182:46
	ldr	r1, [sp, #40]
	.loc	6 182 44                        @ ../Drivers/STM32F4xx_HAL_Driver/Src/stm32f4xx_hal_gpio.c:182:44
	ands	r0, r1
	.loc	6 182 15                        @ ../Drivers/STM32F4xx_HAL_Driver/Src/stm32f4xx_hal_gpio.c:182:15
	str	r0, [sp, #36]
.Ltmp5:
	.loc	6 184 8 is_stmt 1               @ ../Drivers/STM32F4xx_HAL_Driver/Src/stm32f4xx_hal_gpio.c:184:8
	ldr	r0, [sp, #36]
	.loc	6 184 21 is_stmt 0              @ ../Drivers/STM32F4xx_HAL_Driver/Src/stm32f4xx_hal_gpio.c:184:21
	ldr	r1, [sp, #40]
.Ltmp6:
	.loc	6 184 8                         @ ../Drivers/STM32F4xx_HAL_Driver/Src/stm32f4xx_hal_gpio.c:184:8
	cmp	r0, r1
	bne.w	.LBB0_44
	b	.LBB0_3
.LBB0_3:                                @   in Loop: Header=BB0_1 Depth=1
.Ltmp7:
	.loc	6 188 12 is_stmt 1              @ ../Drivers/STM32F4xx_HAL_Driver/Src/stm32f4xx_hal_gpio.c:188:12
	ldr	r0, [sp, #48]
	.loc	6 188 23 is_stmt 0              @ ../Drivers/STM32F4xx_HAL_Driver/Src/stm32f4xx_hal_gpio.c:188:23
	ldr	r0, [r0, #4]
	.loc	6 188 28                        @ ../Drivers/STM32F4xx_HAL_Driver/Src/stm32f4xx_hal_gpio.c:188:28
	and	r0, r0, #3
	.loc	6 188 63                        @ ../Drivers/STM32F4xx_HAL_Driver/Src/stm32f4xx_hal_gpio.c:188:63
	cmp	r0, #1
	beq	.LBB0_5
	b	.LBB0_4
.LBB0_4:                                @   in Loop: Header=BB0_1 Depth=1
	.loc	6 188 67                        @ ../Drivers/STM32F4xx_HAL_Driver/Src/stm32f4xx_hal_gpio.c:188:67
	ldr	r0, [sp, #48]
	.loc	6 188 78                        @ ../Drivers/STM32F4xx_HAL_Driver/Src/stm32f4xx_hal_gpio.c:188:78
	ldr	r0, [r0, #4]
	.loc	6 188 83                        @ ../Drivers/STM32F4xx_HAL_Driver/Src/stm32f4xx_hal_gpio.c:188:83
	and	r0, r0, #3
.Ltmp8:
	.loc	6 188 10                        @ ../Drivers/STM32F4xx_HAL_Driver/Src/stm32f4xx_hal_gpio.c:188:10
	cmp	r0, #2
	bne	.LBB0_6
	b	.LBB0_5
.LBB0_5:                                @   in Loop: Header=BB0_1 Depth=1
.Ltmp9:
	.loc	6 194 16 is_stmt 1              @ ../Drivers/STM32F4xx_HAL_Driver/Src/stm32f4xx_hal_gpio.c:194:16
	ldr	r0, [sp, #52]
	.loc	6 194 23 is_stmt 0              @ ../Drivers/STM32F4xx_HAL_Driver/Src/stm32f4xx_hal_gpio.c:194:23
	ldr	r0, [r0, #8]
	.loc	6 194 14                        @ ../Drivers/STM32F4xx_HAL_Driver/Src/stm32f4xx_hal_gpio.c:194:14
	str	r0, [sp, #32]
	.loc	6 195 39 is_stmt 1              @ ../Drivers/STM32F4xx_HAL_Driver/Src/stm32f4xx_hal_gpio.c:195:39
	ldr	r0, [sp, #44]
	.loc	6 195 48 is_stmt 0              @ ../Drivers/STM32F4xx_HAL_Driver/Src/stm32f4xx_hal_gpio.c:195:48
	lsls	r1, r0, #1
	movs	r0, #3
	.loc	6 195 35                        @ ../Drivers/STM32F4xx_HAL_Driver/Src/stm32f4xx_hal_gpio.c:195:35
	lsl.w	r1, r0, r1
	.loc	6 195 14                        @ ../Drivers/STM32F4xx_HAL_Driver/Src/stm32f4xx_hal_gpio.c:195:14
	ldr	r0, [sp, #32]
	bics	r0, r1
	str	r0, [sp, #32]
	.loc	6 196 18 is_stmt 1              @ ../Drivers/STM32F4xx_HAL_Driver/Src/stm32f4xx_hal_gpio.c:196:18
	ldr	r0, [sp, #48]
	.loc	6 196 29 is_stmt 0              @ ../Drivers/STM32F4xx_HAL_Driver/Src/stm32f4xx_hal_gpio.c:196:29
	ldr	r0, [r0, #12]
	.loc	6 196 39                        @ ../Drivers/STM32F4xx_HAL_Driver/Src/stm32f4xx_hal_gpio.c:196:39
	ldr	r1, [sp, #44]
	.loc	6 196 48                        @ ../Drivers/STM32F4xx_HAL_Driver/Src/stm32f4xx_hal_gpio.c:196:48
	lsls	r1, r1, #1
	.loc	6 196 35                        @ ../Drivers/STM32F4xx_HAL_Driver/Src/stm32f4xx_hal_gpio.c:196:35
	lsl.w	r1, r0, r1
	.loc	6 196 14                        @ ../Drivers/STM32F4xx_HAL_Driver/Src/stm32f4xx_hal_gpio.c:196:14
	ldr	r0, [sp, #32]
	orrs	r0, r1
	str	r0, [sp, #32]
	.loc	6 197 26 is_stmt 1              @ ../Drivers/STM32F4xx_HAL_Driver/Src/stm32f4xx_hal_gpio.c:197:26
	ldr	r0, [sp, #32]
	.loc	6 197 9 is_stmt 0               @ ../Drivers/STM32F4xx_HAL_Driver/Src/stm32f4xx_hal_gpio.c:197:9
	ldr	r1, [sp, #52]
	.loc	6 197 24                        @ ../Drivers/STM32F4xx_HAL_Driver/Src/stm32f4xx_hal_gpio.c:197:24
	str	r0, [r1, #8]
	.loc	6 200 16 is_stmt 1              @ ../Drivers/STM32F4xx_HAL_Driver/Src/stm32f4xx_hal_gpio.c:200:16
	ldr	r0, [sp, #52]
	.loc	6 200 23 is_stmt 0              @ ../Drivers/STM32F4xx_HAL_Driver/Src/stm32f4xx_hal_gpio.c:200:23
	ldr	r0, [r0, #4]
	.loc	6 200 14                        @ ../Drivers/STM32F4xx_HAL_Driver/Src/stm32f4xx_hal_gpio.c:200:14
	str	r0, [sp, #32]
	.loc	6 201 38 is_stmt 1              @ ../Drivers/STM32F4xx_HAL_Driver/Src/stm32f4xx_hal_gpio.c:201:38
	ldr	r1, [sp, #44]
	movs	r0, #1
	.loc	6 201 35 is_stmt 0              @ ../Drivers/STM32F4xx_HAL_Driver/Src/stm32f4xx_hal_gpio.c:201:35
	lsl.w	r1, r0, r1
	.loc	6 201 14                        @ ../Drivers/STM32F4xx_HAL_Driver/Src/stm32f4xx_hal_gpio.c:201:14
	ldr	r0, [sp, #32]
	bics	r0, r1
	str	r0, [sp, #32]
	.loc	6 202 20 is_stmt 1              @ ../Drivers/STM32F4xx_HAL_Driver/Src/stm32f4xx_hal_gpio.c:202:20
	ldr	r0, [sp, #48]
	.loc	6 202 31 is_stmt 0              @ ../Drivers/STM32F4xx_HAL_Driver/Src/stm32f4xx_hal_gpio.c:202:31
	ldr	r0, [r0, #4]
	.loc	6 202 53                        @ ../Drivers/STM32F4xx_HAL_Driver/Src/stm32f4xx_hal_gpio.c:202:53
	ubfx	r0, r0, #4, #1
	.loc	6 202 63                        @ ../Drivers/STM32F4xx_HAL_Driver/Src/stm32f4xx_hal_gpio.c:202:63
	ldr	r1, [sp, #44]
	.loc	6 202 60                        @ ../Drivers/STM32F4xx_HAL_Driver/Src/stm32f4xx_hal_gpio.c:202:60
	lsl.w	r1, r0, r1
	.loc	6 202 14                        @ ../Drivers/STM32F4xx_HAL_Driver/Src/stm32f4xx_hal_gpio.c:202:14
	ldr	r0, [sp, #32]
	orrs	r0, r1
	str	r0, [sp, #32]
	.loc	6 203 25 is_stmt 1              @ ../Drivers/STM32F4xx_HAL_Driver/Src/stm32f4xx_hal_gpio.c:203:25
	ldr	r0, [sp, #32]
	.loc	6 203 9 is_stmt 0               @ ../Drivers/STM32F4xx_HAL_Driver/Src/stm32f4xx_hal_gpio.c:203:9
	ldr	r1, [sp, #52]
	.loc	6 203 23                        @ ../Drivers/STM32F4xx_HAL_Driver/Src/stm32f4xx_hal_gpio.c:203:23
	str	r0, [r1, #4]
	.loc	6 204 8 is_stmt 1               @ ../Drivers/STM32F4xx_HAL_Driver/Src/stm32f4xx_hal_gpio.c:204:8
	b	.LBB0_6
.Ltmp10:
.LBB0_6:                                @   in Loop: Header=BB0_1 Depth=1
	.loc	6 206 11                        @ ../Drivers/STM32F4xx_HAL_Driver/Src/stm32f4xx_hal_gpio.c:206:11
	ldr	r0, [sp, #48]
	.loc	6 206 22 is_stmt 0              @ ../Drivers/STM32F4xx_HAL_Driver/Src/stm32f4xx_hal_gpio.c:206:22
	ldr	r0, [r0, #4]
	.loc	6 206 27                        @ ../Drivers/STM32F4xx_HAL_Driver/Src/stm32f4xx_hal_gpio.c:206:27
	and	r0, r0, #3
.Ltmp11:
	.loc	6 206 10                        @ ../Drivers/STM32F4xx_HAL_Driver/Src/stm32f4xx_hal_gpio.c:206:10
	cmp	r0, #3
	beq	.LBB0_8
	b	.LBB0_7
.LBB0_7:                                @   in Loop: Header=BB0_1 Depth=1
.Ltmp12:
	.loc	6 212 16 is_stmt 1              @ ../Drivers/STM32F4xx_HAL_Driver/Src/stm32f4xx_hal_gpio.c:212:16
	ldr	r0, [sp, #52]
	.loc	6 212 23 is_stmt 0              @ ../Drivers/STM32F4xx_HAL_Driver/Src/stm32f4xx_hal_gpio.c:212:23
	ldr	r0, [r0, #12]
	.loc	6 212 14                        @ ../Drivers/STM32F4xx_HAL_Driver/Src/stm32f4xx_hal_gpio.c:212:14
	str	r0, [sp, #32]
	.loc	6 213 39 is_stmt 1              @ ../Drivers/STM32F4xx_HAL_Driver/Src/stm32f4xx_hal_gpio.c:213:39
	ldr	r0, [sp, #44]
	.loc	6 213 48 is_stmt 0              @ ../Drivers/STM32F4xx_HAL_Driver/Src/stm32f4xx_hal_gpio.c:213:48
	lsls	r1, r0, #1
	movs	r0, #3
	.loc	6 213 35                        @ ../Drivers/STM32F4xx_HAL_Driver/Src/stm32f4xx_hal_gpio.c:213:35
	lsl.w	r1, r0, r1
	.loc	6 213 14                        @ ../Drivers/STM32F4xx_HAL_Driver/Src/stm32f4xx_hal_gpio.c:213:14
	ldr	r0, [sp, #32]
	bics	r0, r1
	str	r0, [sp, #32]
	.loc	6 214 19 is_stmt 1              @ ../Drivers/STM32F4xx_HAL_Driver/Src/stm32f4xx_hal_gpio.c:214:19
	ldr	r0, [sp, #48]
	.loc	6 214 30 is_stmt 0              @ ../Drivers/STM32F4xx_HAL_Driver/Src/stm32f4xx_hal_gpio.c:214:30
	ldr	r0, [r0, #8]
	.loc	6 214 40                        @ ../Drivers/STM32F4xx_HAL_Driver/Src/stm32f4xx_hal_gpio.c:214:40
	ldr	r1, [sp, #44]
	.loc	6 214 49                        @ ../Drivers/STM32F4xx_HAL_Driver/Src/stm32f4xx_hal_gpio.c:214:49
	lsls	r1, r1, #1
	.loc	6 214 36                        @ ../Drivers/STM32F4xx_HAL_Driver/Src/stm32f4xx_hal_gpio.c:214:36
	lsl.w	r1, r0, r1
	.loc	6 214 14                        @ ../Drivers/STM32F4xx_HAL_Driver/Src/stm32f4xx_hal_gpio.c:214:14
	ldr	r0, [sp, #32]
	orrs	r0, r1
	str	r0, [sp, #32]
	.loc	6 215 24 is_stmt 1              @ ../Drivers/STM32F4xx_HAL_Driver/Src/stm32f4xx_hal_gpio.c:215:24
	ldr	r0, [sp, #32]
	.loc	6 215 9 is_stmt 0               @ ../Drivers/STM32F4xx_HAL_Driver/Src/stm32f4xx_hal_gpio.c:215:9
	ldr	r1, [sp, #52]
	.loc	6 215 22                        @ ../Drivers/STM32F4xx_HAL_Driver/Src/stm32f4xx_hal_gpio.c:215:22
	str	r0, [r1, #12]
	.loc	6 216 7 is_stmt 1               @ ../Drivers/STM32F4xx_HAL_Driver/Src/stm32f4xx_hal_gpio.c:216:7
	b	.LBB0_8
.Ltmp13:
.LBB0_8:                                @   in Loop: Header=BB0_1 Depth=1
	.loc	6 219 11                        @ ../Drivers/STM32F4xx_HAL_Driver/Src/stm32f4xx_hal_gpio.c:219:11
	ldr	r0, [sp, #48]
	.loc	6 219 22 is_stmt 0              @ ../Drivers/STM32F4xx_HAL_Driver/Src/stm32f4xx_hal_gpio.c:219:22
	ldr	r0, [r0, #4]
	.loc	6 219 27                        @ ../Drivers/STM32F4xx_HAL_Driver/Src/stm32f4xx_hal_gpio.c:219:27
	and	r0, r0, #3
.Ltmp14:
	.loc	6 219 10                        @ ../Drivers/STM32F4xx_HAL_Driver/Src/stm32f4xx_hal_gpio.c:219:10
	cmp	r0, #2
	bne	.LBB0_10
	b	.LBB0_9
.LBB0_9:                                @   in Loop: Header=BB0_1 Depth=1
.Ltmp15:
	.loc	6 224 16 is_stmt 1              @ ../Drivers/STM32F4xx_HAL_Driver/Src/stm32f4xx_hal_gpio.c:224:16
	ldr	r0, [sp, #52]
	.loc	6 224 27 is_stmt 0              @ ../Drivers/STM32F4xx_HAL_Driver/Src/stm32f4xx_hal_gpio.c:224:27
	ldr	r1, [sp, #44]
	mvn	r2, #3
	.loc	6 224 36                        @ ../Drivers/STM32F4xx_HAL_Driver/Src/stm32f4xx_hal_gpio.c:224:36
	and.w	r1, r2, r1, lsr #1
	.loc	6 224 23                        @ ../Drivers/STM32F4xx_HAL_Driver/Src/stm32f4xx_hal_gpio.c:224:23
	add	r0, r1
	.loc	6 224 16                        @ ../Drivers/STM32F4xx_HAL_Driver/Src/stm32f4xx_hal_gpio.c:224:16
	ldr	r0, [r0, #32]
	.loc	6 224 14                        @ ../Drivers/STM32F4xx_HAL_Driver/Src/stm32f4xx_hal_gpio.c:224:14
	str	r0, [sp, #32]
	.loc	6 225 39 is_stmt 1              @ ../Drivers/STM32F4xx_HAL_Driver/Src/stm32f4xx_hal_gpio.c:225:39
	ldr	r0, [sp, #44]
	.loc	6 225 48 is_stmt 0              @ ../Drivers/STM32F4xx_HAL_Driver/Src/stm32f4xx_hal_gpio.c:225:48
	and	r0, r0, #7
	.loc	6 225 57                        @ ../Drivers/STM32F4xx_HAL_Driver/Src/stm32f4xx_hal_gpio.c:225:57
	lsls	r1, r0, #2
	movs	r0, #15
	.loc	6 225 24                        @ ../Drivers/STM32F4xx_HAL_Driver/Src/stm32f4xx_hal_gpio.c:225:24
	lsl.w	r1, r0, r1
	.loc	6 225 14                        @ ../Drivers/STM32F4xx_HAL_Driver/Src/stm32f4xx_hal_gpio.c:225:14
	ldr	r0, [sp, #32]
	bics	r0, r1
	str	r0, [sp, #32]
	.loc	6 226 29 is_stmt 1              @ ../Drivers/STM32F4xx_HAL_Driver/Src/stm32f4xx_hal_gpio.c:226:29
	ldr	r0, [sp, #48]
	.loc	6 226 40 is_stmt 0              @ ../Drivers/STM32F4xx_HAL_Driver/Src/stm32f4xx_hal_gpio.c:226:40
	ldr	r0, [r0, #16]
	.loc	6 226 66                        @ ../Drivers/STM32F4xx_HAL_Driver/Src/stm32f4xx_hal_gpio.c:226:66
	ldr	r1, [sp, #44]
	.loc	6 226 75                        @ ../Drivers/STM32F4xx_HAL_Driver/Src/stm32f4xx_hal_gpio.c:226:75
	and	r1, r1, #7
	.loc	6 226 84                        @ ../Drivers/STM32F4xx_HAL_Driver/Src/stm32f4xx_hal_gpio.c:226:84
	lsls	r1, r1, #2
	.loc	6 226 51                        @ ../Drivers/STM32F4xx_HAL_Driver/Src/stm32f4xx_hal_gpio.c:226:51
	lsl.w	r1, r0, r1
	.loc	6 226 14                        @ ../Drivers/STM32F4xx_HAL_Driver/Src/stm32f4xx_hal_gpio.c:226:14
	ldr	r0, [sp, #32]
	orrs	r0, r1
	str	r0, [sp, #32]
	.loc	6 227 38 is_stmt 1              @ ../Drivers/STM32F4xx_HAL_Driver/Src/stm32f4xx_hal_gpio.c:227:38
	ldr	r0, [sp, #32]
	.loc	6 227 9 is_stmt 0               @ ../Drivers/STM32F4xx_HAL_Driver/Src/stm32f4xx_hal_gpio.c:227:9
	ldr	r1, [sp, #52]
	.loc	6 227 20                        @ ../Drivers/STM32F4xx_HAL_Driver/Src/stm32f4xx_hal_gpio.c:227:20
	ldr	r3, [sp, #44]
	.loc	6 227 29                        @ ../Drivers/STM32F4xx_HAL_Driver/Src/stm32f4xx_hal_gpio.c:227:29
	and.w	r2, r2, r3, lsr #1
	.loc	6 227 16                        @ ../Drivers/STM32F4xx_HAL_Driver/Src/stm32f4xx_hal_gpio.c:227:16
	add	r1, r2
	.loc	6 227 36                        @ ../Drivers/STM32F4xx_HAL_Driver/Src/stm32f4xx_hal_gpio.c:227:36
	str	r0, [r1, #32]
	.loc	6 228 7 is_stmt 1               @ ../Drivers/STM32F4xx_HAL_Driver/Src/stm32f4xx_hal_gpio.c:228:7
	b	.LBB0_10
.Ltmp16:
.LBB0_10:                               @   in Loop: Header=BB0_1 Depth=1
	.loc	6 231 14                        @ ../Drivers/STM32F4xx_HAL_Driver/Src/stm32f4xx_hal_gpio.c:231:14
	ldr	r0, [sp, #52]
	.loc	6 231 21 is_stmt 0              @ ../Drivers/STM32F4xx_HAL_Driver/Src/stm32f4xx_hal_gpio.c:231:21
	ldr	r0, [r0]
	.loc	6 231 12                        @ ../Drivers/STM32F4xx_HAL_Driver/Src/stm32f4xx_hal_gpio.c:231:12
	str	r0, [sp, #32]
	.loc	6 232 37 is_stmt 1              @ ../Drivers/STM32F4xx_HAL_Driver/Src/stm32f4xx_hal_gpio.c:232:37
	ldr	r0, [sp, #44]
	.loc	6 232 46 is_stmt 0              @ ../Drivers/STM32F4xx_HAL_Driver/Src/stm32f4xx_hal_gpio.c:232:46
	lsls	r1, r0, #1
	movs	r0, #3
	.loc	6 232 33                        @ ../Drivers/STM32F4xx_HAL_Driver/Src/stm32f4xx_hal_gpio.c:232:33
	lsl.w	r1, r0, r1
	.loc	6 232 12                        @ ../Drivers/STM32F4xx_HAL_Driver/Src/stm32f4xx_hal_gpio.c:232:12
	ldr	r0, [sp, #32]
	bics	r0, r1
	str	r0, [sp, #32]
	.loc	6 233 17 is_stmt 1              @ ../Drivers/STM32F4xx_HAL_Driver/Src/stm32f4xx_hal_gpio.c:233:17
	ldr	r0, [sp, #48]
	.loc	6 233 28 is_stmt 0              @ ../Drivers/STM32F4xx_HAL_Driver/Src/stm32f4xx_hal_gpio.c:233:28
	ldr	r0, [r0, #4]
	.loc	6 233 33                        @ ../Drivers/STM32F4xx_HAL_Driver/Src/stm32f4xx_hal_gpio.c:233:33
	and	r0, r0, #3
	.loc	6 233 54                        @ ../Drivers/STM32F4xx_HAL_Driver/Src/stm32f4xx_hal_gpio.c:233:54
	ldr	r1, [sp, #44]
	.loc	6 233 63                        @ ../Drivers/STM32F4xx_HAL_Driver/Src/stm32f4xx_hal_gpio.c:233:63
	lsls	r1, r1, #1
	.loc	6 233 50                        @ ../Drivers/STM32F4xx_HAL_Driver/Src/stm32f4xx_hal_gpio.c:233:50
	lsl.w	r1, r0, r1
	.loc	6 233 12                        @ ../Drivers/STM32F4xx_HAL_Driver/Src/stm32f4xx_hal_gpio.c:233:12
	ldr	r0, [sp, #32]
	orrs	r0, r1
	str	r0, [sp, #32]
	.loc	6 234 22 is_stmt 1              @ ../Drivers/STM32F4xx_HAL_Driver/Src/stm32f4xx_hal_gpio.c:234:22
	ldr	r0, [sp, #32]
	.loc	6 234 7 is_stmt 0               @ ../Drivers/STM32F4xx_HAL_Driver/Src/stm32f4xx_hal_gpio.c:234:7
	ldr	r1, [sp, #52]
	.loc	6 234 20                        @ ../Drivers/STM32F4xx_HAL_Driver/Src/stm32f4xx_hal_gpio.c:234:20
	str	r0, [r1]
.Ltmp17:
	.loc	6 238 11 is_stmt 1              @ ../Drivers/STM32F4xx_HAL_Driver/Src/stm32f4xx_hal_gpio.c:238:11
	ldr	r0, [sp, #48]
.Ltmp18:
	.loc	6 238 10 is_stmt 0              @ ../Drivers/STM32F4xx_HAL_Driver/Src/stm32f4xx_hal_gpio.c:238:10
	ldrb	r0, [r0, #6]
	lsls	r0, r0, #30
	cmp	r0, #0
	beq.w	.LBB0_43
	b	.LBB0_11
.LBB0_11:                               @   in Loop: Header=BB0_1 Depth=1
.Ltmp19:
	.loc	6 241 9 is_stmt 1               @ ../Drivers/STM32F4xx_HAL_Driver/Src/stm32f4xx_hal_gpio.c:241:9
	b	.LBB0_12
.LBB0_12:                               @   in Loop: Header=BB0_1 Depth=1
	.loc	6 0 9 is_stmt 0                 @ ../Drivers/STM32F4xx_HAL_Driver/Src/stm32f4xx_hal_gpio.c:0:9
	movs	r0, #0
.Ltmp20:
	.loc	6 241 32                        @ ../Drivers/STM32F4xx_HAL_Driver/Src/stm32f4xx_hal_gpio.c:241:32
	str	r0, [sp, #28]
	movw	r0, #14404
	movt	r0, #16386
	.loc	6 241 121                       @ ../Drivers/STM32F4xx_HAL_Driver/Src/stm32f4xx_hal_gpio.c:241:121
	ldr	r1, [r0]
	orr	r1, r1, #16384
	str	r1, [r0]
	.loc	6 241 218                       @ ../Drivers/STM32F4xx_HAL_Driver/Src/stm32f4xx_hal_gpio.c:241:218
	ldr	r0, [r0]
	.loc	6 241 227                       @ ../Drivers/STM32F4xx_HAL_Driver/Src/stm32f4xx_hal_gpio.c:241:227
	and	r0, r0, #16384
	.loc	6 241 152                       @ ../Drivers/STM32F4xx_HAL_Driver/Src/stm32f4xx_hal_gpio.c:241:152
	str	r0, [sp, #28]
	.loc	6 241 256                       @ ../Drivers/STM32F4xx_HAL_Driver/Src/stm32f4xx_hal_gpio.c:241:256
	ldr	r0, [sp, #28]
	.loc	6 241 264                       @ ../Drivers/STM32F4xx_HAL_Driver/Src/stm32f4xx_hal_gpio.c:241:264
	b	.LBB0_13
.Ltmp21:
.LBB0_13:                               @   in Loop: Header=BB0_1 Depth=1
	.loc	6 243 88 is_stmt 1              @ ../Drivers/STM32F4xx_HAL_Driver/Src/stm32f4xx_hal_gpio.c:243:88
	ldr	r0, [sp, #44]
	.loc	6 243 97 is_stmt 0              @ ../Drivers/STM32F4xx_HAL_Driver/Src/stm32f4xx_hal_gpio.c:243:97
	bic	r0, r0, #3
	movw	r1, #14344
	movt	r1, #16385
	.loc	6 243 16                        @ ../Drivers/STM32F4xx_HAL_Driver/Src/stm32f4xx_hal_gpio.c:243:16
	ldr	r0, [r0, r1]
	.loc	6 243 14                        @ ../Drivers/STM32F4xx_HAL_Driver/Src/stm32f4xx_hal_gpio.c:243:14
	str	r0, [sp, #32]
	.loc	6 244 35 is_stmt 1              @ ../Drivers/STM32F4xx_HAL_Driver/Src/stm32f4xx_hal_gpio.c:244:35
	ldr	r0, [sp, #44]
	.loc	6 244 44 is_stmt 0              @ ../Drivers/STM32F4xx_HAL_Driver/Src/stm32f4xx_hal_gpio.c:244:44
	and	r0, r0, #3
	.loc	6 244 32                        @ ../Drivers/STM32F4xx_HAL_Driver/Src/stm32f4xx_hal_gpio.c:244:32
	lsls	r1, r0, #2
	movs	r0, #15
	.loc	6 244 25                        @ ../Drivers/STM32F4xx_HAL_Driver/Src/stm32f4xx_hal_gpio.c:244:25
	lsl.w	r1, r0, r1
	.loc	6 244 14                        @ ../Drivers/STM32F4xx_HAL_Driver/Src/stm32f4xx_hal_gpio.c:244:14
	ldr	r0, [sp, #32]
	bics	r0, r1
	str	r0, [sp, #32]
	.loc	6 245 41 is_stmt 1              @ ../Drivers/STM32F4xx_HAL_Driver/Src/stm32f4xx_hal_gpio.c:245:41
	ldr	r0, [sp, #52]
	movs	r1, #0
	movt	r1, #16386
	.loc	6 245 39 is_stmt 0              @ ../Drivers/STM32F4xx_HAL_Driver/Src/stm32f4xx_hal_gpio.c:245:39
	cmp	r0, r1
	bne	.LBB0_15
	b	.LBB0_14
.LBB0_14:                               @   in Loop: Header=BB0_1 Depth=1
	.loc	6 0 39                          @ ../Drivers/STM32F4xx_HAL_Driver/Src/stm32f4xx_hal_gpio.c:0:39
	movs	r0, #0
	.loc	6 245 39                        @ ../Drivers/STM32F4xx_HAL_Driver/Src/stm32f4xx_hal_gpio.c:245:39
	str	r0, [sp, #24]                   @ 4-byte Spill
	b	.LBB0_34
.LBB0_15:                               @   in Loop: Header=BB0_1 Depth=1
	.loc	6 245 124                       @ ../Drivers/STM32F4xx_HAL_Driver/Src/stm32f4xx_hal_gpio.c:245:124
	ldr	r0, [sp, #52]
	movw	r1, #1024
	movt	r1, #16386
	.loc	6 245 122                       @ ../Drivers/STM32F4xx_HAL_Driver/Src/stm32f4xx_hal_gpio.c:245:122
	cmp	r0, r1
	bne	.LBB0_17
	b	.LBB0_16
.LBB0_16:                               @   in Loop: Header=BB0_1 Depth=1
	.loc	6 0 122                         @ ../Drivers/STM32F4xx_HAL_Driver/Src/stm32f4xx_hal_gpio.c:0:122
	movs	r0, #1
	.loc	6 245 122                       @ ../Drivers/STM32F4xx_HAL_Driver/Src/stm32f4xx_hal_gpio.c:245:122
	str	r0, [sp, #20]                   @ 4-byte Spill
	b	.LBB0_33
.LBB0_17:                               @   in Loop: Header=BB0_1 Depth=1
	.loc	6 245 207                       @ ../Drivers/STM32F4xx_HAL_Driver/Src/stm32f4xx_hal_gpio.c:245:207
	ldr	r0, [sp, #52]
	movw	r1, #2048
	movt	r1, #16386
	.loc	6 245 205                       @ ../Drivers/STM32F4xx_HAL_Driver/Src/stm32f4xx_hal_gpio.c:245:205
	cmp	r0, r1
	bne	.LBB0_19
	b	.LBB0_18
.LBB0_18:                               @   in Loop: Header=BB0_1 Depth=1
	.loc	6 0 205                         @ ../Drivers/STM32F4xx_HAL_Driver/Src/stm32f4xx_hal_gpio.c:0:205
	movs	r0, #2
	.loc	6 245 205                       @ ../Drivers/STM32F4xx_HAL_Driver/Src/stm32f4xx_hal_gpio.c:245:205
	str	r0, [sp, #16]                   @ 4-byte Spill
	b	.LBB0_32
.LBB0_19:                               @   in Loop: Header=BB0_1 Depth=1
	.loc	6 245 290                       @ ../Drivers/STM32F4xx_HAL_Driver/Src/stm32f4xx_hal_gpio.c:245:290
	ldr	r0, [sp, #52]
	movw	r1, #3072
	movt	r1, #16386
	.loc	6 245 288                       @ ../Drivers/STM32F4xx_HAL_Driver/Src/stm32f4xx_hal_gpio.c:245:288
	cmp	r0, r1
	bne	.LBB0_21
	b	.LBB0_20
.LBB0_20:                               @   in Loop: Header=BB0_1 Depth=1
	.loc	6 0 288                         @ ../Drivers/STM32F4xx_HAL_Driver/Src/stm32f4xx_hal_gpio.c:0:288
	movs	r0, #3
	.loc	6 245 288                       @ ../Drivers/STM32F4xx_HAL_Driver/Src/stm32f4xx_hal_gpio.c:245:288
	str	r0, [sp, #12]                   @ 4-byte Spill
	b	.LBB0_31
.LBB0_21:                               @   in Loop: Header=BB0_1 Depth=1
	.loc	6 245 373                       @ ../Drivers/STM32F4xx_HAL_Driver/Src/stm32f4xx_hal_gpio.c:245:373
	ldr	r0, [sp, #52]
	movw	r1, #4096
	movt	r1, #16386
	.loc	6 245 371                       @ ../Drivers/STM32F4xx_HAL_Driver/Src/stm32f4xx_hal_gpio.c:245:371
	cmp	r0, r1
	bne	.LBB0_23
	b	.LBB0_22
.LBB0_22:                               @   in Loop: Header=BB0_1 Depth=1
	.loc	6 0 371                         @ ../Drivers/STM32F4xx_HAL_Driver/Src/stm32f4xx_hal_gpio.c:0:371
	movs	r0, #4
	.loc	6 245 371                       @ ../Drivers/STM32F4xx_HAL_Driver/Src/stm32f4xx_hal_gpio.c:245:371
	str	r0, [sp, #8]                    @ 4-byte Spill
	b	.LBB0_30
.LBB0_23:                               @   in Loop: Header=BB0_1 Depth=1
	.loc	6 245 456                       @ ../Drivers/STM32F4xx_HAL_Driver/Src/stm32f4xx_hal_gpio.c:245:456
	ldr	r0, [sp, #52]
	movw	r1, #5120
	movt	r1, #16386
	.loc	6 245 454                       @ ../Drivers/STM32F4xx_HAL_Driver/Src/stm32f4xx_hal_gpio.c:245:454
	cmp	r0, r1
	bne	.LBB0_25
	b	.LBB0_24
.LBB0_24:                               @   in Loop: Header=BB0_1 Depth=1
	.loc	6 0 454                         @ ../Drivers/STM32F4xx_HAL_Driver/Src/stm32f4xx_hal_gpio.c:0:454
	movs	r0, #5
	.loc	6 245 454                       @ ../Drivers/STM32F4xx_HAL_Driver/Src/stm32f4xx_hal_gpio.c:245:454
	str	r0, [sp, #4]                    @ 4-byte Spill
	b	.LBB0_29
.LBB0_25:                               @   in Loop: Header=BB0_1 Depth=1
	.loc	6 245 539                       @ ../Drivers/STM32F4xx_HAL_Driver/Src/stm32f4xx_hal_gpio.c:245:539
	ldr	r0, [sp, #52]
	movw	r1, #6144
	movt	r1, #16386
	.loc	6 245 537                       @ ../Drivers/STM32F4xx_HAL_Driver/Src/stm32f4xx_hal_gpio.c:245:537
	cmp	r0, r1
	bne	.LBB0_27
	b	.LBB0_26
.LBB0_26:                               @   in Loop: Header=BB0_1 Depth=1
	.loc	6 0 537                         @ ../Drivers/STM32F4xx_HAL_Driver/Src/stm32f4xx_hal_gpio.c:0:537
	movs	r0, #6
	.loc	6 245 537                       @ ../Drivers/STM32F4xx_HAL_Driver/Src/stm32f4xx_hal_gpio.c:245:537
	str	r0, [sp]                        @ 4-byte Spill
	b	.LBB0_28
.LBB0_27:                               @   in Loop: Header=BB0_1 Depth=1
	.loc	6 245 622                       @ ../Drivers/STM32F4xx_HAL_Driver/Src/stm32f4xx_hal_gpio.c:245:622
	ldr	r1, [sp, #52]
	movw	r2, #7168
	movt	r2, #16386
	movs	r0, #8
	.loc	6 245 620                       @ ../Drivers/STM32F4xx_HAL_Driver/Src/stm32f4xx_hal_gpio.c:245:620
	cmp	r1, r2
	it	eq
	moveq	r0, #7
	.loc	6 245 537                       @ ../Drivers/STM32F4xx_HAL_Driver/Src/stm32f4xx_hal_gpio.c:245:537
	str	r0, [sp]                        @ 4-byte Spill
	b	.LBB0_28
.LBB0_28:                               @   in Loop: Header=BB0_1 Depth=1
	ldr	r0, [sp]                        @ 4-byte Reload
	.loc	6 245 454                       @ ../Drivers/STM32F4xx_HAL_Driver/Src/stm32f4xx_hal_gpio.c:245:454
	str	r0, [sp, #4]                    @ 4-byte Spill
	b	.LBB0_29
.LBB0_29:                               @   in Loop: Header=BB0_1 Depth=1
	ldr	r0, [sp, #4]                    @ 4-byte Reload
	.loc	6 245 371                       @ ../Drivers/STM32F4xx_HAL_Driver/Src/stm32f4xx_hal_gpio.c:245:371
	str	r0, [sp, #8]                    @ 4-byte Spill
	b	.LBB0_30
.LBB0_30:                               @   in Loop: Header=BB0_1 Depth=1
	ldr	r0, [sp, #8]                    @ 4-byte Reload
	.loc	6 245 288                       @ ../Drivers/STM32F4xx_HAL_Driver/Src/stm32f4xx_hal_gpio.c:245:288
	str	r0, [sp, #12]                   @ 4-byte Spill
	b	.LBB0_31
.LBB0_31:                               @   in Loop: Header=BB0_1 Depth=1
	ldr	r0, [sp, #12]                   @ 4-byte Reload
	.loc	6 245 205                       @ ../Drivers/STM32F4xx_HAL_Driver/Src/stm32f4xx_hal_gpio.c:245:205
	str	r0, [sp, #16]                   @ 4-byte Spill
	b	.LBB0_32
.LBB0_32:                               @   in Loop: Header=BB0_1 Depth=1
	ldr	r0, [sp, #16]                   @ 4-byte Reload
	.loc	6 245 122                       @ ../Drivers/STM32F4xx_HAL_Driver/Src/stm32f4xx_hal_gpio.c:245:122
	str	r0, [sp, #20]                   @ 4-byte Spill
	b	.LBB0_33
.LBB0_33:                               @   in Loop: Header=BB0_1 Depth=1
	ldr	r0, [sp, #20]                   @ 4-byte Reload
	.loc	6 245 39                        @ ../Drivers/STM32F4xx_HAL_Driver/Src/stm32f4xx_hal_gpio.c:245:39
	str	r0, [sp, #24]                   @ 4-byte Spill
	b	.LBB0_34
.LBB0_34:                               @   in Loop: Header=BB0_1 Depth=1
	ldr	r0, [sp, #24]                   @ 4-byte Reload
	.loc	6 245 18                        @ ../Drivers/STM32F4xx_HAL_Driver/Src/stm32f4xx_hal_gpio.c:245:18
	uxtb	r0, r0
	.loc	6 245 718                       @ ../Drivers/STM32F4xx_HAL_Driver/Src/stm32f4xx_hal_gpio.c:245:718
	ldr	r1, [sp, #44]
	.loc	6 245 727                       @ ../Drivers/STM32F4xx_HAL_Driver/Src/stm32f4xx_hal_gpio.c:245:727
	and	r1, r1, #3
	.loc	6 245 715                       @ ../Drivers/STM32F4xx_HAL_Driver/Src/stm32f4xx_hal_gpio.c:245:715
	lsls	r1, r1, #2
	.loc	6 245 708                       @ ../Drivers/STM32F4xx_HAL_Driver/Src/stm32f4xx_hal_gpio.c:245:708
	lsl.w	r1, r0, r1
	.loc	6 245 14                        @ ../Drivers/STM32F4xx_HAL_Driver/Src/stm32f4xx_hal_gpio.c:245:14
	ldr	r0, [sp, #32]
	orrs	r0, r1
	str	r0, [sp, #32]
	.loc	6 246 99 is_stmt 1              @ ../Drivers/STM32F4xx_HAL_Driver/Src/stm32f4xx_hal_gpio.c:246:99
	ldr	r0, [sp, #32]
	.loc	6 246 81 is_stmt 0              @ ../Drivers/STM32F4xx_HAL_Driver/Src/stm32f4xx_hal_gpio.c:246:81
	ldr	r1, [sp, #44]
	.loc	6 246 90                        @ ../Drivers/STM32F4xx_HAL_Driver/Src/stm32f4xx_hal_gpio.c:246:90
	bic	r1, r1, #3
	movw	r2, #14344
	movt	r2, #16385
	.loc	6 246 97                        @ ../Drivers/STM32F4xx_HAL_Driver/Src/stm32f4xx_hal_gpio.c:246:97
	str	r0, [r1, r2]
	movw	r0, #15368
	movt	r0, #16385
	.loc	6 249 79 is_stmt 1              @ ../Drivers/STM32F4xx_HAL_Driver/Src/stm32f4xx_hal_gpio.c:249:79
	ldr	r0, [r0]
	.loc	6 249 14 is_stmt 0              @ ../Drivers/STM32F4xx_HAL_Driver/Src/stm32f4xx_hal_gpio.c:249:14
	str	r0, [sp, #32]
	.loc	6 250 29 is_stmt 1              @ ../Drivers/STM32F4xx_HAL_Driver/Src/stm32f4xx_hal_gpio.c:250:29
	ldr	r1, [sp, #36]
	.loc	6 250 14 is_stmt 0              @ ../Drivers/STM32F4xx_HAL_Driver/Src/stm32f4xx_hal_gpio.c:250:14
	ldr	r0, [sp, #32]
	bics	r0, r1
	str	r0, [sp, #32]
.Ltmp22:
	.loc	6 251 13 is_stmt 1              @ ../Drivers/STM32F4xx_HAL_Driver/Src/stm32f4xx_hal_gpio.c:251:13
	ldr	r0, [sp, #48]
.Ltmp23:
	.loc	6 251 12 is_stmt 0              @ ../Drivers/STM32F4xx_HAL_Driver/Src/stm32f4xx_hal_gpio.c:251:12
	ldrb	r0, [r0, #6]
	lsls	r0, r0, #27
	cmp	r0, #0
	bpl	.LBB0_36
	b	.LBB0_35
.LBB0_35:                               @   in Loop: Header=BB0_1 Depth=1
.Ltmp24:
	.loc	6 253 19 is_stmt 1              @ ../Drivers/STM32F4xx_HAL_Driver/Src/stm32f4xx_hal_gpio.c:253:19
	ldr	r1, [sp, #36]
	.loc	6 253 16 is_stmt 0              @ ../Drivers/STM32F4xx_HAL_Driver/Src/stm32f4xx_hal_gpio.c:253:16
	ldr	r0, [sp, #32]
	orrs	r0, r1
	str	r0, [sp, #32]
	.loc	6 254 9 is_stmt 1               @ ../Drivers/STM32F4xx_HAL_Driver/Src/stm32f4xx_hal_gpio.c:254:9
	b	.LBB0_36
.Ltmp25:
.LBB0_36:                               @   in Loop: Header=BB0_1 Depth=1
	.loc	6 255 79                        @ ../Drivers/STM32F4xx_HAL_Driver/Src/stm32f4xx_hal_gpio.c:255:79
	ldr	r0, [sp, #32]
	movw	r1, #15368
	movt	r1, #16385
	.loc	6 255 77 is_stmt 0              @ ../Drivers/STM32F4xx_HAL_Driver/Src/stm32f4xx_hal_gpio.c:255:77
	str	r0, [r1]
	movw	r0, #15372
	movt	r0, #16385
	.loc	6 257 79 is_stmt 1              @ ../Drivers/STM32F4xx_HAL_Driver/Src/stm32f4xx_hal_gpio.c:257:79
	ldr	r0, [r0]
	.loc	6 257 14 is_stmt 0              @ ../Drivers/STM32F4xx_HAL_Driver/Src/stm32f4xx_hal_gpio.c:257:14
	str	r0, [sp, #32]
	.loc	6 258 29 is_stmt 1              @ ../Drivers/STM32F4xx_HAL_Driver/Src/stm32f4xx_hal_gpio.c:258:29
	ldr	r1, [sp, #36]
	.loc	6 258 14 is_stmt 0              @ ../Drivers/STM32F4xx_HAL_Driver/Src/stm32f4xx_hal_gpio.c:258:14
	ldr	r0, [sp, #32]
	bics	r0, r1
	str	r0, [sp, #32]
.Ltmp26:
	.loc	6 259 13 is_stmt 1              @ ../Drivers/STM32F4xx_HAL_Driver/Src/stm32f4xx_hal_gpio.c:259:13
	ldr	r0, [sp, #48]
.Ltmp27:
	.loc	6 259 12 is_stmt 0              @ ../Drivers/STM32F4xx_HAL_Driver/Src/stm32f4xx_hal_gpio.c:259:12
	ldrb	r0, [r0, #6]
	lsls	r0, r0, #26
	cmp	r0, #0
	bpl	.LBB0_38
	b	.LBB0_37
.LBB0_37:                               @   in Loop: Header=BB0_1 Depth=1
.Ltmp28:
	.loc	6 261 19 is_stmt 1              @ ../Drivers/STM32F4xx_HAL_Driver/Src/stm32f4xx_hal_gpio.c:261:19
	ldr	r1, [sp, #36]
	.loc	6 261 16 is_stmt 0              @ ../Drivers/STM32F4xx_HAL_Driver/Src/stm32f4xx_hal_gpio.c:261:16
	ldr	r0, [sp, #32]
	orrs	r0, r1
	str	r0, [sp, #32]
	.loc	6 262 9 is_stmt 1               @ ../Drivers/STM32F4xx_HAL_Driver/Src/stm32f4xx_hal_gpio.c:262:9
	b	.LBB0_38
.Ltmp29:
.LBB0_38:                               @   in Loop: Header=BB0_1 Depth=1
	.loc	6 263 79                        @ ../Drivers/STM32F4xx_HAL_Driver/Src/stm32f4xx_hal_gpio.c:263:79
	ldr	r0, [sp, #32]
	movw	r1, #15372
	movt	r1, #16385
	.loc	6 263 77 is_stmt 0              @ ../Drivers/STM32F4xx_HAL_Driver/Src/stm32f4xx_hal_gpio.c:263:77
	str	r0, [r1]
	movw	r0, #15364
	movt	r0, #16385
	.loc	6 265 79 is_stmt 1              @ ../Drivers/STM32F4xx_HAL_Driver/Src/stm32f4xx_hal_gpio.c:265:79
	ldr	r0, [r0]
	.loc	6 265 14 is_stmt 0              @ ../Drivers/STM32F4xx_HAL_Driver/Src/stm32f4xx_hal_gpio.c:265:14
	str	r0, [sp, #32]
	.loc	6 266 29 is_stmt 1              @ ../Drivers/STM32F4xx_HAL_Driver/Src/stm32f4xx_hal_gpio.c:266:29
	ldr	r1, [sp, #36]
	.loc	6 266 14 is_stmt 0              @ ../Drivers/STM32F4xx_HAL_Driver/Src/stm32f4xx_hal_gpio.c:266:14
	ldr	r0, [sp, #32]
	bics	r0, r1
	str	r0, [sp, #32]
.Ltmp30:
	.loc	6 267 13 is_stmt 1              @ ../Drivers/STM32F4xx_HAL_Driver/Src/stm32f4xx_hal_gpio.c:267:13
	ldr	r0, [sp, #48]
.Ltmp31:
	.loc	6 267 12 is_stmt 0              @ ../Drivers/STM32F4xx_HAL_Driver/Src/stm32f4xx_hal_gpio.c:267:12
	ldrb	r0, [r0, #6]
	lsls	r0, r0, #30
	cmp	r0, #0
	bpl	.LBB0_40
	b	.LBB0_39
.LBB0_39:                               @   in Loop: Header=BB0_1 Depth=1
.Ltmp32:
	.loc	6 269 19 is_stmt 1              @ ../Drivers/STM32F4xx_HAL_Driver/Src/stm32f4xx_hal_gpio.c:269:19
	ldr	r1, [sp, #36]
	.loc	6 269 16 is_stmt 0              @ ../Drivers/STM32F4xx_HAL_Driver/Src/stm32f4xx_hal_gpio.c:269:16
	ldr	r0, [sp, #32]
	orrs	r0, r1
	str	r0, [sp, #32]
	.loc	6 270 9 is_stmt 1               @ ../Drivers/STM32F4xx_HAL_Driver/Src/stm32f4xx_hal_gpio.c:270:9
	b	.LBB0_40
.Ltmp33:
.LBB0_40:                               @   in Loop: Header=BB0_1 Depth=1
	.loc	6 271 78                        @ ../Drivers/STM32F4xx_HAL_Driver/Src/stm32f4xx_hal_gpio.c:271:78
	ldr	r0, [sp, #32]
	movw	r1, #15364
	movt	r1, #16385
	.loc	6 271 76 is_stmt 0              @ ../Drivers/STM32F4xx_HAL_Driver/Src/stm32f4xx_hal_gpio.c:271:76
	str	r0, [r1]
	movw	r0, #15360
	movt	r0, #16385
	.loc	6 274 79 is_stmt 1              @ ../Drivers/STM32F4xx_HAL_Driver/Src/stm32f4xx_hal_gpio.c:274:79
	ldr	r0, [r0]
	.loc	6 274 14 is_stmt 0              @ ../Drivers/STM32F4xx_HAL_Driver/Src/stm32f4xx_hal_gpio.c:274:14
	str	r0, [sp, #32]
	.loc	6 275 29 is_stmt 1              @ ../Drivers/STM32F4xx_HAL_Driver/Src/stm32f4xx_hal_gpio.c:275:29
	ldr	r1, [sp, #36]
	.loc	6 275 14 is_stmt 0              @ ../Drivers/STM32F4xx_HAL_Driver/Src/stm32f4xx_hal_gpio.c:275:14
	ldr	r0, [sp, #32]
	bics	r0, r1
	str	r0, [sp, #32]
.Ltmp34:
	.loc	6 276 13 is_stmt 1              @ ../Drivers/STM32F4xx_HAL_Driver/Src/stm32f4xx_hal_gpio.c:276:13
	ldr	r0, [sp, #48]
.Ltmp35:
	.loc	6 276 12 is_stmt 0              @ ../Drivers/STM32F4xx_HAL_Driver/Src/stm32f4xx_hal_gpio.c:276:12
	ldrb	r0, [r0, #6]
	lsls	r0, r0, #31
	cbz	r0, .LBB0_42
	b	.LBB0_41
.LBB0_41:                               @   in Loop: Header=BB0_1 Depth=1
.Ltmp36:
	.loc	6 278 19 is_stmt 1              @ ../Drivers/STM32F4xx_HAL_Driver/Src/stm32f4xx_hal_gpio.c:278:19
	ldr	r1, [sp, #36]
	.loc	6 278 16 is_stmt 0              @ ../Drivers/STM32F4xx_HAL_Driver/Src/stm32f4xx_hal_gpio.c:278:16
	ldr	r0, [sp, #32]
	orrs	r0, r1
	str	r0, [sp, #32]
	.loc	6 279 9 is_stmt 1               @ ../Drivers/STM32F4xx_HAL_Driver/Src/stm32f4xx_hal_gpio.c:279:9
	b	.LBB0_42
.Ltmp37:
.LBB0_42:                               @   in Loop: Header=BB0_1 Depth=1
	.loc	6 280 78                        @ ../Drivers/STM32F4xx_HAL_Driver/Src/stm32f4xx_hal_gpio.c:280:78
	ldr	r0, [sp, #32]
	movw	r1, #15360
	movt	r1, #16385
	.loc	6 280 76 is_stmt 0              @ ../Drivers/STM32F4xx_HAL_Driver/Src/stm32f4xx_hal_gpio.c:280:76
	str	r0, [r1]
	.loc	6 281 7 is_stmt 1               @ ../Drivers/STM32F4xx_HAL_Driver/Src/stm32f4xx_hal_gpio.c:281:7
	b	.LBB0_43
.Ltmp38:
.LBB0_43:                               @   in Loop: Header=BB0_1 Depth=1
	.loc	6 282 5                         @ ../Drivers/STM32F4xx_HAL_Driver/Src/stm32f4xx_hal_gpio.c:282:5
	b	.LBB0_44
.Ltmp39:
.LBB0_44:                               @   in Loop: Header=BB0_1 Depth=1
	.loc	6 283 3                         @ ../Drivers/STM32F4xx_HAL_Driver/Src/stm32f4xx_hal_gpio.c:283:3
	b	.LBB0_45
.Ltmp40:
.LBB0_45:                               @   in Loop: Header=BB0_1 Depth=1
	.loc	6 177 46                        @ ../Drivers/STM32F4xx_HAL_Driver/Src/stm32f4xx_hal_gpio.c:177:46
	ldr	r0, [sp, #44]
	adds	r0, #1
	str	r0, [sp, #44]
	.loc	6 177 3 is_stmt 0               @ ../Drivers/STM32F4xx_HAL_Driver/Src/stm32f4xx_hal_gpio.c:177:3
	b	.LBB0_1
.Ltmp41:
.LBB0_46:
	.loc	6 284 1 is_stmt 1               @ ../Drivers/STM32F4xx_HAL_Driver/Src/stm32f4xx_hal_gpio.c:284:1
	add	sp, #56
	bx	lr
.Ltmp42:
.Lfunc_end0:
	.size	HAL_GPIO_Init, .Lfunc_end0-HAL_GPIO_Init
	.cfi_endproc
	.cantunwind
	.fnend
                                        @ -- End function
	.section	.text.HAL_GPIO_DeInit,"ax",%progbits
	.hidden	HAL_GPIO_DeInit                 @ -- Begin function HAL_GPIO_DeInit
	.globl	HAL_GPIO_DeInit
	.p2align	2
	.type	HAL_GPIO_DeInit,%function
	.code	16                              @ @HAL_GPIO_DeInit
	.thumb_func
HAL_GPIO_DeInit:
.Lfunc_begin1:
	.loc	6 295 0                         @ ../Drivers/STM32F4xx_HAL_Driver/Src/stm32f4xx_hal_gpio.c:295:0
	.fnstart
	.cfi_startproc
@ %bb.0:
	.pad	#56
	sub	sp, #56
	.cfi_def_cfa_offset 56
	str	r0, [sp, #52]
	str	r1, [sp, #48]
	movs	r0, #0
.Ltmp43:
	.loc	6 297 12 prologue_end           @ ../Drivers/STM32F4xx_HAL_Driver/Src/stm32f4xx_hal_gpio.c:297:12
	str	r0, [sp, #40]
	.loc	6 298 12                        @ ../Drivers/STM32F4xx_HAL_Driver/Src/stm32f4xx_hal_gpio.c:298:12
	str	r0, [sp, #36]
	.loc	6 299 12                        @ ../Drivers/STM32F4xx_HAL_Driver/Src/stm32f4xx_hal_gpio.c:299:12
	str	r0, [sp, #32]
.Ltmp44:
	.loc	6 305 16                        @ ../Drivers/STM32F4xx_HAL_Driver/Src/stm32f4xx_hal_gpio.c:305:16
	str	r0, [sp, #44]
	.loc	6 305 7 is_stmt 0               @ ../Drivers/STM32F4xx_HAL_Driver/Src/stm32f4xx_hal_gpio.c:305:7
	b	.LBB1_1
.LBB1_1:                                @ =>This Inner Loop Header: Depth=1
.Ltmp45:
	.loc	6 305 22                        @ ../Drivers/STM32F4xx_HAL_Driver/Src/stm32f4xx_hal_gpio.c:305:22
	ldr	r0, [sp, #44]
.Ltmp46:
	.loc	6 305 3                         @ ../Drivers/STM32F4xx_HAL_Driver/Src/stm32f4xx_hal_gpio.c:305:3
	cmp	r0, #15
	bhi.w	.LBB1_29
	b	.LBB1_2
.LBB1_2:                                @   in Loop: Header=BB1_1 Depth=1
.Ltmp47:
	.loc	6 308 27 is_stmt 1              @ ../Drivers/STM32F4xx_HAL_Driver/Src/stm32f4xx_hal_gpio.c:308:27
	ldr	r1, [sp, #44]
	movs	r0, #1
	.loc	6 308 24 is_stmt 0              @ ../Drivers/STM32F4xx_HAL_Driver/Src/stm32f4xx_hal_gpio.c:308:24
	lsls	r0, r1
	.loc	6 308 16                        @ ../Drivers/STM32F4xx_HAL_Driver/Src/stm32f4xx_hal_gpio.c:308:16
	str	r0, [sp, #40]
	.loc	6 310 18 is_stmt 1              @ ../Drivers/STM32F4xx_HAL_Driver/Src/stm32f4xx_hal_gpio.c:310:18
	ldr	r0, [sp, #48]
	.loc	6 310 30 is_stmt 0              @ ../Drivers/STM32F4xx_HAL_Driver/Src/stm32f4xx_hal_gpio.c:310:30
	ldr	r1, [sp, #40]
	.loc	6 310 28                        @ ../Drivers/STM32F4xx_HAL_Driver/Src/stm32f4xx_hal_gpio.c:310:28
	ands	r0, r1
	.loc	6 310 15                        @ ../Drivers/STM32F4xx_HAL_Driver/Src/stm32f4xx_hal_gpio.c:310:15
	str	r0, [sp, #36]
.Ltmp48:
	.loc	6 312 8 is_stmt 1               @ ../Drivers/STM32F4xx_HAL_Driver/Src/stm32f4xx_hal_gpio.c:312:8
	ldr	r0, [sp, #36]
	.loc	6 312 21 is_stmt 0              @ ../Drivers/STM32F4xx_HAL_Driver/Src/stm32f4xx_hal_gpio.c:312:21
	ldr	r1, [sp, #40]
.Ltmp49:
	.loc	6 312 8                         @ ../Drivers/STM32F4xx_HAL_Driver/Src/stm32f4xx_hal_gpio.c:312:8
	cmp	r0, r1
	bne.w	.LBB1_27
	b	.LBB1_3
.LBB1_3:                                @   in Loop: Header=BB1_1 Depth=1
.Ltmp50:
	.loc	6 315 85 is_stmt 1              @ ../Drivers/STM32F4xx_HAL_Driver/Src/stm32f4xx_hal_gpio.c:315:85
	ldr	r0, [sp, #44]
	.loc	6 315 94 is_stmt 0              @ ../Drivers/STM32F4xx_HAL_Driver/Src/stm32f4xx_hal_gpio.c:315:94
	bic	r0, r0, #3
	movw	r1, #14344
	movt	r1, #16385
	.loc	6 315 13                        @ ../Drivers/STM32F4xx_HAL_Driver/Src/stm32f4xx_hal_gpio.c:315:13
	ldr	r0, [r0, r1]
	.loc	6 315 11                        @ ../Drivers/STM32F4xx_HAL_Driver/Src/stm32f4xx_hal_gpio.c:315:11
	str	r0, [sp, #32]
	.loc	6 316 31 is_stmt 1              @ ../Drivers/STM32F4xx_HAL_Driver/Src/stm32f4xx_hal_gpio.c:316:31
	ldr	r0, [sp, #44]
	.loc	6 316 40 is_stmt 0              @ ../Drivers/STM32F4xx_HAL_Driver/Src/stm32f4xx_hal_gpio.c:316:40
	and	r0, r0, #3
	.loc	6 316 28                        @ ../Drivers/STM32F4xx_HAL_Driver/Src/stm32f4xx_hal_gpio.c:316:28
	lsls	r1, r0, #2
	movs	r0, #15
	.loc	6 316 21                        @ ../Drivers/STM32F4xx_HAL_Driver/Src/stm32f4xx_hal_gpio.c:316:21
	lsl.w	r1, r0, r1
	.loc	6 316 11                        @ ../Drivers/STM32F4xx_HAL_Driver/Src/stm32f4xx_hal_gpio.c:316:11
	ldr	r0, [sp, #32]
	ands	r0, r1
	str	r0, [sp, #32]
.Ltmp51:
	.loc	6 317 10 is_stmt 1              @ ../Drivers/STM32F4xx_HAL_Driver/Src/stm32f4xx_hal_gpio.c:317:10
	ldr	r0, [sp, #32]
	.loc	6 317 41 is_stmt 0              @ ../Drivers/STM32F4xx_HAL_Driver/Src/stm32f4xx_hal_gpio.c:317:41
	str	r0, [sp, #28]                   @ 4-byte Spill
	ldr	r0, [sp, #52]
	movs	r1, #0
	movt	r1, #16386
	.loc	6 317 39                        @ ../Drivers/STM32F4xx_HAL_Driver/Src/stm32f4xx_hal_gpio.c:317:39
	cmp	r0, r1
	bne	.LBB1_5
	b	.LBB1_4
.LBB1_4:                                @   in Loop: Header=BB1_1 Depth=1
	.loc	6 0 39                          @ ../Drivers/STM32F4xx_HAL_Driver/Src/stm32f4xx_hal_gpio.c:0:39
	movs	r0, #0
	.loc	6 317 39                        @ ../Drivers/STM32F4xx_HAL_Driver/Src/stm32f4xx_hal_gpio.c:317:39
	str	r0, [sp, #24]                   @ 4-byte Spill
	b	.LBB1_24
.LBB1_5:                                @   in Loop: Header=BB1_1 Depth=1
	.loc	6 317 124                       @ ../Drivers/STM32F4xx_HAL_Driver/Src/stm32f4xx_hal_gpio.c:317:124
	ldr	r0, [sp, #52]
	movw	r1, #1024
	movt	r1, #16386
	.loc	6 317 122                       @ ../Drivers/STM32F4xx_HAL_Driver/Src/stm32f4xx_hal_gpio.c:317:122
	cmp	r0, r1
	bne	.LBB1_7
	b	.LBB1_6
.LBB1_6:                                @   in Loop: Header=BB1_1 Depth=1
	.loc	6 0 122                         @ ../Drivers/STM32F4xx_HAL_Driver/Src/stm32f4xx_hal_gpio.c:0:122
	movs	r0, #1
	.loc	6 317 122                       @ ../Drivers/STM32F4xx_HAL_Driver/Src/stm32f4xx_hal_gpio.c:317:122
	str	r0, [sp, #20]                   @ 4-byte Spill
	b	.LBB1_23
.LBB1_7:                                @   in Loop: Header=BB1_1 Depth=1
	.loc	6 317 207                       @ ../Drivers/STM32F4xx_HAL_Driver/Src/stm32f4xx_hal_gpio.c:317:207
	ldr	r0, [sp, #52]
	movw	r1, #2048
	movt	r1, #16386
	.loc	6 317 205                       @ ../Drivers/STM32F4xx_HAL_Driver/Src/stm32f4xx_hal_gpio.c:317:205
	cmp	r0, r1
	bne	.LBB1_9
	b	.LBB1_8
.LBB1_8:                                @   in Loop: Header=BB1_1 Depth=1
	.loc	6 0 205                         @ ../Drivers/STM32F4xx_HAL_Driver/Src/stm32f4xx_hal_gpio.c:0:205
	movs	r0, #2
	.loc	6 317 205                       @ ../Drivers/STM32F4xx_HAL_Driver/Src/stm32f4xx_hal_gpio.c:317:205
	str	r0, [sp, #16]                   @ 4-byte Spill
	b	.LBB1_22
.LBB1_9:                                @   in Loop: Header=BB1_1 Depth=1
	.loc	6 317 290                       @ ../Drivers/STM32F4xx_HAL_Driver/Src/stm32f4xx_hal_gpio.c:317:290
	ldr	r0, [sp, #52]
	movw	r1, #3072
	movt	r1, #16386
	.loc	6 317 288                       @ ../Drivers/STM32F4xx_HAL_Driver/Src/stm32f4xx_hal_gpio.c:317:288
	cmp	r0, r1
	bne	.LBB1_11
	b	.LBB1_10
.LBB1_10:                               @   in Loop: Header=BB1_1 Depth=1
	.loc	6 0 288                         @ ../Drivers/STM32F4xx_HAL_Driver/Src/stm32f4xx_hal_gpio.c:0:288
	movs	r0, #3
	.loc	6 317 288                       @ ../Drivers/STM32F4xx_HAL_Driver/Src/stm32f4xx_hal_gpio.c:317:288
	str	r0, [sp, #12]                   @ 4-byte Spill
	b	.LBB1_21
.LBB1_11:                               @   in Loop: Header=BB1_1 Depth=1
	.loc	6 317 373                       @ ../Drivers/STM32F4xx_HAL_Driver/Src/stm32f4xx_hal_gpio.c:317:373
	ldr	r0, [sp, #52]
	movw	r1, #4096
	movt	r1, #16386
	.loc	6 317 371                       @ ../Drivers/STM32F4xx_HAL_Driver/Src/stm32f4xx_hal_gpio.c:317:371
	cmp	r0, r1
	bne	.LBB1_13
	b	.LBB1_12
.LBB1_12:                               @   in Loop: Header=BB1_1 Depth=1
	.loc	6 0 371                         @ ../Drivers/STM32F4xx_HAL_Driver/Src/stm32f4xx_hal_gpio.c:0:371
	movs	r0, #4
	.loc	6 317 371                       @ ../Drivers/STM32F4xx_HAL_Driver/Src/stm32f4xx_hal_gpio.c:317:371
	str	r0, [sp, #8]                    @ 4-byte Spill
	b	.LBB1_20
.LBB1_13:                               @   in Loop: Header=BB1_1 Depth=1
	.loc	6 317 456                       @ ../Drivers/STM32F4xx_HAL_Driver/Src/stm32f4xx_hal_gpio.c:317:456
	ldr	r0, [sp, #52]
	movw	r1, #5120
	movt	r1, #16386
	.loc	6 317 454                       @ ../Drivers/STM32F4xx_HAL_Driver/Src/stm32f4xx_hal_gpio.c:317:454
	cmp	r0, r1
	bne	.LBB1_15
	b	.LBB1_14
.LBB1_14:                               @   in Loop: Header=BB1_1 Depth=1
	.loc	6 0 454                         @ ../Drivers/STM32F4xx_HAL_Driver/Src/stm32f4xx_hal_gpio.c:0:454
	movs	r0, #5
	.loc	6 317 454                       @ ../Drivers/STM32F4xx_HAL_Driver/Src/stm32f4xx_hal_gpio.c:317:454
	str	r0, [sp, #4]                    @ 4-byte Spill
	b	.LBB1_19
.LBB1_15:                               @   in Loop: Header=BB1_1 Depth=1
	.loc	6 317 539                       @ ../Drivers/STM32F4xx_HAL_Driver/Src/stm32f4xx_hal_gpio.c:317:539
	ldr	r0, [sp, #52]
	movw	r1, #6144
	movt	r1, #16386
	.loc	6 317 537                       @ ../Drivers/STM32F4xx_HAL_Driver/Src/stm32f4xx_hal_gpio.c:317:537
	cmp	r0, r1
	bne	.LBB1_17
	b	.LBB1_16
.LBB1_16:                               @   in Loop: Header=BB1_1 Depth=1
	.loc	6 0 537                         @ ../Drivers/STM32F4xx_HAL_Driver/Src/stm32f4xx_hal_gpio.c:0:537
	movs	r0, #6
	.loc	6 317 537                       @ ../Drivers/STM32F4xx_HAL_Driver/Src/stm32f4xx_hal_gpio.c:317:537
	str	r0, [sp]                        @ 4-byte Spill
	b	.LBB1_18
.LBB1_17:                               @   in Loop: Header=BB1_1 Depth=1
	.loc	6 317 622                       @ ../Drivers/STM32F4xx_HAL_Driver/Src/stm32f4xx_hal_gpio.c:317:622
	ldr	r1, [sp, #52]
	movw	r2, #7168
	movt	r2, #16386
	movs	r0, #8
	.loc	6 317 620                       @ ../Drivers/STM32F4xx_HAL_Driver/Src/stm32f4xx_hal_gpio.c:317:620
	cmp	r1, r2
	it	eq
	moveq	r0, #7
	.loc	6 317 537                       @ ../Drivers/STM32F4xx_HAL_Driver/Src/stm32f4xx_hal_gpio.c:317:537
	str	r0, [sp]                        @ 4-byte Spill
	b	.LBB1_18
.LBB1_18:                               @   in Loop: Header=BB1_1 Depth=1
	ldr	r0, [sp]                        @ 4-byte Reload
	.loc	6 317 454                       @ ../Drivers/STM32F4xx_HAL_Driver/Src/stm32f4xx_hal_gpio.c:317:454
	str	r0, [sp, #4]                    @ 4-byte Spill
	b	.LBB1_19
.LBB1_19:                               @   in Loop: Header=BB1_1 Depth=1
	ldr	r0, [sp, #4]                    @ 4-byte Reload
	.loc	6 317 371                       @ ../Drivers/STM32F4xx_HAL_Driver/Src/stm32f4xx_hal_gpio.c:317:371
	str	r0, [sp, #8]                    @ 4-byte Spill
	b	.LBB1_20
.LBB1_20:                               @   in Loop: Header=BB1_1 Depth=1
	ldr	r0, [sp, #8]                    @ 4-byte Reload
	.loc	6 317 288                       @ ../Drivers/STM32F4xx_HAL_Driver/Src/stm32f4xx_hal_gpio.c:317:288
	str	r0, [sp, #12]                   @ 4-byte Spill
	b	.LBB1_21
.LBB1_21:                               @   in Loop: Header=BB1_1 Depth=1
	ldr	r0, [sp, #12]                   @ 4-byte Reload
	.loc	6 317 205                       @ ../Drivers/STM32F4xx_HAL_Driver/Src/stm32f4xx_hal_gpio.c:317:205
	str	r0, [sp, #16]                   @ 4-byte Spill
	b	.LBB1_22
.LBB1_22:                               @   in Loop: Header=BB1_1 Depth=1
	ldr	r0, [sp, #16]                   @ 4-byte Reload
	.loc	6 317 122                       @ ../Drivers/STM32F4xx_HAL_Driver/Src/stm32f4xx_hal_gpio.c:317:122
	str	r0, [sp, #20]                   @ 4-byte Spill
	b	.LBB1_23
.LBB1_23:                               @   in Loop: Header=BB1_1 Depth=1
	ldr	r0, [sp, #20]                   @ 4-byte Reload
	.loc	6 317 39                        @ ../Drivers/STM32F4xx_HAL_Driver/Src/stm32f4xx_hal_gpio.c:317:39
	str	r0, [sp, #24]                   @ 4-byte Spill
	b	.LBB1_24
.LBB1_24:                               @   in Loop: Header=BB1_1 Depth=1
	ldr	r0, [sp, #28]                   @ 4-byte Reload
	ldr	r1, [sp, #24]                   @ 4-byte Reload
	.loc	6 317 18                        @ ../Drivers/STM32F4xx_HAL_Driver/Src/stm32f4xx_hal_gpio.c:317:18
	uxtb	r1, r1
	.loc	6 317 718                       @ ../Drivers/STM32F4xx_HAL_Driver/Src/stm32f4xx_hal_gpio.c:317:718
	ldr	r2, [sp, #44]
	.loc	6 317 727                       @ ../Drivers/STM32F4xx_HAL_Driver/Src/stm32f4xx_hal_gpio.c:317:727
	and	r2, r2, #3
	.loc	6 317 715                       @ ../Drivers/STM32F4xx_HAL_Driver/Src/stm32f4xx_hal_gpio.c:317:715
	lsls	r2, r2, #2
	.loc	6 317 708                       @ ../Drivers/STM32F4xx_HAL_Driver/Src/stm32f4xx_hal_gpio.c:317:708
	lsls	r1, r2
.Ltmp52:
	.loc	6 317 10                        @ ../Drivers/STM32F4xx_HAL_Driver/Src/stm32f4xx_hal_gpio.c:317:10
	cmp	r0, r1
	bne	.LBB1_26
	b	.LBB1_25
.LBB1_25:                               @   in Loop: Header=BB1_1 Depth=1
.Ltmp53:
	.loc	6 320 91 is_stmt 1              @ ../Drivers/STM32F4xx_HAL_Driver/Src/stm32f4xx_hal_gpio.c:320:91
	ldr	r2, [sp, #36]
	movw	r1, #15360
	movt	r1, #16385
	.loc	6 320 76 is_stmt 0              @ ../Drivers/STM32F4xx_HAL_Driver/Src/stm32f4xx_hal_gpio.c:320:76
	ldr	r0, [r1]
	bics	r0, r2
	str	r0, [r1]
	.loc	6 321 91 is_stmt 1              @ ../Drivers/STM32F4xx_HAL_Driver/Src/stm32f4xx_hal_gpio.c:321:91
	ldr	r2, [sp, #36]
	movw	r1, #15364
	movt	r1, #16385
	.loc	6 321 76 is_stmt 0              @ ../Drivers/STM32F4xx_HAL_Driver/Src/stm32f4xx_hal_gpio.c:321:76
	ldr	r0, [r1]
	bics	r0, r2
	str	r0, [r1]
	.loc	6 324 92 is_stmt 1              @ ../Drivers/STM32F4xx_HAL_Driver/Src/stm32f4xx_hal_gpio.c:324:92
	ldr	r2, [sp, #36]
	movw	r1, #15372
	movt	r1, #16385
	.loc	6 324 77 is_stmt 0              @ ../Drivers/STM32F4xx_HAL_Driver/Src/stm32f4xx_hal_gpio.c:324:77
	ldr	r0, [r1]
	bics	r0, r2
	str	r0, [r1]
	.loc	6 325 92 is_stmt 1              @ ../Drivers/STM32F4xx_HAL_Driver/Src/stm32f4xx_hal_gpio.c:325:92
	ldr	r2, [sp, #36]
	movw	r1, #15368
	movt	r1, #16385
	.loc	6 325 77 is_stmt 0              @ ../Drivers/STM32F4xx_HAL_Driver/Src/stm32f4xx_hal_gpio.c:325:77
	ldr	r0, [r1]
	bics	r0, r2
	str	r0, [r1]
	.loc	6 328 31 is_stmt 1              @ ../Drivers/STM32F4xx_HAL_Driver/Src/stm32f4xx_hal_gpio.c:328:31
	ldr	r0, [sp, #44]
	.loc	6 328 40 is_stmt 0              @ ../Drivers/STM32F4xx_HAL_Driver/Src/stm32f4xx_hal_gpio.c:328:40
	and	r0, r0, #3
	.loc	6 328 28                        @ ../Drivers/STM32F4xx_HAL_Driver/Src/stm32f4xx_hal_gpio.c:328:28
	lsls	r1, r0, #2
	movs	r0, #15
	.loc	6 328 21                        @ ../Drivers/STM32F4xx_HAL_Driver/Src/stm32f4xx_hal_gpio.c:328:21
	lsls	r0, r1
	.loc	6 328 13                        @ ../Drivers/STM32F4xx_HAL_Driver/Src/stm32f4xx_hal_gpio.c:328:13
	str	r0, [sp, #32]
	.loc	6 329 101 is_stmt 1             @ ../Drivers/STM32F4xx_HAL_Driver/Src/stm32f4xx_hal_gpio.c:329:101
	ldr	r3, [sp, #32]
	.loc	6 329 81 is_stmt 0              @ ../Drivers/STM32F4xx_HAL_Driver/Src/stm32f4xx_hal_gpio.c:329:81
	ldr	r0, [sp, #44]
	.loc	6 329 90                        @ ../Drivers/STM32F4xx_HAL_Driver/Src/stm32f4xx_hal_gpio.c:329:90
	bic	r1, r0, #3
	movw	r2, #14344
	movt	r2, #16385
	.loc	6 329 97                        @ ../Drivers/STM32F4xx_HAL_Driver/Src/stm32f4xx_hal_gpio.c:329:97
	ldr	r0, [r1, r2]
	bics	r0, r3
	str	r0, [r1, r2]
	.loc	6 330 7 is_stmt 1               @ ../Drivers/STM32F4xx_HAL_Driver/Src/stm32f4xx_hal_gpio.c:330:7
	b	.LBB1_26
.Ltmp54:
.LBB1_26:                               @   in Loop: Header=BB1_1 Depth=1
	.loc	6 334 45                        @ ../Drivers/STM32F4xx_HAL_Driver/Src/stm32f4xx_hal_gpio.c:334:45
	ldr	r0, [sp, #44]
	.loc	6 334 54 is_stmt 0              @ ../Drivers/STM32F4xx_HAL_Driver/Src/stm32f4xx_hal_gpio.c:334:54
	lsls	r1, r0, #1
	movs	r0, #3
	.loc	6 334 41                        @ ../Drivers/STM32F4xx_HAL_Driver/Src/stm32f4xx_hal_gpio.c:334:41
	lsl.w	r3, r0, r1
	.loc	6 334 7                         @ ../Drivers/STM32F4xx_HAL_Driver/Src/stm32f4xx_hal_gpio.c:334:7
	ldr	r2, [sp, #52]
	.loc	6 334 20                        @ ../Drivers/STM32F4xx_HAL_Driver/Src/stm32f4xx_hal_gpio.c:334:20
	ldr	r1, [r2]
	bics	r1, r3
	str	r1, [r2]
	.loc	6 337 59 is_stmt 1              @ ../Drivers/STM32F4xx_HAL_Driver/Src/stm32f4xx_hal_gpio.c:337:59
	ldr.w	r12, [sp, #44]
	.loc	6 337 68 is_stmt 0              @ ../Drivers/STM32F4xx_HAL_Driver/Src/stm32f4xx_hal_gpio.c:337:68
	and	r1, r12, #7
	.loc	6 337 77                        @ ../Drivers/STM32F4xx_HAL_Driver/Src/stm32f4xx_hal_gpio.c:337:77
	lsls	r2, r1, #2
	movs	r1, #15
	.loc	6 337 44                        @ ../Drivers/STM32F4xx_HAL_Driver/Src/stm32f4xx_hal_gpio.c:337:44
	lsl.w	r3, r1, r2
	.loc	6 337 7                         @ ../Drivers/STM32F4xx_HAL_Driver/Src/stm32f4xx_hal_gpio.c:337:7
	ldr	r1, [sp, #52]
	mvn	r2, #3
	.loc	6 337 27                        @ ../Drivers/STM32F4xx_HAL_Driver/Src/stm32f4xx_hal_gpio.c:337:27
	and.w	r2, r2, r12, lsr #1
	.loc	6 337 14                        @ ../Drivers/STM32F4xx_HAL_Driver/Src/stm32f4xx_hal_gpio.c:337:14
	add	r2, r1
	.loc	6 337 34                        @ ../Drivers/STM32F4xx_HAL_Driver/Src/stm32f4xx_hal_gpio.c:337:34
	ldr	r1, [r2, #32]
	bics	r1, r3
	str	r1, [r2, #32]
	.loc	6 340 45 is_stmt 1              @ ../Drivers/STM32F4xx_HAL_Driver/Src/stm32f4xx_hal_gpio.c:340:45
	ldr	r1, [sp, #44]
	.loc	6 340 54 is_stmt 0              @ ../Drivers/STM32F4xx_HAL_Driver/Src/stm32f4xx_hal_gpio.c:340:54
	lsls	r1, r1, #1
	.loc	6 340 41                        @ ../Drivers/STM32F4xx_HAL_Driver/Src/stm32f4xx_hal_gpio.c:340:41
	lsl.w	r3, r0, r1
	.loc	6 340 7                         @ ../Drivers/STM32F4xx_HAL_Driver/Src/stm32f4xx_hal_gpio.c:340:7
	ldr	r2, [sp, #52]
	.loc	6 340 20                        @ ../Drivers/STM32F4xx_HAL_Driver/Src/stm32f4xx_hal_gpio.c:340:20
	ldr	r1, [r2, #12]
	bics	r1, r3
	str	r1, [r2, #12]
	.loc	6 343 45 is_stmt 1              @ ../Drivers/STM32F4xx_HAL_Driver/Src/stm32f4xx_hal_gpio.c:343:45
	ldr	r2, [sp, #44]
	movs	r1, #1
	.loc	6 343 42 is_stmt 0              @ ../Drivers/STM32F4xx_HAL_Driver/Src/stm32f4xx_hal_gpio.c:343:42
	lsl.w	r3, r1, r2
	.loc	6 343 7                         @ ../Drivers/STM32F4xx_HAL_Driver/Src/stm32f4xx_hal_gpio.c:343:7
	ldr	r2, [sp, #52]
	.loc	6 343 21                        @ ../Drivers/STM32F4xx_HAL_Driver/Src/stm32f4xx_hal_gpio.c:343:21
	ldr	r1, [r2, #4]
	bics	r1, r3
	str	r1, [r2, #4]
	.loc	6 346 47 is_stmt 1              @ ../Drivers/STM32F4xx_HAL_Driver/Src/stm32f4xx_hal_gpio.c:346:47
	ldr	r1, [sp, #44]
	.loc	6 346 56 is_stmt 0              @ ../Drivers/STM32F4xx_HAL_Driver/Src/stm32f4xx_hal_gpio.c:346:56
	lsls	r1, r1, #1
	.loc	6 346 43                        @ ../Drivers/STM32F4xx_HAL_Driver/Src/stm32f4xx_hal_gpio.c:346:43
	lsl.w	r2, r0, r1
	.loc	6 346 7                         @ ../Drivers/STM32F4xx_HAL_Driver/Src/stm32f4xx_hal_gpio.c:346:7
	ldr	r1, [sp, #52]
	.loc	6 346 22                        @ ../Drivers/STM32F4xx_HAL_Driver/Src/stm32f4xx_hal_gpio.c:346:22
	ldr	r0, [r1, #8]
	bics	r0, r2
	str	r0, [r1, #8]
	.loc	6 347 5 is_stmt 1               @ ../Drivers/STM32F4xx_HAL_Driver/Src/stm32f4xx_hal_gpio.c:347:5
	b	.LBB1_27
.Ltmp55:
.LBB1_27:                               @   in Loop: Header=BB1_1 Depth=1
	.loc	6 348 3                         @ ../Drivers/STM32F4xx_HAL_Driver/Src/stm32f4xx_hal_gpio.c:348:3
	b	.LBB1_28
.Ltmp56:
.LBB1_28:                               @   in Loop: Header=BB1_1 Depth=1
	.loc	6 305 46                        @ ../Drivers/STM32F4xx_HAL_Driver/Src/stm32f4xx_hal_gpio.c:305:46
	ldr	r0, [sp, #44]
	adds	r0, #1
	str	r0, [sp, #44]
	.loc	6 305 3 is_stmt 0               @ ../Drivers/STM32F4xx_HAL_Driver/Src/stm32f4xx_hal_gpio.c:305:3
	b	.LBB1_1
.Ltmp57:
.LBB1_29:
	.loc	6 349 1 is_stmt 1               @ ../Drivers/STM32F4xx_HAL_Driver/Src/stm32f4xx_hal_gpio.c:349:1
	add	sp, #56
	bx	lr
.Ltmp58:
.Lfunc_end1:
	.size	HAL_GPIO_DeInit, .Lfunc_end1-HAL_GPIO_DeInit
	.cfi_endproc
	.cantunwind
	.fnend
                                        @ -- End function
	.section	.text.HAL_GPIO_ReadPin,"ax",%progbits
	.hidden	HAL_GPIO_ReadPin                @ -- Begin function HAL_GPIO_ReadPin
	.globl	HAL_GPIO_ReadPin
	.p2align	2
	.type	HAL_GPIO_ReadPin,%function
	.code	16                              @ @HAL_GPIO_ReadPin
	.thumb_func
HAL_GPIO_ReadPin:
.Lfunc_begin2:
	.loc	6 376 0                         @ ../Drivers/STM32F4xx_HAL_Driver/Src/stm32f4xx_hal_gpio.c:376:0
	.fnstart
	.cfi_startproc
@ %bb.0:
	.pad	#8
	sub	sp, #8
	.cfi_def_cfa_offset 8
                                        @ kill: def $r2 killed $r1
	str	r0, [sp, #4]
	strh.w	r1, [sp, #2]
.Ltmp59:
	.loc	6 382 7 prologue_end            @ ../Drivers/STM32F4xx_HAL_Driver/Src/stm32f4xx_hal_gpio.c:382:7
	ldr	r0, [sp, #4]
	.loc	6 382 14 is_stmt 0              @ ../Drivers/STM32F4xx_HAL_Driver/Src/stm32f4xx_hal_gpio.c:382:14
	ldr	r0, [r0, #16]
	.loc	6 382 20                        @ ../Drivers/STM32F4xx_HAL_Driver/Src/stm32f4xx_hal_gpio.c:382:20
	ldrh.w	r1, [sp, #2]
.Ltmp60:
	.loc	6 382 6                         @ ../Drivers/STM32F4xx_HAL_Driver/Src/stm32f4xx_hal_gpio.c:382:6
	tst	r0, r1
	beq	.LBB2_2
	b	.LBB2_1
.LBB2_1:
	.loc	6 0 6                           @ ../Drivers/STM32F4xx_HAL_Driver/Src/stm32f4xx_hal_gpio.c:0:6
	movs	r0, #1
.Ltmp61:
	.loc	6 384 15 is_stmt 1              @ ../Drivers/STM32F4xx_HAL_Driver/Src/stm32f4xx_hal_gpio.c:384:15
	strb.w	r0, [sp, #1]
	.loc	6 385 3                         @ ../Drivers/STM32F4xx_HAL_Driver/Src/stm32f4xx_hal_gpio.c:385:3
	b	.LBB2_3
.Ltmp62:
.LBB2_2:
	.loc	6 0 3 is_stmt 0                 @ ../Drivers/STM32F4xx_HAL_Driver/Src/stm32f4xx_hal_gpio.c:0:3
	movs	r0, #0
.Ltmp63:
	.loc	6 388 15 is_stmt 1              @ ../Drivers/STM32F4xx_HAL_Driver/Src/stm32f4xx_hal_gpio.c:388:15
	strb.w	r0, [sp, #1]
	b	.LBB2_3
.Ltmp64:
.LBB2_3:
	.loc	6 390 10                        @ ../Drivers/STM32F4xx_HAL_Driver/Src/stm32f4xx_hal_gpio.c:390:10
	ldrb.w	r0, [sp, #1]
	.loc	6 390 3 is_stmt 0               @ ../Drivers/STM32F4xx_HAL_Driver/Src/stm32f4xx_hal_gpio.c:390:3
	add	sp, #8
	bx	lr
.Ltmp65:
.Lfunc_end2:
	.size	HAL_GPIO_ReadPin, .Lfunc_end2-HAL_GPIO_ReadPin
	.cfi_endproc
	.cantunwind
	.fnend
                                        @ -- End function
	.section	.text.HAL_GPIO_WritePin,"ax",%progbits
	.hidden	HAL_GPIO_WritePin               @ -- Begin function HAL_GPIO_WritePin
	.globl	HAL_GPIO_WritePin
	.p2align	2
	.type	HAL_GPIO_WritePin,%function
	.code	16                              @ @HAL_GPIO_WritePin
	.thumb_func
HAL_GPIO_WritePin:
.Lfunc_begin3:
	.loc	6 411 0 is_stmt 1               @ ../Drivers/STM32F4xx_HAL_Driver/Src/stm32f4xx_hal_gpio.c:411:0
	.fnstart
	.cfi_startproc
@ %bb.0:
	.pad	#8
	sub	sp, #8
	.cfi_def_cfa_offset 8
                                        @ kill: def $r3 killed $r2
                                        @ kill: def $r3 killed $r1
	str	r0, [sp, #4]
	strh.w	r1, [sp, #2]
	strb.w	r2, [sp, #1]
.Ltmp66:
	.loc	6 416 6 prologue_end            @ ../Drivers/STM32F4xx_HAL_Driver/Src/stm32f4xx_hal_gpio.c:416:6
	ldrb.w	r0, [sp, #1]
.Ltmp67:
	.loc	6 416 6 is_stmt 0               @ ../Drivers/STM32F4xx_HAL_Driver/Src/stm32f4xx_hal_gpio.c:416:6
	cbz	r0, .LBB3_2
	b	.LBB3_1
.LBB3_1:
.Ltmp68:
	.loc	6 418 19 is_stmt 1              @ ../Drivers/STM32F4xx_HAL_Driver/Src/stm32f4xx_hal_gpio.c:418:19
	ldrh.w	r0, [sp, #2]
	.loc	6 418 5 is_stmt 0               @ ../Drivers/STM32F4xx_HAL_Driver/Src/stm32f4xx_hal_gpio.c:418:5
	ldr	r1, [sp, #4]
	.loc	6 418 17                        @ ../Drivers/STM32F4xx_HAL_Driver/Src/stm32f4xx_hal_gpio.c:418:17
	str	r0, [r1, #24]
	.loc	6 419 3 is_stmt 1               @ ../Drivers/STM32F4xx_HAL_Driver/Src/stm32f4xx_hal_gpio.c:419:3
	b	.LBB3_3
.Ltmp69:
.LBB3_2:
	.loc	6 422 19                        @ ../Drivers/STM32F4xx_HAL_Driver/Src/stm32f4xx_hal_gpio.c:422:19
	ldrh.w	r0, [sp, #2]
	.loc	6 422 38 is_stmt 0              @ ../Drivers/STM32F4xx_HAL_Driver/Src/stm32f4xx_hal_gpio.c:422:38
	lsls	r0, r0, #16
	.loc	6 422 5                         @ ../Drivers/STM32F4xx_HAL_Driver/Src/stm32f4xx_hal_gpio.c:422:5
	ldr	r1, [sp, #4]
	.loc	6 422 17                        @ ../Drivers/STM32F4xx_HAL_Driver/Src/stm32f4xx_hal_gpio.c:422:17
	str	r0, [r1, #24]
	b	.LBB3_3
.Ltmp70:
.LBB3_3:
	.loc	6 424 1 is_stmt 1               @ ../Drivers/STM32F4xx_HAL_Driver/Src/stm32f4xx_hal_gpio.c:424:1
	add	sp, #8
	bx	lr
.Ltmp71:
.Lfunc_end3:
	.size	HAL_GPIO_WritePin, .Lfunc_end3-HAL_GPIO_WritePin
	.cfi_endproc
	.cantunwind
	.fnend
                                        @ -- End function
	.section	.text.HAL_GPIO_TogglePin,"ax",%progbits
	.hidden	HAL_GPIO_TogglePin              @ -- Begin function HAL_GPIO_TogglePin
	.globl	HAL_GPIO_TogglePin
	.p2align	2
	.type	HAL_GPIO_TogglePin,%function
	.code	16                              @ @HAL_GPIO_TogglePin
	.thumb_func
HAL_GPIO_TogglePin:
.Lfunc_begin4:
	.loc	6 434 0                         @ ../Drivers/STM32F4xx_HAL_Driver/Src/stm32f4xx_hal_gpio.c:434:0
	.fnstart
	.cfi_startproc
@ %bb.0:
	.pad	#12
	sub	sp, #12
	.cfi_def_cfa_offset 12
                                        @ kill: def $r2 killed $r1
	str	r0, [sp, #8]
	strh.w	r1, [sp, #6]
.Ltmp72:
	.loc	6 441 9 prologue_end            @ ../Drivers/STM32F4xx_HAL_Driver/Src/stm32f4xx_hal_gpio.c:441:9
	ldr	r0, [sp, #8]
	.loc	6 441 16 is_stmt 0              @ ../Drivers/STM32F4xx_HAL_Driver/Src/stm32f4xx_hal_gpio.c:441:16
	ldr	r0, [r0, #20]
	.loc	6 441 7                         @ ../Drivers/STM32F4xx_HAL_Driver/Src/stm32f4xx_hal_gpio.c:441:7
	str	r0, [sp]
	.loc	6 444 19 is_stmt 1              @ ../Drivers/STM32F4xx_HAL_Driver/Src/stm32f4xx_hal_gpio.c:444:19
	ldr	r2, [sp]
	.loc	6 444 25 is_stmt 0              @ ../Drivers/STM32F4xx_HAL_Driver/Src/stm32f4xx_hal_gpio.c:444:25
	ldrh.w	r0, [sp, #6]
	.loc	6 444 23                        @ ../Drivers/STM32F4xx_HAL_Driver/Src/stm32f4xx_hal_gpio.c:444:23
	and.w	r1, r2, r0
	.loc	6 444 51                        @ ../Drivers/STM32F4xx_HAL_Driver/Src/stm32f4xx_hal_gpio.c:444:51
	bics	r0, r2
	.loc	6 444 43                        @ ../Drivers/STM32F4xx_HAL_Driver/Src/stm32f4xx_hal_gpio.c:444:43
	orr.w	r0, r0, r1, lsl #16
	.loc	6 444 3                         @ ../Drivers/STM32F4xx_HAL_Driver/Src/stm32f4xx_hal_gpio.c:444:3
	ldr	r1, [sp, #8]
	.loc	6 444 15                        @ ../Drivers/STM32F4xx_HAL_Driver/Src/stm32f4xx_hal_gpio.c:444:15
	str	r0, [r1, #24]
	.loc	6 445 1 is_stmt 1               @ ../Drivers/STM32F4xx_HAL_Driver/Src/stm32f4xx_hal_gpio.c:445:1
	add	sp, #12
	bx	lr
.Ltmp73:
.Lfunc_end4:
	.size	HAL_GPIO_TogglePin, .Lfunc_end4-HAL_GPIO_TogglePin
	.cfi_endproc
	.cantunwind
	.fnend
                                        @ -- End function
	.section	.text.HAL_GPIO_LockPin,"ax",%progbits
	.hidden	HAL_GPIO_LockPin                @ -- Begin function HAL_GPIO_LockPin
	.globl	HAL_GPIO_LockPin
	.p2align	2
	.type	HAL_GPIO_LockPin,%function
	.code	16                              @ @HAL_GPIO_LockPin
	.thumb_func
HAL_GPIO_LockPin:
.Lfunc_begin5:
	.loc	6 459 0                         @ ../Drivers/STM32F4xx_HAL_Driver/Src/stm32f4xx_hal_gpio.c:459:0
	.fnstart
	.cfi_startproc
@ %bb.0:
	.pad	#16
	sub	sp, #16
	.cfi_def_cfa_offset 16
                                        @ kill: def $r2 killed $r1
	str	r0, [sp, #8]
	strh.w	r1, [sp, #6]
	mov.w	r0, #65536
.Ltmp74:
	.loc	6 460 21 prologue_end           @ ../Drivers/STM32F4xx_HAL_Driver/Src/stm32f4xx_hal_gpio.c:460:21
	str	r0, [sp]
	.loc	6 466 10                        @ ../Drivers/STM32F4xx_HAL_Driver/Src/stm32f4xx_hal_gpio.c:466:10
	ldrh.w	r1, [sp, #6]
	.loc	6 466 7 is_stmt 0               @ ../Drivers/STM32F4xx_HAL_Driver/Src/stm32f4xx_hal_gpio.c:466:7
	ldr	r0, [sp]
	orrs	r0, r1
	str	r0, [sp]
	.loc	6 468 17 is_stmt 1              @ ../Drivers/STM32F4xx_HAL_Driver/Src/stm32f4xx_hal_gpio.c:468:17
	ldr	r0, [sp]
	.loc	6 468 3 is_stmt 0               @ ../Drivers/STM32F4xx_HAL_Driver/Src/stm32f4xx_hal_gpio.c:468:3
	ldr	r1, [sp, #8]
	.loc	6 468 15                        @ ../Drivers/STM32F4xx_HAL_Driver/Src/stm32f4xx_hal_gpio.c:468:15
	str	r0, [r1, #28]
	.loc	6 470 17 is_stmt 1              @ ../Drivers/STM32F4xx_HAL_Driver/Src/stm32f4xx_hal_gpio.c:470:17
	ldrh.w	r0, [sp, #6]
	.loc	6 470 3 is_stmt 0               @ ../Drivers/STM32F4xx_HAL_Driver/Src/stm32f4xx_hal_gpio.c:470:3
	ldr	r1, [sp, #8]
	.loc	6 470 15                        @ ../Drivers/STM32F4xx_HAL_Driver/Src/stm32f4xx_hal_gpio.c:470:15
	str	r0, [r1, #28]
	.loc	6 472 17 is_stmt 1              @ ../Drivers/STM32F4xx_HAL_Driver/Src/stm32f4xx_hal_gpio.c:472:17
	ldr	r0, [sp]
	.loc	6 472 3 is_stmt 0               @ ../Drivers/STM32F4xx_HAL_Driver/Src/stm32f4xx_hal_gpio.c:472:3
	ldr	r1, [sp, #8]
	.loc	6 472 15                        @ ../Drivers/STM32F4xx_HAL_Driver/Src/stm32f4xx_hal_gpio.c:472:15
	str	r0, [r1, #28]
	.loc	6 474 9 is_stmt 1               @ ../Drivers/STM32F4xx_HAL_Driver/Src/stm32f4xx_hal_gpio.c:474:9
	ldr	r0, [sp, #8]
	.loc	6 474 16 is_stmt 0              @ ../Drivers/STM32F4xx_HAL_Driver/Src/stm32f4xx_hal_gpio.c:474:16
	ldr	r0, [r0, #28]
	.loc	6 474 7                         @ ../Drivers/STM32F4xx_HAL_Driver/Src/stm32f4xx_hal_gpio.c:474:7
	str	r0, [sp]
.Ltmp75:
	.loc	6 477 6 is_stmt 1               @ ../Drivers/STM32F4xx_HAL_Driver/Src/stm32f4xx_hal_gpio.c:477:6
	ldr	r0, [sp, #8]
	.loc	6 477 13 is_stmt 0              @ ../Drivers/STM32F4xx_HAL_Driver/Src/stm32f4xx_hal_gpio.c:477:13
	ldr	r0, [r0, #28]
.Ltmp76:
	.loc	6 477 5                         @ ../Drivers/STM32F4xx_HAL_Driver/Src/stm32f4xx_hal_gpio.c:477:5
	lsls	r0, r0, #15
	cmp	r0, #0
	bpl	.LBB5_2
	b	.LBB5_1
.LBB5_1:
	.loc	6 0 5                           @ ../Drivers/STM32F4xx_HAL_Driver/Src/stm32f4xx_hal_gpio.c:0:5
	movs	r0, #0
.Ltmp77:
	.loc	6 479 5 is_stmt 1               @ ../Drivers/STM32F4xx_HAL_Driver/Src/stm32f4xx_hal_gpio.c:479:5
	strb.w	r0, [sp, #15]
	b	.LBB5_3
.Ltmp78:
.LBB5_2:
	.loc	6 0 5 is_stmt 0                 @ ../Drivers/STM32F4xx_HAL_Driver/Src/stm32f4xx_hal_gpio.c:0:5
	movs	r0, #1
.Ltmp79:
	.loc	6 483 5 is_stmt 1               @ ../Drivers/STM32F4xx_HAL_Driver/Src/stm32f4xx_hal_gpio.c:483:5
	strb.w	r0, [sp, #15]
	b	.LBB5_3
.Ltmp80:
.LBB5_3:
	.loc	6 485 1                         @ ../Drivers/STM32F4xx_HAL_Driver/Src/stm32f4xx_hal_gpio.c:485:1
	ldrb.w	r0, [sp, #15]
	add	sp, #16
	bx	lr
.Ltmp81:
.Lfunc_end5:
	.size	HAL_GPIO_LockPin, .Lfunc_end5-HAL_GPIO_LockPin
	.cfi_endproc
	.cantunwind
	.fnend
                                        @ -- End function
	.section	.text.HAL_GPIO_EXTI_IRQHandler,"ax",%progbits
	.hidden	HAL_GPIO_EXTI_IRQHandler        @ -- Begin function HAL_GPIO_EXTI_IRQHandler
	.globl	HAL_GPIO_EXTI_IRQHandler
	.p2align	2
	.type	HAL_GPIO_EXTI_IRQHandler,%function
	.code	16                              @ @HAL_GPIO_EXTI_IRQHandler
	.thumb_func
HAL_GPIO_EXTI_IRQHandler:
.Lfunc_begin6:
	.loc	6 493 0                         @ ../Drivers/STM32F4xx_HAL_Driver/Src/stm32f4xx_hal_gpio.c:493:0
	.fnstart
	.cfi_startproc
@ %bb.0:
	.save	{r7, lr}
	push	{r7, lr}
	.cfi_def_cfa_offset 8
	.cfi_offset lr, -4
	.cfi_offset r7, -8
	.pad	#8
	sub	sp, #8
	.cfi_def_cfa_offset 16
                                        @ kill: def $r1 killed $r0
	strh.w	r0, [sp, #6]
	movw	r0, #15380
	movt	r0, #16385
.Ltmp82:
	.loc	6 495 70 prologue_end           @ ../Drivers/STM32F4xx_HAL_Driver/Src/stm32f4xx_hal_gpio.c:495:70
	ldr	r0, [r0]
	.loc	6 495 76 is_stmt 0              @ ../Drivers/STM32F4xx_HAL_Driver/Src/stm32f4xx_hal_gpio.c:495:76
	ldrh.w	r1, [sp, #6]
.Ltmp83:
	.loc	6 495 6                         @ ../Drivers/STM32F4xx_HAL_Driver/Src/stm32f4xx_hal_gpio.c:495:6
	tst	r0, r1
	beq	.LBB6_2
	b	.LBB6_1
.LBB6_1:
.Ltmp84:
	.loc	6 497 75 is_stmt 1              @ ../Drivers/STM32F4xx_HAL_Driver/Src/stm32f4xx_hal_gpio.c:497:75
	ldrh.w	r0, [sp, #6]
	movw	r1, #15380
	movt	r1, #16385
	.loc	6 497 72 is_stmt 0              @ ../Drivers/STM32F4xx_HAL_Driver/Src/stm32f4xx_hal_gpio.c:497:72
	str	r0, [r1]
	.loc	6 498 28 is_stmt 1              @ ../Drivers/STM32F4xx_HAL_Driver/Src/stm32f4xx_hal_gpio.c:498:28
	ldrh.w	r0, [sp, #6]
	.loc	6 498 5 is_stmt 0               @ ../Drivers/STM32F4xx_HAL_Driver/Src/stm32f4xx_hal_gpio.c:498:5
	bl	HAL_GPIO_EXTI_Callback
	.loc	6 499 3 is_stmt 1               @ ../Drivers/STM32F4xx_HAL_Driver/Src/stm32f4xx_hal_gpio.c:499:3
	b	.LBB6_2
.Ltmp85:
.LBB6_2:
	.loc	6 500 1                         @ ../Drivers/STM32F4xx_HAL_Driver/Src/stm32f4xx_hal_gpio.c:500:1
	add	sp, #8
	pop	{r7, pc}
.Ltmp86:
.Lfunc_end6:
	.size	HAL_GPIO_EXTI_IRQHandler, .Lfunc_end6-HAL_GPIO_EXTI_IRQHandler
	.cfi_endproc
	.cantunwind
	.fnend
                                        @ -- End function
	.section	.text.HAL_GPIO_EXTI_Callback,"ax",%progbits
	.hidden	HAL_GPIO_EXTI_Callback          @ -- Begin function HAL_GPIO_EXTI_Callback
	.weak	HAL_GPIO_EXTI_Callback
	.p2align	2
	.type	HAL_GPIO_EXTI_Callback,%function
	.code	16                              @ @HAL_GPIO_EXTI_Callback
	.thumb_func
HAL_GPIO_EXTI_Callback:
.Lfunc_begin7:
	.loc	6 508 0                         @ ../Drivers/STM32F4xx_HAL_Driver/Src/stm32f4xx_hal_gpio.c:508:0
	.fnstart
	.cfi_startproc
@ %bb.0:
	.pad	#4
	sub	sp, #4
	.cfi_def_cfa_offset 4
                                        @ kill: def $r1 killed $r0
	strh.w	r0, [sp, #2]
.Ltmp87:
	.loc	6 514 1 prologue_end            @ ../Drivers/STM32F4xx_HAL_Driver/Src/stm32f4xx_hal_gpio.c:514:1
	add	sp, #4
	bx	lr
.Ltmp88:
.Lfunc_end7:
	.size	HAL_GPIO_EXTI_Callback, .Lfunc_end7-HAL_GPIO_EXTI_Callback
	.cfi_endproc
	.cantunwind
	.fnend
                                        @ -- End function
	.section	".note.GNU-stack","",%progbits
	.eabi_attribute	30, 6	@ Tag_ABI_optimization_goals
	.ARM_attribute	16, 1	@ Tag_AV_eba