	.text
	.syntax unified
	.eabi_attribute	67, "2.09"	@ Tag_conformance
	.cpu	cortex-m4
	.eabi_attribute	6, 13	@ Tag_CPU_arch
	.eabi_attribute	7, 77	@ Tag_CPU_arch_profile
	.eabi_attribute	8, 0	@ Tag_ARM_ISA_use
	.eabi_attribute	9, 2	@ Tag_THUMB_ISA_use
	.fpu	fpv4-sp-d16
	.eabi_attribute	27, 1	@ Tag_ABI_HardFP_use
	.eabi_attribute	36, 1	@ Tag_FP_HP_extension
	.eabi_attribute	34, 1	@ Tag_CPU_unaligned_access
	.eabi_attribute	17, 1	@ Tag_ABI_PCS_GOT_use
	.eabi_attribute	20, 2	@ Tag_ABI_FP_denormal
	.eabi_attribute	21, 0	@ Tag_ABI_FP_exceptions
	.eabi_attribute	23, 1	@ Tag_ABI_FP_number_model
	.eabi_attribute	24, 1	@ Tag_ABI_align_needed
	.eabi_attribute	25, 1	@ Tag_ABI_align_preserved
	.eabi_attribute	28, 1	@ Tag_ABI_VFP_args
	.eabi_attribute	38, 1	@ Tag_ABI_FP_16bit_format
	.eabi_attribute	18, 2	@ Tag_ABI_PCS_wchar_t
	.eabi_attribute	26, 1	@ Tag_ABI_enum_size
	.eabi_attribute	14, 0	@ Tag_ABI_PCS_R9_use
	.file	"SupportFunctions.c"
	.file	1 "D:\\horizon\\Horizon_Infantry (2)\\MDK-ARM" "../Middlewares/CMSIS/DSP/Inc\\dsp/support_functions.h"
	.file	2 "D:\\horizon\\Horizon_Infantry (2)\\MDK-ARM" "../Middlewares/CMSIS/DSP/Inc\\arm_math_types.h"
	.file	3 "D:\\" "kevil\\ARM\\ARMCLANG\\Bin\\..\\include\\stdint.h"
	.section	.text.arm_barycenter_f32,"ax",%progbits
	.hidden	arm_barycenter_f32              @ -- Begin function arm_barycenter_f32
	.globl	arm_barycenter_f32
	.p2align	2
	.type	arm_barycenter_f32,%function
	.code	16                              @ @arm_barycenter_f32
	.thumb_func
arm_barycenter_f32:
.Lfunc_begin0:
	.file	4 "D:\\horizon\\Horizon_Infantry (2)\\MDK-ARM" "../Middlewares/CMSIS/DSP/Src/SupportFunctions/arm_barycenter_f32.c"
	.loc	4 354 0                         @ ../Middlewares/CMSIS/DSP/Src/SupportFunctions/arm_barycenter_f32.c:354:0
	.fnstart
	.cfi_sections .debug_frame
	.cfi_startproc
@ %bb.0:
	.pad	#44
	sub	sp, #44
	.cfi_def_cfa_offset 44
	ldr.w	r12, [sp, #44]
	str	r0, [sp, #40]
	str	r1, [sp, #36]
	str	r2, [sp, #32]
	str	r3, [sp, #28]
.Ltmp0:
	.loc	4 361 19 prologue_end           @ ../Middlewares/CMSIS/DSP/Src/SupportFunctions/arm_barycenter_f32.c:361:19
	ldr	r0, [sp, #28]
	.loc	4 361 17 is_stmt 0              @ ../Middlewares/CMSIS/DSP/Src/SupportFunctions/arm_barycenter_f32.c:361:17
	str	r0, [sp, #12]
	.loc	4 362 19 is_stmt 1              @ ../Middlewares/CMSIS/DSP/Src/SupportFunctions/arm_barycenter_f32.c:362:19
	ldr	r0, [sp, #44]
	.loc	4 362 17 is_stmt 0              @ ../Middlewares/CMSIS/DSP/Src/SupportFunctions/arm_barycenter_f32.c:362:17
	str	r0, [sp, #8]
	movs	r0, #0
	.loc	4 364 10 is_stmt 1              @ ../Middlewares/CMSIS/DSP/Src/SupportFunctions/arm_barycenter_f32.c:364:10
	str	r0, [sp, #4]
	.loc	4 366 9                         @ ../Middlewares/CMSIS/DSP/Src/SupportFunctions/arm_barycenter_f32.c:366:9
	ldr	r0, [sp, #36]
	.loc	4 366 7 is_stmt 0               @ ../Middlewares/CMSIS/DSP/Src/SupportFunctions/arm_barycenter_f32.c:366:7
	str	r0, [sp, #20]
	.loc	4 367 10 is_stmt 1              @ ../Middlewares/CMSIS/DSP/Src/SupportFunctions/arm_barycenter_f32.c:367:10
	ldr	r0, [sp, #40]
	.loc	4 367 8 is_stmt 0               @ ../Middlewares/CMSIS/DSP/Src/SupportFunctions/arm_barycenter_f32.c:367:8
	str	r0, [sp, #24]
	.loc	4 370 19 is_stmt 1              @ ../Middlewares/CMSIS/DSP/Src/SupportFunctions/arm_barycenter_f32.c:370:19
	ldr	r0, [sp, #44]
	.loc	4 370 17 is_stmt 0              @ ../Middlewares/CMSIS/DSP/Src/SupportFunctions/arm_barycenter_f32.c:370:17
	str	r0, [sp, #8]
	.loc	4 371 11 is_stmt 1              @ ../Middlewares/CMSIS/DSP/Src/SupportFunctions/arm_barycenter_f32.c:371:11
	ldr	r0, [sp, #32]
	.loc	4 371 9 is_stmt 0               @ ../Middlewares/CMSIS/DSP/Src/SupportFunctions/arm_barycenter_f32.c:371:9
	str	r0, [sp, #16]
	.loc	4 373 4 is_stmt 1               @ ../Middlewares/CMSIS/DSP/Src/SupportFunctions/arm_barycenter_f32.c:373:4
	b	.LBB0_1
.LBB0_1:                                @ =>This Inner Loop Header: Depth=1
	.loc	4 373 10 is_stmt 0              @ ../Middlewares/CMSIS/DSP/Src/SupportFunctions/arm_barycenter_f32.c:373:10
	ldr	r0, [sp, #8]
	.loc	4 373 4                         @ ../Middlewares/CMSIS/DSP/Src/SupportFunctions/arm_barycenter_f32.c:373:4
	cbz	r0, .LBB0_3
	b	.LBB0_2
.LBB0_2:                                @   in Loop: Header=BB0_1 Depth=1
.Ltmp1:
	.loc	4 375 11 is_stmt 1              @ ../Middlewares/CMSIS/DSP/Src/SupportFunctions/arm_barycenter_f32.c:375:11
	ldr	r1, [sp, #16]
	movs	r0, #0
	.loc	4 375 16 is_stmt 0              @ ../Middlewares/CMSIS/DSP/Src/SupportFunctions/arm_barycenter_f32.c:375:16
	str	r0, [r1]
	.loc	4 376 14 is_stmt 1              @ ../Middlewares/CMSIS/DSP/Src/SupportFunctions/arm_barycenter_f32.c:376:14
	ldr	r0, [sp, #16]
	adds	r0, #4
	str	r0, [sp, #16]
	.loc	4 377 22                        @ ../Middlewares/CMSIS/DSP/Src/SupportFunctions/arm_barycenter_f32.c:377:22
	ldr	r0, [sp, #8]
	subs	r0, #1
	str	r0, [sp, #8]
.Ltmp2:
	.loc	4 373 4                         @ ../Middlewares/CMSIS/DSP/Src/SupportFunctions/arm_barycenter_f32.c:373:4
	b	.LBB0_1
.LBB0_3:
	.loc	4 381 4                         @ ../Middlewares/CMSIS/DSP/Src/SupportFunctions/arm_barycenter_f32.c:381:4
	b	.LBB0_4
.LBB0_4:                                @ =>This Loop Header: Depth=1
                                        @     Child Loop BB0_6 Depth 2
	.loc	4 381 10 is_stmt 0              @ ../Middlewares/CMSIS/DSP/Src/SupportFunctions/arm_barycenter_f32.c:381:10
	ldr	r0, [sp, #12]
	.loc	4 381 4                         @ ../Middlewares/CMSIS/DSP/Src/SupportFunctions/arm_barycenter_f32.c:381:4
	cbz	r0, .LBB0_9
	b	.LBB0_5
.LBB0_5:                                @   in Loop: Header=BB0_4 Depth=1
.Ltmp3:
	.loc	4 383 14 is_stmt 1              @ ../Middlewares/CMSIS/DSP/Src/SupportFunctions/arm_barycenter_f32.c:383:14
	ldr	r0, [sp, #32]
	.loc	4 383 12 is_stmt 0              @ ../Middlewares/CMSIS/DSP/Src/SupportFunctions/arm_barycenter_f32.c:383:12
	str	r0, [sp, #16]
	.loc	4 384 14 is_stmt 1              @ ../Middlewares/CMSIS/DSP/Src/SupportFunctions/arm_barycenter_f32.c:384:14
	ldr	r0, [sp, #20]
	adds	r1, r0, #4
	str	r1, [sp, #20]
	.loc	4 384 11 is_stmt 0              @ ../Middlewares/CMSIS/DSP/Src/SupportFunctions/arm_barycenter_f32.c:384:11
	ldr	r0, [r0]
	.loc	4 384 9                         @ ../Middlewares/CMSIS/DSP/Src/SupportFunctions/arm_barycenter_f32.c:384:9
	str	r0, [sp]
	.loc	4 385 16 is_stmt 1              @ ../Middlewares/CMSIS/DSP/Src/SupportFunctions/arm_barycenter_f32.c:385:16
	vldr	s2, [sp]
	.loc	4 385 13 is_stmt 0              @ ../Middlewares/CMSIS/DSP/Src/SupportFunctions/arm_barycenter_f32.c:385:13
	vldr	s0, [sp, #4]
	vadd.f32	s0, s0, s2
	vstr	s0, [sp, #4]
	.loc	4 387 22 is_stmt 1              @ ../Middlewares/CMSIS/DSP/Src/SupportFunctions/arm_barycenter_f32.c:387:22
	ldr	r0, [sp, #44]
	.loc	4 387 20 is_stmt 0              @ ../Middlewares/CMSIS/DSP/Src/SupportFunctions/arm_barycenter_f32.c:387:20
	str	r0, [sp, #8]
	.loc	4 388 7 is_stmt 1               @ ../Middlewares/CMSIS/DSP/Src/SupportFunctions/arm_barycenter_f32.c:388:7
	b	.LBB0_6
.LBB0_6:                                @   Parent Loop BB0_4 Depth=1
                                        @ =>  This Inner Loop Header: Depth=2
	.loc	4 388 13 is_stmt 0              @ ../Middlewares/CMSIS/DSP/Src/SupportFunctions/arm_barycenter_f32.c:388:13
	ldr	r0, [sp, #8]
	.loc	4 388 7                         @ ../Middlewares/CMSIS/DSP/Src/SupportFunctions/arm_barycenter_f32.c:388:7
	cbz	r0, .LBB0_8
	b	.LBB0_7
.LBB0_7:                                @   in Loop: Header=BB0_6 Depth=2
.Ltmp4:
	.loc	4 390 20 is_stmt 1              @ ../Middlewares/CMSIS/DSP/Src/SupportFunctions/arm_barycenter_f32.c:390:20
	ldr	r0, [sp, #16]
	.loc	4 390 19 is_stmt 0              @ ../Middlewares/CMSIS/DSP/Src/SupportFunctions/arm_barycenter_f32.c:390:19
	vldr	s2, [r0]
	.loc	4 390 31                        @ ../Middlewares/CMSIS/DSP/Src/SupportFunctions/arm_barycenter_f32.c:390:31
	ldr	r0, [sp, #24]
	adds	r1, r0, #4
	str	r1, [sp, #24]
	.loc	4 390 27                        @ ../Middlewares/CMSIS/DSP/Src/SupportFunctions/arm_barycenter_f32.c:390:27
	vldr	s0, [r0]
	.loc	4 390 36                        @ ../Middlewares/CMSIS/DSP/Src/SupportFunctions/arm_barycenter_f32.c:390:36
	vldr	s4, [sp]
	.loc	4 390 25                        @ ../Middlewares/CMSIS/DSP/Src/SupportFunctions/arm_barycenter_f32.c:390:25
	vmul.f32	s0, s0, s4
	vadd.f32	s0, s0, s2
	.loc	4 390 12                        @ ../Middlewares/CMSIS/DSP/Src/SupportFunctions/arm_barycenter_f32.c:390:12
	ldr	r0, [sp, #16]
	.loc	4 390 17                        @ ../Middlewares/CMSIS/DSP/Src/SupportFunctions/arm_barycenter_f32.c:390:17
	vstr	s0, [r0]
	.loc	4 391 15 is_stmt 1              @ ../Middlewares/CMSIS/DSP/Src/SupportFunctions/arm_barycenter_f32.c:391:15
	ldr	r0, [sp, #16]
	adds	r0, #4
	str	r0, [sp, #16]
	.loc	4 392 23                        @ ../Middlewares/CMSIS/DSP/Src/SupportFunctions/arm_barycenter_f32.c:392:23
	ldr	r0, [sp, #8]
	subs	r0, #1
	str	r0, [sp, #8]
.Ltmp5:
	.loc	4 388 7                         @ ../Middlewares/CMSIS/DSP/Src/SupportFunctions/arm_barycenter_f32.c:388:7
	b	.LBB0_6
.LBB0_8:                                @   in Loop: Header=BB0_4 Depth=1
	.loc	4 395 19                        @ ../Middlewares/CMSIS/DSP/Src/SupportFunctions/arm_barycenter_f32.c:395:19
	ldr	r0, [sp, #12]
	subs	r0, #1
	str	r0, [sp, #12]
.Ltmp6:
	.loc	4 381 4                         @ ../Middlewares/CMSIS/DSP/Src/SupportFunctions/arm_barycenter_f32.c:381:4
	b	.LBB0_4
.LBB0_9:
	.loc	4 399 19                        @ ../Middlewares/CMSIS/DSP/Src/SupportFunctions/arm_barycenter_f32.c:399:19
	ldr	r0, [sp, #44]
	.loc	4 399 17 is_stmt 0              @ ../Middlewares/CMSIS/DSP/Src/SupportFunctions/arm_barycenter_f32.c:399:17
	str	r0, [sp, #8]
	.loc	4 400 11 is_stmt 1              @ ../Middlewares/CMSIS/DSP/Src/SupportFunctions/arm_barycenter_f32.c:400:11
	ldr	r0, [sp, #32]
	.loc	4 400 9 is_stmt 0               @ ../Middlewares/CMSIS/DSP/Src/SupportFunctions/arm_barycenter_f32.c:400:9
	str	r0, [sp, #16]
	.loc	4 402 4 is_stmt 1               @ ../Middlewares/CMSIS/DSP/Src/SupportFunctions/arm_barycenter_f32.c:402:4
	b	.LBB0_10
.LBB0_10:                               @ =>This Inner Loop Header: Depth=1
	.loc	4 402 10 is_stmt 0              @ ../Middlewares/CMSIS/DSP/Src/SupportFunctions/arm_barycenter_f32.c:402:10
	ldr	r0, [sp, #8]
	.loc	4 402 4                         @ ../Middlewares/CMSIS/DSP/Src/SupportFunctions/arm_barycenter_f32.c:402:4
	cbz	r0, .LBB0_12
	b	.LBB0_11
.LBB0_11:                               @   in Loop: Header=BB0_10 Depth=1
.Ltmp7:
	.loc	4 404 19 is_stmt 1              @ ../Middlewares/CMSIS/DSP/Src/SupportFunctions/arm_barycenter_f32.c:404:19
	ldr	r0, [sp, #16]
	.loc	4 404 18 is_stmt 0              @ ../Middlewares/CMSIS/DSP/Src/SupportFunctions/arm_barycenter_f32.c:404:18
	vldr	s0, [r0]
	.loc	4 404 26                        @ ../Middlewares/CMSIS/DSP/Src/SupportFunctions/arm_barycenter_f32.c:404:26
	vldr	s2, [sp, #4]
	.loc	4 404 24                        @ ../Middlewares/CMSIS/DSP/Src/SupportFunctions/arm_barycenter_f32.c:404:24
	vdiv.f32	s0, s0, s2
	.loc	4 404 16                        @ ../Middlewares/CMSIS/DSP/Src/SupportFunctions/arm_barycenter_f32.c:404:16
	vstr	s0, [r0]
	.loc	4 405 14 is_stmt 1              @ ../Middlewares/CMSIS/DSP/Src/SupportFunctions/arm_barycenter_f32.c:405:14
	ldr	r0, [sp, #16]
	adds	r0, #4
	str	r0, [sp, #16]
	.loc	4 406 22                        @ ../Middlewares/CMSIS/DSP/Src/SupportFunctions/arm_barycenter_f32.c:406:22
	ldr	r0, [sp, #8]
	subs	r0, #1
	str	r0, [sp, #8]
.Ltmp8:
	.loc	4 402 4                         @ ../Middlewares/CMSIS/DSP/Src/SupportFunctions/arm_barycenter_f32.c:402:4
	b	.LBB0_10
.LBB0_12:
	.loc	4 409 1                         @ ../Middlewares/CMSIS/DSP/Src/SupportFunctions/arm_barycenter_f32.c:409:1
	add	sp, #44
	bx	lr
.Ltmp9:
.Lfunc_end0:
	.size	arm_barycenter_f32, .Lfunc_end0-arm_barycenter_f32
	.cfi_endproc
	.cantunwind
	.fnend
                                        @ -- End function
	.section	.text.arm_bitonic_sort_f32,"ax",%progbits
	.hidden	arm_bitonic_sort_f32            @ -- Begin function arm_bitonic_sort_f32
	.globl	arm_bitonic_sort_f32
	.p2align	2
	.type	arm_bitonic_sort_f32,%function
	.code	16                              @ @arm_bitonic_sort_f32
	.thumb_func
arm_bitonic_sort_f32:
.Lfunc_begin1:
	.file	5 "D:\\horizon\\Horizon_Infantry (2)\\MDK-ARM" "../Middlewares/CMSIS/DSP/Src/SupportFunctions/arm_bitonic_sort_f32.c"
	.loc	5 917 0                         @ ../Middlewares/CMSIS/DSP/Src/SupportFunctions/arm_bitonic_sort_f32.c:917:0
	.fnstart
	.cfi_startproc
@ %bb.0:
	.save	{r7, lr}
	push	{r7, lr}
	.cfi_def_cfa_offset 8
	.cfi_offset lr, -4
	.cfi_offset r7, -8
	.pad	#32
	sub	sp, #32
	.cfi_def_cfa_offset 40
	str	r0, [sp, #28]
	str	r1, [sp, #24]
	str	r2, [sp, #20]
	str	r3, [sp, #16]
.Ltmp10:
	.loc	5 919 19 prologue_end           @ ../Middlewares/CMSIS/DSP/Src/SupportFunctions/arm_bitonic_sort_f32.c:919:19
	ldr	r0, [sp, #28]
	.loc	5 919 22 is_stmt 0              @ ../Middlewares/CMSIS/DSP/Src/SupportFunctions/arm_bitonic_sort_f32.c:919:22
	ldrb	r0, [r0, #1]
	.loc	5 919 13                        @ ../Middlewares/CMSIS/DSP/Src/SupportFunctions/arm_bitonic_sort_f32.c:919:13
	strb.w	r0, [sp, #11]
.Ltmp11:
	.loc	5 1017 8 is_stmt 1              @ ../Middlewares/CMSIS/DSP/Src/SupportFunctions/arm_bitonic_sort_f32.c:1017:8
	ldr	r0, [sp, #24]
	.loc	5 1017 16 is_stmt 0             @ ../Middlewares/CMSIS/DSP/Src/SupportFunctions/arm_bitonic_sort_f32.c:1017:16
	ldr	r1, [sp, #20]
.Ltmp12:
	.loc	5 1017 8                        @ ../Middlewares/CMSIS/DSP/Src/SupportFunctions/arm_bitonic_sort_f32.c:1017:8
	cmp	r0, r1
	beq	.LBB1_2
	b	.LBB1_1
.LBB1_1:
.Ltmp13:
	.loc	5 1019 16 is_stmt 1             @ ../Middlewares/CMSIS/DSP/Src/SupportFunctions/arm_bitonic_sort_f32.c:1019:16
	ldr	r0, [sp, #20]
	.loc	5 1019 22 is_stmt 0             @ ../Middlewares/CMSIS/DSP/Src/SupportFunctions/arm_bitonic_sort_f32.c:1019:22
	ldr	r1, [sp, #24]
	.loc	5 1019 28                       @ ../Middlewares/CMSIS/DSP/Src/SupportFunctions/arm_bitonic_sort_f32.c:1019:28
	ldr	r2, [sp, #16]
	.loc	5 1019 37                       @ ../Middlewares/CMSIS/DSP/Src/SupportFunctions/arm_bitonic_sort_f32.c:1019:37
	lsls	r2, r2, #2
	.loc	5 1019 9                        @ ../Middlewares/CMSIS/DSP/Src/SupportFunctions/arm_bitonic_sort_f32.c:1019:9
	bl	__aeabi_memcpy4
	.loc	5 1020 14 is_stmt 1             @ ../Middlewares/CMSIS/DSP/Src/SupportFunctions/arm_bitonic_sort_f32.c:1020:14
	ldr	r0, [sp, #20]
	.loc	5 1020 12 is_stmt 0             @ ../Middlewares/CMSIS/DSP/Src/SupportFunctions/arm_bitonic_sort_f32.c:1020:12
	str	r0, [sp, #4]
	.loc	5 1021 5 is_stmt 1              @ ../Middlewares/CMSIS/DSP/Src/SupportFunctions/arm_bitonic_sort_f32.c:1021:5
	b	.LBB1_3
.Ltmp14:
.LBB1_2:
	.loc	5 1023 14                       @ ../Middlewares/CMSIS/DSP/Src/SupportFunctions/arm_bitonic_sort_f32.c:1023:14
	ldr	r0, [sp, #24]
	.loc	5 1023 12 is_stmt 0             @ ../Middlewares/CMSIS/DSP/Src/SupportFunctions/arm_bitonic_sort_f32.c:1023:12
	str	r0, [sp, #4]
	b	.LBB1_3
.Ltmp15:
.LBB1_3:
	.loc	5 1026 10 is_stmt 1             @ ../Middlewares/CMSIS/DSP/Src/SupportFunctions/arm_bitonic_sort_f32.c:1026:10
	ldr	r0, [sp, #16]
	.loc	5 1026 32 is_stmt 0             @ ../Middlewares/CMSIS/DSP/Src/SupportFunctions/arm_bitonic_sort_f32.c:1026:32
	subs	r1, r0, #1
.Ltmp16:
	.loc	5 1026 9                        @ ../Middlewares/CMSIS/DSP/Src/SupportFunctions/arm_bitonic_sort_f32.c:1026:9
	tst	r0, r1
	bne	.LBB1_13
	b	.LBB1_4
.LBB1_4:
	.loc	5 0 9                           @ ../Middlewares/CMSIS/DSP/Src/SupportFunctions/arm_bitonic_sort_f32.c:0:9
	movs	r0, #2
.Ltmp17:
	.loc	5 1028 14 is_stmt 1             @ ../Middlewares/CMSIS/DSP/Src/SupportFunctions/arm_bitonic_sort_f32.c:1028:14
	strh.w	r0, [sp, #14]
	.loc	5 1028 13 is_stmt 0             @ ../Middlewares/CMSIS/DSP/Src/SupportFunctions/arm_bitonic_sort_f32.c:1028:13
	b	.LBB1_5
.LBB1_5:                                @ =>This Loop Header: Depth=1
                                        @     Child Loop BB1_7 Depth 2
.Ltmp18:
	.loc	5 1028 18                       @ ../Middlewares/CMSIS/DSP/Src/SupportFunctions/arm_bitonic_sort_f32.c:1028:18
	ldrh.w	r0, [sp, #14]
	.loc	5 1028 21                       @ ../Middlewares/CMSIS/DSP/Src/SupportFunctions/arm_bitonic_sort_f32.c:1028:21
	ldr	r1, [sp, #16]
.Ltmp19:
	.loc	5 1028 9                        @ ../Middlewares/CMSIS/DSP/Src/SupportFunctions/arm_bitonic_sort_f32.c:1028:9
	cmp	r0, r1
	bhi	.LBB1_12
	b	.LBB1_6
.LBB1_6:                                @   in Loop: Header=BB1_5 Depth=1
	.loc	5 0 9                           @ ../Middlewares/CMSIS/DSP/Src/SupportFunctions/arm_bitonic_sort_f32.c:0:9
	movs	r0, #0
.Ltmp20:
	.loc	5 1030 15 is_stmt 1             @ ../Middlewares/CMSIS/DSP/Src/SupportFunctions/arm_bitonic_sort_f32.c:1030:15
	strh.w	r0, [sp, #12]
	.loc	5 1030 14 is_stmt 0             @ ../Middlewares/CMSIS/DSP/Src/SupportFunctions/arm_bitonic_sort_f32.c:1030:14
	b	.LBB1_7
.LBB1_7:                                @   Parent Loop BB1_5 Depth=1
                                        @ =>  This Inner Loop Header: Depth=2
.Ltmp21:
	.loc	5 1030 19                       @ ../Middlewares/CMSIS/DSP/Src/SupportFunctions/arm_bitonic_sort_f32.c:1030:19
	ldrh.w	r0, [sp, #12]
	.loc	5 1030 21                       @ ../Middlewares/CMSIS/DSP/Src/SupportFunctions/arm_bitonic_sort_f32.c:1030:21
	ldr	r1, [sp, #16]
.Ltmp22:
	.loc	5 1030 10                       @ ../Middlewares/CMSIS/DSP/Src/SupportFunctions/arm_bitonic_sort_f32.c:1030:10
	cmp	r0, r1
	bhs	.LBB1_10
	b	.LBB1_8
.LBB1_8:                                @   in Loop: Header=BB1_7 Depth=2
.Ltmp23:
	.loc	5 1031 40 is_stmt 1             @ ../Middlewares/CMSIS/DSP/Src/SupportFunctions/arm_bitonic_sort_f32.c:1031:40
	ldr	r0, [sp, #4]
	.loc	5 1031 43 is_stmt 0             @ ../Middlewares/CMSIS/DSP/Src/SupportFunctions/arm_bitonic_sort_f32.c:1031:43
	ldrh.w	r1, [sp, #12]
	.loc	5 1031 42                       @ ../Middlewares/CMSIS/DSP/Src/SupportFunctions/arm_bitonic_sort_f32.c:1031:42
	add.w	r0, r0, r1, lsl #2
	.loc	5 1031 46                       @ ../Middlewares/CMSIS/DSP/Src/SupportFunctions/arm_bitonic_sort_f32.c:1031:46
	ldrh.w	r1, [sp, #14]
	.loc	5 1031 49                       @ ../Middlewares/CMSIS/DSP/Src/SupportFunctions/arm_bitonic_sort_f32.c:1031:49
	ldrb.w	r2, [sp, #11]
	.loc	5 1031 14                       @ ../Middlewares/CMSIS/DSP/Src/SupportFunctions/arm_bitonic_sort_f32.c:1031:14
	bl	arm_bitonic_sort_core_f32
	b	.LBB1_9
.LBB1_9:                                @   in Loop: Header=BB1_7 Depth=2
	.loc	5 1030 34 is_stmt 1             @ ../Middlewares/CMSIS/DSP/Src/SupportFunctions/arm_bitonic_sort_f32.c:1030:34
	ldrh.w	r0, [sp, #12]
	.loc	5 1030 36 is_stmt 0             @ ../Middlewares/CMSIS/DSP/Src/SupportFunctions/arm_bitonic_sort_f32.c:1030:36
	ldrh.w	r1, [sp, #14]
	.loc	5 1030 35                       @ ../Middlewares/CMSIS/DSP/Src/SupportFunctions/arm_bitonic_sort_f32.c:1030:35
	add	r0, r1
	.loc	5 1030 33                       @ ../Middlewares/CMSIS/DSP/Src/SupportFunctions/arm_bitonic_sort_f32.c:1030:33
	strh.w	r0, [sp, #12]
	.loc	5 1030 10                       @ ../Middlewares/CMSIS/DSP/Src/SupportFunctions/arm_bitonic_sort_f32.c:1030:10
	b	.LBB1_7
.Ltmp24:
.LBB1_10:                               @   in Loop: Header=BB1_5 Depth=1
	.loc	5 1032 9 is_stmt 1              @ ../Middlewares/CMSIS/DSP/Src/SupportFunctions/arm_bitonic_sort_f32.c:1032:9
	b	.LBB1_11
.Ltmp25:
.LBB1_11:                               @   in Loop: Header=BB1_5 Depth=1
	.loc	5 1028 34                       @ ../Middlewares/CMSIS/DSP/Src/SupportFunctions/arm_bitonic_sort_f32.c:1028:34
	ldrh.w	r0, [sp, #14]
	.loc	5 1028 35 is_stmt 0             @ ../Middlewares/CMSIS/DSP/Src/SupportFunctions/arm_bitonic_sort_f32.c:1028:35
	lsls	r0, r0, #1
	.loc	5 1028 33                       @ ../Middlewares/CMSIS/DSP/Src/SupportFunctions/arm_bitonic_sort_f32.c:1028:33
	strh.w	r0, [sp, #14]
	.loc	5 1028 9                        @ ../Middlewares/CMSIS/DSP/Src/SupportFunctions/arm_bitonic_sort_f32.c:1028:9
	b	.LBB1_5
.Ltmp26:
.LBB1_12:
	.loc	5 1033 5 is_stmt 1              @ ../Middlewares/CMSIS/DSP/Src/SupportFunctions/arm_bitonic_sort_f32.c:1033:5
	b	.LBB1_13
.Ltmp27:
.LBB1_13:
	.loc	5 1035 1                        @ ../Middlewares/CMSIS/DSP/Src/SupportFunctions/arm_bitonic_sort_f32.c:1035:1
	add	sp, #32
	pop	{r7, pc}
.Ltmp28:
.Lfunc_end1:
	.size	arm_bitonic_sort_f32, .Lfunc_end1-arm_bitonic_sort_f32
	.cfi_endproc
	.cantunwind
	.fnend
                                        @ -- End function
	.section	.text.arm_bitonic_sort_core_f32,"ax",%progbits
	.p2align	2                               @ -- Begin function arm_bitonic_sort_core_f32
	.type	arm_bitonic_sort_core_f32,%function
	.code	16                              @ @arm_bitonic_sort_core_f32
	.thumb_func
arm_bitonic_sort_core_f32:
.Lfunc_begin2:
	.loc	5 36 0                          @ ../Middlewares/CMSIS/DSP/Src/SupportFunctions/arm_bitonic_sort_f32.c:36:0
	.fnstart
	.cfi_startproc
@ %bb.0:
	.pad	#36
	sub	sp, #36
	.cfi_def_cfa_offset 36
                                        @ kill: def $r3 killed $r2
	str	r0, [sp, #32]
	str	r1, [sp, #28]
	strb.w	r2, [sp, #27]
.Ltmp29:
	.loc	5 42 12 prologue_end            @ ../Middlewares/CMSIS/DSP/Src/SupportFunctions/arm_bitonic_sort_f32.c:42:12
	ldr	r0, [sp, #28]
	.loc	5 42 13 is_stmt 0               @ ../Middlewares/CMSIS/DSP/Src/SupportFunctions/arm_bitonic_sort_f32.c:42:13
	lsrs	r0, r0, #1
	.loc	5 42 10                         @ ../Middlewares/CMSIS/DSP/Src/SupportFunctions/arm_bitonic_sort_f32.c:42:10
	str	r0, [sp, #20]
	.loc	5 43 15 is_stmt 1               @ ../Middlewares/CMSIS/DSP/Src/SupportFunctions/arm_bitonic_sort_f32.c:43:15
	ldr	r0, [sp, #32]
	.loc	5 43 13 is_stmt 0               @ ../Middlewares/CMSIS/DSP/Src/SupportFunctions/arm_bitonic_sort_f32.c:43:13
	str	r0, [sp, #8]
	.loc	5 44 16 is_stmt 1               @ ../Middlewares/CMSIS/DSP/Src/SupportFunctions/arm_bitonic_sort_f32.c:44:16
	ldr	r0, [sp, #32]
	.loc	5 44 21 is_stmt 0               @ ../Middlewares/CMSIS/DSP/Src/SupportFunctions/arm_bitonic_sort_f32.c:44:21
	ldr	r1, [sp, #28]
	.loc	5 44 20                         @ ../Middlewares/CMSIS/DSP/Src/SupportFunctions/arm_bitonic_sort_f32.c:44:20
	add.w	r0, r0, r1, lsl #2
	.loc	5 44 22                         @ ../Middlewares/CMSIS/DSP/Src/SupportFunctions/arm_bitonic_sort_f32.c:44:22
	subs	r0, #4
	.loc	5 44 14                         @ ../Middlewares/CMSIS/DSP/Src/SupportFunctions/arm_bitonic_sort_f32.c:44:14
	str	r0, [sp, #4]
	movs	r0, #0
.Ltmp30:
	.loc	5 46 10 is_stmt 1               @ ../Middlewares/CMSIS/DSP/Src/SupportFunctions/arm_bitonic_sort_f32.c:46:10
	str	r0, [sp, #16]
	.loc	5 46 9 is_stmt 0                @ ../Middlewares/CMSIS/DSP/Src/SupportFunctions/arm_bitonic_sort_f32.c:46:9
	b	.LBB2_1
.LBB2_1:                                @ =>This Inner Loop Header: Depth=1
.Ltmp31:
	.loc	5 46 14                         @ ../Middlewares/CMSIS/DSP/Src/SupportFunctions/arm_bitonic_sort_f32.c:46:14
	ldr	r0, [sp, #16]
	.loc	5 46 16                         @ ../Middlewares/CMSIS/DSP/Src/SupportFunctions/arm_bitonic_sort_f32.c:46:16
	ldr	r1, [sp, #20]
.Ltmp32:
	.loc	5 46 5                          @ ../Middlewares/CMSIS/DSP/Src/SupportFunctions/arm_bitonic_sort_f32.c:46:5
	cmp	r0, r1
	bhs	.LBB2_6
	b	.LBB2_2
.LBB2_2:                                @   in Loop: Header=BB2_1 Depth=1
.Ltmp33:
	.loc	5 48 5 is_stmt 1                @ ../Middlewares/CMSIS/DSP/Src/SupportFunctions/arm_bitonic_sort_f32.c:48:5
	ldrb.w	r0, [sp, #27]
	.loc	5 48 14 is_stmt 0               @ ../Middlewares/CMSIS/DSP/Src/SupportFunctions/arm_bitonic_sort_f32.c:48:14
	ldr	r1, [sp, #8]
	.loc	5 48 13                         @ ../Middlewares/CMSIS/DSP/Src/SupportFunctions/arm_bitonic_sort_f32.c:48:13
	vldr	s0, [r1]
	.loc	5 48 25                         @ ../Middlewares/CMSIS/DSP/Src/SupportFunctions/arm_bitonic_sort_f32.c:48:25
	ldr	r1, [sp, #4]
	.loc	5 48 24                         @ ../Middlewares/CMSIS/DSP/Src/SupportFunctions/arm_bitonic_sort_f32.c:48:24
	vldr	s2, [r1]
	movs	r1, #0
	.loc	5 48 22                         @ ../Middlewares/CMSIS/DSP/Src/SupportFunctions/arm_bitonic_sort_f32.c:48:22
	vcmp.f32	s0, s2
	vmrs	APSR_nzcv, fpscr
	it	gt
	movgt	r1, #1
.Ltmp34:
	.loc	5 48 5                          @ ../Middlewares/CMSIS/DSP/Src/SupportFunctions/arm_bitonic_sort_f32.c:48:5
	cmp	r0, r1
	bne	.LBB2_4
	b	.LBB2_3
.LBB2_3:                                @   in Loop: Header=BB2_1 Depth=1
.Ltmp35:
	.loc	5 51 12 is_stmt 1               @ ../Middlewares/CMSIS/DSP/Src/SupportFunctions/arm_bitonic_sort_f32.c:51:12
	ldr	r0, [sp, #8]
	.loc	5 51 11 is_stmt 0               @ ../Middlewares/CMSIS/DSP/Src/SupportFunctions/arm_bitonic_sort_f32.c:51:11
	ldr	r0, [r0]
	.loc	5 51 10                         @ ../Middlewares/CMSIS/DSP/Src/SupportFunctions/arm_bitonic_sort_f32.c:51:10
	str	r0, [sp]
	.loc	5 52 16 is_stmt 1               @ ../Middlewares/CMSIS/DSP/Src/SupportFunctions/arm_bitonic_sort_f32.c:52:16
	ldr	r0, [sp, #4]
	.loc	5 52 15 is_stmt 0               @ ../Middlewares/CMSIS/DSP/Src/SupportFunctions/arm_bitonic_sort_f32.c:52:15
	ldr	r0, [r0]
	.loc	5 52 7                          @ ../Middlewares/CMSIS/DSP/Src/SupportFunctions/arm_bitonic_sort_f32.c:52:7
	ldr	r1, [sp, #8]
	.loc	5 52 14                         @ ../Middlewares/CMSIS/DSP/Src/SupportFunctions/arm_bitonic_sort_f32.c:52:14
	str	r0, [r1]
	.loc	5 53 16 is_stmt 1               @ ../Middlewares/CMSIS/DSP/Src/SupportFunctions/arm_bitonic_sort_f32.c:53:16
	ldr	r0, [sp]
	.loc	5 53 7 is_stmt 0                @ ../Middlewares/CMSIS/DSP/Src/SupportFunctions/arm_bitonic_sort_f32.c:53:7
	ldr	r1, [sp, #4]
	.loc	5 53 15                         @ ../Middlewares/CMSIS/DSP/Src/SupportFunctions/arm_bitonic_sort_f32.c:53:15
	str	r0, [r1]
	.loc	5 54 2 is_stmt 1                @ ../Middlewares/CMSIS/DSP/Src/SupportFunctions/arm_bitonic_sort_f32.c:54:2
	b	.LBB2_4
.Ltmp36:
.LBB2_4:                                @   in Loop: Header=BB2_1 Depth=1
	.loc	5 56 9                          @ ../Middlewares/CMSIS/DSP/Src/SupportFunctions/arm_bitonic_sort_f32.c:56:9
	ldr	r0, [sp, #8]
	adds	r0, #4
	str	r0, [sp, #8]
	.loc	5 57 10                         @ ../Middlewares/CMSIS/DSP/Src/SupportFunctions/arm_bitonic_sort_f32.c:57:10
	ldr	r0, [sp, #4]
	subs	r0, #4
	str	r0, [sp, #4]
	.loc	5 58 5                          @ ../Middlewares/CMSIS/DSP/Src/SupportFunctions/arm_bitonic_sort_f32.c:58:5
	b	.LBB2_5
.Ltmp37:
.LBB2_5:                                @   in Loop: Header=BB2_1 Depth=1
	.loc	5 46 23                         @ ../Middlewares/CMSIS/DSP/Src/SupportFunctions/arm_bitonic_sort_f32.c:46:23
	ldr	r0, [sp, #16]
	adds	r0, #1
	str	r0, [sp, #16]
	.loc	5 46 5 is_stmt 0                @ ../Middlewares/CMSIS/DSP/Src/SupportFunctions/arm_bitonic_sort_f32.c:46:5
	b	.LBB2_1
.Ltmp38:
.LBB2_6:
	.loc	5 61 15 is_stmt 1               @ ../Middlewares/CMSIS/DSP/Src/SupportFunctions/arm_bitonic_sort_f32.c:61:15
	ldr	r0, [sp, #28]
	.loc	5 61 16 is_stmt 0               @ ../Middlewares/CMSIS/DSP/Src/SupportFunctions/arm_bitonic_sort_f32.c:61:16
	lsrs	r0, r0, #2
	.loc	5 61 13                         @ ../Middlewares/CMSIS/DSP/Src/SupportFunctions/arm_bitonic_sort_f32.c:61:13
	str	r0, [sp, #20]
	.loc	5 61 9                          @ ../Middlewares/CMSIS/DSP/Src/SupportFunctions/arm_bitonic_sort_f32.c:61:9
	b	.LBB2_7
.LBB2_7:                                @ =>This Loop Header: Depth=1
                                        @     Child Loop BB2_9 Depth 2
                                        @       Child Loop BB2_11 Depth 3
.Ltmp39:
	.loc	5 61 22                         @ ../Middlewares/CMSIS/DSP/Src/SupportFunctions/arm_bitonic_sort_f32.c:61:22
	ldr	r0, [sp, #20]
.Ltmp40:
	.loc	5 61 5                          @ ../Middlewares/CMSIS/DSP/Src/SupportFunctions/arm_bitonic_sort_f32.c:61:5
	cmp	r0, #0
	beq	.LBB2_20
	b	.LBB2_8
.LBB2_8:                                @   in Loop: Header=BB2_7 Depth=1
	.loc	5 0 5                           @ ../Middlewares/CMSIS/DSP/Src/SupportFunctions/arm_bitonic_sort_f32.c:0:5
	movs	r0, #0
.Ltmp41:
	.loc	5 63 7 is_stmt 1                @ ../Middlewares/CMSIS/DSP/Src/SupportFunctions/arm_bitonic_sort_f32.c:63:7
	str	r0, [sp, #12]
	.loc	5 63 6 is_stmt 0                @ ../Middlewares/CMSIS/DSP/Src/SupportFunctions/arm_bitonic_sort_f32.c:63:6
	b	.LBB2_9
.LBB2_9:                                @   Parent Loop BB2_7 Depth=1
                                        @ =>  This Loop Header: Depth=2
                                        @       Child Loop BB2_11 Depth 3
.Ltmp42:
	.loc	5 63 11                         @ ../Middlewares/CMSIS/DSP/Src/SupportFunctions/arm_bitonic_sort_f32.c:63:11
	ldr	r0, [sp, #12]
	.loc	5 63 13                         @ ../Middlewares/CMSIS/DSP/Src/SupportFunctions/arm_bitonic_sort_f32.c:63:13
	ldr	r1, [sp, #28]
.Ltmp43:
	.loc	5 63 2                          @ ../Middlewares/CMSIS/DSP/Src/SupportFunctions/arm_bitonic_sort_f32.c:63:2
	cmp	r0, r1
	bhs	.LBB2_18
	b	.LBB2_10
.LBB2_10:                               @   in Loop: Header=BB2_9 Depth=2
.Ltmp44:
	.loc	5 65 16 is_stmt 1               @ ../Middlewares/CMSIS/DSP/Src/SupportFunctions/arm_bitonic_sort_f32.c:65:16
	ldr	r0, [sp, #32]
	.loc	5 65 21 is_stmt 0               @ ../Middlewares/CMSIS/DSP/Src/SupportFunctions/arm_bitonic_sort_f32.c:65:21
	ldr	r1, [sp, #12]
	.loc	5 65 20                         @ ../Middlewares/CMSIS/DSP/Src/SupportFunctions/arm_bitonic_sort_f32.c:65:20
	add.w	r0, r0, r1, lsl #2
	.loc	5 65 14                         @ ../Middlewares/CMSIS/DSP/Src/SupportFunctions/arm_bitonic_sort_f32.c:65:14
	str	r0, [sp, #8]
	.loc	5 66 17 is_stmt 1               @ ../Middlewares/CMSIS/DSP/Src/SupportFunctions/arm_bitonic_sort_f32.c:66:17
	ldr	r0, [sp, #32]
	.loc	5 66 22 is_stmt 0               @ ../Middlewares/CMSIS/DSP/Src/SupportFunctions/arm_bitonic_sort_f32.c:66:22
	ldr	r1, [sp, #12]
	.loc	5 66 21                         @ ../Middlewares/CMSIS/DSP/Src/SupportFunctions/arm_bitonic_sort_f32.c:66:21
	add.w	r0, r0, r1, lsl #2
	.loc	5 66 24                         @ ../Middlewares/CMSIS/DSP/Src/SupportFunctions/arm_bitonic_sort_f32.c:66:24
	ldr	r1, [sp, #20]
	.loc	5 66 23                         @ ../Middlewares/CMSIS/DSP/Src/SupportFunctions/arm_bitonic_sort_f32.c:66:23
	add.w	r0, r0, r1, lsl #2
	.loc	5 66 15                         @ ../Middlewares/CMSIS/DSP/Src/SupportFunctions/arm_bitonic_sort_f32.c:66:15
	str	r0, [sp, #4]
	movs	r0, #0
.Ltmp45:
	.loc	5 68 11 is_stmt 1               @ ../Middlewares/CMSIS/DSP/Src/SupportFunctions/arm_bitonic_sort_f32.c:68:11
	str	r0, [sp, #16]
	.loc	5 68 10 is_stmt 0               @ ../Middlewares/CMSIS/DSP/Src/SupportFunctions/arm_bitonic_sort_f32.c:68:10
	b	.LBB2_11
.LBB2_11:                               @   Parent Loop BB2_7 Depth=1
                                        @     Parent Loop BB2_9 Depth=2
                                        @ =>    This Inner Loop Header: Depth=3
.Ltmp46:
	.loc	5 68 15                         @ ../Middlewares/CMSIS/DSP/Src/SupportFunctions/arm_bitonic_sort_f32.c:68:15
	ldr	r0, [sp, #16]
	.loc	5 68 17                         @ ../Middlewares/CMSIS/DSP/Src/SupportFunctions/arm_bitonic_sort_f32.c:68:17
	ldr	r1, [sp, #20]
.Ltmp47:
	.loc	5 68 6                          @ ../Middlewares/CMSIS/DSP/Src/SupportFunctions/arm_bitonic_sort_f32.c:68:6
	cmp	r0, r1
	bhs	.LBB2_16
	b	.LBB2_12
.LBB2_12:                               @   in Loop: Header=BB2_11 Depth=3
.Ltmp48:
	.loc	5 70 7 is_stmt 1                @ ../Middlewares/CMSIS/DSP/Src/SupportFunctions/arm_bitonic_sort_f32.c:70:7
	ldr	r0, [sp, #8]
	.loc	5 70 6 is_stmt 0                @ ../Middlewares/CMSIS/DSP/Src/SupportFunctions/arm_bitonic_sort_f32.c:70:6
	vldr	s0, [r0]
	.loc	5 70 18                         @ ../Middlewares/CMSIS/DSP/Src/SupportFunctions/arm_bitonic_sort_f32.c:70:18
	ldr	r0, [sp, #4]
	.loc	5 70 17                         @ ../Middlewares/CMSIS/DSP/Src/SupportFunctions/arm_bitonic_sort_f32.c:70:17
	vldr	s2, [r0]
.Ltmp49:
	.loc	5 70 6                          @ ../Middlewares/CMSIS/DSP/Src/SupportFunctions/arm_bitonic_sort_f32.c:70:6
	vcmp.f32	s0, s2
	vmrs	APSR_nzcv, fpscr
	ble	.LBB2_14
	b	.LBB2_13
.LBB2_13:                               @   in Loop: Header=BB2_11 Depth=3
.Ltmp50:
	.loc	5 73 17 is_stmt 1               @ ../Middlewares/CMSIS/DSP/Src/SupportFunctions/arm_bitonic_sort_f32.c:73:17
	ldr	r0, [sp, #8]
	.loc	5 73 16 is_stmt 0               @ ../Middlewares/CMSIS/DSP/Src/SupportFunctions/arm_bitonic_sort_f32.c:73:16
	ldr	r0, [r0]
	.loc	5 73 15                         @ ../Middlewares/CMSIS/DSP/Src/SupportFunctions/arm_bitonic_sort_f32.c:73:15
	str	r0, [sp]
	.loc	5 74 17 is_stmt 1               @ ../Middlewares/CMSIS/DSP/Src/SupportFunctions/arm_bitonic_sort_f32.c:74:17
	ldr	r0, [sp, #4]
	.loc	5 74 16 is_stmt 0               @ ../Middlewares/CMSIS/DSP/Src/SupportFunctions/arm_bitonic_sort_f32.c:74:16
	ldr	r0, [r0]
	.loc	5 74 8                          @ ../Middlewares/CMSIS/DSP/Src/SupportFunctions/arm_bitonic_sort_f32.c:74:8
	ldr	r1, [sp, #8]
	.loc	5 74 15                         @ ../Middlewares/CMSIS/DSP/Src/SupportFunctions/arm_bitonic_sort_f32.c:74:15
	str	r0, [r1]
	.loc	5 75 17 is_stmt 1               @ ../Middlewares/CMSIS/DSP/Src/SupportFunctions/arm_bitonic_sort_f32.c:75:17
	ldr	r0, [sp]
	.loc	5 75 8 is_stmt 0                @ ../Middlewares/CMSIS/DSP/Src/SupportFunctions/arm_bitonic_sort_f32.c:75:8
	ldr	r1, [sp, #4]
	.loc	5 75 16                         @ ../Middlewares/CMSIS/DSP/Src/SupportFunctions/arm_bitonic_sort_f32.c:75:16
	str	r0, [r1]
	.loc	5 76 3 is_stmt 1                @ ../Middlewares/CMSIS/DSP/Src/SupportFunctions/arm_bitonic_sort_f32.c:76:3
	b	.LBB2_14
.Ltmp51:
.LBB2_14:                               @   in Loop: Header=BB2_11 Depth=3
	.loc	5 78 10                         @ ../Middlewares/CMSIS/DSP/Src/SupportFunctions/arm_bitonic_sort_f32.c:78:10
	ldr	r0, [sp, #8]
	adds	r0, #4
	str	r0, [sp, #8]
	.loc	5 79 11                         @ ../Middlewares/CMSIS/DSP/Src/SupportFunctions/arm_bitonic_sort_f32.c:79:11
	ldr	r0, [sp, #4]
	adds	r0, #4
	str	r0, [sp, #4]
	.loc	5 80 6                          @ ../Middlewares/CMSIS/DSP/Src/SupportFunctions/arm_bitonic_sort_f32.c:80:6
	b	.LBB2_15
.Ltmp52:
.LBB2_15:                               @   in Loop: Header=BB2_11 Depth=3
	.loc	5 68 24                         @ ../Middlewares/CMSIS/DSP/Src/SupportFunctions/arm_bitonic_sort_f32.c:68:24
	ldr	r0, [sp, #16]
	adds	r0, #1
	str	r0, [sp, #16]
	.loc	5 68 6 is_stmt 0                @ ../Middlewares/CMSIS/DSP/Src/SupportFunctions/arm_bitonic_sort_f32.c:68:6
	b	.LBB2_11
.Ltmp53:
.LBB2_16:                               @   in Loop: Header=BB2_9 Depth=2
	.loc	5 81 2 is_stmt 1                @ ../Middlewares/CMSIS/DSP/Src/SupportFunctions/arm_bitonic_sort_f32.c:81:2
	b	.LBB2_17
.Ltmp54:
.LBB2_17:                               @   in Loop: Header=BB2_9 Depth=2
	.loc	5 63 18                         @ ../Middlewares/CMSIS/DSP/Src/SupportFunctions/arm_bitonic_sort_f32.c:63:18
	ldr	r0, [sp, #12]
	.loc	5 63 20 is_stmt 0               @ ../Middlewares/CMSIS/DSP/Src/SupportFunctions/arm_bitonic_sort_f32.c:63:20
	ldr	r1, [sp, #20]
	.loc	5 63 19                         @ ../Middlewares/CMSIS/DSP/Src/SupportFunctions/arm_bitonic_sort_f32.c:63:19
	add.w	r0, r0, r1, lsl #1
	.loc	5 63 17                         @ ../Middlewares/CMSIS/DSP/Src/SupportFunctions/arm_bitonic_sort_f32.c:63:17
	str	r0, [sp, #12]
	.loc	5 63 2                          @ ../Middlewares/CMSIS/DSP/Src/SupportFunctions/arm_bitonic_sort_f32.c:63:2
	b	.LBB2_9
.Ltmp55:
.LBB2_18:                               @   in Loop: Header=BB2_7 Depth=1
	.loc	5 82 5 is_stmt 1                @ ../Middlewares/CMSIS/DSP/Src/SupportFunctions/arm_bitonic_sort_f32.c:82:5
	b	.LBB2_19
.Ltmp56:
.LBB2_19:                               @   in Loop: Header=BB2_7 Depth=1
	.loc	5 61 34                         @ ../Middlewares/CMSIS/DSP/Src/SupportFunctions/arm_bitonic_sort_f32.c:61:34
	ldr	r0, [sp, #20]
	lsrs	r0, r0, #1
	str	r0, [sp, #20]
	.loc	5 61 5 is_stmt 0                @ ../Middlewares/CMSIS/DSP/Src/SupportFunctions/arm_bitonic_sort_f32.c:61:5
	b	.LBB2_7
.Ltmp57:
.LBB2_20:
	.loc	5 83 1 is_stmt 1                @ ../Middlewares/CMSIS/DSP/Src/SupportFunctions/arm_bitonic_sort_f32.c:83:1
	add	sp, #36
	bx	lr
.Ltmp58:
.Lfunc_end2:
	.size	arm_bitonic_sort_core_f32, .Lfunc_end2-arm_bitonic_sort_core_f32
	.cfi_endproc
	.cantunwind
	.fnend
                                        @ -- End function
	.section	.text.arm_bubble_sort_f32,"ax",%progbits
	.hidden	arm_bubble_sort_f32             @ -- Begin function arm_bubble_sort_f32
	.globl	arm_bubble_sort_f32
	.p2align	2
	.type	arm_bubble_sort_f32,%function
	.code	16                              @ @arm_bubble_sort_f32
	.thumb_func
arm_bubble_sort_f32:
.Lfunc_begin3:
	.file	6 "D:\\horizon\\Horizon_Infantry (2)\\MDK-ARM" "../Middlewares/CMSIS/DSP/Src/SupportFunctions/arm_bubble_sort_f32.c"
	.loc	6 65 0                          @ ../Middlewares/CMSIS/DSP/Src/SupportFunctions/arm_bubble_sort_f32.c:65:0
	.fnstart
	.cfi_startproc
@ %bb.0:
	.save	{r7, lr}
	push	{r7, lr}
	.cfi_def_cfa_offset 8
	.cfi_offset lr, -4
	.cfi_offset r7, -8
	.pad	#40
	sub	sp, #40
	.cfi_def_cfa_offset 48
	str	r0, [sp, #36]
	str	r1, [sp, #32]
	str	r2, [sp, #28]
	str	r3, [sp, #24]
.Ltmp59:
	.loc	6 66 19 prologue_end            @ ../Middlewares/CMSIS/DSP/Src/SupportFunctions/arm_bubble_sort_f32.c:66:19
	ldr	r0, [sp, #36]
	.loc	6 66 22 is_stmt 0               @ ../Middlewares/CMSIS/DSP/Src/SupportFunctions/arm_bubble_sort_f32.c:66:22
	ldrb	r0, [r0, #1]
	.loc	6 66 13                         @ ../Middlewares/CMSIS/DSP/Src/SupportFunctions/arm_bubble_sort_f32.c:66:13
	strb.w	r0, [sp, #23]
	movs	r0, #1
	.loc	6 68 13 is_stmt 1               @ ../Middlewares/CMSIS/DSP/Src/SupportFunctions/arm_bubble_sort_f32.c:68:13
	strb.w	r0, [sp, #15]
.Ltmp60:
	.loc	6 72 8                          @ ../Middlewares/CMSIS/DSP/Src/SupportFunctions/arm_bubble_sort_f32.c:72:8
	ldr	r0, [sp, #32]
	.loc	6 72 16 is_stmt 0               @ ../Middlewares/CMSIS/DSP/Src/SupportFunctions/arm_bubble_sort_f32.c:72:16
	ldr	r1, [sp, #28]
.Ltmp61:
	.loc	6 72 8                          @ ../Middlewares/CMSIS/DSP/Src/SupportFunctions/arm_bubble_sort_f32.c:72:8
	cmp	r0, r1
	beq	.LBB3_2
	b	.LBB3_1
.LBB3_1:
.Ltmp62:
	.loc	6 74 9 is_stmt 1                @ ../Middlewares/CMSIS/DSP/Src/SupportFunctions/arm_bubble_sort_f32.c:74:9
	ldr	r0, [sp, #28]
	.loc	6 74 15 is_stmt 0               @ ../Middlewares/CMSIS/DSP/Src/SupportFunctions/arm_bubble_sort_f32.c:74:15
	ldr	r1, [sp, #32]
	.loc	6 74 21                         @ ../Middlewares/CMSIS/DSP/Src/SupportFunctions/arm_bubble_sort_f32.c:74:21
	ldr	r2, [sp, #24]
	.loc	6 74 30                         @ ../Middlewares/CMSIS/DSP/Src/SupportFunctions/arm_bubble_sort_f32.c:74:30
	lsls	r2, r2, #2
	.loc	6 74 2                          @ ../Middlewares/CMSIS/DSP/Src/SupportFunctions/arm_bubble_sort_f32.c:74:2
	bl	__aeabi_memcpy4
	.loc	6 75 7 is_stmt 1                @ ../Middlewares/CMSIS/DSP/Src/SupportFunctions/arm_bubble_sort_f32.c:75:7
	ldr	r0, [sp, #28]
	.loc	6 75 5 is_stmt 0                @ ../Middlewares/CMSIS/DSP/Src/SupportFunctions/arm_bubble_sort_f32.c:75:5
	str	r0, [sp, #8]
	.loc	6 76 5 is_stmt 1                @ ../Middlewares/CMSIS/DSP/Src/SupportFunctions/arm_bubble_sort_f32.c:76:5
	b	.LBB3_3
.Ltmp63:
.LBB3_2:
	.loc	6 78 7                          @ ../Middlewares/CMSIS/DSP/Src/SupportFunctions/arm_bubble_sort_f32.c:78:7
	ldr	r0, [sp, #32]
	.loc	6 78 5 is_stmt 0                @ ../Middlewares/CMSIS/DSP/Src/SupportFunctions/arm_bubble_sort_f32.c:78:5
	str	r0, [sp, #8]
	b	.LBB3_3
.Ltmp64:
.LBB3_3:
	.loc	6 80 5 is_stmt 1                @ ../Middlewares/CMSIS/DSP/Src/SupportFunctions/arm_bubble_sort_f32.c:80:5
	b	.LBB3_4
.LBB3_4:                                @ =>This Loop Header: Depth=1
                                        @     Child Loop BB3_6 Depth 2
	.loc	6 80 11 is_stmt 0               @ ../Middlewares/CMSIS/DSP/Src/SupportFunctions/arm_bubble_sort_f32.c:80:11
	ldrb.w	r0, [sp, #15]
	.loc	6 80 5                          @ ../Middlewares/CMSIS/DSP/Src/SupportFunctions/arm_bubble_sort_f32.c:80:5
	cmp	r0, #1
	bne	.LBB3_12
	b	.LBB3_5
.LBB3_5:                                @   in Loop: Header=BB3_4 Depth=1
	.loc	6 0 5                           @ ../Middlewares/CMSIS/DSP/Src/SupportFunctions/arm_bubble_sort_f32.c:0:5
	movs	r0, #0
.Ltmp65:
	.loc	6 82 9 is_stmt 1                @ ../Middlewares/CMSIS/DSP/Src/SupportFunctions/arm_bubble_sort_f32.c:82:9
	strb.w	r0, [sp, #15]
.Ltmp66:
	.loc	6 84 14                         @ ../Middlewares/CMSIS/DSP/Src/SupportFunctions/arm_bubble_sort_f32.c:84:14
	str	r0, [sp, #16]
	.loc	6 84 13 is_stmt 0               @ ../Middlewares/CMSIS/DSP/Src/SupportFunctions/arm_bubble_sort_f32.c:84:13
	b	.LBB3_6
.LBB3_6:                                @   Parent Loop BB3_4 Depth=1
                                        @ =>  This Inner Loop Header: Depth=2
.Ltmp67:
	.loc	6 84 18                         @ ../Middlewares/CMSIS/DSP/Src/SupportFunctions/arm_bubble_sort_f32.c:84:18
	ldr	r0, [sp, #16]
	.loc	6 84 20                         @ ../Middlewares/CMSIS/DSP/Src/SupportFunctions/arm_bubble_sort_f32.c:84:20
	ldr	r1, [sp, #24]
	.loc	6 84 29                         @ ../Middlewares/CMSIS/DSP/Src/SupportFunctions/arm_bubble_sort_f32.c:84:29
	subs	r1, #1
.Ltmp68:
	.loc	6 84 9                          @ ../Middlewares/CMSIS/DSP/Src/SupportFunctions/arm_bubble_sort_f32.c:84:9
	cmp	r0, r1
	bhs	.LBB3_11
	b	.LBB3_7
.LBB3_7:                                @   in Loop: Header=BB3_6 Depth=2
.Ltmp69:
	.loc	6 86 9 is_stmt 1                @ ../Middlewares/CMSIS/DSP/Src/SupportFunctions/arm_bubble_sort_f32.c:86:9
	ldrb.w	r0, [sp, #23]
	.loc	6 86 15 is_stmt 0               @ ../Middlewares/CMSIS/DSP/Src/SupportFunctions/arm_bubble_sort_f32.c:86:15
	ldr	r1, [sp, #8]
	.loc	6 86 18                         @ ../Middlewares/CMSIS/DSP/Src/SupportFunctions/arm_bubble_sort_f32.c:86:18
	ldr	r2, [sp, #16]
	.loc	6 86 15                         @ ../Middlewares/CMSIS/DSP/Src/SupportFunctions/arm_bubble_sort_f32.c:86:15
	add.w	r1, r1, r2, lsl #2
	vldr	s0, [r1]
	.loc	6 86 21                         @ ../Middlewares/CMSIS/DSP/Src/SupportFunctions/arm_bubble_sort_f32.c:86:21
	vldr	s2, [r1, #4]
	movs	r1, #0
	.loc	6 86 20                         @ ../Middlewares/CMSIS/DSP/Src/SupportFunctions/arm_bubble_sort_f32.c:86:20
	vcmp.f32	s0, s2
	vmrs	APSR_nzcv, fpscr
	it	gt
	movgt	r1, #1
.Ltmp70:
	.loc	6 86 9                          @ ../Middlewares/CMSIS/DSP/Src/SupportFunctions/arm_bubble_sort_f32.c:86:9
	cmp	r0, r1
	bne	.LBB3_9
	b	.LBB3_8
.LBB3_8:                                @   in Loop: Header=BB3_6 Depth=2
.Ltmp71:
	.loc	6 89 10 is_stmt 1               @ ../Middlewares/CMSIS/DSP/Src/SupportFunctions/arm_bubble_sort_f32.c:89:10
	ldr	r0, [sp, #8]
	.loc	6 89 13 is_stmt 0               @ ../Middlewares/CMSIS/DSP/Src/SupportFunctions/arm_bubble_sort_f32.c:89:13
	ldr	r1, [sp, #16]
	.loc	6 89 10                         @ ../Middlewares/CMSIS/DSP/Src/SupportFunctions/arm_bubble_sort_f32.c:89:10
	ldr.w	r0, [r0, r1, lsl #2]
	.loc	6 89 8                          @ ../Middlewares/CMSIS/DSP/Src/SupportFunctions/arm_bubble_sort_f32.c:89:8
	str	r0, [sp, #4]
	.loc	6 90 11 is_stmt 1               @ ../Middlewares/CMSIS/DSP/Src/SupportFunctions/arm_bubble_sort_f32.c:90:11
	ldr	r1, [sp, #8]
	.loc	6 90 14 is_stmt 0               @ ../Middlewares/CMSIS/DSP/Src/SupportFunctions/arm_bubble_sort_f32.c:90:14
	ldr	r2, [sp, #16]
	.loc	6 90 3                          @ ../Middlewares/CMSIS/DSP/Src/SupportFunctions/arm_bubble_sort_f32.c:90:3
	add.w	r0, r1, r2, lsl #2
	.loc	6 90 11                         @ ../Middlewares/CMSIS/DSP/Src/SupportFunctions/arm_bubble_sort_f32.c:90:11
	ldr	r0, [r0, #4]
	.loc	6 90 9                          @ ../Middlewares/CMSIS/DSP/Src/SupportFunctions/arm_bubble_sort_f32.c:90:9
	str.w	r0, [r1, r2, lsl #2]
	.loc	6 91 13 is_stmt 1               @ ../Middlewares/CMSIS/DSP/Src/SupportFunctions/arm_bubble_sort_f32.c:91:13
	ldr	r0, [sp, #4]
	.loc	6 91 3 is_stmt 0                @ ../Middlewares/CMSIS/DSP/Src/SupportFunctions/arm_bubble_sort_f32.c:91:3
	ldr	r1, [sp, #8]
	.loc	6 91 6                          @ ../Middlewares/CMSIS/DSP/Src/SupportFunctions/arm_bubble_sort_f32.c:91:6
	ldr	r2, [sp, #16]
	.loc	6 91 3                          @ ../Middlewares/CMSIS/DSP/Src/SupportFunctions/arm_bubble_sort_f32.c:91:3
	add.w	r1, r1, r2, lsl #2
	.loc	6 91 11                         @ ../Middlewares/CMSIS/DSP/Src/SupportFunctions/arm_bubble_sort_f32.c:91:11
	str	r0, [r1, #4]
	movs	r0, #1
	.loc	6 94 11 is_stmt 1               @ ../Middlewares/CMSIS/DSP/Src/SupportFunctions/arm_bubble_sort_f32.c:94:11
	strb.w	r0, [sp, #15]
	.loc	6 95 6                          @ ../Middlewares/CMSIS/DSP/Src/SupportFunctions/arm_bubble_sort_f32.c:95:6
	b	.LBB3_9
.Ltmp72:
.LBB3_9:                                @   in Loop: Header=BB3_6 Depth=2
	.loc	6 96 2                          @ ../Middlewares/CMSIS/DSP/Src/SupportFunctions/arm_bubble_sort_f32.c:96:2
	b	.LBB3_10
.Ltmp73:
.LBB3_10:                               @   in Loop: Header=BB3_6 Depth=2
	.loc	6 84 34                         @ ../Middlewares/CMSIS/DSP/Src/SupportFunctions/arm_bubble_sort_f32.c:84:34
	ldr	r0, [sp, #16]
	adds	r0, #1
	str	r0, [sp, #16]
	.loc	6 84 9 is_stmt 0                @ ../Middlewares/CMSIS/DSP/Src/SupportFunctions/arm_bubble_sort_f32.c:84:9
	b	.LBB3_6
.Ltmp74:
.LBB3_11:                               @   in Loop: Header=BB3_4 Depth=1
	.loc	6 98 11 is_stmt 1               @ ../Middlewares/CMSIS/DSP/Src/SupportFunctions/arm_bubble_sort_f32.c:98:11
	ldr	r0, [sp, #24]
	subs	r0, #1
	str	r0, [sp, #24]
.Ltmp75:
	.loc	6 80 5                          @ ../Middlewares/CMSIS/DSP/Src/SupportFunctions/arm_bubble_sort_f32.c:80:5
	b	.LBB3_4
.LBB3_12:
	.loc	6 100 1                         @ ../Middlewares/CMSIS/DSP/Src/SupportFunctions/arm_bubble_sort_f32.c:100:1
	add	sp, #40
	pop	{r7, pc}
.Ltmp76:
.Lfunc_end3:
	.size	arm_bubble_sort_f32, .Lfunc_end3-arm_bubble_sort_f32
	.cfi_endproc
	.cantunwind
	.fnend
                                        @ -- End function
	.section	.text.arm_copy_f32,"ax",%progbits
	.hidden	arm_copy_f32                    @ -- Begin function arm_copy_f32
	.globl	arm_copy_f32
	.p2align	2
	.type	arm_copy_f32,%function
	.code	16                              @ @arm_copy_f32
	.thumb_func
arm_copy_f32:
.Lfunc_begin4:
	.file	7 "D:\\horizon\\Horizon_Infantry (2)\\MDK-ARM" "../Middlewares/CMSIS/DSP/Src/SupportFunctions/arm_copy_f32.c"
	.loc	7 144 0                         @ ../Middlewares/CMSIS/DSP/Src/SupportFunctions/arm_copy_f32.c:144:0
	.fnstart
	.cfi_startproc
@ %bb.0:
	.pad	#16
	sub	sp, #16
	.cfi_def_cfa_offset 16
	str	r0, [sp, #12]
	str	r1, [sp, #8]
	str	r2, [sp, #4]
.Ltmp77:
	.loc	7 172 12 prologue_end           @ ../Middlewares/CMSIS/DSP/Src/SupportFunctions/arm_copy_f32.c:172:12
	ldr	r0, [sp, #4]
	.loc	7 172 10 is_stmt 0              @ ../Middlewares/CMSIS/DSP/Src/SupportFunctions/arm_copy_f32.c:172:10
	str	r0, [sp]
	.loc	7 176 3 is_stmt 1               @ ../Middlewares/CMSIS/DSP/Src/SupportFunctions/arm_copy_f32.c:176:3
	b	.LBB4_1
.LBB4_1:                                @ =>This Inner Loop Header: Depth=1
	.loc	7 176 10 is_stmt 0              @ ../Middlewares/CMSIS/DSP/Src/SupportFunctions/arm_copy_f32.c:176:10
	ldr	r0, [sp]
	.loc	7 176 3                         @ ../Middlewares/CMSIS/DSP/Src/SupportFunctions/arm_copy_f32.c:176:3
	cbz	r0, .LBB4_3
	b	.LBB4_2
.LBB4_2:                                @   in Loop: Header=BB4_1 Depth=1
.Ltmp78:
	.loc	7 181 20 is_stmt 1              @ ../Middlewares/CMSIS/DSP/Src/SupportFunctions/arm_copy_f32.c:181:20
	ldr	r0, [sp, #12]
	adds	r1, r0, #4
	str	r1, [sp, #12]
	.loc	7 181 15 is_stmt 0              @ ../Middlewares/CMSIS/DSP/Src/SupportFunctions/arm_copy_f32.c:181:15
	ldr	r0, [r0]
	.loc	7 181 10                        @ ../Middlewares/CMSIS/DSP/Src/SupportFunctions/arm_copy_f32.c:181:10
	ldr	r1, [sp, #8]
	adds	r2, r1, #4
	str	r2, [sp, #8]
	.loc	7 181 13                        @ ../Middlewares/CMSIS/DSP/Src/SupportFunctions/arm_copy_f32.c:181:13
	str	r0, [r1]
	.loc	7 184 11 is_stmt 1              @ ../Middlewares/CMSIS/DSP/Src/SupportFunctions/arm_copy_f32.c:184:11
	ldr	r0, [sp]
	subs	r0, #1
	str	r0, [sp]
.Ltmp79:
	.loc	7 176 3                         @ ../Middlewares/CMSIS/DSP/Src/SupportFunctions/arm_copy_f32.c:176:3
	b	.LBB4_1
.LBB4_3:
	.loc	7 186 1                         @ ../Middlewares/CMSIS/DSP/Src/SupportFunctions/arm_copy_f32.c:186:1
	add	sp, #16
	bx	lr
.Ltmp80:
.Lfunc_end4:
	.size	arm_copy_f32, .Lfunc_end4-arm_copy_f32
	.cfi_endproc
	.cantunwind
	.fnend
                                        @ -- End function
	.section	.text.arm_copy_f64,"ax",%progbits
	.hidden	arm_copy_f64                    @ -- Begin function arm_copy_f64
	.globl	arm_copy_f64
	.p2align	2
	.type	arm_copy_f64,%function
	.code	16                              @ @arm_copy_f64
	.thumb_func
arm_copy_f64:
.Lfunc_begin5:
	.file	8 "D:\\horizon\\Horizon_Infantry (2)\\MDK-ARM" "../Middlewares/CMSIS/DSP/Src/SupportFunctions/arm_copy_f64.c"
	.loc	8 51 0                          @ ../Middlewares/CMSIS/DSP/Src/SupportFunctions/arm_copy_f64.c:51:0
	.fnstart
	.cfi_startproc
@ %bb.0:
	.pad	#16
	sub	sp, #16
	.cfi_def_cfa_offset 16
	str	r0, [sp, #12]
	str	r1, [sp, #8]
	str	r2, [sp, #4]
.Ltmp81:
	.loc	8 55 12 prologue_end            @ ../Middlewares/CMSIS/DSP/Src/SupportFunctions/arm_copy_f64.c:55:12
	ldr	r0, [sp, #4]
	.loc	8 55 10 is_stmt 0               @ ../Middlewares/CMSIS/DSP/Src/SupportFunctions/arm_copy_f64.c:55:10
	str	r0, [sp]
	.loc	8 57 3 is_stmt 1                @ ../Middlewares/CMSIS/DSP/Src/SupportFunctions/arm_copy_f64.c:57:3
	b	.LBB5_1
.LBB5_1:                                @ =>This Inner Loop Header: Depth=1
	.loc	8 57 10 is_stmt 0               @ ../Middlewares/CMSIS/DSP/Src/SupportFunctions/arm_copy_f64.c:57:10
	ldr	r0, [sp]
	.loc	8 57 3                          @ ../Middlewares/CMSIS/DSP/Src/SupportFunctions/arm_copy_f64.c:57:3
	cbz	r0, .LBB5_3
	b	.LBB5_2
.LBB5_2:                                @   in Loop: Header=BB5_1 Depth=1
.Ltmp82:
	.loc	8 62 20 is_stmt 1               @ ../Middlewares/CMSIS/DSP/Src/SupportFunctions/arm_copy_f64.c:62:20
	ldr	r0, [sp, #12]
	add.w	r1, r0, #8
	str	r1, [sp, #12]
	.loc	8 62 15 is_stmt 0               @ ../Middlewares/CMSIS/DSP/Src/SupportFunctions/arm_copy_f64.c:62:15
	vldr	d0, [r0]
	.loc	8 62 10                         @ ../Middlewares/CMSIS/DSP/Src/SupportFunctions/arm_copy_f64.c:62:10
	ldr	r0, [sp, #8]
	add.w	r1, r0, #8
	str	r1, [sp, #8]
	.loc	8 62 13                         @ ../Middlewares/CMSIS/DSP/Src/SupportFunctions/arm_copy_f64.c:62:13
	vstr	d0, [r0]
	.loc	8 65 11 is_stmt 1               @ ../Middlewares/CMSIS/DSP/Src/SupportFunctions/arm_copy_f64.c:65:11
	ldr	r0, [sp]
	subs	r0, #1
	str	r0, [sp]
.Ltmp83:
	.loc	8 57 3                          @ ../Middlewares/CMSIS/DSP/Src/SupportFunctions/arm_copy_f64.c:57:3
	b	.LBB5_1
.LBB5_3:
	.loc	8 67 1                          @ ../Middlewares/CMSIS/DSP/Src/SupportFunctions/arm_copy_f64.c:67:1
	add	sp, #16
	bx	lr
.Ltmp84:
.Lfunc_end5:
	.size	arm_copy_f64, .Lfunc_end5-arm_copy_f64
	.cfi_endproc
	.cantunwind
	.fnend
                                        @ -- End function
	.section	.text.arm_copy_q15,"ax",%progbits
	.hidden	arm_copy_q15                    @ -- Begin function arm_copy_q15
	.globl	arm_copy_q15
	.p2align	2
	.type	arm_copy_q15,%function
	.code	16                              @ @arm_copy_q15
	.thumb_func
arm_copy_q15:
.Lfunc_begin6:
	.file	9 "D:\\horizon\\Horizon_Infantry (2)\\MDK-ARM" "../Middlewares/CMSIS/DSP/Src/SupportFunctions/arm_copy_q15.c"
	.loc	9 85 0                          @ ../Middlewares/CMSIS/DSP/Src/SupportFunctions/arm_copy_q15.c:85:0
	.fnstart
	.cfi_startproc
@ %bb.0:
	.pad	#16
	sub	sp, #16
	.cfi_def_cfa_offset 16
	str	r0, [sp, #12]
	str	r1, [sp, #8]
	str	r2, [sp, #4]
.Ltmp85:
	.loc	9 111 12 prologue_end           @ ../Middlewares/CMSIS/DSP/Src/SupportFunctions/arm_copy_q15.c:111:12
	ldr	r0, [sp, #4]
	.loc	9 111 10 is_stmt 0              @ ../Middlewares/CMSIS/DSP/Src/SupportFunctions/arm_copy_q15.c:111:10
	str	r0, [sp]
	.loc	9 115 3 is_stmt 1               @ ../Middlewares/CMSIS/DSP/Src/SupportFunctions/arm_copy_q15.c:115:3
	b	.LBB6_1
.LBB6_1:                                @ =>This Inner Loop Header: Depth=1
	.loc	9 115 10 is_stmt 0              @ ../Middlewares/CMSIS/DSP/Src/SupportFunctions/arm_copy_q15.c:115:10
	ldr	r0, [sp]
	.loc	9 115 3                         @ ../Middlewares/CMSIS/DSP/Src/SupportFunctions/arm_copy_q15.c:115:3
	cbz	r0, .LBB6_3
	b	.LBB6_2
.LBB6_2:                                @   in Loop: Header=BB6_1 Depth=1
.Ltmp86:
	.loc	9 120 20 is_stmt 1              @ ../Middlewares/CMSIS/DSP/Src/SupportFunctions/arm_copy_q15.c:120:20
	ldr	r0, [sp, #12]
	adds	r1, r0, #2
	str	r1, [sp, #12]
	.loc	9 120 15 is_stmt 0              @ ../Middlewares/CMSIS/DSP/Src/SupportFunctions/arm_copy_q15.c:120:15
	ldrh	r0, [r0]
	.loc	9 120 10                        @ ../Middlewares/CMSIS/DSP/Src/SupportFunctions/arm_copy_q15.c:120:10
	ldr	r1, [sp, #8]
	adds	r2, r1, #2
	str	r2, [sp, #8]
	.loc	9 120 13                        @ ../Middlewares/CMSIS/DSP/Src/SupportFunctions/arm_copy_q15.c:120:13
	strh	r0, [r1]
	.loc	9 123 11 is_stmt 1              @ ../Middlewares/CMSIS/DSP/Src/SupportFunctions/arm_copy_q15.c:123:11
	ldr	r0, [sp]
	subs	r0, #1
	str	r0, [sp]
.Ltmp87:
	.loc	9 115 3                         @ ../Middlewares/CMSIS/DSP/Src/SupportFunctions/arm_copy_q15.c:115:3
	b	.LBB6_1
.LBB6_3:
	.loc	9 125 1                         @ ../Middlewares/CMSIS/DSP/Src/SupportFunctions/arm_copy_q15.c:125:1
	add	sp, #16
	bx	lr
.Ltmp88:
.Lfunc_end6:
	.size	arm_copy_q15, .Lfunc_end6-arm_copy_q15
	.cfi_endproc
	.cantunwind
	.fnend
                                        @ -- End function
	.section	.text.arm_copy_q31,"ax",%progbits
	.hidden	arm_copy_q31                    @ -- Begin function arm_copy_q31
	.globl	arm_copy_q31
	.p2align	2
	.type	arm_copy_q31,%function
	.code	16                              @ @arm_copy_q31
	.thumb_func
arm_copy_q31:
.Lfunc_begin7:
	.file	10 "D:\\horizon\\Horizon_Infantry (2)\\MDK-ARM" "../Middlewares/CMSIS/DSP/Src/SupportFunctions/arm_copy_q31.c"
	.loc	10 88 0                         @ ../Middlewares/CMSIS/DSP/Src/SupportFunctions/arm_copy_q31.c:88:0
	.fnstart
	.cfi_startproc
@ %bb.0:
	.pad	#16
	sub	sp, #16
	.cfi_def_cfa_offset 16
	str	r0, [sp, #12]
	str	r1, [sp, #8]
	str	r2, [sp, #4]
.Ltmp89:
	.loc	10 116 12 prologue_end          @ ../Middlewares/CMSIS/DSP/Src/SupportFunctions/arm_copy_q31.c:116:12
	ldr	r0, [sp, #4]
	.loc	10 116 10 is_stmt 0             @ ../Middlewares/CMSIS/DSP/Src/SupportFunctions/arm_copy_q31.c:116:10
	str	r0, [sp]
	.loc	10 120 3 is_stmt 1              @ ../Middlewares/CMSIS/DSP/Src/SupportFunctions/arm_copy_q31.c:120:3
	b	.LBB7_1
.LBB7_1:                                @ =>This Inner Loop Header: Depth=1
	.loc	10 120 10 is_stmt 0             @ ../Middlewares/CMSIS/DSP/Src/SupportFunctions/arm_copy_q31.c:120:10
	ldr	r0, [sp]
	.loc	10 120 3                        @ ../Middlewares/CMSIS/DSP/Src/SupportFunctions/arm_copy_q31.c:120:3
	cbz	r0, .LBB7_3
	b	.LBB7_2
.LBB7_2:                                @   in Loop: Header=BB7_1 Depth=1
.Ltmp90:
	.loc	10 125 20 is_stmt 1             @ ../Middlewares/CMSIS/DSP/Src/SupportFunctions/arm_copy_q31.c:125:20
	ldr	r0, [sp, #12]
	adds	r1, r0, #4
	str	r1, [sp, #12]
	.loc	10 125 15 is_stmt 0             @ ../Middlewares/CMSIS/DSP/Src/SupportFunctions/arm_copy_q31.c:125:15
	ldr	r0, [r0]
	.loc	10 125 10                       @ ../Middlewares/CMSIS/DSP/Src/SupportFunctions/arm_copy_q31.c:125:10
	ldr	r1, [sp, #8]
	adds	r2, r1, #4
	str	r2, [sp, #8]
	.loc	10 125 13                       @ ../Middlewares/CMSIS/DSP/Src/SupportFunctions/arm_copy_q31.c:125:13
	str	r0, [r1]
	.loc	10 128 11 is_stmt 1             @ ../Middlewares/CMSIS/DSP/Src/SupportFunctions/arm_copy_q31.c:128:11
	ldr	r0, [sp]
	subs	r0, #1
	str	r0, [sp]
.Ltmp91:
	.loc	10 120 3                        @ ../Middlewares/CMSIS/DSP/Src/SupportFunctions/arm_copy_q31.c:120:3
	b	.LBB7_1
.LBB7_3:
	.loc	10 130 1                        @ ../Middlewares/CMSIS/DSP/Src/SupportFunctions/arm_copy_q31.c:130:1
	add	sp, #16
	bx	lr
.Ltmp92:
.Lfunc_end7:
	.size	arm_copy_q31, .Lfunc_end7-arm_copy_q31
	.cfi_endproc
	.cantunwind
	.fnend
                                        @ -- End function
	.section	.text.arm_copy_q7,"ax",%progbits
	.hidden	arm_copy_q7                     @ -- Begin function arm_copy_q7
	.globl	arm_copy_q7
	.p2align	2
	.type	arm_copy_q7,%function
	.code	16                              @ @arm_copy_q7
	.thumb_func
arm_copy_q7:
.Lfunc_begin8:
	.file	11 "D:\\horizon\\Horizon_Infantry (2)\\MDK-ARM" "../Middlewares/CMSIS/DSP/Src/SupportFunctions/arm_copy_q7.c"
	.loc	11 88 0                         @ ../Middlewares/CMSIS/DSP/Src/SupportFunctions/arm_copy_q7.c:88:0
	.fnstart
	.cfi_startproc
@ %bb.0:
	.pad	#16
	sub	sp, #16
	.cfi_def_cfa_offset 16
	str	r0, [sp, #12]
	str	r1, [sp, #8]
	str	r2, [sp, #4]
.Ltmp93:
	.loc	11 113 12 prologue_end          @ ../Middlewares/CMSIS/DSP/Src/SupportFunctions/arm_copy_q7.c:113:12
	ldr	r0, [sp, #4]
	.loc	11 113 10 is_stmt 0             @ ../Middlewares/CMSIS/DSP/Src/SupportFunctions/arm_copy_q7.c:113:10
	str	r0, [sp]
	.loc	11 117 3 is_stmt 1              @ ../Middlewares/CMSIS/DSP/Src/SupportFunctions/arm_copy_q7.c:117:3
	b	.LBB8_1
.LBB8_1:                                @ =>This Inner Loop Header: Depth=1
	.loc	11 117 10 is_stmt 0             @ ../Middlewares/CMSIS/DSP/Src/SupportFunctions/arm_copy_q7.c:117:10
	ldr	r0, [sp]
	.loc	11 117 3                        @ ../Middlewares/CMSIS/DSP/Src/SupportFunctions/arm_copy_q7.c:117:3
	cbz	r0, .LBB8_3
	b	.LBB8_2
.LBB8_2:                                @   in Loop: Header=BB8_1 Depth=1
.Ltmp94:
	.loc	11 122 20 is_stmt 1             @ ../Middlewares/CMSIS/DSP/Src/SupportFunctions/arm_copy_q7.c:122:20
	ldr	r0, [sp, #12]
	adds	r1, r0, #1
	str	r1, [sp, #12]
	.loc	11 122 15 is_stmt 0             @ ../Middlewares/CMSIS/DSP/Src/SupportFunctions/arm_copy_q7.c:122:15
	ldrb	r0, [r0]
	.loc	11 122 10                       @ ../Middlewares/CMSIS/DSP/Src/SupportFunctions/arm_copy_q7.c:122:10
	ldr	r1, [sp, #8]
	adds	r2, r1, #1
	str	r2, [sp, #8]
	.loc	11 122 13                       @ ../Middlewares/CMSIS/DSP/Src/SupportFunctions/arm_copy_q7.c:122:13
	strb	r0, [r1]
	.loc	11 125 11 is_stmt 1             @ ../Middlewares/CMSIS/DSP/Src/SupportFunctions/arm_copy_q7.c:125:11
	ldr	r0, [sp]
	subs	r0, #1
	str	r0, [sp]
.Ltmp95:
	.loc	11 117 3                        @ ../Middlewares/CMSIS/DSP/Src/SupportFunctions/arm_copy_q7.c:117:3
	b	.LBB8_1
.LBB8_3:
	.loc	11 127 1                        @ ../Middlewares/CMSIS/DSP/Src/SupportFunctions/arm_copy_q7.c:127:1
	add	sp, #16
	bx	lr
.Ltmp96:
.Lfunc_end8:
	.size	arm_copy_q7, .Lfunc_end8-arm_copy_q7
	.cfi_endproc
	.cantunwind
	.fnend
                                        @ -- End function
	.section	.text.arm_fill_f32,"ax",%progbits
	.hidden	arm_fill_f32                    @ -- Begin function arm_fill_f32
	.globl	arm_fill_f32
	.p2align	2
	.type	arm_fill_f32,%function
	.code	16                              @ @arm_fill_f32
	.thumb_func
arm_fill_f32:
.Lfunc_begin9:
	.file	12 "D:\\horizon\\Horizon_Infantry (2)\\MDK-ARM" "../Middlewares/CMSIS/DSP/Src/SupportFunctions/arm_fill_f32.c"
	.loc	12 141 0                        @ ../Middlewares/CMSIS/DSP/Src/SupportFunctions/arm_fill_f32.c:141:0
	.fnstart
	.cfi_startproc
@ %bb.0:
	.pad	#16
	sub	sp, #16
	.cfi_def_cfa_offset 16
	vstr	s0, [sp, #12]
	str	r0, [sp, #8]
	str	r1, [sp, #4]
.Ltmp97:
	.loc	12 169 12 prologue_end          @ ../Middlewares/CMSIS/DSP/Src/SupportFunctions/arm_fill_f32.c:169:12
	ldr	r0, [sp, #4]
	.loc	12 169 10 is_stmt 0             @ ../Middlewares/CMSIS/DSP/Src/SupportFunctions/arm_fill_f32.c:169:10
	str	r0, [sp]
	.loc	12 173 3 is_stmt 1              @ ../Middlewares/CMSIS/DSP/Src/SupportFunctions/arm_fill_f32.c:173:3
	b	.LBB9_1
.LBB9_1:                                @ =>This Inner Loop Header: Depth=1
	.loc	12 173 10 is_stmt 0             @ ../Middlewares/CMSIS/DSP/Src/SupportFunctions/arm_fill_f32.c:173:10
	ldr	r0, [sp]
	.loc	12 173 3                        @ ../Middlewares/CMSIS/DSP/Src/SupportFunctions/arm_fill_f32.c:173:3
	cbz	r0, .LBB9_3
	b	.LBB9_2
.LBB9_2:                                @   in Loop: Header=BB9_1 Depth=1
.Ltmp98:
	.loc	12 178 15 is_stmt 1             @ ../Middlewares/CMSIS/DSP/Src/SupportFunctions/arm_fill_f32.c:178:15
	ldr	r0, [sp, #12]
	.loc	12 178 10 is_stmt 0             @ ../Middlewares/CMSIS/DSP/Src/SupportFunctions/arm_fill_f32.c:178:10
	ldr	r1, [sp, #8]
	adds	r2, r1, #4
	str	r2, [sp, #8]
	.loc	12 178 13                       @ ../Middlewares/CMSIS/DSP/Src/SupportFunctions/arm_fill_f32.c:178:13
	str	r0, [r1]
	.loc	12 181 11 is_stmt 1             @ ../Middlewares/CMSIS/DSP/Src/SupportFunctions/arm_fill_f32.c:181:11
	ldr	r0, [sp]
	subs	r0, #1
	str	r0, [sp]
.Ltmp99:
	.loc	12 173 3                        @ ../Middlewares/CMSIS/DSP/Src/SupportFunctions/arm_fill_f32.c:173:3
	b	.LBB9_1
.LBB9_3:
	.loc	12 183 1                        @ ../Middlewares/CMSIS/DSP/Src/SupportFunctions/arm_fill_f32.c:183:1
	add	sp, #16
	bx	lr
.Ltmp100:
.Lfunc_end9:
	.size	arm_fill_f32, .Lfunc_end9-arm_fill_f32
	.cfi_endproc
	.cantunwind
	.fnend
                                        @ -- End function
	.section	.text.arm_fill_f64,"ax",%progbits
	.hidden	arm_fill_f64                    @ -- Begin function arm_fill_f64
	.globl	arm_fill_f64
	.p2align	2
	.type	arm_fill_f64,%function
	.code	16                              @ @arm_fill_f64
	.thumb_func
arm_fill_f64:
.Lfunc_begin10:
	.file	13 "D:\\horizon\\Horizon_Infantry (2)\\MDK-ARM" "../Middlewares/CMSIS/DSP/Src/SupportFunctions/arm_fill_f64.c"
	.loc	13 51 0                         @ ../Middlewares/CMSIS/DSP/Src/SupportFunctions/arm_fill_f64.c:51:0
	.fnstart
	.cfi_startproc
@ %bb.0:
	.pad	#24
	sub	sp, #24
	.cfi_def_cfa_offset 24
	vstr	d0, [sp, #16]
	str	r0, [sp, #12]
	str	r1, [sp, #8]
.Ltmp101:
	.loc	13 55 12 prologue_end           @ ../Middlewares/CMSIS/DSP/Src/SupportFunctions/arm_fill_f64.c:55:12
	ldr	r0, [sp, #8]
	.loc	13 55 10 is_stmt 0              @ ../Middlewares/CMSIS/DSP/Src/SupportFunctions/arm_fill_f64.c:55:10
	str	r0, [sp, #4]
	.loc	13 57 3 is_stmt 1               @ ../Middlewares/CMSIS/DSP/Src/SupportFunctions/arm_fill_f64.c:57:3
	b	.LBB10_1
.LBB10_1:                               @ =>This Inner Loop Header: Depth=1
	.loc	13 57 10 is_stmt 0              @ ../Middlewares/CMSIS/DSP/Src/SupportFunctions/arm_fill_f64.c:57:10
	ldr	r0, [sp, #4]
	.loc	13 57 3                         @ ../Middlewares/CMSIS/DSP/Src/SupportFunctions/arm_fill_f64.c:57:3
	cbz	r0, .LBB10_3
	b	.LBB10_2
.LBB10_2:                               @   in Loop: Header=BB10_1 Depth=1
.Ltmp102:
	.loc	13 62 15 is_stmt 1              @ ../Middlewares/CMSIS/DSP/Src/SupportFunctions/arm_fill_f64.c:62:15
	vldr	d0, [sp, #16]
	.loc	13 62 10 is_stmt 0              @ ../Middlewares/CMSIS/DSP/Src/SupportFunctions/arm_fill_f64.c:62:10
	ldr	r0, [sp, #12]
	add.w	r1, r0, #8
	str	r1, [sp, #12]
	.loc	13 62 13                        @ ../Middlewares/CMSIS/DSP/Src/SupportFunctions/arm_fill_f64.c:62:13
	vstr	d0, [r0]
	.loc	13 65 11 is_stmt 1              @ ../Middlewares/CMSIS/DSP/Src/SupportFunctions/arm_fill_f64.c:65:11
	ldr	r0, [sp, #4]
	subs	r0, #1
	str	r0, [sp, #4]
.Ltmp103:
	.loc	13 57 3                         @ ../Middlewares/CMSIS/DSP/Src/SupportFunctions/arm_fill_f64.c:57:3
	b	.LBB10_1
.LBB10_3:
	.loc	13 67 1                         @ ../Middlewares/CMSIS/DSP/Src/SupportFunctions/arm_fill_f64.c:67:1
	add	sp, #24
	bx	lr
.Ltmp104:
.Lfunc_end10:
	.size	arm_fill_f64, .Lfunc_end10-arm_fill_f64
	.cfi_endproc
	.cantunwind
	.fnend
                                        @ -- End function
	.section	.text.arm_fill_q15,"ax",%progbits
	.hidden	arm_fill_q15                    @ -- Begin function arm_fill_q15
	.globl	arm_fill_q15
	.p2align	2
	.type	arm_fill_q15,%function
	.code	16                              @ @arm_fill_q15
	.thumb_func
arm_fill_q15:
.Lfunc_begin11:
	.file	14 "D:\\horizon\\Horizon_Infantry (2)\\MDK-ARM" "../Middlewares/CMSIS/DSP/Src/SupportFunctions/arm_fill_q15.c"
	.loc	14 85 0                         @ ../Middlewares/CMSIS/DSP/Src/SupportFunctions/arm_fill_q15.c:85:0
	.fnstart
	.cfi_startproc
@ %bb.0:
	.pad	#16
	sub	sp, #16
	.cfi_def_cfa_offset 16
                                        @ kill: def $r3 killed $r0
	strh.w	r0, [sp, #14]
	str	r1, [sp, #8]
	str	r2, [sp, #4]
.Ltmp105:
	.loc	14 115 12 prologue_end          @ ../Middlewares/CMSIS/DSP/Src/SupportFunctions/arm_fill_q15.c:115:12
	ldr	r0, [sp, #4]
	.loc	14 115 10 is_stmt 0             @ ../Middlewares/CMSIS/DSP/Src/SupportFunctions/arm_fill_q15.c:115:10
	str	r0, [sp]
	.loc	14 119 3 is_stmt 1              @ ../Middlewares/CMSIS/DSP/Src/SupportFunctions/arm_fill_q15.c:119:3
	b	.LBB11_1
.LBB11_1:                               @ =>This Inner Loop Header: Depth=1
	.loc	14 119 10 is_stmt 0             @ ../Middlewares/CMSIS/DSP/Src/SupportFunctions/arm_fill_q15.c:119:10
	ldr	r0, [sp]
	.loc	14 119 3                        @ ../Middlewares/CMSIS/DSP/Src/SupportFunctions/arm_fill_q15.c:119:3
	cbz	r0, .LBB11_3
	b	.LBB11_2
.LBB11_2:                               @   in Loop: Header=BB11_1 Depth=1
.Ltmp106:
	.loc	14 124 15 is_stmt 1             @ ../Middlewares/CMSIS/DSP/Src/SupportFunctions/arm_fill_q15.c:124:15
	ldrh.w	r0, [sp, #14]
	.loc	14 124 10 is_stmt 0             @ ../Middlewares/CMSIS/DSP/Src/SupportFunctions/arm_fill_q15.c:124:10
	ldr	r1, [sp, #8]
	adds	r2, r1, #2
	str	r2, [sp, #8]
	.loc	14 124 13                       @ ../Middlewares/CMSIS/DSP/Src/SupportFunctions/arm_fill_q15.c:124:13
	strh	r0, [r1]
	.loc	14 127 11 is_stmt 1             @ ../Middlewares/CMSIS/DSP/Src/SupportFunctions/arm_fill_q15.c:127:11
	ldr	r0, [sp]
	subs	r0, #1
	str	r0, [sp]
.Ltmp107:
	.loc	14 119 3                        @ ../Middlewares/CMSIS/DSP/Src/SupportFunctions/arm_fill_q15.c:119:3
	b	.LBB11_1
.LBB11_3:
	.loc	14 129 1                        @ ../Middlewares/CMSIS/DSP/Src/SupportFunctions/arm_fill_q15.c:129:1
	add	sp, #16
	bx	lr
.Ltmp108:
.Lfunc_end11:
	.size	arm_fill_q15, .Lfunc_end11-arm_fill_q15
	.cfi_endproc
	.cantunwind
	.fnend
                                        @ -- End function
	.section	.text.arm_fill_q31,"ax",%progbits
	.hidden	arm_fill_q31                    @ -- Begin function arm_fill_q31
	.globl	arm_fill_q31
	.p2align	2
	.type	arm_fill_q31,%function
	.code	16                              @ @arm_fill_q31
	.thumb_func
arm_fill_q31:
.Lfunc_begin12:
	.file	15 "D:\\horizon\\Horizon_Infantry (2)\\MDK-ARM" "../Middlewares/CMSIS/DSP/Src/SupportFunctions/arm_fill_q31.c"
	.loc	15 88 0                         @ ../Middlewares/CMSIS/DSP/Src/SupportFunctions/arm_fill_q31.c:88:0
	.fnstart
	.cfi_startproc
@ %bb.0:
	.pad	#16
	sub	sp, #16
	.cfi_def_cfa_offset 16
	str	r0, [sp, #12]
	str	r1, [sp, #8]
	str	r2, [sp, #4]
.Ltmp109:
	.loc	15 116 12 prologue_end          @ ../Middlewares/CMSIS/DSP/Src/SupportFunctions/arm_fill_q31.c:116:12
	ldr	r0, [sp, #4]
	.loc	15 116 10 is_stmt 0             @ ../Middlewares/CMSIS/DSP/Src/SupportFunctions/arm_fill_q31.c:116:10
	str	r0, [sp]
	.loc	15 120 3 is_stmt 1              @ ../Middlewares/CMSIS/DSP/Src/SupportFunctions/arm_fill_q31.c:120:3
	b	.LBB12_1
.LBB12_1:                               @ =>This Inner Loop Header: Depth=1
	.loc	15 120 10 is_stmt 0             @ ../Middlewares/CMSIS/DSP/Src/SupportFunctions/arm_fill_q31.c:120:10
	ldr	r0, [sp]
	.loc	15 120 3                        @ ../Middlewares/CMSIS/DSP/Src/SupportFunctions/arm_fill_q31.c:120:3
	cbz	r0, .LBB12_3
	b	.LBB12_2
.LBB12_2:                               @   in Loop: Header=BB12_1 Depth=1
.Ltmp110:
	.loc	15 125 15 is_stmt 1             @ ../Middlewares/CMSIS/DSP/Src/SupportFunctions/arm_fill_q31.c:125:15
	ldr	r0, [sp, #12]
	.loc	15 125 10 is_stmt 0             @ ../Middlewares/CMSIS/DSP/Src/SupportFunctions/arm_fill_q31.c:125:10
	ldr	r1, [sp, #8]
	adds	r2, r1, #4
	str	r2, [sp, #8]
	.loc	15 125 13                       @ ../Middlewares/CMSIS/DSP/Src/SupportFunctions/arm_fill_q31.c:125:13
	str	r0, [r1]
	.loc	15 128 11 is_stmt 1             @ ../Middlewares/CMSIS/DSP/Src/SupportFunctions/arm_fill_q31.c:128:11
	ldr	r0, [sp]
	subs	r0, #1
	str	r0, [sp]
.Ltmp111:
	.loc	15 120 3                        @ ../Middlewares/CMSIS/DSP/Src/SupportFunctions/arm_fill_q31.c:120:3
	b	.LBB12_1
.LBB12_3:
	.loc	15 130 1                        @ ../Middlewares/CMSIS/DSP/Src/SupportFunctions/arm_fill_q31.c:130:1
	add	sp, #16
	bx	lr
.Ltmp112:
.Lfunc_end12:
	.size	arm_fill_q31, .Lfunc_end12-arm_fill_q31
	.cfi_endproc
	.cantunwind
	.fnend
                                        @ -- End function
	.section	.text.arm_fill_q7,"ax",%progbits
	.hidden	arm_fill_q7                     @ -- Begin function arm_fill_q7
	.globl	arm_fill_q7
	.p2align	2
	.type	arm_fill_q7,%function
	.code	16                              @ @arm_fill_q7
	.thumb_func
arm_fill_q7:
.Lfunc_begin13:
	.file	16 "D:\\horizon\\Horizon_Infantry (2)\\MDK-ARM" "../Middlewares/CMSIS/DSP/Src/SupportFunctions/arm_fill_q7.c"
	.loc	16 85 0                         @ ../Middlewares/CMSIS/DSP/Src/SupportFunctions/arm_fill_q7.c:85:0
	.fnstart
	.cfi_startproc
@ %bb.0:
	.pad	#16
	sub	sp, #16
	.cfi_def_cfa_offset 16
                                        @ kill: def $r3 killed $r0
	strb.w	r0, [sp, #15]
	str	r1, [sp, #8]
	str	r2, [sp, #4]
.Ltmp113:
	.loc	16 114 12 prologue_end          @ ../Middlewares/CMSIS/DSP/Src/SupportFunctions/arm_fill_q7.c:114:12
	ldr	r0, [sp, #4]
	.loc	16 114 10 is_stmt 0             @ ../Middlewares/CMSIS/DSP/Src/SupportFunctions/arm_fill_q7.c:114:10
	str	r0, [sp]
	.loc	16 118 3 is_stmt 1              @ ../Middlewares/CMSIS/DSP/Src/SupportFunctions/arm_fill_q7.c:118:3
	b	.LBB13_1
.LBB13_1:                               @ =>This Inner Loop Header: Depth=1
	.loc	16 118 10 is_stmt 0             @ ../Middlewares/CMSIS/DSP/Src/SupportFunctions/arm_fill_q7.c:118:10
	ldr	r0, [sp]
	.loc	16 118 3                        @ ../Middlewares/CMSIS/DSP/Src/SupportFunctions/arm_fill_q7.c:118:3
	cbz	r0, .LBB13_3
	b	.LBB13_2
.LBB13_2:                               @   in Loop: Header=BB13_1 Depth=1
.Ltmp114:
	.loc	16 123 15 is_stmt 1             @ ../Middlewares/CMSIS/DSP/Src/SupportFunctions/arm_fill_q7.c:123:15
	ldrb.w	r0, [sp, #15]
	.loc	16 123 10 is_stmt 0             @ ../Middlewares/CMSIS/DSP/Src/SupportFunctions/arm_fill_q7.c:123:10
	ldr	r1, [sp, #8]
	adds	r2, r1, #1
	str	r2, [sp, #8]
	.loc	16 123 13                       @ ../Middlewares/CMSIS/DSP/Src/SupportFunctions/arm_fill_q7.c:123:13
	strb	r0, [r1]
	.loc	16 126 11 is_stmt 1             @ ../Middlewares/CMSIS/DSP/Src/SupportFunctions/arm_fill_q7.c:126:11
	ldr	r0, [sp]
	subs	r0, #1
	str	r0, [sp]
.Ltmp115:
	.loc	16 118 3                        @ ../Middlewares/CMSIS/DSP/Src/SupportFunctions/arm_fill_q7.c:118:3
	b	.LBB13_1
.LBB13_3:
	.loc	16 128 1                        @ ../Middlewares/CMSIS/DSP/Src/SupportFunctions/arm_fill_q7.c:128:1
	add	sp, #16
	bx	lr
.Ltmp116:
.Lfunc_end13:
	.size	arm_fill_q7, .Lfunc_end13-arm_fill_q7
	.cfi_endproc
	.cantunwind
	.fnend
                                        @ -- End function
	.section	.text.arm_heap_sort_f32,"ax",%progbits
	.hidden	arm_heap_sort_f32               @ -- Begin function arm_heap_sort_f32
	.globl	arm_heap_sort_f32
	.p2align	2
	.type	arm_heap_sort_f32,%function
	.code	16                              @ @arm_heap_sort_f32
	.thumb_func
arm_heap_sort_f32:
.Lfunc_begin14:
	.file	17 "D:\\horizon\\Horizon_Infantry (2)\\MDK-ARM" "../Middlewares/CMSIS/DSP/Src/SupportFunctions/arm_heap_sort_f32.c"
	.loc	17 89 0                         @ ../Middlewares/CMSIS/DSP/Src/SupportFunctions/arm_heap_sort_f32.c:89:0
	.fnstart
	.cfi_startproc
@ %bb.0:
	.save	{r7, lr}
	push	{r7, lr}
	.cfi_def_cfa_offset 8
	.cfi_offset lr, -4
	.cfi_offset r7, -8
	.pad	#32
	sub	sp, #32
	.cfi_def_cfa_offset 40
	str	r0, [sp, #28]
	str	r1, [sp, #24]
	str	r2, [sp, #20]
	str	r3, [sp, #16]
.Ltmp117:
	.loc	17 94 8 prologue_end            @ ../Middlewares/CMSIS/DSP/Src/SupportFunctions/arm_heap_sort_f32.c:94:8
	ldr	r0, [sp, #24]
	.loc	17 94 16 is_stmt 0              @ ../Middlewares/CMSIS/DSP/Src/SupportFunctions/arm_heap_sort_f32.c:94:16
	ldr	r1, [sp, #20]
.Ltmp118:
	.loc	17 94 8                         @ ../Middlewares/CMSIS/DSP/Src/SupportFunctions/arm_heap_sort_f32.c:94:8
	cmp	r0, r1
	beq	.LBB14_2
	b	.LBB14_1
.LBB14_1:
.Ltmp119:
	.loc	17 96 16 is_stmt 1              @ ../Middlewares/CMSIS/DSP/Src/SupportFunctions/arm_heap_sort_f32.c:96:16
	ldr	r0, [sp, #20]
	.loc	17 96 22 is_stmt 0              @ ../Middlewares/CMSIS/DSP/Src/SupportFunctions/arm_heap_sort_f32.c:96:22
	ldr	r1, [sp, #24]
	.loc	17 96 28                        @ ../Middlewares/CMSIS/DSP/Src/SupportFunctions/arm_heap_sort_f32.c:96:28
	ldr	r2, [sp, #16]
	.loc	17 96 37                        @ ../Middlewares/CMSIS/DSP/Src/SupportFunctions/arm_heap_sort_f32.c:96:37
	lsls	r2, r2, #2
	.loc	17 96 9                         @ ../Middlewares/CMSIS/DSP/Src/SupportFunctions/arm_heap_sort_f32.c:96:9
	bl	__aeabi_memcpy4
	.loc	17 97 14 is_stmt 1              @ ../Middlewares/CMSIS/DSP/Src/SupportFunctions/arm_heap_sort_f32.c:97:14
	ldr	r0, [sp, #20]
	.loc	17 97 12 is_stmt 0              @ ../Middlewares/CMSIS/DSP/Src/SupportFunctions/arm_heap_sort_f32.c:97:12
	str	r0, [sp, #12]
	.loc	17 98 5 is_stmt 1               @ ../Middlewares/CMSIS/DSP/Src/SupportFunctions/arm_heap_sort_f32.c:98:5
	b	.LBB14_3
.Ltmp120:
.LBB14_2:
	.loc	17 100 14                       @ ../Middlewares/CMSIS/DSP/Src/SupportFunctions/arm_heap_sort_f32.c:100:14
	ldr	r0, [sp, #24]
	.loc	17 100 12 is_stmt 0             @ ../Middlewares/CMSIS/DSP/Src/SupportFunctions/arm_heap_sort_f32.c:100:12
	str	r0, [sp, #12]
	b	.LBB14_3
.Ltmp121:
.LBB14_3:
	.loc	17 103 14 is_stmt 1             @ ../Middlewares/CMSIS/DSP/Src/SupportFunctions/arm_heap_sort_f32.c:103:14
	ldr	r1, [sp, #16]
	mov.w	r0, #-1
	.loc	17 103 26 is_stmt 0             @ ../Middlewares/CMSIS/DSP/Src/SupportFunctions/arm_heap_sort_f32.c:103:26
	add.w	r0, r0, r1, lsr #1
	.loc	17 103 12                       @ ../Middlewares/CMSIS/DSP/Src/SupportFunctions/arm_heap_sort_f32.c:103:12
	str	r0, [sp, #8]
	.loc	17 103 10                       @ ../Middlewares/CMSIS/DSP/Src/SupportFunctions/arm_heap_sort_f32.c:103:10
	b	.LBB14_4
.LBB14_4:                               @ =>This Inner Loop Header: Depth=1
.Ltmp122:
	.loc	17 103 31                       @ ../Middlewares/CMSIS/DSP/Src/SupportFunctions/arm_heap_sort_f32.c:103:31
	ldr	r0, [sp, #8]
.Ltmp123:
	.loc	17 103 5                        @ ../Middlewares/CMSIS/DSP/Src/SupportFunctions/arm_heap_sort_f32.c:103:5
	cmp	r0, #0
	bmi	.LBB14_7
	b	.LBB14_5
.LBB14_5:                               @   in Loop: Header=BB14_4 Depth=1
.Ltmp124:
	.loc	17 104 21 is_stmt 1             @ ../Middlewares/CMSIS/DSP/Src/SupportFunctions/arm_heap_sort_f32.c:104:21
	ldr	r0, [sp, #12]
	.loc	17 104 25 is_stmt 0             @ ../Middlewares/CMSIS/DSP/Src/SupportFunctions/arm_heap_sort_f32.c:104:25
	ldr	r1, [sp, #16]
	.loc	17 104 36                       @ ../Middlewares/CMSIS/DSP/Src/SupportFunctions/arm_heap_sort_f32.c:104:36
	ldr	r2, [sp, #8]
	.loc	17 104 39                       @ ../Middlewares/CMSIS/DSP/Src/SupportFunctions/arm_heap_sort_f32.c:104:39
	ldr	r3, [sp, #28]
	.loc	17 104 42                       @ ../Middlewares/CMSIS/DSP/Src/SupportFunctions/arm_heap_sort_f32.c:104:42
	ldrb	r3, [r3, #1]
	.loc	17 104 9                        @ ../Middlewares/CMSIS/DSP/Src/SupportFunctions/arm_heap_sort_f32.c:104:9
	bl	arm_heapify
	b	.LBB14_6
.LBB14_6:                               @   in Loop: Header=BB14_4 Depth=1
	.loc	17 103 40 is_stmt 1             @ ../Middlewares/CMSIS/DSP/Src/SupportFunctions/arm_heap_sort_f32.c:103:40
	ldr	r0, [sp, #8]
	subs	r0, #1
	str	r0, [sp, #8]
	.loc	17 103 5 is_stmt 0              @ ../Middlewares/CMSIS/DSP/Src/SupportFunctions/arm_heap_sort_f32.c:103:5
	b	.LBB14_4
.Ltmp125:
.LBB14_7:
	.loc	17 106 14 is_stmt 1             @ ../Middlewares/CMSIS/DSP/Src/SupportFunctions/arm_heap_sort_f32.c:106:14
	ldr	r0, [sp, #16]
	.loc	17 106 24 is_stmt 0             @ ../Middlewares/CMSIS/DSP/Src/SupportFunctions/arm_heap_sort_f32.c:106:24
	subs	r0, #1
	.loc	17 106 12                       @ ../Middlewares/CMSIS/DSP/Src/SupportFunctions/arm_heap_sort_f32.c:106:12
	str	r0, [sp, #8]
	.loc	17 106 10                       @ ../Middlewares/CMSIS/DSP/Src/SupportFunctions/arm_heap_sort_f32.c:106:10
	b	.LBB14_8
.LBB14_8:                               @ =>This Inner Loop Header: Depth=1
.Ltmp126:
	.loc	17 106 29                       @ ../Middlewares/CMSIS/DSP/Src/SupportFunctions/arm_heap_sort_f32.c:106:29
	ldr	r0, [sp, #8]
.Ltmp127:
	.loc	17 106 5                        @ ../Middlewares/CMSIS/DSP/Src/SupportFunctions/arm_heap_sort_f32.c:106:5
	cmp	r0, #0
	bmi	.LBB14_11
	b	.LBB14_9
.LBB14_9:                               @   in Loop: Header=BB14_8 Depth=1
.Ltmp128:
	.loc	17 109 9 is_stmt 1              @ ../Middlewares/CMSIS/DSP/Src/SupportFunctions/arm_heap_sort_f32.c:109:9
	ldr	r0, [sp, #12]
	.loc	17 109 12 is_stmt 0             @ ../Middlewares/CMSIS/DSP/Src/SupportFunctions/arm_heap_sort_f32.c:109:12
	ldr	r1, [sp, #8]
	.loc	17 109 9                        @ ../Middlewares/CMSIS/DSP/Src/SupportFunctions/arm_heap_sort_f32.c:109:9
	ldr.w	r0, [r0, r1, lsl #2]
	.loc	17 109 7                        @ ../Middlewares/CMSIS/DSP/Src/SupportFunctions/arm_heap_sort_f32.c:109:7
	str	r0, [sp, #4]
	.loc	17 110 10 is_stmt 1             @ ../Middlewares/CMSIS/DSP/Src/SupportFunctions/arm_heap_sort_f32.c:110:10
	ldr	r1, [sp, #12]
	ldr	r0, [r1]
	.loc	17 110 5 is_stmt 0              @ ../Middlewares/CMSIS/DSP/Src/SupportFunctions/arm_heap_sort_f32.c:110:5
	ldr	r2, [sp, #8]
	.loc	17 110 8                        @ ../Middlewares/CMSIS/DSP/Src/SupportFunctions/arm_heap_sort_f32.c:110:8
	str.w	r0, [r1, r2, lsl #2]
	.loc	17 111 17 is_stmt 1             @ ../Middlewares/CMSIS/DSP/Src/SupportFunctions/arm_heap_sort_f32.c:111:17
	ldr	r0, [sp, #4]
	.loc	17 111 9 is_stmt 0              @ ../Middlewares/CMSIS/DSP/Src/SupportFunctions/arm_heap_sort_f32.c:111:9
	ldr	r1, [sp, #12]
	.loc	17 111 15                       @ ../Middlewares/CMSIS/DSP/Src/SupportFunctions/arm_heap_sort_f32.c:111:15
	str	r0, [r1]
	.loc	17 114 14 is_stmt 1             @ ../Middlewares/CMSIS/DSP/Src/SupportFunctions/arm_heap_sort_f32.c:114:14
	ldr	r0, [sp, #12]
	.loc	17 114 18 is_stmt 0             @ ../Middlewares/CMSIS/DSP/Src/SupportFunctions/arm_heap_sort_f32.c:114:18
	ldr	r1, [sp, #8]
	.loc	17 114 24                       @ ../Middlewares/CMSIS/DSP/Src/SupportFunctions/arm_heap_sort_f32.c:114:24
	ldr	r2, [sp, #28]
	.loc	17 114 27                       @ ../Middlewares/CMSIS/DSP/Src/SupportFunctions/arm_heap_sort_f32.c:114:27
	ldrb	r3, [r2, #1]
	movs	r2, #0
	.loc	17 114 2                        @ ../Middlewares/CMSIS/DSP/Src/SupportFunctions/arm_heap_sort_f32.c:114:2
	bl	arm_heapify
	.loc	17 115 5 is_stmt 1              @ ../Middlewares/CMSIS/DSP/Src/SupportFunctions/arm_heap_sort_f32.c:115:5
	b	.LBB14_10
.Ltmp129:
.LBB14_10:                              @   in Loop: Header=BB14_8 Depth=1
	.loc	17 106 38                       @ ../Middlewares/CMSIS/DSP/Src/SupportFunctions/arm_heap_sort_f32.c:106:38
	ldr	r0, [sp, #8]
	subs	r0, #1
	str	r0, [sp, #8]
	.loc	17 106 5 is_stmt 0              @ ../Middlewares/CMSIS/DSP/Src/SupportFunctions/arm_heap_sort_f32.c:106:5
	b	.LBB14_8
.Ltmp130:
.LBB14_11:
	.loc	17 116 1 is_stmt 1              @ ../Middlewares/CMSIS/DSP/Src/SupportFunctions/arm_heap_sort_f32.c:116:1
	add	sp, #32
	pop	{r7, pc}
.Ltmp131:
.Lfunc_end14:
	.size	arm_heap_sort_f32, .Lfunc_end14-arm_heap_sort_f32
	.cfi_endproc
	.cantunwind
	.fnend
                                        @ -- End function
	.section	.text.arm_heapify,"ax",%progbits
	.p2align	2                               @ -- Begin function arm_heapify
	.type	arm_heapify,%function
	.code	16                              @ @arm_heapify
	.thumb_func
arm_heapify:
.Lfunc_begin15:
	.loc	17 35 0                         @ ../Middlewares/CMSIS/DSP/Src/SupportFunctions/arm_heap_sort_f32.c:35:0
	.fnstart
	.cfi_startproc
@ %bb.0:
	.save	{r7, lr}
	push	{r7, lr}
	.cfi_def_cfa_offset 8
	.cfi_offset lr, -4
	.cfi_offset r7, -8
	.pad	#32
	sub	sp, #32
	.cfi_def_cfa_offset 40
                                        @ kill: def $r12 killed $r3
	str	r0, [sp, #28]
	str	r1, [sp, #24]
	str	r2, [sp, #20]
	strb.w	r3, [sp, #19]
.Ltmp132:
	.loc	17 37 18 prologue_end           @ ../Middlewares/CMSIS/DSP/Src/SupportFunctions/arm_heap_sort_f32.c:37:18
	ldr	r0, [sp, #20]
	.loc	17 37 14 is_stmt 0              @ ../Middlewares/CMSIS/DSP/Src/SupportFunctions/arm_heap_sort_f32.c:37:14
	str	r0, [sp, #12]
	.loc	17 38 20 is_stmt 1              @ ../Middlewares/CMSIS/DSP/Src/SupportFunctions/arm_heap_sort_f32.c:38:20
	ldr	r0, [sp, #20]
	.loc	17 38 19 is_stmt 0              @ ../Middlewares/CMSIS/DSP/Src/SupportFunctions/arm_heap_sort_f32.c:38:19
	lsls	r0, r0, #1
	.loc	17 38 22                        @ ../Middlewares/CMSIS/DSP/Src/SupportFunctions/arm_heap_sort_f32.c:38:22
	adds	r0, #1
	.loc	17 38 14                        @ ../Middlewares/CMSIS/DSP/Src/SupportFunctions/arm_heap_sort_f32.c:38:14
	str	r0, [sp, #8]
	.loc	17 39 20 is_stmt 1              @ ../Middlewares/CMSIS/DSP/Src/SupportFunctions/arm_heap_sort_f32.c:39:20
	ldr	r1, [sp, #20]
	movs	r0, #2
	.loc	17 39 22 is_stmt 0              @ ../Middlewares/CMSIS/DSP/Src/SupportFunctions/arm_heap_sort_f32.c:39:22
	add.w	r0, r0, r1, lsl #1
	.loc	17 39 14                        @ ../Middlewares/CMSIS/DSP/Src/SupportFunctions/arm_heap_sort_f32.c:39:14
	str	r0, [sp, #4]
.Ltmp133:
	.loc	17 42 9 is_stmt 1               @ ../Middlewares/CMSIS/DSP/Src/SupportFunctions/arm_heap_sort_f32.c:42:9
	ldr	r0, [sp, #8]
	.loc	17 42 13 is_stmt 0              @ ../Middlewares/CMSIS/DSP/Src/SupportFunctions/arm_heap_sort_f32.c:42:13
	ldr	r1, [sp, #24]
	.loc	17 42 15                        @ ../Middlewares/CMSIS/DSP/Src/SupportFunctions/arm_heap_sort_f32.c:42:15
	cmp	r0, r1
	bhs	.LBB15_3
	b	.LBB15_1
.LBB15_1:
	.loc	17 42 18                        @ ../Middlewares/CMSIS/DSP/Src/SupportFunctions/arm_heap_sort_f32.c:42:18
	ldrb.w	r0, [sp, #19]
	.loc	17 42 24                        @ ../Middlewares/CMSIS/DSP/Src/SupportFunctions/arm_heap_sort_f32.c:42:24
	ldr	r1, [sp, #28]
	.loc	17 42 29                        @ ../Middlewares/CMSIS/DSP/Src/SupportFunctions/arm_heap_sort_f32.c:42:29
	ldr	r2, [sp, #8]
	.loc	17 42 24                        @ ../Middlewares/CMSIS/DSP/Src/SupportFunctions/arm_heap_sort_f32.c:42:24
	add.w	r2, r1, r2, lsl #2
	vldr	s0, [r2]
	.loc	17 42 39                        @ ../Middlewares/CMSIS/DSP/Src/SupportFunctions/arm_heap_sort_f32.c:42:39
	ldr	r2, [sp, #12]
	.loc	17 42 34                        @ ../Middlewares/CMSIS/DSP/Src/SupportFunctions/arm_heap_sort_f32.c:42:34
	add.w	r1, r1, r2, lsl #2
	vldr	s2, [r1]
	movs	r1, #0
	.loc	17 42 32                        @ ../Middlewares/CMSIS/DSP/Src/SupportFunctions/arm_heap_sort_f32.c:42:32
	vcmp.f32	s0, s2
	vmrs	APSR_nzcv, fpscr
	it	gt
	movgt	r1, #1
.Ltmp134:
	.loc	17 42 9                         @ ../Middlewares/CMSIS/DSP/Src/SupportFunctions/arm_heap_sort_f32.c:42:9
	cmp	r0, r1
	bne	.LBB15_3
	b	.LBB15_2
.LBB15_2:
.Ltmp135:
	.loc	17 43 13 is_stmt 1              @ ../Middlewares/CMSIS/DSP/Src/SupportFunctions/arm_heap_sort_f32.c:43:13
	ldr	r0, [sp, #8]
	.loc	17 43 11 is_stmt 0              @ ../Middlewares/CMSIS/DSP/Src/SupportFunctions/arm_heap_sort_f32.c:43:11
	str	r0, [sp, #12]
	.loc	17 43 9                         @ ../Middlewares/CMSIS/DSP/Src/SupportFunctions/arm_heap_sort_f32.c:43:9
	b	.LBB15_3
.Ltmp136:
.LBB15_3:
	.loc	17 45 9 is_stmt 1               @ ../Middlewares/CMSIS/DSP/Src/SupportFunctions/arm_heap_sort_f32.c:45:9
	ldr	r0, [sp, #4]
	.loc	17 45 13 is_stmt 0              @ ../Middlewares/CMSIS/DSP/Src/SupportFunctions/arm_heap_sort_f32.c:45:13
	ldr	r1, [sp, #24]
	.loc	17 45 15                        @ ../Middlewares/CMSIS/DSP/Src/SupportFunctions/arm_heap_sort_f32.c:45:15
	cmp	r0, r1
	bhs	.LBB15_6
	b	.LBB15_4
.LBB15_4:
	.loc	17 45 18                        @ ../Middlewares/CMSIS/DSP/Src/SupportFunctions/arm_heap_sort_f32.c:45:18
	ldrb.w	r0, [sp, #19]
	.loc	17 45 24                        @ ../Middlewares/CMSIS/DSP/Src/SupportFunctions/arm_heap_sort_f32.c:45:24
	ldr	r1, [sp, #28]
	.loc	17 45 29                        @ ../Middlewares/CMSIS/DSP/Src/SupportFunctions/arm_heap_sort_f32.c:45:29
	ldr	r2, [sp, #4]
	.loc	17 45 24                        @ ../Middlewares/CMSIS/DSP/Src/SupportFunctions/arm_heap_sort_f32.c:45:24
	add.w	r2, r1, r2, lsl #2
	vldr	s0, [r2]
	.loc	17 45 39                        @ ../Middlewares/CMSIS/DSP/Src/SupportFunctions/arm_heap_sort_f32.c:45:39
	ldr	r2, [sp, #12]
	.loc	17 45 34                        @ ../Middlewares/CMSIS/DSP/Src/SupportFunctions/arm_heap_sort_f32.c:45:34
	add.w	r1, r1, r2, lsl #2
	vldr	s2, [r1]
	movs	r1, #0
	.loc	17 45 32                        @ ../Middlewares/CMSIS/DSP/Src/SupportFunctions/arm_heap_sort_f32.c:45:32
	vcmp.f32	s0, s2
	vmrs	APSR_nzcv, fpscr
	it	gt
	movgt	r1, #1
.Ltmp137:
	.loc	17 45 9                         @ ../Middlewares/CMSIS/DSP/Src/SupportFunctions/arm_heap_sort_f32.c:45:9
	cmp	r0, r1
	bne	.LBB15_6
	b	.LBB15_5
.LBB15_5:
.Ltmp138:
	.loc	17 46 13 is_stmt 1              @ ../Middlewares/CMSIS/DSP/Src/SupportFunctions/arm_heap_sort_f32.c:46:13
	ldr	r0, [sp, #4]
	.loc	17 46 11 is_stmt 0              @ ../Middlewares/CMSIS/DSP/Src/SupportFunctions/arm_heap_sort_f32.c:46:11
	str	r0, [sp, #12]
	.loc	17 46 9                         @ ../Middlewares/CMSIS/DSP/Src/SupportFunctions/arm_heap_sort_f32.c:46:9
	b	.LBB15_6
.Ltmp139:
.LBB15_6:
	.loc	17 48 9 is_stmt 1               @ ../Middlewares/CMSIS/DSP/Src/SupportFunctions/arm_heap_sort_f32.c:48:9
	ldr	r0, [sp, #12]
	.loc	17 48 14 is_stmt 0              @ ../Middlewares/CMSIS/DSP/Src/SupportFunctions/arm_heap_sort_f32.c:48:14
	ldr	r1, [sp, #20]
.Ltmp140:
	.loc	17 48 9                         @ ../Middlewares/CMSIS/DSP/Src/SupportFunctions/arm_heap_sort_f32.c:48:9
	cmp	r0, r1
	beq	.LBB15_8
	b	.LBB15_7
.LBB15_7:
.Ltmp141:
	.loc	17 50 9 is_stmt 1               @ ../Middlewares/CMSIS/DSP/Src/SupportFunctions/arm_heap_sort_f32.c:50:9
	ldr	r0, [sp, #28]
	.loc	17 50 14 is_stmt 0              @ ../Middlewares/CMSIS/DSP/Src/SupportFunctions/arm_heap_sort_f32.c:50:14
	ldr	r1, [sp, #20]
	.loc	17 50 9                         @ ../Middlewares/CMSIS/DSP/Src/SupportFunctions/arm_heap_sort_f32.c:50:9
	ldr.w	r0, [r0, r1, lsl #2]
	.loc	17 50 7                         @ ../Middlewares/CMSIS/DSP/Src/SupportFunctions/arm_heap_sort_f32.c:50:7
	str	r0, [sp]
	.loc	17 51 10 is_stmt 1              @ ../Middlewares/CMSIS/DSP/Src/SupportFunctions/arm_heap_sort_f32.c:51:10
	ldr	r1, [sp, #28]
	.loc	17 51 15 is_stmt 0              @ ../Middlewares/CMSIS/DSP/Src/SupportFunctions/arm_heap_sort_f32.c:51:15
	ldr	r0, [sp, #12]
	.loc	17 51 10                        @ ../Middlewares/CMSIS/DSP/Src/SupportFunctions/arm_heap_sort_f32.c:51:10
	ldr.w	r0, [r1, r0, lsl #2]
	.loc	17 51 7                         @ ../Middlewares/CMSIS/DSP/Src/SupportFunctions/arm_heap_sort_f32.c:51:7
	ldr	r2, [sp, #20]
	.loc	17 51 9                         @ ../Middlewares/CMSIS/DSP/Src/SupportFunctions/arm_heap_sort_f32.c:51:9
	str.w	r0, [r1, r2, lsl #2]
	.loc	17 52 10 is_stmt 1              @ ../Middlewares/CMSIS/DSP/Src/SupportFunctions/arm_heap_sort_f32.c:52:10
	ldr	r0, [sp]
	.loc	17 52 2 is_stmt 0               @ ../Middlewares/CMSIS/DSP/Src/SupportFunctions/arm_heap_sort_f32.c:52:2
	ldr	r1, [sp, #28]
	.loc	17 52 7                         @ ../Middlewares/CMSIS/DSP/Src/SupportFunctions/arm_heap_sort_f32.c:52:7
	ldr	r2, [sp, #12]
	.loc	17 52 9                         @ ../Middlewares/CMSIS/DSP/Src/SupportFunctions/arm_heap_sort_f32.c:52:9
	str.w	r0, [r1, r2, lsl #2]
	.loc	17 54 21 is_stmt 1              @ ../Middlewares/CMSIS/DSP/Src/SupportFunctions/arm_heap_sort_f32.c:54:21
	ldr	r0, [sp, #28]
	.loc	17 54 27 is_stmt 0              @ ../Middlewares/CMSIS/DSP/Src/SupportFunctions/arm_heap_sort_f32.c:54:27
	ldr	r1, [sp, #24]
	.loc	17 54 30                        @ ../Middlewares/CMSIS/DSP/Src/SupportFunctions/arm_heap_sort_f32.c:54:30
	ldr	r2, [sp, #12]
	.loc	17 54 33                        @ ../Middlewares/CMSIS/DSP/Src/SupportFunctions/arm_heap_sort_f32.c:54:33
	ldrb.w	r3, [sp, #19]
	.loc	17 54 9                         @ ../Middlewares/CMSIS/DSP/Src/SupportFunctions/arm_heap_sort_f32.c:54:9
	bl	arm_heapify
	.loc	17 55 5 is_stmt 1               @ ../Middlewares/CMSIS/DSP/Src/SupportFunctions/arm_heap_sort_f32.c:55:5
	b	.LBB15_8
.Ltmp142:
.LBB15_8:
	.loc	17 56 1                         @ ../Middlewares/CMSIS/DSP/Src/SupportFunctions/arm_heap_sort_f32.c:56:1
	add	sp, #32
	pop	{r7, pc}
.Ltmp143:
.Lfunc_end15:
	.size	arm_heapify, .Lfunc_end15-arm_heapify
	.cfi_endproc
	.cantunwind
	.fnend
                                        @ -- End function
	.section	.text.arm_insertion_sort_f32,"ax",%progbits
	.hidden	arm_insertion_sort_f32          @ -- Begin function arm_insertion_sort_f32
	.globl	arm_insertion_sort_f32
	.p2align	2
	.type	arm_insertion_sort_f32,%function
	.code	16                              @ @arm_insertion_sort_f32
	.thumb_func
arm_insertion_sort_f32:
.Lfunc_begin16:
	.file	18 "D:\\horizon\\Horizon_Infantry (2)\\MDK-ARM" "../Middlewares/CMSIS/DSP/Src/SupportFunctions/arm_insertion_sort_f32.c"
	.loc	18 63 0                         @ ../Middlewares/CMSIS/DSP/Src/SupportFunctions/arm_insertion_sort_f32.c:63:0
	.fnstart
	.cfi_startproc
@ %bb.0:
	.save	{r7, lr}
	push	{r7, lr}
	.cfi_def_cfa_offset 8
	.cfi_offset lr, -4
	.cfi_offset r7, -8
	.pad	#40
	sub	sp, #40
	.cfi_def_cfa_offset 48
	str	r0, [sp, #36]
	str	r1, [sp, #32]
	str	r2, [sp, #28]
	str	r3, [sp, #24]
.Ltmp144:
	.loc	18 65 19 prologue_end           @ ../Middlewares/CMSIS/DSP/Src/SupportFunctions/arm_insertion_sort_f32.c:65:19
	ldr	r0, [sp, #36]
	.loc	18 65 22 is_stmt 0              @ ../Middlewares/CMSIS/DSP/Src/SupportFunctions/arm_insertion_sort_f32.c:65:22
	ldrb	r0, [r0, #1]
	.loc	18 65 13                        @ ../Middlewares/CMSIS/DSP/Src/SupportFunctions/arm_insertion_sort_f32.c:65:13
	strb.w	r0, [sp, #19]
.Ltmp145:
	.loc	18 69 8 is_stmt 1               @ ../Middlewares/CMSIS/DSP/Src/SupportFunctions/arm_insertion_sort_f32.c:69:8
	ldr	r0, [sp, #32]
	.loc	18 69 16 is_stmt 0              @ ../Middlewares/CMSIS/DSP/Src/SupportFunctions/arm_insertion_sort_f32.c:69:16
	ldr	r1, [sp, #28]
.Ltmp146:
	.loc	18 69 8                         @ ../Middlewares/CMSIS/DSP/Src/SupportFunctions/arm_insertion_sort_f32.c:69:8
	cmp	r0, r1
	beq	.LBB16_2
	b	.LBB16_1
.LBB16_1:
.Ltmp147:
	.loc	18 71 16 is_stmt 1              @ ../Middlewares/CMSIS/DSP/Src/SupportFunctions/arm_insertion_sort_f32.c:71:16
	ldr	r0, [sp, #28]
	.loc	18 71 22 is_stmt 0              @ ../Middlewares/CMSIS/DSP/Src/SupportFunctions/arm_insertion_sort_f32.c:71:22
	ldr	r1, [sp, #32]
	.loc	18 71 28                        @ ../Middlewares/CMSIS/DSP/Src/SupportFunctions/arm_insertion_sort_f32.c:71:28
	ldr	r2, [sp, #24]
	.loc	18 71 37                        @ ../Middlewares/CMSIS/DSP/Src/SupportFunctions/arm_insertion_sort_f32.c:71:37
	lsls	r2, r2, #2
	.loc	18 71 9                         @ ../Middlewares/CMSIS/DSP/Src/SupportFunctions/arm_insertion_sort_f32.c:71:9
	bl	__aeabi_memcpy4
	.loc	18 72 14 is_stmt 1              @ ../Middlewares/CMSIS/DSP/Src/SupportFunctions/arm_insertion_sort_f32.c:72:14
	ldr	r0, [sp, #28]
	.loc	18 72 12 is_stmt 0              @ ../Middlewares/CMSIS/DSP/Src/SupportFunctions/arm_insertion_sort_f32.c:72:12
	str	r0, [sp, #20]
	.loc	18 73 5 is_stmt 1               @ ../Middlewares/CMSIS/DSP/Src/SupportFunctions/arm_insertion_sort_f32.c:73:5
	b	.LBB16_3
.Ltmp148:
.LBB16_2:
	.loc	18 75 14                        @ ../Middlewares/CMSIS/DSP/Src/SupportFunctions/arm_insertion_sort_f32.c:75:14
	ldr	r0, [sp, #32]
	.loc	18 75 12 is_stmt 0              @ ../Middlewares/CMSIS/DSP/Src/SupportFunctions/arm_insertion_sort_f32.c:75:12
	str	r0, [sp, #20]
	b	.LBB16_3
.Ltmp149:
.LBB16_3:
	.loc	18 0 12                         @ ../Middlewares/CMSIS/DSP/Src/SupportFunctions/arm_insertion_sort_f32.c:0:12
	movs	r0, #0
.Ltmp150:
	.loc	18 78 10 is_stmt 1              @ ../Middlewares/CMSIS/DSP/Src/SupportFunctions/arm_insertion_sort_f32.c:78:10
	str	r0, [sp, #12]
	.loc	18 78 9 is_stmt 0               @ ../Middlewares/CMSIS/DSP/Src/SupportFunctions/arm_insertion_sort_f32.c:78:9
	b	.LBB16_4
.LBB16_4:                               @ =>This Loop Header: Depth=1
                                        @     Child Loop BB16_6 Depth 2
.Ltmp151:
	.loc	18 78 14                        @ ../Middlewares/CMSIS/DSP/Src/SupportFunctions/arm_insertion_sort_f32.c:78:14
	ldr	r0, [sp, #12]
	.loc	18 78 16                        @ ../Middlewares/CMSIS/DSP/Src/SupportFunctions/arm_insertion_sort_f32.c:78:16
	ldr	r1, [sp, #24]
.Ltmp152:
	.loc	18 78 5                         @ ../Middlewares/CMSIS/DSP/Src/SupportFunctions/arm_insertion_sort_f32.c:78:5
	cmp	r0, r1
	bhs	.LBB16_13
	b	.LBB16_5
.LBB16_5:                               @   in Loop: Header=BB16_4 Depth=1
.Ltmp153:
	.loc	18 81 18 is_stmt 1              @ ../Middlewares/CMSIS/DSP/Src/SupportFunctions/arm_insertion_sort_f32.c:81:18
	ldr	r0, [sp, #12]
	.loc	18 81 16 is_stmt 0              @ ../Middlewares/CMSIS/DSP/Src/SupportFunctions/arm_insertion_sort_f32.c:81:16
	str	r0, [sp, #8]
	.loc	18 81 14                        @ ../Middlewares/CMSIS/DSP/Src/SupportFunctions/arm_insertion_sort_f32.c:81:14
	b	.LBB16_6
.LBB16_6:                               @   Parent Loop BB16_4 Depth=1
                                        @ =>  This Inner Loop Header: Depth=2
.Ltmp154:
	.loc	18 81 21                        @ ../Middlewares/CMSIS/DSP/Src/SupportFunctions/arm_insertion_sort_f32.c:81:21
	ldr	r1, [sp, #8]
	movs	r0, #0
	.loc	18 81 25                        @ ../Middlewares/CMSIS/DSP/Src/SupportFunctions/arm_insertion_sort_f32.c:81:25
	str	r0, [sp]                        @ 4-byte Spill
	cbz	r1, .LBB16_8
	b	.LBB16_7
.LBB16_7:                               @   in Loop: Header=BB16_6 Depth=2
	.loc	18 81 28                        @ ../Middlewares/CMSIS/DSP/Src/SupportFunctions/arm_insertion_sort_f32.c:81:28
	ldrb.w	r0, [sp, #19]
	.loc	18 81 34                        @ ../Middlewares/CMSIS/DSP/Src/SupportFunctions/arm_insertion_sort_f32.c:81:34
	ldr	r1, [sp, #20]
	.loc	18 81 37                        @ ../Middlewares/CMSIS/DSP/Src/SupportFunctions/arm_insertion_sort_f32.c:81:37
	ldr	r2, [sp, #8]
	.loc	18 81 34                        @ ../Middlewares/CMSIS/DSP/Src/SupportFunctions/arm_insertion_sort_f32.c:81:34
	add.w	r1, r1, r2, lsl #2
	vldr	s0, [r1]
	.loc	18 81 40                        @ ../Middlewares/CMSIS/DSP/Src/SupportFunctions/arm_insertion_sort_f32.c:81:40
	vldr	s2, [r1, #-4]
	movs	r1, #0
	.loc	18 81 39                        @ ../Middlewares/CMSIS/DSP/Src/SupportFunctions/arm_insertion_sort_f32.c:81:39
	vcmp.f32	s0, s2
	vmrs	APSR_nzcv, fpscr
	it	lt
	movlt	r1, #1
	.loc	18 81 31                        @ ../Middlewares/CMSIS/DSP/Src/SupportFunctions/arm_insertion_sort_f32.c:81:31
	subs	r0, r0, r1
	clz	r0, r0
	lsrs	r0, r0, #5
	str	r0, [sp]                        @ 4-byte Spill
	b	.LBB16_8
.LBB16_8:                               @   in Loop: Header=BB16_6 Depth=2
	.loc	18 0 0                          @ ../Middlewares/CMSIS/DSP/Src/SupportFunctions/arm_insertion_sort_f32.c:0:0
	ldr	r0, [sp]                        @ 4-byte Reload
.Ltmp155:
	.loc	18 81 9                         @ ../Middlewares/CMSIS/DSP/Src/SupportFunctions/arm_insertion_sort_f32.c:81:9
	lsls	r0, r0, #31
	cbz	r0, .LBB16_11
	b	.LBB16_9
.LBB16_9:                               @   in Loop: Header=BB16_6 Depth=2
.Ltmp156:
	.loc	18 84 20 is_stmt 1              @ ../Middlewares/CMSIS/DSP/Src/SupportFunctions/arm_insertion_sort_f32.c:84:20
	ldr	r0, [sp, #20]
	.loc	18 84 23 is_stmt 0              @ ../Middlewares/CMSIS/DSP/Src/SupportFunctions/arm_insertion_sort_f32.c:84:23
	ldr	r1, [sp, #8]
	.loc	18 84 20                        @ ../Middlewares/CMSIS/DSP/Src/SupportFunctions/arm_insertion_sort_f32.c:84:20
	ldr.w	r0, [r0, r1, lsl #2]
	.loc	18 84 18                        @ ../Middlewares/CMSIS/DSP/Src/SupportFunctions/arm_insertion_sort_f32.c:84:18
	str	r0, [sp, #4]
	.loc	18 85 14 is_stmt 1              @ ../Middlewares/CMSIS/DSP/Src/SupportFunctions/arm_insertion_sort_f32.c:85:14
	ldr	r1, [sp, #20]
	.loc	18 85 17 is_stmt 0              @ ../Middlewares/CMSIS/DSP/Src/SupportFunctions/arm_insertion_sort_f32.c:85:17
	ldr	r2, [sp, #8]
	.loc	18 85 6                         @ ../Middlewares/CMSIS/DSP/Src/SupportFunctions/arm_insertion_sort_f32.c:85:6
	add.w	r0, r1, r2, lsl #2
	.loc	18 85 14                        @ ../Middlewares/CMSIS/DSP/Src/SupportFunctions/arm_insertion_sort_f32.c:85:14
	ldr	r0, [r0, #-4]
	.loc	18 85 12                        @ ../Middlewares/CMSIS/DSP/Src/SupportFunctions/arm_insertion_sort_f32.c:85:12
	str.w	r0, [r1, r2, lsl #2]
	.loc	18 86 16 is_stmt 1              @ ../Middlewares/CMSIS/DSP/Src/SupportFunctions/arm_insertion_sort_f32.c:86:16
	ldr	r0, [sp, #4]
	.loc	18 86 6 is_stmt 0               @ ../Middlewares/CMSIS/DSP/Src/SupportFunctions/arm_insertion_sort_f32.c:86:6
	ldr	r1, [sp, #20]
	.loc	18 86 9                         @ ../Middlewares/CMSIS/DSP/Src/SupportFunctions/arm_insertion_sort_f32.c:86:9
	ldr	r2, [sp, #8]
	.loc	18 86 6                         @ ../Middlewares/CMSIS/DSP/Src/SupportFunctions/arm_insertion_sort_f32.c:86:6
	add.w	r1, r1, r2, lsl #2
	.loc	18 86 14                        @ ../Middlewares/CMSIS/DSP/Src/SupportFunctions/arm_insertion_sort_f32.c:86:14
	str	r0, [r1, #-4]
	.loc	18 87 9 is_stmt 1               @ ../Middlewares/CMSIS/DSP/Src/SupportFunctions/arm_insertion_sort_f32.c:87:9
	b	.LBB16_10
.Ltmp157:
.LBB16_10:                              @   in Loop: Header=BB16_6 Depth=2
	.loc	18 81 51                        @ ../Middlewares/CMSIS/DSP/Src/SupportFunctions/arm_insertion_sort_f32.c:81:51
	ldr	r0, [sp, #8]
	subs	r0, #1
	str	r0, [sp, #8]
	.loc	18 81 9 is_stmt 0               @ ../Middlewares/CMSIS/DSP/Src/SupportFunctions/arm_insertion_sort_f32.c:81:9
	b	.LBB16_6
.Ltmp158:
.LBB16_11:                              @   in Loop: Header=BB16_4 Depth=1
	.loc	18 88 5 is_stmt 1               @ ../Middlewares/CMSIS/DSP/Src/SupportFunctions/arm_insertion_sort_f32.c:88:5
	b	.LBB16_12
.Ltmp159:
.LBB16_12:                              @   in Loop: Header=BB16_4 Depth=1
	.loc	18 78 28                        @ ../Middlewares/CMSIS/DSP/Src/SupportFunctions/arm_insertion_sort_f32.c:78:28
	ldr	r0, [sp, #12]
	adds	r0, #1
	str	r0, [sp, #12]
	.loc	18 78 5 is_stmt 0               @ ../Middlewares/CMSIS/DSP/Src/SupportFunctions/arm_insertion_sort_f32.c:78:5
	b	.LBB16_4
.Ltmp160:
.LBB16_13:
	.loc	18 89 1 is_stmt 1               @ ../Middlewares/CMSIS/DSP/Src/SupportFunctions/arm_insertion_sort_f32.c:89:1
	add	sp, #40
	pop	{r7, pc}
.Ltmp161:
.Lfunc_end16:
	.size	arm_insertion_sort_f32, .Lfunc_end16-arm_insertion_sort_f32
	.cfi_endproc
	.cantunwind
	.fnend
                                        @ -- End function
	.section	.text.arm_merge_sort_f32,"ax",%progbits
	.hidden	arm_merge_sort_f32              @ -- Begin function arm_merge_sort_f32
	.globl	arm_merge_sort_f32
	.p2align	2
	.type	arm_merge_sort_f32,%function
	.code	16                              @ @arm_merge_sort_f32
	.thumb_func
arm_merge_sort_f32:
.Lfunc_begin17:
	.file	19 "D:\\horizon\\Horizon_Infantry (2)\\MDK-ARM" "../Middlewares/CMSIS/DSP/Src/SupportFunctions/arm_merge_sort_f32.c"
	.loc	19 108 0                        @ ../Middlewares/CMSIS/DSP/Src/SupportFunctions/arm_merge_sort_f32.c:108:0
	.fnstart
	.cfi_startproc
@ %bb.0:
	.save	{r7, lr}
	push	{r7, lr}
	.cfi_def_cfa_offset 8
	.cfi_offset lr, -4
	.cfi_offset r7, -8
	.pad	#24
	sub	sp, #24
	.cfi_def_cfa_offset 32
	str	r0, [sp, #20]
	str	r1, [sp, #16]
	str	r2, [sp, #12]
	str	r3, [sp, #8]
.Ltmp162:
	.loc	19 112 8 prologue_end           @ ../Middlewares/CMSIS/DSP/Src/SupportFunctions/arm_merge_sort_f32.c:112:8
	ldr	r0, [sp, #16]
	.loc	19 112 16 is_stmt 0             @ ../Middlewares/CMSIS/DSP/Src/SupportFunctions/arm_merge_sort_f32.c:112:16
	ldr	r1, [sp, #12]
.Ltmp163:
	.loc	19 112 8                        @ ../Middlewares/CMSIS/DSP/Src/SupportFunctions/arm_merge_sort_f32.c:112:8
	cmp	r0, r1
	beq	.LBB17_2
	b	.LBB17_1
.LBB17_1:
.Ltmp164:
	.loc	19 114 16 is_stmt 1             @ ../Middlewares/CMSIS/DSP/Src/SupportFunctions/arm_merge_sort_f32.c:114:16
	ldr	r0, [sp, #12]
	.loc	19 114 22 is_stmt 0             @ ../Middlewares/CMSIS/DSP/Src/SupportFunctions/arm_merge_sort_f32.c:114:22
	ldr	r1, [sp, #16]
	.loc	19 114 28                       @ ../Middlewares/CMSIS/DSP/Src/SupportFunctions/arm_merge_sort_f32.c:114:28
	ldr	r2, [sp, #8]
	.loc	19 114 37                       @ ../Middlewares/CMSIS/DSP/Src/SupportFunctions/arm_merge_sort_f32.c:114:37
	lsls	r2, r2, #2
	.loc	19 114 9                        @ ../Middlewares/CMSIS/DSP/Src/SupportFunctions/arm_merge_sort_f32.c:114:9
	bl	__aeabi_memcpy4
	.loc	19 115 14 is_stmt 1             @ ../Middlewares/CMSIS/DSP/Src/SupportFunctions/arm_merge_sort_f32.c:115:14
	ldr	r0, [sp, #12]
	.loc	19 115 12 is_stmt 0             @ ../Middlewares/CMSIS/DSP/Src/SupportFunctions/arm_merge_sort_f32.c:115:12
	str	r0, [sp, #4]
	.loc	19 116 5 is_stmt 1              @ ../Middlewares/CMSIS/DSP/Src/SupportFunctions/arm_merge_sort_f32.c:116:5
	b	.LBB17_3
.Ltmp165:
.LBB17_2:
	.loc	19 118 14                       @ ../Middlewares/CMSIS/DSP/Src/SupportFunctions/arm_merge_sort_f32.c:118:14
	ldr	r0, [sp, #16]
	.loc	19 118 12 is_stmt 0             @ ../Middlewares/CMSIS/DSP/Src/SupportFunctions/arm_merge_sort_f32.c:118:12
	str	r0, [sp, #4]
	b	.LBB17_3
.Ltmp166:
.LBB17_3:
	.loc	19 121 12 is_stmt 1             @ ../Middlewares/CMSIS/DSP/Src/SupportFunctions/arm_merge_sort_f32.c:121:12
	ldr	r0, [sp, #20]
	.loc	19 121 15 is_stmt 0             @ ../Middlewares/CMSIS/DSP/Src/SupportFunctions/arm_merge_sort_f32.c:121:15
	ldr	r0, [r0, #4]
	.loc	19 121 23                       @ ../Middlewares/CMSIS/DSP/Src/SupportFunctions/arm_merge_sort_f32.c:121:23
	ldr	r1, [sp, #16]
	.loc	19 121 29                       @ ../Middlewares/CMSIS/DSP/Src/SupportFunctions/arm_merge_sort_f32.c:121:29
	ldr	r2, [sp, #8]
	.loc	19 121 38                       @ ../Middlewares/CMSIS/DSP/Src/SupportFunctions/arm_merge_sort_f32.c:121:38
	lsls	r2, r2, #2
	.loc	19 121 5                        @ ../Middlewares/CMSIS/DSP/Src/SupportFunctions/arm_merge_sort_f32.c:121:5
	bl	__aeabi_memcpy4
	.loc	19 123 29 is_stmt 1             @ ../Middlewares/CMSIS/DSP/Src/SupportFunctions/arm_merge_sort_f32.c:123:29
	ldr	r1, [sp, #20]
	.loc	19 123 32 is_stmt 0             @ ../Middlewares/CMSIS/DSP/Src/SupportFunctions/arm_merge_sort_f32.c:123:32
	ldr	r0, [r1, #4]
	.loc	19 123 43                       @ ../Middlewares/CMSIS/DSP/Src/SupportFunctions/arm_merge_sort_f32.c:123:43
	ldr	r2, [sp, #8]
	.loc	19 123 54                       @ ../Middlewares/CMSIS/DSP/Src/SupportFunctions/arm_merge_sort_f32.c:123:54
	ldr	r3, [sp, #4]
	.loc	19 123 61                       @ ../Middlewares/CMSIS/DSP/Src/SupportFunctions/arm_merge_sort_f32.c:123:61
	ldrb	r1, [r1]
	.loc	19 123 5                        @ ../Middlewares/CMSIS/DSP/Src/SupportFunctions/arm_merge_sort_f32.c:123:5
	mov	r12, sp
	str.w	r1, [r12]
	movs	r1, #0
	bl	arm_merge_sort_core_f32
	.loc	19 124 1 is_stmt 1              @ ../Middlewares/CMSIS/DSP/Src/SupportFunctions/arm_merge_sort_f32.c:124:1
	add	sp, #24
	pop	{r7, pc}
.Ltmp167:
.Lfunc_end17:
	.size	arm_merge_sort_f32, .Lfunc_end17-arm_merge_sort_f32
	.cfi_endproc
	.cantunwind
	.fnend
                                        @ -- End function
	.section	.text.arm_merge_sort_core_f32,"ax",%progbits
	.p2align	2                               @ -- Begin function arm_merge_sort_core_f32
	.type	arm_merge_sort_core_f32,%function
	.code	16                              @ @arm_merge_sort_core_f32
	.thumb_func
arm_merge_sort_core_f32:
.Lfunc_begin18:
	.loc	19 62 0                         @ ../Middlewares/CMSIS/DSP/Src/SupportFunctions/arm_merge_sort_f32.c:62:0
	.fnstart
	.cfi_startproc
@ %bb.0:
	.save	{r4, lr}
	push	{r4, lr}
	.cfi_def_cfa_offset 8
	.cfi_offset lr, -4
	.cfi_offset r4, -8
	.pad	#32
	sub	sp, #32
	.cfi_def_cfa_offset 40
	mov	r12, r0
	ldr	r0, [sp, #40]
	str.w	r12, [sp, #28]
	str	r1, [sp, #24]
	str	r2, [sp, #20]
	str	r3, [sp, #16]
	strb.w	r0, [sp, #15]
.Ltmp168:
	.loc	19 63 17 prologue_end           @ ../Middlewares/CMSIS/DSP/Src/SupportFunctions/arm_merge_sort_f32.c:63:17
	ldr	r0, [sp, #20]
	.loc	19 63 32 is_stmt 0              @ ../Middlewares/CMSIS/DSP/Src/SupportFunctions/arm_merge_sort_f32.c:63:32
	ldr	r1, [sp, #24]
	.loc	19 63 21                        @ ../Middlewares/CMSIS/DSP/Src/SupportFunctions/arm_merge_sort_f32.c:63:21
	subs	r0, r0, r1
.Ltmp169:
	.loc	19 63 8                         @ ../Middlewares/CMSIS/DSP/Src/SupportFunctions/arm_merge_sort_f32.c:63:8
	cmp	r0, #2
	blt	.LBB18_2
	b	.LBB18_1
.LBB18_1:
.Ltmp170:
	.loc	19 65 27 is_stmt 1              @ ../Middlewares/CMSIS/DSP/Src/SupportFunctions/arm_merge_sort_f32.c:65:27
	ldr	r0, [sp, #20]
	.loc	19 65 33 is_stmt 0              @ ../Middlewares/CMSIS/DSP/Src/SupportFunctions/arm_merge_sort_f32.c:65:33
	ldr	r1, [sp, #24]
	.loc	19 65 31                        @ ../Middlewares/CMSIS/DSP/Src/SupportFunctions/arm_merge_sort_f32.c:65:31
	add	r0, r1
	.loc	19 65 40                        @ ../Middlewares/CMSIS/DSP/Src/SupportFunctions/arm_merge_sort_f32.c:65:40
	lsrs	r0, r0, #1
	.loc	19 65 17                        @ ../Middlewares/CMSIS/DSP/Src/SupportFunctions/arm_merge_sort_f32.c:65:17
	str	r0, [sp, #8]
	.loc	19 67 33 is_stmt 1              @ ../Middlewares/CMSIS/DSP/Src/SupportFunctions/arm_merge_sort_f32.c:67:33
	ldr	r0, [sp, #16]
	.loc	19 67 37 is_stmt 0              @ ../Middlewares/CMSIS/DSP/Src/SupportFunctions/arm_merge_sort_f32.c:67:37
	ldr	r1, [sp, #24]
	.loc	19 67 44                        @ ../Middlewares/CMSIS/DSP/Src/SupportFunctions/arm_merge_sort_f32.c:67:44
	ldr	r2, [sp, #8]
	.loc	19 67 52                        @ ../Middlewares/CMSIS/DSP/Src/SupportFunctions/arm_merge_sort_f32.c:67:52
	ldr	r3, [sp, #28]
	.loc	19 67 56                        @ ../Middlewares/CMSIS/DSP/Src/SupportFunctions/arm_merge_sort_f32.c:67:56
	ldrb.w	r12, [sp, #15]
	.loc	19 67 9                         @ ../Middlewares/CMSIS/DSP/Src/SupportFunctions/arm_merge_sort_f32.c:67:9
	mov	lr, sp
	str.w	r12, [lr]
	bl	arm_merge_sort_core_f32
	.loc	19 68 33 is_stmt 1              @ ../Middlewares/CMSIS/DSP/Src/SupportFunctions/arm_merge_sort_f32.c:68:33
	ldr	r0, [sp, #16]
	.loc	19 68 37 is_stmt 0              @ ../Middlewares/CMSIS/DSP/Src/SupportFunctions/arm_merge_sort_f32.c:68:37
	ldr	r1, [sp, #8]
	.loc	19 68 45                        @ ../Middlewares/CMSIS/DSP/Src/SupportFunctions/arm_merge_sort_f32.c:68:45
	ldr	r2, [sp, #20]
	.loc	19 68 50                        @ ../Middlewares/CMSIS/DSP/Src/SupportFunctions/arm_merge_sort_f32.c:68:50
	ldr	r3, [sp, #28]
	.loc	19 68 54                        @ ../Middlewares/CMSIS/DSP/Src/SupportFunctions/arm_merge_sort_f32.c:68:54
	ldrb.w	r12, [sp, #15]
	.loc	19 68 9                         @ ../Middlewares/CMSIS/DSP/Src/SupportFunctions/arm_merge_sort_f32.c:68:9
	mov	lr, sp
	str.w	r12, [lr]
	bl	arm_merge_sort_core_f32
	.loc	19 70 22 is_stmt 1              @ ../Middlewares/CMSIS/DSP/Src/SupportFunctions/arm_merge_sort_f32.c:70:22
	ldr	r0, [sp, #28]
	.loc	19 70 26 is_stmt 0              @ ../Middlewares/CMSIS/DSP/Src/SupportFunctions/arm_merge_sort_f32.c:70:26
	ldr	r1, [sp, #24]
	.loc	19 70 33                        @ ../Middlewares/CMSIS/DSP/Src/SupportFunctions/arm_merge_sort_f32.c:70:33
	ldr	r2, [sp, #8]
	.loc	19 70 41                        @ ../Middlewares/CMSIS/DSP/Src/SupportFunctions/arm_merge_sort_f32.c:70:41
	ldr	r3, [sp, #20]
	.loc	19 70 46                        @ ../Middlewares/CMSIS/DSP/Src/SupportFunctions/arm_merge_sort_f32.c:70:46
	ldr.w	r12, [sp, #16]
	.loc	19 70 50                        @ ../Middlewares/CMSIS/DSP/Src/SupportFunctions/arm_merge_sort_f32.c:70:50
	ldrb.w	r4, [sp, #15]
	.loc	19 70 9                         @ ../Middlewares/CMSIS/DSP/Src/SupportFunctions/arm_merge_sort_f32.c:70:9
	mov	lr, sp
	str.w	r4, [lr, #4]
	str.w	r12, [lr]
	bl	topDownMerge
	.loc	19 71 5 is_stmt 1               @ ../Middlewares/CMSIS/DSP/Src/SupportFunctions/arm_merge_sort_f32.c:71:5
	b	.LBB18_2
.Ltmp171:
.LBB18_2:
	.loc	19 72 1                         @ ../Middlewares/CMSIS/DSP/Src/SupportFunctions/arm_merge_sort_f32.c:72:1
	add	sp, #32
	pop	{r4, pc}
.Ltmp172:
.Lfunc_end18:
	.size	arm_merge_sort_core_f32, .Lfunc_end18-arm_merge_sort_core_f32
	.cfi_endproc
	.cantunwind
	.fnend
                                        @ -- End function
	.section	.text.arm_merge_sort_init_f32,"ax",%progbits
	.hidden	arm_merge_sort_init_f32         @ -- Begin function arm_merge_sort_init_f32
	.globl	arm_merge_sort_init_f32
	.p2align	2
	.type	arm_merge_sort_init_f32,%function
	.code	16                              @ @arm_merge_sort_init_f32
	.thumb_func
arm_merge_sort_init_f32:
.Lfunc_begin19:
	.file	20 "D:\\horizon\\Horizon_Infantry (2)\\MDK-ARM" "../Middlewares/CMSIS/DSP/Src/SupportFunctions/arm_merge_sort_init_f32.c"
	.loc	20 47 0                         @ ../Middlewares/CMSIS/DSP/Src/SupportFunctions/arm_merge_sort_init_f32.c:47:0
	.fnstart
	.cfi_startproc
@ %bb.0:
	.pad	#12
	sub	sp, #12
	.cfi_def_cfa_offset 12
                                        @ kill: def $r3 killed $r1
	str	r0, [sp, #8]
	strb.w	r1, [sp, #7]
	str	r2, [sp]
.Ltmp173:
	.loc	20 48 14 prologue_end           @ ../Middlewares/CMSIS/DSP/Src/SupportFunctions/arm_merge_sort_init_f32.c:48:14
	ldrb.w	r0, [sp, #7]
	.loc	20 48 5 is_stmt 0               @ ../Middlewares/CMSIS/DSP/Src/SupportFunctions/arm_merge_sort_init_f32.c:48:5
	ldr	r1, [sp, #8]
	.loc	20 48 12                        @ ../Middlewares/CMSIS/DSP/Src/SupportFunctions/arm_merge_sort_init_f32.c:48:12
	strb	r0, [r1]
	.loc	20 49 17 is_stmt 1              @ ../Middlewares/CMSIS/DSP/Src/SupportFunctions/arm_merge_sort_init_f32.c:49:17
	ldr	r0, [sp]
	.loc	20 49 5 is_stmt 0               @ ../Middlewares/CMSIS/DSP/Src/SupportFunctions/arm_merge_sort_init_f32.c:49:5
	ldr	r1, [sp, #8]
	.loc	20 49 15                        @ ../Middlewares/CMSIS/DSP/Src/SupportFunctions/arm_merge_sort_init_f32.c:49:15
	str	r0, [r1, #4]
	.loc	20 50 1 is_stmt 1               @ ../Middlewares/CMSIS/DSP/Src/SupportFunctions/arm_merge_sort_init_f32.c:50:1
	add	sp, #12
	bx	lr
.Ltmp174:
.Lfunc_end19:
	.size	arm_merge_sort_init_f32, .Lfunc_end19-arm_merge_sort_init_f32
	.cfi_endproc
	.cantunwind
	.fnend
                                        @ -- End function
	.section	.text.arm_quick_sort_f32,"ax",%progbits
	.hidden	arm_quick_sort_f32              @ -- Begin function arm_quick_sort_f32
	.globl	arm_quick_sort_f32
	.p2align	2
	.type	arm_quick_sort_f32,%function
	.code	16                              @ @arm_quick_sort_f32
	.thumb_func
arm_quick_sort_f32:
.Lfunc_begin20:
	.file	21 "D:\\horizon\\Horizon_Infantry (2)\\MDK-ARM" "../Middlewares/CMSIS/DSP/Src/SupportFunctions/arm_quick_sort_f32.c"
	.loc	21 162 0                        @ ../Middlewares/CMSIS/DSP/Src/SupportFunctions/arm_quick_sort_f32.c:162:0
	.fnstart
	.cfi_startproc
@ %bb.0:
	.save	{r7, lr}
	push	{r7, lr}
	.cfi_def_cfa_offset 8
	.cfi_offset lr, -4
	.cfi_offset r7, -8
	.pad	#24
	sub	sp, #24
	.cfi_def_cfa_offset 32
	str	r0, [sp, #20]
	str	r1, [sp, #16]
	str	r2, [sp, #12]
	str	r3, [sp, #8]
.Ltmp175:
	.loc	21 166 8 prologue_end           @ ../Middlewares/CMSIS/DSP/Src/SupportFunctions/arm_quick_sort_f32.c:166:8
	ldr	r0, [sp, #16]
	.loc	21 166 16 is_stmt 0             @ ../Middlewares/CMSIS/DSP/Src/SupportFunctions/arm_quick_sort_f32.c:166:16
	ldr	r1, [sp, #12]
.Ltmp176:
	.loc	21 166 8                        @ ../Middlewares/CMSIS/DSP/Src/SupportFunctions/arm_quick_sort_f32.c:166:8
	cmp	r0, r1
	beq	.LBB20_2
	b	.LBB20_1
.LBB20_1:
.Ltmp177:
	.loc	21 168 16 is_stmt 1             @ ../Middlewares/CMSIS/DSP/Src/SupportFunctions/arm_quick_sort_f32.c:168:16
	ldr	r0, [sp, #12]
	.loc	21 168 22 is_stmt 0             @ ../Middlewares/CMSIS/DSP/Src/SupportFunctions/arm_quick_sort_f32.c:168:22
	ldr	r1, [sp, #16]
	.loc	21 168 28                       @ ../Middlewares/CMSIS/DSP/Src/SupportFunctions/arm_quick_sort_f32.c:168:28
	ldr	r2, [sp, #8]
	.loc	21 168 37                       @ ../Middlewares/CMSIS/DSP/Src/SupportFunctions/arm_quick_sort_f32.c:168:37
	lsls	r2, r2, #2
	.loc	21 168 9                        @ ../Middlewares/CMSIS/DSP/Src/SupportFunctions/arm_quick_sort_f32.c:168:9
	bl	__aeabi_memcpy4
	.loc	21 169 14 is_stmt 1             @ ../Middlewares/CMSIS/DSP/Src/SupportFunctions/arm_quick_sort_f32.c:169:14
	ldr	r0, [sp, #12]
	.loc	21 169 12 is_stmt 0             @ ../Middlewares/CMSIS/DSP/Src/SupportFunctions/arm_quick_sort_f32.c:169:12
	str	r0, [sp, #4]
	.loc	21 170 5 is_stmt 1              @ ../Middlewares/CMSIS/DSP/Src/SupportFunctions/arm_quick_sort_f32.c:170:5
	b	.LBB20_3
.Ltmp178:
.LBB20_2:
	.loc	21 172 14                       @ ../Middlewares/CMSIS/DSP/Src/SupportFunctions/arm_quick_sort_f32.c:172:14
	ldr	r0, [sp, #16]
	.loc	21 172 12 is_stmt 0             @ ../Middlewares/CMSIS/DSP/Src/SupportFunctions/arm_quick_sort_f32.c:172:12
	str	r0, [sp, #4]
	b	.LBB20_3
.Ltmp179:
.LBB20_3:
	.loc	21 174 29 is_stmt 1             @ ../Middlewares/CMSIS/DSP/Src/SupportFunctions/arm_quick_sort_f32.c:174:29
	ldr	r0, [sp, #4]
	.loc	21 174 36 is_stmt 0             @ ../Middlewares/CMSIS/DSP/Src/SupportFunctions/arm_quick_sort_f32.c:174:36
	ldr	r1, [sp, #8]
	.loc	21 174 45                       @ ../Middlewares/CMSIS/DSP/Src/SupportFunctions/arm_quick_sort_f32.c:174:45
	subs	r2, r1, #1
	.loc	21 174 49                       @ ../Middlewares/CMSIS/DSP/Src/SupportFunctions/arm_quick_sort_f32.c:174:49
	ldr	r1, [sp, #20]
	.loc	21 174 52                       @ ../Middlewares/CMSIS/DSP/Src/SupportFunctions/arm_quick_sort_f32.c:174:52
	ldrb	r3, [r1, #1]
	movs	r1, #0
	.loc	21 174 5                        @ ../Middlewares/CMSIS/DSP/Src/SupportFunctions/arm_quick_sort_f32.c:174:5
	bl	arm_quick_sort_core_f32
	.loc	21 177 1 is_stmt 1              @ ../Middlewares/CMSIS/DSP/Src/SupportFunctions/arm_quick_sort_f32.c:177:1
	add	sp, #24
	pop	{r7, pc}
.Ltmp180:
.Lfunc_end20:
	.size	arm_quick_sort_f32, .Lfunc_end20-arm_quick_sort_f32
	.cfi_endproc
	.cantunwind
	.fnend
                                        @ -- End function
	.section	.text.arm_quick_sort_core_f32,"ax",%progbits
	.p2align	2                               @ -- Begin function arm_quick_sort_core_f32
	.type	arm_quick_sort_core_f32,%function
	.code	16                              @ @arm_quick_sort_core_f32
	.thumb_func
arm_quick_sort_core_f32:
.Lfunc_begin21:
	.loc	21 104 0                        @ ../Middlewares/CMSIS/DSP/Src/SupportFunctions/arm_quick_sort_f32.c:104:0
	.fnstart
	.cfi_startproc
@ %bb.0:
	.save	{r7, lr}
	push	{r7, lr}
	.cfi_def_cfa_offset 8
	.cfi_offset lr, -4
	.cfi_offset r7, -8
	.pad	#24
	sub	sp, #24
	.cfi_def_cfa_offset 32
                                        @ kill: def $r12 killed $r3
	str	r0, [sp, #20]
	str	r1, [sp, #16]
	str	r2, [sp, #12]
	strb.w	r3, [sp, #11]
.Ltmp181:
	.loc	21 106 8 prologue_end           @ ../Middlewares/CMSIS/DSP/Src/SupportFunctions/arm_quick_sort_f32.c:106:8
	ldr	r0, [sp, #16]
	.loc	21 106 14 is_stmt 0             @ ../Middlewares/CMSIS/DSP/Src/SupportFunctions/arm_quick_sort_f32.c:106:14
	ldr	r1, [sp, #12]
.Ltmp182:
	.loc	21 106 8                        @ ../Middlewares/CMSIS/DSP/Src/SupportFunctions/arm_quick_sort_f32.c:106:8
	cmp	r0, r1
	bge	.LBB21_2
	b	.LBB21_1
.LBB21_1:
.Ltmp183:
	.loc	21 111 46 is_stmt 1             @ ../Middlewares/CMSIS/DSP/Src/SupportFunctions/arm_quick_sort_f32.c:111:46
	ldr	r0, [sp, #20]
	.loc	21 111 52 is_stmt 0             @ ../Middlewares/CMSIS/DSP/Src/SupportFunctions/arm_quick_sort_f32.c:111:52
	ldr	r1, [sp, #16]
	.loc	21 111 59                       @ ../Middlewares/CMSIS/DSP/Src/SupportFunctions/arm_quick_sort_f32.c:111:59
	ldr	r2, [sp, #12]
	.loc	21 111 65                       @ ../Middlewares/CMSIS/DSP/Src/SupportFunctions/arm_quick_sort_f32.c:111:65
	ldrb.w	r3, [sp, #11]
	.loc	21 111 17                       @ ../Middlewares/CMSIS/DSP/Src/SupportFunctions/arm_quick_sort_f32.c:111:17
	bl	arm_quick_sort_partition_f32
	.loc	21 111 15                       @ ../Middlewares/CMSIS/DSP/Src/SupportFunctions/arm_quick_sort_f32.c:111:15
	str	r0, [sp, #4]
	.loc	21 114 33 is_stmt 1             @ ../Middlewares/CMSIS/DSP/Src/SupportFunctions/arm_quick_sort_f32.c:114:33
	ldr	r0, [sp, #20]
	.loc	21 114 39 is_stmt 0             @ ../Middlewares/CMSIS/DSP/Src/SupportFunctions/arm_quick_sort_f32.c:114:39
	ldr	r1, [sp, #16]
	.loc	21 114 46                       @ ../Middlewares/CMSIS/DSP/Src/SupportFunctions/arm_quick_sort_f32.c:114:46
	ldr	r2, [sp, #4]
	.loc	21 114 53                       @ ../Middlewares/CMSIS/DSP/Src/SupportFunctions/arm_quick_sort_f32.c:114:53
	ldrb.w	r3, [sp, #11]
	.loc	21 114 9                        @ ../Middlewares/CMSIS/DSP/Src/SupportFunctions/arm_quick_sort_f32.c:114:9
	bl	arm_quick_sort_core_f32
	.loc	21 115 33 is_stmt 1             @ ../Middlewares/CMSIS/DSP/Src/SupportFunctions/arm_quick_sort_f32.c:115:33
	ldr	r0, [sp, #20]
	.loc	21 115 39 is_stmt 0             @ ../Middlewares/CMSIS/DSP/Src/SupportFunctions/arm_quick_sort_f32.c:115:39
	ldr	r1, [sp, #4]
	.loc	21 115 44                       @ ../Middlewares/CMSIS/DSP/Src/SupportFunctions/arm_quick_sort_f32.c:115:44
	adds	r1, #1
	.loc	21 115 48                       @ ../Middlewares/CMSIS/DSP/Src/SupportFunctions/arm_quick_sort_f32.c:115:48
	ldr	r2, [sp, #12]
	.loc	21 115 54                       @ ../Middlewares/CMSIS/DSP/Src/SupportFunctions/arm_quick_sort_f32.c:115:54
	ldrb.w	r3, [sp, #11]
	.loc	21 115 9                        @ ../Middlewares/CMSIS/DSP/Src/SupportFunctions/arm_quick_sort_f32.c:115:9
	bl	arm_quick_sort_core_f32
	.loc	21 116 5 is_stmt 1              @ ../Middlewares/CMSIS/DSP/Src/SupportFunctions/arm_quick_sort_f32.c:116:5
	b	.LBB21_2
.Ltmp184:
.LBB21_2:
	.loc	21 117 1                        @ ../Middlewares/CMSIS/DSP/Src/SupportFunctions/arm_quick_sort_f32.c:117:1
	add	sp, #24
	pop	{r7, pc}
.Ltmp185:
.Lfunc_end21:
	.size	arm_quick_sort_core_f32, .Lfunc_end21-arm_quick_sort_core_f32
	.cfi_endproc
	.cantunwind
	.fnend
                                        @ -- End function
	.section	.text.arm_selection_sort_f32,"ax",%progbits
	.hidden	arm_selection_sort_f32          @ -- Begin function arm_selection_sort_f32
	.globl	arm_selection_sort_f32
	.p2align	2
	.type	arm_selection_sort_f32,%function
	.code	16                              @ @arm_selection_sort_f32
	.thumb_func
arm_selection_sort_f32:
.Lfunc_begin22:
	.file	22 "D:\\horizon\\Horizon_Infantry (2)\\MDK-ARM" "../Middlewares/CMSIS/DSP/Src/SupportFunctions/arm_selection_sort_f32.c"
	.loc	22 64 0                         @ ../Middlewares/CMSIS/DSP/Src/SupportFunctions/arm_selection_sort_f32.c:64:0
	.fnstart
	.cfi_startproc
@ %bb.0:
	.save	{r7, lr}
	push	{r7, lr}
	.cfi_def_cfa_offset 8
	.cfi_offset lr, -4
	.cfi_offset r7, -8
	.pad	#40
	sub	sp, #40
	.cfi_def_cfa_offset 48
	str	r0, [sp, #36]
	str	r1, [sp, #32]
	str	r2, [sp, #28]
	str	r3, [sp, #24]
.Ltmp186:
	.loc	22 66 19 prologue_end           @ ../Middlewares/CMSIS/DSP/Src/SupportFunctions/arm_selection_sort_f32.c:66:19
	ldr	r0, [sp, #36]
	.loc	22 66 22 is_stmt 0              @ ../Middlewares/CMSIS/DSP/Src/SupportFunctions/arm_selection_sort_f32.c:66:22
	ldrb	r0, [r0, #1]
	.loc	22 66 13                        @ ../Middlewares/CMSIS/DSP/Src/SupportFunctions/arm_selection_sort_f32.c:66:13
	strb.w	r0, [sp, #11]
.Ltmp187:
	.loc	22 71 8 is_stmt 1               @ ../Middlewares/CMSIS/DSP/Src/SupportFunctions/arm_selection_sort_f32.c:71:8
	ldr	r0, [sp, #32]
	.loc	22 71 16 is_stmt 0              @ ../Middlewares/CMSIS/DSP/Src/SupportFunctions/arm_selection_sort_f32.c:71:16
	ldr	r1, [sp, #28]
.Ltmp188:
	.loc	22 71 8                         @ ../Middlewares/CMSIS/DSP/Src/SupportFunctions/arm_selection_sort_f32.c:71:8
	cmp	r0, r1
	beq	.LBB22_2
	b	.LBB22_1
.LBB22_1:
.Ltmp189:
	.loc	22 73 16 is_stmt 1              @ ../Middlewares/CMSIS/DSP/Src/SupportFunctions/arm_selection_sort_f32.c:73:16
	ldr	r0, [sp, #28]
	.loc	22 73 22 is_stmt 0              @ ../Middlewares/CMSIS/DSP/Src/SupportFunctions/arm_selection_sort_f32.c:73:22
	ldr	r1, [sp, #32]
	.loc	22 73 28                        @ ../Middlewares/CMSIS/DSP/Src/SupportFunctions/arm_selection_sort_f32.c:73:28
	ldr	r2, [sp, #24]
	.loc	22 73 37                        @ ../Middlewares/CMSIS/DSP/Src/SupportFunctions/arm_selection_sort_f32.c:73:37
	lsls	r2, r2, #2
	.loc	22 73 9                         @ ../Middlewares/CMSIS/DSP/Src/SupportFunctions/arm_selection_sort_f32.c:73:9
	bl	__aeabi_memcpy4
	.loc	22 74 14 is_stmt 1              @ ../Middlewares/CMSIS/DSP/Src/SupportFunctions/arm_selection_sort_f32.c:74:14
	ldr	r0, [sp, #28]
	.loc	22 74 12 is_stmt 0              @ ../Middlewares/CMSIS/DSP/Src/SupportFunctions/arm_selection_sort_f32.c:74:12
	str	r0, [sp]
	.loc	22 75 5 is_stmt 1               @ ../Middlewares/CMSIS/DSP/Src/SupportFunctions/arm_selection_sort_f32.c:75:5
	b	.LBB22_3
.Ltmp190:
.LBB22_2:
	.loc	22 77 14                        @ ../Middlewares/CMSIS/DSP/Src/SupportFunctions/arm_selection_sort_f32.c:77:14
	ldr	r0, [sp, #32]
	.loc	22 77 12 is_stmt 0              @ ../Middlewares/CMSIS/DSP/Src/SupportFunctions/arm_selection_sort_f32.c:77:12
	str	r0, [sp]
	b	.LBB22_3
.Ltmp191:
.LBB22_3:
	.loc	22 0 12                         @ ../Middlewares/CMSIS/DSP/Src/SupportFunctions/arm_selection_sort_f32.c:0:12
	movs	r0, #0
.Ltmp192:
	.loc	22 80 11 is_stmt 1              @ ../Middlewares/CMSIS/DSP/Src/SupportFunctions/arm_selection_sort_f32.c:80:11
	str	r0, [sp, #20]
	.loc	22 80 10 is_stmt 0              @ ../Middlewares/CMSIS/DSP/Src/SupportFunctions/arm_selection_sort_f32.c:80:10
	b	.LBB22_4
.LBB22_4:                               @ =>This Loop Header: Depth=1
                                        @     Child Loop BB22_6 Depth 2
.Ltmp193:
	.loc	22 80 15                        @ ../Middlewares/CMSIS/DSP/Src/SupportFunctions/arm_selection_sort_f32.c:80:15
	ldr	r0, [sp, #20]
	.loc	22 80 17                        @ ../Middlewares/CMSIS/DSP/Src/SupportFunctions/arm_selection_sort_f32.c:80:17
	ldr	r1, [sp, #24]
	.loc	22 80 26                        @ ../Middlewares/CMSIS/DSP/Src/SupportFunctions/arm_selection_sort_f32.c:80:26
	subs	r1, #1
.Ltmp194:
	.loc	22 80 5                         @ ../Middlewares/CMSIS/DSP/Src/SupportFunctions/arm_selection_sort_f32.c:80:5
	cmp	r0, r1
	bhs	.LBB22_15
	b	.LBB22_5
.LBB22_5:                               @   in Loop: Header=BB22_4 Depth=1
.Ltmp195:
	.loc	22 83 13 is_stmt 1              @ ../Middlewares/CMSIS/DSP/Src/SupportFunctions/arm_selection_sort_f32.c:83:13
	ldr	r0, [sp, #20]
	.loc	22 83 11 is_stmt 0              @ ../Middlewares/CMSIS/DSP/Src/SupportFunctions/arm_selection_sort_f32.c:83:11
	str	r0, [sp, #12]
.Ltmp196:
	.loc	22 86 16 is_stmt 1              @ ../Middlewares/CMSIS/DSP/Src/SupportFunctions/arm_selection_sort_f32.c:86:16
	ldr	r0, [sp, #20]
	.loc	22 86 17 is_stmt 0              @ ../Middlewares/CMSIS/DSP/Src/SupportFunctions/arm_selection_sort_f32.c:86:17
	adds	r0, #1
	.loc	22 86 15                        @ ../Middlewares/CMSIS/DSP/Src/SupportFunctions/arm_selection_sort_f32.c:86:15
	str	r0, [sp, #16]
	.loc	22 86 14                        @ ../Middlewares/CMSIS/DSP/Src/SupportFunctions/arm_selection_sort_f32.c:86:14
	b	.LBB22_6
.LBB22_6:                               @   Parent Loop BB22_4 Depth=1
                                        @ =>  This Inner Loop Header: Depth=2
.Ltmp197:
	.loc	22 86 21                        @ ../Middlewares/CMSIS/DSP/Src/SupportFunctions/arm_selection_sort_f32.c:86:21
	ldr	r0, [sp, #16]
	.loc	22 86 23                        @ ../Middlewares/CMSIS/DSP/Src/SupportFunctions/arm_selection_sort_f32.c:86:23
	ldr	r1, [sp, #24]
.Ltmp198:
	.loc	22 86 9                         @ ../Middlewares/CMSIS/DSP/Src/SupportFunctions/arm_selection_sort_f32.c:86:9
	cmp	r0, r1
	bhs	.LBB22_11
	b	.LBB22_7
.LBB22_7:                               @   in Loop: Header=BB22_6 Depth=2
.Ltmp199:
	.loc	22 88 17 is_stmt 1              @ ../Middlewares/CMSIS/DSP/Src/SupportFunctions/arm_selection_sort_f32.c:88:17
	ldrb.w	r0, [sp, #11]
	.loc	22 88 23 is_stmt 0              @ ../Middlewares/CMSIS/DSP/Src/SupportFunctions/arm_selection_sort_f32.c:88:23
	ldr	r1, [sp]
	.loc	22 88 26                        @ ../Middlewares/CMSIS/DSP/Src/SupportFunctions/arm_selection_sort_f32.c:88:26
	ldr	r2, [sp, #16]
	.loc	22 88 23                        @ ../Middlewares/CMSIS/DSP/Src/SupportFunctions/arm_selection_sort_f32.c:88:23
	add.w	r2, r1, r2, lsl #2
	vldr	s0, [r2]
	.loc	22 88 34                        @ ../Middlewares/CMSIS/DSP/Src/SupportFunctions/arm_selection_sort_f32.c:88:34
	ldr	r2, [sp, #12]
	.loc	22 88 31                        @ ../Middlewares/CMSIS/DSP/Src/SupportFunctions/arm_selection_sort_f32.c:88:31
	add.w	r1, r1, r2, lsl #2
	vldr	s2, [r1]
	movs	r1, #0
	.loc	22 88 29                        @ ../Middlewares/CMSIS/DSP/Src/SupportFunctions/arm_selection_sort_f32.c:88:29
	vcmp.f32	s0, s2
	vmrs	APSR_nzcv, fpscr
	it	lt
	movlt	r1, #1
.Ltmp200:
	.loc	22 88 17                        @ ../Middlewares/CMSIS/DSP/Src/SupportFunctions/arm_selection_sort_f32.c:88:17
	cmp	r0, r1
	bne	.LBB22_9
	b	.LBB22_8
.LBB22_8:                               @   in Loop: Header=BB22_6 Depth=2
.Ltmp201:
	.loc	22 91 21 is_stmt 1              @ ../Middlewares/CMSIS/DSP/Src/SupportFunctions/arm_selection_sort_f32.c:91:21
	ldr	r0, [sp, #16]
	.loc	22 91 19 is_stmt 0              @ ../Middlewares/CMSIS/DSP/Src/SupportFunctions/arm_selection_sort_f32.c:91:19
	str	r0, [sp, #12]
	.loc	22 92 13 is_stmt 1              @ ../Middlewares/CMSIS/DSP/Src/SupportFunctions/arm_selection_sort_f32.c:92:13
	b	.LBB22_9
.Ltmp202:
.LBB22_9:                               @   in Loop: Header=BB22_6 Depth=2
	.loc	22 93 9                         @ ../Middlewares/CMSIS/DSP/Src/SupportFunctions/arm_selection_sort_f32.c:93:9
	b	.LBB22_10
.Ltmp203:
.LBB22_10:                              @   in Loop: Header=BB22_6 Depth=2
	.loc	22 86 35                        @ ../Middlewares/CMSIS/DSP/Src/SupportFunctions/arm_selection_sort_f32.c:86:35
	ldr	r0, [sp, #16]
	adds	r0, #1
	str	r0, [sp, #16]
	.loc	22 86 9 is_stmt 0               @ ../Middlewares/CMSIS/DSP/Src/SupportFunctions/arm_selection_sort_f32.c:86:9
	b	.LBB22_6
.Ltmp204:
.LBB22_11:                              @   in Loop: Header=BB22_4 Depth=1
	.loc	22 95 13 is_stmt 1              @ ../Middlewares/CMSIS/DSP/Src/SupportFunctions/arm_selection_sort_f32.c:95:13
	ldr	r0, [sp, #12]
	.loc	22 95 18 is_stmt 0              @ ../Middlewares/CMSIS/DSP/Src/SupportFunctions/arm_selection_sort_f32.c:95:18
	ldr	r1, [sp, #20]
.Ltmp205:
	.loc	22 95 13                        @ ../Middlewares/CMSIS/DSP/Src/SupportFunctions/arm_selection_sort_f32.c:95:13
	cmp	r0, r1
	beq	.LBB22_13
	b	.LBB22_12
.LBB22_12:                              @   in Loop: Header=BB22_4 Depth=1
.Ltmp206:
	.loc	22 98 18 is_stmt 1              @ ../Middlewares/CMSIS/DSP/Src/SupportFunctions/arm_selection_sort_f32.c:98:18
	ldr	r0, [sp]
	.loc	22 98 21 is_stmt 0              @ ../Middlewares/CMSIS/DSP/Src/SupportFunctions/arm_selection_sort_f32.c:98:21
	ldr	r1, [sp, #20]
	.loc	22 98 18                        @ ../Middlewares/CMSIS/DSP/Src/SupportFunctions/arm_selection_sort_f32.c:98:18
	ldr.w	r0, [r0, r1, lsl #2]
	.loc	22 98 17                        @ ../Middlewares/CMSIS/DSP/Src/SupportFunctions/arm_selection_sort_f32.c:98:17
	str	r0, [sp, #4]
	.loc	22 99 12 is_stmt 1              @ ../Middlewares/CMSIS/DSP/Src/SupportFunctions/arm_selection_sort_f32.c:99:12
	ldr	r1, [sp]
	.loc	22 99 15 is_stmt 0              @ ../Middlewares/CMSIS/DSP/Src/SupportFunctions/arm_selection_sort_f32.c:99:15
	ldr	r0, [sp, #12]
	.loc	22 99 12                        @ ../Middlewares/CMSIS/DSP/Src/SupportFunctions/arm_selection_sort_f32.c:99:12
	ldr.w	r0, [r1, r0, lsl #2]
	.loc	22 99 9                         @ ../Middlewares/CMSIS/DSP/Src/SupportFunctions/arm_selection_sort_f32.c:99:9
	ldr	r2, [sp, #20]
	.loc	22 99 11                        @ ../Middlewares/CMSIS/DSP/Src/SupportFunctions/arm_selection_sort_f32.c:99:11
	str.w	r0, [r1, r2, lsl #2]
	.loc	22 100 12 is_stmt 1             @ ../Middlewares/CMSIS/DSP/Src/SupportFunctions/arm_selection_sort_f32.c:100:12
	ldr	r0, [sp, #4]
	.loc	22 100 6 is_stmt 0              @ ../Middlewares/CMSIS/DSP/Src/SupportFunctions/arm_selection_sort_f32.c:100:6
	ldr	r1, [sp]
	.loc	22 100 9                        @ ../Middlewares/CMSIS/DSP/Src/SupportFunctions/arm_selection_sort_f32.c:100:9
	ldr	r2, [sp, #12]
	.loc	22 100 11                       @ ../Middlewares/CMSIS/DSP/Src/SupportFunctions/arm_selection_sort_f32.c:100:11
	str.w	r0, [r1, r2, lsl #2]
	.loc	22 101 9 is_stmt 1              @ ../Middlewares/CMSIS/DSP/Src/SupportFunctions/arm_selection_sort_f32.c:101:9
	b	.LBB22_13
.Ltmp207:
.LBB22_13:                              @   in Loop: Header=BB22_4 Depth=1
	.loc	22 102 5                        @ ../Middlewares/CMSIS/DSP/Src/SupportFunctions/arm_selection_sort_f32.c:102:5
	b	.LBB22_14
.Ltmp208:
.LBB22_14:                              @   in Loop: Header=BB22_4 Depth=1
	.loc	22 80 31                        @ ../Middlewares/CMSIS/DSP/Src/SupportFunctions/arm_selection_sort_f32.c:80:31
	ldr	r0, [sp, #20]
	adds	r0, #1
	str	r0, [sp, #20]
	.loc	22 80 5 is_stmt 0               @ ../Middlewares/CMSIS/DSP/Src/SupportFunctions/arm_selection_sort_f32.c:80:5
	b	.LBB22_4
.Ltmp209:
.LBB22_15:
	.loc	22 103 1 is_stmt 1              @ ../Middlewares/CMSIS/DSP/Src/SupportFunctions/arm_selection_sort_f32.c:103:1
	add	sp, #40
	pop	{r7, pc}
.Ltmp210:
.Lfunc_end22:
	.size	arm_selection_sort_f32, .Lfunc_end22-arm_selection_sort_f32
	.cfi_endproc
	.cantunwind
	.fnend
                                        @ -- End function
	.section	.text.arm_sort_f32,"ax",%progbits
	.hidden	arm_sort_f32                    @ -- Begin function arm_sort_f32
	.globl	arm_sort_f32
	.p2align	2
	.type	arm_sort_f32,%function
	.code	16                              @ @arm_sort_f32
	.thumb_func
arm_sort_f32:
.Lfunc_begin23:
	.file	23 "D:\\horizon\\Horizon_Infantry (2)\\MDK-ARM" "../Middlewares/CMSIS/DSP/Src/SupportFunctions/arm_sort_f32.c"
	.loc	23 55 0                         @ ../Middlewares/CMSIS/DSP/Src/SupportFunctions/arm_sort_f32.c:55:0
	.fnstart
	.cfi_startproc
@ %bb.0:
	.save	{r7, lr}
	push	{r7, lr}
	.cfi_def_cfa_offset 8
	.cfi_offset lr, -4
	.cfi_offset r7, -8
	.pad	#24
	sub	sp, #24
	.cfi_def_cfa_offset 32
	str	r0, [sp, #20]
	str	r1, [sp, #16]
	str	r2, [sp, #12]
	str	r3, [sp, #8]
.Ltmp211:
	.loc	23 56 12 prologue_end           @ ../Middlewares/CMSIS/DSP/Src/SupportFunctions/arm_sort_f32.c:56:12
	ldr	r0, [sp, #20]
	.loc	23 56 15 is_stmt 0              @ ../Middlewares/CMSIS/DSP/Src/SupportFunctions/arm_sort_f32.c:56:15
	ldrb	r0, [r0]
	.loc	23 56 5                         @ ../Middlewares/CMSIS/DSP/Src/SupportFunctions/arm_sort_f32.c:56:5
	mov	r1, r0
	str	r1, [sp, #4]                    @ 4-byte Spill
	cmp	r0, #5
	bhi	.LBB23_9
@ %bb.1:
	.loc	23 0 5                          @ ../Middlewares/CMSIS/DSP/Src/SupportFunctions/arm_sort_f32.c:0:5
	ldr	r1, [sp, #4]                    @ 4-byte Reload
.LCPI23_0:
	tbb	[pc, r1]
@ %bb.2:
.LJTI23_0:
	.byte	(.LBB23_3-(.LCPI23_0+4))/2
	.byte	(.LBB23_4-(.LCPI23_0+4))/2
	.byte	(.LBB23_5-(.LCPI23_0+4))/2
	.byte	(.LBB23_6-(.LCPI23_0+4))/2
	.byte	(.LBB23_7-(.LCPI23_0+4))/2
	.byte	(.LBB23_8-(.LCPI23_0+4))/2
	.p2align	1
.LBB23_3:
.Ltmp212:
	.loc	23 59 30 is_stmt 1              @ ../Middlewares/CMSIS/DSP/Src/SupportFunctions/arm_sort_f32.c:59:30
	ldr	r0, [sp, #20]
	.loc	23 59 33 is_stmt 0              @ ../Middlewares/CMSIS/DSP/Src/SupportFunctions/arm_sort_f32.c:59:33
	ldr	r1, [sp, #16]
	.loc	23 59 39                        @ ../Middlewares/CMSIS/DSP/Src/SupportFunctions/arm_sort_f32.c:59:39
	ldr	r2, [sp, #12]
	.loc	23 59 45                        @ ../Middlewares/CMSIS/DSP/Src/SupportFunctions/arm_sort_f32.c:59:45
	ldr	r3, [sp, #8]
	.loc	23 59 9                         @ ../Middlewares/CMSIS/DSP/Src/SupportFunctions/arm_sort_f32.c:59:9
	bl	arm_bitonic_sort_f32
	.loc	23 60 9 is_stmt 1               @ ../Middlewares/CMSIS/DSP/Src/SupportFunctions/arm_sort_f32.c:60:9
	b	.LBB23_9
.LBB23_4:
	.loc	23 63 29                        @ ../Middlewares/CMSIS/DSP/Src/SupportFunctions/arm_sort_f32.c:63:29
	ldr	r0, [sp, #20]
	.loc	23 63 32 is_stmt 0              @ ../Middlewares/CMSIS/DSP/Src/SupportFunctions/arm_sort_f32.c:63:32
	ldr	r1, [sp, #16]
	.loc	23 63 38                        @ ../Middlewares/CMSIS/DSP/Src/SupportFunctions/arm_sort_f32.c:63:38
	ldr	r2, [sp, #12]
	.loc	23 63 44                        @ ../Middlewares/CMSIS/DSP/Src/SupportFunctions/arm_sort_f32.c:63:44
	ldr	r3, [sp, #8]
	.loc	23 63 9                         @ ../Middlewares/CMSIS/DSP/Src/SupportFunctions/arm_sort_f32.c:63:9
	bl	arm_bubble_sort_f32
	.loc	23 64 9 is_stmt 1               @ ../Middlewares/CMSIS/DSP/Src/SupportFunctions/arm_sort_f32.c:64:9
	b	.LBB23_9
.LBB23_5:
	.loc	23 67 27                        @ ../Middlewares/CMSIS/DSP/Src/SupportFunctions/arm_sort_f32.c:67:27
	ldr	r0, [sp, #20]
	.loc	23 67 30 is_stmt 0              @ ../Middlewares/CMSIS/DSP/Src/SupportFunctions/arm_sort_f32.c:67:30
	ldr	r1, [sp, #16]
	.loc	23 67 36                        @ ../Middlewares/CMSIS/DSP/Src/SupportFunctions/arm_sort_f32.c:67:36
	ldr	r2, [sp, #12]
	.loc	23 67 42                        @ ../Middlewares/CMSIS/DSP/Src/SupportFunctions/arm_sort_f32.c:67:42
	ldr	r3, [sp, #8]
	.loc	23 67 9                         @ ../Middlewares/CMSIS/DSP/Src/SupportFunctions/arm_sort_f32.c:67:9
	bl	arm_heap_sort_f32
	.loc	23 68 9 is_stmt 1               @ ../Middlewares/CMSIS/DSP/Src/SupportFunctions/arm_sort_f32.c:68:9
	b	.LBB23_9
.LBB23_6:
	.loc	23 71 32                        @ ../Middlewares/CMSIS/DSP/Src/SupportFunctions/arm_sort_f32.c:71:32
	ldr	r0, [sp, #20]
	.loc	23 71 35 is_stmt 0              @ ../Middlewares/CMSIS/DSP/Src/SupportFunctions/arm_sort_f32.c:71:35
	ldr	r1, [sp, #16]
	.loc	23 71 41                        @ ../Middlewares/CMSIS/DSP/Src/SupportFunctions/arm_sort_f32.c:71:41
	ldr	r2, [sp, #12]
	.loc	23 71 47                        @ ../Middlewares/CMSIS/DSP/Src/SupportFunctions/arm_sort_f32.c:71:47
	ldr	r3, [sp, #8]
	.loc	23 71 9                         @ ../Middlewares/CMSIS/DSP/Src/SupportFunctions/arm_sort_f32.c:71:9
	bl	arm_insertion_sort_f32
	.loc	23 72 9 is_stmt 1               @ ../Middlewares/CMSIS/DSP/Src/SupportFunctions/arm_sort_f32.c:72:9
	b	.LBB23_9
.LBB23_7:
	.loc	23 75 28                        @ ../Middlewares/CMSIS/DSP/Src/SupportFunctions/arm_sort_f32.c:75:28
	ldr	r0, [sp, #20]
	.loc	23 75 31 is_stmt 0              @ ../Middlewares/CMSIS/DSP/Src/SupportFunctions/arm_sort_f32.c:75:31
	ldr	r1, [sp, #16]
	.loc	23 75 37                        @ ../Middlewares/CMSIS/DSP/Src/SupportFunctions/arm_sort_f32.c:75:37
	ldr	r2, [sp, #12]
	.loc	23 75 43                        @ ../Middlewares/CMSIS/DSP/Src/SupportFunctions/arm_sort_f32.c:75:43
	ldr	r3, [sp, #8]
	.loc	23 75 9                         @ ../Middlewares/CMSIS/DSP/Src/SupportFunctions/arm_sort_f32.c:75:9
	bl	arm_quick_sort_f32
	.loc	23 76 9 is_stmt 1               @ ../Middlewares/CMSIS/DSP/Src/SupportFunctions/arm_sort_f32.c:76:9
	b	.LBB23_9
.LBB23_8:
	.loc	23 79 32                        @ ../Middlewares/CMSIS/DSP/Src/SupportFunctions/arm_sort_f32.c:79:32
	ldr	r0, [sp, #20]
	.loc	23 79 35 is_stmt 0              @ ../Middlewares/CMSIS/DSP/Src/SupportFunctions/arm_sort_f32.c:79:35
	ldr	r1, [sp, #16]
	.loc	23 79 41                        @ ../Middlewares/CMSIS/DSP/Src/SupportFunctions/arm_sort_f32.c:79:41
	ldr	r2, [sp, #12]
	.loc	23 79 47                        @ ../Middlewares/CMSIS/DSP/Src/SupportFunctions/arm_sort_f32.c:79:47
	ldr	r3, [sp, #8]
	.loc	23 79 9                         @ ../Middlewares/CMSIS/DSP/Src/SupportFunctions/arm_sort_f32.c:79:9
	bl	arm_selection_sort_f32
	.loc	23 80 9 is_stmt 1               @ ../Middlewares/CMSIS/DSP/Src/SupportFunctions/arm_sort_f32.c:80:9
	b	.LBB23_9
.Ltmp213:
.LBB23_9:
	.loc	23 82 1                         @ ../Middlewares/CMSIS/DSP/Src/SupportFunctions/arm_sort_f32.c:82:1
	add	sp, #24
	pop	{r7, pc}
.Ltmp214:
.Lfunc_end23:
	.size	arm_sort_f32, .Lfunc_end23-arm_sort_f32
	.cfi_endproc
	.cantunwind
	.fnend
                                        @ -- End function
	.section	.text.arm_sort_init_f32,"ax",%progbits
	.hidden	arm_sort_init_f32               @ -- Begin function arm_sort_init_f32
	.globl	arm_sort_init_f32
	.p2align	2
	.type	arm_sort_init_f32,%function
	.code	16                              @ @arm_sort_init_f32
	.thumb_func
arm_sort_init_f32:
.Lfunc_begin24:
	.file	24 "D:\\horizon\\Horizon_Infantry (2)\\MDK-ARM" "../Middlewares/CMSIS/DSP/Src/SupportFunctions/arm_sort_init_f32.c"
	.loc	24 47 0                         @ ../Middlewares/CMSIS/DSP/Src/SupportFunctions/arm_sort_init_f32.c:47:0
	.fnstart
	.cfi_startproc
@ %bb.0:
	.pad	#8
	sub	sp, #8
	.cfi_def_cfa_offset 8
                                        @ kill: def $r3 killed $r2
                                        @ kill: def $r3 killed $r1
	str	r0, [sp, #4]
	strb.w	r1, [sp, #3]
	strb.w	r2, [sp, #2]
.Ltmp215:
	.loc	24 48 14 prologue_end           @ ../Middlewares/CMSIS/DSP/Src/SupportFunctions/arm_sort_init_f32.c:48:14
	ldrb.w	r0, [sp, #3]
	.loc	24 48 5 is_stmt 0               @ ../Middlewares/CMSIS/DSP/Src/SupportFunctions/arm_sort_init_f32.c:48:5
	ldr	r1, [sp, #4]
	.loc	24 48 12                        @ ../Middlewares/CMSIS/DSP/Src/SupportFunctions/arm_sort_init_f32.c:48:12
	strb	r0, [r1]
	.loc	24 49 14 is_stmt 1              @ ../Middlewares/CMSIS/DSP/Src/SupportFunctions/arm_sort_init_f32.c:49:14
	ldrb.w	r0, [sp, #2]
	.loc	24 49 5 is_stmt 0               @ ../Middlewares/CMSIS/DSP/Src/SupportFunctions/arm_sort_init_f32.c:49:5
	ldr	r1, [sp, #4]
	.loc	24 49 12                        @ ../Middlewares/CMSIS/DSP/Src/SupportFunctions/arm_sort_init_f32.c:49:12
	strb	r0, [r1, #1]
	.loc	24 50 1 is_stmt 1               @ ../Middlewares/CMSIS/DSP/Src/SupportFunctions/arm_sort_init_f32.c:50:1
	add	sp, #8
	bx	lr
.Ltmp216:
.Lfunc_end24:
	.size	arm_sort_init_f32, .Lfunc_end24-arm_sort_init_f32
	.cfi_endproc
	.cantunwind
	.fnend
                                        @ -- End function
	.section	.text.arm_weighted_sum_f32,"ax",%progbits
	.hidden	arm_weighted_sum_f32            @ -- Begin function arm_weighted_sum_f32
	.globl	arm_weighted_sum_f32
	.p2align	2
	.type	arm_weighted_sum_f32,%function
	.code	16                              @ @arm_weighted_sum_f32
	.thumb_func
arm_weighted_sum_f32:
.Lfunc_begin25:
	.file	25 "D:\\horizon\\Horizon_Infantry (2)\\MDK-ARM" "../Middlewares/CMSIS/DSP/Src/SupportFunctions/arm_weighted_sum_f32.c"
	.loc	25 159 0                        @ ../Middlewares/CMSIS/DSP/Src/SupportFunctions/arm_weighted_sum_f32.c:159:0
	.fnstart
	.cfi_startproc
@ %bb.0:
	.pad	#32
	sub	sp, #32
	.cfi_def_cfa_offset 32
	str	r0, [sp, #28]
	str	r1, [sp, #24]
	str	r2, [sp, #20]
.Ltmp217:
	.loc	25 166 11 prologue_end          @ ../Middlewares/CMSIS/DSP/Src/SupportFunctions/arm_weighted_sum_f32.c:166:11
	ldr	r0, [sp, #28]
	.loc	25 166 9 is_stmt 0              @ ../Middlewares/CMSIS/DSP/Src/SupportFunctions/arm_weighted_sum_f32.c:166:9
	str	r0, [sp, #8]
	.loc	25 167 10 is_stmt 1             @ ../Middlewares/CMSIS/DSP/Src/SupportFunctions/arm_weighted_sum_f32.c:167:10
	ldr	r0, [sp, #24]
	.loc	25 167 8 is_stmt 0              @ ../Middlewares/CMSIS/DSP/Src/SupportFunctions/arm_weighted_sum_f32.c:167:8
	str	r0, [sp, #4]
	movs	r0, #0
	.loc	25 169 11 is_stmt 1             @ ../Middlewares/CMSIS/DSP/Src/SupportFunctions/arm_weighted_sum_f32.c:169:11
	str	r0, [sp, #16]
	.loc	25 170 11                       @ ../Middlewares/CMSIS/DSP/Src/SupportFunctions/arm_weighted_sum_f32.c:170:11
	str	r0, [sp, #12]
	.loc	25 172 14                       @ ../Middlewares/CMSIS/DSP/Src/SupportFunctions/arm_weighted_sum_f32.c:172:14
	ldr	r0, [sp, #20]
	.loc	25 172 12 is_stmt 0             @ ../Middlewares/CMSIS/DSP/Src/SupportFunctions/arm_weighted_sum_f32.c:172:12
	str	r0, [sp]
	.loc	25 173 5 is_stmt 1              @ ../Middlewares/CMSIS/DSP/Src/SupportFunctions/arm_weighted_sum_f32.c:173:5
	b	.LBB25_1
.LBB25_1:                               @ =>This Inner Loop Header: Depth=1
	.loc	25 173 11 is_stmt 0             @ ../Middlewares/CMSIS/DSP/Src/SupportFunctions/arm_weighted_sum_f32.c:173:11
	ldr	r0, [sp]
	.loc	25 173 5                        @ ../Middlewares/CMSIS/DSP/Src/SupportFunctions/arm_weighted_sum_f32.c:173:5
	cbz	r0, .LBB25_3
	b	.LBB25_2
.LBB25_2:                               @   in Loop: Header=BB25_1 Depth=1
.Ltmp218:
	.loc	25 175 23 is_stmt 1             @ ../Middlewares/CMSIS/DSP/Src/SupportFunctions/arm_weighted_sum_f32.c:175:23
	ldr	r0, [sp, #8]
	adds	r1, r0, #4
	str	r1, [sp, #8]
	.loc	25 175 19 is_stmt 0             @ ../Middlewares/CMSIS/DSP/Src/SupportFunctions/arm_weighted_sum_f32.c:175:19
	vldr	s0, [r0]
	.loc	25 175 29                       @ ../Middlewares/CMSIS/DSP/Src/SupportFunctions/arm_weighted_sum_f32.c:175:29
	ldr	r0, [sp, #4]
	.loc	25 175 28                       @ ../Middlewares/CMSIS/DSP/Src/SupportFunctions/arm_weighted_sum_f32.c:175:28
	vldr	s4, [r0]
	.loc	25 175 16                       @ ../Middlewares/CMSIS/DSP/Src/SupportFunctions/arm_weighted_sum_f32.c:175:16
	vldr	s2, [sp, #16]
	vmul.f32	s0, s0, s4
	vadd.f32	s0, s0, s2
	vstr	s0, [sp, #16]
	.loc	25 176 22 is_stmt 1             @ ../Middlewares/CMSIS/DSP/Src/SupportFunctions/arm_weighted_sum_f32.c:176:22
	ldr	r0, [sp, #4]
	adds	r1, r0, #4
	str	r1, [sp, #4]
	.loc	25 176 19 is_stmt 0             @ ../Middlewares/CMSIS/DSP/Src/SupportFunctions/arm_weighted_sum_f32.c:176:19
	vldr	s2, [r0]
	.loc	25 176 16                       @ ../Middlewares/CMSIS/DSP/Src/SupportFunctions/arm_weighted_sum_f32.c:176:16
	vldr	s0, [sp, #12]
	vadd.f32	s0, s0, s2
	vstr	s0, [sp, #12]
	.loc	25 177 15 is_stmt 1             @ ../Middlewares/CMSIS/DSP/Src/SupportFunctions/arm_weighted_sum_f32.c:177:15
	ldr	r0, [sp]
	subs	r0, #1
	str	r0, [sp]
.Ltmp219:
	.loc	25 173 5                        @ ../Middlewares/CMSIS/DSP/Src/SupportFunctions/arm_weighted_sum_f32.c:173:5
	b	.LBB25_1
.LBB25_3:
	.loc	25 180 12                       @ ../Middlewares/CMSIS/DSP/Src/SupportFunctions/arm_weighted_sum_f32.c:180:12
	vldr	s0, [sp, #16]
	.loc	25 180 21 is_stmt 0             @ ../Middlewares/CMSIS/DSP/Src/SupportFunctions/arm_weighted_sum_f32.c:180:21
	vldr	s2, [sp, #12]
	.loc	25 180 19                       @ ../Middlewares/CMSIS/DSP/Src/SupportFunctions/arm_weighted_sum_f32.c:180:19
	vdiv.f32	s0, s0, s2
	.loc	25 180 5                        @ ../Middlewares/CMSIS/DSP/Src/SupportFunctions/arm_weighted_sum_f32.c:180:5
	add	sp, #32
	bx	lr
.Ltmp220:
.Lfunc_end25:
	.size	arm_weighted_sum_f32, .Lfunc_end25-arm_weighted_sum_f32
	.cfi_endproc
	.cantunwind
	.fnend
                                        @ -- End function
	.section	.text.arm_f64_to_float,"ax",%progbits
	.hidden	arm_f64_to_float                @ -- Begin function arm_f64_to_float
	.globl	arm_f64_to_float
	.p2align	2
	.type	arm_f64_to_float,%function
	.code	16                              @ @arm_f64_to_float
	.thumb_func
arm_f64_to_float:
.Lfunc_begin26:
	.file	26 "D:\\horizon\\Horizon_Infantry (2)\\MDK-ARM" "../Middlewares/CMSIS/DSP/Src/SupportFunctions/arm_f64_to_float.c"
	.loc	26 55 0 is_stmt 1               @ ../Middlewares/CMSIS/DSP/Src/SupportFunctions/arm_f64_to_float.c:55:0
	.fnstart
	.cfi_startproc
@ %bb.0:
	.save	{r7, lr}
	push	{r7, lr}
	.cfi_def_cfa_offset 8
	.cfi_offset lr, -4
	.cfi_offset r7, -8
	.pad	#24
	sub	sp, #24
	.cfi_def_cfa_offset 32
	str	r0, [sp, #20]
	str	r1, [sp, #16]
	str	r2, [sp, #12]
.Ltmp221:
	.loc	26 56 28 prologue_end           @ ../Middlewares/CMSIS/DSP/Src/SupportFunctions/arm_f64_to_float.c:56:28
	ldr	r0, [sp, #20]
	.loc	26 56 22 is_stmt 0              @ ../Middlewares/CMSIS/DSP/Src/SupportFunctions/arm_f64_to_float.c:56:22
	str	r0, [sp, #8]
	.loc	26 62 14 is_stmt 1              @ ../Middlewares/CMSIS/DSP/Src/SupportFunctions/arm_f64_to_float.c:62:14
	ldr	r0, [sp, #12]
	.loc	26 62 12 is_stmt 0              @ ../Middlewares/CMSIS/DSP/Src/SupportFunctions/arm_f64_to_float.c:62:12
	str	r0, [sp, #4]
	.loc	26 64 5 is_stmt 1               @ ../Middlewares/CMSIS/DSP/Src/SupportFunctions/arm_f64_to_float.c:64:5
	b	.LBB26_1
.LBB26_1:                               @ =>This Inner Loop Header: Depth=1
	.loc	26 64 12 is_stmt 0              @ ../Middlewares/CMSIS/DSP/Src/SupportFunctions/arm_f64_to_float.c:64:12
	ldr	r0, [sp, #4]
	.loc	26 64 5                         @ ../Middlewares/CMSIS/DSP/Src/SupportFunctions/arm_f64_to_float.c:64:5
	cbz	r0, .LBB26_3
	b	.LBB26_2
.LBB26_2:                               @   in Loop: Header=BB26_1 Depth=1
.Ltmp222:
	.loc	26 67 36 is_stmt 1              @ ../Middlewares/CMSIS/DSP/Src/SupportFunctions/arm_f64_to_float.c:67:36
	ldr	r0, [sp, #8]
	add.w	r1, r0, #8
	str	r1, [sp, #8]
	.loc	26 67 31 is_stmt 0              @ ../Middlewares/CMSIS/DSP/Src/SupportFunctions/arm_f64_to_float.c:67:31
	vldr	d0, [r0]
	.loc	26 67 19                        @ ../Middlewares/CMSIS/DSP/Src/SupportFunctions/arm_f64_to_float.c:67:19
	vmov	r0, r1, d0
	bl	__aeabi_d2f
	.loc	26 67 14                        @ ../Middlewares/CMSIS/DSP/Src/SupportFunctions/arm_f64_to_float.c:67:14
	ldr	r1, [sp, #16]
	adds	r2, r1, #4
	str	r2, [sp, #16]
	.loc	26 67 17                        @ ../Middlewares/CMSIS/DSP/Src/SupportFunctions/arm_f64_to_float.c:67:17
	str	r0, [r1]
	.loc	26 71 15 is_stmt 1              @ ../Middlewares/CMSIS/DSP/Src/SupportFunctions/arm_f64_to_float.c:71:15
	ldr	r0, [sp, #4]
	subs	r0, #1
	str	r0, [sp, #4]
.Ltmp223:
	.loc	26 64 5                         @ ../Middlewares/CMSIS/DSP/Src/SupportFunctions/arm_f64_to_float.c:64:5
	b	.LBB26_1
.LBB26_3:
	.loc	26 73 1                         @ ../Middlewares/CMSIS/DSP/Src/SupportFunctions/arm_f64_to_float.c:73:1
	add	sp, #24
	pop	{r7, pc}
.Ltmp224:
.Lfunc_end26:
	.size	arm_f64_to_float, .Lfunc_end26-arm_f64_to_float
	.cfi_endproc
	.cantunwind
	.fnend
                                        @ -- End function
	.section	.text.arm_f64_to_q31,"ax",%progbits
	.hidden	arm_f64_to_q31                  @ -- Begin function arm_f64_to_q31
	.globl	arm_f64_to_q31
	.p2align	3
	.type	arm_f64_to_q31,%function
	.code	16                              @ @arm_f64_to_q31
	.thumb_func
arm_f64_to_q31:
.Lfunc_begin27:
	.file	27 "D:\\horizon\\Horizon_Infantry (2)\\MDK-ARM" "../Middlewares/CMSIS/DSP/Src/SupportFunctions/arm_f64_to_q31.c"
	.loc	27 68 0                         @ ../Middlewares/CMSIS/DSP/Src/SupportFunctions/arm_f64_to_q31.c:68:0
	.fnstart
	.cfi_startproc
@ %bb.0:
	.save	{r7, lr}
	push	{r7, lr}
	.cfi_def_cfa_offset 8
	.cfi_offset lr, -4
	.cfi_offset r7, -8
	.pad	#56
	sub	sp, #56
	.cfi_def_cfa_offset 64
	str	r0, [sp, #44]
	str	r1, [sp, #40]
	str	r2, [sp, #36]
.Ltmp225:
	.loc	27 70 26 prologue_end           @ ../Middlewares/CMSIS/DSP/Src/SupportFunctions/arm_f64_to_q31.c:70:26
	ldr	r0, [sp, #44]
	.loc	27 70 20 is_stmt 0              @ ../Middlewares/CMSIS/DSP/Src/SupportFunctions/arm_f64_to_q31.c:70:20
	str	r0, [sp, #28]
	.loc	27 125 12 is_stmt 1             @ ../Middlewares/CMSIS/DSP/Src/SupportFunctions/arm_f64_to_q31.c:125:12
	ldr	r0, [sp, #36]
	.loc	27 125 10 is_stmt 0             @ ../Middlewares/CMSIS/DSP/Src/SupportFunctions/arm_f64_to_q31.c:125:10
	str	r0, [sp, #32]
	.loc	27 129 3 is_stmt 1              @ ../Middlewares/CMSIS/DSP/Src/SupportFunctions/arm_f64_to_q31.c:129:3
	b	.LBB27_1
.LBB27_1:                               @ =>This Inner Loop Header: Depth=1
	.loc	27 129 10 is_stmt 0             @ ../Middlewares/CMSIS/DSP/Src/SupportFunctions/arm_f64_to_q31.c:129:10
	ldr	r0, [sp, #32]
	.loc	27 129 3                        @ ../Middlewares/CMSIS/DSP/Src/SupportFunctions/arm_f64_to_q31.c:129:3
	cmp	r0, #0
	beq	.LBB27_6
	b	.LBB27_2
.LBB27_2:                               @   in Loop: Header=BB27_1 Depth=1
.Ltmp226:
	.loc	27 136 15 is_stmt 1             @ ../Middlewares/CMSIS/DSP/Src/SupportFunctions/arm_f64_to_q31.c:136:15
	ldr	r0, [sp, #28]
	add.w	r1, r0, #8
	str	r1, [sp, #28]
	.loc	27 136 11 is_stmt 0             @ ../Middlewares/CMSIS/DSP/Src/SupportFunctions/arm_f64_to_q31.c:136:11
	vldr	d0, [r0]
	vldr	d1, .LCPI27_0
	.loc	27 136 18                       @ ../Middlewares/CMSIS/DSP/Src/SupportFunctions/arm_f64_to_q31.c:136:18
	vmov	r2, r3, d1
	vmov	r0, r1, d0
	bl	__aeabi_dmul
	vmov	d0, r0, r1
	.loc	27 136 8                        @ ../Middlewares/CMSIS/DSP/Src/SupportFunctions/arm_f64_to_q31.c:136:8
	vstr	d0, [sp, #16]
	.loc	27 137 11 is_stmt 1             @ ../Middlewares/CMSIS/DSP/Src/SupportFunctions/arm_f64_to_q31.c:137:11
	vldr	d0, [sp, #16]
	vldr	d1, .LCPI27_1
	vmov	r2, r3, d1
	vmov	r0, r1, d0
	str	r1, [sp, #8]                    @ 4-byte Spill
	str	r0, [sp, #12]                   @ 4-byte Spill
	bl	__aeabi_dcmpgt
	ldr	r1, [sp, #8]                    @ 4-byte Reload
	mov	r12, r0
	ldr	r0, [sp, #12]                   @ 4-byte Reload
	adr	r2, .LCPI27_2
	add.w	r3, r2, #8
	cmp.w	r12, #0
	it	ne
	movne	r2, r3
	vldr	d0, [r2]
	.loc	27 137 8 is_stmt 0              @ ../Middlewares/CMSIS/DSP/Src/SupportFunctions/arm_f64_to_q31.c:137:8
	vmov	r2, r3, d0
	bl	__aeabi_dadd
	vmov	d0, r0, r1
	vstr	d0, [sp, #16]
	.loc	27 138 40 is_stmt 1             @ ../Middlewares/CMSIS/DSP/Src/SupportFunctions/arm_f64_to_q31.c:138:40
	vldr	d0, [sp, #16]
	.loc	27 138 31 is_stmt 0             @ ../Middlewares/CMSIS/DSP/Src/SupportFunctions/arm_f64_to_q31.c:138:31
	vmov	r0, r1, d0
	bl	__aeabi_d2lz
	str	r1, [sp, #52]
	str	r0, [sp, #48]
.Ltmp227:
	.file	28 "D:\\horizon\\Horizon_Infantry (2)\\MDK-ARM" "../Middlewares/CMSIS/DSP/Inc\\dsp/none.h"
	.loc	28 139 22 is_stmt 1             @ ../Middlewares/CMSIS/DSP/Inc\dsp/none.h:139:22
	ldr	r1, [sp, #48]
	ldr	r0, [sp, #52]
	.loc	28 139 12 is_stmt 0             @ ../Middlewares/CMSIS/DSP/Inc\dsp/none.h:139:12
	cmp.w	r0, r1, asr #31
	beq	.LBB27_4
	b	.LBB27_3
.LBB27_3:                               @   in Loop: Header=BB27_1 Depth=1
	.loc	28 140 32 is_stmt 1             @ ../Middlewares/CMSIS/DSP/Inc\dsp/none.h:140:32
	ldr	r1, [sp, #52]
	mvn	r0, #-2147483648
	.loc	28 140 20 is_stmt 0             @ ../Middlewares/CMSIS/DSP/Inc\dsp/none.h:140:20
	eor.w	r0, r0, r1, asr #31
	.loc	28 139 12 is_stmt 1             @ ../Middlewares/CMSIS/DSP/Inc\dsp/none.h:139:12
	str	r0, [sp, #4]                    @ 4-byte Spill
	b	.LBB27_5
.LBB27_4:                               @   in Loop: Header=BB27_1 Depth=1
	.loc	28 140 54                       @ ../Middlewares/CMSIS/DSP/Inc\dsp/none.h:140:54
	ldr	r0, [sp, #48]
	.loc	28 139 12                       @ ../Middlewares/CMSIS/DSP/Inc\dsp/none.h:139:12
	str	r0, [sp, #4]                    @ 4-byte Spill
	b	.LBB27_5
.LBB27_5:                               @ %clip_q63_to_q31.exit
                                        @   in Loop: Header=BB27_1 Depth=1
	ldr	r0, [sp, #4]                    @ 4-byte Reload
.Ltmp228:
	.loc	27 138 10                       @ ../Middlewares/CMSIS/DSP/Src/SupportFunctions/arm_f64_to_q31.c:138:10
	ldr	r1, [sp, #40]
	adds	r2, r1, #4
	str	r2, [sp, #40]
	.loc	27 138 13 is_stmt 0             @ ../Middlewares/CMSIS/DSP/Src/SupportFunctions/arm_f64_to_q31.c:138:13
	str	r0, [r1]
	.loc	27 149 11 is_stmt 1             @ ../Middlewares/CMSIS/DSP/Src/SupportFunctions/arm_f64_to_q31.c:149:11
	ldr	r0, [sp, #32]
	subs	r0, #1
	str	r0, [sp, #32]
.Ltmp229:
	.loc	27 129 3                        @ ../Middlewares/CMSIS/DSP/Src/SupportFunctions/arm_f64_to_q31.c:129:3
	b	.LBB27_1
.LBB27_6:
	.loc	27 152 1                        @ ../Middlewares/CMSIS/DSP/Src/SupportFunctions/arm_f64_to_q31.c:152:1
	add	sp, #56
	pop	{r7, pc}
.Ltmp230:
	.p2align	3
@ %bb.7:
	.loc	27 0 1 is_stmt 0                @ ../Middlewares/CMSIS/DSP/Src/SupportFunctions/arm_f64_to_q31.c:0:1
.LCPI27_0:
	.long	0                               @ double 2147483648
	.long	1105199104
.LCPI27_1:
	.long	0                               @ double 0
	.long	0
.LCPI27_2:
	.long	0                               @ double -0.5
	.long	3219128320
	.long	0                               @ double 0.5
	.long	1071644672
.Lfunc_end27:
	.size	arm_f64_to_q31, .Lfunc_end27-arm_f64_to_q31
	.cfi_endproc
	.cantunwind
	.fnend
                                        @ -- End function
	.section	.text.arm_f64_to_q15,"ax",%progbits
	.hidden	arm_f64_to_q15                  @ -- Begin function arm_f64_to_q15
	.globl	arm_f64_to_q15
	.p2align	3
	.type	arm_f64_to_q15,%function
	.code	16                              @ @arm_f64_to_q15
	.thumb_func
arm_f64_to_q15:
.Lfunc_begin28:
	.file	29 "D:\\horizon\\Horizon_Infantry (2)\\MDK-ARM" "../Middlewares/CMSIS/DSP/Src/SupportFunctions/arm_f64_to_q15.c"
	.loc	29 66 0 is_stmt 1               @ ../Middlewares/CMSIS/DSP/Src/SupportFunctions/arm_f64_to_q15.c:66:0
	.fnstart
	.cfi_startproc
@ %bb.0:
	.save	{r7, lr}
	push	{r7, lr}
	.cfi_def_cfa_offset 8
	.cfi_offset lr, -4
	.cfi_offset r7, -8
	.pad	#40
	sub	sp, #40
	.cfi_def_cfa_offset 48
	str	r0, [sp, #36]
	str	r1, [sp, #32]
	str	r2, [sp, #28]
.Ltmp231:
	.loc	29 68 26 prologue_end           @ ../Middlewares/CMSIS/DSP/Src/SupportFunctions/arm_f64_to_q15.c:68:26
	ldr	r0, [sp, #36]
	.loc	29 68 20 is_stmt 0              @ ../Middlewares/CMSIS/DSP/Src/SupportFunctions/arm_f64_to_q15.c:68:20
	str	r0, [sp, #20]
	.loc	29 120 12 is_stmt 1             @ ../Middlewares/CMSIS/DSP/Src/SupportFunctions/arm_f64_to_q15.c:120:12
	ldr	r0, [sp, #28]
	.loc	29 120 10 is_stmt 0             @ ../Middlewares/CMSIS/DSP/Src/SupportFunctions/arm_f64_to_q15.c:120:10
	str	r0, [sp, #24]
	.loc	29 124 3 is_stmt 1              @ ../Middlewares/CMSIS/DSP/Src/SupportFunctions/arm_f64_to_q15.c:124:3
	b	.LBB28_1
.LBB28_1:                               @ =>This Inner Loop Header: Depth=1
	.loc	29 124 10 is_stmt 0             @ ../Middlewares/CMSIS/DSP/Src/SupportFunctions/arm_f64_to_q15.c:124:10
	ldr	r0, [sp, #24]
	.loc	29 124 3                        @ ../Middlewares/CMSIS/DSP/Src/SupportFunctions/arm_f64_to_q15.c:124:3
	cmp	r0, #0
	beq	.LBB28_3
	b	.LBB28_2
.LBB28_2:                               @   in Loop: Header=BB28_1 Depth=1
.Ltmp232:
	.loc	29 131 15 is_stmt 1             @ ../Middlewares/CMSIS/DSP/Src/SupportFunctions/arm_f64_to_q15.c:131:15
	ldr	r0, [sp, #20]
	add.w	r1, r0, #8
	str	r1, [sp, #20]
	.loc	29 131 11 is_stmt 0             @ ../Middlewares/CMSIS/DSP/Src/SupportFunctions/arm_f64_to_q15.c:131:11
	vldr	d0, [r0]
	vldr	d1, .LCPI28_0
	.loc	29 131 18                       @ ../Middlewares/CMSIS/DSP/Src/SupportFunctions/arm_f64_to_q15.c:131:18
	vmov	r2, r3, d1
	vmov	r0, r1, d0
	bl	__aeabi_dmul
	vmov	d0, r0, r1
	.loc	29 131 8                        @ ../Middlewares/CMSIS/DSP/Src/SupportFunctions/arm_f64_to_q15.c:131:8
	vstr	d0, [sp, #8]
	.loc	29 132 11 is_stmt 1             @ ../Middlewares/CMSIS/DSP/Src/SupportFunctions/arm_f64_to_q15.c:132:11
	vldr	d0, [sp, #8]
	vldr	d1, .LCPI28_1
	vmov	r2, r3, d1
	vmov	r0, r1, d0
	str	r1, [sp]                        @ 4-byte Spill
	str	r0, [sp, #4]                    @ 4-byte Spill
	bl	__aeabi_dcmpgt
	ldr	r1, [sp]                        @ 4-byte Reload
	mov	r12, r0
	ldr	r0, [sp, #4]                    @ 4-byte Reload
	adr	r2, .LCPI28_2
	add.w	r3, r2, #8
	cmp.w	r12, #0
	it	ne
	movne	r2, r3
	vldr	d0, [r2]
	.loc	29 132 8 is_stmt 0              @ ../Middlewares/CMSIS/DSP/Src/SupportFunctions/arm_f64_to_q15.c:132:8
	vmov	r2, r3, d0
	bl	__aeabi_dadd
	vmov	d0, r0, r1
	vstr	d0, [sp, #8]
	.loc	29 133 52 is_stmt 1             @ ../Middlewares/CMSIS/DSP/Src/SupportFunctions/arm_f64_to_q15.c:133:52
	vldr	d0, [sp, #8]
	.loc	29 133 43 is_stmt 0             @ ../Middlewares/CMSIS/DSP/Src/SupportFunctions/arm_f64_to_q15.c:133:43
	vmov	r0, r1, d0
	bl	__aeabi_d2iz
	.loc	29 133 24                       @ ../Middlewares/CMSIS/DSP/Src/SupportFunctions/arm_f64_to_q15.c:133:24
	ssat	r0, #16, r0
	.loc	29 133 10                       @ ../Middlewares/CMSIS/DSP/Src/SupportFunctions/arm_f64_to_q15.c:133:10
	ldr	r1, [sp, #32]
	adds	r2, r1, #2
	str	r2, [sp, #32]
	.loc	29 133 13                       @ ../Middlewares/CMSIS/DSP/Src/SupportFunctions/arm_f64_to_q15.c:133:13
	strh	r0, [r1]
	.loc	29 144 11 is_stmt 1             @ ../Middlewares/CMSIS/DSP/Src/SupportFunctions/arm_f64_to_q15.c:144:11
	ldr	r0, [sp, #24]
	subs	r0, #1
	str	r0, [sp, #24]
.Ltmp233:
	.loc	29 124 3                        @ ../Middlewares/CMSIS/DSP/Src/SupportFunctions/arm_f64_to_q15.c:124:3
	b	.LBB28_1
.LBB28_3:
	.loc	29 147 1                        @ ../Middlewares/CMSIS/DSP/Src/SupportFunctions/arm_f64_to_q15.c:147:1
	add	sp, #40
	pop	{r7, pc}
.Ltmp234:
	.p2align	3
@ %bb.4:
	.loc	29 0 1 is_stmt 0                @ ../Middlewares/CMSIS/DSP/Src/SupportFunctions/arm_f64_to_q15.c:0:1
.LCPI28_0:
	.long	0                               @ double 32768
	.long	1088421888
.LCPI28_1:
	.long	0                               @ double 0
	.long	0
.LCPI28_2:
	.long	0                               @ double -0.5
	.long	3219128320
	.long	0                               @ double 0.5
	.long	1071644672
.Lfunc_end28:
	.size	arm_f64_to_q15, .Lfunc_end28-arm_f64_to_q15
	.cfi_endproc
	.cantunwind
	.fnend
                                        @ -- End function
	.section	.text.arm_f64_to_q7,"ax",%progbits
	.hidden	arm_f64_to_q7                   @ -- Begin function arm_f64_to_q7
	.globl	arm_f64_to_q7
	.p2align	3
	.type	arm_f64_to_q7,%function
	.code	16                              @ @arm_f64_to_q7
	.thumb_func
arm_f64_to_q7:
.Lfunc_begin29:
	.file	30 "D:\\horizon\\Horizon_Infantry (2)\\MDK-ARM" "../Middlewares/CMSIS/DSP/Src/SupportFunctions/arm_f64_to_q7.c"
	.loc	30 66 0 is_stmt 1               @ ../Middlewares/CMSIS/DSP/Src/SupportFunctions/arm_f64_to_q7.c:66:0
	.fnstart
	.cfi_startproc
@ %bb.0:
	.save	{r7, lr}
	push	{r7, lr}
	.cfi_def_cfa_offset 8
	.cfi_offset lr, -4
	.cfi_offset r7, -8
	.pad	#40
	sub	sp, #40
	.cfi_def_cfa_offset 48
	str	r0, [sp, #36]
	str	r1, [sp, #32]
	str	r2, [sp, #28]
.Ltmp235:
	.loc	30 68 26 prologue_end           @ ../Middlewares/CMSIS/DSP/Src/SupportFunctions/arm_f64_to_q7.c:68:26
	ldr	r0, [sp, #36]
	.loc	30 68 20 is_stmt 0              @ ../Middlewares/CMSIS/DSP/Src/SupportFunctions/arm_f64_to_q7.c:68:20
	str	r0, [sp, #20]
	.loc	30 121 12 is_stmt 1             @ ../Middlewares/CMSIS/DSP/Src/SupportFunctions/arm_f64_to_q7.c:121:12
	ldr	r0, [sp, #28]
	.loc	30 121 10 is_stmt 0             @ ../Middlewares/CMSIS/DSP/Src/SupportFunctions/arm_f64_to_q7.c:121:10
	str	r0, [sp, #24]
	.loc	30 125 3 is_stmt 1              @ ../Middlewares/CMSIS/DSP/Src/SupportFunctions/arm_f64_to_q7.c:125:3
	b	.LBB29_1
.LBB29_1:                               @ =>This Inner Loop Header: Depth=1
	.loc	30 125 10 is_stmt 0             @ ../Middlewares/CMSIS/DSP/Src/SupportFunctions/arm_f64_to_q7.c:125:10
	ldr	r0, [sp, #24]
	.loc	30 125 3                        @ ../Middlewares/CMSIS/DSP/Src/SupportFunctions/arm_f64_to_q7.c:125:3
	cmp	r0, #0
	beq	.LBB29_3
	b	.LBB29_2
.LBB29_2:                               @   in Loop: Header=BB29_1 Depth=1
.Ltmp236:
	.loc	30 132 15 is_stmt 1             @ ../Middlewares/CMSIS/DSP/Src/SupportFunctions/arm_f64_to_q7.c:132:15
	ldr	r0, [sp, #20]
	add.w	r1, r0, #8
	str	r1, [sp, #20]
	.loc	30 132 11 is_stmt 0             @ ../Middlewares/CMSIS/DSP/Src/SupportFunctions/arm_f64_to_q7.c:132:11
	vldr	d0, [r0]
	vldr	d1, .LCPI29_0
	.loc	30 132 18                       @ ../Middlewares/CMSIS/DSP/Src/SupportFunctions/arm_f64_to_q7.c:132:18
	vmov	r2, r3, d1
	vmov	r0, r1, d0
	bl	__aeabi_dmul
	vmov	d0, r0, r1
	.loc	30 132 8                        @ ../Middlewares/CMSIS/DSP/Src/SupportFunctions/arm_f64_to_q7.c:132:8
	vstr	d0, [sp, #8]
	.loc	30 133 11 is_stmt 1             @ ../Middlewares/CMSIS/DSP/Src/SupportFunctions/arm_f64_to_q7.c:133:11
	vldr	d0, [sp, #8]
	vldr	d1, .LCPI29_1
	vmov	r2, r3, d1
	vmov	r0, r1, d0
	str	r1, [sp]                        @ 4-byte Spill
	str	r0, [sp, #4]                    @ 4-byte Spill
	bl	__aeabi_dcmpgt
	ldr	r1, [sp]                        @ 4-byte Reload
	mov	r12, r0
	ldr	r0, [sp, #4]                    @ 4-byte Reload
	adr	r2, .LCPI29_2
	add.w	r3, r2, #8
	cmp.w	r12, #0
	it	ne
	movne	r2, r3
	vldr	d0, [r2]
	.loc	30 133 8 is_stmt 0              @ ../Middlewares/CMSIS/DSP/Src/SupportFunctions/arm_f64_to_q7.c:133:8
	vmov	r2, r3, d0
	bl	__aeabi_dadd
	vmov	d0, r0, r1
	vstr	d0, [sp, #8]
	.loc	30 134 51 is_stmt 1             @ ../Middlewares/CMSIS/DSP/Src/SupportFunctions/arm_f64_to_q7.c:134:51
	vldr	d0, [sp, #8]
	.loc	30 134 42 is_stmt 0             @ ../Middlewares/CMSIS/DSP/Src/SupportFunctions/arm_f64_to_q7.c:134:42
	vmov	r0, r1, d0
	bl	__aeabi_d2iz
	.loc	30 134 23                       @ ../Middlewares/CMSIS/DSP/Src/SupportFunctions/arm_f64_to_q7.c:134:23
	ssat	r0, #8, r0
	.loc	30 134 10                       @ ../Middlewares/CMSIS/DSP/Src/SupportFunctions/arm_f64_to_q7.c:134:10
	ldr	r1, [sp, #32]
	adds	r2, r1, #1
	str	r2, [sp, #32]
	.loc	30 134 13                       @ ../Middlewares/CMSIS/DSP/Src/SupportFunctions/arm_f64_to_q7.c:134:13
	strb	r0, [r1]
	.loc	30 143 11 is_stmt 1             @ ../Middlewares/CMSIS/DSP/Src/SupportFunctions/arm_f64_to_q7.c:143:11
	ldr	r0, [sp, #24]
	subs	r0, #1
	str	r0, [sp, #24]
.Ltmp237:
	.loc	30 125 3                        @ ../Middlewares/CMSIS/DSP/Src/SupportFunctions/arm_f64_to_q7.c:125:3
	b	.LBB29_1
.LBB29_3:
	.loc	30 146 1                        @ ../Middlewares/CMSIS/DSP/Src/SupportFunctions/arm_f64_to_q7.c:146:1
	add	sp, #40
	pop	{r7, pc}
.Ltmp238:
	.p2align	3
@ %bb.4:
	.loc	30 0 1 is_stmt 0                @ ../Middlewares/CMSIS/DSP/Src/SupportFunctions/arm_f64_to_q7.c:0:1
.LCPI29_0:
	.long	0                               @ double 128
	.long	1080033280
.LCPI29_1:
	.long	0                               @ double 0
	.long	0
.LCPI29_2:
	.long	0                               @ double -0.5
	.long	3219128320
	.long	0                               @ double 0.5
	.long	1071644672
.Lfunc_end29:
	.size	arm_f64_to_q7, .Lfunc_end29-arm_f64_to_q7
	.cfi_endproc
	.cantunwind
	.fnend
                                        @ -- End function
	.section	.text.arm_float_to_f64,"ax",%progbits
	.hidden	arm_float_to_f64                @ -- Begin function arm_float_to_f64
	.globl	arm_float_to_f64
	.p2align	2
	.type	arm_float_to_f64,%function
	.code	16                              @ @arm_float_to_f64
	.thumb_func
arm_float_to_f64:
.Lfunc_begin30:
	.file	31 "D:\\horizon\\Horizon_Infantry (2)\\MDK-ARM" "../Middlewares/CMSIS/DSP/Src/SupportFunctions/arm_float_to_f64.c"
	.loc	31 57 0 is_stmt 1               @ ../Middlewares/CMSIS/DSP/Src/SupportFunctions/arm_float_to_f64.c:57:0
	.fnstart
	.cfi_startproc
@ %bb.0:
	.save	{r7, lr}
	push	{r7, lr}
	.cfi_def_cfa_offset 8
	.cfi_offset lr, -4
	.cfi_offset r7, -8
	.pad	#24
	sub	sp, #24
	.cfi_def_cfa_offset 32
	str	r0, [sp, #20]
	str	r1, [sp, #16]
	str	r2, [sp, #12]
.Ltmp239:
	.loc	31 58 28 prologue_end           @ ../Middlewares/CMSIS/DSP/Src/SupportFunctions/arm_float_to_f64.c:58:28
	ldr	r0, [sp, #20]
	.loc	31 58 22 is_stmt 0              @ ../Middlewares/CMSIS/DSP/Src/SupportFunctions/arm_float_to_f64.c:58:22
	str	r0, [sp, #8]
	.loc	31 64 14 is_stmt 1              @ ../Middlewares/CMSIS/DSP/Src/SupportFunctions/arm_float_to_f64.c:64:14
	ldr	r0, [sp, #12]
	.loc	31 64 12 is_stmt 0              @ ../Middlewares/CMSIS/DSP/Src/SupportFunctions/arm_float_to_f64.c:64:12
	str	r0, [sp, #4]
	.loc	31 66 5 is_stmt 1               @ ../Middlewares/CMSIS/DSP/Src/SupportFunctions/arm_float_to_f64.c:66:5
	b	.LBB30_1
.LBB30_1:                               @ =>This Inner Loop Header: Depth=1
	.loc	31 66 12 is_stmt 0              @ ../Middlewares/CMSIS/DSP/Src/SupportFunctions/arm_float_to_f64.c:66:12
	ldr	r0, [sp, #4]
	.loc	31 66 5                         @ ../Middlewares/CMSIS/DSP/Src/SupportFunctions/arm_float_to_f64.c:66:5
	cbz	r0, .LBB30_3
	b	.LBB30_2
.LBB30_2:                               @   in Loop: Header=BB30_1 Depth=1
.Ltmp240:
	.loc	31 69 36 is_stmt 1              @ ../Middlewares/CMSIS/DSP/Src/SupportFunctions/arm_float_to_f64.c:69:36
	ldr	r0, [sp, #8]
	adds	r1, r0, #4
	str	r1, [sp, #8]
	.loc	31 69 19 is_stmt 0              @ ../Middlewares/CMSIS/DSP/Src/SupportFunctions/arm_float_to_f64.c:69:19
	ldr	r0, [r0]
	bl	__aeabi_f2d
	vmov	d0, r0, r1
	.loc	31 69 14                        @ ../Middlewares/CMSIS/DSP/Src/SupportFunctions/arm_float_to_f64.c:69:14
	ldr	r0, [sp, #16]
	add.w	r1, r0, #8
	str	r1, [sp, #16]
	.loc	31 69 17                        @ ../Middlewares/CMSIS/DSP/Src/SupportFunctions/arm_float_to_f64.c:69:17
	vstr	d0, [r0]
	.loc	31 73 15 is_stmt 1              @ ../Middlewares/CMSIS/DSP/Src/SupportFunctions/arm_float_to_f64.c:73:15
	ldr	r0, [sp, #4]
	subs	r0, #1
	str	r0, [sp, #4]
.Ltmp241:
	.loc	31 66 5                         @ ../Middlewares/CMSIS/DSP/Src/SupportFunctions/arm_float_to_f64.c:66:5
	b	.LBB30_1
.LBB30_3:
	.loc	31 75 1                         @ ../Middlewares/CMSIS/DSP/Src/SupportFunctions/arm_float_to_f64.c:75:1
	add	sp, #24
	pop	{r7, pc}
.Ltmp242:
.Lfunc_end30:
	.size	arm_float_to_f64, .Lfunc_end30-arm_float_to_f64
	.cfi_endproc
	.cantunwind
	.fnend
                                        @ -- End function
	.section	.text.arm_float_to_q15,"ax",%progbits
	.hidden	arm_float_to_q15                @ -- Begin function arm_float_to_q15
	.globl	arm_float_to_q15
	.p2align	2
	.type	arm_float_to_q15,%function
	.code	16                              @ @arm_float_to_q15
	.thumb_func
arm_float_to_q15:
.Lfunc_begin31:
	.file	32 "D:\\horizon\\Horizon_Infantry (2)\\MDK-ARM" "../Middlewares/CMSIS/DSP/Src/SupportFunctions/arm_float_to_q15.c"
	.loc	32 220 0                        @ ../Middlewares/CMSIS/DSP/Src/SupportFunctions/arm_float_to_q15.c:220:0
	.fnstart
	.cfi_startproc
@ %bb.0:
	.pad	#24
	sub	sp, #24
	.cfi_def_cfa_offset 24
	str	r0, [sp, #20]
	str	r1, [sp, #16]
	str	r2, [sp, #12]
.Ltmp243:
	.loc	32 222 26 prologue_end          @ ../Middlewares/CMSIS/DSP/Src/SupportFunctions/arm_float_to_q15.c:222:26
	ldr	r0, [sp, #20]
	.loc	32 222 20 is_stmt 0             @ ../Middlewares/CMSIS/DSP/Src/SupportFunctions/arm_float_to_q15.c:222:20
	str	r0, [sp, #4]
	.loc	32 275 12 is_stmt 1             @ ../Middlewares/CMSIS/DSP/Src/SupportFunctions/arm_float_to_q15.c:275:12
	ldr	r0, [sp, #12]
	.loc	32 275 10 is_stmt 0             @ ../Middlewares/CMSIS/DSP/Src/SupportFunctions/arm_float_to_q15.c:275:10
	str	r0, [sp, #8]
	.loc	32 279 3 is_stmt 1              @ ../Middlewares/CMSIS/DSP/Src/SupportFunctions/arm_float_to_q15.c:279:3
	b	.LBB31_1
.LBB31_1:                               @ =>This Inner Loop Header: Depth=1
	.loc	32 279 10 is_stmt 0             @ ../Middlewares/CMSIS/DSP/Src/SupportFunctions/arm_float_to_q15.c:279:10
	ldr	r0, [sp, #8]
	.loc	32 279 3                        @ ../Middlewares/CMSIS/DSP/Src/SupportFunctions/arm_float_to_q15.c:279:3
	cbz	r0, .LBB31_3
	b	.LBB31_2
.LBB31_2:                               @   in Loop: Header=BB31_1 Depth=1
.Ltmp244:
	.loc	32 286 15 is_stmt 1             @ ../Middlewares/CMSIS/DSP/Src/SupportFunctions/arm_float_to_q15.c:286:15
	ldr	r0, [sp, #4]
	adds	r1, r0, #4
	str	r1, [sp, #4]
	.loc	32 286 11 is_stmt 0             @ ../Middlewares/CMSIS/DSP/Src/SupportFunctions/arm_float_to_q15.c:286:11
	vldr	s0, [r0]
	vldr	s2, .LCPI31_0
	.loc	32 286 18                       @ ../Middlewares/CMSIS/DSP/Src/SupportFunctions/arm_float_to_q15.c:286:18
	vmul.f32	s0, s0, s2
	.loc	32 286 8                        @ ../Middlewares/CMSIS/DSP/Src/SupportFunctions/arm_float_to_q15.c:286:8
	vstr	s0, [sp]
	.loc	32 287 11 is_stmt 1             @ ../Middlewares/CMSIS/DSP/Src/SupportFunctions/arm_float_to_q15.c:287:11
	vldr	s0, [sp]
	vmov.f32	s4, #5.000000e-01
	vmov.f32	s2, #-5.000000e-01
	vcmp.f32	s0, #0
	vmrs	APSR_nzcv, fpscr
	it	gt
	vmovgt.f32	s2, s4
	.loc	32 287 8 is_stmt 0              @ ../Middlewares/CMSIS/DSP/Src/SupportFunctions/arm_float_to_q15.c:287:8
	vadd.f32	s0, s0, s2
	vstr	s0, [sp]
	.loc	32 288 52 is_stmt 1             @ ../Middlewares/CMSIS/DSP/Src/SupportFunctions/arm_float_to_q15.c:288:52
	vldr	s0, [sp]
	.loc	32 288 43 is_stmt 0             @ ../Middlewares/CMSIS/DSP/Src/SupportFunctions/arm_float_to_q15.c:288:43
	vcvt.s32.f32	s0, s0
	vmov	r0, s0
	.loc	32 288 24                       @ ../Middlewares/CMSIS/DSP/Src/SupportFunctions/arm_float_to_q15.c:288:24
	ssat	r0, #16, r0
	.loc	32 288 10                       @ ../Middlewares/CMSIS/DSP/Src/SupportFunctions/arm_float_to_q15.c:288:10
	ldr	r1, [sp, #16]
	adds	r2, r1, #2
	str	r2, [sp, #16]
	.loc	32 288 13                       @ ../Middlewares/CMSIS/DSP/Src/SupportFunctions/arm_float_to_q15.c:288:13
	strh	r0, [r1]
	.loc	32 299 11 is_stmt 1             @ ../Middlewares/CMSIS/DSP/Src/SupportFunctions/arm_float_to_q15.c:299:11
	ldr	r0, [sp, #8]
	subs	r0, #1
	str	r0, [sp, #8]
.Ltmp245:
	.loc	32 279 3                        @ ../Middlewares/CMSIS/DSP/Src/SupportFunctions/arm_float_to_q15.c:279:3
	b	.LBB31_1
.LBB31_3:
	.loc	32 302 1                        @ ../Middlewares/CMSIS/DSP/Src/SupportFunctions/arm_float_to_q15.c:302:1
	add	sp, #24
	bx	lr
.Ltmp246:
	.p2align	2
@ %bb.4:
	.loc	32 0 1 is_stmt 0                @ ../Middlewares/CMSIS/DSP/Src/SupportFunctions/arm_float_to_q15.c:0:1
.LCPI31_0:
	.long	0x47000000                      @ float 32768
.Lfunc_end31:
	.size	arm_float_to_q15, .Lfunc_end31-arm_float_to_q15
	.cfi_endproc
	.cantunwind
	.fnend
                                        @ -- End function
	.section	.text.arm_float_to_q31,"ax",%progbits
	.hidden	arm_float_to_q31                @ -- Begin function arm_float_to_q31
	.globl	arm_float_to_q31
	.p2align	2
	.type	arm_float_to_q31,%function
	.code	16                              @ @arm_float_to_q31
	.thumb_func
arm_float_to_q31:
.Lfunc_begin32:
	.file	33 "D:\\horizon\\Horizon_Infantry (2)\\MDK-ARM" "../Middlewares/CMSIS/DSP/Src/SupportFunctions/arm_float_to_q31.c"
	.loc	33 224 0 is_stmt 1              @ ../Middlewares/CMSIS/DSP/Src/SupportFunctions/arm_float_to_q31.c:224:0
	.fnstart
	.cfi_startproc
@ %bb.0:
	.save	{r7, lr}
	push	{r7, lr}
	.cfi_def_cfa_offset 8
	.cfi_offset lr, -4
	.cfi_offset r7, -8
	.pad	#40
	sub	sp, #40
	.cfi_def_cfa_offset 48
	str	r0, [sp, #28]
	str	r1, [sp, #24]
	str	r2, [sp, #20]
.Ltmp247:
	.loc	33 226 26 prologue_end          @ ../Middlewares/CMSIS/DSP/Src/SupportFunctions/arm_float_to_q31.c:226:26
	ldr	r0, [sp, #28]
	.loc	33 226 20 is_stmt 0             @ ../Middlewares/CMSIS/DSP/Src/SupportFunctions/arm_float_to_q31.c:226:20
	str	r0, [sp, #12]
	.loc	33 281 12 is_stmt 1             @ ../Middlewares/CMSIS/DSP/Src/SupportFunctions/arm_float_to_q31.c:281:12
	ldr	r0, [sp, #20]
	.loc	33 281 10 is_stmt 0             @ ../Middlewares/CMSIS/DSP/Src/SupportFunctions/arm_float_to_q31.c:281:10
	str	r0, [sp, #16]
	.loc	33 285 3 is_stmt 1              @ ../Middlewares/CMSIS/DSP/Src/SupportFunctions/arm_float_to_q31.c:285:3
	b	.LBB32_1
.LBB32_1:                               @ =>This Inner Loop Header: Depth=1
	.loc	33 285 10 is_stmt 0             @ ../Middlewares/CMSIS/DSP/Src/SupportFunctions/arm_float_to_q31.c:285:10
	ldr	r0, [sp, #16]
	.loc	33 285 3                        @ ../Middlewares/CMSIS/DSP/Src/SupportFunctions/arm_float_to_q31.c:285:3
	cbz	r0, .LBB32_6
	b	.LBB32_2
.LBB32_2:                               @   in Loop: Header=BB32_1 Depth=1
.Ltmp248:
	.loc	33 292 15 is_stmt 1             @ ../Middlewares/CMSIS/DSP/Src/SupportFunctions/arm_float_to_q31.c:292:15
	ldr	r0, [sp, #12]
	adds	r1, r0, #4
	str	r1, [sp, #12]
	.loc	33 292 11 is_stmt 0             @ ../Middlewares/CMSIS/DSP/Src/SupportFunctions/arm_float_to_q31.c:292:11
	vldr	s0, [r0]
	vldr	s2, .LCPI32_0
	.loc	33 292 18                       @ ../Middlewares/CMSIS/DSP/Src/SupportFunctions/arm_float_to_q31.c:292:18
	vmul.f32	s0, s0, s2
	.loc	33 292 8                        @ ../Middlewares/CMSIS/DSP/Src/SupportFunctions/arm_float_to_q31.c:292:8
	vstr	s0, [sp, #8]
	.loc	33 293 11 is_stmt 1             @ ../Middlewares/CMSIS/DSP/Src/SupportFunctions/arm_float_to_q31.c:293:11
	vldr	s0, [sp, #8]
	vmov.f32	s4, #5.000000e-01
	vmov.f32	s2, #-5.000000e-01
	vcmp.f32	s0, #0
	vmrs	APSR_nzcv, fpscr
	it	gt
	vmovgt.f32	s2, s4
	.loc	33 293 8 is_stmt 0              @ ../Middlewares/CMSIS/DSP/Src/SupportFunctions/arm_float_to_q31.c:293:8
	vadd.f32	s0, s0, s2
	vstr	s0, [sp, #8]
	.loc	33 294 31 is_stmt 1             @ ../Middlewares/CMSIS/DSP/Src/SupportFunctions/arm_float_to_q31.c:294:31
	ldr	r0, [sp, #8]
	bl	__aeabi_f2lz
	str	r1, [sp, #36]
	str	r0, [sp, #32]
.Ltmp249:
	.loc	28 139 22                       @ ../Middlewares/CMSIS/DSP/Inc\dsp/none.h:139:22
	ldr	r1, [sp, #32]
	ldr	r0, [sp, #36]
	.loc	28 139 12 is_stmt 0             @ ../Middlewares/CMSIS/DSP/Inc\dsp/none.h:139:12
	cmp.w	r0, r1, asr #31
	beq	.LBB32_4
	b	.LBB32_3
.LBB32_3:                               @   in Loop: Header=BB32_1 Depth=1
	.loc	28 140 32 is_stmt 1             @ ../Middlewares/CMSIS/DSP/Inc\dsp/none.h:140:32
	ldr	r1, [sp, #36]
	mvn	r0, #-2147483648
	.loc	28 140 20 is_stmt 0             @ ../Middlewares/CMSIS/DSP/Inc\dsp/none.h:140:20
	eor.w	r0, r0, r1, asr #31
	.loc	28 139 12 is_stmt 1             @ ../Middlewares/CMSIS/DSP/Inc\dsp/none.h:139:12
	str	r0, [sp, #4]                    @ 4-byte Spill
	b	.LBB32_5
.LBB32_4:                               @   in Loop: Header=BB32_1 Depth=1
	.loc	28 140 54                       @ ../Middlewares/CMSIS/DSP/Inc\dsp/none.h:140:54
	ldr	r0, [sp, #32]
	.loc	28 139 12                       @ ../Middlewares/CMSIS/DSP/Inc\dsp/none.h:139:12
	str	r0, [sp, #4]                    @ 4-byte Spill
	b	.LBB32_5
.LBB32_5:                               @ %clip_q63_to_q31.exit
                                        @   in Loop: Header=BB32_1 Depth=1
	ldr	r0, [sp, #4]                    @ 4-byte Reload
.Ltmp250:
	.loc	33 294 10                       @ ../Middlewares/CMSIS/DSP/Src/SupportFunctions/arm_float_to_q31.c:294:10
	ldr	r1, [sp, #24]
	adds	r2, r1, #4
	str	r2, [sp, #24]
	.loc	33 294 13 is_stmt 0             @ ../Middlewares/CMSIS/DSP/Src/SupportFunctions/arm_float_to_q31.c:294:13
	str	r0, [r1]
	.loc	33 305 11 is_stmt 1             @ ../Middlewares/CMSIS/DSP/Src/SupportFunctions/arm_float_to_q31.c:305:11
	ldr	r0, [sp, #16]
	subs	r0, #1
	str	r0, [sp, #16]
.Ltmp251:
	.loc	33 285 3                        @ ../Middlewares/CMSIS/DSP/Src/SupportFunctions/arm_float_to_q31.c:285:3
	b	.LBB32_1
.LBB32_6:
	.loc	33 308 1                        @ ../Middlewares/CMSIS/DSP/Src/SupportFunctions/arm_float_to_q31.c:308:1
	add	sp, #40
	pop	{r7, pc}
.Ltmp252:
	.p2align	2
@ %bb.7:
	.loc	33 0 1 is_stmt 0                @ ../Middlewares/CMSIS/DSP/Src/SupportFunctions/arm_float_to_q31.c:0:1
.LCPI32_0:
	.long	0x4f000000                      @ float 2.14748365E+9
.Lfunc_end32:
	.size	arm_float_to_q31, .Lfunc_end32-arm_float_to_q31
	.cfi_endproc
	.cantunwind
	.fnend
                                        @ -- End function
	.section	.text.arm_float_to_q7,"ax",%progbits
	.hidden	arm_float_to_q7                 @ -- Begin function arm_float_to_q7
	.globl	arm_float_to_q7
	.p2align	2
	.type	arm_float_to_q7,%function
	.code	16                              @ @arm_float_to_q7
	.thumb_func
arm_float_to_q7:
.Lfunc_begin33:
	.file	34 "D:\\horizon\\Horizon_Infantry (2)\\MDK-ARM" "../Middlewares/CMSIS/DSP/Src/SupportFunctions/arm_float_to_q7.c"
	.loc	34 244 0 is_stmt 1              @ ../Middlewares/CMSIS/DSP/Src/SupportFunctions/arm_float_to_q7.c:244:0
	.fnstart
	.cfi_startproc
@ %bb.0:
	.pad	#24
	sub	sp, #24
	.cfi_def_cfa_offset 24
	str	r0, [sp, #20]
	str	r1, [sp, #16]
	str	r2, [sp, #12]
.Ltmp253:
	.loc	34 246 26 prologue_end          @ ../Middlewares/CMSIS/DSP/Src/SupportFunctions/arm_float_to_q7.c:246:26
	ldr	r0, [sp, #20]
	.loc	34 246 20 is_stmt 0             @ ../Middlewares/CMSIS/DSP/Src/SupportFunctions/arm_float_to_q7.c:246:20
	str	r0, [sp, #4]
	.loc	34 299 12 is_stmt 1             @ ../Middlewares/CMSIS/DSP/Src/SupportFunctions/arm_float_to_q7.c:299:12
	ldr	r0, [sp, #12]
	.loc	34 299 10 is_stmt 0             @ ../Middlewares/CMSIS/DSP/Src/SupportFunctions/arm_float_to_q7.c:299:10
	str	r0, [sp, #8]
	.loc	34 303 3 is_stmt 1              @ ../Middlewares/CMSIS/DSP/Src/SupportFunctions/arm_float_to_q7.c:303:3
	b	.LBB33_1
.LBB33_1:                               @ =>This Inner Loop Header: Depth=1
	.loc	34 303 10 is_stmt 0             @ ../Middlewares/CMSIS/DSP/Src/SupportFunctions/arm_float_to_q7.c:303:10
	ldr	r0, [sp, #8]
	.loc	34 303 3                        @ ../Middlewares/CMSIS/DSP/Src/SupportFunctions/arm_float_to_q7.c:303:3
	cbz	r0, .LBB33_3
	b	.LBB33_2
.LBB33_2:                               @   in Loop: Header=BB33_1 Depth=1
.Ltmp254:
	.loc	34 310 15 is_stmt 1             @ ../Middlewares/CMSIS/DSP/Src/SupportFunctions/arm_float_to_q7.c:310:15
	ldr	r0, [sp, #4]
	adds	r1, r0, #4
	str	r1, [sp, #4]
	.loc	34 310 11 is_stmt 0             @ ../Middlewares/CMSIS/DSP/Src/SupportFunctions/arm_float_to_q7.c:310:11
	vldr	s0, [r0]
	vldr	s2, .LCPI33_0
	.loc	34 310 18                       @ ../Middlewares/CMSIS/DSP/Src/SupportFunctions/arm_float_to_q7.c:310:18
	vmul.f32	s0, s0, s2
	.loc	34 310 8                        @ ../Middlewares/CMSIS/DSP/Src/SupportFunctions/arm_float_to_q7.c:310:8
	vstr	s0, [sp]
	.loc	34 311 11 is_stmt 1             @ ../Middlewares/CMSIS/DSP/Src/SupportFunctions/arm_float_to_q7.c:311:11
	vldr	s0, [sp]
	vmov.f32	s4, #5.000000e-01
	vmov.f32	s2, #-5.000000e-01
	vcmp.f32	s0, #0
	vmrs	APSR_nzcv, fpscr
	it	gt
	vmovgt.f32	s2, s4
	.loc	34 311 8 is_stmt 0              @ ../Middlewares/CMSIS/DSP/Src/SupportFunctions/arm_float_to_q7.c:311:8
	vadd.f32	s0, s0, s2
	vstr	s0, [sp]
	.loc	34 312 51 is_stmt 1             @ ../Middlewares/CMSIS/DSP/Src/SupportFunctions/arm_float_to_q7.c:312:51
	vldr	s0, [sp]
	.loc	34 312 42 is_stmt 0             @ ../Middlewares/CMSIS/DSP/Src/SupportFunctions/arm_float_to_q7.c:312:42
	vcvt.s32.f32	s0, s0
	vmov	r0, s0
	.loc	34 312 23                       @ ../Middlewares/CMSIS/DSP/Src/SupportFunctions/arm_float_to_q7.c:312:23
	ssat	r0, #8, r0
	.loc	34 312 10                       @ ../Middlewares/CMSIS/DSP/Src/SupportFunctions/arm_float_to_q7.c:312:10
	ldr	r1, [sp, #16]
	adds	r2, r1, #1
	str	r2, [sp, #16]
	.loc	34 312 13                       @ ../Middlewares/CMSIS/DSP/Src/SupportFunctions/arm_float_to_q7.c:312:13
	strb	r0, [r1]
	.loc	34 321 11 is_stmt 1             @ ../Middlewares/CMSIS/DSP/Src/SupportFunctions/arm_float_to_q7.c:321:11
	ldr	r0, [sp, #8]
	subs	r0, #1
	str	r0, [sp, #8]
.Ltmp255:
	.loc	34 303 3                        @ ../Middlewares/CMSIS/DSP/Src/SupportFunctions/arm_float_to_q7.c:303:3
	b	.LBB33_1
.LBB33_3:
	.loc	34 324 1                        @ ../Middlewares/CMSIS/DSP/Src/SupportFunctions/arm_float_to_q7.c:324:1
	add	sp, #24
	bx	lr
.Ltmp256:
	.p2align	2
@ %bb.4:
	.loc	34 0 1 is_stmt 0                @ ../Middlewares/CMSIS/DSP/Src/SupportFunctions/arm_float_to_q7.c:0:1
.LCPI33_0:
	.long	0x43000000                      @ float 128
.Lfunc_end33:
	.size	arm_float_to_q7, .Lfunc_end33-arm_float_to_q7
	.cfi_endproc
	.cantunwind
	.fnend
                                        @ -- End function
	.section	.text.arm_q15_to_f64,"ax",%progbits
	.hidden	arm_q15_to_f64                  @ -- Begin function arm_q15_to_f64
	.globl	arm_q15_to_f64
	.p2align	3
	.type	arm_q15_to_f64,%function
	.code	16                              @ @arm_q15_to_f64
	.thumb_func
arm_q15_to_f64:
.Lfunc_begin34:
	.file	35 "D:\\horizon\\Horizon_Infantry (2)\\MDK-ARM" "../Middlewares/CMSIS/DSP/Src/SupportFunctions/arm_q15_to_f64.c"
	.loc	35 62 0 is_stmt 1               @ ../Middlewares/CMSIS/DSP/Src/SupportFunctions/arm_q15_to_f64.c:62:0
	.fnstart
	.cfi_startproc
@ %bb.0:
	.save	{r7, lr}
	push	{r7, lr}
	.cfi_def_cfa_offset 8
	.cfi_offset lr, -4
	.cfi_offset r7, -8
	.pad	#24
	sub	sp, #24
	.cfi_def_cfa_offset 32
	str	r0, [sp, #20]
	str	r1, [sp, #16]
	str	r2, [sp, #12]
.Ltmp257:
	.loc	35 64 22 prologue_end           @ ../Middlewares/CMSIS/DSP/Src/SupportFunctions/arm_q15_to_f64.c:64:22
	ldr	r0, [sp, #20]
	.loc	35 64 16 is_stmt 0              @ ../Middlewares/CMSIS/DSP/Src/SupportFunctions/arm_q15_to_f64.c:64:16
	str	r0, [sp, #4]
	.loc	35 91 12 is_stmt 1              @ ../Middlewares/CMSIS/DSP/Src/SupportFunctions/arm_q15_to_f64.c:91:12
	ldr	r0, [sp, #12]
	.loc	35 91 10 is_stmt 0              @ ../Middlewares/CMSIS/DSP/Src/SupportFunctions/arm_q15_to_f64.c:91:10
	str	r0, [sp, #8]
	.loc	35 95 3 is_stmt 1               @ ../Middlewares/CMSIS/DSP/Src/SupportFunctions/arm_q15_to_f64.c:95:3
	b	.LBB34_1
.LBB34_1:                               @ =>This Inner Loop Header: Depth=1
	.loc	35 95 10 is_stmt 0              @ ../Middlewares/CMSIS/DSP/Src/SupportFunctions/arm_q15_to_f64.c:95:10
	ldr	r0, [sp, #8]
	.loc	35 95 3                         @ ../Middlewares/CMSIS/DSP/Src/SupportFunctions/arm_q15_to_f64.c:95:3
	cbz	r0, .LBB34_3
	b	.LBB34_2
.LBB34_2:                               @   in Loop: Header=BB34_1 Depth=1
.Ltmp258:
	.loc	35 100 32 is_stmt 1             @ ../Middlewares/CMSIS/DSP/Src/SupportFunctions/arm_q15_to_f64.c:100:32
	ldr	r0, [sp, #4]
	adds	r1, r0, #2
	str	r1, [sp, #4]
	.loc	35 100 28 is_stmt 0             @ ../Middlewares/CMSIS/DSP/Src/SupportFunctions/arm_q15_to_f64.c:100:28
	ldrsh.w	r0, [r0]
	.loc	35 100 16                       @ ../Middlewares/CMSIS/DSP/Src/SupportFunctions/arm_q15_to_f64.c:100:16
	bl	__aeabi_i2d
	vmov	d0, r0, r1
	vldr	d1, .LCPI34_0
	.loc	35 100 35                       @ ../Middlewares/CMSIS/DSP/Src/SupportFunctions/arm_q15_to_f64.c:100:35
	vmov	r2, r3, d1
	vmov	r0, r1, d0
	bl	__aeabi_ddiv
	vmov	d0, r0, r1
	.loc	35 100 10                       @ ../Middlewares/CMSIS/DSP/Src/SupportFunctions/arm_q15_to_f64.c:100:10
	ldr	r0, [sp, #16]
	add.w	r1, r0, #8
	str	r1, [sp, #16]
	.loc	35 100 13                       @ ../Middlewares/CMSIS/DSP/Src/SupportFunctions/arm_q15_to_f64.c:100:13
	vstr	d0, [r0]
	.loc	35 103 11 is_stmt 1             @ ../Middlewares/CMSIS/DSP/Src/SupportFunctions/arm_q15_to_f64.c:103:11
	ldr	r0, [sp, #8]
	subs	r0, #1
	str	r0, [sp, #8]
.Ltmp259:
	.loc	35 95 3                         @ ../Middlewares/CMSIS/DSP/Src/SupportFunctions/arm_q15_to_f64.c:95:3
	b	.LBB34_1
.LBB34_3:
	.loc	35 106 1                        @ ../Middlewares/CMSIS/DSP/Src/SupportFunctions/arm_q15_to_f64.c:106:1
	add	sp, #24
	pop	{r7, pc}
.Ltmp260:
	.p2align	3
@ %bb.4:
	.loc	35 0 1 is_stmt 0                @ ../Middlewares/CMSIS/DSP/Src/SupportFunctions/arm_q15_to_f64.c:0:1
.LCPI34_0:
	.long	0                               @ double 32768
	.long	1088421888
.Lfunc_end34:
	.size	arm_q15_to_f64, .Lfunc_end34-arm_q15_to_f64
	.cfi_endproc
	.cantunwind
	.fnend
                                        @ -- End function
	.section	.text.arm_q15_to_float,"ax",%progbits
	.hidden	arm_q15_to_float                @ -- Begin function arm_q15_to_float
	.globl	arm_q15_to_float
	.p2align	2
	.type	arm_q15_to_float,%function
	.code	16                              @ @arm_q15_to_float
	.thumb_func
arm_q15_to_float:
.Lfunc_begin35:
	.file	36 "D:\\horizon\\Horizon_Infantry (2)\\MDK-ARM" "../Middlewares/CMSIS/DSP/Src/SupportFunctions/arm_q15_to_float.c"
	.loc	36 157 0 is_stmt 1              @ ../Middlewares/CMSIS/DSP/Src/SupportFunctions/arm_q15_to_float.c:157:0
	.fnstart
	.cfi_startproc
@ %bb.0:
	.pad	#20
	sub	sp, #20
	.cfi_def_cfa_offset 20
	str	r0, [sp, #16]
	str	r1, [sp, #12]
	str	r2, [sp, #8]
.Ltmp261:
	.loc	36 159 22 prologue_end          @ ../Middlewares/CMSIS/DSP/Src/SupportFunctions/arm_q15_to_float.c:159:22
	ldr	r0, [sp, #16]
	.loc	36 159 16 is_stmt 0             @ ../Middlewares/CMSIS/DSP/Src/SupportFunctions/arm_q15_to_float.c:159:16
	str	r0, [sp]
	.loc	36 186 12 is_stmt 1             @ ../Middlewares/CMSIS/DSP/Src/SupportFunctions/arm_q15_to_float.c:186:12
	ldr	r0, [sp, #8]
	.loc	36 186 10 is_stmt 0             @ ../Middlewares/CMSIS/DSP/Src/SupportFunctions/arm_q15_to_float.c:186:10
	str	r0, [sp, #4]
	.loc	36 190 3 is_stmt 1              @ ../Middlewares/CMSIS/DSP/Src/SupportFunctions/arm_q15_to_float.c:190:3
	b	.LBB35_1
.LBB35_1:                               @ =>This Inner Loop Header: Depth=1
	.loc	36 190 10 is_stmt 0             @ ../Middlewares/CMSIS/DSP/Src/SupportFunctions/arm_q15_to_float.c:190:10
	ldr	r0, [sp, #4]
	.loc	36 190 3                        @ ../Middlewares/CMSIS/DSP/Src/SupportFunctions/arm_q15_to_float.c:190:3
	cbz	r0, .LBB35_3
	b	.LBB35_2
.LBB35_2:                               @   in Loop: Header=BB35_1 Depth=1
.Ltmp262:
	.loc	36 195 32 is_stmt 1             @ ../Middlewares/CMSIS/DSP/Src/SupportFunctions/arm_q15_to_float.c:195:32
	ldr	r0, [sp]
	adds	r1, r0, #2
	str	r1, [sp]
	.loc	36 195 28 is_stmt 0             @ ../Middlewares/CMSIS/DSP/Src/SupportFunctions/arm_q15_to_float.c:195:28
	ldrsh.w	r0, [r0]
	.loc	36 195 16                       @ ../Middlewares/CMSIS/DSP/Src/SupportFunctions/arm_q15_to_float.c:195:16
	vmov	s0, r0
	vcvt.f32.s32	s0, s0
	vldr	s2, .LCPI35_0
	.loc	36 195 35                       @ ../Middlewares/CMSIS/DSP/Src/SupportFunctions/arm_q15_to_float.c:195:35
	vdiv.f32	s0, s0, s2
	.loc	36 195 10                       @ ../Middlewares/CMSIS/DSP/Src/SupportFunctions/arm_q15_to_float.c:195:10
	ldr	r0, [sp, #12]
	adds	r1, r0, #4
	str	r1, [sp, #12]
	.loc	36 195 13                       @ ../Middlewares/CMSIS/DSP/Src/SupportFunctions/arm_q15_to_float.c:195:13
	vstr	s0, [r0]
	.loc	36 198 11 is_stmt 1             @ ../Middlewares/CMSIS/DSP/Src/SupportFunctions/arm_q15_to_float.c:198:11
	ldr	r0, [sp, #4]
	subs	r0, #1
	str	r0, [sp, #4]
.Ltmp263:
	.loc	36 190 3                        @ ../Middlewares/CMSIS/DSP/Src/SupportFunctions/arm_q15_to_float.c:190:3
	b	.LBB35_1
.LBB35_3:
	.loc	36 201 1                        @ ../Middlewares/CMSIS/DSP/Src/SupportFunctions/arm_q15_to_float.c:201:1
	add	sp, #20
	bx	lr
.Ltmp264:
	.p2align	2
@ %bb.4:
	.loc	36 0 1 is_stmt 0                @ ../Middlewares/CMSIS/DSP/Src/SupportFunctions/arm_q15_to_float.c:0:1
.LCPI35_0:
	.long	0x47000000                      @ float 32768
.Lfunc_end35:
	.size	arm_q15_to_float, .Lfunc_end35-arm_q15_to_float
	.cfi_endproc
	.cantunwind
	.fnend
                                        @ -- End function
	.section	.text.arm_q15_to_q31,"ax",%progbits
	.hidden	arm_q15_to_q31                  @ -- Begin function arm_q15_to_q31
	.globl	arm_q15_to_q31
	.p2align	2
	.type	arm_q15_to_q31,%function
	.code	16                              @ @arm_q15_to_q31
	.thumb_func
arm_q15_to_q31:
.Lfunc_begin36:
	.file	37 "D:\\horizon\\Horizon_Infantry (2)\\MDK-ARM" "../Middlewares/CMSIS/DSP/Src/SupportFunctions/arm_q15_to_q31.c"
	.loc	37 101 0 is_stmt 1              @ ../Middlewares/CMSIS/DSP/Src/SupportFunctions/arm_q15_to_q31.c:101:0
	.fnstart
	.cfi_startproc
@ %bb.0:
	.pad	#20
	sub	sp, #20
	.cfi_def_cfa_offset 20
	str	r0, [sp, #16]
	str	r1, [sp, #12]
	str	r2, [sp, #8]
.Ltmp265:
	.loc	37 103 22 prologue_end          @ ../Middlewares/CMSIS/DSP/Src/SupportFunctions/arm_q15_to_q31.c:103:22
	ldr	r0, [sp, #16]
	.loc	37 103 16 is_stmt 0             @ ../Middlewares/CMSIS/DSP/Src/SupportFunctions/arm_q15_to_q31.c:103:16
	str	r0, [sp]
	.loc	37 162 12 is_stmt 1             @ ../Middlewares/CMSIS/DSP/Src/SupportFunctions/arm_q15_to_q31.c:162:12
	ldr	r0, [sp, #8]
	.loc	37 162 10 is_stmt 0             @ ../Middlewares/CMSIS/DSP/Src/SupportFunctions/arm_q15_to_q31.c:162:10
	str	r0, [sp, #4]
	.loc	37 166 3 is_stmt 1              @ ../Middlewares/CMSIS/DSP/Src/SupportFunctions/arm_q15_to_q31.c:166:3
	b	.LBB36_1
.LBB36_1:                               @ =>This Inner Loop Header: Depth=1
	.loc	37 166 10 is_stmt 0             @ ../Middlewares/CMSIS/DSP/Src/SupportFunctions/arm_q15_to_q31.c:166:10
	ldr	r0, [sp, #4]
	.loc	37 166 3                        @ ../Middlewares/CMSIS/DSP/Src/SupportFunctions/arm_q15_to_q31.c:166:3
	cbz	r0, .LBB36_3
	b	.LBB36_2
.LBB36_2:                               @   in Loop: Header=BB36_1 Depth=1
.Ltmp266:
	.loc	37 171 27 is_stmt 1             @ ../Middlewares/CMSIS/DSP/Src/SupportFunctions/arm_q15_to_q31.c:171:27
	ldr	r0, [sp]
	adds	r1, r0, #2
	str	r1, [sp]
	.loc	37 171 15 is_stmt 0             @ ../Middlewares/CMSIS/DSP/Src/SupportFunctions/arm_q15_to_q31.c:171:15
	ldrh	r0, [r0]
	.loc	37 171 30                       @ ../Middlewares/CMSIS/DSP/Src/SupportFunctions/arm_q15_to_q31.c:171:30
	lsls	r0, r0, #16
	.loc	37 171 10                       @ ../Middlewares/CMSIS/DSP/Src/SupportFunctions/arm_q15_to_q31.c:171:10
	ldr	r1, [sp, #12]
	adds	r2, r1, #4
	str	r2, [sp, #12]
	.loc	37 171 13                       @ ../Middlewares/CMSIS/DSP/Src/SupportFunctions/arm_q15_to_q31.c:171:13
	str	r0, [r1]
	.loc	37 174 11 is_stmt 1             @ ../Middlewares/CMSIS/DSP/Src/SupportFunctions/arm_q15_to_q31.c:174:11
	ldr	r0, [sp, #4]
	subs	r0, #1
	str	r0, [sp, #4]
.Ltmp267:
	.loc	37 166 3                        @ ../Middlewares/CMSIS/DSP/Src/SupportFunctions/arm_q15_to_q31.c:166:3
	b	.LBB36_1
.LBB36_3:
	.loc	37 177 1                        @ ../Middlewares/CMSIS/DSP/Src/SupportFunctions/arm_q15_to_q31.c:177:1
	add	sp, #20
	bx	lr
.Ltmp268:
.Lfunc_end36:
	.size	arm_q15_to_q31, .Lfunc_end36-arm_q15_to_q31
	.cfi_endproc
	.cantunwind
	.fnend
                                        @ -- End function
	.section	.text.arm_q15_to_q7,"ax",%progbits
	.hidden	arm_q15_to_q7                   @ -- Begin function arm_q15_to_q7
	.globl	arm_q15_to_q7
	.p2align	2
	.type	arm_q15_to_q7,%function
	.code	16                              @ @arm_q15_to_q7
	.thumb_func
arm_q15_to_q7:
.Lfunc_begin37:
	.file	38 "D:\\horizon\\Horizon_Infantry (2)\\MDK-ARM" "../Middlewares/CMSIS/DSP/Src/SupportFunctions/arm_q15_to_q7.c"
	.loc	38 101 0                        @ ../Middlewares/CMSIS/DSP/Src/SupportFunctions/arm_q15_to_q7.c:101:0
	.fnstart
	.cfi_startproc
@ %bb.0:
	.pad	#20
	sub	sp, #20
	.cfi_def_cfa_offset 20
	str	r0, [sp, #16]
	str	r1, [sp, #12]
	str	r2, [sp, #8]
.Ltmp269:
	.loc	38 103 22 prologue_end          @ ../Middlewares/CMSIS/DSP/Src/SupportFunctions/arm_q15_to_q7.c:103:22
	ldr	r0, [sp, #16]
	.loc	38 103 16 is_stmt 0             @ ../Middlewares/CMSIS/DSP/Src/SupportFunctions/arm_q15_to_q7.c:103:16
	str	r0, [sp]
	.loc	38 170 12 is_stmt 1             @ ../Middlewares/CMSIS/DSP/Src/SupportFunctions/arm_q15_to_q7.c:170:12
	ldr	r0, [sp, #8]
	.loc	38 170 10 is_stmt 0             @ ../Middlewares/CMSIS/DSP/Src/SupportFunctions/arm_q15_to_q7.c:170:10
	str	r0, [sp, #4]
	.loc	38 174 3 is_stmt 1              @ ../Middlewares/CMSIS/DSP/Src/SupportFunctions/arm_q15_to_q7.c:174:3
	b	.LBB37_1
.LBB37_1:                               @ =>This Inner Loop Header: Depth=1
	.loc	38 174 10 is_stmt 0             @ ../Middlewares/CMSIS/DSP/Src/SupportFunctions/arm_q15_to_q7.c:174:10
	ldr	r0, [sp, #4]
	.loc	38 174 3                        @ ../Middlewares/CMSIS/DSP/Src/SupportFunctions/arm_q15_to_q7.c:174:3
	cbz	r0, .LBB37_3
	b	.LBB37_2
.LBB37_2:                               @   in Loop: Header=BB37_1 Depth=1
.Ltmp270:
	.loc	38 179 27 is_stmt 1             @ ../Middlewares/CMSIS/DSP/Src/SupportFunctions/arm_q15_to_q7.c:179:27
	ldr	r0, [sp]
	adds	r1, r0, #2
	str	r1, [sp]
	.loc	38 179 23 is_stmt 0             @ ../Middlewares/CMSIS/DSP/Src/SupportFunctions/arm_q15_to_q7.c:179:23
	ldrb	r0, [r0, #1]
	.loc	38 179 10                       @ ../Middlewares/CMSIS/DSP/Src/SupportFunctions/arm_q15_to_q7.c:179:10
	ldr	r1, [sp, #12]
	adds	r2, r1, #1
	str	r2, [sp, #12]
	.loc	38 179 13                       @ ../Middlewares/CMSIS/DSP/Src/SupportFunctions/arm_q15_to_q7.c:179:13
	strb	r0, [r1]
	.loc	38 182 11 is_stmt 1             @ ../Middlewares/CMSIS/DSP/Src/SupportFunctions/arm_q15_to_q7.c:182:11
	ldr	r0, [sp, #4]
	subs	r0, #1
	str	r0, [sp, #4]
.Ltmp271:
	.loc	38 174 3                        @ ../Middlewares/CMSIS/DSP/Src/SupportFunctions/arm_q15_to_q7.c:174:3
	b	.LBB37_1
.LBB37_3:
	.loc	38 185 1                        @ ../Middlewares/CMSIS/DSP/Src/SupportFunctions/arm_q15_to_q7.c:185:1
	add	sp, #20
	bx	lr
.Ltmp272:
.Lfunc_end37:
	.size	arm_q15_to_q7, .Lfunc_end37-arm_q15_to_q7
	.cfi_endproc
	.cantunwind
	.fnend
                                        @ -- End function
	.section	.text.arm_q31_to_f64,"ax",%progbits
	.hidden	arm_q31_to_f64                  @ -- Begin function arm_q31_to_f64
	.globl	arm_q31_to_f64
	.p2align	3
	.type	arm_q31_to_f64,%function
	.code	16                              @ @arm_q31_to_f64
	.thumb_func
arm_q31_to_f64:
.Lfunc_begin38:
	.file	39 "D:\\horizon\\Horizon_Infantry (2)\\MDK-ARM" "../Middlewares/CMSIS/DSP/Src/SupportFunctions/arm_q31_to_f64.c"
	.loc	39 62 0                         @ ../Middlewares/CMSIS/DSP/Src/SupportFunctions/arm_q31_to_f64.c:62:0
	.fnstart
	.cfi_startproc
@ %bb.0:
	.save	{r7, lr}
	push	{r7, lr}
	.cfi_def_cfa_offset 8
	.cfi_offset lr, -4
	.cfi_offset r7, -8
	.pad	#24
	sub	sp, #24
	.cfi_def_cfa_offset 32
	str	r0, [sp, #20]
	str	r1, [sp, #16]
	str	r2, [sp, #12]
.Ltmp273:
	.loc	39 63 22 prologue_end           @ ../Middlewares/CMSIS/DSP/Src/SupportFunctions/arm_q31_to_f64.c:63:22
	ldr	r0, [sp, #20]
	.loc	39 63 16 is_stmt 0              @ ../Middlewares/CMSIS/DSP/Src/SupportFunctions/arm_q31_to_f64.c:63:16
	str	r0, [sp, #8]
	.loc	39 91 12 is_stmt 1              @ ../Middlewares/CMSIS/DSP/Src/SupportFunctions/arm_q31_to_f64.c:91:12
	ldr	r0, [sp, #12]
	.loc	39 91 10 is_stmt 0              @ ../Middlewares/CMSIS/DSP/Src/SupportFunctions/arm_q31_to_f64.c:91:10
	str	r0, [sp, #4]
	.loc	39 95 3 is_stmt 1               @ ../Middlewares/CMSIS/DSP/Src/SupportFunctions/arm_q31_to_f64.c:95:3
	b	.LBB38_1
.LBB38_1:                               @ =>This Inner Loop Header: Depth=1
	.loc	39 95 10 is_stmt 0              @ ../Middlewares/CMSIS/DSP/Src/SupportFunctions/arm_q31_to_f64.c:95:10
	ldr	r0, [sp, #4]
	.loc	39 95 3                         @ ../Middlewares/CMSIS/DSP/Src/SupportFunctions/arm_q31_to_f64.c:95:3
	cbz	r0, .LBB38_3
	b	.LBB38_2
.LBB38_2:                               @   in Loop: Header=BB38_1 Depth=1
.Ltmp274:
	.loc	39 100 32 is_stmt 1             @ ../Middlewares/CMSIS/DSP/Src/SupportFunctions/arm_q31_to_f64.c:100:32
	ldr	r0, [sp, #8]
	adds	r1, r0, #4
	str	r1, [sp, #8]
	.loc	39 100 28 is_stmt 0             @ ../Middlewares/CMSIS/DSP/Src/SupportFunctions/arm_q31_to_f64.c:100:28
	ldr	r0, [r0]
	.loc	39 100 16                       @ ../Middlewares/CMSIS/DSP/Src/SupportFunctions/arm_q31_to_f64.c:100:16
	bl	__aeabi_i2d
	vmov	d0, r0, r1
	vldr	d1, .LCPI38_0
	.loc	39 100 35                       @ ../Middlewares/CMSIS/DSP/Src/SupportFunctions/arm_q31_to_f64.c:100:35
	vmov	r2, r3, d1
	vmov	r0, r1, d0
	bl	__aeabi_ddiv
	vmov	d0, r0, r1
	.loc	39 100 10                       @ ../Middlewares/CMSIS/DSP/Src/SupportFunctions/arm_q31_to_f64.c:100:10
	ldr	r0, [sp, #16]
	add.w	r1, r0, #8
	str	r1, [sp, #16]
	.loc	39 100 13                       @ ../Middlewares/CMSIS/DSP/Src/SupportFunctions/arm_q31_to_f64.c:100:13
	vstr	d0, [r0]
	.loc	39 103 11 is_stmt 1             @ ../Middlewares/CMSIS/DSP/Src/SupportFunctions/arm_q31_to_f64.c:103:11
	ldr	r0, [sp, #4]
	subs	r0, #1
	str	r0, [sp, #4]
.Ltmp275:
	.loc	39 95 3                         @ ../Middlewares/CMSIS/DSP/Src/SupportFunctions/arm_q31_to_f64.c:95:3
	b	.LBB38_1
.LBB38_3:
	.loc	39 106 1                        @ ../Middlewares/CMSIS/DSP/Src/SupportFunctions/arm_q31_to_f64.c:106:1
	add	sp, #24
	pop	{r7, pc}
.Ltmp276:
	.p2align	3
@ %bb.4:
	.loc	39 0 1 is_stmt 0                @ ../Middlewares/CMSIS/DSP/Src/SupportFunctions/arm_q31_to_f64.c:0:1
.LCPI38_0:
	.long	0                               @ double 2147483648
	.long	1105199104
.Lfunc_end38:
	.size	arm_q31_to_f64, .Lfunc_end38-arm_q31_to_f64
	.cfi_endproc
	.cantunwind
	.fnend
                                        @ -- End function
	.section	.text.arm_q31_to_float,"ax",%progbits
	.hidden	arm_q31_to_float                @ -- Begin function arm_q31_to_float
	.globl	arm_q31_to_float
	.p2align	2
	.type	arm_q31_to_float,%function
	.code	16                              @ @arm_q31_to_float
	.thumb_func
arm_q31_to_float:
.Lfunc_begin39:
	.file	40 "D:\\horizon\\Horizon_Infantry (2)\\MDK-ARM" "../Middlewares/CMSIS/DSP/Src/SupportFunctions/arm_q31_to_float.c"
	.loc	40 152 0 is_stmt 1              @ ../Middlewares/CMSIS/DSP/Src/SupportFunctions/arm_q31_to_float.c:152:0
	.fnstart
	.cfi_startproc
@ %bb.0:
	.pad	#20
	sub	sp, #20
	.cfi_def_cfa_offset 20
	str	r0, [sp, #16]
	str	r1, [sp, #12]
	str	r2, [sp, #8]
.Ltmp277:
	.loc	40 153 22 prologue_end          @ ../Middlewares/CMSIS/DSP/Src/SupportFunctions/arm_q31_to_float.c:153:22
	ldr	r0, [sp, #16]
	.loc	40 153 16 is_stmt 0             @ ../Middlewares/CMSIS/DSP/Src/SupportFunctions/arm_q31_to_float.c:153:16
	str	r0, [sp, #4]
	.loc	40 181 12 is_stmt 1             @ ../Middlewares/CMSIS/DSP/Src/SupportFunctions/arm_q31_to_float.c:181:12
	ldr	r0, [sp, #8]
	.loc	40 181 10 is_stmt 0             @ ../Middlewares/CMSIS/DSP/Src/SupportFunctions/arm_q31_to_float.c:181:10
	str	r0, [sp]
	.loc	40 185 3 is_stmt 1              @ ../Middlewares/CMSIS/DSP/Src/SupportFunctions/arm_q31_to_float.c:185:3
	b	.LBB39_1
.LBB39_1:                               @ =>This Inner Loop Header: Depth=1
	.loc	40 185 10 is_stmt 0             @ ../Middlewares/CMSIS/DSP/Src/SupportFunctions/arm_q31_to_float.c:185:10
	ldr	r0, [sp]
	.loc	40 185 3                        @ ../Middlewares/CMSIS/DSP/Src/SupportFunctions/arm_q31_to_float.c:185:3
	cbz	r0, .LBB39_3
	b	.LBB39_2
.LBB39_2:                               @   in Loop: Header=BB39_1 Depth=1
.Ltmp278:
	.loc	40 190 32 is_stmt 1             @ ../Middlewares/CMSIS/DSP/Src/SupportFunctions/arm_q31_to_float.c:190:32
	ldr	r0, [sp, #4]
	adds	r1, r0, #4
	str	r1, [sp, #4]
	.loc	40 190 16 is_stmt 0             @ ../Middlewares/CMSIS/DSP/Src/SupportFunctions/arm_q31_to_float.c:190:16
	vldr	s0, [r0]
	vcvt.f32.s32	s0, s0
	vldr	s2, .LCPI39_0
	.loc	40 190 35                       @ ../Middlewares/CMSIS/DSP/Src/SupportFunctions/arm_q31_to_float.c:190:35
	vdiv.f32	s0, s0, s2
	.loc	40 190 10                       @ ../Middlewares/CMSIS/DSP/Src/SupportFunctions/arm_q31_to_float.c:190:10
	ldr	r0, [sp, #12]
	adds	r1, r0, #4
	str	r1, [sp, #12]
	.loc	40 190 13                       @ ../Middlewares/CMSIS/DSP/Src/SupportFunctions/arm_q31_to_float.c:190:13
	vstr	s0, [r0]
	.loc	40 193 11 is_stmt 1             @ ../Middlewares/CMSIS/DSP/Src/SupportFunctions/arm_q31_to_float.c:193:11
	ldr	r0, [sp]
	subs	r0, #1
	str	r0, [sp]
.Ltmp279:
	.loc	40 185 3                        @ ../Middlewares/CMSIS/DSP/Src/SupportFunctions/arm_q31_to_float.c:185:3
	b	.LBB39_1
.LBB39_3:
	.loc	40 196 1                        @ ../Middlewares/CMSIS/DSP/Src/SupportFunctions/arm_q31_to_float.c:196:1
	add	sp, #20
	bx	lr
.Ltmp280:
	.p2align	2
@ %bb.4:
	.loc	40 0 1 is_stmt 0                @ ../Middlewares/CMSIS/DSP/Src/SupportFunctions/arm_q31_to_float.c:0:1
.LCPI39_0:
	.long	0x4f000000                      @ float 2.14748365E+9
.Lfunc_end39:
	.size	arm_q31_to_float, .Lfunc_end39-arm_q31_to_float
	.cfi_endproc
	.cantunwind
	.fnend
                                        @ -- End function
	.section	.text.arm_q31_to_q15,"ax",%progbits
	.hidden	arm_q31_to_q15                  @ -- Begin function arm_q31_to_q15
	.globl	arm_q31_to_q15
	.p2align	2
	.type	arm_q31_to_q15,%function
	.code	16                              @ @arm_q31_to_q15
	.thumb_func
arm_q31_to_q15:
.Lfunc_begin40:
	.file	41 "D:\\horizon\\Horizon_Infantry (2)\\MDK-ARM" "../Middlewares/CMSIS/DSP/Src/SupportFunctions/arm_q31_to_q15.c"
	.loc	41 104 0 is_stmt 1              @ ../Middlewares/CMSIS/DSP/Src/SupportFunctions/arm_q31_to_q15.c:104:0
	.fnstart
	.cfi_startproc
@ %bb.0:
	.pad	#20
	sub	sp, #20
	.cfi_def_cfa_offset 20
	str	r0, [sp, #16]
	str	r1, [sp, #12]
	str	r2, [sp, #8]
.Ltmp281:
	.loc	41 106 22 prologue_end          @ ../Middlewares/CMSIS/DSP/Src/SupportFunctions/arm_q31_to_q15.c:106:22
	ldr	r0, [sp, #16]
	.loc	41 106 16 is_stmt 0             @ ../Middlewares/CMSIS/DSP/Src/SupportFunctions/arm_q31_to_q15.c:106:16
	str	r0, [sp]
	.loc	41 161 12 is_stmt 1             @ ../Middlewares/CMSIS/DSP/Src/SupportFunctions/arm_q31_to_q15.c:161:12
	ldr	r0, [sp, #8]
	.loc	41 161 10 is_stmt 0             @ ../Middlewares/CMSIS/DSP/Src/SupportFunctions/arm_q31_to_q15.c:161:10
	str	r0, [sp, #4]
	.loc	41 165 3 is_stmt 1              @ ../Middlewares/CMSIS/DSP/Src/SupportFunctions/arm_q31_to_q15.c:165:3
	b	.LBB40_1
.LBB40_1:                               @ =>This Inner Loop Header: Depth=1
	.loc	41 165 10 is_stmt 0             @ ../Middlewares/CMSIS/DSP/Src/SupportFunctions/arm_q31_to_q15.c:165:10
	ldr	r0, [sp, #4]
	.loc	41 165 3                        @ ../Middlewares/CMSIS/DSP/Src/SupportFunctions/arm_q31_to_q15.c:165:3
	cbz	r0, .LBB40_3
	b	.LBB40_2
.LBB40_2:                               @   in Loop: Header=BB40_1 Depth=1
.Ltmp282:
	.loc	41 170 28 is_stmt 1             @ ../Middlewares/CMSIS/DSP/Src/SupportFunctions/arm_q31_to_q15.c:170:28
	ldr	r0, [sp]
	adds	r1, r0, #4
	str	r1, [sp]
	.loc	41 170 24 is_stmt 0             @ ../Middlewares/CMSIS/DSP/Src/SupportFunctions/arm_q31_to_q15.c:170:24
	ldrh	r0, [r0, #2]
	.loc	41 170 10                       @ ../Middlewares/CMSIS/DSP/Src/SupportFunctions/arm_q31_to_q15.c:170:10
	ldr	r1, [sp, #12]
	adds	r2, r1, #2
	str	r2, [sp, #12]
	.loc	41 170 13                       @ ../Middlewares/CMSIS/DSP/Src/SupportFunctions/arm_q31_to_q15.c:170:13
	strh	r0, [r1]
	.loc	41 173 11 is_stmt 1             @ ../Middlewares/CMSIS/DSP/Src/SupportFunctions/arm_q31_to_q15.c:173:11
	ldr	r0, [sp, #4]
	subs	r0, #1
	str	r0, [sp, #4]
.Ltmp283:
	.loc	41 165 3                        @ ../Middlewares/CMSIS/DSP/Src/SupportFunctions/arm_q31_to_q15.c:165:3
	b	.LBB40_1
.LBB40_3:
	.loc	41 176 1                        @ ../Middlewares/CMSIS/DSP/Src/SupportFunctions/arm_q31_to_q15.c:176:1
	add	sp, #20
	bx	lr
.Ltmp284:
.Lfunc_end40:
	.size	arm_q31_to_q15, .Lfunc_end40-arm_q31_to_q15
	.cfi_endproc
	.cantunwind
	.fnend
                                        @ -- End function
	.section	.text.arm_q31_to_q7,"ax",%progbits
	.hidden	arm_q31_to_q7                   @ -- Begin function arm_q31_to_q7
	.globl	arm_q31_to_q7
	.p2align	2
	.type	arm_q31_to_q7,%function
	.code	16                              @ @arm_q31_to_q7
	.thumb_func
arm_q31_to_q7:
.Lfunc_begin41:
	.file	42 "D:\\horizon\\Horizon_Infantry (2)\\MDK-ARM" "../Middlewares/CMSIS/DSP/Src/SupportFunctions/arm_q31_to_q7.c"
	.loc	42 116 0                        @ ../Middlewares/CMSIS/DSP/Src/SupportFunctions/arm_q31_to_q7.c:116:0
	.fnstart
	.cfi_startproc
@ %bb.0:
	.pad	#20
	sub	sp, #20
	.cfi_def_cfa_offset 20
	str	r0, [sp, #16]
	str	r1, [sp, #12]
	str	r2, [sp, #8]
.Ltmp285:
	.loc	42 118 22 prologue_end          @ ../Middlewares/CMSIS/DSP/Src/SupportFunctions/arm_q31_to_q7.c:118:22
	ldr	r0, [sp, #16]
	.loc	42 118 16 is_stmt 0             @ ../Middlewares/CMSIS/DSP/Src/SupportFunctions/arm_q31_to_q7.c:118:16
	str	r0, [sp]
	.loc	42 149 12 is_stmt 1             @ ../Middlewares/CMSIS/DSP/Src/SupportFunctions/arm_q31_to_q7.c:149:12
	ldr	r0, [sp, #8]
	.loc	42 149 10 is_stmt 0             @ ../Middlewares/CMSIS/DSP/Src/SupportFunctions/arm_q31_to_q7.c:149:10
	str	r0, [sp, #4]
	.loc	42 153 3 is_stmt 1              @ ../Middlewares/CMSIS/DSP/Src/SupportFunctions/arm_q31_to_q7.c:153:3
	b	.LBB41_1
.LBB41_1:                               @ =>This Inner Loop Header: Depth=1
	.loc	42 153 10 is_stmt 0             @ ../Middlewares/CMSIS/DSP/Src/SupportFunctions/arm_q31_to_q7.c:153:10
	ldr	r0, [sp, #4]
	.loc	42 153 3                        @ ../Middlewares/CMSIS/DSP/Src/SupportFunctions/arm_q31_to_q7.c:153:3
	cbz	r0, .LBB41_3
	b	.LBB41_2
.LBB41_2:                               @   in Loop: Header=BB41_1 Depth=1
.Ltmp286:
	.loc	42 158 27 is_stmt 1             @ ../Middlewares/CMSIS/DSP/Src/SupportFunctions/arm_q31_to_q7.c:158:27
	ldr	r0, [sp]
	adds	r1, r0, #4
	str	r1, [sp]
	.loc	42 158 23 is_stmt 0             @ ../Middlewares/CMSIS/DSP/Src/SupportFunctions/arm_q31_to_q7.c:158:23
	ldrb	r0, [r0, #3]
	.loc	42 158 10                       @ ../Middlewares/CMSIS/DSP/Src/SupportFunctions/arm_q31_to_q7.c:158:10
	ldr	r1, [sp, #12]
	adds	r2, r1, #1
	str	r2, [sp, #12]
	.loc	42 158 13                       @ ../Middlewares/CMSIS/DSP/Src/SupportFunctions/arm_q31_to_q7.c:158:13
	strb	r0, [r1]
	.loc	42 161 11 is_stmt 1             @ ../Middlewares/CMSIS/DSP/Src/SupportFunctions/arm_q31_to_q7.c:161:11
	ldr	r0, [sp, #4]
	subs	r0, #1
	str	r0, [sp, #4]
.Ltmp287:
	.loc	42 153 3                        @ ../Middlewares/CMSIS/DSP/Src/SupportFunctions/arm_q31_to_q7.c:153:3
	b	.LBB41_1
.LBB41_3:
	.loc	42 164 1                        @ ../Middlewares/CMSIS/DSP/Src/SupportFunctions/arm_q31_to_q7.c:164:1
	add	sp, #20
	bx	lr
.Ltmp288:
.Lfunc_end41:
	.size	arm_q31_to_q7, .Lfunc_end41-arm_q31_to_q7
	.cfi_endproc
	.cantunwind
	.fnend
                                        @ -- End function
	.section	.text.arm_q7_to_f64,"ax",%progbits
	.hidden	arm_q7_to_f64                   @ -- Begin function arm_q7_to_f64
	.globl	arm_q7_to_f64
	.p2align	3
	.type	arm_q7_to_f64,%function
	.code	16                              @ @arm_q7_to_f64
	.thumb_func
arm_q7_to_f64:
.Lfunc_begin42:
	.file	43 "D:\\horizon\\Horizon_Infantry (2)\\MDK-ARM" "../Middlewares/CMSIS/DSP/Src/SupportFunctions/arm_q7_to_f64.c"
	.loc	43 61 0                         @ ../Middlewares/CMSIS/DSP/Src/SupportFunctions/arm_q7_to_f64.c:61:0
	.fnstart
	.cfi_startproc
@ %bb.0:
	.save	{r7, lr}
	push	{r7, lr}
	.cfi_def_cfa_offset 8
	.cfi_offset lr, -4
	.cfi_offset r7, -8
	.pad	#24
	sub	sp, #24
	.cfi_def_cfa_offset 32
	str	r0, [sp, #20]
	str	r1, [sp, #16]
	str	r2, [sp, #12]
.Ltmp289:
	.loc	43 63 21 prologue_end           @ ../Middlewares/CMSIS/DSP/Src/SupportFunctions/arm_q7_to_f64.c:63:21
	ldr	r0, [sp, #20]
	.loc	43 63 15 is_stmt 0              @ ../Middlewares/CMSIS/DSP/Src/SupportFunctions/arm_q7_to_f64.c:63:15
	str	r0, [sp, #4]
	.loc	43 90 12 is_stmt 1              @ ../Middlewares/CMSIS/DSP/Src/SupportFunctions/arm_q7_to_f64.c:90:12
	ldr	r0, [sp, #12]
	.loc	43 90 10 is_stmt 0              @ ../Middlewares/CMSIS/DSP/Src/SupportFunctions/arm_q7_to_f64.c:90:10
	str	r0, [sp, #8]
	.loc	43 94 3 is_stmt 1               @ ../Middlewares/CMSIS/DSP/Src/SupportFunctions/arm_q7_to_f64.c:94:3
	b	.LBB42_1
.LBB42_1:                               @ =>This Inner Loop Header: Depth=1
	.loc	43 94 10 is_stmt 0              @ ../Middlewares/CMSIS/DSP/Src/SupportFunctions/arm_q7_to_f64.c:94:10
	ldr	r0, [sp, #8]
	.loc	43 94 3                         @ ../Middlewares/CMSIS/DSP/Src/SupportFunctions/arm_q7_to_f64.c:94:3
	cbz	r0, .LBB42_3
	b	.LBB42_2
.LBB42_2:                               @   in Loop: Header=BB42_1 Depth=1
.Ltmp290:
	.loc	43 99 33 is_stmt 1              @ ../Middlewares/CMSIS/DSP/Src/SupportFunctions/arm_q7_to_f64.c:99:33
	ldr	r0, [sp, #4]
	adds	r1, r0, #1
	str	r1, [sp, #4]
	.loc	43 99 28 is_stmt 0              @ ../Middlewares/CMSIS/DSP/Src/SupportFunctions/arm_q7_to_f64.c:99:28
	ldrsb.w	r0, [r0]
	.loc	43 99 16                        @ ../Middlewares/CMSIS/DSP/Src/SupportFunctions/arm_q7_to_f64.c:99:16
	bl	__aeabi_i2d
	vmov	d0, r0, r1
	vldr	d1, .LCPI42_0
	.loc	43 99 36                        @ ../Middlewares/CMSIS/DSP/Src/SupportFunctions/arm_q7_to_f64.c:99:36
	vmov	r2, r3, d1
	vmov	r0, r1, d0
	bl	__aeabi_ddiv
	vmov	d0, r0, r1
	.loc	43 99 10                        @ ../Middlewares/CMSIS/DSP/Src/SupportFunctions/arm_q7_to_f64.c:99:10
	ldr	r0, [sp, #16]
	add.w	r1, r0, #8
	str	r1, [sp, #16]
	.loc	43 99 13                        @ ../Middlewares/CMSIS/DSP/Src/SupportFunctions/arm_q7_to_f64.c:99:13
	vstr	d0, [r0]
	.loc	43 102 11 is_stmt 1             @ ../Middlewares/CMSIS/DSP/Src/SupportFunctions/arm_q7_to_f64.c:102:11
	ldr	r0, [sp, #8]
	subs	r0, #1
	str	r0, [sp, #8]
.Ltmp291:
	.loc	43 94 3                         @ ../Middlewares/CMSIS/DSP/Src/SupportFunctions/arm_q7_to_f64.c:94:3
	b	.LBB42_1
.LBB42_3:
	.loc	43 105 1                        @ ../Middlewares/CMSIS/DSP/Src/SupportFunctions/arm_q7_to_f64.c:105:1
	add	sp, #24
	pop	{r7, pc}
.Ltmp292:
	.p2align	3
@ %bb.4:
	.loc	43 0 1 is_stmt 0                @ ../Middlewares/CMSIS/DSP/Src/SupportFunctions/arm_q7_to_f64.c:0:1
.LCPI42_0:
	.long	0                               @ double 128
	.long	1080033280
.Lfunc_end42:
	.size	arm_q7_to_f64, .Lfunc_end42-arm_q7_to_f64
	.cfi_endproc
	.cantunwind
	.fnend
                                        @ -- End function
	.section	.text.arm_q7_to_float,"ax",%progbits
	.hidden	arm_q7_to_float                 @ -- Begin function arm_q7_to_float
	.globl	arm_q7_to_float
	.p2align	2
	.type	arm_q7_to_float,%function
	.code	16                              @ @arm_q7_to_float
	.thumb_func
arm_q7_to_float:
.Lfunc_begin43:
	.file	44 "D:\\horizon\\Horizon_Infantry (2)\\MDK-ARM" "../Middlewares/CMSIS/DSP/Src/SupportFunctions/arm_q7_to_float.c"
	.loc	44 168 0 is_stmt 1              @ ../Middlewares/CMSIS/DSP/Src/SupportFunctions/arm_q7_to_float.c:168:0
	.fnstart
	.cfi_startproc
@ %bb.0:
	.pad	#20
	sub	sp, #20
	.cfi_def_cfa_offset 20
	str	r0, [sp, #16]
	str	r1, [sp, #12]
	str	r2, [sp, #8]
.Ltmp293:
	.loc	44 170 21 prologue_end          @ ../Middlewares/CMSIS/DSP/Src/SupportFunctions/arm_q7_to_float.c:170:21
	ldr	r0, [sp, #16]
	.loc	44 170 15 is_stmt 0             @ ../Middlewares/CMSIS/DSP/Src/SupportFunctions/arm_q7_to_float.c:170:15
	str	r0, [sp]
	.loc	44 197 12 is_stmt 1             @ ../Middlewares/CMSIS/DSP/Src/SupportFunctions/arm_q7_to_float.c:197:12
	ldr	r0, [sp, #8]
	.loc	44 197 10 is_stmt 0             @ ../Middlewares/CMSIS/DSP/Src/SupportFunctions/arm_q7_to_float.c:197:10
	str	r0, [sp, #4]
	.loc	44 201 3 is_stmt 1              @ ../Middlewares/CMSIS/DSP/Src/SupportFunctions/arm_q7_to_float.c:201:3
	b	.LBB43_1
.LBB43_1:                               @ =>This Inner Loop Header: Depth=1
	.loc	44 201 10 is_stmt 0             @ ../Middlewares/CMSIS/DSP/Src/SupportFunctions/arm_q7_to_float.c:201:10
	ldr	r0, [sp, #4]
	.loc	44 201 3                        @ ../Middlewares/CMSIS/DSP/Src/SupportFunctions/arm_q7_to_float.c:201:3
	cbz	r0, .LBB43_3
	b	.LBB43_2
.LBB43_2:                               @   in Loop: Header=BB43_1 Depth=1
.Ltmp294:
	.loc	44 206 33 is_stmt 1             @ ../Middlewares/CMSIS/DSP/Src/SupportFunctions/arm_q7_to_float.c:206:33
	ldr	r0, [sp]
	adds	r1, r0, #1
	str	r1, [sp]
	.loc	44 206 28 is_stmt 0             @ ../Middlewares/CMSIS/DSP/Src/SupportFunctions/arm_q7_to_float.c:206:28
	ldrsb.w	r0, [r0]
	.loc	44 206 16                       @ ../Middlewares/CMSIS/DSP/Src/SupportFunctions/arm_q7_to_float.c:206:16
	vmov	s0, r0
	vcvt.f32.s32	s0, s0
	vldr	s2, .LCPI43_0
	.loc	44 206 36                       @ ../Middlewares/CMSIS/DSP/Src/SupportFunctions/arm_q7_to_float.c:206:36
	vdiv.f32	s0, s0, s2
	.loc	44 206 10                       @ ../Middlewares/CMSIS/DSP/Src/SupportFunctions/arm_q7_to_float.c:206:10
	ldr	r0, [sp, #12]
	adds	r1, r0, #4
	str	r1, [sp, #12]
	.loc	44 206 13                       @ ../Middlewares/CMSIS/DSP/Src/SupportFunctions/arm_q7_to_float.c:206:13
	vstr	s0, [r0]
	.loc	44 209 11 is_stmt 1             @ ../Middlewares/CMSIS/DSP/Src/SupportFunctions/arm_q7_to_float.c:209:11
	ldr	r0, [sp, #4]
	subs	r0, #1
	str	r0, [sp, #4]
.Ltmp295:
	.loc	44 201 3                        @ ../Middlewares/CMSIS/DSP/Src/SupportFunctions/arm_q7_to_float.c:201:3
	b	.LBB43_1
.LBB43_3:
	.loc	44 212 1                        @ ../Middlewares/CMSIS/DSP/Src/SupportFunctions/arm_q7_to_float.c:212:1
	add	sp, #20
	bx	lr
.Ltmp296:
	.p2align	2
@ %bb.4:
	.loc	44 0 1 is_stmt 0                @ ../Middlewares/CMSIS/DSP/Src/SupportFunctions/arm_q7_to_float.c:0:1
.LCPI43_0:
	.long	0x43000000                      @ float 128
.Lfunc_end43:
	.size	arm_q7_to_float, .Lfunc_end43-arm_q7_to_float
	.cfi_endproc
	.cantunwind
	.fnend
                                        @ -- End function
	.section	.text.arm_q7_to_q15,"ax",%progbits
	.hidden	arm_q7_to_q15                   @ -- Begin function arm_q7_to_q15
	.globl	arm_q7_to_q15
	.p2align	2
	.type	arm_q7_to_q15,%function
	.code	16                              @ @arm_q7_to_q15
	.thumb_func
arm_q7_to_q15:
.Lfunc_begin44:
	.file	45 "D:\\horizon\\Horizon_Infantry (2)\\MDK-ARM" "../Middlewares/CMSIS/DSP/Src/SupportFunctions/arm_q7_to_q15.c"
	.loc	45 102 0 is_stmt 1              @ ../Middlewares/CMSIS/DSP/Src/SupportFunctions/arm_q7_to_q15.c:102:0
	.fnstart
	.cfi_startproc
@ %bb.0:
	.pad	#20
	sub	sp, #20
	.cfi_def_cfa_offset 20
	str	r0, [sp, #16]
	str	r1, [sp, #12]
	str	r2, [sp, #8]
.Ltmp297:
	.loc	45 104 21 prologue_end          @ ../Middlewares/CMSIS/DSP/Src/SupportFunctions/arm_q7_to_q15.c:104:21
	ldr	r0, [sp, #16]
	.loc	45 104 15 is_stmt 0             @ ../Middlewares/CMSIS/DSP/Src/SupportFunctions/arm_q7_to_q15.c:104:15
	str	r0, [sp]
	.loc	45 168 12 is_stmt 1             @ ../Middlewares/CMSIS/DSP/Src/SupportFunctions/arm_q7_to_q15.c:168:12
	ldr	r0, [sp, #8]
	.loc	45 168 10 is_stmt 0             @ ../Middlewares/CMSIS/DSP/Src/SupportFunctions/arm_q7_to_q15.c:168:10
	str	r0, [sp, #4]
	.loc	45 172 3 is_stmt 1              @ ../Middlewares/CMSIS/DSP/Src/SupportFunctions/arm_q7_to_q15.c:172:3
	b	.LBB44_1
.LBB44_1:                               @ =>This Inner Loop Header: Depth=1
	.loc	45 172 10 is_stmt 0             @ ../Middlewares/CMSIS/DSP/Src/SupportFunctions/arm_q7_to_q15.c:172:10
	ldr	r0, [sp, #4]
	.loc	45 172 3                        @ ../Middlewares/CMSIS/DSP/Src/SupportFunctions/arm_q7_to_q15.c:172:3
	cbz	r0, .LBB44_3
	b	.LBB44_2
.LBB44_2:                               @   in Loop: Header=BB44_1 Depth=1
.Ltmp298:
	.loc	45 177 28 is_stmt 1             @ ../Middlewares/CMSIS/DSP/Src/SupportFunctions/arm_q7_to_q15.c:177:28
	ldr	r0, [sp]
	adds	r1, r0, #1
	str	r1, [sp]
	.loc	45 177 15 is_stmt 0             @ ../Middlewares/CMSIS/DSP/Src/SupportFunctions/arm_q7_to_q15.c:177:15
	ldrb	r0, [r0]
	.loc	45 177 31                       @ ../Middlewares/CMSIS/DSP/Src/SupportFunctions/arm_q7_to_q15.c:177:31
	lsls	r0, r0, #8
	.loc	45 177 10                       @ ../Middlewares/CMSIS/DSP/Src/SupportFunctions/arm_q7_to_q15.c:177:10
	ldr	r1, [sp, #12]
	adds	r2, r1, #2
	str	r2, [sp, #12]
	.loc	45 177 13                       @ ../Middlewares/CMSIS/DSP/Src/SupportFunctions/arm_q7_to_q15.c:177:13
	strh	r0, [r1]
	.loc	45 180 11 is_stmt 1             @ ../Middlewares/CMSIS/DSP/Src/SupportFunctions/arm_q7_to_q15.c:180:11
	ldr	r0, [sp, #4]
	subs	r0, #1
	str	r0, [sp, #4]
.Ltmp299:
	.loc	45 172 3                        @ ../Middlewares/CMSIS/DSP/Src/SupportFunctions/arm_q7_to_q15.c:172:3
	b	.LBB44_1
.LBB44_3:
	.loc	45 183 1                        @ ../Middlewares/CMSIS/DSP/Src/SupportFunctions/arm_q7_to_q15.c:183:1
	add	sp, #20
	bx	lr
.Ltmp300:
.Lfunc_end44:
	.size	arm_q7_to_q15, .Lfunc_end44-arm_q7_to_q15
	.cfi_endproc
	.cantunwind
	.fnend
                                        @ -- End function
	.section	.text.arm_q7_to_q31,"ax",%progbits
	.hidden	arm_q7_to_q31                   @ -- Begin function arm_q7_to_q31
	.globl	arm_q7_to_q31
	.p2align	2
	.type	arm_q7_to_q31,%function
	.code	16                              @ @arm_q7_to_q31
	.thumb_func
arm_q7_to_q31:
.Lfunc_begin45:
	.file	46 "D:\\horizon\\Horizon_Infantry (2)\\MDK-ARM" "../Middlewares/CMSIS/DSP/Src/SupportFunctions/arm_q7_to_q31.c"
	.loc	46 100 0                        @ ../Middlewares/CMSIS/DSP/Src/SupportFunctions/arm_q7_to_q31.c:100:0
	.fnstart
	.cfi_startproc
@ %bb.0:
	.pad	#20
	sub	sp, #20
	.cfi_def_cfa_offset 20
	str	r0, [sp, #16]
	str	r1, [sp, #12]
	str	r2, [sp, #8]
.Ltmp301:
	.loc	46 102 21 prologue_end          @ ../Middlewares/CMSIS/DSP/Src/SupportFunctions/arm_q7_to_q31.c:102:21
	ldr	r0, [sp, #16]
	.loc	46 102 15 is_stmt 0             @ ../Middlewares/CMSIS/DSP/Src/SupportFunctions/arm_q7_to_q31.c:102:15
	str	r0, [sp]
	.loc	46 144 12 is_stmt 1             @ ../Middlewares/CMSIS/DSP/Src/SupportFunctions/arm_q7_to_q31.c:144:12
	ldr	r0, [sp, #8]
	.loc	46 144 10 is_stmt 0             @ ../Middlewares/CMSIS/DSP/Src/SupportFunctions/arm_q7_to_q31.c:144:10
	str	r0, [sp, #4]
	.loc	46 148 3 is_stmt 1              @ ../Middlewares/CMSIS/DSP/Src/SupportFunctions/arm_q7_to_q31.c:148:3
	b	.LBB45_1
.LBB45_1:                               @ =>This Inner Loop Header: Depth=1
	.loc	46 148 10 is_stmt 0             @ ../Middlewares/CMSIS/DSP/Src/SupportFunctions/arm_q7_to_q31.c:148:10
	ldr	r0, [sp, #4]
	.loc	46 148 3                        @ ../Middlewares/CMSIS/DSP/Src/SupportFunctions/arm_q7_to_q31.c:148:3
	cbz	r0, .LBB45_3
	b	.LBB45_2
.LBB45_2:                               @   in Loop: Header=BB45_1 Depth=1
.Ltmp302:
	.loc	46 153 28 is_stmt 1             @ ../Middlewares/CMSIS/DSP/Src/SupportFunctions/arm_q7_to_q31.c:153:28
	ldr	r0, [sp]
	adds	r1, r0, #1
	str	r1, [sp]
	.loc	46 153 15 is_stmt 0             @ ../Middlewares/CMSIS/DSP/Src/SupportFunctions/arm_q7_to_q31.c:153:15
	ldrb	r0, [r0]
	.loc	46 153 31                       @ ../Middlewares/CMSIS/DSP/Src/SupportFunctions/arm_q7_to_q31.c:153:31
	lsls	r0, r0, #24
	.loc	46 153 10                       @ ../Middlewares/CMSIS/DSP/Src/SupportFunctions/arm_q7_to_q31.c:153:10
	ldr	r1, [sp, #12]
	adds	r2, r1, #4
	str	r2, [sp, #12]
	.loc	46 153 13                       @ ../Middlewares/CMSIS/DSP/Src/SupportFunctions/arm_q7_to_q31.c:153:13
	str	r0, [r1]
	.loc	46 156 11 is_stmt 1             @ ../Middlewares/CMSIS/DSP/Src/SupportFunctions/arm_q7_to_q31.c:156:11
	ldr	r0, [sp, #4]
	subs	r0, #1
	str	r0, [sp, #4]
.Ltmp303:
	.loc	46 148 3                        @ ../Middlewares/CMSIS/DSP/Src/SupportFunctions/arm_q7_to_q31.c:148:3
	b	.LBB45_1
.LBB45_3:
	.loc	46 159 1                        @ ../Middlewares/CMSIS/DSP/Src/SupportFunctions/arm_q7_to_q31.c:159:1
	add	sp, #20
	bx	lr
.Ltmp304:
.Lfunc_end45:
	.size	arm_q7_to_q31, .Lfunc_end45-arm_q7_to_q31
	.cfi_endproc
	.cantunwind
	.fnend
                                        @ -- End function
	.section	.text.topDownMerge,"ax",%progbits
	.p2align	2                               @ -- Begin function topDownMerge
	.type	topDownMerge,%function
	.code	16                              @ @topDownMerge
	.thumb_func
topDownMerge:
.Lfunc_begin46:
	.loc	19 34 0                         @ ../Middlewares/CMSIS/DSP/Src/SupportFunctions/arm_merge_sort_f32.c:34:0
	.fnstart
	.cfi_startproc
@ %bb.0:
	.save	{r7, lr}
	push	{r7, lr}
	.cfi_def_cfa_offset 8
	.cfi_offset lr, -4
	.cfi_offset r7, -8
	.pad	#32
	sub	sp, #32
	.cfi_def_cfa_offset 40
	mov	r12, r0
	ldr	r0, [sp, #44]
	ldr.w	lr, [sp, #40]
	str.w	r12, [sp, #28]
	str	r1, [sp, #24]
	str	r2, [sp, #20]
	str	r3, [sp, #16]
	strb.w	r0, [sp, #15]
.Ltmp305:
	.loc	19 40 18 prologue_end           @ ../Middlewares/CMSIS/DSP/Src/SupportFunctions/arm_merge_sort_f32.c:40:18
	ldr	r0, [sp, #24]
	.loc	19 40 14 is_stmt 0              @ ../Middlewares/CMSIS/DSP/Src/SupportFunctions/arm_merge_sort_f32.c:40:14
	str	r0, [sp, #8]
	.loc	19 41 18 is_stmt 1              @ ../Middlewares/CMSIS/DSP/Src/SupportFunctions/arm_merge_sort_f32.c:41:18
	ldr	r0, [sp, #20]
	.loc	19 41 14 is_stmt 0              @ ../Middlewares/CMSIS/DSP/Src/SupportFunctions/arm_merge_sort_f32.c:41:14
	str	r0, [sp, #4]
.Ltmp306:
	.loc	19 45 14 is_stmt 1              @ ../Middlewares/CMSIS/DSP/Src/SupportFunctions/arm_merge_sort_f32.c:45:14
	ldr	r0, [sp, #24]
	.loc	19 45 12 is_stmt 0              @ ../Middlewares/CMSIS/DSP/Src/SupportFunctions/arm_merge_sort_f32.c:45:12
	str	r0, [sp]
	.loc	19 45 10                        @ ../Middlewares/CMSIS/DSP/Src/SupportFunctions/arm_merge_sort_f32.c:45:10
	b	.LBB46_1
.LBB46_1:                               @ =>This Inner Loop Header: Depth=1
.Ltmp307:
	.loc	19 45 21                        @ ../Middlewares/CMSIS/DSP/Src/SupportFunctions/arm_merge_sort_f32.c:45:21
	ldr	r0, [sp]
	.loc	19 45 25                        @ ../Middlewares/CMSIS/DSP/Src/SupportFunctions/arm_merge_sort_f32.c:45:25
	ldr	r1, [sp, #16]
.Ltmp308:
	.loc	19 45 5                         @ ../Middlewares/CMSIS/DSP/Src/SupportFunctions/arm_merge_sort_f32.c:45:5
	cmp	r0, r1
	bhs	.LBB46_9
	b	.LBB46_2
.LBB46_2:                               @   in Loop: Header=BB46_1 Depth=1
.Ltmp309:
	.loc	19 48 13 is_stmt 1              @ ../Middlewares/CMSIS/DSP/Src/SupportFunctions/arm_merge_sort_f32.c:48:13
	ldr	r0, [sp, #8]
	.loc	19 48 17 is_stmt 0              @ ../Middlewares/CMSIS/DSP/Src/SupportFunctions/arm_merge_sort_f32.c:48:17
	ldr	r1, [sp, #20]
	.loc	19 48 24                        @ ../Middlewares/CMSIS/DSP/Src/SupportFunctions/arm_merge_sort_f32.c:48:24
	cmp	r0, r1
	bhs	.LBB46_6
	b	.LBB46_3
.LBB46_3:                               @   in Loop: Header=BB46_1 Depth=1
	.loc	19 48 28                        @ ../Middlewares/CMSIS/DSP/Src/SupportFunctions/arm_merge_sort_f32.c:48:28
	ldr	r0, [sp, #4]
	.loc	19 48 33                        @ ../Middlewares/CMSIS/DSP/Src/SupportFunctions/arm_merge_sort_f32.c:48:33
	ldr	r1, [sp, #16]
	.loc	19 48 37                        @ ../Middlewares/CMSIS/DSP/Src/SupportFunctions/arm_merge_sort_f32.c:48:37
	cmp	r0, r1
	bhs	.LBB46_5
	b	.LBB46_4
.LBB46_4:                               @   in Loop: Header=BB46_1 Depth=1
	.loc	19 48 40                        @ ../Middlewares/CMSIS/DSP/Src/SupportFunctions/arm_merge_sort_f32.c:48:40
	ldrb.w	r0, [sp, #15]
	.loc	19 48 46                        @ ../Middlewares/CMSIS/DSP/Src/SupportFunctions/arm_merge_sort_f32.c:48:46
	ldr	r1, [sp, #28]
	.loc	19 48 49                        @ ../Middlewares/CMSIS/DSP/Src/SupportFunctions/arm_merge_sort_f32.c:48:49
	ldr	r2, [sp, #8]
	.loc	19 48 46                        @ ../Middlewares/CMSIS/DSP/Src/SupportFunctions/arm_merge_sort_f32.c:48:46
	add.w	r2, r1, r2, lsl #2
	vldr	s0, [r2]
	.loc	19 48 58                        @ ../Middlewares/CMSIS/DSP/Src/SupportFunctions/arm_merge_sort_f32.c:48:58
	ldr	r2, [sp, #4]
	.loc	19 48 55                        @ ../Middlewares/CMSIS/DSP/Src/SupportFunctions/arm_merge_sort_f32.c:48:55
	add.w	r1, r1, r2, lsl #2
	vldr	s2, [r1]
	movs	r1, #0
	.loc	19 48 52                        @ ../Middlewares/CMSIS/DSP/Src/SupportFunctions/arm_merge_sort_f32.c:48:52
	vcmp.f32	s0, s2
	vmrs	APSR_nzcv, fpscr
	it	le
	movle	r1, #1
.Ltmp310:
	.loc	19 48 13                        @ ../Middlewares/CMSIS/DSP/Src/SupportFunctions/arm_merge_sort_f32.c:48:13
	cmp	r0, r1
	bne	.LBB46_6
	b	.LBB46_5
.LBB46_5:                               @   in Loop: Header=BB46_1 Depth=1
.Ltmp311:
	.loc	19 50 21 is_stmt 1              @ ../Middlewares/CMSIS/DSP/Src/SupportFunctions/arm_merge_sort_f32.c:50:21
	ldr	r0, [sp, #28]
	.loc	19 50 24 is_stmt 0              @ ../Middlewares/CMSIS/DSP/Src/SupportFunctions/arm_merge_sort_f32.c:50:24
	ldr	r1, [sp, #8]
	.loc	19 50 21                        @ ../Middlewares/CMSIS/DSP/Src/SupportFunctions/arm_merge_sort_f32.c:50:21
	ldr.w	r0, [r0, r1, lsl #2]
	.loc	19 50 13                        @ ../Middlewares/CMSIS/DSP/Src/SupportFunctions/arm_merge_sort_f32.c:50:13
	ldr	r1, [sp, #40]
	.loc	19 50 16                        @ ../Middlewares/CMSIS/DSP/Src/SupportFunctions/arm_merge_sort_f32.c:50:16
	ldr	r2, [sp]
	.loc	19 50 19                        @ ../Middlewares/CMSIS/DSP/Src/SupportFunctions/arm_merge_sort_f32.c:50:19
	str.w	r0, [r1, r2, lsl #2]
	.loc	19 51 14 is_stmt 1              @ ../Middlewares/CMSIS/DSP/Src/SupportFunctions/arm_merge_sort_f32.c:51:14
	ldr	r0, [sp, #8]
	adds	r0, #1
	str	r0, [sp, #8]
	.loc	19 52 9                         @ ../Middlewares/CMSIS/DSP/Src/SupportFunctions/arm_merge_sort_f32.c:52:9
	b	.LBB46_7
.Ltmp312:
.LBB46_6:                               @   in Loop: Header=BB46_1 Depth=1
	.loc	19 55 21                        @ ../Middlewares/CMSIS/DSP/Src/SupportFunctions/arm_merge_sort_f32.c:55:21
	ldr	r0, [sp, #28]
	.loc	19 55 24 is_stmt 0              @ ../Middlewares/CMSIS/DSP/Src/SupportFunctions/arm_merge_sort_f32.c:55:24
	ldr	r1, [sp, #4]
	.loc	19 55 21                        @ ../Middlewares/CMSIS/DSP/Src/SupportFunctions/arm_merge_sort_f32.c:55:21
	ldr.w	r0, [r0, r1, lsl #2]
	.loc	19 55 13                        @ ../Middlewares/CMSIS/DSP/Src/SupportFunctions/arm_merge_sort_f32.c:55:13
	ldr	r1, [sp, #40]
	.loc	19 55 16                        @ ../Middlewares/CMSIS/DSP/Src/SupportFunctions/arm_merge_sort_f32.c:55:16
	ldr	r2, [sp]
	.loc	19 55 19                        @ ../Middlewares/CMSIS/DSP/Src/SupportFunctions/arm_merge_sort_f32.c:55:19
	str.w	r0, [r1, r2, lsl #2]
	.loc	19 56 14 is_stmt 1              @ ../Middlewares/CMSIS/DSP/Src/SupportFunctions/arm_merge_sort_f32.c:56:14
	ldr	r0, [sp, #4]
	adds	r0, #1
	str	r0, [sp, #4]
	b	.LBB46_7
.Ltmp313:
.LBB46_7:                               @   in Loop: Header=BB46_1 Depth=1
	.loc	19 58 5                         @ ../Middlewares/CMSIS/DSP/Src/SupportFunctions/arm_merge_sort_f32.c:58:5
	b	.LBB46_8
.Ltmp314:
.LBB46_8:                               @   in Loop: Header=BB46_1 Depth=1
	.loc	19 45 31                        @ ../Middlewares/CMSIS/DSP/Src/SupportFunctions/arm_merge_sort_f32.c:45:31
	ldr	r0, [sp]
	adds	r0, #1
	str	r0, [sp]
	.loc	19 45 5 is_stmt 0               @ ../Middlewares/CMSIS/DSP/Src/SupportFunctions/arm_merge_sort_f32.c:45:5
	b	.LBB46_1
.Ltmp315:
.LBB46_9:
	.loc	19 59 1 is_stmt 1               @ ../Middlewares/CMSIS/DSP/Src/SupportFunctions/arm_merge_sort_f32.c:59:1
	add	sp, #32
	pop	{r7, pc}
.Ltmp316:
.Lfunc_end46:
	.size	topDownMerge, .Lfunc_end46-topDownMerge
	.cfi_endproc
	.cantunwind
	.fnend
                                        @ -- End function
	.section	.text.arm_quick_sort_partition_f32,"ax",%progbits
	.p2align	2                               @ -- Begin function arm_quick_sort_partition_f32
	.type	arm_quick_sort_partition_f32,%function
	.code	16                              @ @arm_quick_sort_partition_f32
	.thumb_func
arm_quick_sort_partition_f32:
.Lfunc_begin47:
	.loc	21 32 0                         @ ../Middlewares/CMSIS/DSP/Src/SupportFunctions/arm_quick_sort_f32.c:32:0
	.fnstart
	.cfi_startproc
@ %bb.0:
	.pad	#44
	sub	sp, #44
	.cfi_def_cfa_offset 44
                                        @ kill: def $r12 killed $r3
	str	r0, [sp, #40]
	str	r1, [sp, #36]
	str	r2, [sp, #32]
	strb.w	r3, [sp, #31]
.Ltmp317:
	.loc	21 39 19 prologue_end           @ ../Middlewares/CMSIS/DSP/Src/SupportFunctions/arm_quick_sort_f32.c:39:19
	ldr	r0, [sp, #36]
	.loc	21 39 17 is_stmt 0              @ ../Middlewares/CMSIS/DSP/Src/SupportFunctions/arm_quick_sort_f32.c:39:17
	str	r0, [sp, #16]
	.loc	21 40 13 is_stmt 1              @ ../Middlewares/CMSIS/DSP/Src/SupportFunctions/arm_quick_sort_f32.c:40:13
	ldr	r0, [sp, #40]
	.loc	21 40 18 is_stmt 0              @ ../Middlewares/CMSIS/DSP/Src/SupportFunctions/arm_quick_sort_f32.c:40:18
	ldr	r1, [sp, #16]
	.loc	21 40 13                        @ ../Middlewares/CMSIS/DSP/Src/SupportFunctions/arm_quick_sort_f32.c:40:13
	ldr.w	r0, [r0, r1, lsl #2]
	.loc	21 40 11                        @ ../Middlewares/CMSIS/DSP/Src/SupportFunctions/arm_quick_sort_f32.c:40:11
	str	r0, [sp, #12]
	.loc	21 43 9 is_stmt 1               @ ../Middlewares/CMSIS/DSP/Src/SupportFunctions/arm_quick_sort_f32.c:43:9
	ldr	r0, [sp, #36]
	.loc	21 43 15 is_stmt 0              @ ../Middlewares/CMSIS/DSP/Src/SupportFunctions/arm_quick_sort_f32.c:43:15
	subs	r0, #1
	.loc	21 43 7                         @ ../Middlewares/CMSIS/DSP/Src/SupportFunctions/arm_quick_sort_f32.c:43:7
	str	r0, [sp, #24]
	.loc	21 44 9 is_stmt 1               @ ../Middlewares/CMSIS/DSP/Src/SupportFunctions/arm_quick_sort_f32.c:44:9
	ldr	r0, [sp, #32]
	.loc	21 44 14 is_stmt 0              @ ../Middlewares/CMSIS/DSP/Src/SupportFunctions/arm_quick_sort_f32.c:44:14
	adds	r0, #1
	.loc	21 44 7                         @ ../Middlewares/CMSIS/DSP/Src/SupportFunctions/arm_quick_sort_f32.c:44:7
	str	r0, [sp, #20]
	.loc	21 46 5 is_stmt 1               @ ../Middlewares/CMSIS/DSP/Src/SupportFunctions/arm_quick_sort_f32.c:46:5
	b	.LBB47_1
.LBB47_1:                               @ =>This Loop Header: Depth=1
                                        @     Child Loop BB47_13 Depth 2
                                        @     Child Loop BB47_18 Depth 2
                                        @     Child Loop BB47_4 Depth 2
                                        @     Child Loop BB47_9 Depth 2
	.loc	21 46 11 is_stmt 0              @ ../Middlewares/CMSIS/DSP/Src/SupportFunctions/arm_quick_sort_f32.c:46:11
	ldr	r0, [sp, #24]
	.loc	21 46 15                        @ ../Middlewares/CMSIS/DSP/Src/SupportFunctions/arm_quick_sort_f32.c:46:15
	ldr	r1, [sp, #20]
	.loc	21 46 5                         @ ../Middlewares/CMSIS/DSP/Src/SupportFunctions/arm_quick_sort_f32.c:46:5
	cmp	r0, r1
	bge.w	.LBB47_24
	b	.LBB47_2
.LBB47_2:                               @   in Loop: Header=BB47_1 Depth=1
.Ltmp318:
	.loc	21 61 12 is_stmt 1              @ ../Middlewares/CMSIS/DSP/Src/SupportFunctions/arm_quick_sort_f32.c:61:12
	ldrb.w	r0, [sp, #31]
.Ltmp319:
	.loc	21 61 12 is_stmt 0              @ ../Middlewares/CMSIS/DSP/Src/SupportFunctions/arm_quick_sort_f32.c:61:12
	cbz	r0, .LBB47_12
	b	.LBB47_3
.LBB47_3:                               @   in Loop: Header=BB47_1 Depth=1
.Ltmp320:
	.loc	21 64 13 is_stmt 1              @ ../Middlewares/CMSIS/DSP/Src/SupportFunctions/arm_quick_sort_f32.c:64:13
	b	.LBB47_4
.LBB47_4:                               @   Parent Loop BB47_1 Depth=1
                                        @ =>  This Inner Loop Header: Depth=2
.Ltmp321:
	.loc	21 66 18                        @ ../Middlewares/CMSIS/DSP/Src/SupportFunctions/arm_quick_sort_f32.c:66:18
	ldr	r0, [sp, #24]
	adds	r0, #1
	str	r0, [sp, #24]
	.loc	21 67 13                        @ ../Middlewares/CMSIS/DSP/Src/SupportFunctions/arm_quick_sort_f32.c:67:13
	b	.LBB47_5
.Ltmp322:
.LBB47_5:                               @   in Loop: Header=BB47_4 Depth=2
	.loc	21 67 22 is_stmt 0              @ ../Middlewares/CMSIS/DSP/Src/SupportFunctions/arm_quick_sort_f32.c:67:22
	ldr	r0, [sp, #40]
	.loc	21 67 27                        @ ../Middlewares/CMSIS/DSP/Src/SupportFunctions/arm_quick_sort_f32.c:67:27
	ldr	r1, [sp, #24]
	.loc	21 67 22                        @ ../Middlewares/CMSIS/DSP/Src/SupportFunctions/arm_quick_sort_f32.c:67:22
	add.w	r0, r0, r1, lsl #2
	vldr	s0, [r0]
	.loc	21 67 32                        @ ../Middlewares/CMSIS/DSP/Src/SupportFunctions/arm_quick_sort_f32.c:67:32
	vldr	s2, [sp, #12]
	movs	r0, #0
	.loc	21 67 38                        @ ../Middlewares/CMSIS/DSP/Src/SupportFunctions/arm_quick_sort_f32.c:67:38
	vcmp.f32	s0, s2
	vmrs	APSR_nzcv, fpscr
	str	r0, [sp, #4]                    @ 4-byte Spill
	bge	.LBB47_7
	b	.LBB47_6
.LBB47_6:                               @   in Loop: Header=BB47_4 Depth=2
	.loc	21 67 41                        @ ../Middlewares/CMSIS/DSP/Src/SupportFunctions/arm_quick_sort_f32.c:67:41
	ldr	r1, [sp, #24]
	.loc	21 67 43                        @ ../Middlewares/CMSIS/DSP/Src/SupportFunctions/arm_quick_sort_f32.c:67:43
	ldr	r2, [sp, #32]
	movs	r0, #0
	.loc	21 67 42                        @ ../Middlewares/CMSIS/DSP/Src/SupportFunctions/arm_quick_sort_f32.c:67:42
	cmp	r1, r2
	it	lt
	movlt	r0, #1
	str	r0, [sp, #4]                    @ 4-byte Spill
	b	.LBB47_7
.LBB47_7:                               @   in Loop: Header=BB47_4 Depth=2
	.loc	21 0 0                          @ ../Middlewares/CMSIS/DSP/Src/SupportFunctions/arm_quick_sort_f32.c:0:0
	ldr	r0, [sp, #4]                    @ 4-byte Reload
.Ltmp323:
	.loc	21 67 13                        @ ../Middlewares/CMSIS/DSP/Src/SupportFunctions/arm_quick_sort_f32.c:67:13
	lsls	r0, r0, #31
	cmp	r0, #0
	bne	.LBB47_4
	b	.LBB47_8
.Ltmp324:
.LBB47_8:                               @   in Loop: Header=BB47_1 Depth=1
	.loc	21 70 13 is_stmt 1              @ ../Middlewares/CMSIS/DSP/Src/SupportFunctions/arm_quick_sort_f32.c:70:13
	b	.LBB47_9
.LBB47_9:                               @   Parent Loop BB47_1 Depth=1
                                        @ =>  This Inner Loop Header: Depth=2
.Ltmp325:
	.loc	21 72 18                        @ ../Middlewares/CMSIS/DSP/Src/SupportFunctions/arm_quick_sort_f32.c:72:18
	ldr	r0, [sp, #20]
	subs	r0, #1
	str	r0, [sp, #20]
	.loc	21 73 13                        @ ../Middlewares/CMSIS/DSP/Src/SupportFunctions/arm_quick_sort_f32.c:73:13
	b	.LBB47_10
.Ltmp326:
.LBB47_10:                              @   in Loop: Header=BB47_9 Depth=2
	.loc	21 73 22 is_stmt 0              @ ../Middlewares/CMSIS/DSP/Src/SupportFunctions/arm_quick_sort_f32.c:73:22
	ldr	r0, [sp, #40]
	.loc	21 73 27                        @ ../Middlewares/CMSIS/DSP/Src/SupportFunctions/arm_quick_sort_f32.c:73:27
	ldr	r1, [sp, #20]
	.loc	21 73 22                        @ ../Middlewares/CMSIS/DSP/Src/SupportFunctions/arm_quick_sort_f32.c:73:22
	add.w	r0, r0, r1, lsl #2
	vldr	s0, [r0]
	.loc	21 73 32                        @ ../Middlewares/CMSIS/DSP/Src/SupportFunctions/arm_quick_sort_f32.c:73:32
	vldr	s2, [sp, #12]
.Ltmp327:
	.loc	21 73 13                        @ ../Middlewares/CMSIS/DSP/Src/SupportFunctions/arm_quick_sort_f32.c:73:13
	vcmp.f32	s0, s2
	vmrs	APSR_nzcv, fpscr
	bgt	.LBB47_9
	b	.LBB47_11
.Ltmp328:
.LBB47_11:                              @   in Loop: Header=BB47_1 Depth=1
	.loc	21 74 9 is_stmt 1               @ ../Middlewares/CMSIS/DSP/Src/SupportFunctions/arm_quick_sort_f32.c:74:9
	b	.LBB47_21
.Ltmp329:
.LBB47_12:                              @   in Loop: Header=BB47_1 Depth=1
	.loc	21 78 13                        @ ../Middlewares/CMSIS/DSP/Src/SupportFunctions/arm_quick_sort_f32.c:78:13
	b	.LBB47_13
.LBB47_13:                              @   Parent Loop BB47_1 Depth=1
                                        @ =>  This Inner Loop Header: Depth=2
.Ltmp330:
	.loc	21 80 18                        @ ../Middlewares/CMSIS/DSP/Src/SupportFunctions/arm_quick_sort_f32.c:80:18
	ldr	r0, [sp, #24]
	adds	r0, #1
	str	r0, [sp, #24]
	.loc	21 81 13                        @ ../Middlewares/CMSIS/DSP/Src/SupportFunctions/arm_quick_sort_f32.c:81:13
	b	.LBB47_14
.Ltmp331:
.LBB47_14:                              @   in Loop: Header=BB47_13 Depth=2
	.loc	21 81 22 is_stmt 0              @ ../Middlewares/CMSIS/DSP/Src/SupportFunctions/arm_quick_sort_f32.c:81:22
	ldr	r0, [sp, #40]
	.loc	21 81 27                        @ ../Middlewares/CMSIS/DSP/Src/SupportFunctions/arm_quick_sort_f32.c:81:27
	ldr	r1, [sp, #24]
	.loc	21 81 22                        @ ../Middlewares/CMSIS/DSP/Src/SupportFunctions/arm_quick_sort_f32.c:81:22
	add.w	r0, r0, r1, lsl #2
	vldr	s0, [r0]
	.loc	21 81 32                        @ ../Middlewares/CMSIS/DSP/Src/SupportFunctions/arm_quick_sort_f32.c:81:32
	vldr	s2, [sp, #12]
	movs	r0, #0
	.loc	21 81 38                        @ ../Middlewares/CMSIS/DSP/Src/SupportFunctions/arm_quick_sort_f32.c:81:38
	vcmp.f32	s0, s2
	vmrs	APSR_nzcv, fpscr
	str	r0, [sp]                        @ 4-byte Spill
	ble	.LBB47_16
	b	.LBB47_15
.LBB47_15:                              @   in Loop: Header=BB47_13 Depth=2
	.loc	21 81 41                        @ ../Middlewares/CMSIS/DSP/Src/SupportFunctions/arm_quick_sort_f32.c:81:41
	ldr	r1, [sp, #24]
	.loc	21 81 43                        @ ../Middlewares/CMSIS/DSP/Src/SupportFunctions/arm_quick_sort_f32.c:81:43
	ldr	r2, [sp, #32]
	movs	r0, #0
	.loc	21 81 42                        @ ../Middlewares/CMSIS/DSP/Src/SupportFunctions/arm_quick_sort_f32.c:81:42
	cmp	r1, r2
	it	lt
	movlt	r0, #1
	str	r0, [sp]                        @ 4-byte Spill
	b	.LBB47_16
.LBB47_16:                              @   in Loop: Header=BB47_13 Depth=2
	.loc	21 0 0                          @ ../Middlewares/CMSIS/DSP/Src/SupportFunctions/arm_quick_sort_f32.c:0:0
	ldr	r0, [sp]                        @ 4-byte Reload
.Ltmp332:
	.loc	21 81 13                        @ ../Middlewares/CMSIS/DSP/Src/SupportFunctions/arm_quick_sort_f32.c:81:13
	lsls	r0, r0, #31
	cmp	r0, #0
	bne	.LBB47_13
	b	.LBB47_17
.Ltmp333:
.LBB47_17:                              @   in Loop: Header=BB47_1 Depth=1
	.loc	21 84 13 is_stmt 1              @ ../Middlewares/CMSIS/DSP/Src/SupportFunctions/arm_quick_sort_f32.c:84:13
	b	.LBB47_18
.LBB47_18:                              @   Parent Loop BB47_1 Depth=1
                                        @ =>  This Inner Loop Header: Depth=2
.Ltmp334:
	.loc	21 86 18                        @ ../Middlewares/CMSIS/DSP/Src/SupportFunctions/arm_quick_sort_f32.c:86:18
	ldr	r0, [sp, #20]
	subs	r0, #1
	str	r0, [sp, #20]
	.loc	21 87 13                        @ ../Middlewares/CMSIS/DSP/Src/SupportFunctions/arm_quick_sort_f32.c:87:13
	b	.LBB47_19
.Ltmp335:
.LBB47_19:                              @   in Loop: Header=BB47_18 Depth=2
	.loc	21 87 22 is_stmt 0              @ ../Middlewares/CMSIS/DSP/Src/SupportFunctions/arm_quick_sort_f32.c:87:22
	ldr	r0, [sp, #40]
	.loc	21 87 27                        @ ../Middlewares/CMSIS/DSP/Src/SupportFunctions/arm_quick_sort_f32.c:87:27
	ldr	r1, [sp, #20]
	.loc	21 87 22                        @ ../Middlewares/CMSIS/DSP/Src/SupportFunctions/arm_quick_sort_f32.c:87:22
	add.w	r0, r0, r1, lsl #2
	vldr	s0, [r0]
	.loc	21 87 32                        @ ../Middlewares/CMSIS/DSP/Src/SupportFunctions/arm_quick_sort_f32.c:87:32
	vldr	s2, [sp, #12]
.Ltmp336:
	.loc	21 87 13                        @ ../Middlewares/CMSIS/DSP/Src/SupportFunctions/arm_quick_sort_f32.c:87:13
	vcmp.f32	s0, s2
	vmrs	APSR_nzcv, fpscr
	blt	.LBB47_18
	b	.LBB47_20
.Ltmp337:
.LBB47_20:                              @   in Loop: Header=BB47_1 Depth=1
	.loc	21 0 13                         @ ../Middlewares/CMSIS/DSP/Src/SupportFunctions/arm_quick_sort_f32.c:0:13
	b	.LBB47_21
.LBB47_21:                              @   in Loop: Header=BB47_1 Depth=1
.Ltmp338:
	.loc	21 91 13 is_stmt 1              @ ../Middlewares/CMSIS/DSP/Src/SupportFunctions/arm_quick_sort_f32.c:91:13
	ldr	r0, [sp, #24]
	.loc	21 91 17 is_stmt 0              @ ../Middlewares/CMSIS/DSP/Src/SupportFunctions/arm_quick_sort_f32.c:91:17
	ldr	r1, [sp, #20]
.Ltmp339:
	.loc	21 91 13                        @ ../Middlewares/CMSIS/DSP/Src/SupportFunctions/arm_quick_sort_f32.c:91:13
	cmp	r0, r1
	bge	.LBB47_23
	b	.LBB47_22
.LBB47_22:                              @   in Loop: Header=BB47_1 Depth=1
.Ltmp340:
	.loc	21 94 18 is_stmt 1              @ ../Middlewares/CMSIS/DSP/Src/SupportFunctions/arm_quick_sort_f32.c:94:18
	ldr	r0, [sp, #40]
	.loc	21 94 23 is_stmt 0              @ ../Middlewares/CMSIS/DSP/Src/SupportFunctions/arm_quick_sort_f32.c:94:23
	ldr	r1, [sp, #24]
	.loc	21 94 18                        @ ../Middlewares/CMSIS/DSP/Src/SupportFunctions/arm_quick_sort_f32.c:94:18
	ldr.w	r0, [r0, r1, lsl #2]
	.loc	21 94 17                        @ ../Middlewares/CMSIS/DSP/Src/SupportFunctions/arm_quick_sort_f32.c:94:17
	str	r0, [sp, #8]
	.loc	21 95 21 is_stmt 1              @ ../Middlewares/CMSIS/DSP/Src/SupportFunctions/arm_quick_sort_f32.c:95:21
	ldr	r1, [sp, #40]
	.loc	21 95 26 is_stmt 0              @ ../Middlewares/CMSIS/DSP/Src/SupportFunctions/arm_quick_sort_f32.c:95:26
	ldr	r0, [sp, #20]
	.loc	21 95 21                        @ ../Middlewares/CMSIS/DSP/Src/SupportFunctions/arm_quick_sort_f32.c:95:21
	ldr.w	r0, [r1, r0, lsl #2]
	.loc	21 95 18                        @ ../Middlewares/CMSIS/DSP/Src/SupportFunctions/arm_quick_sort_f32.c:95:18
	ldr	r2, [sp, #24]
	.loc	21 95 20                        @ ../Middlewares/CMSIS/DSP/Src/SupportFunctions/arm_quick_sort_f32.c:95:20
	str.w	r0, [r1, r2, lsl #2]
	.loc	21 96 21 is_stmt 1              @ ../Middlewares/CMSIS/DSP/Src/SupportFunctions/arm_quick_sort_f32.c:96:21
	ldr	r0, [sp, #8]
	.loc	21 96 13 is_stmt 0              @ ../Middlewares/CMSIS/DSP/Src/SupportFunctions/arm_quick_sort_f32.c:96:13
	ldr	r1, [sp, #40]
	.loc	21 96 18                        @ ../Middlewares/CMSIS/DSP/Src/SupportFunctions/arm_quick_sort_f32.c:96:18
	ldr	r2, [sp, #20]
	.loc	21 96 20                        @ ../Middlewares/CMSIS/DSP/Src/SupportFunctions/arm_quick_sort_f32.c:96:20
	str.w	r0, [r1, r2, lsl #2]
	.loc	21 97 9 is_stmt 1               @ ../Middlewares/CMSIS/DSP/Src/SupportFunctions/arm_quick_sort_f32.c:97:9
	b	.LBB47_23
.Ltmp341:
.LBB47_23:                              @   in Loop: Header=BB47_1 Depth=1
	.loc	21 46 5                         @ ../Middlewares/CMSIS/DSP/Src/SupportFunctions/arm_quick_sort_f32.c:46:5
	b	.LBB47_1
.LBB47_24:
	.loc	21 100 12                       @ ../Middlewares/CMSIS/DSP/Src/SupportFunctions/arm_quick_sort_f32.c:100:12
	ldr	r0, [sp, #20]
	.loc	21 100 5 is_stmt 0              @ ../Middlewares/CMSIS/DSP/Src/SupportFunctions/arm_quick_sort_f32.c:100:5
	add	sp, #44
	bx	lr
.Ltmp342:
.Lfunc_end47:
	.size	arm_quick_sort_partition_f32, .Lfunc_end47-arm_quick_sort_partition_f32
	.cfi_endproc
	.cantunwind
	.fnend
                                        @ -- End function
	.section	".note.GNU-stack","",%progbits
	.eabi_attribute	30, 6	@ Tag_ABI_optimization_goals
	.ARM_attribute	16, 1	@ Tag_AV_eba