	.text
	.syntax unified
	.eabi_attribute	67, "2.09"	@ Tag_conformance
	.cpu	cortex-m4
	.eabi_attribute	6, 13	@ Tag_CPU_arch
	.eabi_attribute	7, 77	@ Tag_CPU_arch_profile
	.eabi_attribute	8, 0	@ Tag_ARM_ISA_use
	.eabi_attribute	9, 2	@ Tag_THUMB_ISA_use
	.fpu	fpv4-sp-d16
	.eabi_attribute	27, 1	@ Tag_ABI_HardFP_use
	.eabi_attribute	36, 1	@ Tag_FP_HP_extension
	.eabi_attribute	34, 1	@ Tag_CPU_unaligned_access
	.eabi_attribute	17, 1	@ Tag_ABI_PCS_GOT_use
	.eabi_attribute	20, 2	@ Tag_ABI_FP_denormal
	.eabi_attribute	21, 0	@ Tag_ABI_FP_exceptions
	.eabi_attribute	23, 3	@ Tag_ABI_FP_number_model
	.eabi_attribute	24, 1	@ Tag_ABI_align_needed
	.eabi_attribute	25, 1	@ Tag_ABI_align_preserved
	.eabi_attribute	28, 1	@ Tag_ABI_VFP_args
	.eabi_attribute	38, 1	@ Tag_ABI_FP_16bit_format
	.eabi_attribute	18, 2	@ Tag_ABI_PCS_wchar_t
	.eabi_attribute	26, 1	@ Tag_ABI_enum_size
	.eabi_attribute	14, 0	@ Tag_ABI_PCS_R9_use
	.file	"SVMFunctions.c"
	.section	.text.arm_svm_linear_init_f32,"ax",%progbits
	.hidden	arm_svm_linear_init_f32         @ -- Begin function arm_svm_linear_init_f32
	.globl	arm_svm_linear_init_f32
	.p2align	2
	.type	arm_svm_linear_init_f32,%function
	.code	16                              @ @arm_svm_linear_init_f32
	.thumb_func
arm_svm_linear_init_f32:
.Lfunc_begin0:
	.file	1 "D:\\horizon\\Horizon_Infantry (2)\\MDK-ARM" "../Middlewares/CMSIS/DSP/Src/SVMFunctions/arm_svm_linear_init_f32.c"
	.loc	1 79 0                          @ ../Middlewares/CMSIS/DSP/Src/SVMFunctions/arm_svm_linear_init_f32.c:79:0
	.fnstart
	.cfi_sections .debug_frame
	.cfi_startproc
@ %bb.0:
	.pad	#20
	sub	sp, #20
	.cfi_def_cfa_offset 20
	ldr.w	r12, [sp, #24]
	ldr.w	r12, [sp, #20]
	str	r0, [sp, #16]
	str	r1, [sp, #12]
	str	r2, [sp, #8]
	vstr	s0, [sp, #4]
	str	r3, [sp]
.Ltmp0:
	.loc	1 80 28 prologue_end            @ ../Middlewares/CMSIS/DSP/Src/SVMFunctions/arm_svm_linear_init_f32.c:80:28
	ldr	r0, [sp, #12]
	.loc	1 80 4 is_stmt 0                @ ../Middlewares/CMSIS/DSP/Src/SVMFunctions/arm_svm_linear_init_f32.c:80:4
	ldr	r1, [sp, #16]
	.loc	1 80 26                         @ ../Middlewares/CMSIS/DSP/Src/SVMFunctions/arm_svm_linear_init_f32.c:80:26
	str	r0, [r1]
	.loc	1 81 25 is_stmt 1               @ ../Middlewares/CMSIS/DSP/Src/SVMFunctions/arm_svm_linear_init_f32.c:81:25
	ldr	r0, [sp, #8]
	.loc	1 81 4 is_stmt 0                @ ../Middlewares/CMSIS/DSP/Src/SVMFunctions/arm_svm_linear_init_f32.c:81:4
	ldr	r1, [sp, #16]
	.loc	1 81 23                         @ ../Middlewares/CMSIS/DSP/Src/SVMFunctions/arm_svm_linear_init_f32.c:81:23
	str	r0, [r1, #4]
	.loc	1 82 19 is_stmt 1               @ ../Middlewares/CMSIS/DSP/Src/SVMFunctions/arm_svm_linear_init_f32.c:82:19
	ldr	r0, [sp, #4]
	.loc	1 82 4 is_stmt 0                @ ../Middlewares/CMSIS/DSP/Src/SVMFunctions/arm_svm_linear_init_f32.c:82:4
	ldr	r1, [sp, #16]
	.loc	1 82 17                         @ ../Middlewares/CMSIS/DSP/Src/SVMFunctions/arm_svm_linear_init_f32.c:82:17
	str	r0, [r1, #8]
	.loc	1 83 26 is_stmt 1               @ ../Middlewares/CMSIS/DSP/Src/SVMFunctions/arm_svm_linear_init_f32.c:83:26
	ldr	r0, [sp]
	.loc	1 83 4 is_stmt 0                @ ../Middlewares/CMSIS/DSP/Src/SVMFunctions/arm_svm_linear_init_f32.c:83:4
	ldr	r1, [sp, #16]
	.loc	1 83 24                         @ ../Middlewares/CMSIS/DSP/Src/SVMFunctions/arm_svm_linear_init_f32.c:83:24
	str	r0, [r1, #12]
	.loc	1 84 24 is_stmt 1               @ ../Middlewares/CMSIS/DSP/Src/SVMFunctions/arm_svm_linear_init_f32.c:84:24
	ldr	r0, [sp, #20]
	.loc	1 84 4 is_stmt 0                @ ../Middlewares/CMSIS/DSP/Src/SVMFunctions/arm_svm_linear_init_f32.c:84:4
	ldr	r1, [sp, #16]
	.loc	1 84 22                         @ ../Middlewares/CMSIS/DSP/Src/SVMFunctions/arm_svm_linear_init_f32.c:84:22
	str	r0, [r1, #16]
	.loc	1 85 17 is_stmt 1               @ ../Middlewares/CMSIS/DSP/Src/SVMFunctions/arm_svm_linear_init_f32.c:85:17
	ldr	r0, [sp, #24]
	.loc	1 85 4 is_stmt 0                @ ../Middlewares/CMSIS/DSP/Src/SVMFunctions/arm_svm_linear_init_f32.c:85:4
	ldr	r1, [sp, #16]
	.loc	1 85 15                         @ ../Middlewares/CMSIS/DSP/Src/SVMFunctions/arm_svm_linear_init_f32.c:85:15
	str	r0, [r1, #20]
	.loc	1 86 1 is_stmt 1                @ ../Middlewares/CMSIS/DSP/Src/SVMFunctions/arm_svm_linear_init_f32.c:86:1
	add	sp, #20
	bx	lr
.Ltmp1:
.Lfunc_end0:
	.size	arm_svm_linear_init_f32, .Lfunc_end0-arm_svm_linear_init_f32
	.cfi_endproc
	.cantunwind
	.fnend
                                        @ -- End function
	.section	.text.arm_svm_linear_predict_f32,"ax",%progbits
	.hidden	arm_svm_linear_predict_f32      @ -- Begin function arm_svm_linear_predict_f32
	.globl	arm_svm_linear_predict_f32
	.p2align	2
	.type	arm_svm_linear_predict_f32,%function
	.code	16                              @ @arm_svm_linear_predict_f32
	.thumb_func
arm_svm_linear_predict_f32:
.Lfunc_begin1:
	.file	2 "D:\\horizon\\Horizon_Infantry (2)\\MDK-ARM" "../Middlewares/CMSIS/DSP/Src/SVMFunctions/arm_svm_linear_predict_f32.c"
	.loc	2 439 0                         @ ../Middlewares/CMSIS/DSP/Src/SVMFunctions/arm_svm_linear_predict_f32.c:439:0
	.fnstart
	.cfi_startproc
@ %bb.0:
	.pad	#32
	sub	sp, #32
	.cfi_def_cfa_offset 32
	str	r0, [sp, #28]
	str	r1, [sp, #24]
	str	r2, [sp, #20]
.Ltmp2:
	.loc	2 440 19 prologue_end           @ ../Middlewares/CMSIS/DSP/Src/SVMFunctions/arm_svm_linear_predict_f32.c:440:19
	ldr	r0, [sp, #28]
	.loc	2 440 22 is_stmt 0              @ ../Middlewares/CMSIS/DSP/Src/SVMFunctions/arm_svm_linear_predict_f32.c:440:22
	ldr	r0, [r0, #8]
	.loc	2 440 15                        @ ../Middlewares/CMSIS/DSP/Src/SVMFunctions/arm_svm_linear_predict_f32.c:440:15
	str	r0, [sp, #16]
	movs	r0, #0
	.loc	2 441 15 is_stmt 1              @ ../Middlewares/CMSIS/DSP/Src/SVMFunctions/arm_svm_linear_predict_f32.c:441:15
	str	r0, [sp, #12]
	.loc	2 443 33                        @ ../Middlewares/CMSIS/DSP/Src/SVMFunctions/arm_svm_linear_predict_f32.c:443:33
	ldr	r1, [sp, #28]
	.loc	2 443 36 is_stmt 0              @ ../Middlewares/CMSIS/DSP/Src/SVMFunctions/arm_svm_linear_predict_f32.c:443:36
	ldr	r1, [r1, #16]
	.loc	2 443 22                        @ ../Middlewares/CMSIS/DSP/Src/SVMFunctions/arm_svm_linear_predict_f32.c:443:22
	str	r1, [sp]
.Ltmp3:
	.loc	2 445 10 is_stmt 1              @ ../Middlewares/CMSIS/DSP/Src/SVMFunctions/arm_svm_linear_predict_f32.c:445:10
	str	r0, [sp, #8]
	.loc	2 445 9 is_stmt 0               @ ../Middlewares/CMSIS/DSP/Src/SVMFunctions/arm_svm_linear_predict_f32.c:445:9
	b	.LBB1_1
.LBB1_1:                                @ =>This Loop Header: Depth=1
                                        @     Child Loop BB1_3 Depth 2
.Ltmp4:
	.loc	2 445 14                        @ ../Middlewares/CMSIS/DSP/Src/SVMFunctions/arm_svm_linear_predict_f32.c:445:14
	ldr	r0, [sp, #8]
	.loc	2 445 18                        @ ../Middlewares/CMSIS/DSP/Src/SVMFunctions/arm_svm_linear_predict_f32.c:445:18
	ldr	r1, [sp, #28]
	.loc	2 445 21                        @ ../Middlewares/CMSIS/DSP/Src/SVMFunctions/arm_svm_linear_predict_f32.c:445:21
	ldr	r1, [r1]
.Ltmp5:
	.loc	2 445 5                         @ ../Middlewares/CMSIS/DSP/Src/SVMFunctions/arm_svm_linear_predict_f32.c:445:5
	cmp	r0, r1
	bhs	.LBB1_8
	b	.LBB1_2
.LBB1_2:                                @   in Loop: Header=BB1_1 Depth=1
	.loc	2 0 5                           @ ../Middlewares/CMSIS/DSP/Src/SVMFunctions/arm_svm_linear_predict_f32.c:0:5
	movs	r0, #0
.Ltmp6:
	.loc	2 447 12 is_stmt 1              @ ../Middlewares/CMSIS/DSP/Src/SVMFunctions/arm_svm_linear_predict_f32.c:447:12
	str	r0, [sp, #12]
.Ltmp7:
	.loc	2 448 14                        @ ../Middlewares/CMSIS/DSP/Src/SVMFunctions/arm_svm_linear_predict_f32.c:448:14
	str	r0, [sp, #4]
	.loc	2 448 13 is_stmt 0              @ ../Middlewares/CMSIS/DSP/Src/SVMFunctions/arm_svm_linear_predict_f32.c:448:13
	b	.LBB1_3
.LBB1_3:                                @   Parent Loop BB1_1 Depth=1
                                        @ =>  This Inner Loop Header: Depth=2
.Ltmp8:
	.loc	2 448 18                        @ ../Middlewares/CMSIS/DSP/Src/SVMFunctions/arm_svm_linear_predict_f32.c:448:18
	ldr	r0, [sp, #4]
	.loc	2 448 22                        @ ../Middlewares/CMSIS/DSP/Src/SVMFunctions/arm_svm_linear_predict_f32.c:448:22
	ldr	r1, [sp, #28]
	.loc	2 448 25                        @ ../Middlewares/CMSIS/DSP/Src/SVMFunctions/arm_svm_linear_predict_f32.c:448:25
	ldr	r1, [r1, #4]
.Ltmp9:
	.loc	2 448 9                         @ ../Middlewares/CMSIS/DSP/Src/SVMFunctions/arm_svm_linear_predict_f32.c:448:9
	cmp	r0, r1
	bhs	.LBB1_6
	b	.LBB1_4
.LBB1_4:                                @   in Loop: Header=BB1_3 Depth=2
.Ltmp10:
	.loc	2 450 19 is_stmt 1              @ ../Middlewares/CMSIS/DSP/Src/SVMFunctions/arm_svm_linear_predict_f32.c:450:19
	vldr	s2, [sp, #12]
	.loc	2 450 25 is_stmt 0              @ ../Middlewares/CMSIS/DSP/Src/SVMFunctions/arm_svm_linear_predict_f32.c:450:25
	ldr	r0, [sp, #24]
	.loc	2 450 28                        @ ../Middlewares/CMSIS/DSP/Src/SVMFunctions/arm_svm_linear_predict_f32.c:450:28
	ldr	r1, [sp, #4]
	.loc	2 450 25                        @ ../Middlewares/CMSIS/DSP/Src/SVMFunctions/arm_svm_linear_predict_f32.c:450:25
	add.w	r0, r0, r1, lsl #2
	vldr	s0, [r0]
	.loc	2 450 41                        @ ../Middlewares/CMSIS/DSP/Src/SVMFunctions/arm_svm_linear_predict_f32.c:450:41
	ldr	r0, [sp]
	adds	r1, r0, #4
	str	r1, [sp]
	.loc	2 450 32                        @ ../Middlewares/CMSIS/DSP/Src/SVMFunctions/arm_svm_linear_predict_f32.c:450:32
	vldr	s4, [r0]
	.loc	2 450 23                        @ ../Middlewares/CMSIS/DSP/Src/SVMFunctions/arm_svm_linear_predict_f32.c:450:23
	vmul.f32	s0, s0, s4
	vadd.f32	s0, s0, s2
	.loc	2 450 17                        @ ../Middlewares/CMSIS/DSP/Src/SVMFunctions/arm_svm_linear_predict_f32.c:450:17
	vstr	s0, [sp, #12]
	.loc	2 451 9 is_stmt 1               @ ../Middlewares/CMSIS/DSP/Src/SVMFunctions/arm_svm_linear_predict_f32.c:451:9
	b	.LBB1_5
.Ltmp11:
.LBB1_5:                                @   in Loop: Header=BB1_3 Depth=2
	.loc	2 448 43                        @ ../Middlewares/CMSIS/DSP/Src/SVMFunctions/arm_svm_linear_predict_f32.c:448:43
	ldr	r0, [sp, #4]
	adds	r0, #1
	str	r0, [sp, #4]
	.loc	2 448 9 is_stmt 0               @ ../Middlewares/CMSIS/DSP/Src/SVMFunctions/arm_svm_linear_predict_f32.c:448:9
	b	.LBB1_3
.Ltmp12:
.LBB1_6:                                @   in Loop: Header=BB1_1 Depth=1
	.loc	2 452 16 is_stmt 1              @ ../Middlewares/CMSIS/DSP/Src/SVMFunctions/arm_svm_linear_predict_f32.c:452:16
	ldr	r0, [sp, #28]
	.loc	2 452 19 is_stmt 0              @ ../Middlewares/CMSIS/DSP/Src/SVMFunctions/arm_svm_linear_predict_f32.c:452:19
	ldr	r0, [r0, #12]
	.loc	2 452 36                        @ ../Middlewares/CMSIS/DSP/Src/SVMFunctions/arm_svm_linear_predict_f32.c:452:36
	ldr	r1, [sp, #8]
	.loc	2 452 16                        @ ../Middlewares/CMSIS/DSP/Src/SVMFunctions/arm_svm_linear_predict_f32.c:452:16
	add.w	r0, r0, r1, lsl #2
	vldr	s0, [r0]
	.loc	2 452 41                        @ ../Middlewares/CMSIS/DSP/Src/SVMFunctions/arm_svm_linear_predict_f32.c:452:41
	vldr	s4, [sp, #12]
	.loc	2 452 13                        @ ../Middlewares/CMSIS/DSP/Src/SVMFunctions/arm_svm_linear_predict_f32.c:452:13
	vldr	s2, [sp, #16]
	vmul.f32	s0, s0, s4
	vadd.f32	s0, s0, s2
	vstr	s0, [sp, #16]
	.loc	2 453 5 is_stmt 1               @ ../Middlewares/CMSIS/DSP/Src/SVMFunctions/arm_svm_linear_predict_f32.c:453:5
	b	.LBB1_7
.Ltmp13:
.LBB1_7:                                @   in Loop: Header=BB1_1 Depth=1
	.loc	2 445 42                        @ ../Middlewares/CMSIS/DSP/Src/SVMFunctions/arm_svm_linear_predict_f32.c:445:42
	ldr	r0, [sp, #8]
	adds	r0, #1
	str	r0, [sp, #8]
	.loc	2 445 5 is_stmt 0               @ ../Middlewares/CMSIS/DSP/Src/SVMFunctions/arm_svm_linear_predict_f32.c:445:5
	b	.LBB1_1
.Ltmp14:
.LBB1_8:
	.loc	2 454 14 is_stmt 1              @ ../Middlewares/CMSIS/DSP/Src/SVMFunctions/arm_svm_linear_predict_f32.c:454:14
	ldr	r0, [sp, #28]
	.loc	2 454 17 is_stmt 0              @ ../Middlewares/CMSIS/DSP/Src/SVMFunctions/arm_svm_linear_predict_f32.c:454:17
	ldr	r1, [r0, #20]
	.loc	2 454 26                        @ ../Middlewares/CMSIS/DSP/Src/SVMFunctions/arm_svm_linear_predict_f32.c:454:26
	vldr	s0, [sp, #16]
	.loc	2 454 14                        @ ../Middlewares/CMSIS/DSP/Src/SVMFunctions/arm_svm_linear_predict_f32.c:454:14
	adds	r0, r1, #4
	vcmp.f32	s0, #0
	vmrs	APSR_nzcv, fpscr
	it	le
	movle	r0, r1
	ldr	r0, [r0]
	.loc	2 454 6                         @ ../Middlewares/CMSIS/DSP/Src/SVMFunctions/arm_svm_linear_predict_f32.c:454:6
	ldr	r1, [sp, #20]
	.loc	2 454 13                        @ ../Middlewares/CMSIS/DSP/Src/SVMFunctions/arm_svm_linear_predict_f32.c:454:13
	str	r0, [r1]
	.loc	2 455 1 is_stmt 1               @ ../Middlewares/CMSIS/DSP/Src/SVMFunctions/arm_svm_linear_predict_f32.c:455:1
	add	sp, #32
	bx	lr
.Ltmp15:
.Lfunc_end1:
	.size	arm_svm_linear_predict_f32, .Lfunc_end1-arm_svm_linear_predict_f32
	.cfi_endproc
	.cantunwind
	.fnend
                                        @ -- End function
	.section	.text.arm_svm_polynomial_init_f32,"ax",%progbits
	.hidden	arm_svm_polynomial_init_f32     @ -- Begin function arm_svm_polynomial_init_f32
	.globl	arm_svm_polynomial_init_f32
	.p2align	2
	.type	arm_svm_polynomial_init_f32,%function
	.code	16                              @ @arm_svm_polynomial_init_f32
	.thumb_func
arm_svm_polynomial_init_f32:
.Lfunc_begin2:
	.file	3 "D:\\horizon\\Horizon_Infantry (2)\\MDK-ARM" "../Middlewares/CMSIS/DSP/Src/SVMFunctions/arm_svm_polynomial_init_f32.c"
	.loc	3 81 0                          @ ../Middlewares/CMSIS/DSP/Src/SVMFunctions/arm_svm_polynomial_init_f32.c:81:0
	.fnstart
	.cfi_startproc
@ %bb.0:
	.pad	#28
	sub	sp, #28
	.cfi_def_cfa_offset 28
	ldr.w	r12, [sp, #36]
	ldr.w	r12, [sp, #32]
	ldr.w	r12, [sp, #28]
	str	r0, [sp, #24]
	str	r1, [sp, #20]
	str	r2, [sp, #16]
	vstr	s0, [sp, #12]
	str	r3, [sp, #8]
	vstr	s1, [sp, #4]
	vstr	s2, [sp]
.Ltmp16:
	.loc	3 82 28 prologue_end            @ ../Middlewares/CMSIS/DSP/Src/SVMFunctions/arm_svm_polynomial_init_f32.c:82:28
	ldr	r0, [sp, #20]
	.loc	3 82 4 is_stmt 0                @ ../Middlewares/CMSIS/DSP/Src/SVMFunctions/arm_svm_polynomial_init_f32.c:82:4
	ldr	r1, [sp, #24]
	.loc	3 82 26                         @ ../Middlewares/CMSIS/DSP/Src/SVMFunctions/arm_svm_polynomial_init_f32.c:82:26
	str	r0, [r1]
	.loc	3 83 25 is_stmt 1               @ ../Middlewares/CMSIS/DSP/Src/SVMFunctions/arm_svm_polynomial_init_f32.c:83:25
	ldr	r0, [sp, #16]
	.loc	3 83 4 is_stmt 0                @ ../Middlewares/CMSIS/DSP/Src/SVMFunctions/arm_svm_polynomial_init_f32.c:83:4
	ldr	r1, [sp, #24]
	.loc	3 83 23                         @ ../Middlewares/CMSIS/DSP/Src/SVMFunctions/arm_svm_polynomial_init_f32.c:83:23
	str	r0, [r1, #4]
	.loc	3 84 19 is_stmt 1               @ ../Middlewares/CMSIS/DSP/Src/SVMFunctions/arm_svm_polynomial_init_f32.c:84:19
	ldr	r0, [sp, #12]
	.loc	3 84 4 is_stmt 0                @ ../Middlewares/CMSIS/DSP/Src/SVMFunctions/arm_svm_polynomial_init_f32.c:84:4
	ldr	r1, [sp, #24]
	.loc	3 84 17                         @ ../Middlewares/CMSIS/DSP/Src/SVMFunctions/arm_svm_polynomial_init_f32.c:84:17
	str	r0, [r1, #8]
	.loc	3 85 26 is_stmt 1               @ ../Middlewares/CMSIS/DSP/Src/SVMFunctions/arm_svm_polynomial_init_f32.c:85:26
	ldr	r0, [sp, #8]
	.loc	3 85 4 is_stmt 0                @ ../Middlewares/CMSIS/DSP/Src/SVMFunctions/arm_svm_polynomial_init_f32.c:85:4
	ldr	r1, [sp, #24]
	.loc	3 85 24                         @ ../Middlewares/CMSIS/DSP/Src/SVMFunctions/arm_svm_polynomial_init_f32.c:85:24
	str	r0, [r1, #12]
	.loc	3 86 24 is_stmt 1               @ ../Middlewares/CMSIS/DSP/Src/SVMFunctions/arm_svm_polynomial_init_f32.c:86:24
	ldr	r0, [sp, #28]
	.loc	3 86 4 is_stmt 0                @ ../Middlewares/CMSIS/DSP/Src/SVMFunctions/arm_svm_polynomial_init_f32.c:86:4
	ldr	r1, [sp, #24]
	.loc	3 86 22                         @ ../Middlewares/CMSIS/DSP/Src/SVMFunctions/arm_svm_polynomial_init_f32.c:86:22
	str	r0, [r1, #16]
	.loc	3 87 17 is_stmt 1               @ ../Middlewares/CMSIS/DSP/Src/SVMFunctions/arm_svm_polynomial_init_f32.c:87:17
	ldr	r0, [sp, #32]
	.loc	3 87 4 is_stmt 0                @ ../Middlewares/CMSIS/DSP/Src/SVMFunctions/arm_svm_polynomial_init_f32.c:87:4
	ldr	r1, [sp, #24]
	.loc	3 87 15                         @ ../Middlewares/CMSIS/DSP/Src/SVMFunctions/arm_svm_polynomial_init_f32.c:87:15
	str	r0, [r1, #20]
	.loc	3 88 16 is_stmt 1               @ ../Middlewares/CMSIS/DSP/Src/SVMFunctions/arm_svm_polynomial_init_f32.c:88:16
	ldr	r0, [sp, #36]
	.loc	3 88 4 is_stmt 0                @ ../Middlewares/CMSIS/DSP/Src/SVMFunctions/arm_svm_polynomial_init_f32.c:88:4
	ldr	r1, [sp, #24]
	.loc	3 88 14                         @ ../Middlewares/CMSIS/DSP/Src/SVMFunctions/arm_svm_polynomial_init_f32.c:88:14
	str	r0, [r1, #24]
	.loc	3 89 15 is_stmt 1               @ ../Middlewares/CMSIS/DSP/Src/SVMFunctions/arm_svm_polynomial_init_f32.c:89:15
	ldr	r0, [sp, #4]
	.loc	3 89 4 is_stmt 0                @ ../Middlewares/CMSIS/DSP/Src/SVMFunctions/arm_svm_polynomial_init_f32.c:89:4
	ldr	r1, [sp, #24]
	.loc	3 89 13                         @ ../Middlewares/CMSIS/DSP/Src/SVMFunctions/arm_svm_polynomial_init_f32.c:89:13
	str	r0, [r1, #28]
	.loc	3 90 15 is_stmt 1               @ ../Middlewares/CMSIS/DSP/Src/SVMFunctions/arm_svm_polynomial_init_f32.c:90:15
	ldr	r0, [sp]
	.loc	3 90 4 is_stmt 0                @ ../Middlewares/CMSIS/DSP/Src/SVMFunctions/arm_svm_polynomial_init_f32.c:90:4
	ldr	r1, [sp, #24]
	.loc	3 90 13                         @ ../Middlewares/CMSIS/DSP/Src/SVMFunctions/arm_svm_polynomial_init_f32.c:90:13
	str	r0, [r1, #32]
	.loc	3 91 1 is_stmt 1                @ ../Middlewares/CMSIS/DSP/Src/SVMFunctions/arm_svm_polynomial_init_f32.c:91:1
	add	sp, #28
	bx	lr
.Ltmp17:
.Lfunc_end2:
	.size	arm_svm_polynomial_init_f32, .Lfunc_end2-arm_svm_polynomial_init_f32
	.cfi_endproc
	.cantunwind
	.fnend
                                        @ -- End function
	.section	.text.arm_svm_polynomial_predict_f32,"ax",%progbits
	.hidden	arm_svm_polynomial_predict_f32  @ -- Begin function arm_svm_polynomial_predict_f32
	.globl	arm_svm_polynomial_predict_f32
	.p2align	2
	.type	arm_svm_polynomial_predict_f32,%function
	.code	16                              @ @arm_svm_polynomial_predict_f32
	.thumb_func
arm_svm_polynomial_predict_f32:
.Lfunc_begin3:
	.file	4 "D:\\horizon\\Horizon_Infantry (2)\\MDK-ARM" "../Middlewares/CMSIS/DSP/Src/SVMFunctions/arm_svm_polynomial_predict_f32.c"
	.loc	4 466 0                         @ ../Middlewares/CMSIS/DSP/Src/SVMFunctions/arm_svm_polynomial_predict_f32.c:466:0
	.fnstart
	.cfi_startproc
@ %bb.0:
	.save	{r7, lr}
	push	{r7, lr}
	.cfi_def_cfa_offset 8
	.cfi_offset lr, -4
	.cfi_offset r7, -8
	.pad	#40
	sub	sp, #40
	.cfi_def_cfa_offset 48
	str	r0, [sp, #36]
	str	r1, [sp, #32]
	str	r2, [sp, #28]
.Ltmp18:
	.loc	4 467 19 prologue_end           @ ../Middlewares/CMSIS/DSP/Src/SVMFunctions/arm_svm_polynomial_predict_f32.c:467:19
	ldr	r0, [sp, #36]
	.loc	4 467 22 is_stmt 0              @ ../Middlewares/CMSIS/DSP/Src/SVMFunctions/arm_svm_polynomial_predict_f32.c:467:22
	ldr	r0, [r0, #8]
	.loc	4 467 15                        @ ../Middlewares/CMSIS/DSP/Src/SVMFunctions/arm_svm_polynomial_predict_f32.c:467:15
	str	r0, [sp, #24]
	movs	r0, #0
	.loc	4 468 15 is_stmt 1              @ ../Middlewares/CMSIS/DSP/Src/SVMFunctions/arm_svm_polynomial_predict_f32.c:468:15
	str	r0, [sp, #20]
	.loc	4 470 33                        @ ../Middlewares/CMSIS/DSP/Src/SVMFunctions/arm_svm_polynomial_predict_f32.c:470:33
	ldr	r1, [sp, #36]
	.loc	4 470 36 is_stmt 0              @ ../Middlewares/CMSIS/DSP/Src/SVMFunctions/arm_svm_polynomial_predict_f32.c:470:36
	ldr	r1, [r1, #16]
	.loc	4 470 22                        @ ../Middlewares/CMSIS/DSP/Src/SVMFunctions/arm_svm_polynomial_predict_f32.c:470:22
	str	r1, [sp, #8]
.Ltmp19:
	.loc	4 472 10 is_stmt 1              @ ../Middlewares/CMSIS/DSP/Src/SVMFunctions/arm_svm_polynomial_predict_f32.c:472:10
	str	r0, [sp, #16]
	.loc	4 472 9 is_stmt 0               @ ../Middlewares/CMSIS/DSP/Src/SVMFunctions/arm_svm_polynomial_predict_f32.c:472:9
	b	.LBB3_1
.LBB3_1:                                @ =>This Loop Header: Depth=1
                                        @     Child Loop BB3_3 Depth 2
.Ltmp20:
	.loc	4 472 14                        @ ../Middlewares/CMSIS/DSP/Src/SVMFunctions/arm_svm_polynomial_predict_f32.c:472:14
	ldr	r0, [sp, #16]
	.loc	4 472 18                        @ ../Middlewares/CMSIS/DSP/Src/SVMFunctions/arm_svm_polynomial_predict_f32.c:472:18
	ldr	r1, [sp, #36]
	.loc	4 472 21                        @ ../Middlewares/CMSIS/DSP/Src/SVMFunctions/arm_svm_polynomial_predict_f32.c:472:21
	ldr	r1, [r1]
.Ltmp21:
	.loc	4 472 5                         @ ../Middlewares/CMSIS/DSP/Src/SVMFunctions/arm_svm_polynomial_predict_f32.c:472:5
	cmp	r0, r1
	bhs	.LBB3_8
	b	.LBB3_2
.LBB3_2:                                @   in Loop: Header=BB3_1 Depth=1
	.loc	4 0 5                           @ ../Middlewares/CMSIS/DSP/Src/SVMFunctions/arm_svm_polynomial_predict_f32.c:0:5
	movs	r0, #0
.Ltmp22:
	.loc	4 474 12 is_stmt 1              @ ../Middlewares/CMSIS/DSP/Src/SVMFunctions/arm_svm_polynomial_predict_f32.c:474:12
	str	r0, [sp, #20]
.Ltmp23:
	.loc	4 475 14                        @ ../Middlewares/CMSIS/DSP/Src/SVMFunctions/arm_svm_polynomial_predict_f32.c:475:14
	str	r0, [sp, #12]
	.loc	4 475 13 is_stmt 0              @ ../Middlewares/CMSIS/DSP/Src/SVMFunctions/arm_svm_polynomial_predict_f32.c:475:13
	b	.LBB3_3
.LBB3_3:                                @   Parent Loop BB3_1 Depth=1
                                        @ =>  This Inner Loop Header: Depth=2
.Ltmp24:
	.loc	4 475 18                        @ ../Middlewares/CMSIS/DSP/Src/SVMFunctions/arm_svm_polynomial_predict_f32.c:475:18
	ldr	r0, [sp, #12]
	.loc	4 475 22                        @ ../Middlewares/CMSIS/DSP/Src/SVMFunctions/arm_svm_polynomial_predict_f32.c:475:22
	ldr	r1, [sp, #36]
	.loc	4 475 25                        @ ../Middlewares/CMSIS/DSP/Src/SVMFunctions/arm_svm_polynomial_predict_f32.c:475:25
	ldr	r1, [r1, #4]
.Ltmp25:
	.loc	4 475 9                         @ ../Middlewares/CMSIS/DSP/Src/SVMFunctions/arm_svm_polynomial_predict_f32.c:475:9
	cmp	r0, r1
	bhs	.LBB3_6
	b	.LBB3_4
.LBB3_4:                                @   in Loop: Header=BB3_3 Depth=2
.Ltmp26:
	.loc	4 477 19 is_stmt 1              @ ../Middlewares/CMSIS/DSP/Src/SVMFunctions/arm_svm_polynomial_predict_f32.c:477:19
	vldr	s2, [sp, #20]
	.loc	4 477 25 is_stmt 0              @ ../Middlewares/CMSIS/DSP/Src/SVMFunctions/arm_svm_polynomial_predict_f32.c:477:25
	ldr	r0, [sp, #32]
	.loc	4 477 28                        @ ../Middlewares/CMSIS/DSP/Src/SVMFunctions/arm_svm_polynomial_predict_f32.c:477:28
	ldr	r1, [sp, #12]
	.loc	4 477 25                        @ ../Middlewares/CMSIS/DSP/Src/SVMFunctions/arm_svm_polynomial_predict_f32.c:477:25
	add.w	r0, r0, r1, lsl #2
	vldr	s0, [r0]
	.loc	4 477 41                        @ ../Middlewares/CMSIS/DSP/Src/SVMFunctions/arm_svm_polynomial_predict_f32.c:477:41
	ldr	r0, [sp, #8]
	adds	r1, r0, #4
	str	r1, [sp, #8]
	.loc	4 477 32                        @ ../Middlewares/CMSIS/DSP/Src/SVMFunctions/arm_svm_polynomial_predict_f32.c:477:32
	vldr	s4, [r0]
	.loc	4 477 23                        @ ../Middlewares/CMSIS/DSP/Src/SVMFunctions/arm_svm_polynomial_predict_f32.c:477:23
	vmul.f32	s0, s0, s4
	vadd.f32	s0, s0, s2
	.loc	4 477 17                        @ ../Middlewares/CMSIS/DSP/Src/SVMFunctions/arm_svm_polynomial_predict_f32.c:477:17
	vstr	s0, [sp, #20]
	.loc	4 478 9 is_stmt 1               @ ../Middlewares/CMSIS/DSP/Src/SVMFunctions/arm_svm_polynomial_predict_f32.c:478:9
	b	.LBB3_5
.Ltmp27:
.LBB3_5:                                @   in Loop: Header=BB3_3 Depth=2
	.loc	4 475 43                        @ ../Middlewares/CMSIS/DSP/Src/SVMFunctions/arm_svm_polynomial_predict_f32.c:475:43
	ldr	r0, [sp, #12]
	adds	r0, #1
	str	r0, [sp, #12]
	.loc	4 475 9 is_stmt 0               @ ../Middlewares/CMSIS/DSP/Src/SVMFunctions/arm_svm_polynomial_predict_f32.c:475:9
	b	.LBB3_3
.Ltmp28:
.LBB3_6:                                @   in Loop: Header=BB3_1 Depth=1
	.loc	4 479 16 is_stmt 1              @ ../Middlewares/CMSIS/DSP/Src/SVMFunctions/arm_svm_polynomial_predict_f32.c:479:16
	ldr	r0, [sp, #36]
	.loc	4 479 19 is_stmt 0              @ ../Middlewares/CMSIS/DSP/Src/SVMFunctions/arm_svm_polynomial_predict_f32.c:479:19
	ldr	r1, [r0, #12]
	.loc	4 479 36                        @ ../Middlewares/CMSIS/DSP/Src/SVMFunctions/arm_svm_polynomial_predict_f32.c:479:36
	ldr	r2, [sp, #16]
	.loc	4 479 16                        @ ../Middlewares/CMSIS/DSP/Src/SVMFunctions/arm_svm_polynomial_predict_f32.c:479:16
	add.w	r1, r1, r2, lsl #2
	vldr	s0, [r1]
	vstr	s0, [sp, #4]                    @ 4-byte Spill
	.loc	4 479 78                        @ ../Middlewares/CMSIS/DSP/Src/SVMFunctions/arm_svm_polynomial_predict_f32.c:479:78
	vldr	s2, [r0, #28]
	.loc	4 479 61                        @ ../Middlewares/CMSIS/DSP/Src/SVMFunctions/arm_svm_polynomial_predict_f32.c:479:61
	vldr	s0, [r0, #32]
	.loc	4 479 69                        @ ../Middlewares/CMSIS/DSP/Src/SVMFunctions/arm_svm_polynomial_predict_f32.c:479:69
	vldr	s4, [sp, #20]
	.loc	4 479 73                        @ ../Middlewares/CMSIS/DSP/Src/SVMFunctions/arm_svm_polynomial_predict_f32.c:479:73
	vmul.f32	s0, s0, s4
	vadd.f32	s0, s0, s2
	.loc	4 479 88                        @ ../Middlewares/CMSIS/DSP/Src/SVMFunctions/arm_svm_polynomial_predict_f32.c:479:88
	ldr	r0, [r0, #24]
	.loc	4 479 41                        @ ../Middlewares/CMSIS/DSP/Src/SVMFunctions/arm_svm_polynomial_predict_f32.c:479:41
	bl	arm_exponent_f32
	vmov.f32	s4, s0
	.loc	4 479 13                        @ ../Middlewares/CMSIS/DSP/Src/SVMFunctions/arm_svm_polynomial_predict_f32.c:479:13
	vldr	s0, [sp, #4]                    @ 4-byte Reload
	vldr	s2, [sp, #24]
	vmul.f32	s0, s0, s4
	vadd.f32	s0, s0, s2
	vstr	s0, [sp, #24]
	.loc	4 480 5 is_stmt 1               @ ../Middlewares/CMSIS/DSP/Src/SVMFunctions/arm_svm_polynomial_predict_f32.c:480:5
	b	.LBB3_7
.Ltmp29:
.LBB3_7:                                @   in Loop: Header=BB3_1 Depth=1
	.loc	4 472 42                        @ ../Middlewares/CMSIS/DSP/Src/SVMFunctions/arm_svm_polynomial_predict_f32.c:472:42
	ldr	r0, [sp, #16]
	adds	r0, #1
	str	r0, [sp, #16]
	.loc	4 472 5 is_stmt 0               @ ../Middlewares/CMSIS/DSP/Src/SVMFunctions/arm_svm_polynomial_predict_f32.c:472:5
	b	.LBB3_1
.Ltmp30:
.LBB3_8:
	.loc	4 482 14 is_stmt 1              @ ../Middlewares/CMSIS/DSP/Src/SVMFunctions/arm_svm_polynomial_predict_f32.c:482:14
	ldr	r0, [sp, #36]
	.loc	4 482 17 is_stmt 0              @ ../Middlewares/CMSIS/DSP/Src/SVMFunctions/arm_svm_polynomial_predict_f32.c:482:17
	ldr	r1, [r0, #20]
	.loc	4 482 26                        @ ../Middlewares/CMSIS/DSP/Src/SVMFunctions/arm_svm_polynomial_predict_f32.c:482:26
	vldr	s0, [sp, #24]
	.loc	4 482 14                        @ ../Middlewares/CMSIS/DSP/Src/SVMFunctions/arm_svm_polynomial_predict_f32.c:482:14
	adds	r0, r1, #4
	vcmp.f32	s0, #0
	vmrs	APSR_nzcv, fpscr
	it	le
	movle	r0, r1
	ldr	r0, [r0]
	.loc	4 482 6                         @ ../Middlewares/CMSIS/DSP/Src/SVMFunctions/arm_svm_polynomial_predict_f32.c:482:6
	ldr	r1, [sp, #28]
	.loc	4 482 13                        @ ../Middlewares/CMSIS/DSP/Src/SVMFunctions/arm_svm_polynomial_predict_f32.c:482:13
	str	r0, [r1]
	.loc	4 483 1 is_stmt 1               @ ../Middlewares/CMSIS/DSP/Src/SVMFunctions/arm_svm_polynomial_predict_f32.c:483:1
	add	sp, #40
	pop	{r7, pc}
.Ltmp31:
.Lfunc_end3:
	.size	arm_svm_polynomial_predict_f32, .Lfunc_end3-arm_svm_polynomial_predict_f32
	.cfi_endproc
	.cantunwind
	.fnend
                                        @ -- End function
	.section	.text.arm_exponent_f32,"ax",%progbits
	.p2align	2                               @ -- Begin function arm_exponent_f32
	.type	arm_exponent_f32,%function
	.code	16                              @ @arm_exponent_f32
	.thumb_func
arm_exponent_f32:
.Lfunc_begin4:
	.file	5 "D:\\horizon\\Horizon_Infantry (2)\\MDK-ARM" "../Middlewares/CMSIS/DSP/Inc\\dsp/svm_functions.h"
	.loc	5 66 0                          @ ../Middlewares/CMSIS/DSP/Inc\dsp/svm_functions.h:66:0
	.fnstart
	.cfi_startproc
@ %bb.0:
	.pad	#12
	sub	sp, #12
	.cfi_def_cfa_offset 12
	vstr	s0, [sp, #8]
	str	r0, [sp, #4]
.Ltmp32:
	.loc	5 67 19 prologue_end            @ ../Middlewares/CMSIS/DSP/Inc\dsp/svm_functions.h:67:19
	ldr	r0, [sp, #8]
	.loc	5 67 15 is_stmt 0               @ ../Middlewares/CMSIS/DSP/Inc\dsp/svm_functions.h:67:15
	str	r0, [sp]
	.loc	5 68 8 is_stmt 1                @ ../Middlewares/CMSIS/DSP/Inc\dsp/svm_functions.h:68:8
	ldr	r0, [sp, #4]
	subs	r0, #1
	str	r0, [sp, #4]
	.loc	5 69 5                          @ ../Middlewares/CMSIS/DSP/Inc\dsp/svm_functions.h:69:5
	b	.LBB4_1
.LBB4_1:                                @ =>This Inner Loop Header: Depth=1
	.loc	5 69 11 is_stmt 0               @ ../Middlewares/CMSIS/DSP/Inc\dsp/svm_functions.h:69:11
	ldr	r0, [sp, #4]
	.loc	5 69 5                          @ ../Middlewares/CMSIS/DSP/Inc\dsp/svm_functions.h:69:5
	cmp	r0, #1
	blt	.LBB4_3
	b	.LBB4_2
.LBB4_2:                                @   in Loop: Header=BB4_1 Depth=1
.Ltmp33:
	.loc	5 71 13 is_stmt 1               @ ../Middlewares/CMSIS/DSP/Inc\dsp/svm_functions.h:71:13
	vldr	s0, [sp]
	.loc	5 71 17 is_stmt 0               @ ../Middlewares/CMSIS/DSP/Inc\dsp/svm_functions.h:71:17
	vldr	s2, [sp, #8]
	.loc	5 71 15                         @ ../Middlewares/CMSIS/DSP/Inc\dsp/svm_functions.h:71:15
	vmul.f32	s0, s0, s2
	.loc	5 71 11                         @ ../Middlewares/CMSIS/DSP/Inc\dsp/svm_functions.h:71:11
	vstr	s0, [sp]
	.loc	5 72 11 is_stmt 1               @ ../Middlewares/CMSIS/DSP/Inc\dsp/svm_functions.h:72:11
	ldr	r0, [sp, #4]
	subs	r0, #1
	str	r0, [sp, #4]
.Ltmp34:
	.loc	5 69 5                          @ ../Middlewares/CMSIS/DSP/Inc\dsp/svm_functions.h:69:5
	b	.LBB4_1
.LBB4_3:
	.loc	5 74 12                         @ ../Middlewares/CMSIS/DSP/Inc\dsp/svm_functions.h:74:12
	vldr	s0, [sp]
	.loc	5 74 5 is_stmt 0                @ ../Middlewares/CMSIS/DSP/Inc\dsp/svm_functions.h:74:5
	add	sp, #12
	bx	lr
.Ltmp35:
.Lfunc_end4:
	.size	arm_exponent_f32, .Lfunc_end4-arm_exponent_f32
	.cfi_endproc
	.cantunwind
	.fnend
                                        @ -- End function
	.section	.text.arm_svm_rbf_init_f32,"ax",%progbits
	.hidden	arm_svm_rbf_init_f32            @ -- Begin function arm_svm_rbf_init_f32
	.globl	arm_svm_rbf_init_f32
	.p2align	2
	.type	arm_svm_rbf_init_f32,%function
	.code	16                              @ @arm_svm_rbf_init_f32
	.thumb_func
arm_svm_rbf_init_f32:
.Lfunc_begin5:
	.file	6 "D:\\horizon\\Horizon_Infantry (2)\\MDK-ARM" "../Middlewares/CMSIS/DSP/Src/SVMFunctions/arm_svm_rbf_init_f32.c"
	.loc	6 77 0 is_stmt 1                @ ../Middlewares/CMSIS/DSP/Src/SVMFunctions/arm_svm_rbf_init_f32.c:77:0
	.fnstart
	.cfi_startproc
@ %bb.0:
	.pad	#24
	sub	sp, #24
	.cfi_def_cfa_offset 24
	ldr.w	r12, [sp, #28]
	ldr.w	r12, [sp, #24]
	str	r0, [sp, #20]
	str	r1, [sp, #16]
	str	r2, [sp, #12]
	vstr	s0, [sp, #8]
	str	r3, [sp, #4]
	vstr	s1, [sp]
.Ltmp36:
	.loc	6 78 28 prologue_end            @ ../Middlewares/CMSIS/DSP/Src/SVMFunctions/arm_svm_rbf_init_f32.c:78:28
	ldr	r0, [sp, #16]
	.loc	6 78 4 is_stmt 0                @ ../Middlewares/CMSIS/DSP/Src/SVMFunctions/arm_svm_rbf_init_f32.c:78:4
	ldr	r1, [sp, #20]
	.loc	6 78 26                         @ ../Middlewares/CMSIS/DSP/Src/SVMFunctions/arm_svm_rbf_init_f32.c:78:26
	str	r0, [r1]
	.loc	6 79 25 is_stmt 1               @ ../Middlewares/CMSIS/DSP/Src/SVMFunctions/arm_svm_rbf_init_f32.c:79:25
	ldr	r0, [sp, #12]
	.loc	6 79 4 is_stmt 0                @ ../Middlewares/CMSIS/DSP/Src/SVMFunctions/arm_svm_rbf_init_f32.c:79:4
	ldr	r1, [sp, #20]
	.loc	6 79 23                         @ ../Middlewares/CMSIS/DSP/Src/SVMFunctions/arm_svm_rbf_init_f32.c:79:23
	str	r0, [r1, #4]
	.loc	6 80 19 is_stmt 1               @ ../Middlewares/CMSIS/DSP/Src/SVMFunctions/arm_svm_rbf_init_f32.c:80:19
	ldr	r0, [sp, #8]
	.loc	6 80 4 is_stmt 0                @ ../Middlewares/CMSIS/DSP/Src/SVMFunctions/arm_svm_rbf_init_f32.c:80:4
	ldr	r1, [sp, #20]
	.loc	6 80 17                         @ ../Middlewares/CMSIS/DSP/Src/SVMFunctions/arm_svm_rbf_init_f32.c:80:17
	str	r0, [r1, #8]
	.loc	6 81 26 is_stmt 1               @ ../Middlewares/CMSIS/DSP/Src/SVMFunctions/arm_svm_rbf_init_f32.c:81:26
	ldr	r0, [sp, #4]
	.loc	6 81 4 is_stmt 0                @ ../Middlewares/CMSIS/DSP/Src/SVMFunctions/arm_svm_rbf_init_f32.c:81:4
	ldr	r1, [sp, #20]
	.loc	6 81 24                         @ ../Middlewares/CMSIS/DSP/Src/SVMFunctions/arm_svm_rbf_init_f32.c:81:24
	str	r0, [r1, #12]
	.loc	6 82 24 is_stmt 1               @ ../Middlewares/CMSIS/DSP/Src/SVMFunctions/arm_svm_rbf_init_f32.c:82:24
	ldr	r0, [sp, #24]
	.loc	6 82 4 is_stmt 0                @ ../Middlewares/CMSIS/DSP/Src/SVMFunctions/arm_svm_rbf_init_f32.c:82:4
	ldr	r1, [sp, #20]
	.loc	6 82 22                         @ ../Middlewares/CMSIS/DSP/Src/SVMFunctions/arm_svm_rbf_init_f32.c:82:22
	str	r0, [r1, #16]
	.loc	6 83 17 is_stmt 1               @ ../Middlewares/CMSIS/DSP/Src/SVMFunctions/arm_svm_rbf_init_f32.c:83:17
	ldr	r0, [sp, #28]
	.loc	6 83 4 is_stmt 0                @ ../Middlewares/CMSIS/DSP/Src/SVMFunctions/arm_svm_rbf_init_f32.c:83:4
	ldr	r1, [sp, #20]
	.loc	6 83 15                         @ ../Middlewares/CMSIS/DSP/Src/SVMFunctions/arm_svm_rbf_init_f32.c:83:15
	str	r0, [r1, #20]
	.loc	6 84 15 is_stmt 1               @ ../Middlewares/CMSIS/DSP/Src/SVMFunctions/arm_svm_rbf_init_f32.c:84:15
	ldr	r0, [sp]
	.loc	6 84 4 is_stmt 0                @ ../Middlewares/CMSIS/DSP/Src/SVMFunctions/arm_svm_rbf_init_f32.c:84:4
	ldr	r1, [sp, #20]
	.loc	6 84 13                         @ ../Middlewares/CMSIS/DSP/Src/SVMFunctions/arm_svm_rbf_init_f32.c:84:13
	str	r0, [r1, #24]
	.loc	6 85 1 is_stmt 1                @ ../Middlewares/CMSIS/DSP/Src/SVMFunctions/arm_svm_rbf_init_f32.c:85:1
	add	sp, #24
	bx	lr
.Ltmp37:
.Lfunc_end5:
	.size	arm_svm_rbf_init_f32, .Lfunc_end5-arm_svm_rbf_init_f32
	.cfi_endproc
	.cantunwind
	.fnend
                                        @ -- End function
	.section	.text.arm_svm_rbf_predict_f32,"ax",%progbits
	.hidden	arm_svm_rbf_predict_f32         @ -- Begin function arm_svm_rbf_predict_f32
	.globl	arm_svm_rbf_predict_f32
	.p2align	2
	.type	arm_svm_rbf_predict_f32,%function
	.code	16                              @ @arm_svm_rbf_predict_f32
	.thumb_func
arm_svm_rbf_predict_f32:
.Lfunc_begin6:
	.file	7 "D:\\horizon\\Horizon_Infantry (2)\\MDK-ARM" "../Middlewares/CMSIS/DSP/Src/SVMFunctions/arm_svm_rbf_predict_f32.c"
	.loc	7 499 0                         @ ../Middlewares/CMSIS/DSP/Src/SVMFunctions/arm_svm_rbf_predict_f32.c:499:0
	.fnstart
	.cfi_startproc
@ %bb.0:
	.save	{r7, lr}
	push	{r7, lr}
	.cfi_def_cfa_offset 8
	.cfi_offset lr, -4
	.cfi_offset r7, -8
	.pad	#40
	sub	sp, #40
	.cfi_def_cfa_offset 48
	str	r0, [sp, #36]
	str	r1, [sp, #32]
	str	r2, [sp, #28]
.Ltmp38:
	.loc	7 500 19 prologue_end           @ ../Middlewares/CMSIS/DSP/Src/SVMFunctions/arm_svm_rbf_predict_f32.c:500:19
	ldr	r0, [sp, #36]
	.loc	7 500 22 is_stmt 0              @ ../Middlewares/CMSIS/DSP/Src/SVMFunctions/arm_svm_rbf_predict_f32.c:500:22
	ldr	r0, [r0, #8]
	.loc	7 500 15                        @ ../Middlewares/CMSIS/DSP/Src/SVMFunctions/arm_svm_rbf_predict_f32.c:500:15
	str	r0, [sp, #24]
	movs	r0, #0
	.loc	7 501 15 is_stmt 1              @ ../Middlewares/CMSIS/DSP/Src/SVMFunctions/arm_svm_rbf_predict_f32.c:501:15
	str	r0, [sp, #20]
	.loc	7 503 33                        @ ../Middlewares/CMSIS/DSP/Src/SVMFunctions/arm_svm_rbf_predict_f32.c:503:33
	ldr	r1, [sp, #36]
	.loc	7 503 36 is_stmt 0              @ ../Middlewares/CMSIS/DSP/Src/SVMFunctions/arm_svm_rbf_predict_f32.c:503:36
	ldr	r1, [r1, #16]
	.loc	7 503 22                        @ ../Middlewares/CMSIS/DSP/Src/SVMFunctions/arm_svm_rbf_predict_f32.c:503:22
	str	r1, [sp, #8]
.Ltmp39:
	.loc	7 505 10 is_stmt 1              @ ../Middlewares/CMSIS/DSP/Src/SVMFunctions/arm_svm_rbf_predict_f32.c:505:10
	str	r0, [sp, #16]
	.loc	7 505 9 is_stmt 0               @ ../Middlewares/CMSIS/DSP/Src/SVMFunctions/arm_svm_rbf_predict_f32.c:505:9
	b	.LBB6_1
.LBB6_1:                                @ =>This Loop Header: Depth=1
                                        @     Child Loop BB6_3 Depth 2
.Ltmp40:
	.loc	7 505 14                        @ ../Middlewares/CMSIS/DSP/Src/SVMFunctions/arm_svm_rbf_predict_f32.c:505:14
	ldr	r0, [sp, #16]
	.loc	7 505 18                        @ ../Middlewares/CMSIS/DSP/Src/SVMFunctions/arm_svm_rbf_predict_f32.c:505:18
	ldr	r1, [sp, #36]
	.loc	7 505 21                        @ ../Middlewares/CMSIS/DSP/Src/SVMFunctions/arm_svm_rbf_predict_f32.c:505:21
	ldr	r1, [r1]
.Ltmp41:
	.loc	7 505 5                         @ ../Middlewares/CMSIS/DSP/Src/SVMFunctions/arm_svm_rbf_predict_f32.c:505:5
	cmp	r0, r1
	bhs	.LBB6_8
	b	.LBB6_2
.LBB6_2:                                @   in Loop: Header=BB6_1 Depth=1
	.loc	7 0 5                           @ ../Middlewares/CMSIS/DSP/Src/SVMFunctions/arm_svm_rbf_predict_f32.c:0:5
	movs	r0, #0
.Ltmp42:
	.loc	7 507 12 is_stmt 1              @ ../Middlewares/CMSIS/DSP/Src/SVMFunctions/arm_svm_rbf_predict_f32.c:507:12
	str	r0, [sp, #20]
.Ltmp43:
	.loc	7 508 14                        @ ../Middlewares/CMSIS/DSP/Src/SVMFunctions/arm_svm_rbf_predict_f32.c:508:14
	str	r0, [sp, #12]
	.loc	7 508 13 is_stmt 0              @ ../Middlewares/CMSIS/DSP/Src/SVMFunctions/arm_svm_rbf_predict_f32.c:508:13
	b	.LBB6_3
.LBB6_3:                                @   Parent Loop BB6_1 Depth=1
                                        @ =>  This Inner Loop Header: Depth=2
.Ltmp44:
	.loc	7 508 18                        @ ../Middlewares/CMSIS/DSP/Src/SVMFunctions/arm_svm_rbf_predict_f32.c:508:18
	ldr	r0, [sp, #12]
	.loc	7 508 22                        @ ../Middlewares/CMSIS/DSP/Src/SVMFunctions/arm_svm_rbf_predict_f32.c:508:22
	ldr	r1, [sp, #36]
	.loc	7 508 25                        @ ../Middlewares/CMSIS/DSP/Src/SVMFunctions/arm_svm_rbf_predict_f32.c:508:25
	ldr	r1, [r1, #4]
.Ltmp45:
	.loc	7 508 9                         @ ../Middlewares/CMSIS/DSP/Src/SVMFunctions/arm_svm_rbf_predict_f32.c:508:9
	cmp	r0, r1
	bhs	.LBB6_6
	b	.LBB6_4
.LBB6_4:                                @   in Loop: Header=BB6_3 Depth=2
.Ltmp46:
	.loc	7 510 19 is_stmt 1              @ ../Middlewares/CMSIS/DSP/Src/SVMFunctions/arm_svm_rbf_predict_f32.c:510:19
	vldr	s2, [sp, #20]
	.loc	7 510 27 is_stmt 0              @ ../Middlewares/CMSIS/DSP/Src/SVMFunctions/arm_svm_rbf_predict_f32.c:510:27
	ldr	r0, [sp, #32]
	.loc	7 510 30                        @ ../Middlewares/CMSIS/DSP/Src/SVMFunctions/arm_svm_rbf_predict_f32.c:510:30
	ldr	r1, [sp, #12]
	.loc	7 510 27                        @ ../Middlewares/CMSIS/DSP/Src/SVMFunctions/arm_svm_rbf_predict_f32.c:510:27
	add.w	r0, r0, r1, lsl #2
	vldr	s0, [r0]
	.loc	7 510 36                        @ ../Middlewares/CMSIS/DSP/Src/SVMFunctions/arm_svm_rbf_predict_f32.c:510:36
	ldr	r0, [sp, #8]
	.loc	7 510 35                        @ ../Middlewares/CMSIS/DSP/Src/SVMFunctions/arm_svm_rbf_predict_f32.c:510:35
	vldr	s4, [r0]
	.loc	7 510 33                        @ ../Middlewares/CMSIS/DSP/Src/SVMFunctions/arm_svm_rbf_predict_f32.c:510:33
	vsub.f32	s0, s0, s4
	.loc	7 510 23                        @ ../Middlewares/CMSIS/DSP/Src/SVMFunctions/arm_svm_rbf_predict_f32.c:510:23
	vmul.f32	s0, s0, s0
	vadd.f32	s0, s0, s2
	.loc	7 510 17                        @ ../Middlewares/CMSIS/DSP/Src/SVMFunctions/arm_svm_rbf_predict_f32.c:510:17
	vstr	s0, [sp, #20]
	.loc	7 511 21 is_stmt 1              @ ../Middlewares/CMSIS/DSP/Src/SVMFunctions/arm_svm_rbf_predict_f32.c:511:21
	ldr	r0, [sp, #8]
	adds	r0, #4
	str	r0, [sp, #8]
	.loc	7 512 9                         @ ../Middlewares/CMSIS/DSP/Src/SVMFunctions/arm_svm_rbf_predict_f32.c:512:9
	b	.LBB6_5
.Ltmp47:
.LBB6_5:                                @   in Loop: Header=BB6_3 Depth=2
	.loc	7 508 43                        @ ../Middlewares/CMSIS/DSP/Src/SVMFunctions/arm_svm_rbf_predict_f32.c:508:43
	ldr	r0, [sp, #12]
	adds	r0, #1
	str	r0, [sp, #12]
	.loc	7 508 9 is_stmt 0               @ ../Middlewares/CMSIS/DSP/Src/SVMFunctions/arm_svm_rbf_predict_f32.c:508:9
	b	.LBB6_3
.Ltmp48:
.LBB6_6:                                @   in Loop: Header=BB6_1 Depth=1
	.loc	7 513 16 is_stmt 1              @ ../Middlewares/CMSIS/DSP/Src/SVMFunctions/arm_svm_rbf_predict_f32.c:513:16
	ldr	r0, [sp, #36]
	.loc	7 513 19 is_stmt 0              @ ../Middlewares/CMSIS/DSP/Src/SVMFunctions/arm_svm_rbf_predict_f32.c:513:19
	ldr	r1, [r0, #12]
	.loc	7 513 36                        @ ../Middlewares/CMSIS/DSP/Src/SVMFunctions/arm_svm_rbf_predict_f32.c:513:36
	ldr	r2, [sp, #16]
	.loc	7 513 16                        @ ../Middlewares/CMSIS/DSP/Src/SVMFunctions/arm_svm_rbf_predict_f32.c:513:16
	add.w	r1, r1, r2, lsl #2
	vldr	s0, [r1]
	vstr	s0, [sp, #4]                    @ 4-byte Spill
	.loc	7 513 50                        @ ../Middlewares/CMSIS/DSP/Src/SVMFunctions/arm_svm_rbf_predict_f32.c:513:50
	vldr	s0, [r0, #24]
	.loc	7 513 58                        @ ../Middlewares/CMSIS/DSP/Src/SVMFunctions/arm_svm_rbf_predict_f32.c:513:58
	vldr	s2, [sp, #20]
	.loc	7 513 56                        @ ../Middlewares/CMSIS/DSP/Src/SVMFunctions/arm_svm_rbf_predict_f32.c:513:56
	vnmul.f32	s0, s0, s2
	.loc	7 513 41                        @ ../Middlewares/CMSIS/DSP/Src/SVMFunctions/arm_svm_rbf_predict_f32.c:513:41
	bl	__hardfp_expf
	vmov.f32	s4, s0
	.loc	7 513 13                        @ ../Middlewares/CMSIS/DSP/Src/SVMFunctions/arm_svm_rbf_predict_f32.c:513:13
	vldr	s0, [sp, #4]                    @ 4-byte Reload
	vldr	s2, [sp, #24]
	vmul.f32	s0, s0, s4
	vadd.f32	s0, s0, s2
	vstr	s0, [sp, #24]
	.loc	7 514 5 is_stmt 1               @ ../Middlewares/CMSIS/DSP/Src/SVMFunctions/arm_svm_rbf_predict_f32.c:514:5
	b	.LBB6_7
.Ltmp49:
.LBB6_7:                                @   in Loop: Header=BB6_1 Depth=1
	.loc	7 505 42                        @ ../Middlewares/CMSIS/DSP/Src/SVMFunctions/arm_svm_rbf_predict_f32.c:505:42
	ldr	r0, [sp, #16]
	adds	r0, #1
	str	r0, [sp, #16]
	.loc	7 505 5 is_stmt 0               @ ../Middlewares/CMSIS/DSP/Src/SVMFunctions/arm_svm_rbf_predict_f32.c:505:5
	b	.LBB6_1
.Ltmp50:
.LBB6_8:
	.loc	7 515 14 is_stmt 1              @ ../Middlewares/CMSIS/DSP/Src/SVMFunctions/arm_svm_rbf_predict_f32.c:515:14
	ldr	r0, [sp, #36]
	.loc	7 515 17 is_stmt 0              @ ../Middlewares/CMSIS/DSP/Src/SVMFunctions/arm_svm_rbf_predict_f32.c:515:17
	ldr	r1, [r0, #20]
	.loc	7 515 26                        @ ../Middlewares/CMSIS/DSP/Src/SVMFunctions/arm_svm_rbf_predict_f32.c:515:26
	vldr	s0, [sp, #24]
	.loc	7 515 14                        @ ../Middlewares/CMSIS/DSP/Src/SVMFunctions/arm_svm_rbf_predict_f32.c:515:14
	adds	r0, r1, #4
	vcmp.f32	s0, #0
	vmrs	APSR_nzcv, fpscr
	it	le
	movle	r0, r1
	ldr	r0, [r0]
	.loc	7 515 6                         @ ../Middlewares/CMSIS/DSP/Src/SVMFunctions/arm_svm_rbf_predict_f32.c:515:6
	ldr	r1, [sp, #28]
	.loc	7 515 13                        @ ../Middlewares/CMSIS/DSP/Src/SVMFunctions/arm_svm_rbf_predict_f32.c:515:13
	str	r0, [r1]
	.loc	7 516 1 is_stmt 1               @ ../Middlewares/CMSIS/DSP/Src/SVMFunctions/arm_svm_rbf_predict_f32.c:516:1
	add	sp, #40
	pop	{r7, pc}
.Ltmp51:
.Lfunc_end6:
	.size	arm_svm_rbf_predict_f32, .Lfunc_end6-arm_svm_rbf_predict_f32
	.cfi_endproc
	.cantunwind
	.fnend
                                        @ -- End function
	.section	.text.arm_svm_sigmoid_init_f32,"ax",%progbits
	.hidden	arm_svm_sigmoid_init_f32        @ -- Begin function arm_svm_sigmoid_init_f32
	.globl	arm_svm_sigmoid_init_f32
	.p2align	2
	.type	arm_svm_sigmoid_init_f32,%function
	.code	16                              @ @arm_svm_sigmoid_init_f32
	.thumb_func
arm_svm_sigmoid_init_f32:
.Lfunc_begin7:
	.file	8 "D:\\horizon\\Horizon_Infantry (2)\\MDK-ARM" "../Middlewares/CMSIS/DSP/Src/SVMFunctions/arm_svm_sigmoid_init_f32.c"
	.loc	8 78 0                          @ ../Middlewares/CMSIS/DSP/Src/SVMFunctions/arm_svm_sigmoid_init_f32.c:78:0
	.fnstart
	.cfi_startproc
@ %bb.0:
	.pad	#28
	sub	sp, #28
	.cfi_def_cfa_offset 28
	ldr.w	r12, [sp, #32]
	ldr.w	r12, [sp, #28]
	str	r0, [sp, #24]
	str	r1, [sp, #20]
	str	r2, [sp, #16]
	vstr	s0, [sp, #12]
	str	r3, [sp, #8]
	vstr	s1, [sp, #4]
	vstr	s2, [sp]
.Ltmp52:
	.loc	8 79 28 prologue_end            @ ../Middlewares/CMSIS/DSP/Src/SVMFunctions/arm_svm_sigmoid_init_f32.c:79:28
	ldr	r0, [sp, #20]
	.loc	8 79 4 is_stmt 0                @ ../Middlewares/CMSIS/DSP/Src/SVMFunctions/arm_svm_sigmoid_init_f32.c:79:4
	ldr	r1, [sp, #24]
	.loc	8 79 26                         @ ../Middlewares/CMSIS/DSP/Src/SVMFunctions/arm_svm_sigmoid_init_f32.c:79:26
	str	r0, [r1]
	.loc	8 80 25 is_stmt 1               @ ../Middlewares/CMSIS/DSP/Src/SVMFunctions/arm_svm_sigmoid_init_f32.c:80:25
	ldr	r0, [sp, #16]
	.loc	8 80 4 is_stmt 0                @ ../Middlewares/CMSIS/DSP/Src/SVMFunctions/arm_svm_sigmoid_init_f32.c:80:4
	ldr	r1, [sp, #24]
	.loc	8 80 23                         @ ../Middlewares/CMSIS/DSP/Src/SVMFunctions/arm_svm_sigmoid_init_f32.c:80:23
	str	r0, [r1, #4]
	.loc	8 81 19 is_stmt 1               @ ../Middlewares/CMSIS/DSP/Src/SVMFunctions/arm_svm_sigmoid_init_f32.c:81:19
	ldr	r0, [sp, #12]
	.loc	8 81 4 is_stmt 0                @ ../Middlewares/CMSIS/DSP/Src/SVMFunctions/arm_svm_sigmoid_init_f32.c:81:4
	ldr	r1, [sp, #24]
	.loc	8 81 17                         @ ../Middlewares/CMSIS/DSP/Src/SVMFunctions/arm_svm_sigmoid_init_f32.c:81:17
	str	r0, [r1, #8]
	.loc	8 82 26 is_stmt 1               @ ../Middlewares/CMSIS/DSP/Src/SVMFunctions/arm_svm_sigmoid_init_f32.c:82:26
	ldr	r0, [sp, #8]
	.loc	8 82 4 is_stmt 0                @ ../Middlewares/CMSIS/DSP/Src/SVMFunctions/arm_svm_sigmoid_init_f32.c:82:4
	ldr	r1, [sp, #24]
	.loc	8 82 24                         @ ../Middlewares/CMSIS/DSP/Src/SVMFunctions/arm_svm_sigmoid_init_f32.c:82:24
	str	r0, [r1, #12]
	.loc	8 83 24 is_stmt 1               @ ../Middlewares/CMSIS/DSP/Src/SVMFunctions/arm_svm_sigmoid_init_f32.c:83:24
	ldr	r0, [sp, #28]
	.loc	8 83 4 is_stmt 0                @ ../Middlewares/CMSIS/DSP/Src/SVMFunctions/arm_svm_sigmoid_init_f32.c:83:4
	ldr	r1, [sp, #24]
	.loc	8 83 22                         @ ../Middlewares/CMSIS/DSP/Src/SVMFunctions/arm_svm_sigmoid_init_f32.c:83:22
	str	r0, [r1, #16]
	.loc	8 84 17 is_stmt 1               @ ../Middlewares/CMSIS/DSP/Src/SVMFunctions/arm_svm_sigmoid_init_f32.c:84:17
	ldr	r0, [sp, #32]
	.loc	8 84 4 is_stmt 0                @ ../Middlewares/CMSIS/DSP/Src/SVMFunctions/arm_svm_sigmoid_init_f32.c:84:4
	ldr	r1, [sp, #24]
	.loc	8 84 15                         @ ../Middlewares/CMSIS/DSP/Src/SVMFunctions/arm_svm_sigmoid_init_f32.c:84:15
	str	r0, [r1, #20]
	.loc	8 85 15 is_stmt 1               @ ../Middlewares/CMSIS/DSP/Src/SVMFunctions/arm_svm_sigmoid_init_f32.c:85:15
	ldr	r0, [sp, #4]
	.loc	8 85 4 is_stmt 0                @ ../Middlewares/CMSIS/DSP/Src/SVMFunctions/arm_svm_sigmoid_init_f32.c:85:4
	ldr	r1, [sp, #24]
	.loc	8 85 13                         @ ../Middlewares/CMSIS/DSP/Src/SVMFunctions/arm_svm_sigmoid_init_f32.c:85:13
	str	r0, [r1, #24]
	.loc	8 86 15 is_stmt 1               @ ../Middlewares/CMSIS/DSP/Src/SVMFunctions/arm_svm_sigmoid_init_f32.c:86:15
	ldr	r0, [sp]
	.loc	8 86 4 is_stmt 0                @ ../Middlewares/CMSIS/DSP/Src/SVMFunctions/arm_svm_sigmoid_init_f32.c:86:4
	ldr	r1, [sp, #24]
	.loc	8 86 13                         @ ../Middlewares/CMSIS/DSP/Src/SVMFunctions/arm_svm_sigmoid_init_f32.c:86:13
	str	r0, [r1, #28]
	.loc	8 87 1 is_stmt 1                @ ../Middlewares/CMSIS/DSP/Src/SVMFunctions/arm_svm_sigmoid_init_f32.c:87:1
	add	sp, #28
	bx	lr
.Ltmp53:
.Lfunc_end7:
	.size	arm_svm_sigmoid_init_f32, .Lfunc_end7-arm_svm_sigmoid_init_f32
	.cfi_endproc
	.cantunwind
	.fnend
                                        @ -- End function
	.section	.text.arm_svm_sigmoid_predict_f32,"ax",%progbits
	.hidden	arm_svm_sigmoid_predict_f32     @ -- Begin function arm_svm_sigmoid_predict_f32
	.globl	arm_svm_sigmoid_predict_f32
	.p2align	2
	.type	arm_svm_sigmoid_predict_f32,%function
	.code	16                              @ @arm_svm_sigmoid_predict_f32
	.thumb_func
arm_svm_sigmoid_predict_f32:
.Lfunc_begin8:
	.file	9 "D:\\horizon\\Horizon_Infantry (2)\\MDK-ARM" "../Middlewares/CMSIS/DSP/Src/SVMFunctions/arm_svm_sigmoid_predict_f32.c"
	.loc	9 464 0                         @ ../Middlewares/CMSIS/DSP/Src/SVMFunctions/arm_svm_sigmoid_predict_f32.c:464:0
	.fnstart
	.cfi_startproc
@ %bb.0:
	.save	{r7, lr}
	push	{r7, lr}
	.cfi_def_cfa_offset 8
	.cfi_offset lr, -4
	.cfi_offset r7, -8
	.pad	#40
	sub	sp, #40
	.cfi_def_cfa_offset 48
	str	r0, [sp, #36]
	str	r1, [sp, #32]
	str	r2, [sp, #28]
.Ltmp54:
	.loc	9 465 19 prologue_end           @ ../Middlewares/CMSIS/DSP/Src/SVMFunctions/arm_svm_sigmoid_predict_f32.c:465:19
	ldr	r0, [sp, #36]
	.loc	9 465 22 is_stmt 0              @ ../Middlewares/CMSIS/DSP/Src/SVMFunctions/arm_svm_sigmoid_predict_f32.c:465:22
	ldr	r0, [r0, #8]
	.loc	9 465 15                        @ ../Middlewares/CMSIS/DSP/Src/SVMFunctions/arm_svm_sigmoid_predict_f32.c:465:15
	str	r0, [sp, #24]
	movs	r0, #0
	.loc	9 466 15 is_stmt 1              @ ../Middlewares/CMSIS/DSP/Src/SVMFunctions/arm_svm_sigmoid_predict_f32.c:466:15
	str	r0, [sp, #20]
	.loc	9 468 33                        @ ../Middlewares/CMSIS/DSP/Src/SVMFunctions/arm_svm_sigmoid_predict_f32.c:468:33
	ldr	r1, [sp, #36]
	.loc	9 468 36 is_stmt 0              @ ../Middlewares/CMSIS/DSP/Src/SVMFunctions/arm_svm_sigmoid_predict_f32.c:468:36
	ldr	r1, [r1, #16]
	.loc	9 468 22                        @ ../Middlewares/CMSIS/DSP/Src/SVMFunctions/arm_svm_sigmoid_predict_f32.c:468:22
	str	r1, [sp, #8]
.Ltmp55:
	.loc	9 470 10 is_stmt 1              @ ../Middlewares/CMSIS/DSP/Src/SVMFunctions/arm_svm_sigmoid_predict_f32.c:470:10
	str	r0, [sp, #16]
	.loc	9 470 9 is_stmt 0               @ ../Middlewares/CMSIS/DSP/Src/SVMFunctions/arm_svm_sigmoid_predict_f32.c:470:9
	b	.LBB8_1
.LBB8_1:                                @ =>This Loop Header: Depth=1
                                        @     Child Loop BB8_3 Depth 2
.Ltmp56:
	.loc	9 470 14                        @ ../Middlewares/CMSIS/DSP/Src/SVMFunctions/arm_svm_sigmoid_predict_f32.c:470:14
	ldr	r0, [sp, #16]
	.loc	9 470 18                        @ ../Middlewares/CMSIS/DSP/Src/SVMFunctions/arm_svm_sigmoid_predict_f32.c:470:18
	ldr	r1, [sp, #36]
	.loc	9 470 21                        @ ../Middlewares/CMSIS/DSP/Src/SVMFunctions/arm_svm_sigmoid_predict_f32.c:470:21
	ldr	r1, [r1]
.Ltmp57:
	.loc	9 470 5                         @ ../Middlewares/CMSIS/DSP/Src/SVMFunctions/arm_svm_sigmoid_predict_f32.c:470:5
	cmp	r0, r1
	bhs	.LBB8_8
	b	.LBB8_2
.LBB8_2:                                @   in Loop: Header=BB8_1 Depth=1
	.loc	9 0 5                           @ ../Middlewares/CMSIS/DSP/Src/SVMFunctions/arm_svm_sigmoid_predict_f32.c:0:5
	movs	r0, #0
.Ltmp58:
	.loc	9 472 12 is_stmt 1              @ ../Middlewares/CMSIS/DSP/Src/SVMFunctions/arm_svm_sigmoid_predict_f32.c:472:12
	str	r0, [sp, #20]
.Ltmp59:
	.loc	9 473 14                        @ ../Middlewares/CMSIS/DSP/Src/SVMFunctions/arm_svm_sigmoid_predict_f32.c:473:14
	str	r0, [sp, #12]
	.loc	9 473 13 is_stmt 0              @ ../Middlewares/CMSIS/DSP/Src/SVMFunctions/arm_svm_sigmoid_predict_f32.c:473:13
	b	.LBB8_3
.LBB8_3:                                @   Parent Loop BB8_1 Depth=1
                                        @ =>  This Inner Loop Header: Depth=2
.Ltmp60:
	.loc	9 473 18                        @ ../Middlewares/CMSIS/DSP/Src/SVMFunctions/arm_svm_sigmoid_predict_f32.c:473:18
	ldr	r0, [sp, #12]
	.loc	9 473 22                        @ ../Middlewares/CMSIS/DSP/Src/SVMFunctions/arm_svm_sigmoid_predict_f32.c:473:22
	ldr	r1, [sp, #36]
	.loc	9 473 25                        @ ../Middlewares/CMSIS/DSP/Src/SVMFunctions/arm_svm_sigmoid_predict_f32.c:473:25
	ldr	r1, [r1, #4]
.Ltmp61:
	.loc	9 473 9                         @ ../Middlewares/CMSIS/DSP/Src/SVMFunctions/arm_svm_sigmoid_predict_f32.c:473:9
	cmp	r0, r1
	bhs	.LBB8_6
	b	.LBB8_4
.LBB8_4:                                @   in Loop: Header=BB8_3 Depth=2
.Ltmp62:
	.loc	9 475 19 is_stmt 1              @ ../Middlewares/CMSIS/DSP/Src/SVMFunctions/arm_svm_sigmoid_predict_f32.c:475:19
	vldr	s2, [sp, #20]
	.loc	9 475 25 is_stmt 0              @ ../Middlewares/CMSIS/DSP/Src/SVMFunctions/arm_svm_sigmoid_predict_f32.c:475:25
	ldr	r0, [sp, #32]
	.loc	9 475 28                        @ ../Middlewares/CMSIS/DSP/Src/SVMFunctions/arm_svm_sigmoid_predict_f32.c:475:28
	ldr	r1, [sp, #12]
	.loc	9 475 25                        @ ../Middlewares/CMSIS/DSP/Src/SVMFunctions/arm_svm_sigmoid_predict_f32.c:475:25
	add.w	r0, r0, r1, lsl #2
	vldr	s0, [r0]
	.loc	9 475 41                        @ ../Middlewares/CMSIS/DSP/Src/SVMFunctions/arm_svm_sigmoid_predict_f32.c:475:41
	ldr	r0, [sp, #8]
	adds	r1, r0, #4
	str	r1, [sp, #8]
	.loc	9 475 32                        @ ../Middlewares/CMSIS/DSP/Src/SVMFunctions/arm_svm_sigmoid_predict_f32.c:475:32
	vldr	s4, [r0]
	.loc	9 475 23                        @ ../Middlewares/CMSIS/DSP/Src/SVMFunctions/arm_svm_sigmoid_predict_f32.c:475:23
	vmul.f32	s0, s0, s4
	vadd.f32	s0, s0, s2
	.loc	9 475 17                        @ ../Middlewares/CMSIS/DSP/Src/SVMFunctions/arm_svm_sigmoid_predict_f32.c:475:17
	vstr	s0, [sp, #20]
	.loc	9 476 9 is_stmt 1               @ ../Middlewares/CMSIS/DSP/Src/SVMFunctions/arm_svm_sigmoid_predict_f32.c:476:9
	b	.LBB8_5
.Ltmp63:
.LBB8_5:                                @   in Loop: Header=BB8_3 Depth=2
	.loc	9 473 43                        @ ../Middlewares/CMSIS/DSP/Src/SVMFunctions/arm_svm_sigmoid_predict_f32.c:473:43
	ldr	r0, [sp, #12]
	adds	r0, #1
	str	r0, [sp, #12]
	.loc	9 473 9 is_stmt 0               @ ../Middlewares/CMSIS/DSP/Src/SVMFunctions/arm_svm_sigmoid_predict_f32.c:473:9
	b	.LBB8_3
.Ltmp64:
.LBB8_6:                                @   in Loop: Header=BB8_1 Depth=1
	.loc	9 477 16 is_stmt 1              @ ../Middlewares/CMSIS/DSP/Src/SVMFunctions/arm_svm_sigmoid_predict_f32.c:477:16
	ldr	r0, [sp, #36]
	.loc	9 477 19 is_stmt 0              @ ../Middlewares/CMSIS/DSP/Src/SVMFunctions/arm_svm_sigmoid_predict_f32.c:477:19
	ldr	r1, [r0, #12]
	.loc	9 477 36                        @ ../Middlewares/CMSIS/DSP/Src/SVMFunctions/arm_svm_sigmoid_predict_f32.c:477:36
	ldr	r2, [sp, #16]
	.loc	9 477 16                        @ ../Middlewares/CMSIS/DSP/Src/SVMFunctions/arm_svm_sigmoid_predict_f32.c:477:16
	add.w	r1, r1, r2, lsl #2
	vldr	s0, [r1]
	vstr	s0, [sp, #4]                    @ 4-byte Spill
	.loc	9 477 67                        @ ../Middlewares/CMSIS/DSP/Src/SVMFunctions/arm_svm_sigmoid_predict_f32.c:477:67
	vldr	s2, [r0, #24]
	.loc	9 477 50                        @ ../Middlewares/CMSIS/DSP/Src/SVMFunctions/arm_svm_sigmoid_predict_f32.c:477:50
	vldr	s0, [r0, #28]
	.loc	9 477 58                        @ ../Middlewares/CMSIS/DSP/Src/SVMFunctions/arm_svm_sigmoid_predict_f32.c:477:58
	vldr	s4, [sp, #20]
	.loc	9 477 62                        @ ../Middlewares/CMSIS/DSP/Src/SVMFunctions/arm_svm_sigmoid_predict_f32.c:477:62
	vmul.f32	s0, s0, s4
	vadd.f32	s0, s0, s2
	.loc	9 477 41                        @ ../Middlewares/CMSIS/DSP/Src/SVMFunctions/arm_svm_sigmoid_predict_f32.c:477:41
	bl	__hardfp_tanhf
	vmov.f32	s4, s0
	.loc	9 477 13                        @ ../Middlewares/CMSIS/DSP/Src/SVMFunctions/arm_svm_sigmoid_predict_f32.c:477:13
	vldr	s0, [sp, #4]                    @ 4-byte Reload
	vldr	s2, [sp, #24]
	vmul.f32	s0, s0, s4
	vadd.f32	s0, s0, s2
	vstr	s0, [sp, #24]
	.loc	9 478 5 is_stmt 1               @ ../Middlewares/CMSIS/DSP/Src/SVMFunctions/arm_svm_sigmoid_predict_f32.c:478:5
	b	.LBB8_7
.Ltmp65:
.LBB8_7:                                @   in Loop: Header=BB8_1 Depth=1
	.loc	9 470 42                        @ ../Middlewares/CMSIS/DSP/Src/SVMFunctions/arm_svm_sigmoid_predict_f32.c:470:42
	ldr	r0, [sp, #16]
	adds	r0, #1
	str	r0, [sp, #16]
	.loc	9 470 5 is_stmt 0               @ ../Middlewares/CMSIS/DSP/Src/SVMFunctions/arm_svm_sigmoid_predict_f32.c:470:5
	b	.LBB8_1
.Ltmp66:
.LBB8_8:
	.loc	9 479 14 is_stmt 1              @ ../Middlewares/CMSIS/DSP/Src/SVMFunctions/arm_svm_sigmoid_predict_f32.c:479:14
	ldr	r0, [sp, #36]
	.loc	9 479 17 is_stmt 0              @ ../Middlewares/CMSIS/DSP/Src/SVMFunctions/arm_svm_sigmoid_predict_f32.c:479:17
	ldr	r1, [r0, #20]
	.loc	9 479 26                        @ ../Middlewares/CMSIS/DSP/Src/SVMFunctions/arm_svm_sigmoid_predict_f32.c:479:26
	vldr	s0, [sp, #24]
	.loc	9 479 14                        @ ../Middlewares/CMSIS/DSP/Src/SVMFunctions/arm_svm_sigmoid_predict_f32.c:479:14
	adds	r0, r1, #4
	vcmp.f32	s0, #0
	vmrs	APSR_nzcv, fpscr
	it	le
	movle	r0, r1
	ldr	r0, [r0]
	.loc	9 479 6                         @ ../Middlewares/CMSIS/DSP/Src/SVMFunctions/arm_svm_sigmoid_predict_f32.c:479:6
	ldr	r1, [sp, #28]
	.loc	9 479 13                        @ ../Middlewares/CMSIS/DSP/Src/SVMFunctions/arm_svm_sigmoid_predict_f32.c:479:13
	str	r0, [r1]
	.loc	9 480 1 is_stmt 1               @ ../Middlewares/CMSIS/DSP/Src/SVMFunctions/arm_svm_sigmoid_predict_f32.c:480:1
	add	sp, #40
	pop	{r7, pc}
.Ltmp67:
.Lfunc_end8:
	.size	arm_svm_sigmoid_predict_f32, .Lfunc_end8-arm_svm_sigmoid_predict_f32
	.cfi_endproc
	.cantunwind
	.fnend
                                        @ -- End function
	.file	10 "D:\\horizon\\Horizon_Infantry (2)\\MDK-ARM" "../Middlewares/CMSIS/DSP/Inc\\arm_math_types.h"
	.file	11 "D:\\" "kevil\\ARM\\ARMCLANG\\Bin\\..\\include\\stdint.h"
	.section	".note.GNU-stack","",%progbits
	.eabi_attribute	30, 6	@ Tag_ABI_optimization_goals
	.ARM_attribute	16, 1	@ Tag_AV_eba