	.text
	.syntax unified
	.eabi_attribute	67, "2.09"	@ Tag_conformance
	.cpu	cortex-m4
	.eabi_attribute	6, 13	@ Tag_CPU_arch
	.eabi_attribute	7, 77	@ Tag_CPU_arch_profile
	.eabi_attribute	8, 0	@ Tag_ARM_ISA_use
	.eabi_attribute	9, 2	@ Tag_THUMB_ISA_use
	.fpu	fpv4-sp-d16
	.eabi_attribute	27, 1	@ Tag_ABI_HardFP_use
	.eabi_attribute	36, 1	@ Tag_FP_HP_extension
	.eabi_attribute	34, 1	@ Tag_CPU_unaligned_access
	.eabi_attribute	17, 1	@ Tag_ABI_PCS_GOT_use
	.eabi_attribute	20, 2	@ Tag_ABI_FP_denormal
	.eabi_attribute	21, 0	@ Tag_ABI_FP_exceptions
	.eabi_attribute	23, 1	@ Tag_ABI_FP_number_model
	.eabi_attribute	24, 1	@ Tag_ABI_align_needed
	.eabi_attribute	25, 1	@ Tag_ABI_align_preserved
	.eabi_attribute	28, 1	@ Tag_ABI_VFP_args
	.eabi_attribute	38, 1	@ Tag_ABI_FP_16bit_format
	.eabi_attribute	18, 2	@ Tag_ABI_PCS_wchar_t
	.eabi_attribute	26, 1	@ Tag_ABI_enum_size
	.eabi_attribute	14, 0	@ Tag_ABI_PCS_R9_use
	.file	"tasks.c"
	.file	1 "D:\\" "kevil\\ARM\\ARMCLANG\\Bin\\..\\include\\stdint.h"
	.file	2 "D:\\horizon\\Horizon_Infantry (2)\\MDK-ARM" "../Middlewares/Third_Party/FreeRTOS/Source/portable/RVDS/ARM_CM4F\\portmacro.h"
	.file	3 "D:\\horizon\\Horizon_Infantry (2)\\MDK-ARM" "../Middlewares/Third_Party/FreeRTOS/Source/tasks.c"
	.file	4 "D:\\horizon\\Horizon_Infantry (2)\\MDK-ARM" "../Middlewares/Third_Party/FreeRTOS/Source/include/list.h"
	.file	5 "D:\\horizon\\Horizon_Infantry (2)\\MDK-ARM" "../Middlewares/Third_Party/FreeRTOS/Source/include\\task.h"
	.file	6 "D:\\" "kevil\\ARM\\ARMCLANG\\Bin\\..\\include\\stdlib.h"
	.section	.text.xTaskCreateStatic,"ax",%progbits
	.hidden	xTaskCreateStatic               @ -- Begin function xTaskCreateStatic
	.globl	xTaskCreateStatic
	.p2align	2
	.type	xTaskCreateStatic,%function
	.code	16                              @ @xTaskCreateStatic
	.thumb_func
xTaskCreateStatic:
.Lfunc_begin0:
	.loc	3 588 0                         @ ../Middlewares/Third_Party/FreeRTOS/Source/tasks.c:588:0
	.fnstart
	.cfi_sections .debug_frame
	.cfi_startproc
@ %bb.0:
	.save	{r4, r5, r7, lr}
	push	{r4, r5, r7, lr}
	.cfi_def_cfa_offset 16
	.cfi_offset lr, -4
	.cfi_offset r7, -8
	.cfi_offset r5, -12
	.cfi_offset r4, -16
	.pad	#56
	sub	sp, #56
	.cfi_def_cfa_offset 72
	ldr.w	r12, [sp, #80]
	ldr.w	r12, [sp, #76]
	ldr.w	r12, [sp, #72]
	str	r0, [sp, #40]
	str	r1, [sp, #36]
	str	r2, [sp, #32]
	str	r3, [sp, #28]
.Ltmp0:
	.loc	3 592 8 prologue_end            @ ../Middlewares/Third_Party/FreeRTOS/Source/tasks.c:592:8
	ldr	r0, [sp, #76]
.Ltmp1:
	.loc	3 592 7 is_stmt 0               @ ../Middlewares/Third_Party/FreeRTOS/Source/tasks.c:592:7
	cbnz	r0, .LBB0_3
	b	.LBB0_1
.LBB0_1:
.Ltmp2:
	.loc	2 195 2 is_stmt 1               @ ../Middlewares/Third_Party/FreeRTOS/Source/portable/RVDS/ARM_CM4F\portmacro.h:195:2
	@APP
	mov.w	r0, #80
	msr	basepri, r0
	isb	sy
	dsb	sy

	@NO_APP
	str	r0, [sp, #52]
.Ltmp3:
	.loc	3 592 57                        @ ../Middlewares/Third_Party/FreeRTOS/Source/tasks.c:592:57
	b	.LBB0_2
.LBB0_2:                                @ =>This Inner Loop Header: Depth=1
.Ltmp4:
	.loc	3 592 57 is_stmt 0              @ ../Middlewares/Third_Party/FreeRTOS/Source/tasks.c:592:57
	b	.LBB0_2
.Ltmp5:
.LBB0_3:
	.loc	3 593 8 is_stmt 1               @ ../Middlewares/Third_Party/FreeRTOS/Source/tasks.c:593:8
	ldr	r0, [sp, #80]
.Ltmp6:
	.loc	3 593 7 is_stmt 0               @ ../Middlewares/Third_Party/FreeRTOS/Source/tasks.c:593:7
	cbnz	r0, .LBB0_6
	b	.LBB0_4
.LBB0_4:
.Ltmp7:
	.loc	2 195 2 is_stmt 1               @ ../Middlewares/Third_Party/FreeRTOS/Source/portable/RVDS/ARM_CM4F\portmacro.h:195:2
	@APP
	mov.w	r0, #80
	msr	basepri, r0
	isb	sy
	dsb	sy

	@NO_APP
	str	r0, [sp, #48]
.Ltmp8:
	.loc	3 593 55                        @ ../Middlewares/Third_Party/FreeRTOS/Source/tasks.c:593:55
	b	.LBB0_5
.LBB0_5:                                @ =>This Inner Loop Header: Depth=1
.Ltmp9:
	.loc	3 593 55 is_stmt 0              @ ../Middlewares/Third_Party/FreeRTOS/Source/tasks.c:593:55
	b	.LBB0_5
.Ltmp10:
.LBB0_6:
	.loc	3 0 55                          @ ../Middlewares/Third_Party/FreeRTOS/Source/tasks.c:0:55
	movs	r0, #84
.Ltmp11:
	.loc	3 600 20 is_stmt 1              @ ../Middlewares/Third_Party/FreeRTOS/Source/tasks.c:600:20
	str	r0, [sp, #16]
.Ltmp12:
	.loc	3 601 9                         @ ../Middlewares/Third_Party/FreeRTOS/Source/tasks.c:601:9
	ldr	r0, [sp, #16]
.Ltmp13:
	.loc	3 601 8 is_stmt 0               @ ../Middlewares/Third_Party/FreeRTOS/Source/tasks.c:601:8
	cmp	r0, #84
	beq	.LBB0_9
	b	.LBB0_7
.LBB0_7:
.Ltmp14:
	.loc	2 195 2 is_stmt 1               @ ../Middlewares/Third_Party/FreeRTOS/Source/portable/RVDS/ARM_CM4F\portmacro.h:195:2
	@APP
	mov.w	r0, #80
	msr	basepri, r0
	isb	sy
	dsb	sy

	@NO_APP
	str	r0, [sp, #44]
.Ltmp15:
	.loc	3 601 63                        @ ../Middlewares/Third_Party/FreeRTOS/Source/tasks.c:601:63
	b	.LBB0_8
.LBB0_8:                                @ =>This Inner Loop Header: Depth=1
.Ltmp16:
	.loc	3 601 63 is_stmt 0              @ ../Middlewares/Third_Party/FreeRTOS/Source/tasks.c:601:63
	b	.LBB0_8
.Ltmp17:
.LBB0_9:
	.loc	3 602 13 is_stmt 1              @ ../Middlewares/Third_Party/FreeRTOS/Source/tasks.c:602:13
	ldr	r0, [sp, #16]
.Ltmp18:
	.loc	3 607 9                         @ ../Middlewares/Third_Party/FreeRTOS/Source/tasks.c:607:9
	ldr	r0, [sp, #80]
	.loc	3 607 29 is_stmt 0              @ ../Middlewares/Third_Party/FreeRTOS/Source/tasks.c:607:29
	cbz	r0, .LBB0_12
	b	.LBB0_10
.LBB0_10:
	.loc	3 607 34                        @ ../Middlewares/Third_Party/FreeRTOS/Source/tasks.c:607:34
	ldr	r0, [sp, #76]
.Ltmp19:
	.loc	3 607 7                         @ ../Middlewares/Third_Party/FreeRTOS/Source/tasks.c:607:7
	cbz	r0, .LBB0_12
	b	.LBB0_11
.LBB0_11:
.Ltmp20:
	.loc	3 611 27 is_stmt 1              @ ../Middlewares/Third_Party/FreeRTOS/Source/tasks.c:611:27
	ldr	r0, [sp, #80]
	.loc	3 611 13 is_stmt 0              @ ../Middlewares/Third_Party/FreeRTOS/Source/tasks.c:611:13
	str	r0, [sp, #24]
	.loc	3 612 42 is_stmt 1              @ ../Middlewares/Third_Party/FreeRTOS/Source/tasks.c:612:42
	ldr	r0, [sp, #76]
	.loc	3 612 4 is_stmt 0               @ ../Middlewares/Third_Party/FreeRTOS/Source/tasks.c:612:4
	ldr	r1, [sp, #24]
	.loc	3 612 22                        @ ../Middlewares/Third_Party/FreeRTOS/Source/tasks.c:612:22
	str	r0, [r1, #48]
.Ltmp21:
	.loc	3 618 5 is_stmt 1               @ ../Middlewares/Third_Party/FreeRTOS/Source/tasks.c:618:5
	ldr	r1, [sp, #24]
	movs	r0, #2
	.loc	3 618 37 is_stmt 0              @ ../Middlewares/Third_Party/FreeRTOS/Source/tasks.c:618:37
	strb.w	r0, [r1, #81]
.Ltmp22:
	.loc	3 622 26 is_stmt 1              @ ../Middlewares/Third_Party/FreeRTOS/Source/tasks.c:622:26
	ldr	r0, [sp, #40]
	.loc	3 622 38 is_stmt 0              @ ../Middlewares/Third_Party/FreeRTOS/Source/tasks.c:622:38
	ldr	r1, [sp, #36]
	.loc	3 622 46                        @ ../Middlewares/Third_Party/FreeRTOS/Source/tasks.c:622:46
	ldr	r2, [sp, #32]
	.loc	3 622 60                        @ ../Middlewares/Third_Party/FreeRTOS/Source/tasks.c:622:60
	ldr	r3, [sp, #28]
	.loc	3 622 74                        @ ../Middlewares/Third_Party/FreeRTOS/Source/tasks.c:622:74
	ldr.w	r12, [sp, #72]
	.loc	3 622 96                        @ ../Middlewares/Third_Party/FreeRTOS/Source/tasks.c:622:96
	ldr	r4, [sp, #24]
	.loc	3 622 4                         @ ../Middlewares/Third_Party/FreeRTOS/Source/tasks.c:622:4
	mov	lr, sp
	movs	r5, #0
	str.w	r5, [lr, #12]
	str.w	r4, [lr, #8]
	add	r4, sp, #20
	str.w	r4, [lr, #4]
	str.w	r12, [lr]
	bl	prvInitialiseNewTask
	.loc	3 623 30 is_stmt 1              @ ../Middlewares/Third_Party/FreeRTOS/Source/tasks.c:623:30
	ldr	r0, [sp, #24]
	.loc	3 623 4 is_stmt 0               @ ../Middlewares/Third_Party/FreeRTOS/Source/tasks.c:623:4
	bl	prvAddNewTaskToReadyList
	.loc	3 624 3 is_stmt 1               @ ../Middlewares/Third_Party/FreeRTOS/Source/tasks.c:624:3
	b	.LBB0_13
.Ltmp23:
.LBB0_12:
	.loc	3 0 3 is_stmt 0                 @ ../Middlewares/Third_Party/FreeRTOS/Source/tasks.c:0:3
	movs	r0, #0
.Ltmp24:
	.loc	3 627 12 is_stmt 1              @ ../Middlewares/Third_Party/FreeRTOS/Source/tasks.c:627:12
	str	r0, [sp, #20]
	b	.LBB0_13
.Ltmp25:
.LBB0_13:
	.loc	3 630 10                        @ ../Middlewares/Third_Party/FreeRTOS/Source/tasks.c:630:10
	ldr	r0, [sp, #20]
	.loc	3 630 3 is_stmt 0               @ ../Middlewares/Third_Party/FreeRTOS/Source/tasks.c:630:3
	add	sp, #56
	pop	{r4, r5, r7, pc}
.Ltmp26:
.Lfunc_end0:
	.size	xTaskCreateStatic, .Lfunc_end0-xTaskCreateStatic
	.cfi_endproc
	.cantunwind
	.fnend
                                        @ -- End function
	.section	.text.prvInitialiseNewTask,"ax",%progbits
	.p2align	2                               @ -- Begin function prvInitialiseNewTask
	.type	prvInitialiseNewTask,%function
	.code	16                              @ @prvInitialiseNewTask
	.thumb_func
prvInitialiseNewTask:
.Lfunc_begin1:
	.loc	3 832 0 is_stmt 1               @ ../Middlewares/Third_Party/FreeRTOS/Source/tasks.c:832:0
	.fnstart
	.cfi_startproc
@ %bb.0:
	.save	{r7, lr}
	push	{r7, lr}
	.cfi_def_cfa_offset 8
	.cfi_offset lr, -4
	.cfi_offset r7, -8
	.pad	#32
	sub	sp, #32
	.cfi_def_cfa_offset 40
	ldr.w	r12, [sp, #52]
	ldr.w	r12, [sp, #48]
	ldr.w	r12, [sp, #44]
	ldr.w	r12, [sp, #40]
	str	r0, [sp, #24]
	str	r1, [sp, #20]
	str	r2, [sp, #16]
	str	r3, [sp, #12]
.Ltmp27:
	.loc	3 854 20 prologue_end           @ ../Middlewares/Third_Party/FreeRTOS/Source/tasks.c:854:20
	ldr	r0, [sp, #48]
	.loc	3 854 30 is_stmt 0              @ ../Middlewares/Third_Party/FreeRTOS/Source/tasks.c:854:30
	ldr	r0, [r0, #48]
	.loc	3 854 69                        @ ../Middlewares/Third_Party/FreeRTOS/Source/tasks.c:854:69
	ldr	r1, [sp, #16]
	.loc	3 854 82                        @ ../Middlewares/Third_Party/FreeRTOS/Source/tasks.c:854:82
	lsls	r1, r1, #2
	movs	r2, #165
	.loc	3 854 12                        @ ../Middlewares/Third_Party/FreeRTOS/Source/tasks.c:854:12
	bl	__aeabi_memset4
.Ltmp28:
	.loc	3 864 21 is_stmt 1              @ ../Middlewares/Third_Party/FreeRTOS/Source/tasks.c:864:21
	ldr	r0, [sp, #48]
	.loc	3 864 31 is_stmt 0              @ ../Middlewares/Third_Party/FreeRTOS/Source/tasks.c:864:31
	ldr	r0, [r0, #48]
	.loc	3 864 40                        @ ../Middlewares/Third_Party/FreeRTOS/Source/tasks.c:864:40
	ldr	r1, [sp, #16]
	.loc	3 864 21                        @ ../Middlewares/Third_Party/FreeRTOS/Source/tasks.c:864:21
	add.w	r0, r0, r1, lsl #2
	subs	r0, #4
	.loc	3 864 16                        @ ../Middlewares/Third_Party/FreeRTOS/Source/tasks.c:864:16
	str	r0, [sp, #8]
	.loc	3 865 53 is_stmt 1              @ ../Middlewares/Third_Party/FreeRTOS/Source/tasks.c:865:53
	ldr	r0, [sp, #8]
	.loc	3 865 68 is_stmt 0              @ ../Middlewares/Third_Party/FreeRTOS/Source/tasks.c:865:68
	bic	r0, r0, #7
	.loc	3 865 16                        @ ../Middlewares/Third_Party/FreeRTOS/Source/tasks.c:865:16
	str	r0, [sp, #8]
.Ltmp29:
	.loc	3 868 66 is_stmt 1              @ ../Middlewares/Third_Party/FreeRTOS/Source/tasks.c:868:66
	ldrb.w	r0, [sp, #8]
.Ltmp30:
	.loc	3 868 7 is_stmt 0               @ ../Middlewares/Third_Party/FreeRTOS/Source/tasks.c:868:7
	lsls	r0, r0, #29
	cbz	r0, .LBB1_3
	b	.LBB1_1
.LBB1_1:
.Ltmp31:
	.loc	2 195 2 is_stmt 1               @ ../Middlewares/Third_Party/FreeRTOS/Source/portable/RVDS/ARM_CM4F\portmacro.h:195:2
	@APP
	mov.w	r0, #80
	msr	basepri, r0
	isb	sy
	dsb	sy

	@NO_APP
	str	r0, [sp, #28]
.Ltmp32:
	.loc	3 868 104                       @ ../Middlewares/Third_Party/FreeRTOS/Source/tasks.c:868:104
	b	.LBB1_2
.LBB1_2:                                @ =>This Inner Loop Header: Depth=1
.Ltmp33:
	.loc	3 868 104 is_stmt 0             @ ../Middlewares/Third_Party/FreeRTOS/Source/tasks.c:868:104
	b	.LBB1_2
.Ltmp34:
.LBB1_3:
	.loc	3 892 6 is_stmt 1               @ ../Middlewares/Third_Party/FreeRTOS/Source/tasks.c:892:6
	ldr	r0, [sp, #20]
.Ltmp35:
	.loc	3 892 6 is_stmt 0               @ ../Middlewares/Third_Party/FreeRTOS/Source/tasks.c:892:6
	cbz	r0, .LBB1_12
	b	.LBB1_4
.LBB1_4:
	.loc	3 0 6                           @ ../Middlewares/Third_Party/FreeRTOS/Source/tasks.c:0:6
	movs	r0, #0
.Ltmp36:
	.loc	3 894 10 is_stmt 1              @ ../Middlewares/Third_Party/FreeRTOS/Source/tasks.c:894:10
	str	r0, [sp, #4]
	.loc	3 894 8 is_stmt 0               @ ../Middlewares/Third_Party/FreeRTOS/Source/tasks.c:894:8
	b	.LBB1_5
.LBB1_5:                                @ =>This Inner Loop Header: Depth=1
.Ltmp37:
	.loc	3 894 31                        @ ../Middlewares/Third_Party/FreeRTOS/Source/tasks.c:894:31
	ldr	r0, [sp, #4]
.Ltmp38:
	.loc	3 894 3                         @ ../Middlewares/Third_Party/FreeRTOS/Source/tasks.c:894:3
	cmp	r0, #15
	bhi	.LBB1_11
	b	.LBB1_6
.LBB1_6:                                @   in Loop: Header=BB1_5 Depth=1
.Ltmp39:
	.loc	3 896 32 is_stmt 1              @ ../Middlewares/Third_Party/FreeRTOS/Source/tasks.c:896:32
	ldr	r0, [sp, #20]
	.loc	3 896 40 is_stmt 0              @ ../Middlewares/Third_Party/FreeRTOS/Source/tasks.c:896:40
	ldr	r2, [sp, #4]
	.loc	3 896 32                        @ ../Middlewares/Third_Party/FreeRTOS/Source/tasks.c:896:32
	ldrb	r0, [r0, r2]
	.loc	3 896 4                         @ ../Middlewares/Third_Party/FreeRTOS/Source/tasks.c:896:4
	ldr	r1, [sp, #48]
	.loc	3 896 14                        @ ../Middlewares/Third_Party/FreeRTOS/Source/tasks.c:896:14
	add	r1, r2
	.loc	3 896 30                        @ ../Middlewares/Third_Party/FreeRTOS/Source/tasks.c:896:30
	strb.w	r0, [r1, #52]
.Ltmp40:
	.loc	3 901 8 is_stmt 1               @ ../Middlewares/Third_Party/FreeRTOS/Source/tasks.c:901:8
	ldr	r0, [sp, #20]
	.loc	3 901 16 is_stmt 0              @ ../Middlewares/Third_Party/FreeRTOS/Source/tasks.c:901:16
	ldr	r1, [sp, #4]
	.loc	3 901 8                         @ ../Middlewares/Third_Party/FreeRTOS/Source/tasks.c:901:8
	ldrb	r0, [r0, r1]
.Ltmp41:
	.loc	3 901 8                         @ ../Middlewares/Third_Party/FreeRTOS/Source/tasks.c:901:8
	cbnz	r0, .LBB1_8
	b	.LBB1_7
.LBB1_7:
.Ltmp42:
	.loc	3 903 5 is_stmt 1               @ ../Middlewares/Third_Party/FreeRTOS/Source/tasks.c:903:5
	b	.LBB1_11
.Ltmp43:
.LBB1_8:                                @   in Loop: Header=BB1_5 Depth=1
	.loc	3 0 5 is_stmt 0                 @ ../Middlewares/Third_Party/FreeRTOS/Source/tasks.c:0:5
	b	.LBB1_9
.LBB1_9:                                @   in Loop: Header=BB1_5 Depth=1
	.loc	3 909 3 is_stmt 1               @ ../Middlewares/Third_Party/FreeRTOS/Source/tasks.c:909:3
	b	.LBB1_10
.Ltmp44:
.LBB1_10:                               @   in Loop: Header=BB1_5 Depth=1
	.loc	3 894 60                        @ ../Middlewares/Third_Party/FreeRTOS/Source/tasks.c:894:60
	ldr	r0, [sp, #4]
	adds	r0, #1
	str	r0, [sp, #4]
	.loc	3 894 3 is_stmt 0               @ ../Middlewares/Third_Party/FreeRTOS/Source/tasks.c:894:3
	b	.LBB1_5
.Ltmp45:
.LBB1_11:
	.loc	3 913 3 is_stmt 1               @ ../Middlewares/Third_Party/FreeRTOS/Source/tasks.c:913:3
	ldr	r1, [sp, #48]
	movs	r0, #0
	.loc	3 913 38 is_stmt 0              @ ../Middlewares/Third_Party/FreeRTOS/Source/tasks.c:913:38
	strb.w	r0, [r1, #67]
	.loc	3 914 2 is_stmt 1               @ ../Middlewares/Third_Party/FreeRTOS/Source/tasks.c:914:2
	b	.LBB1_13
.Ltmp46:
.LBB1_12:
	.loc	3 919 3                         @ ../Middlewares/Third_Party/FreeRTOS/Source/tasks.c:919:3
	ldr	r1, [sp, #48]
	movs	r0, #0
	.loc	3 919 29 is_stmt 0              @ ../Middlewares/Third_Party/FreeRTOS/Source/tasks.c:919:29
	strb.w	r0, [r1, #52]
	b	.LBB1_13
.Ltmp47:
.LBB1_13:
	.loc	3 924 6 is_stmt 1               @ ../Middlewares/Third_Party/FreeRTOS/Source/tasks.c:924:6
	ldr	r0, [sp, #40]
.Ltmp48:
	.loc	3 924 6 is_stmt 0               @ ../Middlewares/Third_Party/FreeRTOS/Source/tasks.c:924:6
	cmp	r0, #7
	blo	.LBB1_15
	b	.LBB1_14
.LBB1_14:
	.loc	3 0 6                           @ ../Middlewares/Third_Party/FreeRTOS/Source/tasks.c:0:6
	movs	r0, #6
.Ltmp49:
	.loc	3 926 14 is_stmt 1              @ ../Middlewares/Third_Party/FreeRTOS/Source/tasks.c:926:14
	str	r0, [sp, #40]
	.loc	3 927 2                         @ ../Middlewares/Third_Party/FreeRTOS/Source/tasks.c:927:2
	b	.LBB1_16
.Ltmp50:
.LBB1_15:
	.loc	3 0 2 is_stmt 0                 @ ../Middlewares/Third_Party/FreeRTOS/Source/tasks.c:0:2
	b	.LBB1_16
.LBB1_16:
	.loc	3 933 25 is_stmt 1              @ ../Middlewares/Third_Party/FreeRTOS/Source/tasks.c:933:25
	ldr	r0, [sp, #40]
	.loc	3 933 2 is_stmt 0               @ ../Middlewares/Third_Party/FreeRTOS/Source/tasks.c:933:2
	ldr	r1, [sp, #48]
	.loc	3 933 23                        @ ../Middlewares/Third_Party/FreeRTOS/Source/tasks.c:933:23
	str	r0, [r1, #44]
.Ltmp51:
	.loc	3 936 30 is_stmt 1              @ ../Middlewares/Third_Party/FreeRTOS/Source/tasks.c:936:30
	ldr	r0, [sp, #40]
	.loc	3 936 3 is_stmt 0               @ ../Middlewares/Third_Party/FreeRTOS/Source/tasks.c:936:3
	ldr	r1, [sp, #48]
	.loc	3 936 28                        @ ../Middlewares/Third_Party/FreeRTOS/Source/tasks.c:936:28
	str	r0, [r1, #68]
	.loc	3 937 3 is_stmt 1               @ ../Middlewares/Third_Party/FreeRTOS/Source/tasks.c:937:3
	ldr	r1, [sp, #48]
	movs	r0, #0
	.loc	3 937 27 is_stmt 0              @ ../Middlewares/Third_Party/FreeRTOS/Source/tasks.c:937:27
	str	r0, [sp]                        @ 4-byte Spill
	str	r0, [r1, #72]
.Ltmp52:
	.loc	3 941 26 is_stmt 1              @ ../Middlewares/Third_Party/FreeRTOS/Source/tasks.c:941:26
	ldr	r0, [sp, #48]
	.loc	3 941 36 is_stmt 0              @ ../Middlewares/Third_Party/FreeRTOS/Source/tasks.c:941:36
	adds	r0, #4
	.loc	3 941 2                         @ ../Middlewares/Third_Party/FreeRTOS/Source/tasks.c:941:2
	bl	vListInitialiseItem
	.loc	3 942 26 is_stmt 1              @ ../Middlewares/Third_Party/FreeRTOS/Source/tasks.c:942:26
	ldr	r0, [sp, #48]
	.loc	3 942 36 is_stmt 0              @ ../Middlewares/Third_Party/FreeRTOS/Source/tasks.c:942:36
	adds	r0, #24
	.loc	3 942 2                         @ ../Middlewares/Third_Party/FreeRTOS/Source/tasks.c:942:2
	bl	vListInitialiseItem
	ldr	r0, [sp]                        @ 4-byte Reload
	.loc	3 946 62 is_stmt 1              @ ../Middlewares/Third_Party/FreeRTOS/Source/tasks.c:946:62
	ldr	r1, [sp, #48]
	.loc	3 946 47 is_stmt 0              @ ../Middlewares/Third_Party/FreeRTOS/Source/tasks.c:946:47
	str	r1, [r1, #16]
	.loc	3 949 92 is_stmt 1              @ ../Middlewares/Third_Party/FreeRTOS/Source/tasks.c:949:92
	ldr	r1, [sp, #40]
	.loc	3 949 75 is_stmt 0              @ ../Middlewares/Third_Party/FreeRTOS/Source/tasks.c:949:75
	rsb.w	r1, r1, #7
	.loc	3 949 9                         @ ../Middlewares/Third_Party/FreeRTOS/Source/tasks.c:949:9
	ldr	r2, [sp, #48]
	.loc	3 949 50                        @ ../Middlewares/Third_Party/FreeRTOS/Source/tasks.c:949:50
	str	r1, [r2, #24]
	.loc	3 950 62 is_stmt 1              @ ../Middlewares/Third_Party/FreeRTOS/Source/tasks.c:950:62
	ldr	r1, [sp, #48]
	.loc	3 950 47 is_stmt 0              @ ../Middlewares/Third_Party/FreeRTOS/Source/tasks.c:950:47
	str	r1, [r1, #36]
.Ltmp53:
	.loc	3 992 3 is_stmt 1               @ ../Middlewares/Third_Party/FreeRTOS/Source/tasks.c:992:3
	ldr	r1, [sp, #48]
	.loc	3 992 29 is_stmt 0              @ ../Middlewares/Third_Party/FreeRTOS/Source/tasks.c:992:29
	str	r0, [r1, #76]
	.loc	3 993 3 is_stmt 1               @ ../Middlewares/Third_Party/FreeRTOS/Source/tasks.c:993:3
	ldr	r1, [sp, #48]
	.loc	3 993 27 is_stmt 0              @ ../Middlewares/Third_Party/FreeRTOS/Source/tasks.c:993:27
	strb.w	r0, [r1, #80]
.Ltmp54:
	.loc	3 1008 3 is_stmt 1              @ ../Middlewares/Third_Party/FreeRTOS/Source/tasks.c:1008:3
	ldr	r1, [sp, #48]
	.loc	3 1008 28 is_stmt 0             @ ../Middlewares/Third_Party/FreeRTOS/Source/tasks.c:1008:28
	strb.w	r0, [r1, #82]
.Ltmp55:
	.loc	3 1058 52 is_stmt 1             @ ../Middlewares/Third_Party/FreeRTOS/Source/tasks.c:1058:52
	ldr	r0, [sp, #8]
	.loc	3 1058 66 is_stmt 0             @ ../Middlewares/Third_Party/FreeRTOS/Source/tasks.c:1058:66
	ldr	r1, [sp, #24]
	.loc	3 1058 78                       @ ../Middlewares/Third_Party/FreeRTOS/Source/tasks.c:1058:78
	ldr	r2, [sp, #12]
	.loc	3 1058 29                       @ ../Middlewares/Third_Party/FreeRTOS/Source/tasks.c:1058:29
	bl	pxPortInitialiseStack
	.loc	3 1058 4                        @ ../Middlewares/Third_Party/FreeRTOS/Source/tasks.c:1058:4
	ldr	r1, [sp, #48]
	.loc	3 1058 27                       @ ../Middlewares/Third_Party/FreeRTOS/Source/tasks.c:1058:27
	str	r0, [r1]
.Ltmp56:
	.loc	3 1064 6 is_stmt 1              @ ../Middlewares/Third_Party/FreeRTOS/Source/tasks.c:1064:6
	ldr	r0, [sp, #44]
.Ltmp57:
	.loc	3 1064 6 is_stmt 0              @ ../Middlewares/Third_Party/FreeRTOS/Source/tasks.c:1064:6
	cbz	r0, .LBB1_18
	b	.LBB1_17
.LBB1_17:
.Ltmp58:
	.loc	3 1068 37 is_stmt 1             @ ../Middlewares/Third_Party/FreeRTOS/Source/tasks.c:1068:37
	ldr	r0, [sp, #48]
	.loc	3 1068 4 is_stmt 0              @ ../Middlewares/Third_Party/FreeRTOS/Source/tasks.c:1068:4
	ldr	r1, [sp, #44]
	.loc	3 1068 18                       @ ../Middlewares/Third_Party/FreeRTOS/Source/tasks.c:1068:18
	str	r0, [r1]
	.loc	3 1069 2 is_stmt 1              @ ../Middlewares/Third_Party/FreeRTOS/Source/tasks.c:1069:2
	b	.LBB1_19
.Ltmp59:
.LBB1_18:
	.loc	3 0 2 is_stmt 0                 @ ../Middlewares/Third_Party/FreeRTOS/Source/tasks.c:0:2
	b	.LBB1_19
.LBB1_19:
	.loc	3 1074 1 is_stmt 1              @ ../Middlewares/Third_Party/FreeRTOS/Source/tasks.c:1074:1
	add	sp, #32
	pop	{r7, pc}
.Ltmp60:
.Lfunc_end1:
	.size	prvInitialiseNewTask, .Lfunc_end1-prvInitialiseNewTask
	.cfi_endproc
	.cantunwind
	.fnend
                                        @ -- End function
	.section	.text.prvAddNewTaskToReadyList,"ax",%progbits
	.p2align	2                               @ -- Begin function prvAddNewTaskToReadyList
	.type	prvAddNewTaskToReadyList,%function
	.code	16                              @ @prvAddNewTaskToReadyList
	.thumb_func
prvAddNewTaskToReadyList:
.Lfunc_begin2:
	.loc	3 1078 0                        @ ../Middlewares/Third_Party/FreeRTOS/Source/tasks.c:1078:0
	.fnstart
	.cfi_startproc
@ %bb.0:
	.save	{r7, lr}
	push	{r7, lr}
	.cfi_def_cfa_offset 8
	.cfi_offset lr, -4
	.cfi_offset r7, -8
	.pad	#8
	sub	sp, #8
	.cfi_def_cfa_offset 16
	str	r0, [sp, #4]
.Ltmp61:
	.loc	3 1081 2 prologue_end           @ ../Middlewares/Third_Party/FreeRTOS/Source/tasks.c:1081:2
	bl	vPortEnterCritical
.Ltmp62:
	.loc	3 1083 25                       @ ../Middlewares/Third_Party/FreeRTOS/Source/tasks.c:1083:25
	movw	r1, :lower16:uxCurrentNumberOfTasks
	movt	r1, :upper16:uxCurrentNumberOfTasks
	ldr	r0, [r1]
	adds	r0, #1
	str	r0, [r1]
.Ltmp63:
	.loc	3 1084 7                        @ ../Middlewares/Third_Party/FreeRTOS/Source/tasks.c:1084:7
	movw	r0, :lower16:pxCurrentTCB
	movt	r0, :upper16:pxCurrentTCB
	ldr	r0, [r0]
.Ltmp64:
	.loc	3 1084 7 is_stmt 0              @ ../Middlewares/Third_Party/FreeRTOS/Source/tasks.c:1084:7
	cbnz	r0, .LBB2_5
	b	.LBB2_1
.LBB2_1:
.Ltmp65:
	.loc	3 1088 19 is_stmt 1             @ ../Middlewares/Third_Party/FreeRTOS/Source/tasks.c:1088:19
	ldr	r0, [sp, #4]
	.loc	3 1088 17 is_stmt 0             @ ../Middlewares/Third_Party/FreeRTOS/Source/tasks.c:1088:17
	movw	r1, :lower16:pxCurrentTCB
	movt	r1, :upper16:pxCurrentTCB
	str	r0, [r1]
.Ltmp66:
	.loc	3 1090 8 is_stmt 1              @ ../Middlewares/Third_Party/FreeRTOS/Source/tasks.c:1090:8
	movw	r0, :lower16:uxCurrentNumberOfTasks
	movt	r0, :upper16:uxCurrentNumberOfTasks
	ldr	r0, [r0]
.Ltmp67:
	.loc	3 1090 8 is_stmt 0              @ ../Middlewares/Third_Party/FreeRTOS/Source/tasks.c:1090:8
	cmp	r0, #1
	bne	.LBB2_3
	b	.LBB2_2
.LBB2_2:
.Ltmp68:
	.loc	3 1095 5 is_stmt 1              @ ../Middlewares/Third_Party/FreeRTOS/Source/tasks.c:1095:5
	bl	prvInitialiseTaskLists
	.loc	3 1096 4                        @ ../Middlewares/Third_Party/FreeRTOS/Source/tasks.c:1096:4
	b	.LBB2_4
.Ltmp69:
.LBB2_3:
	.loc	3 0 4 is_stmt 0                 @ ../Middlewares/Third_Party/FreeRTOS/Source/tasks.c:0:4
	b	.LBB2_4
.LBB2_4:
	.loc	3 1101 3 is_stmt 1              @ ../Middlewares/Third_Party/FreeRTOS/Source/tasks.c:1101:3
	b	.LBB2_12
.Ltmp70:
.LBB2_5:
	.loc	3 1107 8                        @ ../Middlewares/Third_Party/FreeRTOS/Source/tasks.c:1107:8
	movw	r0, :lower16:xSchedulerRunning
	movt	r0, :upper16:xSchedulerRunning
	ldr	r0, [r0]
.Ltmp71:
	.loc	3 1107 8 is_stmt 0              @ ../Middlewares/Third_Party/FreeRTOS/Source/tasks.c:1107:8
	cbnz	r0, .LBB2_10
	b	.LBB2_6
.LBB2_6:
.Ltmp72:
	.loc	3 1109 9 is_stmt 1              @ ../Middlewares/Third_Party/FreeRTOS/Source/tasks.c:1109:9
	movw	r0, :lower16:pxCurrentTCB
	movt	r0, :upper16:pxCurrentTCB
	ldr	r0, [r0]
	.loc	3 1109 23 is_stmt 0             @ ../Middlewares/Third_Party/FreeRTOS/Source/tasks.c:1109:23
	ldr	r0, [r0, #44]
	.loc	3 1109 37                       @ ../Middlewares/Third_Party/FreeRTOS/Source/tasks.c:1109:37
	ldr	r1, [sp, #4]
	.loc	3 1109 47                       @ ../Middlewares/Third_Party/FreeRTOS/Source/tasks.c:1109:47
	ldr	r1, [r1, #44]
.Ltmp73:
	.loc	3 1109 9                        @ ../Middlewares/Third_Party/FreeRTOS/Source/tasks.c:1109:9
	cmp	r0, r1
	bhi	.LBB2_8
	b	.LBB2_7
.LBB2_7:
.Ltmp74:
	.loc	3 1111 21 is_stmt 1             @ ../Middlewares/Third_Party/FreeRTOS/Source/tasks.c:1111:21
	ldr	r0, [sp, #4]
	.loc	3 1111 19 is_stmt 0             @ ../Middlewares/Third_Party/FreeRTOS/Source/tasks.c:1111:19
	movw	r1, :lower16:pxCurrentTCB
	movt	r1, :upper16:pxCurrentTCB
	str	r0, [r1]
	.loc	3 1112 5 is_stmt 1              @ ../Middlewares/Third_Party/FreeRTOS/Source/tasks.c:1112:5
	b	.LBB2_9
.Ltmp75:
.LBB2_8:
	.loc	3 0 5 is_stmt 0                 @ ../Middlewares/Third_Party/FreeRTOS/Source/tasks.c:0:5
	b	.LBB2_9
.LBB2_9:
	.loc	3 1117 4 is_stmt 1              @ ../Middlewares/Third_Party/FreeRTOS/Source/tasks.c:1117:4
	b	.LBB2_11
.Ltmp76:
.LBB2_10:
	.loc	3 0 4 is_stmt 0                 @ ../Middlewares/Third_Party/FreeRTOS/Source/tasks.c:0:4
	b	.LBB2_11
.LBB2_11:
	b	.LBB2_12
.LBB2_12:
	.loc	3 1124 15 is_stmt 1             @ ../Middlewares/Third_Party/FreeRTOS/Source/tasks.c:1124:15
	movw	r1, :lower16:uxTaskNumber
	movt	r1, :upper16:uxTaskNumber
	ldr	r0, [r1]
	adds	r0, #1
	str	r0, [r1]
	.loc	3 1134 44                       @ ../Middlewares/Third_Party/FreeRTOS/Source/tasks.c:1134:44
	ldr	r0, [sp, #4]
	.loc	3 1134 56 is_stmt 0             @ ../Middlewares/Third_Party/FreeRTOS/Source/tasks.c:1134:56
	ldr	r1, [r0, #44]
	movs	r0, #1
	.loc	3 1134 37                       @ ../Middlewares/Third_Party/FreeRTOS/Source/tasks.c:1134:37
	lsl.w	r2, r0, r1
	.loc	3 1134 28                       @ ../Middlewares/Third_Party/FreeRTOS/Source/tasks.c:1134:28
	movw	r1, :lower16:uxTopReadyPriority
	movt	r1, :upper16:uxTopReadyPriority
	ldr	r0, [r1]
	orrs	r0, r2
	str	r0, [r1]
	.loc	3 1134 112                      @ ../Middlewares/Third_Party/FreeRTOS/Source/tasks.c:1134:112
	ldr	r1, [sp, #4]
	.loc	3 1134 124                      @ ../Middlewares/Third_Party/FreeRTOS/Source/tasks.c:1134:124
	ldr	r0, [r1, #44]
	.loc	3 1134 91                       @ ../Middlewares/Third_Party/FreeRTOS/Source/tasks.c:1134:91
	add.w	r2, r0, r0, lsl #2
	movw	r0, :lower16:pxReadyTasksLists
	movt	r0, :upper16:pxReadyTasksLists
	add.w	r0, r0, r2, lsl #2
	.loc	3 1134 157                      @ ../Middlewares/Third_Party/FreeRTOS/Source/tasks.c:1134:157
	adds	r1, #4
	.loc	3 1134 72                       @ ../Middlewares/Third_Party/FreeRTOS/Source/tasks.c:1134:72
	bl	vListInsertEnd
.Ltmp77:
	.loc	3 1138 2 is_stmt 1              @ ../Middlewares/Third_Party/FreeRTOS/Source/tasks.c:1138:2
	bl	vPortExitCritical
.Ltmp78:
	.loc	3 1140 6                        @ ../Middlewares/Third_Party/FreeRTOS/Source/tasks.c:1140:6
	movw	r0, :lower16:xSchedulerRunning
	movt	r0, :upper16:xSchedulerRunning
	ldr	r0, [r0]
.Ltmp79:
	.loc	3 1140 6 is_stmt 0              @ ../Middlewares/Third_Party/FreeRTOS/Source/tasks.c:1140:6
	cbz	r0, .LBB2_17
	b	.LBB2_13
.LBB2_13:
.Ltmp80:
	.loc	3 1144 7 is_stmt 1              @ ../Middlewares/Third_Party/FreeRTOS/Source/tasks.c:1144:7
	movw	r0, :lower16:pxCurrentTCB
	movt	r0, :upper16:pxCurrentTCB
	ldr	r0, [r0]
	.loc	3 1144 21 is_stmt 0             @ ../Middlewares/Third_Party/FreeRTOS/Source/tasks.c:1144:21
	ldr	r0, [r0, #44]
	.loc	3 1144 34                       @ ../Middlewares/Third_Party/FreeRTOS/Source/tasks.c:1144:34
	ldr	r1, [sp, #4]
	.loc	3 1144 44                       @ ../Middlewares/Third_Party/FreeRTOS/Source/tasks.c:1144:44
	ldr	r1, [r1, #44]
.Ltmp81:
	.loc	3 1144 7                        @ ../Middlewares/Third_Party/FreeRTOS/Source/tasks.c:1144:7
	cmp	r0, r1
	bhs	.LBB2_15
	b	.LBB2_14
.LBB2_14:
	.loc	3 0 7                           @ ../Middlewares/Third_Party/FreeRTOS/Source/tasks.c:0:7
	movw	r1, #60676
	movt	r1, #57344
	mov.w	r0, #268435456
.Ltmp82:
	.loc	3 1146 51 is_stmt 1             @ ../Middlewares/Third_Party/FreeRTOS/Source/tasks.c:1146:51
	str	r0, [r1]
	.loc	3 1146 70 is_stmt 0             @ ../Middlewares/Third_Party/FreeRTOS/Source/tasks.c:1146:70
	@APP
	dsb	sy
	@NO_APP
	.loc	3 1146 108                      @ ../Middlewares/Third_Party/FreeRTOS/Source/tasks.c:1146:108
	@APP
	isb	sy
	@NO_APP
.Ltmp83:
	.loc	3 1147 3 is_stmt 1              @ ../Middlewares/Third_Party/FreeRTOS/Source/tasks.c:1147:3
	b	.LBB2_16
.Ltmp84:
.LBB2_15:
	.loc	3 0 3 is_stmt 0                 @ ../Middlewares/Third_Party/FreeRTOS/Source/tasks.c:0:3
	b	.LBB2_16
.LBB2_16:
	.loc	3 1152 2 is_stmt 1              @ ../Middlewares/Third_Party/FreeRTOS/Source/tasks.c:1152:2
	b	.LBB2_18
.Ltmp85:
.LBB2_17:
	.loc	3 0 2 is_stmt 0                 @ ../Middlewares/Third_Party/FreeRTOS/Source/tasks.c:0:2
	b	.LBB2_18
.LBB2_18:
	.loc	3 1157 1 is_stmt 1              @ ../Middlewares/Third_Party/FreeRTOS/Source/tasks.c:1157:1
	add	sp, #8
	pop	{r7, pc}
.Ltmp86:
.Lfunc_end2:
	.size	prvAddNewTaskToReadyList, .Lfunc_end2-prvAddNewTaskToReadyList
	.cfi_endproc
	.cantunwind
	.fnend
                                        @ -- End function
	.section	.text.xTaskCreate,"ax",%progbits
	.hidden	xTaskCreate                     @ -- Begin function xTaskCreate
	.globl	xTaskCreate
	.p2align	2
	.type	xTaskCreate,%function
	.code	16                              @ @xTaskCreate
	.thumb_func
xTaskCreate:
.Lfunc_begin3:
	.loc	3 739 0                         @ ../Middlewares/Third_Party/FreeRTOS/Source/tasks.c:739:0
	.fnstart
	.cfi_startproc
@ %bb.0:
	.save	{r4, r5, r6, lr}
	push	{r4, r5, r6, lr}
	.cfi_def_cfa_offset 16
	.cfi_offset lr, -4
	.cfi_offset r6, -8
	.cfi_offset r5, -12
	.cfi_offset r4, -16
	.pad	#48
	sub	sp, #48
	.cfi_def_cfa_offset 64
	ldr.w	r12, [sp, #68]
	ldr.w	r12, [sp, #64]
                                        @ kill: def $r12 killed $r2
	str	r0, [sp, #44]
	str	r1, [sp, #40]
	strh.w	r2, [sp, #38]
	str	r3, [sp, #32]
.Ltmp87:
	.loc	3 773 43 prologue_end           @ ../Middlewares/Third_Party/FreeRTOS/Source/tasks.c:773:43
	ldrh.w	r0, [sp, #38]
	.loc	3 773 58 is_stmt 0              @ ../Middlewares/Third_Party/FreeRTOS/Source/tasks.c:773:58
	lsls	r0, r0, #2
	.loc	3 773 14                        @ ../Middlewares/Third_Party/FreeRTOS/Source/tasks.c:773:14
	bl	pvPortMalloc
	.loc	3 773 12                        @ ../Middlewares/Third_Party/FreeRTOS/Source/tasks.c:773:12
	str	r0, [sp, #20]
.Ltmp88:
	.loc	3 775 8 is_stmt 1               @ ../Middlewares/Third_Party/FreeRTOS/Source/tasks.c:775:8
	ldr	r0, [sp, #20]
.Ltmp89:
	.loc	3 775 8 is_stmt 0               @ ../Middlewares/Third_Party/FreeRTOS/Source/tasks.c:775:8
	cbz	r0, .LBB3_5
	b	.LBB3_1
.LBB3_1:
	.loc	3 0 8                           @ ../Middlewares/Third_Party/FreeRTOS/Source/tasks.c:0:8
	movs	r0, #84
.Ltmp90:
	.loc	3 778 28 is_stmt 1              @ ../Middlewares/Third_Party/FreeRTOS/Source/tasks.c:778:28
	bl	pvPortMalloc
	.loc	3 778 14 is_stmt 0              @ ../Middlewares/Third_Party/FreeRTOS/Source/tasks.c:778:14
	str	r0, [sp, #28]
.Ltmp91:
	.loc	3 780 9 is_stmt 1               @ ../Middlewares/Third_Party/FreeRTOS/Source/tasks.c:780:9
	ldr	r0, [sp, #28]
.Ltmp92:
	.loc	3 780 9 is_stmt 0               @ ../Middlewares/Third_Party/FreeRTOS/Source/tasks.c:780:9
	cbz	r0, .LBB3_3
	b	.LBB3_2
.LBB3_2:
.Ltmp93:
	.loc	3 783 26 is_stmt 1              @ ../Middlewares/Third_Party/FreeRTOS/Source/tasks.c:783:26
	ldr	r0, [sp, #20]
	.loc	3 783 6 is_stmt 0               @ ../Middlewares/Third_Party/FreeRTOS/Source/tasks.c:783:6
	ldr	r1, [sp, #28]
	.loc	3 783 24                        @ ../Middlewares/Third_Party/FreeRTOS/Source/tasks.c:783:24
	str	r0, [r1, #48]
	.loc	3 784 5 is_stmt 1               @ ../Middlewares/Third_Party/FreeRTOS/Source/tasks.c:784:5
	b	.LBB3_4
.Ltmp94:
.LBB3_3:
	.loc	3 789 17                        @ ../Middlewares/Third_Party/FreeRTOS/Source/tasks.c:789:17
	ldr	r0, [sp, #20]
	.loc	3 789 6 is_stmt 0               @ ../Middlewares/Third_Party/FreeRTOS/Source/tasks.c:789:6
	bl	vPortFree
	b	.LBB3_4
.Ltmp95:
.LBB3_4:
	.loc	3 791 4 is_stmt 1               @ ../Middlewares/Third_Party/FreeRTOS/Source/tasks.c:791:4
	b	.LBB3_6
.Ltmp96:
.LBB3_5:
	.loc	3 0 4 is_stmt 0                 @ ../Middlewares/Third_Party/FreeRTOS/Source/tasks.c:0:4
	movs	r0, #0
.Ltmp97:
	.loc	3 794 14 is_stmt 1              @ ../Middlewares/Third_Party/FreeRTOS/Source/tasks.c:794:14
	str	r0, [sp, #28]
	b	.LBB3_6
.Ltmp98:
.LBB3_6:
	.loc	3 799 7                         @ ../Middlewares/Third_Party/FreeRTOS/Source/tasks.c:799:7
	ldr	r0, [sp, #28]
.Ltmp99:
	.loc	3 799 7 is_stmt 0               @ ../Middlewares/Third_Party/FreeRTOS/Source/tasks.c:799:7
	cbz	r0, .LBB3_8
	b	.LBB3_7
.LBB3_7:
.Ltmp100:
	.loc	3 805 5 is_stmt 1               @ ../Middlewares/Third_Party/FreeRTOS/Source/tasks.c:805:5
	ldr	r0, [sp, #28]
	movs	r6, #0
	.loc	3 805 37 is_stmt 0              @ ../Middlewares/Third_Party/FreeRTOS/Source/tasks.c:805:37
	strb.w	r6, [r0, #81]
.Ltmp101:
	.loc	3 809 26 is_stmt 1              @ ../Middlewares/Third_Party/FreeRTOS/Source/tasks.c:809:26
	ldr	r0, [sp, #44]
	.loc	3 809 38 is_stmt 0              @ ../Middlewares/Third_Party/FreeRTOS/Source/tasks.c:809:38
	ldr	r1, [sp, #40]
	.loc	3 809 59                        @ ../Middlewares/Third_Party/FreeRTOS/Source/tasks.c:809:59
	ldrh.w	r2, [sp, #38]
	.loc	3 809 73                        @ ../Middlewares/Third_Party/FreeRTOS/Source/tasks.c:809:73
	ldr	r3, [sp, #32]
	.loc	3 809 87                        @ ../Middlewares/Third_Party/FreeRTOS/Source/tasks.c:809:87
	ldr.w	r12, [sp, #64]
	.loc	3 809 99                        @ ../Middlewares/Third_Party/FreeRTOS/Source/tasks.c:809:99
	ldr	r4, [sp, #68]
	.loc	3 809 114                       @ ../Middlewares/Third_Party/FreeRTOS/Source/tasks.c:809:114
	ldr	r5, [sp, #28]
	.loc	3 809 4                         @ ../Middlewares/Third_Party/FreeRTOS/Source/tasks.c:809:4
	mov	lr, sp
	str.w	r6, [lr, #12]
	str.w	r5, [lr, #8]
	str.w	r4, [lr, #4]
	str.w	r12, [lr]
	bl	prvInitialiseNewTask
	.loc	3 810 30 is_stmt 1              @ ../Middlewares/Third_Party/FreeRTOS/Source/tasks.c:810:30
	ldr	r0, [sp, #28]
	.loc	3 810 4 is_stmt 0               @ ../Middlewares/Third_Party/FreeRTOS/Source/tasks.c:810:4
	bl	prvAddNewTaskToReadyList
	movs	r0, #1
	.loc	3 811 12 is_stmt 1              @ ../Middlewares/Third_Party/FreeRTOS/Source/tasks.c:811:12
	str	r0, [sp, #24]
	.loc	3 812 3                         @ ../Middlewares/Third_Party/FreeRTOS/Source/tasks.c:812:3
	b	.LBB3_9
.Ltmp102:
.LBB3_8:
	.loc	3 0 3 is_stmt 0                 @ ../Middlewares/Third_Party/FreeRTOS/Source/tasks.c:0:3
	mov.w	r0, #-1
.Ltmp103:
	.loc	3 815 12 is_stmt 1              @ ../Middlewares/Third_Party/FreeRTOS/Source/tasks.c:815:12
	str	r0, [sp, #24]
	b	.LBB3_9
.Ltmp104:
.LBB3_9:
	.loc	3 818 10                        @ ../Middlewares/Third_Party/FreeRTOS/Source/tasks.c:818:10
	ldr	r0, [sp, #24]
	.loc	3 818 3 is_stmt 0               @ ../Middlewares/Third_Party/FreeRTOS/Source/tasks.c:818:3
	add	sp, #48
	pop	{r4, r5, r6, pc}
.Ltmp105:
.Lfunc_end3:
	.size	xTaskCreate, .Lfunc_end3-xTaskCreate
	.cfi_endproc
	.cantunwind
	.fnend
                                        @ -- End function
	.section	.text.vTaskDelete,"ax",%progbits
	.hidden	vTaskDelete                     @ -- Begin function vTaskDelete
	.globl	vTaskDelete
	.p2align	2
	.type	vTaskDelete,%function
	.code	16                              @ @vTaskDelete
	.thumb_func
vTaskDelete:
.Lfunc_begin4:
	.loc	3 1163 0 is_stmt 1              @ ../Middlewares/Third_Party/FreeRTOS/Source/tasks.c:1163:0
	.fnstart
	.cfi_startproc
@ %bb.0:
	.save	{r7, lr}
	push	{r7, lr}
	.cfi_def_cfa_offset 8
	.cfi_offset lr, -4
	.cfi_offset r7, -8
	.pad	#16
	sub	sp, #16
	.cfi_def_cfa_offset 24
	str	r0, [sp, #8]
.Ltmp106:
	.loc	3 1166 3 prologue_end           @ ../Middlewares/Third_Party/FreeRTOS/Source/tasks.c:1166:3
	bl	vPortEnterCritical
.Ltmp107:
	.loc	3 1170 18                       @ ../Middlewares/Third_Party/FreeRTOS/Source/tasks.c:1170:18
	ldr	r0, [sp, #8]
	.loc	3 1170 14 is_stmt 0             @ ../Middlewares/Third_Party/FreeRTOS/Source/tasks.c:1170:14
	cbnz	r0, .LBB4_2
	b	.LBB4_1
.LBB4_1:
	.loc	3 1170 43                       @ ../Middlewares/Third_Party/FreeRTOS/Source/tasks.c:1170:43
	movw	r0, :lower16:pxCurrentTCB
	movt	r0, :upper16:pxCurrentTCB
	ldr	r0, [r0]
	.loc	3 1170 14                       @ ../Middlewares/Third_Party/FreeRTOS/Source/tasks.c:1170:14
	str	r0, [sp]                        @ 4-byte Spill
	b	.LBB4_3
.LBB4_2:
	.loc	3 1170 60                       @ ../Middlewares/Third_Party/FreeRTOS/Source/tasks.c:1170:60
	ldr	r0, [sp, #8]
	.loc	3 1170 14                       @ ../Middlewares/Third_Party/FreeRTOS/Source/tasks.c:1170:14
	str	r0, [sp]                        @ 4-byte Spill
	b	.LBB4_3
.LBB4_3:
	ldr	r0, [sp]                        @ 4-byte Reload
	.loc	3 1170 10                       @ ../Middlewares/Third_Party/FreeRTOS/Source/tasks.c:1170:10
	str	r0, [sp, #4]
.Ltmp108:
	.loc	3 1173 25 is_stmt 1             @ ../Middlewares/Third_Party/FreeRTOS/Source/tasks.c:1173:25
	ldr	r0, [sp, #4]
	.loc	3 1173 32 is_stmt 0             @ ../Middlewares/Third_Party/FreeRTOS/Source/tasks.c:1173:32
	adds	r0, #4
	.loc	3 1173 8                        @ ../Middlewares/Third_Party/FreeRTOS/Source/tasks.c:1173:8
	bl	uxListRemove
.Ltmp109:
	.loc	3 1173 8                        @ ../Middlewares/Third_Party/FreeRTOS/Source/tasks.c:1173:8
	cbnz	r0, .LBB4_7
	b	.LBB4_4
.LBB4_4:
.Ltmp110:
	.loc	3 1175 39 is_stmt 1             @ ../Middlewares/Third_Party/FreeRTOS/Source/tasks.c:1175:39
	ldr	r0, [sp, #4]
	.loc	3 1175 46 is_stmt 0             @ ../Middlewares/Third_Party/FreeRTOS/Source/tasks.c:1175:46
	ldr	r0, [r0, #44]
	.loc	3 1175 18                       @ ../Middlewares/Third_Party/FreeRTOS/Source/tasks.c:1175:18
	add.w	r1, r0, r0, lsl #2
	movw	r0, :lower16:pxReadyTasksLists
	movt	r0, :upper16:pxReadyTasksLists
	.loc	3 1175 66                       @ ../Middlewares/Third_Party/FreeRTOS/Source/tasks.c:1175:66
	ldr.w	r0, [r0, r1, lsl #2]
.Ltmp111:
	.loc	3 1175 11                       @ ../Middlewares/Third_Party/FreeRTOS/Source/tasks.c:1175:11
	cbnz	r0, .LBB4_6
	b	.LBB4_5
.LBB4_5:
.Ltmp112:
	.loc	3 1175 153                      @ ../Middlewares/Third_Party/FreeRTOS/Source/tasks.c:1175:153
	ldr	r0, [sp, #4]
	.loc	3 1175 160                      @ ../Middlewares/Third_Party/FreeRTOS/Source/tasks.c:1175:160
	ldr	r1, [r0, #44]
	movs	r0, #1
	.loc	3 1175 146                      @ ../Middlewares/Third_Party/FreeRTOS/Source/tasks.c:1175:146
	lsl.w	r2, r0, r1
	.loc	3 1175 136                      @ ../Middlewares/Third_Party/FreeRTOS/Source/tasks.c:1175:136
	movw	r1, :lower16:uxTopReadyPriority
	movt	r1, :upper16:uxTopReadyPriority
	ldr	r0, [r1]
	bics	r0, r2
	str	r0, [r1]
	.loc	3 1175 178                      @ ../Middlewares/Third_Party/FreeRTOS/Source/tasks.c:1175:178
	b	.LBB4_6
.Ltmp113:
.LBB4_6:
	.loc	3 1176 4 is_stmt 1              @ ../Middlewares/Third_Party/FreeRTOS/Source/tasks.c:1176:4
	b	.LBB4_8
.Ltmp114:
.LBB4_7:
	.loc	3 0 4 is_stmt 0                 @ ../Middlewares/Third_Party/FreeRTOS/Source/tasks.c:0:4
	b	.LBB4_8
.LBB4_8:
.Ltmp115:
	.loc	3 1183 15 is_stmt 1             @ ../Middlewares/Third_Party/FreeRTOS/Source/tasks.c:1183:15
	ldr	r0, [sp, #4]
	.loc	3 1183 42 is_stmt 0             @ ../Middlewares/Third_Party/FreeRTOS/Source/tasks.c:1183:42
	ldr	r0, [r0, #40]
.Ltmp116:
	.loc	3 1183 8                        @ ../Middlewares/Third_Party/FreeRTOS/Source/tasks.c:1183:8
	cbz	r0, .LBB4_10
	b	.LBB4_9
.LBB4_9:
.Ltmp117:
	.loc	3 1185 31 is_stmt 1             @ ../Middlewares/Third_Party/FreeRTOS/Source/tasks.c:1185:31
	ldr	r0, [sp, #4]
	.loc	3 1185 38 is_stmt 0             @ ../Middlewares/Third_Party/FreeRTOS/Source/tasks.c:1185:38
	adds	r0, #24
	.loc	3 1185 14                       @ ../Middlewares/Third_Party/FreeRTOS/Source/tasks.c:1185:14
	bl	uxListRemove
	.loc	3 1186 4 is_stmt 1              @ ../Middlewares/Third_Party/FreeRTOS/Source/tasks.c:1186:4
	b	.LBB4_11
.Ltmp118:
.LBB4_10:
	.loc	3 0 4 is_stmt 0                 @ ../Middlewares/Third_Party/FreeRTOS/Source/tasks.c:0:4
	b	.LBB4_11
.LBB4_11:
	.loc	3 1196 16 is_stmt 1             @ ../Middlewares/Third_Party/FreeRTOS/Source/tasks.c:1196:16
	movw	r1, :lower16:uxTaskNumber
	movt	r1, :upper16:uxTaskNumber
	ldr	r0, [r1]
	adds	r0, #1
	str	r0, [r1]
.Ltmp119:
	.loc	3 1198 8                        @ ../Middlewares/Third_Party/FreeRTOS/Source/tasks.c:1198:8
	ldr	r0, [sp, #4]
	.loc	3 1198 17 is_stmt 0             @ ../Middlewares/Third_Party/FreeRTOS/Source/tasks.c:1198:17
	movw	r1, :lower16:pxCurrentTCB
	movt	r1, :upper16:pxCurrentTCB
	ldr	r1, [r1]
.Ltmp120:
	.loc	3 1198 8                        @ ../Middlewares/Third_Party/FreeRTOS/Source/tasks.c:1198:8
	cmp	r0, r1
	bne	.LBB4_13
	b	.LBB4_12
.LBB4_12:
.Ltmp121:
	.loc	3 1205 51 is_stmt 1             @ ../Middlewares/Third_Party/FreeRTOS/Source/tasks.c:1205:51
	ldr	r0, [sp, #4]
	.loc	3 1205 58 is_stmt 0             @ ../Middlewares/Third_Party/FreeRTOS/Source/tasks.c:1205:58
	adds	r1, r0, #4
	.loc	3 1205 5                        @ ../Middlewares/Third_Party/FreeRTOS/Source/tasks.c:1205:5
	movw	r0, :lower16:xTasksWaitingTermination
	movt	r0, :upper16:xTasksWaitingTermination
	bl	vListInsertEnd
	.loc	3 1210 5 is_stmt 1              @ ../Middlewares/Third_Party/FreeRTOS/Source/tasks.c:1210:5
	movw	r1, :lower16:uxDeletedTasksWaitingCleanUp
	movt	r1, :upper16:uxDeletedTasksWaitingCleanUp
	ldr	r0, [r1]
	adds	r0, #1
	str	r0, [r1]
	.loc	3 1222 4                        @ ../Middlewares/Third_Party/FreeRTOS/Source/tasks.c:1222:4
	b	.LBB4_14
.Ltmp122:
.LBB4_13:
	.loc	3 1225 5                        @ ../Middlewares/Third_Party/FreeRTOS/Source/tasks.c:1225:5
	movw	r1, :lower16:uxCurrentNumberOfTasks
	movt	r1, :upper16:uxCurrentNumberOfTasks
	ldr	r0, [r1]
	subs	r0, #1
	str	r0, [r1]
	.loc	3 1227 19                       @ ../Middlewares/Third_Party/FreeRTOS/Source/tasks.c:1227:19
	ldr	r0, [sp, #4]
	.loc	3 1227 5 is_stmt 0              @ ../Middlewares/Third_Party/FreeRTOS/Source/tasks.c:1227:5
	bl	prvDeleteTCB
	.loc	3 1231 5 is_stmt 1              @ ../Middlewares/Third_Party/FreeRTOS/Source/tasks.c:1231:5
	bl	prvResetNextTaskUnblockTime
	b	.LBB4_14
.Ltmp123:
.LBB4_14:
	.loc	3 1234 3                        @ ../Middlewares/Third_Party/FreeRTOS/Source/tasks.c:1234:3
	bl	vPortExitCritical
.Ltmp124:
	.loc	3 1238 7                        @ ../Middlewares/Third_Party/FreeRTOS/Source/tasks.c:1238:7
	movw	r0, :lower16:xSchedulerRunning
	movt	r0, :upper16:xSchedulerRunning
	ldr	r0, [r0]
.Ltmp125:
	.loc	3 1238 7 is_stmt 0              @ ../Middlewares/Third_Party/FreeRTOS/Source/tasks.c:1238:7
	cbz	r0, .LBB4_22
	b	.LBB4_15
.LBB4_15:
.Ltmp126:
	.loc	3 1240 8 is_stmt 1              @ ../Middlewares/Third_Party/FreeRTOS/Source/tasks.c:1240:8
	ldr	r0, [sp, #4]
	.loc	3 1240 17 is_stmt 0             @ ../Middlewares/Third_Party/FreeRTOS/Source/tasks.c:1240:17
	movw	r1, :lower16:pxCurrentTCB
	movt	r1, :upper16:pxCurrentTCB
	ldr	r1, [r1]
.Ltmp127:
	.loc	3 1240 8                        @ ../Middlewares/Third_Party/FreeRTOS/Source/tasks.c:1240:8
	cmp	r0, r1
	bne	.LBB4_20
	b	.LBB4_16
.LBB4_16:
.Ltmp128:
	.loc	3 1242 10 is_stmt 1             @ ../Middlewares/Third_Party/FreeRTOS/Source/tasks.c:1242:10
	movw	r0, :lower16:uxSchedulerSuspended
	movt	r0, :upper16:uxSchedulerSuspended
	ldr	r0, [r0]
.Ltmp129:
	.loc	3 1242 9 is_stmt 0              @ ../Middlewares/Third_Party/FreeRTOS/Source/tasks.c:1242:9
	cbz	r0, .LBB4_19
	b	.LBB4_17
.LBB4_17:
.Ltmp130:
	.loc	2 195 2 is_stmt 1               @ ../Middlewares/Third_Party/FreeRTOS/Source/portable/RVDS/ARM_CM4F\portmacro.h:195:2
	@APP
	mov.w	r0, #80
	msr	basepri, r0
	isb	sy
	dsb	sy

	@NO_APP
	str	r0, [sp, #12]
.Ltmp131:
	.loc	3 1242 65                       @ ../Middlewares/Third_Party/FreeRTOS/Source/tasks.c:1242:65
	b	.LBB4_18
.LBB4_18:                               @ =>This Inner Loop Header: Depth=1
.Ltmp132:
	.loc	3 1242 65 is_stmt 0             @ ../Middlewares/Third_Party/FreeRTOS/Source/tasks.c:1242:65
	b	.LBB4_18
.Ltmp133:
.LBB4_19:
	.loc	3 0 65                          @ ../Middlewares/Third_Party/FreeRTOS/Source/tasks.c:0:65
	movw	r1, #60676
	movt	r1, #57344
	mov.w	r0, #268435456
.Ltmp134:
	.loc	3 1243 52 is_stmt 1             @ ../Middlewares/Third_Party/FreeRTOS/Source/tasks.c:1243:52
	str	r0, [r1]
	.loc	3 1243 71 is_stmt 0             @ ../Middlewares/Third_Party/FreeRTOS/Source/tasks.c:1243:71
	@APP
	dsb	sy
	@NO_APP
	.loc	3 1243 109                      @ ../Middlewares/Third_Party/FreeRTOS/Source/tasks.c:1243:109
	@APP
	isb	sy
	@NO_APP
.Ltmp135:
	.loc	3 1244 4 is_stmt 1              @ ../Middlewares/Third_Party/FreeRTOS/Source/tasks.c:1244:4
	b	.LBB4_21
.Ltmp136:
.LBB4_20:
	.loc	3 0 4 is_stmt 0                 @ ../Middlewares/Third_Party/FreeRTOS/Source/tasks.c:0:4
	b	.LBB4_21
.LBB4_21:
	.loc	3 1249 3 is_stmt 1              @ ../Middlewares/Third_Party/FreeRTOS/Source/tasks.c:1249:3
	b	.LBB4_22
.Ltmp137:
.LBB4_22:
	.loc	3 1250 2                        @ ../Middlewares/Third_Party/FreeRTOS/Source/tasks.c:1250:2
	add	sp, #16
	pop	{r7, pc}
.Ltmp138:
.Lfunc_end4:
	.size	vTaskDelete, .Lfunc_end4-vTaskDelete
	.cfi_endproc
	.cantunwind
	.fnend
                                        @ -- End function
	.section	.text.prvDeleteTCB,"ax",%progbits
	.p2align	2                               @ -- Begin function prvDeleteTCB
	.type	prvDeleteTCB,%function
	.code	16                              @ @prvDeleteTCB
	.thumb_func
prvDeleteTCB:
.Lfunc_begin5:
	.loc	3 3888 0                        @ ../Middlewares/Third_Party/FreeRTOS/Source/tasks.c:3888:0
	.fnstart
	.cfi_startproc
@ %bb.0:
	.save	{r7, lr}
	push	{r7, lr}
	.cfi_def_cfa_offset 8
	.cfi_offset lr, -4
	.cfi_offset r7, -8
	.pad	#8
	sub	sp, #8
	.cfi_def_cfa_offset 16
	str	r0, [sp]
.Ltmp139:
	.loc	3 3892 12 prologue_end          @ ../Middlewares/Third_Party/FreeRTOS/Source/tasks.c:3892:12
	ldr	r0, [sp]
.Ltmp140:
	.loc	3 3916 15                       @ ../Middlewares/Third_Party/FreeRTOS/Source/tasks.c:3916:15
	ldrb.w	r0, [r0, #81]
.Ltmp141:
	.loc	3 3916 8 is_stmt 0              @ ../Middlewares/Third_Party/FreeRTOS/Source/tasks.c:3916:8
	cbnz	r0, .LBB5_2
	b	.LBB5_1
.LBB5_1:
.Ltmp142:
	.loc	3 3920 16 is_stmt 1             @ ../Middlewares/Third_Party/FreeRTOS/Source/tasks.c:3920:16
	ldr	r0, [sp]
	.loc	3 3920 23 is_stmt 0             @ ../Middlewares/Third_Party/FreeRTOS/Source/tasks.c:3920:23
	ldr	r0, [r0, #48]
	.loc	3 3920 5                        @ ../Middlewares/Third_Party/FreeRTOS/Source/tasks.c:3920:5
	bl	vPortFree
	.loc	3 3921 16 is_stmt 1             @ ../Middlewares/Third_Party/FreeRTOS/Source/tasks.c:3921:16
	ldr	r0, [sp]
	.loc	3 3921 5 is_stmt 0              @ ../Middlewares/Third_Party/FreeRTOS/Source/tasks.c:3921:5
	bl	vPortFree
	.loc	3 3922 4 is_stmt 1              @ ../Middlewares/Third_Party/FreeRTOS/Source/tasks.c:3922:4
	b	.LBB5_9
.Ltmp143:
.LBB5_2:
	.loc	3 3923 13                       @ ../Middlewares/Third_Party/FreeRTOS/Source/tasks.c:3923:13
	ldr	r0, [sp]
	.loc	3 3923 20 is_stmt 0             @ ../Middlewares/Third_Party/FreeRTOS/Source/tasks.c:3923:20
	ldrb.w	r0, [r0, #81]
.Ltmp144:
	.loc	3 3923 13                       @ ../Middlewares/Third_Party/FreeRTOS/Source/tasks.c:3923:13
	cmp	r0, #1
	bne	.LBB5_4
	b	.LBB5_3
.LBB5_3:
.Ltmp145:
	.loc	3 3927 16 is_stmt 1             @ ../Middlewares/Third_Party/FreeRTOS/Source/tasks.c:3927:16
	ldr	r0, [sp]
	.loc	3 3927 5 is_stmt 0              @ ../Middlewares/Third_Party/FreeRTOS/Source/tasks.c:3927:5
	bl	vPortFree
	.loc	3 3928 4 is_stmt 1              @ ../Middlewares/Third_Party/FreeRTOS/Source/tasks.c:3928:4
	b	.LBB5_8
.Ltmp146:
.LBB5_4:
	.loc	3 3933 10                       @ ../Middlewares/Third_Party/FreeRTOS/Source/tasks.c:3933:10
	ldr	r0, [sp]
	.loc	3 3933 17 is_stmt 0             @ ../Middlewares/Third_Party/FreeRTOS/Source/tasks.c:3933:17
	ldrb.w	r0, [r0, #81]
.Ltmp147:
	.loc	3 3933 9                        @ ../Middlewares/Third_Party/FreeRTOS/Source/tasks.c:3933:9
	cmp	r0, #2
	beq	.LBB5_7
	b	.LBB5_5
.LBB5_5:
.Ltmp148:
	.loc	2 195 2 is_stmt 1               @ ../Middlewares/Third_Party/FreeRTOS/Source/portable/RVDS/ARM_CM4F\portmacro.h:195:2
	@APP
	mov.w	r0, #80
	msr	basepri, r0
	isb	sy
	dsb	sy

	@NO_APP
	str	r0, [sp, #4]
.Ltmp149:
	.loc	3 3933 89                       @ ../Middlewares/Third_Party/FreeRTOS/Source/tasks.c:3933:89
	b	.LBB5_6
.LBB5_6:                                @ =>This Inner Loop Header: Depth=1
.Ltmp150:
	.loc	3 3933 89 is_stmt 0             @ ../Middlewares/Third_Party/FreeRTOS/Source/tasks.c:3933:89
	b	.LBB5_6
.Ltmp151:
.LBB5_7:
	.loc	3 0 89                          @ ../Middlewares/Third_Party/FreeRTOS/Source/tasks.c:0:89
	b	.LBB5_8
.LBB5_8:
	b	.LBB5_9
.LBB5_9:
	.loc	3 3938 2 is_stmt 1              @ ../Middlewares/Third_Party/FreeRTOS/Source/tasks.c:3938:2
	add	sp, #8
	pop	{r7, pc}
.Ltmp152:
.Lfunc_end5:
	.size	prvDeleteTCB, .Lfunc_end5-prvDeleteTCB
	.cfi_endproc
	.cantunwind
	.fnend
                                        @ -- End function
	.section	.text.prvResetNextTaskUnblockTime,"ax",%progbits
	.p2align	2                               @ -- Begin function prvResetNextTaskUnblockTime
	.type	prvResetNextTaskUnblockTime,%function
	.code	16                              @ @prvResetNextTaskUnblockTime
	.thumb_func
prvResetNextTaskUnblockTime:
.Lfunc_begin6:
	.loc	3 3944 0                        @ ../Middlewares/Third_Party/FreeRTOS/Source/tasks.c:3944:0
	.fnstart
	.cfi_startproc
@ %bb.0:
	.pad	#4
	sub	sp, #4
	.cfi_def_cfa_offset 4
.Ltmp153:
	.loc	3 3947 12 prologue_end          @ ../Middlewares/Third_Party/FreeRTOS/Source/tasks.c:3947:12
	movw	r0, :lower16:pxDelayedTaskList
	movt	r0, :upper16:pxDelayedTaskList
	ldr	r0, [r0]
	.loc	3 3947 33 is_stmt 0             @ ../Middlewares/Third_Party/FreeRTOS/Source/tasks.c:3947:33
	ldr	r0, [r0]
.Ltmp154:
	.loc	3 3947 6                        @ ../Middlewares/Third_Party/FreeRTOS/Source/tasks.c:3947:6
	cbnz	r0, .LBB6_2
	b	.LBB6_1
.LBB6_1:
.Ltmp155:
	.loc	3 3953 24 is_stmt 1             @ ../Middlewares/Third_Party/FreeRTOS/Source/tasks.c:3953:24
	movw	r1, :lower16:xNextTaskUnblockTime
	movt	r1, :upper16:xNextTaskUnblockTime
	mov.w	r0, #-1
	str	r0, [r1]
	.loc	3 3954 2                        @ ../Middlewares/Third_Party/FreeRTOS/Source/tasks.c:3954:2
	b	.LBB6_3
.Ltmp156:
.LBB6_2:
	.loc	3 3961 23                       @ ../Middlewares/Third_Party/FreeRTOS/Source/tasks.c:3961:23
	movw	r0, :lower16:pxDelayedTaskList
	movt	r0, :upper16:pxDelayedTaskList
	ldr	r0, [r0]
	.loc	3 3961 57 is_stmt 0             @ ../Middlewares/Third_Party/FreeRTOS/Source/tasks.c:3961:57
	ldr	r0, [r0, #12]
	.loc	3 3961 65                       @ ../Middlewares/Third_Party/FreeRTOS/Source/tasks.c:3961:65
	ldr	r0, [r0, #12]
	.loc	3 3961 13                       @ ../Middlewares/Third_Party/FreeRTOS/Source/tasks.c:3961:13
	str	r0, [sp]
	.loc	3 3962 35 is_stmt 1             @ ../Middlewares/Third_Party/FreeRTOS/Source/tasks.c:3962:35
	ldr	r0, [sp]
	.loc	3 3962 64 is_stmt 0             @ ../Middlewares/Third_Party/FreeRTOS/Source/tasks.c:3962:64
	ldr	r0, [r0, #4]
	.loc	3 3962 24                       @ ../Middlewares/Third_Party/FreeRTOS/Source/tasks.c:3962:24
	movw	r1, :lower16:xNextTaskUnblockTime
	movt	r1, :upper16:xNextTaskUnblockTime
	str	r0, [r1]
	b	.LBB6_3
.Ltmp157:
.LBB6_3:
	.loc	3 3964 1 is_stmt 1              @ ../Middlewares/Third_Party/FreeRTOS/Source/tasks.c:3964:1
	add	sp, #4
	bx	lr
.Ltmp158:
.Lfunc_end6:
	.size	prvResetNextTaskUnblockTime, .Lfunc_end6-prvResetNextTaskUnblockTime
	.cfi_endproc
	.cantunwind
	.fnend
                                        @ -- End function
	.section	.text.vTaskDelayUntil,"ax",%progbits
	.hidden	vTaskDelayUntil                 @ -- Begin function vTaskDelayUntil
	.globl	vTaskDelayUntil
	.p2align	2
	.type	vTaskDelayUntil,%function
	.code	16                              @ @vTaskDelayUntil
	.thumb_func
vTaskDelayUntil:
.Lfunc_begin7:
	.loc	3 1258 0                        @ ../Middlewares/Third_Party/FreeRTOS/Source/tasks.c:1258:0
	.fnstart
	.cfi_startproc
@ %bb.0:
	.save	{r7, lr}
	push	{r7, lr}
	.cfi_def_cfa_offset 8
	.cfi_offset lr, -4
	.cfi_offset r7, -8
	.pad	#40
	sub	sp, #40
	.cfi_def_cfa_offset 48
	str	r0, [sp, #24]
	str	r1, [sp, #20]
	movs	r0, #0
.Ltmp159:
	.loc	3 1260 30 prologue_end          @ ../Middlewares/Third_Party/FreeRTOS/Source/tasks.c:1260:30
	str	r0, [sp, #8]
.Ltmp160:
	.loc	3 1262 8                        @ ../Middlewares/Third_Party/FreeRTOS/Source/tasks.c:1262:8
	ldr	r0, [sp, #24]
.Ltmp161:
	.loc	3 1262 7 is_stmt 0              @ ../Middlewares/Third_Party/FreeRTOS/Source/tasks.c:1262:7
	cbnz	r0, .LBB7_3
	b	.LBB7_1
.LBB7_1:
.Ltmp162:
	.loc	2 195 2 is_stmt 1               @ ../Middlewares/Third_Party/FreeRTOS/Source/portable/RVDS/ARM_CM4F\portmacro.h:195:2
	@APP
	mov.w	r0, #80
	msr	basepri, r0
	isb	sy
	dsb	sy

	@NO_APP
	str	r0, [sp, #36]
.Ltmp163:
	.loc	3 1262 56                       @ ../Middlewares/Third_Party/FreeRTOS/Source/tasks.c:1262:56
	b	.LBB7_2
.LBB7_2:                                @ =>This Inner Loop Header: Depth=1
.Ltmp164:
	.loc	3 1262 56 is_stmt 0             @ ../Middlewares/Third_Party/FreeRTOS/Source/tasks.c:1262:56
	b	.LBB7_2
.Ltmp165:
.LBB7_3:
	.loc	3 1263 10 is_stmt 1             @ ../Middlewares/Third_Party/FreeRTOS/Source/tasks.c:1263:10
	ldr	r0, [sp, #20]
.Ltmp166:
	.loc	3 1263 7 is_stmt 0              @ ../Middlewares/Third_Party/FreeRTOS/Source/tasks.c:1263:7
	cbnz	r0, .LBB7_6
	b	.LBB7_4
.LBB7_4:
.Ltmp167:
	.loc	2 195 2 is_stmt 1               @ ../Middlewares/Third_Party/FreeRTOS/Source/portable/RVDS/ARM_CM4F\portmacro.h:195:2
	@APP
	mov.w	r0, #80
	msr	basepri, r0
	isb	sy
	dsb	sy

	@NO_APP
	str	r0, [sp, #32]
.Ltmp168:
	.loc	3 1263 61                       @ ../Middlewares/Third_Party/FreeRTOS/Source/tasks.c:1263:61
	b	.LBB7_5
.LBB7_5:                                @ =>This Inner Loop Header: Depth=1
.Ltmp169:
	.loc	3 1263 61 is_stmt 0             @ ../Middlewares/Third_Party/FreeRTOS/Source/tasks.c:1263:61
	b	.LBB7_5
.Ltmp170:
.LBB7_6:
	.loc	3 1264 8 is_stmt 1              @ ../Middlewares/Third_Party/FreeRTOS/Source/tasks.c:1264:8
	movw	r0, :lower16:uxSchedulerSuspended
	movt	r0, :upper16:uxSchedulerSuspended
	ldr	r0, [r0]
.Ltmp171:
	.loc	3 1264 7 is_stmt 0              @ ../Middlewares/Third_Party/FreeRTOS/Source/tasks.c:1264:7
	cbz	r0, .LBB7_9
	b	.LBB7_7
.LBB7_7:
.Ltmp172:
	.loc	2 195 2 is_stmt 1               @ ../Middlewares/Third_Party/FreeRTOS/Source/portable/RVDS/ARM_CM4F\portmacro.h:195:2
	@APP
	mov.w	r0, #80
	msr	basepri, r0
	isb	sy
	dsb	sy

	@NO_APP
	str	r0, [sp, #28]
.Ltmp173:
	.loc	3 1264 63                       @ ../Middlewares/Third_Party/FreeRTOS/Source/tasks.c:1264:63
	b	.LBB7_8
.LBB7_8:                                @ =>This Inner Loop Header: Depth=1
.Ltmp174:
	.loc	3 1264 63 is_stmt 0             @ ../Middlewares/Third_Party/FreeRTOS/Source/tasks.c:1264:63
	b	.LBB7_8
.Ltmp175:
.LBB7_9:
	.loc	3 1266 3 is_stmt 1              @ ../Middlewares/Third_Party/FreeRTOS/Source/tasks.c:1266:3
	bl	vTaskSuspendAll
.Ltmp176:
	.loc	3 1270 39                       @ ../Middlewares/Third_Party/FreeRTOS/Source/tasks.c:1270:39
	movw	r0, :lower16:xTickCount
	movt	r0, :upper16:xTickCount
	ldr	r0, [r0]
	.loc	3 1270 21 is_stmt 0             @ ../Middlewares/Third_Party/FreeRTOS/Source/tasks.c:1270:21
	str	r0, [sp, #4]
	.loc	3 1273 19 is_stmt 1             @ ../Middlewares/Third_Party/FreeRTOS/Source/tasks.c:1273:19
	ldr	r0, [sp, #24]
	.loc	3 1273 18 is_stmt 0             @ ../Middlewares/Third_Party/FreeRTOS/Source/tasks.c:1273:18
	ldr	r0, [r0]
	.loc	3 1273 40                       @ ../Middlewares/Third_Party/FreeRTOS/Source/tasks.c:1273:40
	ldr	r1, [sp, #20]
	.loc	3 1273 38                       @ ../Middlewares/Third_Party/FreeRTOS/Source/tasks.c:1273:38
	add	r0, r1
	.loc	3 1273 16                       @ ../Middlewares/Third_Party/FreeRTOS/Source/tasks.c:1273:16
	str	r0, [sp, #16]
.Ltmp177:
	.loc	3 1275 8 is_stmt 1              @ ../Middlewares/Third_Party/FreeRTOS/Source/tasks.c:1275:8
	ldr	r0, [sp, #4]
	.loc	3 1275 27 is_stmt 0             @ ../Middlewares/Third_Party/FreeRTOS/Source/tasks.c:1275:27
	ldr	r1, [sp, #24]
	.loc	3 1275 26                       @ ../Middlewares/Third_Party/FreeRTOS/Source/tasks.c:1275:26
	ldr	r1, [r1]
.Ltmp178:
	.loc	3 1275 8                        @ ../Middlewares/Third_Party/FreeRTOS/Source/tasks.c:1275:8
	cmp	r0, r1
	bhs	.LBB7_15
	b	.LBB7_10
.LBB7_10:
.Ltmp179:
	.loc	3 1282 11 is_stmt 1             @ ../Middlewares/Third_Party/FreeRTOS/Source/tasks.c:1282:11
	ldr	r0, [sp, #16]
	.loc	3 1282 26 is_stmt 0             @ ../Middlewares/Third_Party/FreeRTOS/Source/tasks.c:1282:26
	ldr	r1, [sp, #24]
	.loc	3 1282 25                       @ ../Middlewares/Third_Party/FreeRTOS/Source/tasks.c:1282:25
	ldr	r1, [r1]
	.loc	3 1282 47                       @ ../Middlewares/Third_Party/FreeRTOS/Source/tasks.c:1282:47
	cmp	r0, r1
	bhs	.LBB7_13
	b	.LBB7_11
.LBB7_11:
	.loc	3 1282 52                       @ ../Middlewares/Third_Party/FreeRTOS/Source/tasks.c:1282:52
	ldr	r0, [sp, #16]
	.loc	3 1282 66                       @ ../Middlewares/Third_Party/FreeRTOS/Source/tasks.c:1282:66
	ldr	r1, [sp, #4]
.Ltmp180:
	.loc	3 1282 9                        @ ../Middlewares/Third_Party/FreeRTOS/Source/tasks.c:1282:9
	cmp	r0, r1
	bls	.LBB7_13
	b	.LBB7_12
.LBB7_12:
	.loc	3 0 9                           @ ../Middlewares/Third_Party/FreeRTOS/Source/tasks.c:0:9
	movs	r0, #1
.Ltmp181:
	.loc	3 1284 19 is_stmt 1             @ ../Middlewares/Third_Party/FreeRTOS/Source/tasks.c:1284:19
	str	r0, [sp, #8]
	.loc	3 1285 5                        @ ../Middlewares/Third_Party/FreeRTOS/Source/tasks.c:1285:5
	b	.LBB7_14
.Ltmp182:
.LBB7_13:
	.loc	3 0 5 is_stmt 0                 @ ../Middlewares/Third_Party/FreeRTOS/Source/tasks.c:0:5
	b	.LBB7_14
.LBB7_14:
	.loc	3 1290 4 is_stmt 1              @ ../Middlewares/Third_Party/FreeRTOS/Source/tasks.c:1290:4
	b	.LBB7_20
.Ltmp183:
.LBB7_15:
	.loc	3 1296 11                       @ ../Middlewares/Third_Party/FreeRTOS/Source/tasks.c:1296:11
	ldr	r0, [sp, #16]
	.loc	3 1296 26 is_stmt 0             @ ../Middlewares/Third_Party/FreeRTOS/Source/tasks.c:1296:26
	ldr	r1, [sp, #24]
	.loc	3 1296 25                       @ ../Middlewares/Third_Party/FreeRTOS/Source/tasks.c:1296:25
	ldr	r1, [r1]
	.loc	3 1296 47                       @ ../Middlewares/Third_Party/FreeRTOS/Source/tasks.c:1296:47
	cmp	r0, r1
	blo	.LBB7_17
	b	.LBB7_16
.LBB7_16:
	.loc	3 1296 52                       @ ../Middlewares/Third_Party/FreeRTOS/Source/tasks.c:1296:52
	ldr	r0, [sp, #16]
	.loc	3 1296 66                       @ ../Middlewares/Third_Party/FreeRTOS/Source/tasks.c:1296:66
	ldr	r1, [sp, #4]
.Ltmp184:
	.loc	3 1296 9                        @ ../Middlewares/Third_Party/FreeRTOS/Source/tasks.c:1296:9
	cmp	r0, r1
	bls	.LBB7_18
	b	.LBB7_17
.LBB7_17:
	.loc	3 0 9                           @ ../Middlewares/Third_Party/FreeRTOS/Source/tasks.c:0:9
	movs	r0, #1
.Ltmp185:
	.loc	3 1298 19 is_stmt 1             @ ../Middlewares/Third_Party/FreeRTOS/Source/tasks.c:1298:19
	str	r0, [sp, #8]
	.loc	3 1299 5                        @ ../Middlewares/Third_Party/FreeRTOS/Source/tasks.c:1299:5
	b	.LBB7_19
.Ltmp186:
.LBB7_18:
	.loc	3 0 5 is_stmt 0                 @ ../Middlewares/Third_Party/FreeRTOS/Source/tasks.c:0:5
	b	.LBB7_19
.LBB7_19:
	b	.LBB7_20
.LBB7_20:
	.loc	3 1307 26 is_stmt 1             @ ../Middlewares/Third_Party/FreeRTOS/Source/tasks.c:1307:26
	ldr	r0, [sp, #16]
	.loc	3 1307 5 is_stmt 0              @ ../Middlewares/Third_Party/FreeRTOS/Source/tasks.c:1307:5
	ldr	r1, [sp, #24]
	.loc	3 1307 24                       @ ../Middlewares/Third_Party/FreeRTOS/Source/tasks.c:1307:24
	str	r0, [r1]
.Ltmp187:
	.loc	3 1309 8 is_stmt 1              @ ../Middlewares/Third_Party/FreeRTOS/Source/tasks.c:1309:8
	ldr	r0, [sp, #8]
.Ltmp188:
	.loc	3 1309 8 is_stmt 0              @ ../Middlewares/Third_Party/FreeRTOS/Source/tasks.c:1309:8
	cbz	r0, .LBB7_22
	b	.LBB7_21
.LBB7_21:
.Ltmp189:
	.loc	3 1315 37 is_stmt 1             @ ../Middlewares/Third_Party/FreeRTOS/Source/tasks.c:1315:37
	ldr	r0, [sp, #16]
	.loc	3 1315 51 is_stmt 0             @ ../Middlewares/Third_Party/FreeRTOS/Source/tasks.c:1315:51
	ldr	r1, [sp, #4]
	.loc	3 1315 49                       @ ../Middlewares/Third_Party/FreeRTOS/Source/tasks.c:1315:49
	subs	r0, r0, r1
	movs	r1, #0
	.loc	3 1315 5                        @ ../Middlewares/Third_Party/FreeRTOS/Source/tasks.c:1315:5
	bl	prvAddCurrentTaskToDelayedList
	.loc	3 1316 4 is_stmt 1              @ ../Middlewares/Third_Party/FreeRTOS/Source/tasks.c:1316:4
	b	.LBB7_23
.Ltmp190:
.LBB7_22:
	.loc	3 0 4 is_stmt 0                 @ ../Middlewares/Third_Party/FreeRTOS/Source/tasks.c:0:4
	b	.LBB7_23
.LBB7_23:
	.loc	3 1322 21 is_stmt 1             @ ../Middlewares/Third_Party/FreeRTOS/Source/tasks.c:1322:21
	bl	xTaskResumeAll
	.loc	3 1322 19 is_stmt 0             @ ../Middlewares/Third_Party/FreeRTOS/Source/tasks.c:1322:19
	str	r0, [sp, #12]
.Ltmp191:
	.loc	3 1326 7 is_stmt 1              @ ../Middlewares/Third_Party/FreeRTOS/Source/tasks.c:1326:7
	ldr	r0, [sp, #12]
.Ltmp192:
	.loc	3 1326 7 is_stmt 0              @ ../Middlewares/Third_Party/FreeRTOS/Source/tasks.c:1326:7
	cbnz	r0, .LBB7_25
	b	.LBB7_24
.LBB7_24:
	.loc	3 0 7                           @ ../Middlewares/Third_Party/FreeRTOS/Source/tasks.c:0:7
	movw	r1, #60676
	movt	r1, #57344
	mov.w	r0, #268435456
.Ltmp193:
	.loc	3 1328 51 is_stmt 1             @ ../Middlewares/Third_Party/FreeRTOS/Source/tasks.c:1328:51
	str	r0, [r1]
	.loc	3 1328 70 is_stmt 0             @ ../Middlewares/Third_Party/FreeRTOS/Source/tasks.c:1328:70
	@APP
	dsb	sy
	@NO_APP
	.loc	3 1328 108                      @ ../Middlewares/Third_Party/FreeRTOS/Source/tasks.c:1328:108
	@APP
	isb	sy
	@NO_APP
.Ltmp194:
	.loc	3 1329 3 is_stmt 1              @ ../Middlewares/Third_Party/FreeRTOS/Source/tasks.c:1329:3
	b	.LBB7_26
.Ltmp195:
.LBB7_25:
	.loc	3 0 3 is_stmt 0                 @ ../Middlewares/Third_Party/FreeRTOS/Source/tasks.c:0:3
	b	.LBB7_26
.LBB7_26:
	.loc	3 1334 2 is_stmt 1              @ ../Middlewares/Third_Party/FreeRTOS/Source/tasks.c:1334:2
	add	sp, #40
	pop	{r7, pc}
.Ltmp196:
.Lfunc_end7:
	.size	vTaskDelayUntil, .Lfunc_end7-vTaskDelayUntil
	.cfi_endproc
	.cantunwind
	.fnend
                                        @ -- End function
	.section	.text.vTaskSuspendAll,"ax",%progbits
	.hidden	vTaskSuspendAll                 @ -- Begin function vTaskSuspendAll
	.globl	vTaskSuspendAll
	.p2align	2
	.type	vTaskSuspendAll,%function
	.code	16                              @ @vTaskSuspendAll
	.thumb_func
vTaskSuspendAll:
.Lfunc_begin8:
	.loc	3 2111 0                        @ ../Middlewares/Third_Party/FreeRTOS/Source/tasks.c:2111:0
	.fnstart
	.cfi_startproc
@ %bb.0:
	.loc	3 2123 2 prologue_end           @ ../Middlewares/Third_Party/FreeRTOS/Source/tasks.c:2123:2
	movw	r1, :lower16:uxSchedulerSuspended
	movt	r1, :upper16:uxSchedulerSuspended
	ldr	r0, [r1]
	adds	r0, #1
	str	r0, [r1]
	.loc	3 2127 2                        @ ../Middlewares/Third_Party/FreeRTOS/Source/tasks.c:2127:2
	@APP
	@NO_APP
	.loc	3 2128 1                        @ ../Middlewares/Third_Party/FreeRTOS/Source/tasks.c:2128:1
	bx	lr
.Ltmp197:
.Lfunc_end8:
	.size	vTaskSuspendAll, .Lfunc_end8-vTaskSuspendAll
	.cfi_endproc
	.cantunwind
	.fnend
                                        @ -- End function
	.section	.text.prvAddCurrentTaskToDelayedList,"ax",%progbits
	.p2align	2                               @ -- Begin function prvAddCurrentTaskToDelayedList
	.type	prvAddCurrentTaskToDelayedList,%function
	.code	16                              @ @prvAddCurrentTaskToDelayedList
	.thumb_func
prvAddCurrentTaskToDelayedList:
.Lfunc_begin9:
	.loc	3 5178 0                        @ ../Middlewares/Third_Party/FreeRTOS/Source/tasks.c:5178:0
	.fnstart
	.cfi_startproc
@ %bb.0:
	.save	{r7, lr}
	push	{r7, lr}
	.cfi_def_cfa_offset 8
	.cfi_offset lr, -4
	.cfi_offset r7, -8
	.pad	#16
	sub	sp, #16
	.cfi_def_cfa_offset 24
	str	r0, [sp, #12]
	str	r1, [sp, #8]
.Ltmp198:
	.loc	3 5180 36 prologue_end          @ ../Middlewares/Third_Party/FreeRTOS/Source/tasks.c:5180:36
	movw	r0, :lower16:xTickCount
	movt	r0, :upper16:xTickCount
	ldr	r0, [r0]
	.loc	3 5180 18 is_stmt 0             @ ../Middlewares/Third_Party/FreeRTOS/Source/tasks.c:5180:18
	str	r0, [sp]
.Ltmp199:
	.loc	3 5187 3 is_stmt 1              @ ../Middlewares/Third_Party/FreeRTOS/Source/tasks.c:5187:3
	movw	r0, :lower16:pxCurrentTCB
	movt	r0, :upper16:pxCurrentTCB
	ldr	r2, [r0]
	movs	r1, #0
	.loc	3 5187 32 is_stmt 0             @ ../Middlewares/Third_Party/FreeRTOS/Source/tasks.c:5187:32
	strb.w	r1, [r2, #82]
.Ltmp200:
	.loc	3 5193 23 is_stmt 1             @ ../Middlewares/Third_Party/FreeRTOS/Source/tasks.c:5193:23
	ldr	r0, [r0]
	.loc	3 5193 37 is_stmt 0             @ ../Middlewares/Third_Party/FreeRTOS/Source/tasks.c:5193:37
	adds	r0, #4
	.loc	3 5193 6                        @ ../Middlewares/Third_Party/FreeRTOS/Source/tasks.c:5193:6
	bl	uxListRemove
.Ltmp201:
	.loc	3 5193 6                        @ ../Middlewares/Third_Party/FreeRTOS/Source/tasks.c:5193:6
	cbnz	r0, .LBB9_2
	b	.LBB9_1
.LBB9_1:
.Ltmp202:
	.loc	3 5197 41 is_stmt 1             @ ../Middlewares/Third_Party/FreeRTOS/Source/tasks.c:5197:41
	movw	r0, :lower16:pxCurrentTCB
	movt	r0, :upper16:pxCurrentTCB
	ldr	r0, [r0]
	.loc	3 5197 55 is_stmt 0             @ ../Middlewares/Third_Party/FreeRTOS/Source/tasks.c:5197:55
	ldr	r1, [r0, #44]
	movs	r0, #1
	.loc	3 5197 36                       @ ../Middlewares/Third_Party/FreeRTOS/Source/tasks.c:5197:36
	lsl.w	r2, r0, r1
	.loc	3 5197 26                       @ ../Middlewares/Third_Party/FreeRTOS/Source/tasks.c:5197:26
	movw	r1, :lower16:uxTopReadyPriority
	movt	r1, :upper16:uxTopReadyPriority
	ldr	r0, [r1]
	bics	r0, r2
	str	r0, [r1]
	.loc	3 5198 2 is_stmt 1              @ ../Middlewares/Third_Party/FreeRTOS/Source/tasks.c:5198:2
	b	.LBB9_3
.Ltmp203:
.LBB9_2:
	.loc	3 0 2 is_stmt 0                 @ ../Middlewares/Third_Party/FreeRTOS/Source/tasks.c:0:2
	b	.LBB9_3
.LBB9_3:
.Ltmp204:
	.loc	3 5206 9 is_stmt 1              @ ../Middlewares/Third_Party/FreeRTOS/Source/tasks.c:5206:9
	ldr	r0, [sp, #12]
	.loc	3 5206 55 is_stmt 0             @ ../Middlewares/Third_Party/FreeRTOS/Source/tasks.c:5206:55
	adds	r0, #1
	cbnz	r0, .LBB9_6
	b	.LBB9_4
.LBB9_4:
	.loc	3 5206 60                       @ ../Middlewares/Third_Party/FreeRTOS/Source/tasks.c:5206:60
	ldr	r0, [sp, #8]
.Ltmp205:
	.loc	3 5206 7                        @ ../Middlewares/Third_Party/FreeRTOS/Source/tasks.c:5206:7
	cbz	r0, .LBB9_6
	b	.LBB9_5
.LBB9_5:
.Ltmp206:
	.loc	3 5211 44 is_stmt 1             @ ../Middlewares/Third_Party/FreeRTOS/Source/tasks.c:5211:44
	movw	r0, :lower16:pxCurrentTCB
	movt	r0, :upper16:pxCurrentTCB
	ldr	r0, [r0]
	.loc	3 5211 58 is_stmt 0             @ ../Middlewares/Third_Party/FreeRTOS/Source/tasks.c:5211:58
	adds	r1, r0, #4
	.loc	3 5211 4                        @ ../Middlewares/Third_Party/FreeRTOS/Source/tasks.c:5211:4
	movw	r0, :lower16:xSuspendedTaskList
	movt	r0, :upper16:xSuspendedTaskList
	bl	vListInsertEnd
	.loc	3 5212 3 is_stmt 1              @ ../Middlewares/Third_Party/FreeRTOS/Source/tasks.c:5212:3
	b	.LBB9_13
.Ltmp207:
.LBB9_6:
	.loc	3 5218 18                       @ ../Middlewares/Third_Party/FreeRTOS/Source/tasks.c:5218:18
	ldr	r0, [sp]
	.loc	3 5218 36 is_stmt 0             @ ../Middlewares/Third_Party/FreeRTOS/Source/tasks.c:5218:36
	ldr	r1, [sp, #12]
	.loc	3 5218 34                       @ ../Middlewares/Third_Party/FreeRTOS/Source/tasks.c:5218:34
	add	r0, r1
	.loc	3 5218 16                       @ ../Middlewares/Third_Party/FreeRTOS/Source/tasks.c:5218:16
	str	r0, [sp, #4]
	.loc	3 5221 60 is_stmt 1             @ ../Middlewares/Third_Party/FreeRTOS/Source/tasks.c:5221:60
	ldr	r0, [sp, #4]
	.loc	3 5221 11 is_stmt 0             @ ../Middlewares/Third_Party/FreeRTOS/Source/tasks.c:5221:11
	movw	r1, :lower16:pxCurrentTCB
	movt	r1, :upper16:pxCurrentTCB
	ldr	r1, [r1]
	.loc	3 5221 56                       @ ../Middlewares/Third_Party/FreeRTOS/Source/tasks.c:5221:56
	str	r0, [r1, #4]
.Ltmp208:
	.loc	3 5223 8 is_stmt 1              @ ../Middlewares/Third_Party/FreeRTOS/Source/tasks.c:5223:8
	ldr	r0, [sp, #4]
	.loc	3 5223 22 is_stmt 0             @ ../Middlewares/Third_Party/FreeRTOS/Source/tasks.c:5223:22
	ldr	r1, [sp]
.Ltmp209:
	.loc	3 5223 8                        @ ../Middlewares/Third_Party/FreeRTOS/Source/tasks.c:5223:8
	cmp	r0, r1
	bhs	.LBB9_8
	b	.LBB9_7
.LBB9_7:
.Ltmp210:
	.loc	3 5227 18 is_stmt 1             @ ../Middlewares/Third_Party/FreeRTOS/Source/tasks.c:5227:18
	movw	r0, :lower16:pxOverflowDelayedTaskList
	movt	r0, :upper16:pxOverflowDelayedTaskList
	ldr	r0, [r0]
	.loc	3 5227 48 is_stmt 0             @ ../Middlewares/Third_Party/FreeRTOS/Source/tasks.c:5227:48
	movw	r1, :lower16:pxCurrentTCB
	movt	r1, :upper16:pxCurrentTCB
	ldr	r1, [r1]
	.loc	3 5227 62                       @ ../Middlewares/Third_Party/FreeRTOS/Source/tasks.c:5227:62
	adds	r1, #4
	.loc	3 5227 5                        @ ../Middlewares/Third_Party/FreeRTOS/Source/tasks.c:5227:5
	bl	vListInsert
	.loc	3 5228 4 is_stmt 1              @ ../Middlewares/Third_Party/FreeRTOS/Source/tasks.c:5228:4
	b	.LBB9_12
.Ltmp211:
.LBB9_8:
	.loc	3 5233 18                       @ ../Middlewares/Third_Party/FreeRTOS/Source/tasks.c:5233:18
	movw	r0, :lower16:pxDelayedTaskList
	movt	r0, :upper16:pxDelayedTaskList
	ldr	r0, [r0]
	.loc	3 5233 40 is_stmt 0             @ ../Middlewares/Third_Party/FreeRTOS/Source/tasks.c:5233:40
	movw	r1, :lower16:pxCurrentTCB
	movt	r1, :upper16:pxCurrentTCB
	ldr	r1, [r1]
	.loc	3 5233 54                       @ ../Middlewares/Third_Party/FreeRTOS/Source/tasks.c:5233:54
	adds	r1, #4
	.loc	3 5233 5                        @ ../Middlewares/Third_Party/FreeRTOS/Source/tasks.c:5233:5
	bl	vListInsert
.Ltmp212:
	.loc	3 5238 9 is_stmt 1              @ ../Middlewares/Third_Party/FreeRTOS/Source/tasks.c:5238:9
	ldr	r0, [sp, #4]
	.loc	3 5238 23 is_stmt 0             @ ../Middlewares/Third_Party/FreeRTOS/Source/tasks.c:5238:23
	movw	r1, :lower16:xNextTaskUnblockTime
	movt	r1, :upper16:xNextTaskUnblockTime
	ldr	r1, [r1]
.Ltmp213:
	.loc	3 5238 9                        @ ../Middlewares/Third_Party/FreeRTOS/Source/tasks.c:5238:9
	cmp	r0, r1
	bhs	.LBB9_10
	b	.LBB9_9
.LBB9_9:
.Ltmp214:
	.loc	3 5240 29 is_stmt 1             @ ../Middlewares/Third_Party/FreeRTOS/Source/tasks.c:5240:29
	ldr	r0, [sp, #4]
	.loc	3 5240 27 is_stmt 0             @ ../Middlewares/Third_Party/FreeRTOS/Source/tasks.c:5240:27
	movw	r1, :lower16:xNextTaskUnblockTime
	movt	r1, :upper16:xNextTaskUnblockTime
	str	r0, [r1]
	.loc	3 5241 5 is_stmt 1              @ ../Middlewares/Third_Party/FreeRTOS/Source/tasks.c:5241:5
	b	.LBB9_11
.Ltmp215:
.LBB9_10:
	.loc	3 0 5 is_stmt 0                 @ ../Middlewares/Third_Party/FreeRTOS/Source/tasks.c:0:5
	b	.LBB9_11
.LBB9_11:
	b	.LBB9_12
.LBB9_12:
	b	.LBB9_13
.LBB9_13:
	.loc	3 5286 1 is_stmt 1              @ ../Middlewares/Third_Party/FreeRTOS/Source/tasks.c:5286:1
	add	sp, #16
	pop	{r7, pc}
.Ltmp216:
.Lfunc_end9:
	.size	prvAddCurrentTaskToDelayedList, .Lfunc_end9-prvAddCurrentTaskToDelayedList
	.cfi_endproc
	.cantunwind
	.fnend
                                        @ -- End function
	.section	.text.xTaskResumeAll,"ax",%progbits
	.hidden	xTaskResumeAll                  @ -- Begin function xTaskResumeAll
	.globl	xTaskResumeAll
	.p2align	2
	.type	xTaskResumeAll,%function
	.code	16                              @ @xTaskResumeAll
	.thumb_func
xTaskResumeAll:
.Lfunc_begin10:
	.loc	3 2195 0                        @ ../Middlewares/Third_Party/FreeRTOS/Source/tasks.c:2195:0
	.fnstart
	.cfi_startproc
@ %bb.0:
	.save	{r7, lr}
	push	{r7, lr}
	.cfi_def_cfa_offset 8
	.cfi_offset lr, -4
	.cfi_offset r7, -8
	.pad	#16
	sub	sp, #16
	.cfi_def_cfa_offset 24
	movs	r0, #0
.Ltmp217:
	.loc	3 2196 8 prologue_end           @ ../Middlewares/Third_Party/FreeRTOS/Source/tasks.c:2196:8
	str	r0, [sp, #8]
	.loc	3 2197 12                       @ ../Middlewares/Third_Party/FreeRTOS/Source/tasks.c:2197:12
	str	r0, [sp, #4]
.Ltmp218:
	.loc	3 2201 7                        @ ../Middlewares/Third_Party/FreeRTOS/Source/tasks.c:2201:7
	movw	r0, :lower16:uxSchedulerSuspended
	movt	r0, :upper16:uxSchedulerSuspended
	ldr	r0, [r0]
.Ltmp219:
	.loc	3 2201 6 is_stmt 0              @ ../Middlewares/Third_Party/FreeRTOS/Source/tasks.c:2201:6
	cbnz	r0, .LBB10_3
	b	.LBB10_1
.LBB10_1:
.Ltmp220:
	.loc	2 195 2 is_stmt 1               @ ../Middlewares/Third_Party/FreeRTOS/Source/portable/RVDS/ARM_CM4F\portmacro.h:195:2
	@APP
	mov.w	r0, #80
	msr	basepri, r0
	isb	sy
	dsb	sy

	@NO_APP
	str	r0, [sp, #12]
.Ltmp221:
	.loc	3 2201 57                       @ ../Middlewares/Third_Party/FreeRTOS/Source/tasks.c:2201:57
	b	.LBB10_2
.LBB10_2:                               @ =>This Inner Loop Header: Depth=1
.Ltmp222:
	.loc	3 2201 57 is_stmt 0             @ ../Middlewares/Third_Party/FreeRTOS/Source/tasks.c:2201:57
	b	.LBB10_2
.Ltmp223:
.LBB10_3:
	.loc	3 2208 2 is_stmt 1              @ ../Middlewares/Third_Party/FreeRTOS/Source/tasks.c:2208:2
	bl	vPortEnterCritical
.Ltmp224:
	.loc	3 2210 3                        @ ../Middlewares/Third_Party/FreeRTOS/Source/tasks.c:2210:3
	movw	r0, :lower16:uxSchedulerSuspended
	movt	r0, :upper16:uxSchedulerSuspended
	ldr	r1, [r0]
	subs	r1, #1
	str	r1, [r0]
.Ltmp225:
	.loc	3 2212 7                        @ ../Middlewares/Third_Party/FreeRTOS/Source/tasks.c:2212:7
	ldr	r0, [r0]
.Ltmp226:
	.loc	3 2212 7 is_stmt 0              @ ../Middlewares/Third_Party/FreeRTOS/Source/tasks.c:2212:7
	cmp	r0, #0
	bne.w	.LBB10_27
	b	.LBB10_4
.LBB10_4:
.Ltmp227:
	.loc	3 2214 8 is_stmt 1              @ ../Middlewares/Third_Party/FreeRTOS/Source/tasks.c:2214:8
	movw	r0, :lower16:uxCurrentNumberOfTasks
	movt	r0, :upper16:uxCurrentNumberOfTasks
	ldr	r0, [r0]
.Ltmp228:
	.loc	3 2214 8 is_stmt 0              @ ../Middlewares/Third_Party/FreeRTOS/Source/tasks.c:2214:8
	cmp	r0, #0
	beq.w	.LBB10_26
	b	.LBB10_5
.LBB10_5:
.Ltmp229:
	.loc	3 2218 5 is_stmt 1              @ ../Middlewares/Third_Party/FreeRTOS/Source/tasks.c:2218:5
	b	.LBB10_6
.LBB10_6:                               @ =>This Inner Loop Header: Depth=1
	.loc	3 2218 40 is_stmt 0             @ ../Middlewares/Third_Party/FreeRTOS/Source/tasks.c:2218:40
	movw	r0, :lower16:xPendingReadyList
	movt	r0, :upper16:xPendingReadyList
	ldr	r0, [r0]
	.loc	3 2218 5                        @ ../Middlewares/Third_Party/FreeRTOS/Source/tasks.c:2218:5
	cbz	r0, .LBB10_11
	b	.LBB10_7
.LBB10_7:                               @   in Loop: Header=BB10_6 Depth=1
.Ltmp230:
	.loc	3 2220 61 is_stmt 1             @ ../Middlewares/Third_Party/FreeRTOS/Source/tasks.c:2220:61
	movw	r0, :lower16:xPendingReadyList
	movt	r0, :upper16:xPendingReadyList
	ldr	r0, [r0, #12]
	.loc	3 2220 69 is_stmt 0             @ ../Middlewares/Third_Party/FreeRTOS/Source/tasks.c:2220:69
	ldr	r0, [r0, #12]
	.loc	3 2220 12                       @ ../Middlewares/Third_Party/FreeRTOS/Source/tasks.c:2220:12
	str	r0, [sp, #8]
	.loc	3 2221 32 is_stmt 1             @ ../Middlewares/Third_Party/FreeRTOS/Source/tasks.c:2221:32
	ldr	r0, [sp, #8]
	.loc	3 2221 39 is_stmt 0             @ ../Middlewares/Third_Party/FreeRTOS/Source/tasks.c:2221:39
	adds	r0, #24
	.loc	3 2221 15                       @ ../Middlewares/Third_Party/FreeRTOS/Source/tasks.c:2221:15
	bl	uxListRemove
	.loc	3 2222 32 is_stmt 1             @ ../Middlewares/Third_Party/FreeRTOS/Source/tasks.c:2222:32
	ldr	r0, [sp, #8]
	.loc	3 2222 39 is_stmt 0             @ ../Middlewares/Third_Party/FreeRTOS/Source/tasks.c:2222:39
	adds	r0, #4
	.loc	3 2222 15                       @ ../Middlewares/Third_Party/FreeRTOS/Source/tasks.c:2222:15
	bl	uxListRemove
	.loc	3 2223 47 is_stmt 1             @ ../Middlewares/Third_Party/FreeRTOS/Source/tasks.c:2223:47
	ldr	r0, [sp, #8]
	.loc	3 2223 56 is_stmt 0             @ ../Middlewares/Third_Party/FreeRTOS/Source/tasks.c:2223:56
	ldr	r1, [r0, #44]
	movs	r0, #1
	.loc	3 2223 40                       @ ../Middlewares/Third_Party/FreeRTOS/Source/tasks.c:2223:40
	lsl.w	r2, r0, r1
	.loc	3 2223 31                       @ ../Middlewares/Third_Party/FreeRTOS/Source/tasks.c:2223:31
	movw	r1, :lower16:uxTopReadyPriority
	movt	r1, :upper16:uxTopReadyPriority
	ldr	r0, [r1]
	orrs	r0, r2
	str	r0, [r1]
	.loc	3 2223 112                      @ ../Middlewares/Third_Party/FreeRTOS/Source/tasks.c:2223:112
	ldr	r1, [sp, #8]
	.loc	3 2223 121                      @ ../Middlewares/Third_Party/FreeRTOS/Source/tasks.c:2223:121
	ldr	r0, [r1, #44]
	.loc	3 2223 91                       @ ../Middlewares/Third_Party/FreeRTOS/Source/tasks.c:2223:91
	add.w	r2, r0, r0, lsl #2
	movw	r0, :lower16:pxReadyTasksLists
	movt	r0, :upper16:pxReadyTasksLists
	add.w	r0, r0, r2, lsl #2
	.loc	3 2223 151                      @ ../Middlewares/Third_Party/FreeRTOS/Source/tasks.c:2223:151
	adds	r1, #4
	.loc	3 2223 72                       @ ../Middlewares/Third_Party/FreeRTOS/Source/tasks.c:2223:72
	bl	vListInsertEnd
.Ltmp231:
	.loc	3 2227 10 is_stmt 1             @ ../Middlewares/Third_Party/FreeRTOS/Source/tasks.c:2227:10
	ldr	r0, [sp, #8]
	.loc	3 2227 17 is_stmt 0             @ ../Middlewares/Third_Party/FreeRTOS/Source/tasks.c:2227:17
	ldr	r0, [r0, #44]
	.loc	3 2227 31                       @ ../Middlewares/Third_Party/FreeRTOS/Source/tasks.c:2227:31
	movw	r1, :lower16:pxCurrentTCB
	movt	r1, :upper16:pxCurrentTCB
	ldr	r1, [r1]
	.loc	3 2227 45                       @ ../Middlewares/Third_Party/FreeRTOS/Source/tasks.c:2227:45
	ldr	r1, [r1, #44]
.Ltmp232:
	.loc	3 2227 10                       @ ../Middlewares/Third_Party/FreeRTOS/Source/tasks.c:2227:10
	cmp	r0, r1
	blo	.LBB10_9
	b	.LBB10_8
.LBB10_8:                               @   in Loop: Header=BB10_6 Depth=1
.Ltmp233:
	.loc	3 2229 21 is_stmt 1             @ ../Middlewares/Third_Party/FreeRTOS/Source/tasks.c:2229:21
	movw	r1, :lower16:xYieldPending
	movt	r1, :upper16:xYieldPending
	movs	r0, #1
	str	r0, [r1]
	.loc	3 2230 6                        @ ../Middlewares/Third_Party/FreeRTOS/Source/tasks.c:2230:6
	b	.LBB10_10
.Ltmp234:
.LBB10_9:                               @   in Loop: Header=BB10_6 Depth=1
	.loc	3 0 6 is_stmt 0                 @ ../Middlewares/Third_Party/FreeRTOS/Source/tasks.c:0:6
	b	.LBB10_10
.LBB10_10:                              @   in Loop: Header=BB10_6 Depth=1
	.loc	3 2218 5 is_stmt 1              @ ../Middlewares/Third_Party/FreeRTOS/Source/tasks.c:2218:5
	b	.LBB10_6
.LBB10_11:
.Ltmp235:
	.loc	3 2237 9                        @ ../Middlewares/Third_Party/FreeRTOS/Source/tasks.c:2237:9
	ldr	r0, [sp, #8]
.Ltmp236:
	.loc	3 2237 9 is_stmt 0              @ ../Middlewares/Third_Party/FreeRTOS/Source/tasks.c:2237:9
	cbz	r0, .LBB10_13
	b	.LBB10_12
.LBB10_12:
.Ltmp237:
	.loc	3 2245 6 is_stmt 1              @ ../Middlewares/Third_Party/FreeRTOS/Source/tasks.c:2245:6
	bl	prvResetNextTaskUnblockTime
	.loc	3 2246 5                        @ ../Middlewares/Third_Party/FreeRTOS/Source/tasks.c:2246:5
	b	.LBB10_13
.Ltmp238:
.LBB10_13:
	.loc	3 2253 33                       @ ../Middlewares/Third_Party/FreeRTOS/Source/tasks.c:2253:33
	movw	r0, :lower16:xPendedTicks
	movt	r0, :upper16:xPendedTicks
	ldr	r0, [r0]
	.loc	3 2253 17 is_stmt 0             @ ../Middlewares/Third_Party/FreeRTOS/Source/tasks.c:2253:17
	str	r0, [sp]
.Ltmp239:
	.loc	3 2255 10 is_stmt 1             @ ../Middlewares/Third_Party/FreeRTOS/Source/tasks.c:2255:10
	ldr	r0, [sp]
.Ltmp240:
	.loc	3 2255 10 is_stmt 0             @ ../Middlewares/Third_Party/FreeRTOS/Source/tasks.c:2255:10
	cbz	r0, .LBB10_21
	b	.LBB10_14
.LBB10_14:
.Ltmp241:
	.loc	3 2257 7 is_stmt 1              @ ../Middlewares/Third_Party/FreeRTOS/Source/tasks.c:2257:7
	b	.LBB10_15
.LBB10_15:                              @ =>This Inner Loop Header: Depth=1
.Ltmp242:
	.loc	3 2259 12                       @ ../Middlewares/Third_Party/FreeRTOS/Source/tasks.c:2259:12
	bl	xTaskIncrementTick
.Ltmp243:
	.loc	3 2259 12 is_stmt 0             @ ../Middlewares/Third_Party/FreeRTOS/Source/tasks.c:2259:12
	cbz	r0, .LBB10_17
	b	.LBB10_16
.LBB10_16:                              @   in Loop: Header=BB10_15 Depth=1
.Ltmp244:
	.loc	3 2261 23 is_stmt 1             @ ../Middlewares/Third_Party/FreeRTOS/Source/tasks.c:2261:23
	movw	r1, :lower16:xYieldPending
	movt	r1, :upper16:xYieldPending
	movs	r0, #1
	str	r0, [r1]
	.loc	3 2262 8                        @ ../Middlewares/Third_Party/FreeRTOS/Source/tasks.c:2262:8
	b	.LBB10_18
.Ltmp245:
.LBB10_17:                              @   in Loop: Header=BB10_15 Depth=1
	.loc	3 0 8 is_stmt 0                 @ ../Middlewares/Third_Party/FreeRTOS/Source/tasks.c:0:8
	b	.LBB10_18
.LBB10_18:                              @   in Loop: Header=BB10_15 Depth=1
	.loc	3 2267 8 is_stmt 1              @ ../Middlewares/Third_Party/FreeRTOS/Source/tasks.c:2267:8
	ldr	r0, [sp]
	subs	r0, #1
	str	r0, [sp]
	.loc	3 2268 7                        @ ../Middlewares/Third_Party/FreeRTOS/Source/tasks.c:2268:7
	b	.LBB10_19
.Ltmp246:
.LBB10_19:                              @   in Loop: Header=BB10_15 Depth=1
	.loc	3 2268 16 is_stmt 0             @ ../Middlewares/Third_Party/FreeRTOS/Source/tasks.c:2268:16
	ldr	r0, [sp]
.Ltmp247:
	.loc	3 2268 7                        @ ../Middlewares/Third_Party/FreeRTOS/Source/tasks.c:2268:7
	cmp	r0, #0
	bne	.LBB10_15
	b	.LBB10_20
.Ltmp248:
.LBB10_20:
	.loc	3 2270 20 is_stmt 1             @ ../Middlewares/Third_Party/FreeRTOS/Source/tasks.c:2270:20
	movw	r1, :lower16:xPendedTicks
	movt	r1, :upper16:xPendedTicks
	movs	r0, #0
	str	r0, [r1]
	.loc	3 2271 6                        @ ../Middlewares/Third_Party/FreeRTOS/Source/tasks.c:2271:6
	b	.LBB10_22
.Ltmp249:
.LBB10_21:
	.loc	3 0 6 is_stmt 0                 @ ../Middlewares/Third_Party/FreeRTOS/Source/tasks.c:0:6
	b	.LBB10_22
.LBB10_22:
.Ltmp250:
	.loc	3 2278 9 is_stmt 1              @ ../Middlewares/Third_Party/FreeRTOS/Source/tasks.c:2278:9
	movw	r0, :lower16:xYieldPending
	movt	r0, :upper16:xYieldPending
	ldr	r0, [r0]
.Ltmp251:
	.loc	3 2278 9 is_stmt 0              @ ../Middlewares/Third_Party/FreeRTOS/Source/tasks.c:2278:9
	cbz	r0, .LBB10_24
	b	.LBB10_23
.LBB10_23:
	.loc	3 0 9                           @ ../Middlewares/Third_Party/FreeRTOS/Source/tasks.c:0:9
	movs	r0, #1
.Ltmp252:
	.loc	3 2282 23 is_stmt 1             @ ../Middlewares/Third_Party/FreeRTOS/Source/tasks.c:2282:23
	str	r0, [sp, #4]
	movw	r1, #60676
	movt	r1, #57344
	mov.w	r0, #268435456
.Ltmp253:
	.loc	3 2285 53                       @ ../Middlewares/Third_Party/FreeRTOS/Source/tasks.c:2285:53
	str	r0, [r1]
	.loc	3 2285 72 is_stmt 0             @ ../Middlewares/Third_Party/FreeRTOS/Source/tasks.c:2285:72
	@APP
	dsb	sy
	@NO_APP
	.loc	3 2285 110                      @ ../Middlewares/Third_Party/FreeRTOS/Source/tasks.c:2285:110
	@APP
	isb	sy
	@NO_APP
.Ltmp254:
	.loc	3 2286 5 is_stmt 1              @ ../Middlewares/Third_Party/FreeRTOS/Source/tasks.c:2286:5
	b	.LBB10_25
.Ltmp255:
.LBB10_24:
	.loc	3 0 5 is_stmt 0                 @ ../Middlewares/Third_Party/FreeRTOS/Source/tasks.c:0:5
	b	.LBB10_25
.LBB10_25:
	.loc	3 2291 4 is_stmt 1              @ ../Middlewares/Third_Party/FreeRTOS/Source/tasks.c:2291:4
	b	.LBB10_26
.Ltmp256:
.LBB10_26:
	.loc	3 2292 3                        @ ../Middlewares/Third_Party/FreeRTOS/Source/tasks.c:2292:3
	b	.LBB10_28
.Ltmp257:
.LBB10_27:
	.loc	3 0 3 is_stmt 0                 @ ../Middlewares/Third_Party/FreeRTOS/Source/tasks.c:0:3
	b	.LBB10_28
.LBB10_28:
	.loc	3 2298 2 is_stmt 1              @ ../Middlewares/Third_Party/FreeRTOS/Source/tasks.c:2298:2
	bl	vPortExitCritical
	.loc	3 2300 9                        @ ../Middlewares/Third_Party/FreeRTOS/Source/tasks.c:2300:9
	ldr	r0, [sp, #4]
	.loc	3 2300 2 is_stmt 0              @ ../Middlewares/Third_Party/FreeRTOS/Source/tasks.c:2300:2
	add	sp, #16
	pop	{r7, pc}
.Ltmp258:
.Lfunc_end10:
	.size	xTaskResumeAll, .Lfunc_end10-xTaskResumeAll
	.cfi_endproc
	.cantunwind
	.fnend
                                        @ -- End function
	.section	.text.vTaskDelay,"ax",%progbits
	.hidden	vTaskDelay                      @ -- Begin function vTaskDelay
	.globl	vTaskDelay
	.p2align	2
	.type	vTaskDelay,%function
	.code	16                              @ @vTaskDelay
	.thumb_func
vTaskDelay:
.Lfunc_begin11:
	.loc	3 1342 0 is_stmt 1              @ ../Middlewares/Third_Party/FreeRTOS/Source/tasks.c:1342:0
	.fnstart
	.cfi_startproc
@ %bb.0:
	.save	{r7, lr}
	push	{r7, lr}
	.cfi_def_cfa_offset 8
	.cfi_offset lr, -4
	.cfi_offset r7, -8
	.pad	#16
	sub	sp, #16
	.cfi_def_cfa_offset 24
	str	r0, [sp, #8]
	movs	r0, #0
.Ltmp259:
	.loc	3 1343 13 prologue_end          @ ../Middlewares/Third_Party/FreeRTOS/Source/tasks.c:1343:13
	str	r0, [sp, #4]
.Ltmp260:
	.loc	3 1346 7                        @ ../Middlewares/Third_Party/FreeRTOS/Source/tasks.c:1346:7
	ldr	r0, [sp, #8]
.Ltmp261:
	.loc	3 1346 7 is_stmt 0              @ ../Middlewares/Third_Party/FreeRTOS/Source/tasks.c:1346:7
	cbz	r0, .LBB11_5
	b	.LBB11_1
.LBB11_1:
.Ltmp262:
	.loc	3 1348 9 is_stmt 1              @ ../Middlewares/Third_Party/FreeRTOS/Source/tasks.c:1348:9
	movw	r0, :lower16:uxSchedulerSuspended
	movt	r0, :upper16:uxSchedulerSuspended
	ldr	r0, [r0]
.Ltmp263:
	.loc	3 1348 8 is_stmt 0              @ ../Middlewares/Third_Party/FreeRTOS/Source/tasks.c:1348:8
	cbz	r0, .LBB11_4
	b	.LBB11_2
.LBB11_2:
.Ltmp264:
	.loc	2 195 2 is_stmt 1               @ ../Middlewares/Third_Party/FreeRTOS/Source/portable/RVDS/ARM_CM4F\portmacro.h:195:2
	@APP
	mov.w	r0, #80
	msr	basepri, r0
	isb	sy
	dsb	sy

	@NO_APP
	str	r0, [sp, #12]
.Ltmp265:
	.loc	3 1348 64                       @ ../Middlewares/Third_Party/FreeRTOS/Source/tasks.c:1348:64
	b	.LBB11_3
.LBB11_3:                               @ =>This Inner Loop Header: Depth=1
.Ltmp266:
	.loc	3 1348 64 is_stmt 0             @ ../Middlewares/Third_Party/FreeRTOS/Source/tasks.c:1348:64
	b	.LBB11_3
.Ltmp267:
.LBB11_4:
	.loc	3 1349 4 is_stmt 1              @ ../Middlewares/Third_Party/FreeRTOS/Source/tasks.c:1349:4
	bl	vTaskSuspendAll
.Ltmp268:
	.loc	3 1360 37                       @ ../Middlewares/Third_Party/FreeRTOS/Source/tasks.c:1360:37
	ldr	r0, [sp, #8]
	movs	r1, #0
	.loc	3 1360 5 is_stmt 0              @ ../Middlewares/Third_Party/FreeRTOS/Source/tasks.c:1360:5
	bl	prvAddCurrentTaskToDelayedList
.Ltmp269:
	.loc	3 1362 22 is_stmt 1             @ ../Middlewares/Third_Party/FreeRTOS/Source/tasks.c:1362:22
	bl	xTaskResumeAll
	.loc	3 1362 20 is_stmt 0             @ ../Middlewares/Third_Party/FreeRTOS/Source/tasks.c:1362:20
	str	r0, [sp, #4]
	.loc	3 1363 3 is_stmt 1              @ ../Middlewares/Third_Party/FreeRTOS/Source/tasks.c:1363:3
	b	.LBB11_6
.Ltmp270:
.LBB11_5:
	.loc	3 0 3 is_stmt 0                 @ ../Middlewares/Third_Party/FreeRTOS/Source/tasks.c:0:3
	b	.LBB11_6
.LBB11_6:
.Ltmp271:
	.loc	3 1371 7 is_stmt 1              @ ../Middlewares/Third_Party/FreeRTOS/Source/tasks.c:1371:7
	ldr	r0, [sp, #4]
.Ltmp272:
	.loc	3 1371 7 is_stmt 0              @ ../Middlewares/Third_Party/FreeRTOS/Source/tasks.c:1371:7
	cbnz	r0, .LBB11_8
	b	.LBB11_7
.LBB11_7:
	.loc	3 0 7                           @ ../Middlewares/Third_Party/FreeRTOS/Source/tasks.c:0:7
	movw	r1, #60676
	movt	r1, #57344
	mov.w	r0, #268435456
.Ltmp273:
	.loc	3 1373 51 is_stmt 1             @ ../Middlewares/Third_Party/FreeRTOS/Source/tasks.c:1373:51
	str	r0, [r1]
	.loc	3 1373 70 is_stmt 0             @ ../Middlewares/Third_Party/FreeRTOS/Source/tasks.c:1373:70
	@APP
	dsb	sy
	@NO_APP
	.loc	3 1373 108                      @ ../Middlewares/Third_Party/FreeRTOS/Source/tasks.c:1373:108
	@APP
	isb	sy
	@NO_APP
.Ltmp274:
	.loc	3 1374 3 is_stmt 1              @ ../Middlewares/Third_Party/FreeRTOS/Source/tasks.c:1374:3
	b	.LBB11_9
.Ltmp275:
.LBB11_8:
	.loc	3 0 3 is_stmt 0                 @ ../Middlewares/Third_Party/FreeRTOS/Source/tasks.c:0:3
	b	.LBB11_9
.LBB11_9:
	.loc	3 1379 2 is_stmt 1              @ ../Middlewares/Third_Party/FreeRTOS/Source/tasks.c:1379:2
	add	sp, #16
	pop	{r7, pc}
.Ltmp276:
.Lfunc_end11:
	.size	vTaskDelay, .Lfunc_end11-vTaskDelay
	.cfi_endproc
	.cantunwind
	.fnend
                                        @ -- End function
	.section	.text.eTaskGetState,"ax",%progbits
	.hidden	eTaskGetState                   @ -- Begin function eTaskGetState
	.globl	eTaskGetState
	.p2align	2
	.type	eTaskGetState,%function
	.code	16                              @ @eTaskGetState
	.thumb_func
eTaskGetState:
.Lfunc_begin12:
	.loc	3 1387 0                        @ ../Middlewares/Third_Party/FreeRTOS/Source/tasks.c:1387:0
	.fnstart
	.cfi_startproc
@ %bb.0:
	.save	{r7, lr}
	push	{r7, lr}
	.cfi_def_cfa_offset 8
	.cfi_offset lr, -4
	.cfi_offset r7, -8
	.pad	#32
	sub	sp, #32
	.cfi_def_cfa_offset 40
	str	r0, [sp, #24]
.Ltmp277:
	.loc	3 1390 30 prologue_end          @ ../Middlewares/Third_Party/FreeRTOS/Source/tasks.c:1390:30
	ldr	r0, [sp, #24]
	.loc	3 1390 22 is_stmt 0             @ ../Middlewares/Third_Party/FreeRTOS/Source/tasks.c:1390:22
	str	r0, [sp, #4]
.Ltmp278:
	.loc	3 1392 8 is_stmt 1              @ ../Middlewares/Third_Party/FreeRTOS/Source/tasks.c:1392:8
	ldr	r0, [sp, #4]
.Ltmp279:
	.loc	3 1392 7 is_stmt 0              @ ../Middlewares/Third_Party/FreeRTOS/Source/tasks.c:1392:7
	cbnz	r0, .LBB12_3
	b	.LBB12_1
.LBB12_1:
.Ltmp280:
	.loc	2 195 2 is_stmt 1               @ ../Middlewares/Third_Party/FreeRTOS/Source/portable/RVDS/ARM_CM4F\portmacro.h:195:2
	@APP
	mov.w	r0, #80
	msr	basepri, r0
	isb	sy
	dsb	sy

	@NO_APP
	str	r0, [sp, #28]
.Ltmp281:
	.loc	3 1392 43                       @ ../Middlewares/Third_Party/FreeRTOS/Source/tasks.c:1392:43
	b	.LBB12_2
.LBB12_2:                               @ =>This Inner Loop Header: Depth=1
.Ltmp282:
	.loc	3 1392 43 is_stmt 0             @ ../Middlewares/Third_Party/FreeRTOS/Source/tasks.c:1392:43
	b	.LBB12_2
.Ltmp283:
.LBB12_3:
	.loc	3 1394 7 is_stmt 1              @ ../Middlewares/Third_Party/FreeRTOS/Source/tasks.c:1394:7
	ldr	r0, [sp, #4]
	.loc	3 1394 16 is_stmt 0             @ ../Middlewares/Third_Party/FreeRTOS/Source/tasks.c:1394:16
	movw	r1, :lower16:pxCurrentTCB
	movt	r1, :upper16:pxCurrentTCB
	ldr	r1, [r1]
.Ltmp284:
	.loc	3 1394 7                        @ ../Middlewares/Third_Party/FreeRTOS/Source/tasks.c:1394:7
	cmp	r0, r1
	bne	.LBB12_5
	b	.LBB12_4
.LBB12_4:
	.loc	3 0 7                           @ ../Middlewares/Third_Party/FreeRTOS/Source/tasks.c:0:7
	movs	r0, #0
.Ltmp285:
	.loc	3 1397 12 is_stmt 1             @ ../Middlewares/Third_Party/FreeRTOS/Source/tasks.c:1397:12
	strb.w	r0, [sp, #23]
	.loc	3 1398 3                        @ ../Middlewares/Third_Party/FreeRTOS/Source/tasks.c:1398:3
	b	.LBB12_23
.Ltmp286:
.LBB12_5:
	.loc	3 1401 4                        @ ../Middlewares/Third_Party/FreeRTOS/Source/tasks.c:1401:4
	bl	vPortEnterCritical
.Ltmp287:
	.loc	3 1403 26                       @ ../Middlewares/Third_Party/FreeRTOS/Source/tasks.c:1403:26
	ldr	r0, [sp, #4]
	.loc	3 1403 53 is_stmt 0             @ ../Middlewares/Third_Party/FreeRTOS/Source/tasks.c:1403:53
	ldr	r0, [r0, #20]
	.loc	3 1403 17                       @ ../Middlewares/Third_Party/FreeRTOS/Source/tasks.c:1403:17
	str	r0, [sp, #16]
	.loc	3 1404 21 is_stmt 1             @ ../Middlewares/Third_Party/FreeRTOS/Source/tasks.c:1404:21
	movw	r0, :lower16:pxDelayedTaskList
	movt	r0, :upper16:pxDelayedTaskList
	ldr	r0, [r0]
	.loc	3 1404 19 is_stmt 0             @ ../Middlewares/Third_Party/FreeRTOS/Source/tasks.c:1404:19
	str	r0, [sp, #12]
	.loc	3 1405 31 is_stmt 1             @ ../Middlewares/Third_Party/FreeRTOS/Source/tasks.c:1405:31
	movw	r0, :lower16:pxOverflowDelayedTaskList
	movt	r0, :upper16:pxOverflowDelayedTaskList
	ldr	r0, [r0]
	.loc	3 1405 29 is_stmt 0             @ ../Middlewares/Third_Party/FreeRTOS/Source/tasks.c:1405:29
	str	r0, [sp, #8]
.Ltmp288:
	.loc	3 1407 4 is_stmt 1              @ ../Middlewares/Third_Party/FreeRTOS/Source/tasks.c:1407:4
	bl	vPortExitCritical
.Ltmp289:
	.loc	3 1409 10                       @ ../Middlewares/Third_Party/FreeRTOS/Source/tasks.c:1409:10
	ldr	r0, [sp, #16]
	.loc	3 1409 25 is_stmt 0             @ ../Middlewares/Third_Party/FreeRTOS/Source/tasks.c:1409:25
	ldr	r1, [sp, #12]
	.loc	3 1409 41                       @ ../Middlewares/Third_Party/FreeRTOS/Source/tasks.c:1409:41
	cmp	r0, r1
	beq	.LBB12_7
	b	.LBB12_6
.LBB12_6:
	.loc	3 1409 46                       @ ../Middlewares/Third_Party/FreeRTOS/Source/tasks.c:1409:46
	ldr	r0, [sp, #16]
	.loc	3 1409 61                       @ ../Middlewares/Third_Party/FreeRTOS/Source/tasks.c:1409:61
	ldr	r1, [sp, #8]
.Ltmp290:
	.loc	3 1409 8                        @ ../Middlewares/Third_Party/FreeRTOS/Source/tasks.c:1409:8
	cmp	r0, r1
	bne	.LBB12_8
	b	.LBB12_7
.LBB12_7:
	.loc	3 0 8                           @ ../Middlewares/Third_Party/FreeRTOS/Source/tasks.c:0:8
	movs	r0, #2
.Ltmp291:
	.loc	3 1413 13 is_stmt 1             @ ../Middlewares/Third_Party/FreeRTOS/Source/tasks.c:1413:13
	strb.w	r0, [sp, #23]
	.loc	3 1414 4                        @ ../Middlewares/Third_Party/FreeRTOS/Source/tasks.c:1414:4
	b	.LBB12_22
.Ltmp292:
.LBB12_8:
	.loc	3 1417 14                       @ ../Middlewares/Third_Party/FreeRTOS/Source/tasks.c:1417:14
	ldr	r0, [sp, #16]
	.loc	3 1417 26 is_stmt 0             @ ../Middlewares/Third_Party/FreeRTOS/Source/tasks.c:1417:26
	movw	r1, :lower16:xSuspendedTaskList
	movt	r1, :upper16:xSuspendedTaskList
.Ltmp293:
	.loc	3 1417 14                       @ ../Middlewares/Third_Party/FreeRTOS/Source/tasks.c:1417:14
	cmp	r0, r1
	bne	.LBB12_16
	b	.LBB12_9
.LBB12_9:
.Ltmp294:
	.loc	3 1422 17 is_stmt 1             @ ../Middlewares/Third_Party/FreeRTOS/Source/tasks.c:1422:17
	ldr	r0, [sp, #4]
	.loc	3 1422 44 is_stmt 0             @ ../Middlewares/Third_Party/FreeRTOS/Source/tasks.c:1422:44
	ldr	r0, [r0, #40]
.Ltmp295:
	.loc	3 1422 10                       @ ../Middlewares/Third_Party/FreeRTOS/Source/tasks.c:1422:10
	cbnz	r0, .LBB12_14
	b	.LBB12_10
.LBB12_10:
.Ltmp296:
	.loc	3 1430 12 is_stmt 1             @ ../Middlewares/Third_Party/FreeRTOS/Source/tasks.c:1430:12
	ldr	r0, [sp, #4]
	.loc	3 1430 19 is_stmt 0             @ ../Middlewares/Third_Party/FreeRTOS/Source/tasks.c:1430:19
	ldrb.w	r0, [r0, #80]
.Ltmp297:
	.loc	3 1430 12                       @ ../Middlewares/Third_Party/FreeRTOS/Source/tasks.c:1430:12
	cmp	r0, #1
	bne	.LBB12_12
	b	.LBB12_11
.LBB12_11:
	.loc	3 0 12                          @ ../Middlewares/Third_Party/FreeRTOS/Source/tasks.c:0:12
	movs	r0, #2
.Ltmp298:
	.loc	3 1432 17 is_stmt 1             @ ../Middlewares/Third_Party/FreeRTOS/Source/tasks.c:1432:17
	strb.w	r0, [sp, #23]
	.loc	3 1433 8                        @ ../Middlewares/Third_Party/FreeRTOS/Source/tasks.c:1433:8
	b	.LBB12_13
.Ltmp299:
.LBB12_12:
	.loc	3 0 8 is_stmt 0                 @ ../Middlewares/Third_Party/FreeRTOS/Source/tasks.c:0:8
	movs	r0, #3
.Ltmp300:
	.loc	3 1436 17 is_stmt 1             @ ../Middlewares/Third_Party/FreeRTOS/Source/tasks.c:1436:17
	strb.w	r0, [sp, #23]
	b	.LBB12_13
.Ltmp301:
.LBB12_13:
	.loc	3 1444 6                        @ ../Middlewares/Third_Party/FreeRTOS/Source/tasks.c:1444:6
	b	.LBB12_15
.Ltmp302:
.LBB12_14:
	.loc	3 0 6 is_stmt 0                 @ ../Middlewares/Third_Party/FreeRTOS/Source/tasks.c:0:6
	movs	r0, #2
.Ltmp303:
	.loc	3 1447 15 is_stmt 1             @ ../Middlewares/Third_Party/FreeRTOS/Source/tasks.c:1447:15
	strb.w	r0, [sp, #23]
	b	.LBB12_15
.Ltmp304:
.LBB12_15:
	.loc	3 1449 5                        @ ../Middlewares/Third_Party/FreeRTOS/Source/tasks.c:1449:5
	b	.LBB12_21
.Ltmp305:
.LBB12_16:
	.loc	3 1453 16                       @ ../Middlewares/Third_Party/FreeRTOS/Source/tasks.c:1453:16
	ldr	r0, [sp, #16]
	.loc	3 1453 28 is_stmt 0             @ ../Middlewares/Third_Party/FreeRTOS/Source/tasks.c:1453:28
	movw	r1, :lower16:xTasksWaitingTermination
	movt	r1, :upper16:xTasksWaitingTermination
	.loc	3 1453 59                       @ ../Middlewares/Third_Party/FreeRTOS/Source/tasks.c:1453:59
	cmp	r0, r1
	beq	.LBB12_18
	b	.LBB12_17
.LBB12_17:
	.loc	3 1453 64                       @ ../Middlewares/Third_Party/FreeRTOS/Source/tasks.c:1453:64
	ldr	r0, [sp, #16]
.Ltmp306:
	.loc	3 1453 14                       @ ../Middlewares/Third_Party/FreeRTOS/Source/tasks.c:1453:14
	cbnz	r0, .LBB12_19
	b	.LBB12_18
.LBB12_18:
	.loc	3 0 14                          @ ../Middlewares/Third_Party/FreeRTOS/Source/tasks.c:0:14
	movs	r0, #4
.Ltmp307:
	.loc	3 1458 14 is_stmt 1             @ ../Middlewares/Third_Party/FreeRTOS/Source/tasks.c:1458:14
	strb.w	r0, [sp, #23]
	.loc	3 1459 5                        @ ../Middlewares/Third_Party/FreeRTOS/Source/tasks.c:1459:5
	b	.LBB12_20
.Ltmp308:
.LBB12_19:
	.loc	3 0 5 is_stmt 0                 @ ../Middlewares/Third_Party/FreeRTOS/Source/tasks.c:0:5
	movs	r0, #1
.Ltmp309:
	.loc	3 1466 13 is_stmt 1             @ ../Middlewares/Third_Party/FreeRTOS/Source/tasks.c:1466:13
	strb.w	r0, [sp, #23]
	b	.LBB12_20
.Ltmp310:
.LBB12_20:
	.loc	3 0 13 is_stmt 0                @ ../Middlewares/Third_Party/FreeRTOS/Source/tasks.c:0:13
	b	.LBB12_21
.LBB12_21:
	b	.LBB12_22
.LBB12_22:
	b	.LBB12_23
.LBB12_23:
	.loc	3 1470 10 is_stmt 1             @ ../Middlewares/Third_Party/FreeRTOS/Source/tasks.c:1470:10
	ldrb.w	r0, [sp, #23]
	.loc	3 1470 3 is_stmt 0              @ ../Middlewares/Third_Party/FreeRTOS/Source/tasks.c:1470:3
	add	sp, #32
	pop	{r7, pc}
.Ltmp311:
.Lfunc_end12:
	.size	eTaskGetState, .Lfunc_end12-eTaskGetState
	.cfi_endproc
	.cantunwind
	.fnend
                                        @ -- End function
	.section	.text.uxTaskPriorityGet,"ax",%progbits
	.hidden	uxTaskPriorityGet               @ -- Begin function uxTaskPriorityGet
	.globl	uxTaskPriorityGet
	.p2align	2
	.type	uxTaskPriorityGet,%function
	.code	16                              @ @uxTaskPriorityGet
	.thumb_func
uxTaskPriorityGet:
.Lfunc_begin13:
	.loc	3 1479 0 is_stmt 1              @ ../Middlewares/Third_Party/FreeRTOS/Source/tasks.c:1479:0
	.fnstart
	.cfi_startproc
@ %bb.0:
	.save	{r7, lr}
	push	{r7, lr}
	.cfi_def_cfa_offset 8
	.cfi_offset lr, -4
	.cfi_offset r7, -8
	.pad	#16
	sub	sp, #16
	.cfi_def_cfa_offset 24
	str	r0, [sp, #12]
.Ltmp312:
	.loc	3 1483 3 prologue_end           @ ../Middlewares/Third_Party/FreeRTOS/Source/tasks.c:1483:3
	bl	vPortEnterCritical
.Ltmp313:
	.loc	3 1487 18                       @ ../Middlewares/Third_Party/FreeRTOS/Source/tasks.c:1487:18
	ldr	r0, [sp, #12]
	.loc	3 1487 14 is_stmt 0             @ ../Middlewares/Third_Party/FreeRTOS/Source/tasks.c:1487:14
	cbnz	r0, .LBB13_2
	b	.LBB13_1
.LBB13_1:
	.loc	3 1487 35                       @ ../Middlewares/Third_Party/FreeRTOS/Source/tasks.c:1487:35
	movw	r0, :lower16:pxCurrentTCB
	movt	r0, :upper16:pxCurrentTCB
	ldr	r0, [r0]
	.loc	3 1487 14                       @ ../Middlewares/Third_Party/FreeRTOS/Source/tasks.c:1487:14
	str	r0, [sp]                        @ 4-byte Spill
	b	.LBB13_3
.LBB13_2:
	.loc	3 1487 52                       @ ../Middlewares/Third_Party/FreeRTOS/Source/tasks.c:1487:52
	ldr	r0, [sp, #12]
	.loc	3 1487 14                       @ ../Middlewares/Third_Party/FreeRTOS/Source/tasks.c:1487:14
	str	r0, [sp]                        @ 4-byte Spill
	b	.LBB13_3
.LBB13_3:
	ldr	r0, [sp]                        @ 4-byte Reload
	.loc	3 1487 10                       @ ../Middlewares/Third_Party/FreeRTOS/Source/tasks.c:1487:10
	str	r0, [sp, #8]
	.loc	3 1488 15 is_stmt 1             @ ../Middlewares/Third_Party/FreeRTOS/Source/tasks.c:1488:15
	ldr	r0, [sp, #8]
	.loc	3 1488 22 is_stmt 0             @ ../Middlewares/Third_Party/FreeRTOS/Source/tasks.c:1488:22
	ldr	r0, [r0, #44]
	.loc	3 1488 13                       @ ../Middlewares/Third_Party/FreeRTOS/Source/tasks.c:1488:13
	str	r0, [sp, #4]
.Ltmp314:
	.loc	3 1490 3 is_stmt 1              @ ../Middlewares/Third_Party/FreeRTOS/Source/tasks.c:1490:3
	bl	vPortExitCritical
	.loc	3 1492 10                       @ ../Middlewares/Third_Party/FreeRTOS/Source/tasks.c:1492:10
	ldr	r0, [sp, #4]
	.loc	3 1492 3 is_stmt 0              @ ../Middlewares/Third_Party/FreeRTOS/Source/tasks.c:1492:3
	add	sp, #16
	pop	{r7, pc}
.Ltmp315:
.Lfunc_end13:
	.size	uxTaskPriorityGet, .Lfunc_end13-uxTaskPriorityGet
	.cfi_endproc
	.cantunwind
	.fnend
                                        @ -- End function
	.section	.text.uxTaskPriorityGetFromISR,"ax",%progbits
	.hidden	uxTaskPriorityGetFromISR        @ -- Begin function uxTaskPriorityGetFromISR
	.globl	uxTaskPriorityGetFromISR
	.p2align	2
	.type	uxTaskPriorityGetFromISR,%function
	.code	16                              @ @uxTaskPriorityGetFromISR
	.thumb_func
uxTaskPriorityGetFromISR:
.Lfunc_begin14:
	.loc	3 1501 0 is_stmt 1              @ ../Middlewares/Third_Party/FreeRTOS/Source/tasks.c:1501:0
	.fnstart
	.cfi_startproc
@ %bb.0:
	.save	{r7, lr}
	push	{r7, lr}
	.cfi_def_cfa_offset 8
	.cfi_offset lr, -4
	.cfi_offset r7, -8
	.pad	#32
	sub	sp, #32
	.cfi_def_cfa_offset 40
	str	r0, [sp, #16]
.Ltmp316:
	.loc	3 1521 3 prologue_end           @ ../Middlewares/Third_Party/FreeRTOS/Source/tasks.c:1521:3
	bl	vPortValidateInterruptPriority
.Ltmp317:
	.loc	2 211 2                         @ ../Middlewares/Third_Party/FreeRTOS/Source/portable/RVDS/ARM_CM4F\portmacro.h:211:2
	@APP
	mrs	r1, basepri
	mov.w	r0, #80
	msr	basepri, r0
	isb	sy
	dsb	sy

	@NO_APP
	str	r1, [sp, #24]
	str	r0, [sp, #20]
	.loc	2 223 9                         @ ../Middlewares/Third_Party/FreeRTOS/Source/portable/RVDS/ARM_CM4F\portmacro.h:223:9
	ldr	r0, [sp, #24]
.Ltmp318:
	.loc	3 1523 25                       @ ../Middlewares/Third_Party/FreeRTOS/Source/tasks.c:1523:25
	str	r0, [sp, #4]
.Ltmp319:
	.loc	3 1527 18                       @ ../Middlewares/Third_Party/FreeRTOS/Source/tasks.c:1527:18
	ldr	r0, [sp, #16]
	.loc	3 1527 14 is_stmt 0             @ ../Middlewares/Third_Party/FreeRTOS/Source/tasks.c:1527:14
	cbnz	r0, .LBB14_2
	b	.LBB14_1
.LBB14_1:
	.loc	3 1527 35                       @ ../Middlewares/Third_Party/FreeRTOS/Source/tasks.c:1527:35
	movw	r0, :lower16:pxCurrentTCB
	movt	r0, :upper16:pxCurrentTCB
	ldr	r0, [r0]
	.loc	3 1527 14                       @ ../Middlewares/Third_Party/FreeRTOS/Source/tasks.c:1527:14
	str	r0, [sp]                        @ 4-byte Spill
	b	.LBB14_3
.LBB14_2:
	.loc	3 1527 52                       @ ../Middlewares/Third_Party/FreeRTOS/Source/tasks.c:1527:52
	ldr	r0, [sp, #16]
	.loc	3 1527 14                       @ ../Middlewares/Third_Party/FreeRTOS/Source/tasks.c:1527:14
	str	r0, [sp]                        @ 4-byte Spill
	b	.LBB14_3
.LBB14_3:
	ldr	r0, [sp]                        @ 4-byte Reload
	.loc	3 1527 10                       @ ../Middlewares/Third_Party/FreeRTOS/Source/tasks.c:1527:10
	str	r0, [sp, #12]
	.loc	3 1528 15 is_stmt 1             @ ../Middlewares/Third_Party/FreeRTOS/Source/tasks.c:1528:15
	ldr	r0, [sp, #12]
	.loc	3 1528 22 is_stmt 0             @ ../Middlewares/Third_Party/FreeRTOS/Source/tasks.c:1528:22
	ldr	r0, [r0, #44]
	.loc	3 1528 13                       @ ../Middlewares/Third_Party/FreeRTOS/Source/tasks.c:1528:13
	str	r0, [sp, #8]
.Ltmp320:
	.loc	3 1530 19 is_stmt 1             @ ../Middlewares/Third_Party/FreeRTOS/Source/tasks.c:1530:19
	ldr	r0, [sp, #4]
	str	r0, [sp, #28]
.Ltmp321:
	.loc	2 231 32                        @ ../Middlewares/Third_Party/FreeRTOS/Source/portable/RVDS/ARM_CM4F\portmacro.h:231:32
	ldr	r0, [sp, #28]
	.loc	2 229 2                         @ ../Middlewares/Third_Party/FreeRTOS/Source/portable/RVDS/ARM_CM4F\portmacro.h:229:2
	@APP
	msr	basepri, r0
	@NO_APP
.Ltmp322:
	.loc	3 1532 10                       @ ../Middlewares/Third_Party/FreeRTOS/Source/tasks.c:1532:10
	ldr	r0, [sp, #8]
	.loc	3 1532 3 is_stmt 0              @ ../Middlewares/Third_Party/FreeRTOS/Source/tasks.c:1532:3
	add	sp, #32
	pop	{r7, pc}
.Ltmp323:
.Lfunc_end14:
	.size	uxTaskPriorityGetFromISR, .Lfunc_end14-uxTaskPriorityGetFromISR
	.cfi_endproc
	.cantunwind
	.fnend
                                        @ -- End function
	.section	.text.vTaskPrioritySet,"ax",%progbits
	.hidden	vTaskPrioritySet                @ -- Begin function vTaskPrioritySet
	.globl	vTaskPrioritySet
	.p2align	2
	.type	vTaskPrioritySet,%function
	.code	16                              @ @vTaskPrioritySet
	.thumb_func
vTaskPrioritySet:
.Lfunc_begin15:
	.loc	3 1541 0 is_stmt 1              @ ../Middlewares/Third_Party/FreeRTOS/Source/tasks.c:1541:0
	.fnstart
	.cfi_startproc
@ %bb.0:
	.save	{r7, lr}
	push	{r7, lr}
	.cfi_def_cfa_offset 8
	.cfi_offset lr, -4
	.cfi_offset r7, -8
	.pad	#32
	sub	sp, #32
	.cfi_def_cfa_offset 40
	str	r0, [sp, #24]
	str	r1, [sp, #20]
	movs	r0, #0
.Ltmp324:
	.loc	3 1544 13 prologue_end          @ ../Middlewares/Third_Party/FreeRTOS/Source/tasks.c:1544:13
	str	r0, [sp, #4]
.Ltmp325:
	.loc	3 1546 10                       @ ../Middlewares/Third_Party/FreeRTOS/Source/tasks.c:1546:10
	ldr	r0, [sp, #20]
.Ltmp326:
	.loc	3 1546 7 is_stmt 0              @ ../Middlewares/Third_Party/FreeRTOS/Source/tasks.c:1546:7
	cmp	r0, #7
	blo	.LBB15_3
	b	.LBB15_1
.LBB15_1:
.Ltmp327:
	.loc	2 195 2 is_stmt 1               @ ../Middlewares/Third_Party/FreeRTOS/Source/portable/RVDS/ARM_CM4F\portmacro.h:195:2
	@APP
	mov.w	r0, #80
	msr	basepri, r0
	isb	sy
	dsb	sy

	@NO_APP
	str	r0, [sp, #28]
.Ltmp328:
	.loc	3 1546 63                       @ ../Middlewares/Third_Party/FreeRTOS/Source/tasks.c:1546:63
	b	.LBB15_2
.LBB15_2:                               @ =>This Inner Loop Header: Depth=1
.Ltmp329:
	.loc	3 1546 63 is_stmt 0             @ ../Middlewares/Third_Party/FreeRTOS/Source/tasks.c:1546:63
	b	.LBB15_2
.Ltmp330:
.LBB15_3:
	.loc	3 1549 7 is_stmt 1              @ ../Middlewares/Third_Party/FreeRTOS/Source/tasks.c:1549:7
	ldr	r0, [sp, #20]
.Ltmp331:
	.loc	3 1549 7 is_stmt 0              @ ../Middlewares/Third_Party/FreeRTOS/Source/tasks.c:1549:7
	cmp	r0, #7
	blo	.LBB15_5
	b	.LBB15_4
.LBB15_4:
	.loc	3 0 7                           @ ../Middlewares/Third_Party/FreeRTOS/Source/tasks.c:0:7
	movs	r0, #6
.Ltmp332:
	.loc	3 1551 18 is_stmt 1             @ ../Middlewares/Third_Party/FreeRTOS/Source/tasks.c:1551:18
	str	r0, [sp, #20]
	.loc	3 1552 3                        @ ../Middlewares/Third_Party/FreeRTOS/Source/tasks.c:1552:3
	b	.LBB15_6
.Ltmp333:
.LBB15_5:
	.loc	3 0 3 is_stmt 0                 @ ../Middlewares/Third_Party/FreeRTOS/Source/tasks.c:0:3
	b	.LBB15_6
.LBB15_6:
	.loc	3 1558 3 is_stmt 1              @ ../Middlewares/Third_Party/FreeRTOS/Source/tasks.c:1558:3
	bl	vPortEnterCritical
.Ltmp334:
	.loc	3 1562 18                       @ ../Middlewares/Third_Party/FreeRTOS/Source/tasks.c:1562:18
	ldr	r0, [sp, #24]
	.loc	3 1562 14 is_stmt 0             @ ../Middlewares/Third_Party/FreeRTOS/Source/tasks.c:1562:14
	cbnz	r0, .LBB15_8
	b	.LBB15_7
.LBB15_7:
	.loc	3 1562 35                       @ ../Middlewares/Third_Party/FreeRTOS/Source/tasks.c:1562:35
	movw	r0, :lower16:pxCurrentTCB
	movt	r0, :upper16:pxCurrentTCB
	ldr	r0, [r0]
	.loc	3 1562 14                       @ ../Middlewares/Third_Party/FreeRTOS/Source/tasks.c:1562:14
	str	r0, [sp]                        @ 4-byte Spill
	b	.LBB15_9
.LBB15_8:
	.loc	3 1562 52                       @ ../Middlewares/Third_Party/FreeRTOS/Source/tasks.c:1562:52
	ldr	r0, [sp, #24]
	.loc	3 1562 14                       @ ../Middlewares/Third_Party/FreeRTOS/Source/tasks.c:1562:14
	str	r0, [sp]                        @ 4-byte Spill
	b	.LBB15_9
.LBB15_9:
	ldr	r0, [sp]                        @ 4-byte Reload
	.loc	3 1562 10                       @ ../Middlewares/Third_Party/FreeRTOS/Source/tasks.c:1562:10
	str	r0, [sp, #16]
.Ltmp335:
	.loc	3 1568 29 is_stmt 1             @ ../Middlewares/Third_Party/FreeRTOS/Source/tasks.c:1568:29
	ldr	r0, [sp, #16]
	.loc	3 1568 36 is_stmt 0             @ ../Middlewares/Third_Party/FreeRTOS/Source/tasks.c:1568:36
	ldr	r0, [r0, #68]
	.loc	3 1568 27                       @ ../Middlewares/Third_Party/FreeRTOS/Source/tasks.c:1568:27
	str	r0, [sp, #12]
.Ltmp336:
	.loc	3 1576 8 is_stmt 1              @ ../Middlewares/Third_Party/FreeRTOS/Source/tasks.c:1576:8
	ldr	r0, [sp, #12]
	.loc	3 1576 33 is_stmt 0             @ ../Middlewares/Third_Party/FreeRTOS/Source/tasks.c:1576:33
	ldr	r1, [sp, #20]
.Ltmp337:
	.loc	3 1576 8                        @ ../Middlewares/Third_Party/FreeRTOS/Source/tasks.c:1576:8
	cmp	r0, r1
	beq.w	.LBB15_38
	b	.LBB15_10
.LBB15_10:
.Ltmp338:
	.loc	3 1580 9 is_stmt 1              @ ../Middlewares/Third_Party/FreeRTOS/Source/tasks.c:1580:9
	ldr	r0, [sp, #20]
	.loc	3 1580 25 is_stmt 0             @ ../Middlewares/Third_Party/FreeRTOS/Source/tasks.c:1580:25
	ldr	r1, [sp, #12]
.Ltmp339:
	.loc	3 1580 9                        @ ../Middlewares/Third_Party/FreeRTOS/Source/tasks.c:1580:9
	cmp	r0, r1
	bls	.LBB15_18
	b	.LBB15_11
.LBB15_11:
.Ltmp340:
	.loc	3 1582 10 is_stmt 1             @ ../Middlewares/Third_Party/FreeRTOS/Source/tasks.c:1582:10
	ldr	r0, [sp, #16]
	.loc	3 1582 19 is_stmt 0             @ ../Middlewares/Third_Party/FreeRTOS/Source/tasks.c:1582:19
	movw	r1, :lower16:pxCurrentTCB
	movt	r1, :upper16:pxCurrentTCB
	ldr	r1, [r1]
.Ltmp341:
	.loc	3 1582 10                       @ ../Middlewares/Third_Party/FreeRTOS/Source/tasks.c:1582:10
	cmp	r0, r1
	beq	.LBB15_16
	b	.LBB15_12
.LBB15_12:
.Ltmp342:
	.loc	3 1587 11 is_stmt 1             @ ../Middlewares/Third_Party/FreeRTOS/Source/tasks.c:1587:11
	ldr	r0, [sp, #20]
	.loc	3 1587 28 is_stmt 0             @ ../Middlewares/Third_Party/FreeRTOS/Source/tasks.c:1587:28
	movw	r1, :lower16:pxCurrentTCB
	movt	r1, :upper16:pxCurrentTCB
	ldr	r1, [r1]
	.loc	3 1587 42                       @ ../Middlewares/Third_Party/FreeRTOS/Source/tasks.c:1587:42
	ldr	r1, [r1, #44]
.Ltmp343:
	.loc	3 1587 11                       @ ../Middlewares/Third_Party/FreeRTOS/Source/tasks.c:1587:11
	cmp	r0, r1
	blo	.LBB15_14
	b	.LBB15_13
.LBB15_13:
	.loc	3 0 11                          @ ../Middlewares/Third_Party/FreeRTOS/Source/tasks.c:0:11
	movs	r0, #1
.Ltmp344:
	.loc	3 1589 23 is_stmt 1             @ ../Middlewares/Third_Party/FreeRTOS/Source/tasks.c:1589:23
	str	r0, [sp, #4]
	.loc	3 1590 7                        @ ../Middlewares/Third_Party/FreeRTOS/Source/tasks.c:1590:7
	b	.LBB15_15
.Ltmp345:
.LBB15_14:
	.loc	3 0 7 is_stmt 0                 @ ../Middlewares/Third_Party/FreeRTOS/Source/tasks.c:0:7
	b	.LBB15_15
.LBB15_15:
	.loc	3 1595 6 is_stmt 1              @ ../Middlewares/Third_Party/FreeRTOS/Source/tasks.c:1595:6
	b	.LBB15_17
.Ltmp346:
.LBB15_16:
	.loc	3 0 6 is_stmt 0                 @ ../Middlewares/Third_Party/FreeRTOS/Source/tasks.c:0:6
	b	.LBB15_17
.LBB15_17:
	.loc	3 1602 5 is_stmt 1              @ ../Middlewares/Third_Party/FreeRTOS/Source/tasks.c:1602:5
	b	.LBB15_22
.Ltmp347:
.LBB15_18:
	.loc	3 1603 14                       @ ../Middlewares/Third_Party/FreeRTOS/Source/tasks.c:1603:14
	ldr	r0, [sp, #16]
	.loc	3 1603 23 is_stmt 0             @ ../Middlewares/Third_Party/FreeRTOS/Source/tasks.c:1603:23
	movw	r1, :lower16:pxCurrentTCB
	movt	r1, :upper16:pxCurrentTCB
	ldr	r1, [r1]
.Ltmp348:
	.loc	3 1603 14                       @ ../Middlewares/Third_Party/FreeRTOS/Source/tasks.c:1603:14
	cmp	r0, r1
	bne	.LBB15_20
	b	.LBB15_19
.LBB15_19:
	.loc	3 0 14                          @ ../Middlewares/Third_Party/FreeRTOS/Source/tasks.c:0:14
	movs	r0, #1
.Ltmp349:
	.loc	3 1608 21 is_stmt 1             @ ../Middlewares/Third_Party/FreeRTOS/Source/tasks.c:1608:21
	str	r0, [sp, #4]
	.loc	3 1609 5                        @ ../Middlewares/Third_Party/FreeRTOS/Source/tasks.c:1609:5
	b	.LBB15_21
.Ltmp350:
.LBB15_20:
	.loc	3 0 5 is_stmt 0                 @ ../Middlewares/Third_Party/FreeRTOS/Source/tasks.c:0:5
	b	.LBB15_21
.LBB15_21:
	b	.LBB15_22
.LBB15_22:
	.loc	3 1620 29 is_stmt 1             @ ../Middlewares/Third_Party/FreeRTOS/Source/tasks.c:1620:29
	ldr	r0, [sp, #16]
	.loc	3 1620 36 is_stmt 0             @ ../Middlewares/Third_Party/FreeRTOS/Source/tasks.c:1620:36
	ldr	r0, [r0, #44]
	.loc	3 1620 27                       @ ../Middlewares/Third_Party/FreeRTOS/Source/tasks.c:1620:27
	str	r0, [sp, #8]
.Ltmp351:
	.loc	3 1626 10 is_stmt 1             @ ../Middlewares/Third_Party/FreeRTOS/Source/tasks.c:1626:10
	ldr	r0, [sp, #16]
	.loc	3 1626 42 is_stmt 0             @ ../Middlewares/Third_Party/FreeRTOS/Source/tasks.c:1626:42
	ldr	r1, [r0, #44]
	.loc	3 1626 17                       @ ../Middlewares/Third_Party/FreeRTOS/Source/tasks.c:1626:17
	ldr	r0, [r0, #68]
.Ltmp352:
	.loc	3 1626 10                       @ ../Middlewares/Third_Party/FreeRTOS/Source/tasks.c:1626:10
	cmp	r0, r1
	bne	.LBB15_24
	b	.LBB15_23
.LBB15_23:
.Ltmp353:
	.loc	3 1628 27 is_stmt 1             @ ../Middlewares/Third_Party/FreeRTOS/Source/tasks.c:1628:27
	ldr	r0, [sp, #20]
	.loc	3 1628 7 is_stmt 0              @ ../Middlewares/Third_Party/FreeRTOS/Source/tasks.c:1628:7
	ldr	r1, [sp, #16]
	.loc	3 1628 25                       @ ../Middlewares/Third_Party/FreeRTOS/Source/tasks.c:1628:25
	str	r0, [r1, #44]
	.loc	3 1629 6 is_stmt 1              @ ../Middlewares/Third_Party/FreeRTOS/Source/tasks.c:1629:6
	b	.LBB15_25
.Ltmp354:
.LBB15_24:
	.loc	3 0 6 is_stmt 0                 @ ../Middlewares/Third_Party/FreeRTOS/Source/tasks.c:0:6
	b	.LBB15_25
.LBB15_25:
	.loc	3 1636 30 is_stmt 1             @ ../Middlewares/Third_Party/FreeRTOS/Source/tasks.c:1636:30
	ldr	r0, [sp, #20]
	.loc	3 1636 6 is_stmt 0              @ ../Middlewares/Third_Party/FreeRTOS/Source/tasks.c:1636:6
	ldr	r1, [sp, #16]
	.loc	3 1636 28                       @ ../Middlewares/Third_Party/FreeRTOS/Source/tasks.c:1636:28
	str	r0, [r1, #68]
.Ltmp355:
	.loc	3 1646 18 is_stmt 1             @ ../Middlewares/Third_Party/FreeRTOS/Source/tasks.c:1646:18
	ldr	r0, [sp, #16]
.Ltmp356:
	.loc	3 1646 9 is_stmt 0              @ ../Middlewares/Third_Party/FreeRTOS/Source/tasks.c:1646:9
	ldrb	r0, [r0, #27]
	lsls	r0, r0, #24
	cmp	r0, #0
	bmi	.LBB15_27
	b	.LBB15_26
.LBB15_26:
.Ltmp357:
	.loc	3 1648 95 is_stmt 1             @ ../Middlewares/Third_Party/FreeRTOS/Source/tasks.c:1648:95
	ldr	r0, [sp, #20]
	.loc	3 1648 78 is_stmt 0             @ ../Middlewares/Third_Party/FreeRTOS/Source/tasks.c:1648:78
	rsb.w	r0, r0, #7
	.loc	3 1648 13                       @ ../Middlewares/Third_Party/FreeRTOS/Source/tasks.c:1648:13
	ldr	r1, [sp, #16]
	.loc	3 1648 51                       @ ../Middlewares/Third_Party/FreeRTOS/Source/tasks.c:1648:51
	str	r0, [r1, #24]
	.loc	3 1649 5 is_stmt 1              @ ../Middlewares/Third_Party/FreeRTOS/Source/tasks.c:1649:5
	b	.LBB15_28
.Ltmp358:
.LBB15_27:
	.loc	3 0 5 is_stmt 0                 @ ../Middlewares/Third_Party/FreeRTOS/Source/tasks.c:0:5
	b	.LBB15_28
.LBB15_28:
.Ltmp359:
	.loc	3 1659 18 is_stmt 1             @ ../Middlewares/Third_Party/FreeRTOS/Source/tasks.c:1659:18
	ldr	r0, [sp, #16]
	.loc	3 1659 45 is_stmt 0             @ ../Middlewares/Third_Party/FreeRTOS/Source/tasks.c:1659:45
	ldr	r0, [r0, #20]
	.loc	3 1659 84                       @ ../Middlewares/Third_Party/FreeRTOS/Source/tasks.c:1659:84
	ldr	r1, [sp, #8]
	.loc	3 1659 65                       @ ../Middlewares/Third_Party/FreeRTOS/Source/tasks.c:1659:65
	add.w	r2, r1, r1, lsl #2
	movw	r1, :lower16:pxReadyTasksLists
	movt	r1, :upper16:pxReadyTasksLists
	add.w	r1, r1, r2, lsl #2
.Ltmp360:
	.loc	3 1659 9                        @ ../Middlewares/Third_Party/FreeRTOS/Source/tasks.c:1659:9
	cmp	r0, r1
	bne	.LBB15_33
	b	.LBB15_29
.LBB15_29:
.Ltmp361:
	.loc	3 1664 27 is_stmt 1             @ ../Middlewares/Third_Party/FreeRTOS/Source/tasks.c:1664:27
	ldr	r0, [sp, #16]
	.loc	3 1664 34 is_stmt 0             @ ../Middlewares/Third_Party/FreeRTOS/Source/tasks.c:1664:34
	adds	r0, #4
	.loc	3 1664 10                       @ ../Middlewares/Third_Party/FreeRTOS/Source/tasks.c:1664:10
	bl	uxListRemove
.Ltmp362:
	.loc	3 1664 10                       @ ../Middlewares/Third_Party/FreeRTOS/Source/tasks.c:1664:10
	cbnz	r0, .LBB15_31
	b	.LBB15_30
.LBB15_30:
.Ltmp363:
	.loc	3 1669 45 is_stmt 1             @ ../Middlewares/Third_Party/FreeRTOS/Source/tasks.c:1669:45
	ldr	r1, [sp, #8]
	movs	r0, #1
	.loc	3 1669 40 is_stmt 0             @ ../Middlewares/Third_Party/FreeRTOS/Source/tasks.c:1669:40
	lsl.w	r2, r0, r1
	.loc	3 1669 30                       @ ../Middlewares/Third_Party/FreeRTOS/Source/tasks.c:1669:30
	movw	r1, :lower16:uxTopReadyPriority
	movt	r1, :upper16:uxTopReadyPriority
	ldr	r0, [r1]
	bics	r0, r2
	str	r0, [r1]
	.loc	3 1670 6 is_stmt 1              @ ../Middlewares/Third_Party/FreeRTOS/Source/tasks.c:1670:6
	b	.LBB15_32
.Ltmp364:
.LBB15_31:
	.loc	3 0 6 is_stmt 0                 @ ../Middlewares/Third_Party/FreeRTOS/Source/tasks.c:0:6
	b	.LBB15_32
.LBB15_32:
	.loc	3 1675 47 is_stmt 1             @ ../Middlewares/Third_Party/FreeRTOS/Source/tasks.c:1675:47
	ldr	r0, [sp, #16]
	.loc	3 1675 56 is_stmt 0             @ ../Middlewares/Third_Party/FreeRTOS/Source/tasks.c:1675:56
	ldr	r1, [r0, #44]
	movs	r0, #1
	.loc	3 1675 40                       @ ../Middlewares/Third_Party/FreeRTOS/Source/tasks.c:1675:40
	lsl.w	r2, r0, r1
	.loc	3 1675 31                       @ ../Middlewares/Third_Party/FreeRTOS/Source/tasks.c:1675:31
	movw	r1, :lower16:uxTopReadyPriority
	movt	r1, :upper16:uxTopReadyPriority
	ldr	r0, [r1]
	orrs	r0, r2
	str	r0, [r1]
	.loc	3 1675 112                      @ ../Middlewares/Third_Party/FreeRTOS/Source/tasks.c:1675:112
	ldr	r1, [sp, #16]
	.loc	3 1675 121                      @ ../Middlewares/Third_Party/FreeRTOS/Source/tasks.c:1675:121
	ldr	r0, [r1, #44]
	.loc	3 1675 91                       @ ../Middlewares/Third_Party/FreeRTOS/Source/tasks.c:1675:91
	add.w	r2, r0, r0, lsl #2
	movw	r0, :lower16:pxReadyTasksLists
	movt	r0, :upper16:pxReadyTasksLists
	add.w	r0, r0, r2, lsl #2
	.loc	3 1675 151                      @ ../Middlewares/Third_Party/FreeRTOS/Source/tasks.c:1675:151
	adds	r1, #4
	.loc	3 1675 72                       @ ../Middlewares/Third_Party/FreeRTOS/Source/tasks.c:1675:72
	bl	vListInsertEnd
	.loc	3 1676 5 is_stmt 1              @ ../Middlewares/Third_Party/FreeRTOS/Source/tasks.c:1676:5
	b	.LBB15_34
.Ltmp365:
.LBB15_33:
	.loc	3 0 5 is_stmt 0                 @ ../Middlewares/Third_Party/FreeRTOS/Source/tasks.c:0:5
	b	.LBB15_34
.LBB15_34:
.Ltmp366:
	.loc	3 1682 9 is_stmt 1              @ ../Middlewares/Third_Party/FreeRTOS/Source/tasks.c:1682:9
	ldr	r0, [sp, #4]
.Ltmp367:
	.loc	3 1682 9 is_stmt 0              @ ../Middlewares/Third_Party/FreeRTOS/Source/tasks.c:1682:9
	cbz	r0, .LBB15_36
	b	.LBB15_35
.LBB15_35:
	.loc	3 0 9                           @ ../Middlewares/Third_Party/FreeRTOS/Source/tasks.c:0:9
	movw	r1, #60676
	movt	r1, #57344
	mov.w	r0, #268435456
.Ltmp368:
	.loc	3 1684 53 is_stmt 1             @ ../Middlewares/Third_Party/FreeRTOS/Source/tasks.c:1684:53
	str	r0, [r1]
	.loc	3 1684 72 is_stmt 0             @ ../Middlewares/Third_Party/FreeRTOS/Source/tasks.c:1684:72
	@APP
	dsb	sy
	@NO_APP
	.loc	3 1684 110                      @ ../Middlewares/Third_Party/FreeRTOS/Source/tasks.c:1684:110
	@APP
	isb	sy
	@NO_APP
.Ltmp369:
	.loc	3 1685 5 is_stmt 1              @ ../Middlewares/Third_Party/FreeRTOS/Source/tasks.c:1685:5
	b	.LBB15_37
.Ltmp370:
.LBB15_36:
	.loc	3 0 5 is_stmt 0                 @ ../Middlewares/Third_Party/FreeRTOS/Source/tasks.c:0:5
	b	.LBB15_37
.LBB15_37:
	.loc	3 1694 4 is_stmt 1              @ ../Middlewares/Third_Party/FreeRTOS/Source/tasks.c:1694:4
	b	.LBB15_38
.Ltmp371:
.LBB15_38:
	.loc	3 1696 3                        @ ../Middlewares/Third_Party/FreeRTOS/Source/tasks.c:1696:3
	bl	vPortExitCritical
	.loc	3 1697 2                        @ ../Middlewares/Third_Party/FreeRTOS/Source/tasks.c:1697:2
	add	sp, #32
	pop	{r7, pc}
.Ltmp372:
.Lfunc_end15:
	.size	vTaskPrioritySet, .Lfunc_end15-vTaskPrioritySet
	.cfi_endproc
	.cantunwind
	.fnend
                                        @ -- End function
	.section	.text.vTaskSuspend,"ax",%progbits
	.hidden	vTaskSuspend                    @ -- Begin function vTaskSuspend
	.globl	vTaskSuspend
	.p2align	2
	.type	vTaskSuspend,%function
	.code	16                              @ @vTaskSuspend
	.thumb_func
vTaskSuspend:
.Lfunc_begin16:
	.loc	3 1705 0                        @ ../Middlewares/Third_Party/FreeRTOS/Source/tasks.c:1705:0
	.fnstart
	.cfi_startproc
@ %bb.0:
	.save	{r7, lr}
	push	{r7, lr}
	.cfi_def_cfa_offset 8
	.cfi_offset lr, -4
	.cfi_offset r7, -8
	.pad	#16
	sub	sp, #16
	.cfi_def_cfa_offset 24
	str	r0, [sp, #8]
.Ltmp373:
	.loc	3 1708 3 prologue_end           @ ../Middlewares/Third_Party/FreeRTOS/Source/tasks.c:1708:3
	bl	vPortEnterCritical
.Ltmp374:
	.loc	3 1712 18                       @ ../Middlewares/Third_Party/FreeRTOS/Source/tasks.c:1712:18
	ldr	r0, [sp, #8]
	.loc	3 1712 14 is_stmt 0             @ ../Middlewares/Third_Party/FreeRTOS/Source/tasks.c:1712:14
	cbnz	r0, .LBB16_2
	b	.LBB16_1
.LBB16_1:
	.loc	3 1712 44                       @ ../Middlewares/Third_Party/FreeRTOS/Source/tasks.c:1712:44
	movw	r0, :lower16:pxCurrentTCB
	movt	r0, :upper16:pxCurrentTCB
	ldr	r0, [r0]
	.loc	3 1712 14                       @ ../Middlewares/Third_Party/FreeRTOS/Source/tasks.c:1712:14
	str	r0, [sp]                        @ 4-byte Spill
	b	.LBB16_3
.LBB16_2:
	.loc	3 1712 61                       @ ../Middlewares/Third_Party/FreeRTOS/Source/tasks.c:1712:61
	ldr	r0, [sp, #8]
	.loc	3 1712 14                       @ ../Middlewares/Third_Party/FreeRTOS/Source/tasks.c:1712:14
	str	r0, [sp]                        @ 4-byte Spill
	b	.LBB16_3
.LBB16_3:
	ldr	r0, [sp]                        @ 4-byte Reload
	.loc	3 1712 10                       @ ../Middlewares/Third_Party/FreeRTOS/Source/tasks.c:1712:10
	str	r0, [sp, #4]
.Ltmp375:
	.loc	3 1718 25 is_stmt 1             @ ../Middlewares/Third_Party/FreeRTOS/Source/tasks.c:1718:25
	ldr	r0, [sp, #4]
	.loc	3 1718 32 is_stmt 0             @ ../Middlewares/Third_Party/FreeRTOS/Source/tasks.c:1718:32
	adds	r0, #4
	.loc	3 1718 8                        @ ../Middlewares/Third_Party/FreeRTOS/Source/tasks.c:1718:8
	bl	uxListRemove
.Ltmp376:
	.loc	3 1718 8                        @ ../Middlewares/Third_Party/FreeRTOS/Source/tasks.c:1718:8
	cbnz	r0, .LBB16_7
	b	.LBB16_4
.LBB16_4:
.Ltmp377:
	.loc	3 1720 39 is_stmt 1             @ ../Middlewares/Third_Party/FreeRTOS/Source/tasks.c:1720:39
	ldr	r0, [sp, #4]
	.loc	3 1720 46 is_stmt 0             @ ../Middlewares/Third_Party/FreeRTOS/Source/tasks.c:1720:46
	ldr	r0, [r0, #44]
	.loc	3 1720 18                       @ ../Middlewares/Third_Party/FreeRTOS/Source/tasks.c:1720:18
	add.w	r1, r0, r0, lsl #2
	movw	r0, :lower16:pxReadyTasksLists
	movt	r0, :upper16:pxReadyTasksLists
	.loc	3 1720 66                       @ ../Middlewares/Third_Party/FreeRTOS/Source/tasks.c:1720:66
	ldr.w	r0, [r0, r1, lsl #2]
.Ltmp378:
	.loc	3 1720 11                       @ ../Middlewares/Third_Party/FreeRTOS/Source/tasks.c:1720:11
	cbnz	r0, .LBB16_6
	b	.LBB16_5
.LBB16_5:
.Ltmp379:
	.loc	3 1720 153                      @ ../Middlewares/Third_Party/FreeRTOS/Source/tasks.c:1720:153
	ldr	r0, [sp, #4]
	.loc	3 1720 160                      @ ../Middlewares/Third_Party/FreeRTOS/Source/tasks.c:1720:160
	ldr	r1, [r0, #44]
	movs	r0, #1
	.loc	3 1720 146                      @ ../Middlewares/Third_Party/FreeRTOS/Source/tasks.c:1720:146
	lsl.w	r2, r0, r1
	.loc	3 1720 136                      @ ../Middlewares/Third_Party/FreeRTOS/Source/tasks.c:1720:136
	movw	r1, :lower16:uxTopReadyPriority
	movt	r1, :upper16:uxTopReadyPriority
	ldr	r0, [r1]
	bics	r0, r2
	str	r0, [r1]
	.loc	3 1720 178                      @ ../Middlewares/Third_Party/FreeRTOS/Source/tasks.c:1720:178
	b	.LBB16_6
.Ltmp380:
.LBB16_6:
	.loc	3 1721 4 is_stmt 1              @ ../Middlewares/Third_Party/FreeRTOS/Source/tasks.c:1721:4
	b	.LBB16_8
.Ltmp381:
.LBB16_7:
	.loc	3 0 4 is_stmt 0                 @ ../Middlewares/Third_Party/FreeRTOS/Source/tasks.c:0:4
	b	.LBB16_8
.LBB16_8:
.Ltmp382:
	.loc	3 1728 15 is_stmt 1             @ ../Middlewares/Third_Party/FreeRTOS/Source/tasks.c:1728:15
	ldr	r0, [sp, #4]
	.loc	3 1728 42 is_stmt 0             @ ../Middlewares/Third_Party/FreeRTOS/Source/tasks.c:1728:42
	ldr	r0, [r0, #40]
.Ltmp383:
	.loc	3 1728 8                        @ ../Middlewares/Third_Party/FreeRTOS/Source/tasks.c:1728:8
	cbz	r0, .LBB16_10
	b	.LBB16_9
.LBB16_9:
.Ltmp384:
	.loc	3 1730 31 is_stmt 1             @ ../Middlewares/Third_Party/FreeRTOS/Source/tasks.c:1730:31
	ldr	r0, [sp, #4]
	.loc	3 1730 38 is_stmt 0             @ ../Middlewares/Third_Party/FreeRTOS/Source/tasks.c:1730:38
	adds	r0, #24
	.loc	3 1730 14                       @ ../Middlewares/Third_Party/FreeRTOS/Source/tasks.c:1730:14
	bl	uxListRemove
	.loc	3 1731 4 is_stmt 1              @ ../Middlewares/Third_Party/FreeRTOS/Source/tasks.c:1731:4
	b	.LBB16_11
.Ltmp385:
.LBB16_10:
	.loc	3 0 4 is_stmt 0                 @ ../Middlewares/Third_Party/FreeRTOS/Source/tasks.c:0:4
	b	.LBB16_11
.LBB16_11:
	.loc	3 1737 44 is_stmt 1             @ ../Middlewares/Third_Party/FreeRTOS/Source/tasks.c:1737:44
	ldr	r0, [sp, #4]
	.loc	3 1737 51 is_stmt 0             @ ../Middlewares/Third_Party/FreeRTOS/Source/tasks.c:1737:51
	adds	r1, r0, #4
	.loc	3 1737 4                        @ ../Middlewares/Third_Party/FreeRTOS/Source/tasks.c:1737:4
	movw	r0, :lower16:xSuspendedTaskList
	movt	r0, :upper16:xSuspendedTaskList
	bl	vListInsertEnd
.Ltmp386:
	.loc	3 1741 9 is_stmt 1              @ ../Middlewares/Third_Party/FreeRTOS/Source/tasks.c:1741:9
	ldr	r0, [sp, #4]
	.loc	3 1741 16 is_stmt 0             @ ../Middlewares/Third_Party/FreeRTOS/Source/tasks.c:1741:16
	ldrb.w	r0, [r0, #80]
.Ltmp387:
	.loc	3 1741 9                        @ ../Middlewares/Third_Party/FreeRTOS/Source/tasks.c:1741:9
	cmp	r0, #1
	bne	.LBB16_13
	b	.LBB16_12
.LBB16_12:
.Ltmp388:
	.loc	3 1745 6 is_stmt 1              @ ../Middlewares/Third_Party/FreeRTOS/Source/tasks.c:1745:6
	ldr	r1, [sp, #4]
	movs	r0, #0
	.loc	3 1745 27 is_stmt 0             @ ../Middlewares/Third_Party/FreeRTOS/Source/tasks.c:1745:27
	strb.w	r0, [r1, #80]
	.loc	3 1746 5 is_stmt 1              @ ../Middlewares/Third_Party/FreeRTOS/Source/tasks.c:1746:5
	b	.LBB16_13
.Ltmp389:
.LBB16_13:
	.loc	3 1750 3                        @ ../Middlewares/Third_Party/FreeRTOS/Source/tasks.c:1750:3
	bl	vPortExitCritical
.Ltmp390:
	.loc	3 1752 7                        @ ../Middlewares/Third_Party/FreeRTOS/Source/tasks.c:1752:7
	movw	r0, :lower16:xSchedulerRunning
	movt	r0, :upper16:xSchedulerRunning
	ldr	r0, [r0]
.Ltmp391:
	.loc	3 1752 7 is_stmt 0              @ ../Middlewares/Third_Party/FreeRTOS/Source/tasks.c:1752:7
	cbz	r0, .LBB16_15
	b	.LBB16_14
.LBB16_14:
.Ltmp392:
	.loc	3 1756 4 is_stmt 1              @ ../Middlewares/Third_Party/FreeRTOS/Source/tasks.c:1756:4
	bl	vPortEnterCritical
.Ltmp393:
	.loc	3 1758 5                        @ ../Middlewares/Third_Party/FreeRTOS/Source/tasks.c:1758:5
	bl	prvResetNextTaskUnblockTime
.Ltmp394:
	.loc	3 1760 4                        @ ../Middlewares/Third_Party/FreeRTOS/Source/tasks.c:1760:4
	bl	vPortExitCritical
	.loc	3 1761 3                        @ ../Middlewares/Third_Party/FreeRTOS/Source/tasks.c:1761:3
	b	.LBB16_16
.Ltmp395:
.LBB16_15:
	.loc	3 0 3 is_stmt 0                 @ ../Middlewares/Third_Party/FreeRTOS/Source/tasks.c:0:3
	b	.LBB16_16
.LBB16_16:
.Ltmp396:
	.loc	3 1767 7 is_stmt 1              @ ../Middlewares/Third_Party/FreeRTOS/Source/tasks.c:1767:7
	ldr	r0, [sp, #4]
	.loc	3 1767 16 is_stmt 0             @ ../Middlewares/Third_Party/FreeRTOS/Source/tasks.c:1767:16
	movw	r1, :lower16:pxCurrentTCB
	movt	r1, :upper16:pxCurrentTCB
	ldr	r1, [r1]
.Ltmp397:
	.loc	3 1767 7                        @ ../Middlewares/Third_Party/FreeRTOS/Source/tasks.c:1767:7
	cmp	r0, r1
	bne	.LBB16_27
	b	.LBB16_17
.LBB16_17:
.Ltmp398:
	.loc	3 1769 8 is_stmt 1              @ ../Middlewares/Third_Party/FreeRTOS/Source/tasks.c:1769:8
	movw	r0, :lower16:xSchedulerRunning
	movt	r0, :upper16:xSchedulerRunning
	ldr	r0, [r0]
.Ltmp399:
	.loc	3 1769 8 is_stmt 0              @ ../Middlewares/Third_Party/FreeRTOS/Source/tasks.c:1769:8
	cbz	r0, .LBB16_22
	b	.LBB16_18
.LBB16_18:
.Ltmp400:
	.loc	3 1772 10 is_stmt 1             @ ../Middlewares/Third_Party/FreeRTOS/Source/tasks.c:1772:10
	movw	r0, :lower16:uxSchedulerSuspended
	movt	r0, :upper16:uxSchedulerSuspended
	ldr	r0, [r0]
.Ltmp401:
	.loc	3 1772 9 is_stmt 0              @ ../Middlewares/Third_Party/FreeRTOS/Source/tasks.c:1772:9
	cbz	r0, .LBB16_21
	b	.LBB16_19
.LBB16_19:
.Ltmp402:
	.loc	2 195 2 is_stmt 1               @ ../Middlewares/Third_Party/FreeRTOS/Source/portable/RVDS/ARM_CM4F\portmacro.h:195:2
	@APP
	mov.w	r0, #80
	msr	basepri, r0
	isb	sy
	dsb	sy

	@NO_APP
	str	r0, [sp, #12]
.Ltmp403:
	.loc	3 1772 65                       @ ../Middlewares/Third_Party/FreeRTOS/Source/tasks.c:1772:65
	b	.LBB16_20
.LBB16_20:                              @ =>This Inner Loop Header: Depth=1
.Ltmp404:
	.loc	3 1772 65 is_stmt 0             @ ../Middlewares/Third_Party/FreeRTOS/Source/tasks.c:1772:65
	b	.LBB16_20
.Ltmp405:
.LBB16_21:
	.loc	3 0 65                          @ ../Middlewares/Third_Party/FreeRTOS/Source/tasks.c:0:65
	movw	r1, #60676
	movt	r1, #57344
	mov.w	r0, #268435456
.Ltmp406:
	.loc	3 1773 52 is_stmt 1             @ ../Middlewares/Third_Party/FreeRTOS/Source/tasks.c:1773:52
	str	r0, [r1]
	.loc	3 1773 71 is_stmt 0             @ ../Middlewares/Third_Party/FreeRTOS/Source/tasks.c:1773:71
	@APP
	dsb	sy
	@NO_APP
	.loc	3 1773 109                      @ ../Middlewares/Third_Party/FreeRTOS/Source/tasks.c:1773:109
	@APP
	isb	sy
	@NO_APP
.Ltmp407:
	.loc	3 1774 4 is_stmt 1              @ ../Middlewares/Third_Party/FreeRTOS/Source/tasks.c:1774:4
	b	.LBB16_26
.Ltmp408:
.LBB16_22:
	.loc	3 1780 36                       @ ../Middlewares/Third_Party/FreeRTOS/Source/tasks.c:1780:36
	movw	r0, :lower16:xSuspendedTaskList
	movt	r0, :upper16:xSuspendedTaskList
	ldr	r0, [r0]
	.loc	3 1780 57 is_stmt 0             @ ../Middlewares/Third_Party/FreeRTOS/Source/tasks.c:1780:57
	movw	r1, :lower16:uxCurrentNumberOfTasks
	movt	r1, :upper16:uxCurrentNumberOfTasks
	ldr	r1, [r1]
.Ltmp409:
	.loc	3 1780 9                        @ ../Middlewares/Third_Party/FreeRTOS/Source/tasks.c:1780:9
	cmp	r0, r1
	bne	.LBB16_24
	b	.LBB16_23
.LBB16_23:
.Ltmp410:
	.loc	3 1786 19 is_stmt 1             @ ../Middlewares/Third_Party/FreeRTOS/Source/tasks.c:1786:19
	movw	r1, :lower16:pxCurrentTCB
	movt	r1, :upper16:pxCurrentTCB
	movs	r0, #0
	str	r0, [r1]
	.loc	3 1787 5                        @ ../Middlewares/Third_Party/FreeRTOS/Source/tasks.c:1787:5
	b	.LBB16_25
.Ltmp411:
.LBB16_24:
	.loc	3 1790 6                        @ ../Middlewares/Third_Party/FreeRTOS/Source/tasks.c:1790:6
	bl	vTaskSwitchContext
	b	.LBB16_25
.Ltmp412:
.LBB16_25:
	.loc	3 0 6 is_stmt 0                 @ ../Middlewares/Third_Party/FreeRTOS/Source/tasks.c:0:6
	b	.LBB16_26
.LBB16_26:
	.loc	3 1793 3 is_stmt 1              @ ../Middlewares/Third_Party/FreeRTOS/Source/tasks.c:1793:3
	b	.LBB16_28
.Ltmp413:
.LBB16_27:
	.loc	3 0 3 is_stmt 0                 @ ../Middlewares/Third_Party/FreeRTOS/Source/tasks.c:0:3
	b	.LBB16_28
.LBB16_28:
	.loc	3 1798 2 is_stmt 1              @ ../Middlewares/Third_Party/FreeRTOS/Source/tasks.c:1798:2
	add	sp, #16
	pop	{r7, pc}
.Ltmp414:
.Lfunc_end16:
	.size	vTaskSuspend, .Lfunc_end16-vTaskSuspend
	.cfi_endproc
	.cantunwind
	.fnend
                                        @ -- End function
	.section	.text.vTaskSwitchContext,"ax",%progbits
	.hidden	vTaskSwitchContext              @ -- Begin function vTaskSwitchContext
	.globl	vTaskSwitchContext
	.p2align	2
	.type	vTaskSwitchContext,%function
	.code	16                              @ @vTaskSwitchContext
	.thumb_func
vTaskSwitchContext:
.Lfunc_begin17:
	.loc	3 2990 0                        @ ../Middlewares/Third_Party/FreeRTOS/Source/tasks.c:2990:0
	.fnstart
	.cfi_startproc
@ %bb.0:
	.pad	#20
	sub	sp, #20
	.cfi_def_cfa_offset 20
.Ltmp415:
	.loc	3 2991 6 prologue_end           @ ../Middlewares/Third_Party/FreeRTOS/Source/tasks.c:2991:6
	movw	r0, :lower16:uxSchedulerSuspended
	movt	r0, :upper16:uxSchedulerSuspended
	ldr	r0, [r0]
.Ltmp416:
	.loc	3 2991 6 is_stmt 0              @ ../Middlewares/Third_Party/FreeRTOS/Source/tasks.c:2991:6
	cbz	r0, .LBB17_2
	b	.LBB17_1
.LBB17_1:
.Ltmp417:
	.loc	3 2995 17 is_stmt 1             @ ../Middlewares/Third_Party/FreeRTOS/Source/tasks.c:2995:17
	movw	r1, :lower16:xYieldPending
	movt	r1, :upper16:xYieldPending
	movs	r0, #1
	str	r0, [r1]
	.loc	3 2996 2                        @ ../Middlewares/Third_Party/FreeRTOS/Source/tasks.c:2996:2
	b	.LBB17_8
.Ltmp418:
.LBB17_2:
	.loc	3 2999 17                       @ ../Middlewares/Third_Party/FreeRTOS/Source/tasks.c:2999:17
	movw	r1, :lower16:xYieldPending
	movt	r1, :upper16:xYieldPending
	movs	r0, #0
	str	r0, [r1]
.Ltmp419:
	.loc	3 3041 97                       @ ../Middlewares/Third_Party/FreeRTOS/Source/tasks.c:3041:97
	movw	r0, :lower16:uxTopReadyPriority
	movt	r0, :upper16:uxTopReadyPriority
	ldr	r0, [r0]
	str	r0, [sp, #16]
.Ltmp420:
	.loc	2 134 61                        @ ../Middlewares/Third_Party/FreeRTOS/Source/portable/RVDS/ARM_CM4F\portmacro.h:134:61
	ldr	r0, [sp, #16]
	.loc	2 134 3 is_stmt 0               @ ../Middlewares/Third_Party/FreeRTOS/Source/portable/RVDS/ARM_CM4F\portmacro.h:134:3
	@APP
	clz	r0, r0
	@NO_APP
	strb.w	r0, [sp, #15]
	.loc	2 135 10 is_stmt 1              @ ../Middlewares/Third_Party/FreeRTOS/Source/portable/RVDS/ARM_CM4F\portmacro.h:135:10
	ldrb.w	r0, [sp, #15]
.Ltmp421:
	.loc	3 3041 55                       @ ../Middlewares/Third_Party/FreeRTOS/Source/tasks.c:3041:55
	rsb.w	r0, r0, #31
	.loc	3 3041 46 is_stmt 0             @ ../Middlewares/Third_Party/FreeRTOS/Source/tasks.c:3041:46
	str	r0, [sp, #4]
.Ltmp422:
	.loc	3 3041 154                      @ ../Middlewares/Third_Party/FreeRTOS/Source/tasks.c:3041:154
	ldr	r0, [sp, #4]
	.loc	3 3041 135                      @ ../Middlewares/Third_Party/FreeRTOS/Source/tasks.c:3041:135
	add.w	r1, r0, r0, lsl #2
	movw	r0, :lower16:pxReadyTasksLists
	movt	r0, :upper16:pxReadyTasksLists
	.loc	3 3041 175                      @ ../Middlewares/Third_Party/FreeRTOS/Source/tasks.c:3041:175
	ldr.w	r0, [r0, r1, lsl #2]
.Ltmp423:
	.loc	3 3041 127                      @ ../Middlewares/Third_Party/FreeRTOS/Source/tasks.c:3041:127
	cbnz	r0, .LBB17_5
	b	.LBB17_3
.LBB17_3:
.Ltmp424:
	.loc	2 195 2 is_stmt 1               @ ../Middlewares/Third_Party/FreeRTOS/Source/portable/RVDS/ARM_CM4F\portmacro.h:195:2
	@APP
	mov.w	r0, #80
	msr	basepri, r0
	isb	sy
	dsb	sy

	@NO_APP
	str	r0, [sp, #8]
.Ltmp425:
	.loc	3 3041 226                      @ ../Middlewares/Third_Party/FreeRTOS/Source/tasks.c:3041:226
	b	.LBB17_4
.LBB17_4:                               @ =>This Inner Loop Header: Depth=1
.Ltmp426:
	.loc	3 3041 226 is_stmt 0            @ ../Middlewares/Third_Party/FreeRTOS/Source/tasks.c:3041:226
	b	.LBB17_4
.Ltmp427:
.LBB17_5:
	.loc	3 3041 294                      @ ../Middlewares/Third_Party/FreeRTOS/Source/tasks.c:3041:294
	ldr	r0, [sp, #4]
	.loc	3 3041 275                      @ ../Middlewares/Third_Party/FreeRTOS/Source/tasks.c:3041:275
	add.w	r1, r0, r0, lsl #2
	movw	r0, :lower16:pxReadyTasksLists
	movt	r0, :upper16:pxReadyTasksLists
	add.w	r0, r0, r1, lsl #2
	.loc	3 3041 256                      @ ../Middlewares/Third_Party/FreeRTOS/Source/tasks.c:3041:256
	str	r0, [sp]
	.loc	3 3041 344                      @ ../Middlewares/Third_Party/FreeRTOS/Source/tasks.c:3041:344
	ldr	r1, [sp]
	.loc	3 3041 359                      @ ../Middlewares/Third_Party/FreeRTOS/Source/tasks.c:3041:359
	ldr	r0, [r1, #4]
	.loc	3 3041 368                      @ ../Middlewares/Third_Party/FreeRTOS/Source/tasks.c:3041:368
	ldr	r0, [r0, #4]
	.loc	3 3041 340                      @ ../Middlewares/Third_Party/FreeRTOS/Source/tasks.c:3041:340
	str	r0, [r1, #4]
.Ltmp428:
	.loc	3 3041 393                      @ ../Middlewares/Third_Party/FreeRTOS/Source/tasks.c:3041:393
	ldr	r1, [sp]
	.loc	3 3041 408                      @ ../Middlewares/Third_Party/FreeRTOS/Source/tasks.c:3041:408
	ldr	r0, [r1, #4]
	.loc	3 3041 450                      @ ../Middlewares/Third_Party/FreeRTOS/Source/tasks.c:3041:450
	adds	r1, #8
.Ltmp429:
	.loc	3 3041 380                      @ ../Middlewares/Third_Party/FreeRTOS/Source/tasks.c:3041:380
	cmp	r0, r1
	bne	.LBB17_7
	b	.LBB17_6
.LBB17_6:
.Ltmp430:
	.loc	3 3041 494                      @ ../Middlewares/Third_Party/FreeRTOS/Source/tasks.c:3041:494
	ldr	r1, [sp]
	.loc	3 3041 509                      @ ../Middlewares/Third_Party/FreeRTOS/Source/tasks.c:3041:509
	ldr	r0, [r1, #4]
	.loc	3 3041 518                      @ ../Middlewares/Third_Party/FreeRTOS/Source/tasks.c:3041:518
	ldr	r0, [r0, #4]
	.loc	3 3041 490                      @ ../Middlewares/Third_Party/FreeRTOS/Source/tasks.c:3041:490
	str	r0, [r1, #4]
	.loc	3 3041 526                      @ ../Middlewares/Third_Party/FreeRTOS/Source/tasks.c:3041:526
	b	.LBB17_7
.Ltmp431:
.LBB17_7:
	.loc	3 3041 549                      @ ../Middlewares/Third_Party/FreeRTOS/Source/tasks.c:3041:549
	ldr	r0, [sp]
	.loc	3 3041 564                      @ ../Middlewares/Third_Party/FreeRTOS/Source/tasks.c:3041:564
	ldr	r0, [r0, #4]
	.loc	3 3041 573                      @ ../Middlewares/Third_Party/FreeRTOS/Source/tasks.c:3041:573
	ldr	r0, [r0, #12]
	.loc	3 3041 545                      @ ../Middlewares/Third_Party/FreeRTOS/Source/tasks.c:3041:545
	movw	r1, :lower16:pxCurrentTCB
	movt	r1, :upper16:pxCurrentTCB
	str	r0, [r1]
	b	.LBB17_8
.Ltmp432:
.LBB17_8:
	.loc	3 3061 1 is_stmt 1              @ ../Middlewares/Third_Party/FreeRTOS/Source/tasks.c:3061:1
	add	sp, #20
	bx	lr
.Ltmp433:
.Lfunc_end17:
	.size	vTaskSwitchContext, .Lfunc_end17-vTaskSwitchContext
	.cfi_endproc
	.cantunwind
	.fnend
                                        @ -- End function
	.section	.text.vTaskResume,"ax",%progbits
	.hidden	vTaskResume                     @ -- Begin function vTaskResume
	.globl	vTaskResume
	.p2align	2
	.type	vTaskResume,%function
	.code	16                              @ @vTaskResume
	.thumb_func
vTaskResume:
.Lfunc_begin18:
	.loc	3 1852 0                        @ ../Middlewares/Third_Party/FreeRTOS/Source/tasks.c:1852:0
	.fnstart
	.cfi_startproc
@ %bb.0:
	.save	{r7, lr}
	push	{r7, lr}
	.cfi_def_cfa_offset 8
	.cfi_offset lr, -4
	.cfi_offset r7, -8
	.pad	#16
	sub	sp, #16
	.cfi_def_cfa_offset 24
	str	r0, [sp, #8]
.Ltmp434:
	.loc	3 1853 24 prologue_end          @ ../Middlewares/Third_Party/FreeRTOS/Source/tasks.c:1853:24
	ldr	r0, [sp, #8]
	.loc	3 1853 16 is_stmt 0             @ ../Middlewares/Third_Party/FreeRTOS/Source/tasks.c:1853:16
	str	r0, [sp, #4]
.Ltmp435:
	.loc	3 1856 8 is_stmt 1              @ ../Middlewares/Third_Party/FreeRTOS/Source/tasks.c:1856:8
	ldr	r0, [sp, #8]
.Ltmp436:
	.loc	3 1856 7 is_stmt 0              @ ../Middlewares/Third_Party/FreeRTOS/Source/tasks.c:1856:7
	cbnz	r0, .LBB18_3
	b	.LBB18_1
.LBB18_1:
.Ltmp437:
	.loc	2 195 2 is_stmt 1               @ ../Middlewares/Third_Party/FreeRTOS/Source/portable/RVDS/ARM_CM4F\portmacro.h:195:2
	@APP
	mov.w	r0, #80
	msr	basepri, r0
	isb	sy
	dsb	sy

	@NO_APP
	str	r0, [sp, #12]
.Ltmp438:
	.loc	3 1856 51                       @ ../Middlewares/Third_Party/FreeRTOS/Source/tasks.c:1856:51
	b	.LBB18_2
.LBB18_2:                               @ =>This Inner Loop Header: Depth=1
.Ltmp439:
	.loc	3 1856 51 is_stmt 0             @ ../Middlewares/Third_Party/FreeRTOS/Source/tasks.c:1856:51
	b	.LBB18_2
.Ltmp440:
.LBB18_3:
	.loc	3 1860 9 is_stmt 1              @ ../Middlewares/Third_Party/FreeRTOS/Source/tasks.c:1860:9
	ldr	r0, [sp, #4]
	.loc	3 1860 18 is_stmt 0             @ ../Middlewares/Third_Party/FreeRTOS/Source/tasks.c:1860:18
	movw	r1, :lower16:pxCurrentTCB
	movt	r1, :upper16:pxCurrentTCB
	ldr	r1, [r1]
	.loc	3 1860 33                       @ ../Middlewares/Third_Party/FreeRTOS/Source/tasks.c:1860:33
	cmp	r0, r1
	beq	.LBB18_12
	b	.LBB18_4
.LBB18_4:
	.loc	3 1860 38                       @ ../Middlewares/Third_Party/FreeRTOS/Source/tasks.c:1860:38
	ldr	r0, [sp, #4]
.Ltmp441:
	.loc	3 1860 7                        @ ../Middlewares/Third_Party/FreeRTOS/Source/tasks.c:1860:7
	cmp	r0, #0
	beq	.LBB18_12
	b	.LBB18_5
.LBB18_5:
.Ltmp442:
	.loc	3 1862 4 is_stmt 1              @ ../Middlewares/Third_Party/FreeRTOS/Source/tasks.c:1862:4
	bl	vPortEnterCritical
.Ltmp443:
	.loc	3 1864 33                       @ ../Middlewares/Third_Party/FreeRTOS/Source/tasks.c:1864:33
	ldr	r0, [sp, #4]
	.loc	3 1864 9 is_stmt 0              @ ../Middlewares/Third_Party/FreeRTOS/Source/tasks.c:1864:9
	bl	prvTaskIsTaskSuspended
.Ltmp444:
	.loc	3 1864 9                        @ ../Middlewares/Third_Party/FreeRTOS/Source/tasks.c:1864:9
	cbz	r0, .LBB18_10
	b	.LBB18_6
.LBB18_6:
.Ltmp445:
	.loc	3 1870 32 is_stmt 1             @ ../Middlewares/Third_Party/FreeRTOS/Source/tasks.c:1870:32
	ldr	r0, [sp, #4]
	.loc	3 1870 39 is_stmt 0             @ ../Middlewares/Third_Party/FreeRTOS/Source/tasks.c:1870:39
	adds	r0, #4
	.loc	3 1870 15                       @ ../Middlewares/Third_Party/FreeRTOS/Source/tasks.c:1870:15
	bl	uxListRemove
	.loc	3 1871 47 is_stmt 1             @ ../Middlewares/Third_Party/FreeRTOS/Source/tasks.c:1871:47
	ldr	r0, [sp, #4]
	.loc	3 1871 56 is_stmt 0             @ ../Middlewares/Third_Party/FreeRTOS/Source/tasks.c:1871:56
	ldr	r1, [r0, #44]
	movs	r0, #1
	.loc	3 1871 40                       @ ../Middlewares/Third_Party/FreeRTOS/Source/tasks.c:1871:40
	lsl.w	r2, r0, r1
	.loc	3 1871 31                       @ ../Middlewares/Third_Party/FreeRTOS/Source/tasks.c:1871:31
	movw	r1, :lower16:uxTopReadyPriority
	movt	r1, :upper16:uxTopReadyPriority
	ldr	r0, [r1]
	orrs	r0, r2
	str	r0, [r1]
	.loc	3 1871 112                      @ ../Middlewares/Third_Party/FreeRTOS/Source/tasks.c:1871:112
	ldr	r1, [sp, #4]
	.loc	3 1871 121                      @ ../Middlewares/Third_Party/FreeRTOS/Source/tasks.c:1871:121
	ldr	r0, [r1, #44]
	.loc	3 1871 91                       @ ../Middlewares/Third_Party/FreeRTOS/Source/tasks.c:1871:91
	add.w	r2, r0, r0, lsl #2
	movw	r0, :lower16:pxReadyTasksLists
	movt	r0, :upper16:pxReadyTasksLists
	add.w	r0, r0, r2, lsl #2
	.loc	3 1871 151                      @ ../Middlewares/Third_Party/FreeRTOS/Source/tasks.c:1871:151
	adds	r1, #4
	.loc	3 1871 72                       @ ../Middlewares/Third_Party/FreeRTOS/Source/tasks.c:1871:72
	bl	vListInsertEnd
.Ltmp446:
	.loc	3 1874 10 is_stmt 1             @ ../Middlewares/Third_Party/FreeRTOS/Source/tasks.c:1874:10
	ldr	r0, [sp, #4]
	.loc	3 1874 17 is_stmt 0             @ ../Middlewares/Third_Party/FreeRTOS/Source/tasks.c:1874:17
	ldr	r0, [r0, #44]
	.loc	3 1874 31                       @ ../Middlewares/Third_Party/FreeRTOS/Source/tasks.c:1874:31
	movw	r1, :lower16:pxCurrentTCB
	movt	r1, :upper16:pxCurrentTCB
	ldr	r1, [r1]
	.loc	3 1874 45                       @ ../Middlewares/Third_Party/FreeRTOS/Source/tasks.c:1874:45
	ldr	r1, [r1, #44]
.Ltmp447:
	.loc	3 1874 10                       @ ../Middlewares/Third_Party/FreeRTOS/Source/tasks.c:1874:10
	cmp	r0, r1
	blo	.LBB18_8
	b	.LBB18_7
.LBB18_7:
	.loc	3 0 10                          @ ../Middlewares/Third_Party/FreeRTOS/Source/tasks.c:0:10
	movw	r1, #60676
	movt	r1, #57344
	mov.w	r0, #268435456
.Ltmp448:
	.loc	3 1879 54 is_stmt 1             @ ../Middlewares/Third_Party/FreeRTOS/Source/tasks.c:1879:54
	str	r0, [r1]
	.loc	3 1879 73 is_stmt 0             @ ../Middlewares/Third_Party/FreeRTOS/Source/tasks.c:1879:73
	@APP
	dsb	sy
	@NO_APP
	.loc	3 1879 111                      @ ../Middlewares/Third_Party/FreeRTOS/Source/tasks.c:1879:111
	@APP
	isb	sy
	@NO_APP
.Ltmp449:
	.loc	3 1880 6 is_stmt 1              @ ../Middlewares/Third_Party/FreeRTOS/Source/tasks.c:1880:6
	b	.LBB18_9
.Ltmp450:
.LBB18_8:
	.loc	3 0 6 is_stmt 0                 @ ../Middlewares/Third_Party/FreeRTOS/Source/tasks.c:0:6
	b	.LBB18_9
.LBB18_9:
	.loc	3 1885 5 is_stmt 1              @ ../Middlewares/Third_Party/FreeRTOS/Source/tasks.c:1885:5
	b	.LBB18_11
.Ltmp451:
.LBB18_10:
	.loc	3 0 5 is_stmt 0                 @ ../Middlewares/Third_Party/FreeRTOS/Source/tasks.c:0:5
	b	.LBB18_11
.LBB18_11:
	.loc	3 1891 4 is_stmt 1              @ ../Middlewares/Third_Party/FreeRTOS/Source/tasks.c:1891:4
	bl	vPortExitCritical
	.loc	3 1892 3                        @ ../Middlewares/Third_Party/FreeRTOS/Source/tasks.c:1892:3
	b	.LBB18_13
.Ltmp452:
.LBB18_12:
	.loc	3 0 3 is_stmt 0                 @ ../Middlewares/Third_Party/FreeRTOS/Source/tasks.c:0:3
	b	.LBB18_13
.LBB18_13:
	.loc	3 1897 2 is_stmt 1              @ ../Middlewares/Third_Party/FreeRTOS/Source/tasks.c:1897:2
	add	sp, #16
	pop	{r7, pc}
.Ltmp453:
.Lfunc_end18:
	.size	vTaskResume, .Lfunc_end18-vTaskResume
	.cfi_endproc
	.cantunwind
	.fnend
                                        @ -- End function
	.section	.text.prvTaskIsTaskSuspended,"ax",%progbits
	.p2align	2                               @ -- Begin function prvTaskIsTaskSuspended
	.type	prvTaskIsTaskSuspended,%function
	.code	16                              @ @prvTaskIsTaskSuspended
	.thumb_func
prvTaskIsTaskSuspended:
.Lfunc_begin19:
	.loc	3 1806 0                        @ ../Middlewares/Third_Party/FreeRTOS/Source/tasks.c:1806:0
	.fnstart
	.cfi_startproc
@ %bb.0:
	.pad	#16
	sub	sp, #16
	.cfi_def_cfa_offset 16
	str	r0, [sp, #8]
	movs	r0, #0
.Ltmp454:
	.loc	3 1807 13 prologue_end          @ ../Middlewares/Third_Party/FreeRTOS/Source/tasks.c:1807:13
	str	r0, [sp, #4]
	.loc	3 1808 30                       @ ../Middlewares/Third_Party/FreeRTOS/Source/tasks.c:1808:30
	ldr	r0, [sp, #8]
	.loc	3 1808 22 is_stmt 0             @ ../Middlewares/Third_Party/FreeRTOS/Source/tasks.c:1808:22
	str	r0, [sp]
.Ltmp455:
	.loc	3 1814 8 is_stmt 1              @ ../Middlewares/Third_Party/FreeRTOS/Source/tasks.c:1814:8
	ldr	r0, [sp, #8]
.Ltmp456:
	.loc	3 1814 7 is_stmt 0              @ ../Middlewares/Third_Party/FreeRTOS/Source/tasks.c:1814:7
	cbnz	r0, .LBB19_3
	b	.LBB19_1
.LBB19_1:
.Ltmp457:
	.loc	2 195 2 is_stmt 1               @ ../Middlewares/Third_Party/FreeRTOS/Source/portable/RVDS/ARM_CM4F\portmacro.h:195:2
	@APP
	mov.w	r0, #80
	msr	basepri, r0
	isb	sy
	dsb	sy

	@NO_APP
	str	r0, [sp, #12]
.Ltmp458:
	.loc	3 1814 43                       @ ../Middlewares/Third_Party/FreeRTOS/Source/tasks.c:1814:43
	b	.LBB19_2
.LBB19_2:                               @ =>This Inner Loop Header: Depth=1
.Ltmp459:
	.loc	3 1814 43 is_stmt 0             @ ../Middlewares/Third_Party/FreeRTOS/Source/tasks.c:1814:43
	b	.LBB19_2
.Ltmp460:
.LBB19_3:
	.loc	3 1817 16 is_stmt 1             @ ../Middlewares/Third_Party/FreeRTOS/Source/tasks.c:1817:16
	ldr	r0, [sp]
	.loc	3 1817 43 is_stmt 0             @ ../Middlewares/Third_Party/FreeRTOS/Source/tasks.c:1817:43
	ldr	r0, [r0, #20]
	.loc	3 1817 55                       @ ../Middlewares/Third_Party/FreeRTOS/Source/tasks.c:1817:55
	movw	r1, :lower16:xSuspendedTaskList
	movt	r1, :upper16:xSuspendedTaskList
.Ltmp461:
	.loc	3 1817 7                        @ ../Middlewares/Third_Party/FreeRTOS/Source/tasks.c:1817:7
	cmp	r0, r1
	bne	.LBB19_11
	b	.LBB19_4
.LBB19_4:
.Ltmp462:
	.loc	3 1820 17 is_stmt 1             @ ../Middlewares/Third_Party/FreeRTOS/Source/tasks.c:1820:17
	ldr	r0, [sp]
	.loc	3 1820 44 is_stmt 0             @ ../Middlewares/Third_Party/FreeRTOS/Source/tasks.c:1820:44
	ldr	r0, [r0, #40]
	.loc	3 1820 56                       @ ../Middlewares/Third_Party/FreeRTOS/Source/tasks.c:1820:56
	movw	r1, :lower16:xPendingReadyList
	movt	r1, :upper16:xPendingReadyList
.Ltmp463:
	.loc	3 1820 8                        @ ../Middlewares/Third_Party/FreeRTOS/Source/tasks.c:1820:8
	cmp	r0, r1
	beq	.LBB19_9
	b	.LBB19_5
.LBB19_5:
.Ltmp464:
	.loc	3 1824 18 is_stmt 1             @ ../Middlewares/Third_Party/FreeRTOS/Source/tasks.c:1824:18
	ldr	r0, [sp]
	.loc	3 1824 45 is_stmt 0             @ ../Middlewares/Third_Party/FreeRTOS/Source/tasks.c:1824:45
	ldr	r0, [r0, #40]
.Ltmp465:
	.loc	3 1824 9                        @ ../Middlewares/Third_Party/FreeRTOS/Source/tasks.c:1824:9
	cbnz	r0, .LBB19_7
	b	.LBB19_6
.LBB19_6:
	.loc	3 0 9                           @ ../Middlewares/Third_Party/FreeRTOS/Source/tasks.c:0:9
	movs	r0, #1
.Ltmp466:
	.loc	3 1826 14 is_stmt 1             @ ../Middlewares/Third_Party/FreeRTOS/Source/tasks.c:1826:14
	str	r0, [sp, #4]
	.loc	3 1827 5                        @ ../Middlewares/Third_Party/FreeRTOS/Source/tasks.c:1827:5
	b	.LBB19_8
.Ltmp467:
.LBB19_7:
	.loc	3 0 5 is_stmt 0                 @ ../Middlewares/Third_Party/FreeRTOS/Source/tasks.c:0:5
	b	.LBB19_8
.LBB19_8:
	.loc	3 1832 4 is_stmt 1              @ ../Middlewares/Third_Party/FreeRTOS/Source/tasks.c:1832:4
	b	.LBB19_10
.Ltmp468:
.LBB19_9:
	.loc	3 0 4 is_stmt 0                 @ ../Middlewares/Third_Party/FreeRTOS/Source/tasks.c:0:4
	b	.LBB19_10
.LBB19_10:
	.loc	3 1837 3 is_stmt 1              @ ../Middlewares/Third_Party/FreeRTOS/Source/tasks.c:1837:3
	b	.LBB19_12
.Ltmp469:
.LBB19_11:
	.loc	3 0 3 is_stmt 0                 @ ../Middlewares/Third_Party/FreeRTOS/Source/tasks.c:0:3
	b	.LBB19_12
.LBB19_12:
	.loc	3 1843 10 is_stmt 1             @ ../Middlewares/Third_Party/FreeRTOS/Source/tasks.c:1843:10
	ldr	r0, [sp, #4]
	.loc	3 1843 3 is_stmt 0              @ ../Middlewares/Third_Party/FreeRTOS/Source/tasks.c:1843:3
	add	sp, #16
	bx	lr
.Ltmp470:
.Lfunc_end19:
	.size	prvTaskIsTaskSuspended, .Lfunc_end19-prvTaskIsTaskSuspended
	.cfi_endproc
	.cantunwind
	.fnend
                                        @ -- End function
	.section	.text.xTaskResumeFromISR,"ax",%progbits
	.hidden	xTaskResumeFromISR              @ -- Begin function xTaskResumeFromISR
	.globl	xTaskResumeFromISR
	.p2align	2
	.type	xTaskResumeFromISR,%function
	.code	16                              @ @xTaskResumeFromISR
	.thumb_func
xTaskResumeFromISR:
.Lfunc_begin20:
	.loc	3 1906 0 is_stmt 1              @ ../Middlewares/Third_Party/FreeRTOS/Source/tasks.c:1906:0
	.fnstart
	.cfi_startproc
@ %bb.0:
	.save	{r7, lr}
	push	{r7, lr}
	.cfi_def_cfa_offset 8
	.cfi_offset lr, -4
	.cfi_offset r7, -8
	.pad	#32
	sub	sp, #32
	.cfi_def_cfa_offset 40
	str	r0, [sp, #12]
	movs	r0, #0
.Ltmp471:
	.loc	3 1907 13 prologue_end          @ ../Middlewares/Third_Party/FreeRTOS/Source/tasks.c:1907:13
	str	r0, [sp, #8]
	.loc	3 1908 24                       @ ../Middlewares/Third_Party/FreeRTOS/Source/tasks.c:1908:24
	ldr	r0, [sp, #12]
	.loc	3 1908 16 is_stmt 0             @ ../Middlewares/Third_Party/FreeRTOS/Source/tasks.c:1908:16
	str	r0, [sp, #4]
.Ltmp472:
	.loc	3 1911 8 is_stmt 1              @ ../Middlewares/Third_Party/FreeRTOS/Source/tasks.c:1911:8
	ldr	r0, [sp, #12]
.Ltmp473:
	.loc	3 1911 7 is_stmt 0              @ ../Middlewares/Third_Party/FreeRTOS/Source/tasks.c:1911:7
	cbnz	r0, .LBB20_3
	b	.LBB20_1
.LBB20_1:
.Ltmp474:
	.loc	2 195 2 is_stmt 1               @ ../Middlewares/Third_Party/FreeRTOS/Source/portable/RVDS/ARM_CM4F\portmacro.h:195:2
	@APP
	mov.w	r0, #80
	msr	basepri, r0
	isb	sy
	dsb	sy

	@NO_APP
	str	r0, [sp, #16]
.Ltmp475:
	.loc	3 1911 51                       @ ../Middlewares/Third_Party/FreeRTOS/Source/tasks.c:1911:51
	b	.LBB20_2
.LBB20_2:                               @ =>This Inner Loop Header: Depth=1
.Ltmp476:
	.loc	3 1911 51 is_stmt 0             @ ../Middlewares/Third_Party/FreeRTOS/Source/tasks.c:1911:51
	b	.LBB20_2
.Ltmp477:
.LBB20_3:
	.loc	3 1929 3 is_stmt 1              @ ../Middlewares/Third_Party/FreeRTOS/Source/tasks.c:1929:3
	bl	vPortValidateInterruptPriority
.Ltmp478:
	.loc	2 211 2                         @ ../Middlewares/Third_Party/FreeRTOS/Source/portable/RVDS/ARM_CM4F\portmacro.h:211:2
	@APP
	mrs	r1, basepri
	mov.w	r0, #80
	msr	basepri, r0
	isb	sy
	dsb	sy

	@NO_APP
	str	r1, [sp, #24]
	str	r0, [sp, #20]
	.loc	2 223 9                         @ ../Middlewares/Third_Party/FreeRTOS/Source/portable/RVDS/ARM_CM4F\portmacro.h:223:9
	ldr	r0, [sp, #24]
.Ltmp479:
	.loc	3 1931 26                       @ ../Middlewares/Third_Party/FreeRTOS/Source/tasks.c:1931:26
	str	r0, [sp]
.Ltmp480:
	.loc	3 1933 32                       @ ../Middlewares/Third_Party/FreeRTOS/Source/tasks.c:1933:32
	ldr	r0, [sp, #4]
	.loc	3 1933 8 is_stmt 0              @ ../Middlewares/Third_Party/FreeRTOS/Source/tasks.c:1933:8
	bl	prvTaskIsTaskSuspended
.Ltmp481:
	.loc	3 1933 8                        @ ../Middlewares/Third_Party/FreeRTOS/Source/tasks.c:1933:8
	cmp	r0, #0
	beq	.LBB20_11
	b	.LBB20_4
.LBB20_4:
.Ltmp482:
	.loc	3 1938 9 is_stmt 1              @ ../Middlewares/Third_Party/FreeRTOS/Source/tasks.c:1938:9
	movw	r0, :lower16:uxSchedulerSuspended
	movt	r0, :upper16:uxSchedulerSuspended
	ldr	r0, [r0]
.Ltmp483:
	.loc	3 1938 9 is_stmt 0              @ ../Middlewares/Third_Party/FreeRTOS/Source/tasks.c:1938:9
	cbnz	r0, .LBB20_9
	b	.LBB20_5
.LBB20_5:
.Ltmp484:
	.loc	3 1942 10 is_stmt 1             @ ../Middlewares/Third_Party/FreeRTOS/Source/tasks.c:1942:10
	ldr	r0, [sp, #4]
	.loc	3 1942 17 is_stmt 0             @ ../Middlewares/Third_Party/FreeRTOS/Source/tasks.c:1942:17
	ldr	r0, [r0, #44]
	.loc	3 1942 31                       @ ../Middlewares/Third_Party/FreeRTOS/Source/tasks.c:1942:31
	movw	r1, :lower16:pxCurrentTCB
	movt	r1, :upper16:pxCurrentTCB
	ldr	r1, [r1]
	.loc	3 1942 45                       @ ../Middlewares/Third_Party/FreeRTOS/Source/tasks.c:1942:45
	ldr	r1, [r1, #44]
.Ltmp485:
	.loc	3 1942 10                       @ ../Middlewares/Third_Party/FreeRTOS/Source/tasks.c:1942:10
	cmp	r0, r1
	blo	.LBB20_7
	b	.LBB20_6
.LBB20_6:
	.loc	3 0 10                          @ ../Middlewares/Third_Party/FreeRTOS/Source/tasks.c:0:10
	movs	r0, #1
.Ltmp486:
	.loc	3 1944 22 is_stmt 1             @ ../Middlewares/Third_Party/FreeRTOS/Source/tasks.c:1944:22
	str	r0, [sp, #8]
	.loc	3 1945 6                        @ ../Middlewares/Third_Party/FreeRTOS/Source/tasks.c:1945:6
	b	.LBB20_8
.Ltmp487:
.LBB20_7:
	.loc	3 0 6 is_stmt 0                 @ ../Middlewares/Third_Party/FreeRTOS/Source/tasks.c:0:6
	b	.LBB20_8
.LBB20_8:
	.loc	3 1951 32 is_stmt 1             @ ../Middlewares/Third_Party/FreeRTOS/Source/tasks.c:1951:32
	ldr	r0, [sp, #4]
	.loc	3 1951 39 is_stmt 0             @ ../Middlewares/Third_Party/FreeRTOS/Source/tasks.c:1951:39
	adds	r0, #4
	.loc	3 1951 15                       @ ../Middlewares/Third_Party/FreeRTOS/Source/tasks.c:1951:15
	bl	uxListRemove
	.loc	3 1952 47 is_stmt 1             @ ../Middlewares/Third_Party/FreeRTOS/Source/tasks.c:1952:47
	ldr	r0, [sp, #4]
	.loc	3 1952 56 is_stmt 0             @ ../Middlewares/Third_Party/FreeRTOS/Source/tasks.c:1952:56
	ldr	r1, [r0, #44]
	movs	r0, #1
	.loc	3 1952 40                       @ ../Middlewares/Third_Party/FreeRTOS/Source/tasks.c:1952:40
	lsl.w	r2, r0, r1
	.loc	3 1952 31                       @ ../Middlewares/Third_Party/FreeRTOS/Source/tasks.c:1952:31
	movw	r1, :lower16:uxTopReadyPriority
	movt	r1, :upper16:uxTopReadyPriority
	ldr	r0, [r1]
	orrs	r0, r2
	str	r0, [r1]
	.loc	3 1952 112                      @ ../Middlewares/Third_Party/FreeRTOS/Source/tasks.c:1952:112
	ldr	r1, [sp, #4]
	.loc	3 1952 121                      @ ../Middlewares/Third_Party/FreeRTOS/Source/tasks.c:1952:121
	ldr	r0, [r1, #44]
	.loc	3 1952 91                       @ ../Middlewares/Third_Party/FreeRTOS/Source/tasks.c:1952:91
	add.w	r2, r0, r0, lsl #2
	movw	r0, :lower16:pxReadyTasksLists
	movt	r0, :upper16:pxReadyTasksLists
	add.w	r0, r0, r2, lsl #2
	.loc	3 1952 151                      @ ../Middlewares/Third_Party/FreeRTOS/Source/tasks.c:1952:151
	adds	r1, #4
	.loc	3 1952 72                       @ ../Middlewares/Third_Party/FreeRTOS/Source/tasks.c:1952:72
	bl	vListInsertEnd
	.loc	3 1953 5 is_stmt 1              @ ../Middlewares/Third_Party/FreeRTOS/Source/tasks.c:1953:5
	b	.LBB20_10
.Ltmp488:
.LBB20_9:
	.loc	3 1959 49                       @ ../Middlewares/Third_Party/FreeRTOS/Source/tasks.c:1959:49
	ldr	r0, [sp, #4]
	.loc	3 1959 56 is_stmt 0             @ ../Middlewares/Third_Party/FreeRTOS/Source/tasks.c:1959:56
	add.w	r1, r0, #24
	.loc	3 1959 6                        @ ../Middlewares/Third_Party/FreeRTOS/Source/tasks.c:1959:6
	movw	r0, :lower16:xPendingReadyList
	movt	r0, :upper16:xPendingReadyList
	bl	vListInsertEnd
	b	.LBB20_10
.Ltmp489:
.LBB20_10:
	.loc	3 1961 4 is_stmt 1              @ ../Middlewares/Third_Party/FreeRTOS/Source/tasks.c:1961:4
	b	.LBB20_12
.Ltmp490:
.LBB20_11:
	.loc	3 0 4 is_stmt 0                 @ ../Middlewares/Third_Party/FreeRTOS/Source/tasks.c:0:4
	b	.LBB20_12
.LBB20_12:
	.loc	3 1967 19 is_stmt 1             @ ../Middlewares/Third_Party/FreeRTOS/Source/tasks.c:1967:19
	ldr	r0, [sp]
	str	r0, [sp, #28]
.Ltmp491:
	.loc	2 231 32                        @ ../Middlewares/Third_Party/FreeRTOS/Source/portable/RVDS/ARM_CM4F\portmacro.h:231:32
	ldr	r0, [sp, #28]
	.loc	2 229 2                         @ ../Middlewares/Third_Party/FreeRTOS/Source/portable/RVDS/ARM_CM4F\portmacro.h:229:2
	@APP
	msr	basepri, r0
	@NO_APP
.Ltmp492:
	.loc	3 1969 10                       @ ../Middlewares/Third_Party/FreeRTOS/Source/tasks.c:1969:10
	ldr	r0, [sp, #8]
	.loc	3 1969 3 is_stmt 0              @ ../Middlewares/Third_Party/FreeRTOS/Source/tasks.c:1969:3
	add	sp, #32
	pop	{r7, pc}
.Ltmp493:
.Lfunc_end20:
	.size	xTaskResumeFromISR, .Lfunc_end20-xTaskResumeFromISR
	.cfi_endproc
	.cantunwind
	.fnend
                                        @ -- End function
	.section	.text.vTaskStartScheduler,"ax",%progbits
	.hidden	vTaskStartScheduler             @ -- Begin function vTaskStartScheduler
	.globl	vTaskStartScheduler
	.p2align	2
	.type	vTaskStartScheduler,%function
	.code	16                              @ @vTaskStartScheduler
	.thumb_func
vTaskStartScheduler:
.Lfunc_begin21:
	.loc	3 1976 0 is_stmt 1              @ ../Middlewares/Third_Party/FreeRTOS/Source/tasks.c:1976:0
	.fnstart
	.cfi_startproc
@ %bb.0:
	.save	{r7, lr}
	push	{r7, lr}
	.cfi_def_cfa_offset 8
	.cfi_offset lr, -4
	.cfi_offset r7, -8
	.pad	#40
	sub	sp, #40
	.cfi_def_cfa_offset 48
	movs	r0, #0
.Ltmp494:
	.loc	3 1982 17 prologue_end          @ ../Middlewares/Third_Party/FreeRTOS/Source/tasks.c:1982:17
	str	r0, [sp, #12]                   @ 4-byte Spill
	str	r0, [sp, #24]
	.loc	3 1983 16                       @ ../Middlewares/Third_Party/FreeRTOS/Source/tasks.c:1983:16
	str	r0, [sp, #20]
	add	r0, sp, #24
	add	r1, sp, #20
	add	r2, sp, #16
	.loc	3 1988 3                        @ ../Middlewares/Third_Party/FreeRTOS/Source/tasks.c:1988:3
	bl	vApplicationGetIdleTaskMemory
	ldr	r3, [sp, #12]                   @ 4-byte Reload
	.loc	3 1991 13                       @ ../Middlewares/Third_Party/FreeRTOS/Source/tasks.c:1991:13
	ldr	r2, [sp, #16]
	.loc	3 1994 13                       @ ../Middlewares/Third_Party/FreeRTOS/Source/tasks.c:1994:13
	ldr	r1, [sp, #20]
	.loc	3 1995 13                       @ ../Middlewares/Third_Party/FreeRTOS/Source/tasks.c:1995:13
	ldr.w	r12, [sp, #24]
	.loc	3 1989 21                       @ ../Middlewares/Third_Party/FreeRTOS/Source/tasks.c:1989:21
	mov	r0, sp
	str.w	r12, [r0, #8]
	str	r1, [r0, #4]
	str	r3, [r0]
	movw	r0, :lower16:prvIdleTask
	movt	r0, :upper16:prvIdleTask
	movw	r1, :lower16:.L.str
	movt	r1, :upper16:.L.str
	bl	xTaskCreateStatic
	mov	r1, r0
	.loc	3 1989 19 is_stmt 0             @ ../Middlewares/Third_Party/FreeRTOS/Source/tasks.c:1989:19
	movw	r0, :lower16:xIdleTaskHandle
	movt	r0, :upper16:xIdleTaskHandle
	str	r1, [r0]
.Ltmp495:
	.loc	3 1997 7 is_stmt 1              @ ../Middlewares/Third_Party/FreeRTOS/Source/tasks.c:1997:7
	ldr	r0, [r0]
.Ltmp496:
	.loc	3 1997 7 is_stmt 0              @ ../Middlewares/Third_Party/FreeRTOS/Source/tasks.c:1997:7
	cbz	r0, .LBB21_2
	b	.LBB21_1
.LBB21_1:
	.loc	3 0 7                           @ ../Middlewares/Third_Party/FreeRTOS/Source/tasks.c:0:7
	movs	r0, #1
.Ltmp497:
	.loc	3 1999 12 is_stmt 1             @ ../Middlewares/Third_Party/FreeRTOS/Source/tasks.c:1999:12
	str	r0, [sp, #28]
	.loc	3 2000 3                        @ ../Middlewares/Third_Party/FreeRTOS/Source/tasks.c:2000:3
	b	.LBB21_3
.Ltmp498:
.LBB21_2:
	.loc	3 0 3 is_stmt 0                 @ ../Middlewares/Third_Party/FreeRTOS/Source/tasks.c:0:3
	movs	r0, #0
.Ltmp499:
	.loc	3 2003 12 is_stmt 1             @ ../Middlewares/Third_Party/FreeRTOS/Source/tasks.c:2003:12
	str	r0, [sp, #28]
	b	.LBB21_3
.Ltmp500:
.LBB21_3:
	.loc	3 2020 7                        @ ../Middlewares/Third_Party/FreeRTOS/Source/tasks.c:2020:7
	ldr	r0, [sp, #28]
.Ltmp501:
	.loc	3 2020 7 is_stmt 0              @ ../Middlewares/Third_Party/FreeRTOS/Source/tasks.c:2020:7
	cmp	r0, #1
	bne	.LBB21_5
	b	.LBB21_4
.LBB21_4:
.Ltmp502:
	.loc	3 2022 14 is_stmt 1             @ ../Middlewares/Third_Party/FreeRTOS/Source/tasks.c:2022:14
	bl	xTimerCreateTimerTask
	.loc	3 2022 12 is_stmt 0             @ ../Middlewares/Third_Party/FreeRTOS/Source/tasks.c:2022:12
	str	r0, [sp, #28]
	.loc	3 2023 3 is_stmt 1              @ ../Middlewares/Third_Party/FreeRTOS/Source/tasks.c:2023:3
	b	.LBB21_6
.Ltmp503:
.LBB21_5:
	.loc	3 0 3 is_stmt 0                 @ ../Middlewares/Third_Party/FreeRTOS/Source/tasks.c:0:3
	b	.LBB21_6
.LBB21_6:
.Ltmp504:
	.loc	3 2031 6 is_stmt 1              @ ../Middlewares/Third_Party/FreeRTOS/Source/tasks.c:2031:6
	ldr	r0, [sp, #28]
.Ltmp505:
	.loc	3 2031 6 is_stmt 0              @ ../Middlewares/Third_Party/FreeRTOS/Source/tasks.c:2031:6
	cmp	r0, #1
	bne	.LBB21_11
	b	.LBB21_7
.LBB21_7:
.Ltmp506:
	.loc	2 195 2 is_stmt 1               @ ../Middlewares/Third_Party/FreeRTOS/Source/portable/RVDS/ARM_CM4F\portmacro.h:195:2
	@APP
	mov.w	r0, #80
	msr	basepri, r0
	isb	sy
	dsb	sy

	@NO_APP
	str	r0, [sp, #36]
.Ltmp507:
	.loc	3 2059 24                       @ ../Middlewares/Third_Party/FreeRTOS/Source/tasks.c:2059:24
	movw	r1, :lower16:xNextTaskUnblockTime
	movt	r1, :upper16:xNextTaskUnblockTime
	mov.w	r0, #-1
	str	r0, [r1]
	.loc	3 2060 21                       @ ../Middlewares/Third_Party/FreeRTOS/Source/tasks.c:2060:21
	movw	r1, :lower16:xSchedulerRunning
	movt	r1, :upper16:xSchedulerRunning
	movs	r0, #1
	str	r0, [r1]
	.loc	3 2061 14                       @ ../Middlewares/Third_Party/FreeRTOS/Source/tasks.c:2061:14
	movw	r1, :lower16:xTickCount
	movt	r1, :upper16:xTickCount
	movs	r0, #0
	str	r0, [r1]
.Ltmp508:
	.loc	3 2075 7                        @ ../Middlewares/Third_Party/FreeRTOS/Source/tasks.c:2075:7
	bl	xPortStartScheduler
.Ltmp509:
	.loc	3 2075 7 is_stmt 0              @ ../Middlewares/Third_Party/FreeRTOS/Source/tasks.c:2075:7
	cbz	r0, .LBB21_9
	b	.LBB21_8
.LBB21_8:
.Ltmp510:
	.loc	3 2079 3 is_stmt 1              @ ../Middlewares/Third_Party/FreeRTOS/Source/tasks.c:2079:3
	b	.LBB21_10
.Ltmp511:
.LBB21_9:
	.loc	3 0 3 is_stmt 0                 @ ../Middlewares/Third_Party/FreeRTOS/Source/tasks.c:0:3
	b	.LBB21_10
.LBB21_10:
	.loc	3 2084 2 is_stmt 1              @ ../Middlewares/Third_Party/FreeRTOS/Source/tasks.c:2084:2
	b	.LBB21_15
.Ltmp512:
.LBB21_11:
	.loc	3 2090 8                        @ ../Middlewares/Third_Party/FreeRTOS/Source/tasks.c:2090:8
	ldr	r0, [sp, #28]
.Ltmp513:
	.loc	3 2090 7 is_stmt 0              @ ../Middlewares/Third_Party/FreeRTOS/Source/tasks.c:2090:7
	adds	r0, #1
	cbnz	r0, .LBB21_14
	b	.LBB21_12
.LBB21_12:
.Ltmp514:
	.loc	2 195 2 is_stmt 1               @ ../Middlewares/Third_Party/FreeRTOS/Source/portable/RVDS/ARM_CM4F\portmacro.h:195:2
	@APP
	mov.w	r0, #80
	msr	basepri, r0
	isb	sy
	dsb	sy

	@NO_APP
	str	r0, [sp, #32]
.Ltmp515:
	.loc	3 2090 55                       @ ../Middlewares/Third_Party/FreeRTOS/Source/tasks.c:2090:55
	b	.LBB21_13
.LBB21_13:                              @ =>This Inner Loop Header: Depth=1
.Ltmp516:
	.loc	3 2090 55 is_stmt 0             @ ../Middlewares/Third_Party/FreeRTOS/Source/tasks.c:2090:55
	b	.LBB21_13
.Ltmp517:
.LBB21_14:
	.loc	3 0 55                          @ ../Middlewares/Third_Party/FreeRTOS/Source/tasks.c:0:55
	b	.LBB21_15
.LBB21_15:
	.loc	3 2096 1 is_stmt 1              @ ../Middlewares/Third_Party/FreeRTOS/Source/tasks.c:2096:1
	add	sp, #40
	pop	{r7, pc}
.Ltmp518:
.Lfunc_end21:
	.size	vTaskStartScheduler, .Lfunc_end21-vTaskStartScheduler
	.cfi_endproc
	.cantunwind
	.fnend
                                        @ -- End function
	.section	.text.prvIdleTask,"ax",%progbits
	.p2align	2                               @ -- Begin function prvIdleTask
	.type	prvIdleTask,%function
	.code	16                              @ @prvIdleTask
	.thumb_func
prvIdleTask:
.Lfunc_begin22:
	.loc	3 3393 0                        @ ../Middlewares/Third_Party/FreeRTOS/Source/tasks.c:3393:0
	.fnstart
	.cfi_startproc
@ %bb.0:
	.save	{r7, lr}
	push	{r7, lr}
	.cfi_def_cfa_offset 8
	.cfi_offset lr, -4
	.cfi_offset r7, -8
	.pad	#8
	sub	sp, #8
	.cfi_def_cfa_offset 16
	str	r0, [sp, #4]
.Ltmp519:
	.loc	3 3405 2 prologue_end           @ ../Middlewares/Third_Party/FreeRTOS/Source/tasks.c:3405:2
	b	.LBB22_1
.LBB22_1:                               @ =>This Inner Loop Header: Depth=1
.Ltmp520:
	.loc	3 3409 3                        @ ../Middlewares/Third_Party/FreeRTOS/Source/tasks.c:3409:3
	bl	prvCheckTasksWaitingTermination
.Ltmp521:
	.loc	3 3432 64                       @ ../Middlewares/Third_Party/FreeRTOS/Source/tasks.c:3432:64
	movw	r0, :lower16:pxReadyTasksLists
	movt	r0, :upper16:pxReadyTasksLists
	ldr	r0, [r0]
.Ltmp522:
	.loc	3 3432 8 is_stmt 0              @ ../Middlewares/Third_Party/FreeRTOS/Source/tasks.c:3432:8
	cmp	r0, #2
	blo	.LBB22_3
	b	.LBB22_2
.LBB22_2:                               @   in Loop: Header=BB22_1 Depth=1
	.loc	3 0 8                           @ ../Middlewares/Third_Party/FreeRTOS/Source/tasks.c:0:8
	movw	r1, #60676
	movt	r1, #57344
	mov.w	r0, #268435456
.Ltmp523:
	.loc	3 3434 52 is_stmt 1             @ ../Middlewares/Third_Party/FreeRTOS/Source/tasks.c:3434:52
	str	r0, [r1]
	.loc	3 3434 71 is_stmt 0             @ ../Middlewares/Third_Party/FreeRTOS/Source/tasks.c:3434:71
	@APP
	dsb	sy
	@NO_APP
	.loc	3 3434 109                      @ ../Middlewares/Third_Party/FreeRTOS/Source/tasks.c:3434:109
	@APP
	isb	sy
	@NO_APP
.Ltmp524:
	.loc	3 3435 4 is_stmt 1              @ ../Middlewares/Third_Party/FreeRTOS/Source/tasks.c:3435:4
	b	.LBB22_4
.Ltmp525:
.LBB22_3:                               @   in Loop: Header=BB22_1 Depth=1
	.loc	3 0 4 is_stmt 0                 @ ../Middlewares/Third_Party/FreeRTOS/Source/tasks.c:0:4
	b	.LBB22_4
.LBB22_4:                               @   in Loop: Header=BB22_1 Depth=1
	.loc	3 3405 2 is_stmt 1              @ ../Middlewares/Third_Party/FreeRTOS/Source/tasks.c:3405:2
	b	.LBB22_1
.Ltmp526:
.Lfunc_end22:
	.size	prvIdleTask, .Lfunc_end22-prvIdleTask
	.cfi_endproc
	.cantunwind
	.fnend
                                        @ -- End function
	.section	.text.vTaskEndScheduler,"ax",%progbits
	.hidden	vTaskEndScheduler               @ -- Begin function vTaskEndScheduler
	.globl	vTaskEndScheduler
	.p2align	2
	.type	vTaskEndScheduler,%function
	.code	16                              @ @vTaskEndScheduler
	.thumb_func
vTaskEndScheduler:
.Lfunc_begin23:
	.loc	3 2100 0                        @ ../Middlewares/Third_Party/FreeRTOS/Source/tasks.c:2100:0
	.fnstart
	.cfi_startproc
@ %bb.0:
	.save	{r7, lr}
	push	{r7, lr}
	.cfi_def_cfa_offset 8
	.cfi_offset lr, -4
	.cfi_offset r7, -8
	.pad	#8
	sub	sp, #8
	.cfi_def_cfa_offset 16
.Ltmp527:
	.loc	2 195 2 prologue_end            @ ../Middlewares/Third_Party/FreeRTOS/Source/portable/RVDS/ARM_CM4F\portmacro.h:195:2
	@APP
	mov.w	r0, #80
	msr	basepri, r0
	isb	sy
	dsb	sy

	@NO_APP
	str	r0, [sp, #4]
.Ltmp528:
	.loc	3 2105 20                       @ ../Middlewares/Third_Party/FreeRTOS/Source/tasks.c:2105:20
	movw	r1, :lower16:xSchedulerRunning
	movt	r1, :upper16:xSchedulerRunning
	movs	r0, #0
	str	r0, [r1]
	.loc	3 2106 2                        @ ../Middlewares/Third_Party/FreeRTOS/Source/tasks.c:2106:2
	bl	vPortEndScheduler
	.loc	3 2107 1                        @ ../Middlewares/Third_Party/FreeRTOS/Source/tasks.c:2107:1
	add	sp, #8
	pop	{r7, pc}
.Ltmp529:
.Lfunc_end23:
	.size	vTaskEndScheduler, .Lfunc_end23-vTaskEndScheduler
	.cfi_endproc
	.cantunwind
	.fnend
                                        @ -- End function
	.section	.text.xTaskIncrementTick,"ax",%progbits
	.hidden	xTaskIncrementTick              @ -- Begin function xTaskIncrementTick
	.globl	xTaskIncrementTick
	.p2align	2
	.type	xTaskIncrementTick,%function
	.code	16                              @ @xTaskIncrementTick
	.thumb_func
xTaskIncrementTick:
.Lfunc_begin24:
	.loc	3 2708 0                        @ ../Middlewares/Third_Party/FreeRTOS/Source/tasks.c:2708:0
	.fnstart
	.cfi_startproc
@ %bb.0:
	.save	{r7, lr}
	push	{r7, lr}
	.cfi_def_cfa_offset 8
	.cfi_offset lr, -4
	.cfi_offset r7, -8
	.pad	#24
	sub	sp, #24
	.cfi_def_cfa_offset 32
	movs	r0, #0
.Ltmp530:
	.loc	3 2711 12 prologue_end          @ ../Middlewares/Third_Party/FreeRTOS/Source/tasks.c:2711:12
	str	r0, [sp, #8]
.Ltmp531:
	.loc	3 2717 6                        @ ../Middlewares/Third_Party/FreeRTOS/Source/tasks.c:2717:6
	movw	r0, :lower16:uxSchedulerSuspended
	movt	r0, :upper16:uxSchedulerSuspended
	ldr	r0, [r0]
.Ltmp532:
	.loc	3 2717 6 is_stmt 0              @ ../Middlewares/Third_Party/FreeRTOS/Source/tasks.c:2717:6
	cmp	r0, #0
	bne.w	.LBB24_30
	b	.LBB24_1
.LBB24_1:
.Ltmp533:
	.loc	3 2721 38 is_stmt 1             @ ../Middlewares/Third_Party/FreeRTOS/Source/tasks.c:2721:38
	movw	r1, :lower16:xTickCount
	movt	r1, :upper16:xTickCount
	ldr	r0, [r1]
	.loc	3 2721 49 is_stmt 0             @ ../Middlewares/Third_Party/FreeRTOS/Source/tasks.c:2721:49
	adds	r0, #1
	.loc	3 2721 20                       @ ../Middlewares/Third_Party/FreeRTOS/Source/tasks.c:2721:20
	str	r0, [sp, #4]
	.loc	3 2725 16 is_stmt 1             @ ../Middlewares/Third_Party/FreeRTOS/Source/tasks.c:2725:16
	ldr	r0, [sp, #4]
	.loc	3 2725 14 is_stmt 0             @ ../Middlewares/Third_Party/FreeRTOS/Source/tasks.c:2725:14
	str	r0, [r1]
.Ltmp534:
	.loc	3 2727 7 is_stmt 1              @ ../Middlewares/Third_Party/FreeRTOS/Source/tasks.c:2727:7
	ldr	r0, [sp, #4]
.Ltmp535:
	.loc	3 2727 7 is_stmt 0              @ ../Middlewares/Third_Party/FreeRTOS/Source/tasks.c:2727:7
	cbnz	r0, .LBB24_6
	b	.LBB24_2
.LBB24_2:
.Ltmp536:
	.loc	3 2729 35 is_stmt 1             @ ../Middlewares/Third_Party/FreeRTOS/Source/tasks.c:2729:35
	movw	r0, :lower16:pxDelayedTaskList
	movt	r0, :upper16:pxDelayedTaskList
	ldr	r0, [r0]
	.loc	3 2729 56 is_stmt 0             @ ../Middlewares/Third_Party/FreeRTOS/Source/tasks.c:2729:56
	ldr	r0, [r0]
.Ltmp537:
	.loc	3 2729 26                       @ ../Middlewares/Third_Party/FreeRTOS/Source/tasks.c:2729:26
	cbz	r0, .LBB24_5
	b	.LBB24_3
.LBB24_3:
.Ltmp538:
	.loc	2 195 2 is_stmt 1               @ ../Middlewares/Third_Party/FreeRTOS/Source/portable/RVDS/ARM_CM4F\portmacro.h:195:2
	@APP
	mov.w	r0, #80
	msr	basepri, r0
	isb	sy
	dsb	sy

	@NO_APP
	str	r0, [sp, #20]
.Ltmp539:
	.loc	3 2729 174                      @ ../Middlewares/Third_Party/FreeRTOS/Source/tasks.c:2729:174
	b	.LBB24_4
.LBB24_4:                               @ =>This Inner Loop Header: Depth=1
.Ltmp540:
	.loc	3 2729 174 is_stmt 0            @ ../Middlewares/Third_Party/FreeRTOS/Source/tasks.c:2729:174
	b	.LBB24_4
.Ltmp541:
.LBB24_5:
	.loc	3 2729 196                      @ ../Middlewares/Third_Party/FreeRTOS/Source/tasks.c:2729:196
	movw	r2, :lower16:pxDelayedTaskList
	movt	r2, :upper16:pxDelayedTaskList
	ldr	r0, [r2]
	.loc	3 2729 194                      @ ../Middlewares/Third_Party/FreeRTOS/Source/tasks.c:2729:194
	str	r0, [sp]
	.loc	3 2729 235                      @ ../Middlewares/Third_Party/FreeRTOS/Source/tasks.c:2729:235
	movw	r1, :lower16:pxOverflowDelayedTaskList
	movt	r1, :upper16:pxOverflowDelayedTaskList
	ldr	r0, [r1]
	.loc	3 2729 233                      @ ../Middlewares/Third_Party/FreeRTOS/Source/tasks.c:2729:233
	str	r0, [r2]
	.loc	3 2729 290                      @ ../Middlewares/Third_Party/FreeRTOS/Source/tasks.c:2729:290
	ldr	r0, [sp]
	.loc	3 2729 288                      @ ../Middlewares/Third_Party/FreeRTOS/Source/tasks.c:2729:288
	str	r0, [r1]
	.loc	3 2729 313                      @ ../Middlewares/Third_Party/FreeRTOS/Source/tasks.c:2729:313
	movw	r1, :lower16:xNumOfOverflows
	movt	r1, :upper16:xNumOfOverflows
	ldr	r0, [r1]
	adds	r0, #1
	str	r0, [r1]
	.loc	3 2729 317                      @ ../Middlewares/Third_Party/FreeRTOS/Source/tasks.c:2729:317
	bl	prvResetNextTaskUnblockTime
.Ltmp542:
	.loc	3 2730 3 is_stmt 1              @ ../Middlewares/Third_Party/FreeRTOS/Source/tasks.c:2730:3
	b	.LBB24_7
.Ltmp543:
.LBB24_6:
	.loc	3 0 3 is_stmt 0                 @ ../Middlewares/Third_Party/FreeRTOS/Source/tasks.c:0:3
	b	.LBB24_7
.LBB24_7:
.Ltmp544:
	.loc	3 2740 7 is_stmt 1              @ ../Middlewares/Third_Party/FreeRTOS/Source/tasks.c:2740:7
	ldr	r0, [sp, #4]
	.loc	3 2740 26 is_stmt 0             @ ../Middlewares/Third_Party/FreeRTOS/Source/tasks.c:2740:26
	movw	r1, :lower16:xNextTaskUnblockTime
	movt	r1, :upper16:xNextTaskUnblockTime
	ldr	r1, [r1]
.Ltmp545:
	.loc	3 2740 7                        @ ../Middlewares/Third_Party/FreeRTOS/Source/tasks.c:2740:7
	cmp	r0, r1
	blo	.LBB24_23
	b	.LBB24_8
.LBB24_8:
.Ltmp546:
	.loc	3 2742 4 is_stmt 1              @ ../Middlewares/Third_Party/FreeRTOS/Source/tasks.c:2742:4
	b	.LBB24_9
.LBB24_9:                               @ =>This Inner Loop Header: Depth=1
.Ltmp547:
	.loc	3 2744 15                       @ ../Middlewares/Third_Party/FreeRTOS/Source/tasks.c:2744:15
	movw	r0, :lower16:pxDelayedTaskList
	movt	r0, :upper16:pxDelayedTaskList
	ldr	r0, [r0]
	.loc	3 2744 36 is_stmt 0             @ ../Middlewares/Third_Party/FreeRTOS/Source/tasks.c:2744:36
	ldr	r0, [r0]
.Ltmp548:
	.loc	3 2744 9                        @ ../Middlewares/Third_Party/FreeRTOS/Source/tasks.c:2744:9
	cbnz	r0, .LBB24_11
	b	.LBB24_10
.LBB24_10:
.Ltmp549:
	.loc	3 2751 27 is_stmt 1             @ ../Middlewares/Third_Party/FreeRTOS/Source/tasks.c:2751:27
	movw	r1, :lower16:xNextTaskUnblockTime
	movt	r1, :upper16:xNextTaskUnblockTime
	mov.w	r0, #-1
	str	r0, [r1]
	.loc	3 2752 6                        @ ../Middlewares/Third_Party/FreeRTOS/Source/tasks.c:2752:6
	b	.LBB24_22
.Ltmp550:
.LBB24_11:                              @   in Loop: Header=BB24_9 Depth=1
	.loc	3 2760 22                       @ ../Middlewares/Third_Party/FreeRTOS/Source/tasks.c:2760:22
	movw	r0, :lower16:pxDelayedTaskList
	movt	r0, :upper16:pxDelayedTaskList
	ldr	r0, [r0]
	.loc	3 2760 56 is_stmt 0             @ ../Middlewares/Third_Party/FreeRTOS/Source/tasks.c:2760:56
	ldr	r0, [r0, #12]
	.loc	3 2760 64                       @ ../Middlewares/Third_Party/FreeRTOS/Source/tasks.c:2760:64
	ldr	r0, [r0, #12]
	.loc	3 2760 12                       @ ../Middlewares/Third_Party/FreeRTOS/Source/tasks.c:2760:12
	str	r0, [sp, #16]
	.loc	3 2761 26 is_stmt 1             @ ../Middlewares/Third_Party/FreeRTOS/Source/tasks.c:2761:26
	ldr	r0, [sp, #16]
	.loc	3 2761 53 is_stmt 0             @ ../Middlewares/Third_Party/FreeRTOS/Source/tasks.c:2761:53
	ldr	r0, [r0, #4]
	.loc	3 2761 17                       @ ../Middlewares/Third_Party/FreeRTOS/Source/tasks.c:2761:17
	str	r0, [sp, #12]
.Ltmp551:
	.loc	3 2763 10 is_stmt 1             @ ../Middlewares/Third_Party/FreeRTOS/Source/tasks.c:2763:10
	ldr	r0, [sp, #4]
	.loc	3 2763 28 is_stmt 0             @ ../Middlewares/Third_Party/FreeRTOS/Source/tasks.c:2763:28
	ldr	r1, [sp, #12]
.Ltmp552:
	.loc	3 2763 10                       @ ../Middlewares/Third_Party/FreeRTOS/Source/tasks.c:2763:10
	cmp	r0, r1
	bhs	.LBB24_13
	b	.LBB24_12
.LBB24_12:
.Ltmp553:
	.loc	3 2770 30 is_stmt 1             @ ../Middlewares/Third_Party/FreeRTOS/Source/tasks.c:2770:30
	ldr	r0, [sp, #12]
	.loc	3 2770 28 is_stmt 0             @ ../Middlewares/Third_Party/FreeRTOS/Source/tasks.c:2770:28
	movw	r1, :lower16:xNextTaskUnblockTime
	movt	r1, :upper16:xNextTaskUnblockTime
	str	r0, [r1]
	.loc	3 2771 7 is_stmt 1              @ ../Middlewares/Third_Party/FreeRTOS/Source/tasks.c:2771:7
	b	.LBB24_22
.Ltmp554:
.LBB24_13:                              @   in Loop: Header=BB24_9 Depth=1
	.loc	3 0 7 is_stmt 0                 @ ../Middlewares/Third_Party/FreeRTOS/Source/tasks.c:0:7
	b	.LBB24_14
.LBB24_14:                              @   in Loop: Header=BB24_9 Depth=1
	.loc	3 2779 32 is_stmt 1             @ ../Middlewares/Third_Party/FreeRTOS/Source/tasks.c:2779:32
	ldr	r0, [sp, #16]
	.loc	3 2779 39 is_stmt 0             @ ../Middlewares/Third_Party/FreeRTOS/Source/tasks.c:2779:39
	adds	r0, #4
	.loc	3 2779 15                       @ ../Middlewares/Third_Party/FreeRTOS/Source/tasks.c:2779:15
	bl	uxListRemove
.Ltmp555:
	.loc	3 2783 17 is_stmt 1             @ ../Middlewares/Third_Party/FreeRTOS/Source/tasks.c:2783:17
	ldr	r0, [sp, #16]
	.loc	3 2783 44 is_stmt 0             @ ../Middlewares/Third_Party/FreeRTOS/Source/tasks.c:2783:44
	ldr	r0, [r0, #40]
.Ltmp556:
	.loc	3 2783 10                       @ ../Middlewares/Third_Party/FreeRTOS/Source/tasks.c:2783:10
	cbz	r0, .LBB24_16
	b	.LBB24_15
.LBB24_15:                              @   in Loop: Header=BB24_9 Depth=1
.Ltmp557:
	.loc	3 2785 33 is_stmt 1             @ ../Middlewares/Third_Party/FreeRTOS/Source/tasks.c:2785:33
	ldr	r0, [sp, #16]
	.loc	3 2785 40 is_stmt 0             @ ../Middlewares/Third_Party/FreeRTOS/Source/tasks.c:2785:40
	adds	r0, #24
	.loc	3 2785 16                       @ ../Middlewares/Third_Party/FreeRTOS/Source/tasks.c:2785:16
	bl	uxListRemove
	.loc	3 2786 6 is_stmt 1              @ ../Middlewares/Third_Party/FreeRTOS/Source/tasks.c:2786:6
	b	.LBB24_17
.Ltmp558:
.LBB24_16:                              @   in Loop: Header=BB24_9 Depth=1
	.loc	3 0 6 is_stmt 0                 @ ../Middlewares/Third_Party/FreeRTOS/Source/tasks.c:0:6
	b	.LBB24_17
.LBB24_17:                              @   in Loop: Header=BB24_9 Depth=1
	.loc	3 2794 47 is_stmt 1             @ ../Middlewares/Third_Party/FreeRTOS/Source/tasks.c:2794:47
	ldr	r0, [sp, #16]
	.loc	3 2794 56 is_stmt 0             @ ../Middlewares/Third_Party/FreeRTOS/Source/tasks.c:2794:56
	ldr	r1, [r0, #44]
	movs	r0, #1
	.loc	3 2794 40                       @ ../Middlewares/Third_Party/FreeRTOS/Source/tasks.c:2794:40
	lsl.w	r2, r0, r1
	.loc	3 2794 31                       @ ../Middlewares/Third_Party/FreeRTOS/Source/tasks.c:2794:31
	movw	r1, :lower16:uxTopReadyPriority
	movt	r1, :upper16:uxTopReadyPriority
	ldr	r0, [r1]
	orrs	r0, r2
	str	r0, [r1]
	.loc	3 2794 112                      @ ../Middlewares/Third_Party/FreeRTOS/Source/tasks.c:2794:112
	ldr	r1, [sp, #16]
	.loc	3 2794 121                      @ ../Middlewares/Third_Party/FreeRTOS/Source/tasks.c:2794:121
	ldr	r0, [r1, #44]
	.loc	3 2794 91                       @ ../Middlewares/Third_Party/FreeRTOS/Source/tasks.c:2794:91
	add.w	r2, r0, r0, lsl #2
	movw	r0, :lower16:pxReadyTasksLists
	movt	r0, :upper16:pxReadyTasksLists
	add.w	r0, r0, r2, lsl #2
	.loc	3 2794 151                      @ ../Middlewares/Third_Party/FreeRTOS/Source/tasks.c:2794:151
	adds	r1, #4
	.loc	3 2794 72                       @ ../Middlewares/Third_Party/FreeRTOS/Source/tasks.c:2794:72
	bl	vListInsertEnd
.Ltmp559:
	.loc	3 2804 11 is_stmt 1             @ ../Middlewares/Third_Party/FreeRTOS/Source/tasks.c:2804:11
	ldr	r0, [sp, #16]
	.loc	3 2804 18 is_stmt 0             @ ../Middlewares/Third_Party/FreeRTOS/Source/tasks.c:2804:18
	ldr	r0, [r0, #44]
	.loc	3 2804 32                       @ ../Middlewares/Third_Party/FreeRTOS/Source/tasks.c:2804:32
	movw	r1, :lower16:pxCurrentTCB
	movt	r1, :upper16:pxCurrentTCB
	ldr	r1, [r1]
	.loc	3 2804 46                       @ ../Middlewares/Third_Party/FreeRTOS/Source/tasks.c:2804:46
	ldr	r1, [r1, #44]
.Ltmp560:
	.loc	3 2804 11                       @ ../Middlewares/Third_Party/FreeRTOS/Source/tasks.c:2804:11
	cmp	r0, r1
	blo	.LBB24_19
	b	.LBB24_18
.LBB24_18:                              @   in Loop: Header=BB24_9 Depth=1
	.loc	3 0 11                          @ ../Middlewares/Third_Party/FreeRTOS/Source/tasks.c:0:11
	movs	r0, #1
.Ltmp561:
	.loc	3 2806 24 is_stmt 1             @ ../Middlewares/Third_Party/FreeRTOS/Source/tasks.c:2806:24
	str	r0, [sp, #8]
	.loc	3 2807 7                        @ ../Middlewares/Third_Party/FreeRTOS/Source/tasks.c:2807:7
	b	.LBB24_20
.Ltmp562:
.LBB24_19:                              @   in Loop: Header=BB24_9 Depth=1
	.loc	3 0 7 is_stmt 0                 @ ../Middlewares/Third_Party/FreeRTOS/Source/tasks.c:0:7
	b	.LBB24_20
.LBB24_20:                              @   in Loop: Header=BB24_9 Depth=1
	b	.LBB24_21
.LBB24_21:                              @   in Loop: Header=BB24_9 Depth=1
	.loc	3 2742 4 is_stmt 1              @ ../Middlewares/Third_Party/FreeRTOS/Source/tasks.c:2742:4
	b	.LBB24_9
.Ltmp563:
.LBB24_22:
	.loc	3 2816 3                        @ ../Middlewares/Third_Party/FreeRTOS/Source/tasks.c:2816:3
	b	.LBB24_23
.Ltmp564:
.LBB24_23:
	.loc	3 2823 34                       @ ../Middlewares/Third_Party/FreeRTOS/Source/tasks.c:2823:34
	movw	r0, :lower16:pxCurrentTCB
	movt	r0, :upper16:pxCurrentTCB
	ldr	r0, [r0]
	.loc	3 2823 48 is_stmt 0             @ ../Middlewares/Third_Party/FreeRTOS/Source/tasks.c:2823:48
	ldr	r0, [r0, #44]
	.loc	3 2823 15                       @ ../Middlewares/Third_Party/FreeRTOS/Source/tasks.c:2823:15
	add.w	r1, r0, r0, lsl #2
	movw	r0, :lower16:pxReadyTasksLists
	movt	r0, :upper16:pxReadyTasksLists
	.loc	3 2823 66                       @ ../Middlewares/Third_Party/FreeRTOS/Source/tasks.c:2823:66
	ldr.w	r0, [r0, r1, lsl #2]
.Ltmp565:
	.loc	3 2823 8                        @ ../Middlewares/Third_Party/FreeRTOS/Source/tasks.c:2823:8
	cmp	r0, #2
	blo	.LBB24_25
	b	.LBB24_24
.LBB24_24:
	.loc	3 0 8                           @ ../Middlewares/Third_Party/FreeRTOS/Source/tasks.c:0:8
	movs	r0, #1
.Ltmp566:
	.loc	3 2825 21 is_stmt 1             @ ../Middlewares/Third_Party/FreeRTOS/Source/tasks.c:2825:21
	str	r0, [sp, #8]
	.loc	3 2826 4                        @ ../Middlewares/Third_Party/FreeRTOS/Source/tasks.c:2826:4
	b	.LBB24_26
.Ltmp567:
.LBB24_25:
	.loc	3 0 4 is_stmt 0                 @ ../Middlewares/Third_Party/FreeRTOS/Source/tasks.c:0:4
	b	.LBB24_26
.LBB24_26:
.Ltmp568:
	.loc	3 2851 8 is_stmt 1              @ ../Middlewares/Third_Party/FreeRTOS/Source/tasks.c:2851:8
	movw	r0, :lower16:xYieldPending
	movt	r0, :upper16:xYieldPending
	ldr	r0, [r0]
.Ltmp569:
	.loc	3 2851 8 is_stmt 0              @ ../Middlewares/Third_Party/FreeRTOS/Source/tasks.c:2851:8
	cbz	r0, .LBB24_28
	b	.LBB24_27
.LBB24_27:
	.loc	3 0 8                           @ ../Middlewares/Third_Party/FreeRTOS/Source/tasks.c:0:8
	movs	r0, #1
.Ltmp570:
	.loc	3 2853 21 is_stmt 1             @ ../Middlewares/Third_Party/FreeRTOS/Source/tasks.c:2853:21
	str	r0, [sp, #8]
	.loc	3 2854 4                        @ ../Middlewares/Third_Party/FreeRTOS/Source/tasks.c:2854:4
	b	.LBB24_29
.Ltmp571:
.LBB24_28:
	.loc	3 0 4 is_stmt 0                 @ ../Middlewares/Third_Party/FreeRTOS/Source/tasks.c:0:4
	b	.LBB24_29
.LBB24_29:
	.loc	3 2861 2 is_stmt 1              @ ../Middlewares/Third_Party/FreeRTOS/Source/tasks.c:2861:2
	b	.LBB24_31
.Ltmp572:
.LBB24_30:
	.loc	3 2864 3                        @ ../Middlewares/Third_Party/FreeRTOS/Source/tasks.c:2864:3
	movw	r1, :lower16:xPendedTicks
	movt	r1, :upper16:xPendedTicks
	ldr	r0, [r1]
	adds	r0, #1
	str	r0, [r1]
	b	.LBB24_31
.Ltmp573:
.LBB24_31:
	.loc	3 2875 9                        @ ../Middlewares/Third_Party/FreeRTOS/Source/tasks.c:2875:9
	ldr	r0, [sp, #8]
	.loc	3 2875 2 is_stmt 0              @ ../Middlewares/Third_Party/FreeRTOS/Source/tasks.c:2875:2
	add	sp, #24
	pop	{r7, pc}
.Ltmp574:
.Lfunc_end24:
	.size	xTaskIncrementTick, .Lfunc_end24-xTaskIncrementTick
	.cfi_endproc
	.cantunwind
	.fnend
                                        @ -- End function
	.section	.text.xTaskGetTickCount,"ax",%progbits
	.hidden	xTaskGetTickCount               @ -- Begin function xTaskGetTickCount
	.globl	xTaskGetTickCount
	.p2align	2
	.type	xTaskGetTickCount,%function
	.code	16                              @ @xTaskGetTickCount
	.thumb_func
xTaskGetTickCount:
.Lfunc_begin25:
	.loc	3 2305 0 is_stmt 1              @ ../Middlewares/Third_Party/FreeRTOS/Source/tasks.c:2305:0
	.fnstart
	.cfi_startproc
@ %bb.0:
	.pad	#4
	sub	sp, #4
	.cfi_def_cfa_offset 4
.Ltmp575:
	.loc	3 2311 12 prologue_end          @ ../Middlewares/Third_Party/FreeRTOS/Source/tasks.c:2311:12
	movw	r0, :lower16:xTickCount
	movt	r0, :upper16:xTickCount
	ldr	r0, [r0]
	.loc	3 2311 10 is_stmt 0             @ ../Middlewares/Third_Party/FreeRTOS/Source/tasks.c:2311:10
	str	r0, [sp]
.Ltmp576:
	.loc	3 2315 9 is_stmt 1              @ ../Middlewares/Third_Party/FreeRTOS/Source/tasks.c:2315:9
	ldr	r0, [sp]
	.loc	3 2315 2 is_stmt 0              @ ../Middlewares/Third_Party/FreeRTOS/Source/tasks.c:2315:2
	add	sp, #4
	bx	lr
.Ltmp577:
.Lfunc_end25:
	.size	xTaskGetTickCount, .Lfunc_end25-xTaskGetTickCount
	.cfi_endproc
	.cantunwind
	.fnend
                                        @ -- End function
	.section	.text.xTaskGetTickCountFromISR,"ax",%progbits
	.hidden	xTaskGetTickCountFromISR        @ -- Begin function xTaskGetTickCountFromISR
	.globl	xTaskGetTickCountFromISR
	.p2align	2
	.type	xTaskGetTickCountFromISR,%function
	.code	16                              @ @xTaskGetTickCountFromISR
	.thumb_func
xTaskGetTickCountFromISR:
.Lfunc_begin26:
	.loc	3 2320 0 is_stmt 1              @ ../Middlewares/Third_Party/FreeRTOS/Source/tasks.c:2320:0
	.fnstart
	.cfi_startproc
@ %bb.0:
	.save	{r7, lr}
	push	{r7, lr}
	.cfi_def_cfa_offset 8
	.cfi_offset lr, -4
	.cfi_offset r7, -8
	.pad	#8
	sub	sp, #8
	.cfi_def_cfa_offset 16
.Ltmp578:
	.loc	3 2338 2 prologue_end           @ ../Middlewares/Third_Party/FreeRTOS/Source/tasks.c:2338:2
	bl	vPortValidateInterruptPriority
	movs	r0, #0
	.loc	3 2340 25                       @ ../Middlewares/Third_Party/FreeRTOS/Source/tasks.c:2340:25
	str	r0, [sp]
.Ltmp579:
	.loc	3 2342 13                       @ ../Middlewares/Third_Party/FreeRTOS/Source/tasks.c:2342:13
	movw	r0, :lower16:xTickCount
	movt	r0, :upper16:xTickCount
	ldr	r0, [r0]
	.loc	3 2342 11 is_stmt 0             @ ../Middlewares/Third_Party/FreeRTOS/Source/tasks.c:2342:11
	str	r0, [sp, #4]
.Ltmp580:
	.loc	3 2346 9 is_stmt 1              @ ../Middlewares/Third_Party/FreeRTOS/Source/tasks.c:2346:9
	ldr	r0, [sp, #4]
	.loc	3 2346 2 is_stmt 0              @ ../Middlewares/Third_Party/FreeRTOS/Source/tasks.c:2346:2
	add	sp, #8
	pop	{r7, pc}
.Ltmp581:
.Lfunc_end26:
	.size	xTaskGetTickCountFromISR, .Lfunc_end26-xTaskGetTickCountFromISR
	.cfi_endproc
	.cantunwind
	.fnend
                                        @ -- End function
	.section	.text.uxTaskGetNumberOfTasks,"ax",%progbits
	.hidden	uxTaskGetNumberOfTasks          @ -- Begin function uxTaskGetNumberOfTasks
	.globl	uxTaskGetNumberOfTasks
	.p2align	2
	.type	uxTaskGetNumberOfTasks,%function
	.code	16                              @ @uxTaskGetNumberOfTasks
	.thumb_func
uxTaskGetNumberOfTasks:
.Lfunc_begin27:
	.loc	3 2351 0 is_stmt 1              @ ../Middlewares/Third_Party/FreeRTOS/Source/tasks.c:2351:0
	.fnstart
	.cfi_startproc
@ %bb.0:
	.loc	3 2354 9 prologue_end           @ ../Middlewares/Third_Party/FreeRTOS/Source/tasks.c:2354:9
	movw	r0, :lower16:uxCurrentNumberOfTasks
	movt	r0, :upper16:uxCurrentNumberOfTasks
	ldr	r0, [r0]
	.loc	3 2354 2 is_stmt 0              @ ../Middlewares/Third_Party/FreeRTOS/Source/tasks.c:2354:2
	bx	lr
.Ltmp582:
.Lfunc_end27:
	.size	uxTaskGetNumberOfTasks, .Lfunc_end27-uxTaskGetNumberOfTasks
	.cfi_endproc
	.cantunwind
	.fnend
                                        @ -- End function
	.section	.text.pcTaskGetName,"ax",%progbits
	.hidden	pcTaskGetName                   @ -- Begin function pcTaskGetName
	.globl	pcTaskGetName
	.p2align	2
	.type	pcTaskGetName,%function
	.code	16                              @ @pcTaskGetName
	.thumb_func
pcTaskGetName:
.Lfunc_begin28:
	.loc	3 2359 0 is_stmt 1              @ ../Middlewares/Third_Party/FreeRTOS/Source/tasks.c:2359:0
	.fnstart
	.cfi_startproc
@ %bb.0:
	.pad	#16
	sub	sp, #16
	.cfi_def_cfa_offset 16
	str	r0, [sp, #8]
.Ltmp583:
	.loc	3 2364 16 prologue_end          @ ../Middlewares/Third_Party/FreeRTOS/Source/tasks.c:2364:16
	ldr	r0, [sp, #8]
	.loc	3 2364 12 is_stmt 0             @ ../Middlewares/Third_Party/FreeRTOS/Source/tasks.c:2364:12
	cbnz	r0, .LBB28_2
	b	.LBB28_1
.LBB28_1:
	.loc	3 2364 40                       @ ../Middlewares/Third_Party/FreeRTOS/Source/tasks.c:2364:40
	movw	r0, :lower16:pxCurrentTCB
	movt	r0, :upper16:pxCurrentTCB
	ldr	r0, [r0]
	.loc	3 2364 12                       @ ../Middlewares/Third_Party/FreeRTOS/Source/tasks.c:2364:12
	str	r0, [sp]                        @ 4-byte Spill
	b	.LBB28_3
.LBB28_2:
	.loc	3 2364 57                       @ ../Middlewares/Third_Party/FreeRTOS/Source/tasks.c:2364:57
	ldr	r0, [sp, #8]
	.loc	3 2364 12                       @ ../Middlewares/Third_Party/FreeRTOS/Source/tasks.c:2364:12
	str	r0, [sp]                        @ 4-byte Spill
	b	.LBB28_3
.LBB28_3:
	ldr	r0, [sp]                        @ 4-byte Reload
	.loc	3 2364 8                        @ ../Middlewares/Third_Party/FreeRTOS/Source/tasks.c:2364:8
	str	r0, [sp, #4]
.Ltmp584:
	.loc	3 2365 7 is_stmt 1              @ ../Middlewares/Third_Party/FreeRTOS/Source/tasks.c:2365:7
	ldr	r0, [sp, #4]
.Ltmp585:
	.loc	3 2365 6 is_stmt 0              @ ../Middlewares/Third_Party/FreeRTOS/Source/tasks.c:2365:6
	cbnz	r0, .LBB28_6
	b	.LBB28_4
.LBB28_4:
.Ltmp586:
	.loc	2 195 2 is_stmt 1               @ ../Middlewares/Third_Party/FreeRTOS/Source/portable/RVDS/ARM_CM4F\portmacro.h:195:2
	@APP
	mov.w	r0, #80
	msr	basepri, r0
	isb	sy
	dsb	sy

	@NO_APP
	str	r0, [sp, #12]
.Ltmp587:
	.loc	3 2365 42                       @ ../Middlewares/Third_Party/FreeRTOS/Source/tasks.c:2365:42
	b	.LBB28_5
.LBB28_5:                               @ =>This Inner Loop Header: Depth=1
.Ltmp588:
	.loc	3 2365 42 is_stmt 0             @ ../Middlewares/Third_Party/FreeRTOS/Source/tasks.c:2365:42
	b	.LBB28_5
.Ltmp589:
.LBB28_6:
	.loc	3 2366 12 is_stmt 1             @ ../Middlewares/Third_Party/FreeRTOS/Source/tasks.c:2366:12
	ldr	r0, [sp, #4]
	.loc	3 2366 19 is_stmt 0             @ ../Middlewares/Third_Party/FreeRTOS/Source/tasks.c:2366:19
	adds	r0, #52
	.loc	3 2366 2                        @ ../Middlewares/Third_Party/FreeRTOS/Source/tasks.c:2366:2
	add	sp, #16
	bx	lr
.Ltmp590:
.Lfunc_end28:
	.size	pcTaskGetName, .Lfunc_end28-pcTaskGetName
	.cfi_endproc
	.cantunwind
	.fnend
                                        @ -- End function
	.section	.text.xTaskGetHandle,"ax",%progbits
	.hidden	xTaskGetHandle                  @ -- Begin function xTaskGetHandle
	.globl	xTaskGetHandle
	.p2align	2
	.type	xTaskGetHandle,%function
	.code	16                              @ @xTaskGetHandle
	.thumb_func
xTaskGetHandle:
.Lfunc_begin29:
	.loc	3 2441 0 is_stmt 1              @ ../Middlewares/Third_Party/FreeRTOS/Source/tasks.c:2441:0
	.fnstart
	.cfi_startproc
@ %bb.0:
	.save	{r7, lr}
	push	{r7, lr}
	.cfi_def_cfa_offset 8
	.cfi_offset lr, -4
	.cfi_offset r7, -8
	.pad	#16
	sub	sp, #16
	.cfi_def_cfa_offset 24
	str	r0, [sp, #8]
	movs	r0, #7
.Ltmp591:
	.loc	3 2442 14 prologue_end          @ ../Middlewares/Third_Party/FreeRTOS/Source/tasks.c:2442:14
	str	r0, [sp, #4]
.Ltmp592:
	.loc	3 2446 16                       @ ../Middlewares/Third_Party/FreeRTOS/Source/tasks.c:2446:16
	ldr	r0, [sp, #8]
	.loc	3 2446 8 is_stmt 0              @ ../Middlewares/Third_Party/FreeRTOS/Source/tasks.c:2446:8
	bl	strlen
.Ltmp593:
	.loc	3 2446 7                        @ ../Middlewares/Third_Party/FreeRTOS/Source/tasks.c:2446:7
	cmp	r0, #16
	blo	.LBB29_3
	b	.LBB29_1
.LBB29_1:
.Ltmp594:
	.loc	2 195 2 is_stmt 1               @ ../Middlewares/Third_Party/FreeRTOS/Source/portable/RVDS/ARM_CM4F\portmacro.h:195:2
	@APP
	mov.w	r0, #80
	msr	basepri, r0
	isb	sy
	dsb	sy

	@NO_APP
	str	r0, [sp, #12]
.Ltmp595:
	.loc	3 2446 70                       @ ../Middlewares/Third_Party/FreeRTOS/Source/tasks.c:2446:70
	b	.LBB29_2
.LBB29_2:                               @ =>This Inner Loop Header: Depth=1
.Ltmp596:
	.loc	3 2446 70 is_stmt 0             @ ../Middlewares/Third_Party/FreeRTOS/Source/tasks.c:2446:70
	b	.LBB29_2
.Ltmp597:
.LBB29_3:
	.loc	3 2448 3 is_stmt 1              @ ../Middlewares/Third_Party/FreeRTOS/Source/tasks.c:2448:3
	bl	vTaskSuspendAll
.Ltmp598:
	.loc	3 2451 4                        @ ../Middlewares/Third_Party/FreeRTOS/Source/tasks.c:2451:4
	b	.LBB29_4
.LBB29_4:                               @ =>This Inner Loop Header: Depth=1
.Ltmp599:
	.loc	3 2453 12                       @ ../Middlewares/Third_Party/FreeRTOS/Source/tasks.c:2453:12
	ldr	r0, [sp, #4]
	subs	r0, #1
	str	r0, [sp, #4]
	.loc	3 2454 82                       @ ../Middlewares/Third_Party/FreeRTOS/Source/tasks.c:2454:82
	ldr	r0, [sp, #4]
	.loc	3 2454 63 is_stmt 0             @ ../Middlewares/Third_Party/FreeRTOS/Source/tasks.c:2454:63
	add.w	r1, r0, r0, lsl #2
	movw	r0, :lower16:pxReadyTasksLists
	movt	r0, :upper16:pxReadyTasksLists
	add.w	r0, r0, r1, lsl #2
	.loc	3 2454 95                       @ ../Middlewares/Third_Party/FreeRTOS/Source/tasks.c:2454:95
	ldr	r1, [sp, #8]
	.loc	3 2454 13                       @ ../Middlewares/Third_Party/FreeRTOS/Source/tasks.c:2454:13
	bl	prvSearchForNameWithinSingleList
	.loc	3 2454 11                       @ ../Middlewares/Third_Party/FreeRTOS/Source/tasks.c:2454:11
	str	r0, [sp]
.Ltmp600:
	.loc	3 2456 9 is_stmt 1              @ ../Middlewares/Third_Party/FreeRTOS/Source/tasks.c:2456:9
	ldr	r0, [sp]
.Ltmp601:
	.loc	3 2456 9 is_stmt 0              @ ../Middlewares/Third_Party/FreeRTOS/Source/tasks.c:2456:9
	cbz	r0, .LBB29_6
	b	.LBB29_5
.LBB29_5:
.Ltmp602:
	.loc	3 2459 6 is_stmt 1              @ ../Middlewares/Third_Party/FreeRTOS/Source/tasks.c:2459:6
	b	.LBB29_8
.Ltmp603:
.LBB29_6:                               @   in Loop: Header=BB29_4 Depth=1
	.loc	3 2462 4                        @ ../Middlewares/Third_Party/FreeRTOS/Source/tasks.c:2462:4
	b	.LBB29_7
.Ltmp604:
.LBB29_7:                               @   in Loop: Header=BB29_4 Depth=1
	.loc	3 2462 13 is_stmt 0             @ ../Middlewares/Third_Party/FreeRTOS/Source/tasks.c:2462:13
	ldr	r0, [sp, #4]
.Ltmp605:
	.loc	3 2462 4                        @ ../Middlewares/Third_Party/FreeRTOS/Source/tasks.c:2462:4
	cmp	r0, #0
	bne	.LBB29_4
	b	.LBB29_8
.Ltmp606:
.LBB29_8:
	.loc	3 2465 8 is_stmt 1              @ ../Middlewares/Third_Party/FreeRTOS/Source/tasks.c:2465:8
	ldr	r0, [sp]
.Ltmp607:
	.loc	3 2465 8 is_stmt 0              @ ../Middlewares/Third_Party/FreeRTOS/Source/tasks.c:2465:8
	cbnz	r0, .LBB29_10
	b	.LBB29_9
.LBB29_9:
.Ltmp608:
	.loc	3 2467 60 is_stmt 1             @ ../Middlewares/Third_Party/FreeRTOS/Source/tasks.c:2467:60
	movw	r0, :lower16:pxDelayedTaskList
	movt	r0, :upper16:pxDelayedTaskList
	ldr	r0, [r0]
	.loc	3 2467 79 is_stmt 0             @ ../Middlewares/Third_Party/FreeRTOS/Source/tasks.c:2467:79
	ldr	r1, [sp, #8]
	.loc	3 2467 13                       @ ../Middlewares/Third_Party/FreeRTOS/Source/tasks.c:2467:13
	bl	prvSearchForNameWithinSingleList
	.loc	3 2467 11                       @ ../Middlewares/Third_Party/FreeRTOS/Source/tasks.c:2467:11
	str	r0, [sp]
	.loc	3 2468 4 is_stmt 1              @ ../Middlewares/Third_Party/FreeRTOS/Source/tasks.c:2468:4
	b	.LBB29_10
.Ltmp609:
.LBB29_10:
	.loc	3 2470 8                        @ ../Middlewares/Third_Party/FreeRTOS/Source/tasks.c:2470:8
	ldr	r0, [sp]
.Ltmp610:
	.loc	3 2470 8 is_stmt 0              @ ../Middlewares/Third_Party/FreeRTOS/Source/tasks.c:2470:8
	cbnz	r0, .LBB29_12
	b	.LBB29_11
.LBB29_11:
.Ltmp611:
	.loc	3 2472 60 is_stmt 1             @ ../Middlewares/Third_Party/FreeRTOS/Source/tasks.c:2472:60
	movw	r0, :lower16:pxOverflowDelayedTaskList
	movt	r0, :upper16:pxOverflowDelayedTaskList
	ldr	r0, [r0]
	.loc	3 2472 87 is_stmt 0             @ ../Middlewares/Third_Party/FreeRTOS/Source/tasks.c:2472:87
	ldr	r1, [sp, #8]
	.loc	3 2472 13                       @ ../Middlewares/Third_Party/FreeRTOS/Source/tasks.c:2472:13
	bl	prvSearchForNameWithinSingleList
	.loc	3 2472 11                       @ ../Middlewares/Third_Party/FreeRTOS/Source/tasks.c:2472:11
	str	r0, [sp]
	.loc	3 2473 4 is_stmt 1              @ ../Middlewares/Third_Party/FreeRTOS/Source/tasks.c:2473:4
	b	.LBB29_12
.Ltmp612:
.LBB29_12:
	.loc	3 2477 9                        @ ../Middlewares/Third_Party/FreeRTOS/Source/tasks.c:2477:9
	ldr	r0, [sp]
.Ltmp613:
	.loc	3 2477 9 is_stmt 0              @ ../Middlewares/Third_Party/FreeRTOS/Source/tasks.c:2477:9
	cbnz	r0, .LBB29_14
	b	.LBB29_13
.LBB29_13:
.Ltmp614:
	.loc	3 2480 69 is_stmt 1             @ ../Middlewares/Third_Party/FreeRTOS/Source/tasks.c:2480:69
	ldr	r1, [sp, #8]
	.loc	3 2480 14 is_stmt 0             @ ../Middlewares/Third_Party/FreeRTOS/Source/tasks.c:2480:14
	movw	r0, :lower16:xSuspendedTaskList
	movt	r0, :upper16:xSuspendedTaskList
	bl	prvSearchForNameWithinSingleList
	.loc	3 2480 12                       @ ../Middlewares/Third_Party/FreeRTOS/Source/tasks.c:2480:12
	str	r0, [sp]
	.loc	3 2481 5 is_stmt 1              @ ../Middlewares/Third_Party/FreeRTOS/Source/tasks.c:2481:5
	b	.LBB29_14
.Ltmp615:
.LBB29_14:
	.loc	3 2487 9                        @ ../Middlewares/Third_Party/FreeRTOS/Source/tasks.c:2487:9
	ldr	r0, [sp]
.Ltmp616:
	.loc	3 2487 9 is_stmt 0              @ ../Middlewares/Third_Party/FreeRTOS/Source/tasks.c:2487:9
	cbnz	r0, .LBB29_16
	b	.LBB29_15
.LBB29_15:
.Ltmp617:
	.loc	3 2490 75 is_stmt 1             @ ../Middlewares/Third_Party/FreeRTOS/Source/tasks.c:2490:75
	ldr	r1, [sp, #8]
	.loc	3 2490 14 is_stmt 0             @ ../Middlewares/Third_Party/FreeRTOS/Source/tasks.c:2490:14
	movw	r0, :lower16:xTasksWaitingTermination
	movt	r0, :upper16:xTasksWaitingTermination
	bl	prvSearchForNameWithinSingleList
	.loc	3 2490 12                       @ ../Middlewares/Third_Party/FreeRTOS/Source/tasks.c:2490:12
	str	r0, [sp]
	.loc	3 2491 5 is_stmt 1              @ ../Middlewares/Third_Party/FreeRTOS/Source/tasks.c:2491:5
	b	.LBB29_16
.Ltmp618:
.LBB29_16:
	.loc	3 2495 12                       @ ../Middlewares/Third_Party/FreeRTOS/Source/tasks.c:2495:12
	bl	xTaskResumeAll
	.loc	3 2497 10                       @ ../Middlewares/Third_Party/FreeRTOS/Source/tasks.c:2497:10
	ldr	r0, [sp]
	.loc	3 2497 3 is_stmt 0              @ ../Middlewares/Third_Party/FreeRTOS/Source/tasks.c:2497:3
	add	sp, #16
	pop	{r7, pc}
.Ltmp619:
.Lfunc_end29:
	.size	xTaskGetHandle, .Lfunc_end29-xTaskGetHandle
	.cfi_endproc
	.cantunwind
	.fnend
                                        @ -- End function
	.section	.text.prvSearchForNameWithinSingleList,"ax",%progbits
	.p2align	2                               @ -- Begin function prvSearchForNameWithinSingleList
	.type	prvSearchForNameWithinSingleList,%function
	.code	16                              @ @prvSearchForNameWithinSingleList
	.thumb_func
prvSearchForNameWithinSingleList:
.Lfunc_begin30:
	.loc	3 2373 0 is_stmt 1              @ ../Middlewares/Third_Party/FreeRTOS/Source/tasks.c:2373:0
	.fnstart
	.cfi_startproc
@ %bb.0:
	.pad	#40
	sub	sp, #40
	.cfi_def_cfa_offset 40
	str	r0, [sp, #36]
	str	r1, [sp, #32]
	movs	r0, #0
.Ltmp620:
	.loc	3 2374 34 prologue_end          @ ../Middlewares/Third_Party/FreeRTOS/Source/tasks.c:2374:34
	str	r0, [sp, #20]
.Ltmp621:
	.loc	3 2381 11                       @ ../Middlewares/Third_Party/FreeRTOS/Source/tasks.c:2381:11
	ldr	r0, [sp, #36]
	.loc	3 2381 21 is_stmt 0             @ ../Middlewares/Third_Party/FreeRTOS/Source/tasks.c:2381:21
	ldr	r0, [r0]
.Ltmp622:
	.loc	3 2381 7                        @ ../Middlewares/Third_Party/FreeRTOS/Source/tasks.c:2381:7
	cmp	r0, #0
	beq	.LBB30_23
	b	.LBB30_1
.LBB30_1:
.Ltmp623:
	.loc	3 2383 37 is_stmt 1             @ ../Middlewares/Third_Party/FreeRTOS/Source/tasks.c:2383:37
	ldr	r0, [sp, #36]
	.loc	3 2383 21 is_stmt 0             @ ../Middlewares/Third_Party/FreeRTOS/Source/tasks.c:2383:21
	str	r0, [sp, #4]
	.loc	3 2383 76                       @ ../Middlewares/Third_Party/FreeRTOS/Source/tasks.c:2383:76
	ldr	r1, [sp, #4]
	.loc	3 2383 91                       @ ../Middlewares/Third_Party/FreeRTOS/Source/tasks.c:2383:91
	ldr	r0, [r1, #4]
	.loc	3 2383 100                      @ ../Middlewares/Third_Party/FreeRTOS/Source/tasks.c:2383:100
	ldr	r0, [r0, #4]
	.loc	3 2383 72                       @ ../Middlewares/Third_Party/FreeRTOS/Source/tasks.c:2383:72
	str	r0, [r1, #4]
.Ltmp624:
	.loc	3 2383 125                      @ ../Middlewares/Third_Party/FreeRTOS/Source/tasks.c:2383:125
	ldr	r1, [sp, #4]
	.loc	3 2383 140                      @ ../Middlewares/Third_Party/FreeRTOS/Source/tasks.c:2383:140
	ldr	r0, [r1, #4]
	.loc	3 2383 182                      @ ../Middlewares/Third_Party/FreeRTOS/Source/tasks.c:2383:182
	adds	r1, #8
.Ltmp625:
	.loc	3 2383 112                      @ ../Middlewares/Third_Party/FreeRTOS/Source/tasks.c:2383:112
	cmp	r0, r1
	bne	.LBB30_3
	b	.LBB30_2
.LBB30_2:
.Ltmp626:
	.loc	3 2383 226                      @ ../Middlewares/Third_Party/FreeRTOS/Source/tasks.c:2383:226
	ldr	r1, [sp, #4]
	.loc	3 2383 241                      @ ../Middlewares/Third_Party/FreeRTOS/Source/tasks.c:2383:241
	ldr	r0, [r1, #4]
	.loc	3 2383 250                      @ ../Middlewares/Third_Party/FreeRTOS/Source/tasks.c:2383:250
	ldr	r0, [r0, #4]
	.loc	3 2383 222                      @ ../Middlewares/Third_Party/FreeRTOS/Source/tasks.c:2383:222
	str	r0, [r1, #4]
	.loc	3 2383 258                      @ ../Middlewares/Third_Party/FreeRTOS/Source/tasks.c:2383:258
	b	.LBB30_3
.Ltmp627:
.LBB30_3:
	.loc	3 2383 279                      @ ../Middlewares/Third_Party/FreeRTOS/Source/tasks.c:2383:279
	ldr	r0, [sp, #4]
	.loc	3 2383 294                      @ ../Middlewares/Third_Party/FreeRTOS/Source/tasks.c:2383:294
	ldr	r0, [r0, #4]
	.loc	3 2383 303                      @ ../Middlewares/Third_Party/FreeRTOS/Source/tasks.c:2383:303
	ldr	r0, [r0, #12]
	.loc	3 2383 275                      @ ../Middlewares/Third_Party/FreeRTOS/Source/tasks.c:2383:275
	str	r0, [sp, #24]
.Ltmp628:
	.loc	3 2385 4 is_stmt 1              @ ../Middlewares/Third_Party/FreeRTOS/Source/tasks.c:2385:4
	b	.LBB30_4
.LBB30_4:                               @ =>This Loop Header: Depth=1
                                        @     Child Loop BB30_7 Depth 2
.Ltmp629:
	.loc	3 2387 38                       @ ../Middlewares/Third_Party/FreeRTOS/Source/tasks.c:2387:38
	ldr	r0, [sp, #36]
	.loc	3 2387 22 is_stmt 0             @ ../Middlewares/Third_Party/FreeRTOS/Source/tasks.c:2387:22
	str	r0, [sp]
	.loc	3 2387 77                       @ ../Middlewares/Third_Party/FreeRTOS/Source/tasks.c:2387:77
	ldr	r1, [sp]
	.loc	3 2387 92                       @ ../Middlewares/Third_Party/FreeRTOS/Source/tasks.c:2387:92
	ldr	r0, [r1, #4]
	.loc	3 2387 101                      @ ../Middlewares/Third_Party/FreeRTOS/Source/tasks.c:2387:101
	ldr	r0, [r0, #4]
	.loc	3 2387 73                       @ ../Middlewares/Third_Party/FreeRTOS/Source/tasks.c:2387:73
	str	r0, [r1, #4]
.Ltmp630:
	.loc	3 2387 126                      @ ../Middlewares/Third_Party/FreeRTOS/Source/tasks.c:2387:126
	ldr	r1, [sp]
	.loc	3 2387 141                      @ ../Middlewares/Third_Party/FreeRTOS/Source/tasks.c:2387:141
	ldr	r0, [r1, #4]
	.loc	3 2387 183                      @ ../Middlewares/Third_Party/FreeRTOS/Source/tasks.c:2387:183
	adds	r1, #8
.Ltmp631:
	.loc	3 2387 113                      @ ../Middlewares/Third_Party/FreeRTOS/Source/tasks.c:2387:113
	cmp	r0, r1
	bne	.LBB30_6
	b	.LBB30_5
.LBB30_5:                               @   in Loop: Header=BB30_4 Depth=1
.Ltmp632:
	.loc	3 2387 227                      @ ../Middlewares/Third_Party/FreeRTOS/Source/tasks.c:2387:227
	ldr	r1, [sp]
	.loc	3 2387 242                      @ ../Middlewares/Third_Party/FreeRTOS/Source/tasks.c:2387:242
	ldr	r0, [r1, #4]
	.loc	3 2387 251                      @ ../Middlewares/Third_Party/FreeRTOS/Source/tasks.c:2387:251
	ldr	r0, [r0, #4]
	.loc	3 2387 223                      @ ../Middlewares/Third_Party/FreeRTOS/Source/tasks.c:2387:223
	str	r0, [r1, #4]
	.loc	3 2387 259                      @ ../Middlewares/Third_Party/FreeRTOS/Source/tasks.c:2387:259
	b	.LBB30_6
.Ltmp633:
.LBB30_6:                               @   in Loop: Header=BB30_4 Depth=1
	.loc	3 2387 279                      @ ../Middlewares/Third_Party/FreeRTOS/Source/tasks.c:2387:279
	ldr	r0, [sp]
	.loc	3 2387 294                      @ ../Middlewares/Third_Party/FreeRTOS/Source/tasks.c:2387:294
	ldr	r0, [r0, #4]
	.loc	3 2387 303                      @ ../Middlewares/Third_Party/FreeRTOS/Source/tasks.c:2387:303
	ldr	r0, [r0, #12]
	.loc	3 2387 275                      @ ../Middlewares/Third_Party/FreeRTOS/Source/tasks.c:2387:275
	str	r0, [sp, #28]
	movs	r0, #0
.Ltmp634:
	.loc	3 2391 16 is_stmt 1             @ ../Middlewares/Third_Party/FreeRTOS/Source/tasks.c:2391:16
	str	r0, [sp, #8]
.Ltmp635:
	.loc	3 2392 12                       @ ../Middlewares/Third_Party/FreeRTOS/Source/tasks.c:2392:12
	str	r0, [sp, #16]
	.loc	3 2392 10 is_stmt 0             @ ../Middlewares/Third_Party/FreeRTOS/Source/tasks.c:2392:10
	b	.LBB30_7
.LBB30_7:                               @   Parent Loop BB30_4 Depth=1
                                        @ =>  This Inner Loop Header: Depth=2
.Ltmp636:
	.loc	3 2392 33                       @ ../Middlewares/Third_Party/FreeRTOS/Source/tasks.c:2392:33
	ldr	r0, [sp, #16]
.Ltmp637:
	.loc	3 2392 5                        @ ../Middlewares/Third_Party/FreeRTOS/Source/tasks.c:2392:5
	cmp	r0, #15
	bhi	.LBB30_18
	b	.LBB30_8
.LBB30_8:                               @   in Loop: Header=BB30_7 Depth=2
.Ltmp638:
	.loc	3 2394 18 is_stmt 1             @ ../Middlewares/Third_Party/FreeRTOS/Source/tasks.c:2394:18
	ldr	r0, [sp, #28]
	.loc	3 2394 41 is_stmt 0             @ ../Middlewares/Third_Party/FreeRTOS/Source/tasks.c:2394:41
	ldr	r1, [sp, #16]
	.loc	3 2394 29                       @ ../Middlewares/Third_Party/FreeRTOS/Source/tasks.c:2394:29
	add	r0, r1
	.loc	3 2394 18                       @ ../Middlewares/Third_Party/FreeRTOS/Source/tasks.c:2394:18
	ldrb.w	r0, [r0, #52]
	.loc	3 2394 16                       @ ../Middlewares/Third_Party/FreeRTOS/Source/tasks.c:2394:16
	strb.w	r0, [sp, #15]
.Ltmp639:
	.loc	3 2396 10 is_stmt 1             @ ../Middlewares/Third_Party/FreeRTOS/Source/tasks.c:2396:10
	ldrb.w	r0, [sp, #15]
	.loc	3 2396 23 is_stmt 0             @ ../Middlewares/Third_Party/FreeRTOS/Source/tasks.c:2396:23
	ldr	r1, [sp, #32]
	.loc	3 2396 38                       @ ../Middlewares/Third_Party/FreeRTOS/Source/tasks.c:2396:38
	ldr	r2, [sp, #16]
	.loc	3 2396 23                       @ ../Middlewares/Third_Party/FreeRTOS/Source/tasks.c:2396:23
	ldrb	r1, [r1, r2]
.Ltmp640:
	.loc	3 2396 10                       @ ../Middlewares/Third_Party/FreeRTOS/Source/tasks.c:2396:10
	cmp	r0, r1
	beq	.LBB30_10
	b	.LBB30_9
.LBB30_9:                               @   in Loop: Header=BB30_7 Depth=2
	.loc	3 0 10                          @ ../Middlewares/Third_Party/FreeRTOS/Source/tasks.c:0:10
	movs	r0, #1
.Ltmp641:
	.loc	3 2399 18 is_stmt 1             @ ../Middlewares/Third_Party/FreeRTOS/Source/tasks.c:2399:18
	str	r0, [sp, #8]
	.loc	3 2400 6                        @ ../Middlewares/Third_Party/FreeRTOS/Source/tasks.c:2400:6
	b	.LBB30_14
.Ltmp642:
.LBB30_10:                              @   in Loop: Header=BB30_7 Depth=2
	.loc	3 2401 15                       @ ../Middlewares/Third_Party/FreeRTOS/Source/tasks.c:2401:15
	ldrb.w	r0, [sp, #15]
.Ltmp643:
	.loc	3 2401 15 is_stmt 0             @ ../Middlewares/Third_Party/FreeRTOS/Source/tasks.c:2401:15
	cbnz	r0, .LBB30_12
	b	.LBB30_11
.LBB30_11:                              @   in Loop: Header=BB30_7 Depth=2
.Ltmp644:
	.loc	3 2405 18 is_stmt 1             @ ../Middlewares/Third_Party/FreeRTOS/Source/tasks.c:2405:18
	ldr	r0, [sp, #28]
	.loc	3 2405 16 is_stmt 0             @ ../Middlewares/Third_Party/FreeRTOS/Source/tasks.c:2405:16
	str	r0, [sp, #20]
	movs	r0, #1
	.loc	3 2406 18 is_stmt 1             @ ../Middlewares/Third_Party/FreeRTOS/Source/tasks.c:2406:18
	str	r0, [sp, #8]
	.loc	3 2407 6                        @ ../Middlewares/Third_Party/FreeRTOS/Source/tasks.c:2407:6
	b	.LBB30_13
.Ltmp645:
.LBB30_12:                              @   in Loop: Header=BB30_7 Depth=2
	.loc	3 0 6 is_stmt 0                 @ ../Middlewares/Third_Party/FreeRTOS/Source/tasks.c:0:6
	b	.LBB30_13
.LBB30_13:                              @   in Loop: Header=BB30_7 Depth=2
	b	.LBB30_14
.LBB30_14:                              @   in Loop: Header=BB30_7 Depth=2
.Ltmp646:
	.loc	3 2413 10 is_stmt 1             @ ../Middlewares/Third_Party/FreeRTOS/Source/tasks.c:2413:10
	ldr	r0, [sp, #8]
.Ltmp647:
	.loc	3 2413 10 is_stmt 0             @ ../Middlewares/Third_Party/FreeRTOS/Source/tasks.c:2413:10
	cbz	r0, .LBB30_16
	b	.LBB30_15
.LBB30_15:                              @   in Loop: Header=BB30_4 Depth=1
.Ltmp648:
	.loc	3 2415 7 is_stmt 1              @ ../Middlewares/Third_Party/FreeRTOS/Source/tasks.c:2415:7
	b	.LBB30_18
.Ltmp649:
.LBB30_16:                              @   in Loop: Header=BB30_7 Depth=2
	.loc	3 2417 5                        @ ../Middlewares/Third_Party/FreeRTOS/Source/tasks.c:2417:5
	b	.LBB30_17
.Ltmp650:
.LBB30_17:                              @   in Loop: Header=BB30_7 Depth=2
	.loc	3 2392 62                       @ ../Middlewares/Third_Party/FreeRTOS/Source/tasks.c:2392:62
	ldr	r0, [sp, #16]
	adds	r0, #1
	str	r0, [sp, #16]
	.loc	3 2392 5 is_stmt 0              @ ../Middlewares/Third_Party/FreeRTOS/Source/tasks.c:2392:5
	b	.LBB30_7
.Ltmp651:
.LBB30_18:                              @   in Loop: Header=BB30_4 Depth=1
	.loc	3 2419 9 is_stmt 1              @ ../Middlewares/Third_Party/FreeRTOS/Source/tasks.c:2419:9
	ldr	r0, [sp, #20]
.Ltmp652:
	.loc	3 2419 9 is_stmt 0              @ ../Middlewares/Third_Party/FreeRTOS/Source/tasks.c:2419:9
	cbz	r0, .LBB30_20
	b	.LBB30_19
.LBB30_19:
.Ltmp653:
	.loc	3 2422 6 is_stmt 1              @ ../Middlewares/Third_Party/FreeRTOS/Source/tasks.c:2422:6
	b	.LBB30_22
.Ltmp654:
.LBB30_20:                              @   in Loop: Header=BB30_4 Depth=1
	.loc	3 2425 4                        @ ../Middlewares/Third_Party/FreeRTOS/Source/tasks.c:2425:4
	b	.LBB30_21
.Ltmp655:
.LBB30_21:                              @   in Loop: Header=BB30_4 Depth=1
	.loc	3 2425 13 is_stmt 0             @ ../Middlewares/Third_Party/FreeRTOS/Source/tasks.c:2425:13
	ldr	r0, [sp, #28]
	.loc	3 2425 26                       @ ../Middlewares/Third_Party/FreeRTOS/Source/tasks.c:2425:26
	ldr	r1, [sp, #24]
.Ltmp656:
	.loc	3 2425 4                        @ ../Middlewares/Third_Party/FreeRTOS/Source/tasks.c:2425:4
	cmp	r0, r1
	bne	.LBB30_4
	b	.LBB30_22
.Ltmp657:
.LBB30_22:
	.loc	3 2426 3 is_stmt 1              @ ../Middlewares/Third_Party/FreeRTOS/Source/tasks.c:2426:3
	b	.LBB30_24
.Ltmp658:
.LBB30_23:
	.loc	3 0 3 is_stmt 0                 @ ../Middlewares/Third_Party/FreeRTOS/Source/tasks.c:0:3
	b	.LBB30_24
.LBB30_24:
	.loc	3 2432 10 is_stmt 1             @ ../Middlewares/Third_Party/FreeRTOS/Source/tasks.c:2432:10
	ldr	r0, [sp, #20]
	.loc	3 2432 3 is_stmt 0              @ ../Middlewares/Third_Party/FreeRTOS/Source/tasks.c:2432:3
	add	sp, #40
	bx	lr
.Ltmp659:
.Lfunc_end30:
	.size	prvSearchForNameWithinSingleList, .Lfunc_end30-prvSearchForNameWithinSingleList
	.cfi_endproc
	.cantunwind
	.fnend
                                        @ -- End function
	.section	.text.xTaskCatchUpTicks,"ax",%progbits
	.hidden	xTaskCatchUpTicks               @ -- Begin function xTaskCatchUpTicks
	.globl	xTaskCatchUpTicks
	.p2align	2
	.type	xTaskCatchUpTicks,%function
	.code	16                              @ @xTaskCatchUpTicks
	.thumb_func
xTaskCatchUpTicks:
.Lfunc_begin31:
	.loc	3 2610 0 is_stmt 1              @ ../Middlewares/Third_Party/FreeRTOS/Source/tasks.c:2610:0
	.fnstart
	.cfi_startproc
@ %bb.0:
	.save	{r7, lr}
	push	{r7, lr}
	.cfi_def_cfa_offset 8
	.cfi_offset lr, -4
	.cfi_offset r7, -8
	.pad	#16
	sub	sp, #16
	.cfi_def_cfa_offset 24
	str	r0, [sp, #8]
	movs	r0, #0
.Ltmp660:
	.loc	3 2611 12 prologue_end          @ ../Middlewares/Third_Party/FreeRTOS/Source/tasks.c:2611:12
	str	r0, [sp, #4]
.Ltmp661:
	.loc	3 2615 7                        @ ../Middlewares/Third_Party/FreeRTOS/Source/tasks.c:2615:7
	movw	r0, :lower16:uxSchedulerSuspended
	movt	r0, :upper16:uxSchedulerSuspended
	ldr	r0, [r0]
.Ltmp662:
	.loc	3 2615 6 is_stmt 0              @ ../Middlewares/Third_Party/FreeRTOS/Source/tasks.c:2615:6
	cbz	r0, .LBB31_3
	b	.LBB31_1
.LBB31_1:
.Ltmp663:
	.loc	2 195 2 is_stmt 1               @ ../Middlewares/Third_Party/FreeRTOS/Source/portable/RVDS/ARM_CM4F\portmacro.h:195:2
	@APP
	mov.w	r0, #80
	msr	basepri, r0
	isb	sy
	dsb	sy

	@NO_APP
	str	r0, [sp, #12]
.Ltmp664:
	.loc	3 2615 62                       @ ../Middlewares/Third_Party/FreeRTOS/Source/tasks.c:2615:62
	b	.LBB31_2
.LBB31_2:                               @ =>This Inner Loop Header: Depth=1
.Ltmp665:
	.loc	3 2615 62 is_stmt 0             @ ../Middlewares/Third_Party/FreeRTOS/Source/tasks.c:2615:62
	b	.LBB31_2
.Ltmp666:
.LBB31_3:
	.loc	3 2619 2 is_stmt 1              @ ../Middlewares/Third_Party/FreeRTOS/Source/tasks.c:2619:2
	bl	vTaskSuspendAll
	.loc	3 2620 18                       @ ../Middlewares/Third_Party/FreeRTOS/Source/tasks.c:2620:18
	ldr	r2, [sp, #8]
	.loc	3 2620 15 is_stmt 0             @ ../Middlewares/Third_Party/FreeRTOS/Source/tasks.c:2620:15
	movw	r1, :lower16:xPendedTicks
	movt	r1, :upper16:xPendedTicks
	ldr	r0, [r1]
	add	r0, r2
	str	r0, [r1]
	.loc	3 2621 19 is_stmt 1             @ ../Middlewares/Third_Party/FreeRTOS/Source/tasks.c:2621:19
	bl	xTaskResumeAll
	.loc	3 2621 17 is_stmt 0             @ ../Middlewares/Third_Party/FreeRTOS/Source/tasks.c:2621:17
	str	r0, [sp, #4]
	.loc	3 2623 9 is_stmt 1              @ ../Middlewares/Third_Party/FreeRTOS/Source/tasks.c:2623:9
	ldr	r0, [sp, #4]
	.loc	3 2623 2 is_stmt 0              @ ../Middlewares/Third_Party/FreeRTOS/Source/tasks.c:2623:2
	add	sp, #16
	pop	{r7, pc}
.Ltmp667:
.Lfunc_end31:
	.size	xTaskCatchUpTicks, .Lfunc_end31-xTaskCatchUpTicks
	.cfi_endproc
	.cantunwind
	.fnend
                                        @ -- End function
	.section	.text.xTaskAbortDelay,"ax",%progbits
	.hidden	xTaskAbortDelay                 @ -- Begin function xTaskAbortDelay
	.globl	xTaskAbortDelay
	.p2align	2
	.type	xTaskAbortDelay,%function
	.code	16                              @ @xTaskAbortDelay
	.thumb_func
xTaskAbortDelay:
.Lfunc_begin32:
	.loc	3 2630 0 is_stmt 1              @ ../Middlewares/Third_Party/FreeRTOS/Source/tasks.c:2630:0
	.fnstart
	.cfi_startproc
@ %bb.0:
	.save	{r7, lr}
	push	{r7, lr}
	.cfi_def_cfa_offset 8
	.cfi_offset lr, -4
	.cfi_offset r7, -8
	.pad	#16
	sub	sp, #16
	.cfi_def_cfa_offset 24
	str	r0, [sp, #8]
.Ltmp668:
	.loc	3 2631 17 prologue_end          @ ../Middlewares/Third_Party/FreeRTOS/Source/tasks.c:2631:17
	ldr	r0, [sp, #8]
	.loc	3 2631 9 is_stmt 0              @ ../Middlewares/Third_Party/FreeRTOS/Source/tasks.c:2631:9
	str	r0, [sp, #4]
.Ltmp669:
	.loc	3 2634 8 is_stmt 1              @ ../Middlewares/Third_Party/FreeRTOS/Source/tasks.c:2634:8
	ldr	r0, [sp, #4]
.Ltmp670:
	.loc	3 2634 7 is_stmt 0              @ ../Middlewares/Third_Party/FreeRTOS/Source/tasks.c:2634:7
	cbnz	r0, .LBB32_3
	b	.LBB32_1
.LBB32_1:
.Ltmp671:
	.loc	2 195 2 is_stmt 1               @ ../Middlewares/Third_Party/FreeRTOS/Source/portable/RVDS/ARM_CM4F\portmacro.h:195:2
	@APP
	mov.w	r0, #80
	msr	basepri, r0
	isb	sy
	dsb	sy

	@NO_APP
	str	r0, [sp, #12]
.Ltmp672:
	.loc	3 2634 43                       @ ../Middlewares/Third_Party/FreeRTOS/Source/tasks.c:2634:43
	b	.LBB32_2
.LBB32_2:                               @ =>This Inner Loop Header: Depth=1
.Ltmp673:
	.loc	3 2634 43 is_stmt 0             @ ../Middlewares/Third_Party/FreeRTOS/Source/tasks.c:2634:43
	b	.LBB32_2
.Ltmp674:
.LBB32_3:
	.loc	3 2636 3 is_stmt 1              @ ../Middlewares/Third_Party/FreeRTOS/Source/tasks.c:2636:3
	bl	vTaskSuspendAll
.Ltmp675:
	.loc	3 2640 23                       @ ../Middlewares/Third_Party/FreeRTOS/Source/tasks.c:2640:23
	ldr	r0, [sp, #8]
	.loc	3 2640 8 is_stmt 0              @ ../Middlewares/Third_Party/FreeRTOS/Source/tasks.c:2640:8
	bl	eTaskGetState
.Ltmp676:
	.loc	3 2640 8                        @ ../Middlewares/Third_Party/FreeRTOS/Source/tasks.c:2640:8
	cmp	r0, #2
	bne	.LBB32_11
	b	.LBB32_4
.LBB32_4:
	.loc	3 0 8                           @ ../Middlewares/Third_Party/FreeRTOS/Source/tasks.c:0:8
	movs	r0, #1
.Ltmp677:
	.loc	3 2642 13 is_stmt 1             @ ../Middlewares/Third_Party/FreeRTOS/Source/tasks.c:2642:13
	str	r0, [sp]
	.loc	3 2647 31                       @ ../Middlewares/Third_Party/FreeRTOS/Source/tasks.c:2647:31
	ldr	r0, [sp, #4]
	.loc	3 2647 38 is_stmt 0             @ ../Middlewares/Third_Party/FreeRTOS/Source/tasks.c:2647:38
	adds	r0, #4
	.loc	3 2647 14                       @ ../Middlewares/Third_Party/FreeRTOS/Source/tasks.c:2647:14
	bl	uxListRemove
	.loc	3 2653 5 is_stmt 1              @ ../Middlewares/Third_Party/FreeRTOS/Source/tasks.c:2653:5
	bl	vPortEnterCritical
.Ltmp678:
	.loc	3 2655 17                       @ ../Middlewares/Third_Party/FreeRTOS/Source/tasks.c:2655:17
	ldr	r0, [sp, #4]
	.loc	3 2655 44 is_stmt 0             @ ../Middlewares/Third_Party/FreeRTOS/Source/tasks.c:2655:44
	ldr	r0, [r0, #40]
.Ltmp679:
	.loc	3 2655 10                       @ ../Middlewares/Third_Party/FreeRTOS/Source/tasks.c:2655:10
	cbz	r0, .LBB32_6
	b	.LBB32_5
.LBB32_5:
.Ltmp680:
	.loc	3 2657 33 is_stmt 1             @ ../Middlewares/Third_Party/FreeRTOS/Source/tasks.c:2657:33
	ldr	r0, [sp, #4]
	.loc	3 2657 40 is_stmt 0             @ ../Middlewares/Third_Party/FreeRTOS/Source/tasks.c:2657:40
	adds	r0, #24
	.loc	3 2657 16                       @ ../Middlewares/Third_Party/FreeRTOS/Source/tasks.c:2657:16
	bl	uxListRemove
	.loc	3 2662 7 is_stmt 1              @ ../Middlewares/Third_Party/FreeRTOS/Source/tasks.c:2662:7
	ldr	r1, [sp, #4]
	movs	r0, #1
	.loc	3 2662 29 is_stmt 0             @ ../Middlewares/Third_Party/FreeRTOS/Source/tasks.c:2662:29
	strb.w	r0, [r1, #82]
	.loc	3 2663 6 is_stmt 1              @ ../Middlewares/Third_Party/FreeRTOS/Source/tasks.c:2663:6
	b	.LBB32_7
.Ltmp681:
.LBB32_6:
	.loc	3 0 6 is_stmt 0                 @ ../Middlewares/Third_Party/FreeRTOS/Source/tasks.c:0:6
	b	.LBB32_7
.LBB32_7:
	.loc	3 2669 5 is_stmt 1              @ ../Middlewares/Third_Party/FreeRTOS/Source/tasks.c:2669:5
	bl	vPortExitCritical
	.loc	3 2672 46                       @ ../Middlewares/Third_Party/FreeRTOS/Source/tasks.c:2672:46
	ldr	r0, [sp, #4]
	.loc	3 2672 55 is_stmt 0             @ ../Middlewares/Third_Party/FreeRTOS/Source/tasks.c:2672:55
	ldr	r1, [r0, #44]
	movs	r0, #1
	.loc	3 2672 39                       @ ../Middlewares/Third_Party/FreeRTOS/Source/tasks.c:2672:39
	lsl.w	r2, r0, r1
	.loc	3 2672 30                       @ ../Middlewares/Third_Party/FreeRTOS/Source/tasks.c:2672:30
	movw	r1, :lower16:uxTopReadyPriority
	movt	r1, :upper16:uxTopReadyPriority
	ldr	r0, [r1]
	orrs	r0, r2
	str	r0, [r1]
	.loc	3 2672 111                      @ ../Middlewares/Third_Party/FreeRTOS/Source/tasks.c:2672:111
	ldr	r1, [sp, #4]
	.loc	3 2672 120                      @ ../Middlewares/Third_Party/FreeRTOS/Source/tasks.c:2672:120
	ldr	r0, [r1, #44]
	.loc	3 2672 90                       @ ../Middlewares/Third_Party/FreeRTOS/Source/tasks.c:2672:90
	add.w	r2, r0, r0, lsl #2
	movw	r0, :lower16:pxReadyTasksLists
	movt	r0, :upper16:pxReadyTasksLists
	add.w	r0, r0, r2, lsl #2
	.loc	3 2672 150                      @ ../Middlewares/Third_Party/FreeRTOS/Source/tasks.c:2672:150
	adds	r1, #4
	.loc	3 2672 71                       @ ../Middlewares/Third_Party/FreeRTOS/Source/tasks.c:2672:71
	bl	vListInsertEnd
.Ltmp682:
	.loc	3 2681 10 is_stmt 1             @ ../Middlewares/Third_Party/FreeRTOS/Source/tasks.c:2681:10
	ldr	r0, [sp, #4]
	.loc	3 2681 17 is_stmt 0             @ ../Middlewares/Third_Party/FreeRTOS/Source/tasks.c:2681:17
	ldr	r0, [r0, #44]
	.loc	3 2681 30                       @ ../Middlewares/Third_Party/FreeRTOS/Source/tasks.c:2681:30
	movw	r1, :lower16:pxCurrentTCB
	movt	r1, :upper16:pxCurrentTCB
	ldr	r1, [r1]
	.loc	3 2681 44                       @ ../Middlewares/Third_Party/FreeRTOS/Source/tasks.c:2681:44
	ldr	r1, [r1, #44]
.Ltmp683:
	.loc	3 2681 10                       @ ../Middlewares/Third_Party/FreeRTOS/Source/tasks.c:2681:10
	cmp	r0, r1
	bls	.LBB32_9
	b	.LBB32_8
.LBB32_8:
.Ltmp684:
	.loc	3 2685 21 is_stmt 1             @ ../Middlewares/Third_Party/FreeRTOS/Source/tasks.c:2685:21
	movw	r1, :lower16:xYieldPending
	movt	r1, :upper16:xYieldPending
	movs	r0, #1
	str	r0, [r1]
	.loc	3 2686 6                        @ ../Middlewares/Third_Party/FreeRTOS/Source/tasks.c:2686:6
	b	.LBB32_10
.Ltmp685:
.LBB32_9:
	.loc	3 0 6 is_stmt 0                 @ ../Middlewares/Third_Party/FreeRTOS/Source/tasks.c:0:6
	b	.LBB32_10
.LBB32_10:
	.loc	3 2693 4 is_stmt 1              @ ../Middlewares/Third_Party/FreeRTOS/Source/tasks.c:2693:4
	b	.LBB32_12
.Ltmp686:
.LBB32_11:
	.loc	3 0 4 is_stmt 0                 @ ../Middlewares/Third_Party/FreeRTOS/Source/tasks.c:0:4
	movs	r0, #0
.Ltmp687:
	.loc	3 2696 13 is_stmt 1             @ ../Middlewares/Third_Party/FreeRTOS/Source/tasks.c:2696:13
	str	r0, [sp]
	b	.LBB32_12
.Ltmp688:
.LBB32_12:
	.loc	3 2699 12                       @ ../Middlewares/Third_Party/FreeRTOS/Source/tasks.c:2699:12
	bl	xTaskResumeAll
	.loc	3 2701 10                       @ ../Middlewares/Third_Party/FreeRTOS/Source/tasks.c:2701:10
	ldr	r0, [sp]
	.loc	3 2701 3 is_stmt 0              @ ../Middlewares/Third_Party/FreeRTOS/Source/tasks.c:2701:3
	add	sp, #16
	pop	{r7, pc}
.Ltmp689:
.Lfunc_end32:
	.size	xTaskAbortDelay, .Lfunc_end32-xTaskAbortDelay
	.cfi_endproc
	.cantunwind
	.fnend
                                        @ -- End function
	.section	.text.vTaskPlaceOnEventList,"ax",%progbits
	.hidden	vTaskPlaceOnEventList           @ -- Begin function vTaskPlaceOnEventList
	.globl	vTaskPlaceOnEventList
	.p2align	2
	.type	vTaskPlaceOnEventList,%function
	.code	16                              @ @vTaskPlaceOnEventList
	.thumb_func
vTaskPlaceOnEventList:
.Lfunc_begin33:
	.loc	3 3065 0 is_stmt 1              @ ../Middlewares/Third_Party/FreeRTOS/Source/tasks.c:3065:0
	.fnstart
	.cfi_startproc
@ %bb.0:
	.save	{r7, lr}
	push	{r7, lr}
	.cfi_def_cfa_offset 8
	.cfi_offset lr, -4
	.cfi_offset r7, -8
	.pad	#16
	sub	sp, #16
	.cfi_def_cfa_offset 24
	str	r0, [sp, #8]
	str	r1, [sp, #4]
.Ltmp690:
	.loc	3 3066 7 prologue_end           @ ../Middlewares/Third_Party/FreeRTOS/Source/tasks.c:3066:7
	ldr	r0, [sp, #8]
.Ltmp691:
	.loc	3 3066 6 is_stmt 0              @ ../Middlewares/Third_Party/FreeRTOS/Source/tasks.c:3066:6
	cbnz	r0, .LBB33_3
	b	.LBB33_1
.LBB33_1:
.Ltmp692:
	.loc	2 195 2 is_stmt 1               @ ../Middlewares/Third_Party/FreeRTOS/Source/portable/RVDS/ARM_CM4F\portmacro.h:195:2
	@APP
	mov.w	r0, #80
	msr	basepri, r0
	isb	sy
	dsb	sy

	@NO_APP
	str	r0, [sp, #12]
.Ltmp693:
	.loc	3 3066 48                       @ ../Middlewares/Third_Party/FreeRTOS/Source/tasks.c:3066:48
	b	.LBB33_2
.LBB33_2:                               @ =>This Inner Loop Header: Depth=1
.Ltmp694:
	.loc	3 3066 48 is_stmt 0             @ ../Middlewares/Third_Party/FreeRTOS/Source/tasks.c:3066:48
	b	.LBB33_2
.Ltmp695:
.LBB33_3:
	.loc	3 3075 15 is_stmt 1             @ ../Middlewares/Third_Party/FreeRTOS/Source/tasks.c:3075:15
	ldr	r0, [sp, #8]
	.loc	3 3075 31 is_stmt 0             @ ../Middlewares/Third_Party/FreeRTOS/Source/tasks.c:3075:31
	movw	r1, :lower16:pxCurrentTCB
	movt	r1, :upper16:pxCurrentTCB
	ldr	r1, [r1]
	.loc	3 3075 45                       @ ../Middlewares/Third_Party/FreeRTOS/Source/tasks.c:3075:45
	adds	r1, #24
	.loc	3 3075 2                        @ ../Middlewares/Third_Party/FreeRTOS/Source/tasks.c:3075:2
	bl	vListInsert
	.loc	3 3077 34 is_stmt 1             @ ../Middlewares/Third_Party/FreeRTOS/Source/tasks.c:3077:34
	ldr	r0, [sp, #4]
	movs	r1, #1
	.loc	3 3077 2 is_stmt 0              @ ../Middlewares/Third_Party/FreeRTOS/Source/tasks.c:3077:2
	bl	prvAddCurrentTaskToDelayedList
	.loc	3 3078 1 is_stmt 1              @ ../Middlewares/Third_Party/FreeRTOS/Source/tasks.c:3078:1
	add	sp, #16
	pop	{r7, pc}
.Ltmp696:
.Lfunc_end33:
	.size	vTaskPlaceOnEventList, .Lfunc_end33-vTaskPlaceOnEventList
	.cfi_endproc
	.cantunwind
	.fnend
                                        @ -- End function
	.section	.text.vTaskPlaceOnUnorderedEventList,"ax",%progbits
	.hidden	vTaskPlaceOnUnorderedEventList  @ -- Begin function vTaskPlaceOnUnorderedEventList
	.globl	vTaskPlaceOnUnorderedEventList
	.p2align	2
	.type	vTaskPlaceOnUnorderedEventList,%function
	.code	16                              @ @vTaskPlaceOnUnorderedEventList
	.thumb_func
vTaskPlaceOnUnorderedEventList:
.Lfunc_begin34:
	.loc	3 3082 0                        @ ../Middlewares/Third_Party/FreeRTOS/Source/tasks.c:3082:0
	.fnstart
	.cfi_startproc
@ %bb.0:
	.save	{r7, lr}
	push	{r7, lr}
	.cfi_def_cfa_offset 8
	.cfi_offset lr, -4
	.cfi_offset r7, -8
	.pad	#24
	sub	sp, #24
	.cfi_def_cfa_offset 32
	str	r0, [sp, #12]
	str	r1, [sp, #8]
	str	r2, [sp, #4]
.Ltmp697:
	.loc	3 3083 7 prologue_end           @ ../Middlewares/Third_Party/FreeRTOS/Source/tasks.c:3083:7
	ldr	r0, [sp, #12]
.Ltmp698:
	.loc	3 3083 6 is_stmt 0              @ ../Middlewares/Third_Party/FreeRTOS/Source/tasks.c:3083:6
	cbnz	r0, .LBB34_3
	b	.LBB34_1
.LBB34_1:
.Ltmp699:
	.loc	2 195 2 is_stmt 1               @ ../Middlewares/Third_Party/FreeRTOS/Source/portable/RVDS/ARM_CM4F\portmacro.h:195:2
	@APP
	mov.w	r0, #80
	msr	basepri, r0
	isb	sy
	dsb	sy

	@NO_APP
	str	r0, [sp, #20]
.Ltmp700:
	.loc	3 3083 48                       @ ../Middlewares/Third_Party/FreeRTOS/Source/tasks.c:3083:48
	b	.LBB34_2
.LBB34_2:                               @ =>This Inner Loop Header: Depth=1
.Ltmp701:
	.loc	3 3083 48 is_stmt 0             @ ../Middlewares/Third_Party/FreeRTOS/Source/tasks.c:3083:48
	b	.LBB34_2
.Ltmp702:
.LBB34_3:
	.loc	3 3087 7 is_stmt 1              @ ../Middlewares/Third_Party/FreeRTOS/Source/tasks.c:3087:7
	movw	r0, :lower16:uxSchedulerSuspended
	movt	r0, :upper16:uxSchedulerSuspended
	ldr	r0, [r0]
.Ltmp703:
	.loc	3 3087 6 is_stmt 0              @ ../Middlewares/Third_Party/FreeRTOS/Source/tasks.c:3087:6
	cbnz	r0, .LBB34_6
	b	.LBB34_4
.LBB34_4:
.Ltmp704:
	.loc	2 195 2 is_stmt 1               @ ../Middlewares/Third_Party/FreeRTOS/Source/portable/RVDS/ARM_CM4F\portmacro.h:195:2
	@APP
	mov.w	r0, #80
	msr	basepri, r0
	isb	sy
	dsb	sy

	@NO_APP
	str	r0, [sp, #16]
.Ltmp705:
	.loc	3 3087 62                       @ ../Middlewares/Third_Party/FreeRTOS/Source/tasks.c:3087:62
	b	.LBB34_5
.LBB34_5:                               @ =>This Inner Loop Header: Depth=1
.Ltmp706:
	.loc	3 3087 62 is_stmt 0             @ ../Middlewares/Third_Party/FreeRTOS/Source/tasks.c:3087:62
	b	.LBB34_5
.Ltmp707:
.LBB34_6:
	.loc	3 3092 58 is_stmt 1             @ ../Middlewares/Third_Party/FreeRTOS/Source/tasks.c:3092:58
	ldr	r0, [sp, #8]
	.loc	3 3092 69 is_stmt 0             @ ../Middlewares/Third_Party/FreeRTOS/Source/tasks.c:3092:69
	orr	r0, r0, #-2147483648
	.loc	3 3092 9                        @ ../Middlewares/Third_Party/FreeRTOS/Source/tasks.c:3092:9
	movw	r1, :lower16:pxCurrentTCB
	movt	r1, :upper16:pxCurrentTCB
	ldr	r2, [r1]
	.loc	3 3092 54                       @ ../Middlewares/Third_Party/FreeRTOS/Source/tasks.c:3092:54
	str	r0, [r2, #24]
	.loc	3 3099 18 is_stmt 1             @ ../Middlewares/Third_Party/FreeRTOS/Source/tasks.c:3099:18
	ldr	r0, [sp, #12]
	.loc	3 3099 34 is_stmt 0             @ ../Middlewares/Third_Party/FreeRTOS/Source/tasks.c:3099:34
	ldr	r1, [r1]
	.loc	3 3099 48                       @ ../Middlewares/Third_Party/FreeRTOS/Source/tasks.c:3099:48
	adds	r1, #24
	.loc	3 3099 2                        @ ../Middlewares/Third_Party/FreeRTOS/Source/tasks.c:3099:2
	bl	vListInsertEnd
	.loc	3 3101 34 is_stmt 1             @ ../Middlewares/Third_Party/FreeRTOS/Source/tasks.c:3101:34
	ldr	r0, [sp, #4]
	movs	r1, #1
	.loc	3 3101 2 is_stmt 0              @ ../Middlewares/Third_Party/FreeRTOS/Source/tasks.c:3101:2
	bl	prvAddCurrentTaskToDelayedList
	.loc	3 3102 1 is_stmt 1              @ ../Middlewares/Third_Party/FreeRTOS/Source/tasks.c:3102:1
	add	sp, #24
	pop	{r7, pc}
.Ltmp708:
.Lfunc_end34:
	.size	vTaskPlaceOnUnorderedEventList, .Lfunc_end34-vTaskPlaceOnUnorderedEventList
	.cfi_endproc
	.cantunwind
	.fnend
                                        @ -- End function
	.section	.text.vTaskPlaceOnEventListRestricted,"ax",%progbits
	.hidden	vTaskPlaceOnEventListRestricted @ -- Begin function vTaskPlaceOnEventListRestricted
	.globl	vTaskPlaceOnEventListRestricted
	.p2align	2
	.type	vTaskPlaceOnEventListRestricted,%function
	.code	16                              @ @vTaskPlaceOnEventListRestricted
	.thumb_func
vTaskPlaceOnEventListRestricted:
.Lfunc_begin35:
	.loc	3 3108 0                        @ ../Middlewares/Third_Party/FreeRTOS/Source/tasks.c:3108:0
	.fnstart
	.cfi_startproc
@ %bb.0:
	.save	{r7, lr}
	push	{r7, lr}
	.cfi_def_cfa_offset 8
	.cfi_offset lr, -4
	.cfi_offset r7, -8
	.pad	#16
	sub	sp, #16
	.cfi_def_cfa_offset 24
	str	r0, [sp, #8]
	str	r1, [sp, #4]
	str	r2, [sp]
.Ltmp709:
	.loc	3 3109 8 prologue_end           @ ../Middlewares/Third_Party/FreeRTOS/Source/tasks.c:3109:8
	ldr	r0, [sp, #8]
.Ltmp710:
	.loc	3 3109 7 is_stmt 0              @ ../Middlewares/Third_Party/FreeRTOS/Source/tasks.c:3109:7
	cbnz	r0, .LBB35_3
	b	.LBB35_1
.LBB35_1:
.Ltmp711:
	.loc	2 195 2 is_stmt 1               @ ../Middlewares/Third_Party/FreeRTOS/Source/portable/RVDS/ARM_CM4F\portmacro.h:195:2
	@APP
	mov.w	r0, #80
	msr	basepri, r0
	isb	sy
	dsb	sy

	@NO_APP
	str	r0, [sp, #12]
.Ltmp712:
	.loc	3 3109 49                       @ ../Middlewares/Third_Party/FreeRTOS/Source/tasks.c:3109:49
	b	.LBB35_2
.LBB35_2:                               @ =>This Inner Loop Header: Depth=1
.Ltmp713:
	.loc	3 3109 49 is_stmt 0             @ ../Middlewares/Third_Party/FreeRTOS/Source/tasks.c:3109:49
	b	.LBB35_2
.Ltmp714:
.LBB35_3:
	.loc	3 3121 19 is_stmt 1             @ ../Middlewares/Third_Party/FreeRTOS/Source/tasks.c:3121:19
	ldr	r0, [sp, #8]
	.loc	3 3121 35 is_stmt 0             @ ../Middlewares/Third_Party/FreeRTOS/Source/tasks.c:3121:35
	movw	r1, :lower16:pxCurrentTCB
	movt	r1, :upper16:pxCurrentTCB
	ldr	r1, [r1]
	.loc	3 3121 49                       @ ../Middlewares/Third_Party/FreeRTOS/Source/tasks.c:3121:49
	adds	r1, #24
	.loc	3 3121 3                        @ ../Middlewares/Third_Party/FreeRTOS/Source/tasks.c:3121:3
	bl	vListInsertEnd
.Ltmp715:
	.loc	3 3126 7 is_stmt 1              @ ../Middlewares/Third_Party/FreeRTOS/Source/tasks.c:3126:7
	ldr	r0, [sp]
.Ltmp716:
	.loc	3 3126 7 is_stmt 0              @ ../Middlewares/Third_Party/FreeRTOS/Source/tasks.c:3126:7
	cbz	r0, .LBB35_5
	b	.LBB35_4
.LBB35_4:
	.loc	3 0 7                           @ ../Middlewares/Third_Party/FreeRTOS/Source/tasks.c:0:7
	mov.w	r0, #-1
.Ltmp717:
	.loc	3 3128 17 is_stmt 1             @ ../Middlewares/Third_Party/FreeRTOS/Source/tasks.c:3128:17
	str	r0, [sp, #4]
	.loc	3 3129 3                        @ ../Middlewares/Third_Party/FreeRTOS/Source/tasks.c:3129:3
	b	.LBB35_5
.Ltmp718:
.LBB35_5:
	.loc	3 3132 35                       @ ../Middlewares/Third_Party/FreeRTOS/Source/tasks.c:3132:35
	ldr	r0, [sp, #4]
	.loc	3 3132 49 is_stmt 0             @ ../Middlewares/Third_Party/FreeRTOS/Source/tasks.c:3132:49
	ldr	r1, [sp]
	.loc	3 3132 3                        @ ../Middlewares/Third_Party/FreeRTOS/Source/tasks.c:3132:3
	bl	prvAddCurrentTaskToDelayedList
	.loc	3 3133 2 is_stmt 1              @ ../Middlewares/Third_Party/FreeRTOS/Source/tasks.c:3133:2
	add	sp, #16
	pop	{r7, pc}
.Ltmp719:
.Lfunc_end35:
	.size	vTaskPlaceOnEventListRestricted, .Lfunc_end35-vTaskPlaceOnEventListRestricted
	.cfi_endproc
	.cantunwind
	.fnend
                                        @ -- End function
	.section	.text.xTaskRemoveFromEventList,"ax",%progbits
	.hidden	xTaskRemoveFromEventList        @ -- Begin function xTaskRemoveFromEventList
	.globl	xTaskRemoveFromEventList
	.p2align	2
	.type	xTaskRemoveFromEventList,%function
	.code	16                              @ @xTaskRemoveFromEventList
	.thumb_func
xTaskRemoveFromEventList:
.Lfunc_begin36:
	.loc	3 3139 0                        @ ../Middlewares/Third_Party/FreeRTOS/Source/tasks.c:3139:0
	.fnstart
	.cfi_startproc
@ %bb.0:
	.save	{r7, lr}
	push	{r7, lr}
	.cfi_def_cfa_offset 8
	.cfi_offset lr, -4
	.cfi_offset r7, -8
	.pad	#16
	sub	sp, #16
	.cfi_def_cfa_offset 24
	str	r0, [sp, #8]
.Ltmp720:
	.loc	3 3156 27 prologue_end          @ ../Middlewares/Third_Party/FreeRTOS/Source/tasks.c:3156:27
	ldr	r0, [sp, #8]
	.loc	3 3156 55 is_stmt 0             @ ../Middlewares/Third_Party/FreeRTOS/Source/tasks.c:3156:55
	ldr	r0, [r0, #12]
	.loc	3 3156 63                       @ ../Middlewares/Third_Party/FreeRTOS/Source/tasks.c:3156:63
	ldr	r0, [r0, #12]
	.loc	3 3156 17                       @ ../Middlewares/Third_Party/FreeRTOS/Source/tasks.c:3156:17
	str	r0, [sp, #4]
.Ltmp721:
	.loc	3 3157 7 is_stmt 1              @ ../Middlewares/Third_Party/FreeRTOS/Source/tasks.c:3157:7
	ldr	r0, [sp, #4]
.Ltmp722:
	.loc	3 3157 6 is_stmt 0              @ ../Middlewares/Third_Party/FreeRTOS/Source/tasks.c:3157:6
	cbnz	r0, .LBB36_3
	b	.LBB36_1
.LBB36_1:
.Ltmp723:
	.loc	2 195 2 is_stmt 1               @ ../Middlewares/Third_Party/FreeRTOS/Source/portable/RVDS/ARM_CM4F\portmacro.h:195:2
	@APP
	mov.w	r0, #80
	msr	basepri, r0
	isb	sy
	dsb	sy

	@NO_APP
	str	r0, [sp, #12]
.Ltmp724:
	.loc	3 3157 51                       @ ../Middlewares/Third_Party/FreeRTOS/Source/tasks.c:3157:51
	b	.LBB36_2
.LBB36_2:                               @ =>This Inner Loop Header: Depth=1
.Ltmp725:
	.loc	3 3157 51 is_stmt 0             @ ../Middlewares/Third_Party/FreeRTOS/Source/tasks.c:3157:51
	b	.LBB36_2
.Ltmp726:
.LBB36_3:
	.loc	3 3158 28 is_stmt 1             @ ../Middlewares/Third_Party/FreeRTOS/Source/tasks.c:3158:28
	ldr	r0, [sp, #4]
	.loc	3 3158 44 is_stmt 0             @ ../Middlewares/Third_Party/FreeRTOS/Source/tasks.c:3158:44
	adds	r0, #24
	.loc	3 3158 11                       @ ../Middlewares/Third_Party/FreeRTOS/Source/tasks.c:3158:11
	bl	uxListRemove
.Ltmp727:
	.loc	3 3160 6 is_stmt 1              @ ../Middlewares/Third_Party/FreeRTOS/Source/tasks.c:3160:6
	movw	r0, :lower16:uxSchedulerSuspended
	movt	r0, :upper16:uxSchedulerSuspended
	ldr	r0, [r0]
.Ltmp728:
	.loc	3 3160 6 is_stmt 0              @ ../Middlewares/Third_Party/FreeRTOS/Source/tasks.c:3160:6
	cbnz	r0, .LBB36_5
	b	.LBB36_4
.LBB36_4:
.Ltmp729:
	.loc	3 3162 29 is_stmt 1             @ ../Middlewares/Third_Party/FreeRTOS/Source/tasks.c:3162:29
	ldr	r0, [sp, #4]
	.loc	3 3162 45 is_stmt 0             @ ../Middlewares/Third_Party/FreeRTOS/Source/tasks.c:3162:45
	adds	r0, #4
	.loc	3 3162 12                       @ ../Middlewares/Third_Party/FreeRTOS/Source/tasks.c:3162:12
	bl	uxListRemove
	.loc	3 3163 44 is_stmt 1             @ ../Middlewares/Third_Party/FreeRTOS/Source/tasks.c:3163:44
	ldr	r0, [sp, #4]
	.loc	3 3163 62 is_stmt 0             @ ../Middlewares/Third_Party/FreeRTOS/Source/tasks.c:3163:62
	ldr	r1, [r0, #44]
	movs	r0, #1
	.loc	3 3163 37                       @ ../Middlewares/Third_Party/FreeRTOS/Source/tasks.c:3163:37
	lsl.w	r2, r0, r1
	.loc	3 3163 28                       @ ../Middlewares/Third_Party/FreeRTOS/Source/tasks.c:3163:28
	movw	r1, :lower16:uxTopReadyPriority
	movt	r1, :upper16:uxTopReadyPriority
	ldr	r0, [r1]
	orrs	r0, r2
	str	r0, [r1]
	.loc	3 3163 118                      @ ../Middlewares/Third_Party/FreeRTOS/Source/tasks.c:3163:118
	ldr	r1, [sp, #4]
	.loc	3 3163 136                      @ ../Middlewares/Third_Party/FreeRTOS/Source/tasks.c:3163:136
	ldr	r0, [r1, #44]
	.loc	3 3163 97                       @ ../Middlewares/Third_Party/FreeRTOS/Source/tasks.c:3163:97
	add.w	r2, r0, r0, lsl #2
	movw	r0, :lower16:pxReadyTasksLists
	movt	r0, :upper16:pxReadyTasksLists
	add.w	r0, r0, r2, lsl #2
	.loc	3 3163 175                      @ ../Middlewares/Third_Party/FreeRTOS/Source/tasks.c:3163:175
	adds	r1, #4
	.loc	3 3163 78                       @ ../Middlewares/Third_Party/FreeRTOS/Source/tasks.c:3163:78
	bl	vListInsertEnd
	.loc	3 3178 2 is_stmt 1              @ ../Middlewares/Third_Party/FreeRTOS/Source/tasks.c:3178:2
	b	.LBB36_6
.Ltmp730:
.LBB36_5:
	.loc	3 3183 46                       @ ../Middlewares/Third_Party/FreeRTOS/Source/tasks.c:3183:46
	ldr	r0, [sp, #4]
	.loc	3 3183 62 is_stmt 0             @ ../Middlewares/Third_Party/FreeRTOS/Source/tasks.c:3183:62
	add.w	r1, r0, #24
	.loc	3 3183 3                        @ ../Middlewares/Third_Party/FreeRTOS/Source/tasks.c:3183:3
	movw	r0, :lower16:xPendingReadyList
	movt	r0, :upper16:xPendingReadyList
	bl	vListInsertEnd
	b	.LBB36_6
.Ltmp731:
.LBB36_6:
	.loc	3 3186 6 is_stmt 1              @ ../Middlewares/Third_Party/FreeRTOS/Source/tasks.c:3186:6
	ldr	r0, [sp, #4]
	.loc	3 3186 22 is_stmt 0             @ ../Middlewares/Third_Party/FreeRTOS/Source/tasks.c:3186:22
	ldr	r0, [r0, #44]
	.loc	3 3186 35                       @ ../Middlewares/Third_Party/FreeRTOS/Source/tasks.c:3186:35
	movw	r1, :lower16:pxCurrentTCB
	movt	r1, :upper16:pxCurrentTCB
	ldr	r1, [r1]
	.loc	3 3186 49                       @ ../Middlewares/Third_Party/FreeRTOS/Source/tasks.c:3186:49
	ldr	r1, [r1, #44]
.Ltmp732:
	.loc	3 3186 6                        @ ../Middlewares/Third_Party/FreeRTOS/Source/tasks.c:3186:6
	cmp	r0, r1
	bls	.LBB36_8
	b	.LBB36_7
.LBB36_7:
	.loc	3 0 6                           @ ../Middlewares/Third_Party/FreeRTOS/Source/tasks.c:0:6
	movs	r0, #1
.Ltmp733:
	.loc	3 3191 11 is_stmt 1             @ ../Middlewares/Third_Party/FreeRTOS/Source/tasks.c:3191:11
	str	r0, [sp]
	.loc	3 3195 17                       @ ../Middlewares/Third_Party/FreeRTOS/Source/tasks.c:3195:17
	movw	r1, :lower16:xYieldPending
	movt	r1, :upper16:xYieldPending
	str	r0, [r1]
	.loc	3 3196 2                        @ ../Middlewares/Third_Party/FreeRTOS/Source/tasks.c:3196:2
	b	.LBB36_9
.Ltmp734:
.LBB36_8:
	.loc	3 0 2 is_stmt 0                 @ ../Middlewares/Third_Party/FreeRTOS/Source/tasks.c:0:2
	movs	r0, #0
.Ltmp735:
	.loc	3 3199 11 is_stmt 1             @ ../Middlewares/Third_Party/FreeRTOS/Source/tasks.c:3199:11
	str	r0, [sp]
	b	.LBB36_9
.Ltmp736:
.LBB36_9:
	.loc	3 3202 9                        @ ../Middlewares/Third_Party/FreeRTOS/Source/tasks.c:3202:9
	ldr	r0, [sp]
	.loc	3 3202 2 is_stmt 0              @ ../Middlewares/Third_Party/FreeRTOS/Source/tasks.c:3202:2
	add	sp, #16
	pop	{r7, pc}
.Ltmp737:
.Lfunc_end36:
	.size	xTaskRemoveFromEventList, .Lfunc_end36-xTaskRemoveFromEventList
	.cfi_endproc
	.cantunwind
	.fnend
                                        @ -- End function
	.section	.text.vTaskRemoveFromUnorderedEventList,"ax",%progbits
	.hidden	vTaskRemoveFromUnorderedEventList @ -- Begin function vTaskRemoveFromUnorderedEventList
	.globl	vTaskRemoveFromUnorderedEventList
	.p2align	2
	.type	vTaskRemoveFromUnorderedEventList,%function
	.code	16                              @ @vTaskRemoveFromUnorderedEventList
	.thumb_func
vTaskRemoveFromUnorderedEventList:
.Lfunc_begin37:
	.loc	3 3207 0 is_stmt 1              @ ../Middlewares/Third_Party/FreeRTOS/Source/tasks.c:3207:0
	.fnstart
	.cfi_startproc
@ %bb.0:
	.save	{r7, lr}
	push	{r7, lr}
	.cfi_def_cfa_offset 8
	.cfi_offset lr, -4
	.cfi_offset r7, -8
	.pad	#24
	sub	sp, #24
	.cfi_def_cfa_offset 32
	str	r0, [sp, #12]
	str	r1, [sp, #8]
.Ltmp738:
	.loc	3 3212 7 prologue_end           @ ../Middlewares/Third_Party/FreeRTOS/Source/tasks.c:3212:7
	movw	r0, :lower16:uxSchedulerSuspended
	movt	r0, :upper16:uxSchedulerSuspended
	ldr	r0, [r0]
.Ltmp739:
	.loc	3 3212 6 is_stmt 0              @ ../Middlewares/Third_Party/FreeRTOS/Source/tasks.c:3212:6
	cbnz	r0, .LBB37_3
	b	.LBB37_1
.LBB37_1:
.Ltmp740:
	.loc	2 195 2 is_stmt 1               @ ../Middlewares/Third_Party/FreeRTOS/Source/portable/RVDS/ARM_CM4F\portmacro.h:195:2
	@APP
	mov.w	r0, #80
	msr	basepri, r0
	isb	sy
	dsb	sy

	@NO_APP
	str	r0, [sp, #20]
.Ltmp741:
	.loc	3 3212 81                       @ ../Middlewares/Third_Party/FreeRTOS/Source/tasks.c:3212:81
	b	.LBB37_2
.LBB37_2:                               @ =>This Inner Loop Header: Depth=1
.Ltmp742:
	.loc	3 3212 81 is_stmt 0             @ ../Middlewares/Third_Party/FreeRTOS/Source/tasks.c:3212:81
	b	.LBB37_2
.Ltmp743:
.LBB37_3:
	.loc	3 3215 40 is_stmt 1             @ ../Middlewares/Third_Party/FreeRTOS/Source/tasks.c:3215:40
	ldr	r0, [sp, #8]
	.loc	3 3215 51 is_stmt 0             @ ../Middlewares/Third_Party/FreeRTOS/Source/tasks.c:3215:51
	orr	r0, r0, #-2147483648
	.loc	3 3215 6                        @ ../Middlewares/Third_Party/FreeRTOS/Source/tasks.c:3215:6
	ldr	r1, [sp, #12]
	.loc	3 3215 36                       @ ../Middlewares/Third_Party/FreeRTOS/Source/tasks.c:3215:36
	str	r0, [r1]
	.loc	3 3219 23 is_stmt 1             @ ../Middlewares/Third_Party/FreeRTOS/Source/tasks.c:3219:23
	ldr	r0, [sp, #12]
	.loc	3 3219 42 is_stmt 0             @ ../Middlewares/Third_Party/FreeRTOS/Source/tasks.c:3219:42
	ldr	r0, [r0, #12]
	.loc	3 3219 17                       @ ../Middlewares/Third_Party/FreeRTOS/Source/tasks.c:3219:17
	str	r0, [sp, #4]
.Ltmp744:
	.loc	3 3220 7 is_stmt 1              @ ../Middlewares/Third_Party/FreeRTOS/Source/tasks.c:3220:7
	ldr	r0, [sp, #4]
.Ltmp745:
	.loc	3 3220 6 is_stmt 0              @ ../Middlewares/Third_Party/FreeRTOS/Source/tasks.c:3220:6
	cbnz	r0, .LBB37_6
	b	.LBB37_4
.LBB37_4:
.Ltmp746:
	.loc	2 195 2 is_stmt 1               @ ../Middlewares/Third_Party/FreeRTOS/Source/portable/RVDS/ARM_CM4F\portmacro.h:195:2
	@APP
	mov.w	r0, #80
	msr	basepri, r0
	isb	sy
	dsb	sy

	@NO_APP
	str	r0, [sp, #16]
.Ltmp747:
	.loc	3 3220 51                       @ ../Middlewares/Third_Party/FreeRTOS/Source/tasks.c:3220:51
	b	.LBB37_5
.LBB37_5:                               @ =>This Inner Loop Header: Depth=1
.Ltmp748:
	.loc	3 3220 51 is_stmt 0             @ ../Middlewares/Third_Party/FreeRTOS/Source/tasks.c:3220:51
	b	.LBB37_5
.Ltmp749:
.LBB37_6:
	.loc	3 3221 25 is_stmt 1             @ ../Middlewares/Third_Party/FreeRTOS/Source/tasks.c:3221:25
	ldr	r0, [sp, #12]
	.loc	3 3221 11 is_stmt 0             @ ../Middlewares/Third_Party/FreeRTOS/Source/tasks.c:3221:11
	bl	uxListRemove
	.loc	3 3240 28 is_stmt 1             @ ../Middlewares/Third_Party/FreeRTOS/Source/tasks.c:3240:28
	ldr	r0, [sp, #4]
	.loc	3 3240 44 is_stmt 0             @ ../Middlewares/Third_Party/FreeRTOS/Source/tasks.c:3240:44
	adds	r0, #4
	.loc	3 3240 11                       @ ../Middlewares/Third_Party/FreeRTOS/Source/tasks.c:3240:11
	bl	uxListRemove
	.loc	3 3241 43 is_stmt 1             @ ../Middlewares/Third_Party/FreeRTOS/Source/tasks.c:3241:43
	ldr	r0, [sp, #4]
	.loc	3 3241 61 is_stmt 0             @ ../Middlewares/Third_Party/FreeRTOS/Source/tasks.c:3241:61
	ldr	r1, [r0, #44]
	movs	r0, #1
	.loc	3 3241 36                       @ ../Middlewares/Third_Party/FreeRTOS/Source/tasks.c:3241:36
	lsl.w	r2, r0, r1
	.loc	3 3241 27                       @ ../Middlewares/Third_Party/FreeRTOS/Source/tasks.c:3241:27
	movw	r1, :lower16:uxTopReadyPriority
	movt	r1, :upper16:uxTopReadyPriority
	ldr	r0, [r1]
	orrs	r0, r2
	str	r0, [r1]
	.loc	3 3241 117                      @ ../Middlewares/Third_Party/FreeRTOS/Source/tasks.c:3241:117
	ldr	r1, [sp, #4]
	.loc	3 3241 135                      @ ../Middlewares/Third_Party/FreeRTOS/Source/tasks.c:3241:135
	ldr	r0, [r1, #44]
	.loc	3 3241 96                       @ ../Middlewares/Third_Party/FreeRTOS/Source/tasks.c:3241:96
	add.w	r2, r0, r0, lsl #2
	movw	r0, :lower16:pxReadyTasksLists
	movt	r0, :upper16:pxReadyTasksLists
	add.w	r0, r0, r2, lsl #2
	.loc	3 3241 174                      @ ../Middlewares/Third_Party/FreeRTOS/Source/tasks.c:3241:174
	adds	r1, #4
	.loc	3 3241 77                       @ ../Middlewares/Third_Party/FreeRTOS/Source/tasks.c:3241:77
	bl	vListInsertEnd
.Ltmp750:
	.loc	3 3243 6 is_stmt 1              @ ../Middlewares/Third_Party/FreeRTOS/Source/tasks.c:3243:6
	ldr	r0, [sp, #4]
	.loc	3 3243 22 is_stmt 0             @ ../Middlewares/Third_Party/FreeRTOS/Source/tasks.c:3243:22
	ldr	r0, [r0, #44]
	.loc	3 3243 35                       @ ../Middlewares/Third_Party/FreeRTOS/Source/tasks.c:3243:35
	movw	r1, :lower16:pxCurrentTCB
	movt	r1, :upper16:pxCurrentTCB
	ldr	r1, [r1]
	.loc	3 3243 49                       @ ../Middlewares/Third_Party/FreeRTOS/Source/tasks.c:3243:49
	ldr	r1, [r1, #44]
.Ltmp751:
	.loc	3 3243 6                        @ ../Middlewares/Third_Party/FreeRTOS/Source/tasks.c:3243:6
	cmp	r0, r1
	bls	.LBB37_8
	b	.LBB37_7
.LBB37_7:
.Ltmp752:
	.loc	3 3249 17 is_stmt 1             @ ../Middlewares/Third_Party/FreeRTOS/Source/tasks.c:3249:17
	movw	r1, :lower16:xYieldPending
	movt	r1, :upper16:xYieldPending
	movs	r0, #1
	str	r0, [r1]
	.loc	3 3250 2                        @ ../Middlewares/Third_Party/FreeRTOS/Source/tasks.c:3250:2
	b	.LBB37_8
.Ltmp753:
.LBB37_8:
	.loc	3 3251 1                        @ ../Middlewares/Third_Party/FreeRTOS/Source/tasks.c:3251:1
	add	sp, #24
	pop	{r7, pc}
.Ltmp754:
.Lfunc_end37:
	.size	vTaskRemoveFromUnorderedEventList, .Lfunc_end37-vTaskRemoveFromUnorderedEventList
	.cfi_endproc
	.cantunwind
	.fnend
                                        @ -- End function
	.section	.text.vTaskSetTimeOutState,"ax",%progbits
	.hidden	vTaskSetTimeOutState            @ -- Begin function vTaskSetTimeOutState
	.globl	vTaskSetTimeOutState
	.p2align	2
	.type	vTaskSetTimeOutState,%function
	.code	16                              @ @vTaskSetTimeOutState
	.thumb_func
vTaskSetTimeOutState:
.Lfunc_begin38:
	.loc	3 3255 0                        @ ../Middlewares/Third_Party/FreeRTOS/Source/tasks.c:3255:0
	.fnstart
	.cfi_startproc
@ %bb.0:
	.save	{r7, lr}
	push	{r7, lr}
	.cfi_def_cfa_offset 8
	.cfi_offset lr, -4
	.cfi_offset r7, -8
	.pad	#8
	sub	sp, #8
	.cfi_def_cfa_offset 16
	str	r0, [sp]
.Ltmp755:
	.loc	3 3256 7 prologue_end           @ ../Middlewares/Third_Party/FreeRTOS/Source/tasks.c:3256:7
	ldr	r0, [sp]
.Ltmp756:
	.loc	3 3256 6 is_stmt 0              @ ../Middlewares/Third_Party/FreeRTOS/Source/tasks.c:3256:6
	cbnz	r0, .LBB38_3
	b	.LBB38_1
.LBB38_1:
.Ltmp757:
	.loc	2 195 2 is_stmt 1               @ ../Middlewares/Third_Party/FreeRTOS/Source/portable/RVDS/ARM_CM4F\portmacro.h:195:2
	@APP
	mov.w	r0, #80
	msr	basepri, r0
	isb	sy
	dsb	sy

	@NO_APP
	str	r0, [sp, #4]
.Ltmp758:
	.loc	3 3256 46                       @ ../Middlewares/Third_Party/FreeRTOS/Source/tasks.c:3256:46
	b	.LBB38_2
.LBB38_2:                               @ =>This Inner Loop Header: Depth=1
.Ltmp759:
	.loc	3 3256 46 is_stmt 0             @ ../Middlewares/Third_Party/FreeRTOS/Source/tasks.c:3256:46
	b	.LBB38_2
.Ltmp760:
.LBB38_3:
	.loc	3 3257 2 is_stmt 1              @ ../Middlewares/Third_Party/FreeRTOS/Source/tasks.c:3257:2
	bl	vPortEnterCritical
.Ltmp761:
	.loc	3 3259 31                       @ ../Middlewares/Third_Party/FreeRTOS/Source/tasks.c:3259:31
	movw	r0, :lower16:xNumOfOverflows
	movt	r0, :upper16:xNumOfOverflows
	ldr	r0, [r0]
	.loc	3 3259 3 is_stmt 0              @ ../Middlewares/Third_Party/FreeRTOS/Source/tasks.c:3259:3
	ldr	r1, [sp]
	.loc	3 3259 29                       @ ../Middlewares/Third_Party/FreeRTOS/Source/tasks.c:3259:29
	str	r0, [r1]
	.loc	3 3260 32 is_stmt 1             @ ../Middlewares/Third_Party/FreeRTOS/Source/tasks.c:3260:32
	movw	r0, :lower16:xTickCount
	movt	r0, :upper16:xTickCount
	ldr	r0, [r0]
	.loc	3 3260 3 is_stmt 0              @ ../Middlewares/Third_Party/FreeRTOS/Source/tasks.c:3260:3
	ldr	r1, [sp]
	.loc	3 3260 30                       @ ../Middlewares/Third_Party/FreeRTOS/Source/tasks.c:3260:30
	str	r0, [r1, #4]
.Ltmp762:
	.loc	3 3262 2 is_stmt 1              @ ../Middlewares/Third_Party/FreeRTOS/Source/tasks.c:3262:2
	bl	vPortExitCritical
	.loc	3 3263 1                        @ ../Middlewares/Third_Party/FreeRTOS/Source/tasks.c:3263:1
	add	sp, #8
	pop	{r7, pc}
.Ltmp763:
.Lfunc_end38:
	.size	vTaskSetTimeOutState, .Lfunc_end38-vTaskSetTimeOutState
	.cfi_endproc
	.cantunwind
	.fnend
                                        @ -- End function
	.section	.text.vTaskInternalSetTimeOutState,"ax",%progbits
	.hidden	vTaskInternalSetTimeOutState    @ -- Begin function vTaskInternalSetTimeOutState
	.globl	vTaskInternalSetTimeOutState
	.p2align	2
	.type	vTaskInternalSetTimeOutState,%function
	.code	16                              @ @vTaskInternalSetTimeOutState
	.thumb_func
vTaskInternalSetTimeOutState:
.Lfunc_begin39:
	.loc	3 3267 0                        @ ../Middlewares/Third_Party/FreeRTOS/Source/tasks.c:3267:0
	.fnstart
	.cfi_startproc
@ %bb.0:
	.pad	#4
	sub	sp, #4
	.cfi_def_cfa_offset 4
	str	r0, [sp]
.Ltmp764:
	.loc	3 3269 30 prologue_end          @ ../Middlewares/Third_Party/FreeRTOS/Source/tasks.c:3269:30
	movw	r0, :lower16:xNumOfOverflows
	movt	r0, :upper16:xNumOfOverflows
	ldr	r0, [r0]
	.loc	3 3269 2 is_stmt 0              @ ../Middlewares/Third_Party/FreeRTOS/Source/tasks.c:3269:2
	ldr	r1, [sp]
	.loc	3 3269 28                       @ ../Middlewares/Third_Party/FreeRTOS/Source/tasks.c:3269:28
	str	r0, [r1]
	.loc	3 3270 31 is_stmt 1             @ ../Middlewares/Third_Party/FreeRTOS/Source/tasks.c:3270:31
	movw	r0, :lower16:xTickCount
	movt	r0, :upper16:xTickCount
	ldr	r0, [r0]
	.loc	3 3270 2 is_stmt 0              @ ../Middlewares/Third_Party/FreeRTOS/Source/tasks.c:3270:2
	ldr	r1, [sp]
	.loc	3 3270 29                       @ ../Middlewares/Third_Party/FreeRTOS/Source/tasks.c:3270:29
	str	r0, [r1, #4]
	.loc	3 3271 1 is_stmt 1              @ ../Middlewares/Third_Party/FreeRTOS/Source/tasks.c:3271:1
	add	sp, #4
	bx	lr
.Ltmp765:
.Lfunc_end39:
	.size	vTaskInternalSetTimeOutState, .Lfunc_end39-vTaskInternalSetTimeOutState
	.cfi_endproc
	.cantunwind
	.fnend
                                        @ -- End function
	.section	.text.xTaskCheckForTimeOut,"ax",%progbits
	.hidden	xTaskCheckForTimeOut            @ -- Begin function xTaskCheckForTimeOut
	.globl	xTaskCheckForTimeOut
	.p2align	2
	.type	xTaskCheckForTimeOut,%function
	.code	16                              @ @xTaskCheckForTimeOut
	.thumb_func
xTaskCheckForTimeOut:
.Lfunc_begin40:
	.loc	3 3275 0                        @ ../Middlewares/Third_Party/FreeRTOS/Source/tasks.c:3275:0
	.fnstart
	.cfi_startproc
@ %bb.0:
	.save	{r7, lr}
	push	{r7, lr}
	.cfi_def_cfa_offset 8
	.cfi_offset lr, -4
	.cfi_offset r7, -8
	.pad	#32
	sub	sp, #32
	.cfi_def_cfa_offset 40
	str	r0, [sp, #20]
	str	r1, [sp, #16]
.Ltmp766:
	.loc	3 3278 7 prologue_end           @ ../Middlewares/Third_Party/FreeRTOS/Source/tasks.c:3278:7
	ldr	r0, [sp, #20]
.Ltmp767:
	.loc	3 3278 6 is_stmt 0              @ ../Middlewares/Third_Party/FreeRTOS/Source/tasks.c:3278:6
	cbnz	r0, .LBB40_3
	b	.LBB40_1
.LBB40_1:
.Ltmp768:
	.loc	2 195 2 is_stmt 1               @ ../Middlewares/Third_Party/FreeRTOS/Source/portable/RVDS/ARM_CM4F\portmacro.h:195:2
	@APP
	mov.w	r0, #80
	msr	basepri, r0
	isb	sy
	dsb	sy

	@NO_APP
	str	r0, [sp, #28]
.Ltmp769:
	.loc	3 3278 46                       @ ../Middlewares/Third_Party/FreeRTOS/Source/tasks.c:3278:46
	b	.LBB40_2
.LBB40_2:                               @ =>This Inner Loop Header: Depth=1
.Ltmp770:
	.loc	3 3278 46 is_stmt 0             @ ../Middlewares/Third_Party/FreeRTOS/Source/tasks.c:3278:46
	b	.LBB40_2
.Ltmp771:
.LBB40_3:
	.loc	3 3279 7 is_stmt 1              @ ../Middlewares/Third_Party/FreeRTOS/Source/tasks.c:3279:7
	ldr	r0, [sp, #16]
.Ltmp772:
	.loc	3 3279 6 is_stmt 0              @ ../Middlewares/Third_Party/FreeRTOS/Source/tasks.c:3279:6
	cbnz	r0, .LBB40_6
	b	.LBB40_4
.LBB40_4:
.Ltmp773:
