	.text
	.syntax unified
	.eabi_attribute	67, "2.09"	@ Tag_conformance
	.cpu	cortex-m4
	.eabi_attribute	6, 13	@ Tag_CPU_arch
	.eabi_attribute	7, 77	@ Tag_CPU_arch_profile
	.eabi_attribute	8, 0	@ Tag_ARM_ISA_use
	.eabi_attribute	9, 2	@ Tag_THUMB_ISA_use
	.fpu	fpv4-sp-d16
	.eabi_attribute	27, 1	@ Tag_ABI_HardFP_use
	.eabi_attribute	36, 1	@ Tag_FP_HP_extension
	.eabi_attribute	34, 1	@ Tag_CPU_unaligned_access
	.eabi_attribute	17, 1	@ Tag_ABI_PCS_GOT_use
	.eabi_attribute	20, 2	@ Tag_ABI_FP_denormal
	.eabi_attribute	21, 0	@ Tag_ABI_FP_exceptions
	.eabi_attribute	23, 1	@ Tag_ABI_FP_number_model
	.eabi_attribute	24, 1	@ Tag_ABI_align_needed
	.eabi_attribute	25, 1	@ Tag_ABI_align_preserved
	.eabi_attribute	28, 1	@ Tag_ABI_VFP_args
	.eabi_attribute	38, 1	@ Tag_ABI_FP_16bit_format
	.eabi_attribute	18, 2	@ Tag_ABI_PCS_wchar_t
	.eabi_attribute	26, 1	@ Tag_ABI_enum_size
	.eabi_attribute	14, 0	@ Tag_ABI_PCS_R9_use
	.file	"timers.c"
	.file	1 "D:\\horizon\\Horizon_Infantry (2)\\MDK-ARM" "../Middlewares/Third_Party/FreeRTOS/Source/include\\queue.h"
	.file	2 "D:\\horizon\\Horizon_Infantry (2)\\MDK-ARM" "../Middlewares/Third_Party/FreeRTOS/Source/timers.c"
	.file	3 "D:\\horizon\\Horizon_Infantry (2)\\MDK-ARM" "../Middlewares/Third_Party/FreeRTOS/Source/include\\task.h"
	.file	4 "D:\\horizon\\Horizon_Infantry (2)\\MDK-ARM" "../Middlewares/Third_Party/FreeRTOS/Source/portable/RVDS/ARM_CM4F\\portmacro.h"
	.file	5 "D:\\horizon\\Horizon_Infantry (2)\\MDK-ARM" "../Middlewares/Third_Party/FreeRTOS/Source/include/list.h"
	.file	6 "D:\\" "kevil\\ARM\\ARMCLANG\\Bin\\..\\include\\stdint.h"
	.file	7 "D:\\horizon\\Horizon_Infantry (2)\\MDK-ARM" "../Middlewares/Third_Party/FreeRTOS/Source/include\\FreeRTOS.h"
	.file	8 "D:\\horizon\\Horizon_Infantry (2)\\MDK-ARM" "../Middlewares/Third_Party/FreeRTOS/Source/include\\timers.h"
	.section	.text.xTimerCreateTimerTask,"ax",%progbits
	.hidden	xTimerCreateTimerTask           @ -- Begin function xTimerCreateTimerTask
	.globl	xTimerCreateTimerTask
	.p2align	2
	.type	xTimerCreateTimerTask,%function
	.code	16                              @ @xTimerCreateTimerTask
	.thumb_func
xTimerCreateTimerTask:
.Lfunc_begin0:
	.loc	2 228 0                         @ ../Middlewares/Third_Party/FreeRTOS/Source/timers.c:228:0
	.fnstart
	.cfi_sections .debug_frame
	.cfi_startproc
@ %bb.0:
	.save	{r7, lr}
	push	{r7, lr}
	.cfi_def_cfa_offset 8
	.cfi_offset lr, -4
	.cfi_offset r7, -8
	.pad	#40
	sub	sp, #40
	.cfi_def_cfa_offset 48
	movs	r0, #0
.Ltmp0:
	.loc	2 229 12 prologue_end           @ ../Middlewares/Third_Party/FreeRTOS/Source/timers.c:229:12
	str	r0, [sp, #32]
	.loc	2 235 2                         @ ../Middlewares/Third_Party/FreeRTOS/Source/timers.c:235:2
	bl	prvCheckForValidListAndQueue
.Ltmp1:
	.loc	2 237 6                         @ ../Middlewares/Third_Party/FreeRTOS/Source/timers.c:237:6
	movw	r0, :lower16:xTimerQueue
	movt	r0, :upper16:xTimerQueue
	ldr	r0, [r0]
.Ltmp2:
	.loc	2 237 6 is_stmt 0               @ ../Middlewares/Third_Party/FreeRTOS/Source/timers.c:237:6
	cbz	r0, .LBB0_4
	b	.LBB0_1
.LBB0_1:
	.loc	2 0 6                           @ ../Middlewares/Third_Party/FreeRTOS/Source/timers.c:0:6
	movs	r0, #0
.Ltmp3:
	.loc	2 241 18 is_stmt 1              @ ../Middlewares/Third_Party/FreeRTOS/Source/timers.c:241:18
	str	r0, [sp, #16]                   @ 4-byte Spill
	str	r0, [sp, #28]
	.loc	2 242 17                        @ ../Middlewares/Third_Party/FreeRTOS/Source/timers.c:242:17
	str	r0, [sp, #24]
	add	r0, sp, #28
	add	r1, sp, #24
	add	r2, sp, #20
	.loc	2 245 4                         @ ../Middlewares/Third_Party/FreeRTOS/Source/timers.c:245:4
	bl	vApplicationGetTimerTaskMemory
	ldr	r3, [sp, #16]                   @ 4-byte Reload
	.loc	2 248 14                        @ ../Middlewares/Third_Party/FreeRTOS/Source/timers.c:248:14
	ldr	r2, [sp, #20]
	.loc	2 251 14                        @ ../Middlewares/Third_Party/FreeRTOS/Source/timers.c:251:14
	ldr	r0, [sp, #24]
	.loc	2 252 14                        @ ../Middlewares/Third_Party/FreeRTOS/Source/timers.c:252:14
	ldr.w	r12, [sp, #28]
	.loc	2 246 23                        @ ../Middlewares/Third_Party/FreeRTOS/Source/timers.c:246:23
	mov	r1, sp
	str.w	r12, [r1, #8]
	str	r0, [r1, #4]
	movs	r0, #2
	str	r0, [r1]
	movw	r0, :lower16:prvTimerTask
	movt	r0, :upper16:prvTimerTask
	movw	r1, :lower16:.L.str
	movt	r1, :upper16:.L.str
	bl	xTaskCreateStatic
	mov	r1, r0
	.loc	2 246 21 is_stmt 0              @ ../Middlewares/Third_Party/FreeRTOS/Source/timers.c:246:21
	movw	r0, :lower16:xTimerTaskHandle
	movt	r0, :upper16:xTimerTaskHandle
	str	r1, [r0]
.Ltmp4:
	.loc	2 254 8 is_stmt 1               @ ../Middlewares/Third_Party/FreeRTOS/Source/timers.c:254:8
	ldr	r0, [r0]
.Ltmp5:
	.loc	2 254 8 is_stmt 0               @ ../Middlewares/Third_Party/FreeRTOS/Source/timers.c:254:8
	cbz	r0, .LBB0_3
	b	.LBB0_2
.LBB0_2:
	.loc	2 0 8                           @ ../Middlewares/Third_Party/FreeRTOS/Source/timers.c:0:8
	movs	r0, #1
.Ltmp6:
	.loc	2 256 13 is_stmt 1              @ ../Middlewares/Third_Party/FreeRTOS/Source/timers.c:256:13
	str	r0, [sp, #32]
	.loc	2 257 4                         @ ../Middlewares/Third_Party/FreeRTOS/Source/timers.c:257:4
	b	.LBB0_3
.Ltmp7:
.LBB0_3:
	.loc	2 269 2                         @ ../Middlewares/Third_Party/FreeRTOS/Source/timers.c:269:2
	b	.LBB0_5
.Ltmp8:
.LBB0_4:
	.loc	2 0 2 is_stmt 0                 @ ../Middlewares/Third_Party/FreeRTOS/Source/timers.c:0:2
	b	.LBB0_5
.LBB0_5:
.Ltmp9:
	.loc	2 275 7 is_stmt 1               @ ../Middlewares/Third_Party/FreeRTOS/Source/timers.c:275:7
	ldr	r0, [sp, #32]
.Ltmp10:
	.loc	2 275 6 is_stmt 0               @ ../Middlewares/Third_Party/FreeRTOS/Source/timers.c:275:6
	cbnz	r0, .LBB0_8
	b	.LBB0_6
.LBB0_6:
.Ltmp11:
	.loc	4 195 2 is_stmt 1               @ ../Middlewares/Third_Party/FreeRTOS/Source/portable/RVDS/ARM_CM4F\portmacro.h:195:2
	@APP
	mov.w	r0, #80
	msr	basepri, r0
	isb	sy
	dsb	sy

	@NO_APP
	str	r0, [sp, #36]
.Ltmp12:
	.loc	2 275 44                        @ ../Middlewares/Third_Party/FreeRTOS/Source/timers.c:275:44
	b	.LBB0_7
.LBB0_7:                                @ =>This Inner Loop Header: Depth=1
.Ltmp13:
	.loc	2 275 44 is_stmt 0              @ ../Middlewares/Third_Party/FreeRTOS/Source/timers.c:275:44
	b	.LBB0_7
.Ltmp14:
.LBB0_8:
	.loc	2 276 9 is_stmt 1               @ ../Middlewares/Third_Party/FreeRTOS/Source/timers.c:276:9
	ldr	r0, [sp, #32]
	.loc	2 276 2 is_stmt 0               @ ../Middlewares/Third_Party/FreeRTOS/Source/timers.c:276:2
	add	sp, #40
	pop	{r7, pc}
.Ltmp15:
.Lfunc_end0:
	.size	xTimerCreateTimerTask, .Lfunc_end0-xTimerCreateTimerTask
	.cfi_endproc
	.cantunwind
	.fnend
                                        @ -- End function
	.section	.text.prvCheckForValidListAndQueue,"ax",%progbits
	.p2align	2                               @ -- Begin function prvCheckForValidListAndQueue
	.type	prvCheckForValidListAndQueue,%function
	.code	16                              @ @prvCheckForValidListAndQueue
	.thumb_func
prvCheckForValidListAndQueue:
.Lfunc_begin1:
	.loc	2 942 0 is_stmt 1               @ ../Middlewares/Third_Party/FreeRTOS/Source/timers.c:942:0
	.fnstart
	.cfi_startproc
@ %bb.0:
	.save	{r7, lr}
	push	{r7, lr}
	.cfi_def_cfa_offset 8
	.cfi_offset lr, -4
	.cfi_offset r7, -8
	.pad	#16
	sub	sp, #16
	.cfi_def_cfa_offset 24
.Ltmp16:
	.loc	2 946 2 prologue_end            @ ../Middlewares/Third_Party/FreeRTOS/Source/timers.c:946:2
	bl	vPortEnterCritical
.Ltmp17:
	.loc	2 948 7                         @ ../Middlewares/Third_Party/FreeRTOS/Source/timers.c:948:7
	movw	r0, :lower16:xTimerQueue
	movt	r0, :upper16:xTimerQueue
	ldr	r0, [r0]
.Ltmp18:
	.loc	2 948 7 is_stmt 0               @ ../Middlewares/Third_Party/FreeRTOS/Source/timers.c:948:7
	cmp	r0, #0
	bne	.LBB1_5
	b	.LBB1_1
.LBB1_1:
.Ltmp19:
	.loc	2 950 4 is_stmt 1               @ ../Middlewares/Third_Party/FreeRTOS/Source/timers.c:950:4
	movw	r0, :lower16:xActiveTimerList1
	movt	r0, :upper16:xActiveTimerList1
	str	r0, [sp, #8]                    @ 4-byte Spill
	bl	vListInitialise
	.loc	2 951 4                         @ ../Middlewares/Third_Party/FreeRTOS/Source/timers.c:951:4
	movw	r0, :lower16:xActiveTimerList2
	movt	r0, :upper16:xActiveTimerList2
	str	r0, [sp, #12]                   @ 4-byte Spill
	bl	vListInitialise
	ldr	r1, [sp, #8]                    @ 4-byte Reload
	ldr	r0, [sp, #12]                   @ 4-byte Reload
	.loc	2 952 23                        @ ../Middlewares/Third_Party/FreeRTOS/Source/timers.c:952:23
	movw	r2, :lower16:pxCurrentTimerList
	movt	r2, :upper16:pxCurrentTimerList
	str	r1, [r2]
	.loc	2 953 24                        @ ../Middlewares/Third_Party/FreeRTOS/Source/timers.c:953:24
	movw	r1, :lower16:pxOverflowTimerList
	movt	r1, :upper16:pxOverflowTimerList
	str	r0, [r1]
.Ltmp20:
	.loc	2 962 19                        @ ../Middlewares/Third_Party/FreeRTOS/Source/timers.c:962:19
	mov	r1, sp
	movs	r0, #0
	str	r0, [r1]
	movw	r2, :lower16:prvCheckForValidListAndQueue.ucStaticTimerQueueStorage
	movt	r2, :upper16:prvCheckForValidListAndQueue.ucStaticTimerQueueStorage
	movw	r3, :lower16:prvCheckForValidListAndQueue.xStaticTimerQueue
	movt	r3, :upper16:prvCheckForValidListAndQueue.xStaticTimerQueue
	movs	r0, #10
	movs	r1, #16
	bl	xQueueGenericCreateStatic
	mov	r1, r0
	.loc	2 962 17 is_stmt 0              @ ../Middlewares/Third_Party/FreeRTOS/Source/timers.c:962:17
	movw	r0, :lower16:xTimerQueue
	movt	r0, :upper16:xTimerQueue
	str	r1, [r0]
.Ltmp21:
	.loc	2 972 9 is_stmt 1               @ ../Middlewares/Third_Party/FreeRTOS/Source/timers.c:972:9
	ldr	r0, [r0]
.Ltmp22:
	.loc	2 972 9 is_stmt 0               @ ../Middlewares/Third_Party/FreeRTOS/Source/timers.c:972:9
	cbz	r0, .LBB1_3
	b	.LBB1_2
.LBB1_2:
.Ltmp23:
	.loc	2 974 27 is_stmt 1              @ ../Middlewares/Third_Party/FreeRTOS/Source/timers.c:974:27
	movw	r0, :lower16:xTimerQueue
	movt	r0, :upper16:xTimerQueue
	ldr	r0, [r0]
	.loc	2 974 6 is_stmt 0               @ ../Middlewares/Third_Party/FreeRTOS/Source/timers.c:974:6
	movw	r1, :lower16:.L.str.1
	movt	r1, :upper16:.L.str.1
	bl	vQueueAddToRegistry
	.loc	2 975 5 is_stmt 1               @ ../Middlewares/Third_Party/FreeRTOS/Source/timers.c:975:5
	b	.LBB1_4
.Ltmp24:
.LBB1_3:
	.loc	2 0 5 is_stmt 0                 @ ../Middlewares/Third_Party/FreeRTOS/Source/timers.c:0:5
	b	.LBB1_4
.LBB1_4:
	.loc	2 982 3 is_stmt 1               @ ../Middlewares/Third_Party/FreeRTOS/Source/timers.c:982:3
	b	.LBB1_6
.Ltmp25:
.LBB1_5:
	.loc	2 0 3 is_stmt 0                 @ ../Middlewares/Third_Party/FreeRTOS/Source/timers.c:0:3
	b	.LBB1_6
.LBB1_6:
	.loc	2 988 2 is_stmt 1               @ ../Middlewares/Third_Party/FreeRTOS/Source/timers.c:988:2
	bl	vPortExitCritical
	.loc	2 989 1                         @ ../Middlewares/Third_Party/FreeRTOS/Source/timers.c:989:1
	add	sp, #16
	pop	{r7, pc}
.Ltmp26:
.Lfunc_end1:
	.size	prvCheckForValidListAndQueue, .Lfunc_end1-prvCheckForValidListAndQueue
	.cfi_endproc
	.cantunwind
	.fnend
                                        @ -- End function
	.section	.text.prvTimerTask,"ax",%progbits
	.p2align	2                               @ -- Begin function prvTimerTask
	.type	prvTimerTask,%function
	.code	16                              @ @prvTimerTask
	.thumb_func
prvTimerTask:
.Lfunc_begin2:
	.loc	2 549 0                         @ ../Middlewares/Third_Party/FreeRTOS/Source/timers.c:549:0
	.fnstart
	.cfi_startproc
@ %bb.0:
	.save	{r7, lr}
	push	{r7, lr}
	.cfi_def_cfa_offset 8
	.cfi_offset lr, -4
	.cfi_offset r7, -8
	.pad	#16
	sub	sp, #16
	.cfi_def_cfa_offset 24
	str	r0, [sp, #12]
.Ltmp27:
	.loc	2 568 2 prologue_end            @ ../Middlewares/Third_Party/FreeRTOS/Source/timers.c:568:2
	b	.LBB2_1
.LBB2_1:                                @ =>This Inner Loop Header: Depth=1
	.loc	2 0 2 is_stmt 0                 @ ../Middlewares/Third_Party/FreeRTOS/Source/timers.c:0:2
	add	r0, sp, #4
.Ltmp28:
	.loc	2 572 21 is_stmt 1              @ ../Middlewares/Third_Party/FreeRTOS/Source/timers.c:572:21
	bl	prvGetNextExpireTime
	.loc	2 572 19 is_stmt 0              @ ../Middlewares/Third_Party/FreeRTOS/Source/timers.c:572:19
	str	r0, [sp, #8]
	.loc	2 576 31 is_stmt 1              @ ../Middlewares/Third_Party/FreeRTOS/Source/timers.c:576:31
	ldr	r0, [sp, #8]
	.loc	2 576 48 is_stmt 0              @ ../Middlewares/Third_Party/FreeRTOS/Source/timers.c:576:48
	ldr	r1, [sp, #4]
	.loc	2 576 3                         @ ../Middlewares/Third_Party/FreeRTOS/Source/timers.c:576:3
	bl	prvProcessTimerOrBlockTask
	.loc	2 579 3 is_stmt 1               @ ../Middlewares/Third_Party/FreeRTOS/Source/timers.c:579:3
	bl	prvProcessReceivedCommands
.Ltmp29:
	.loc	2 568 2                         @ ../Middlewares/Third_Party/FreeRTOS/Source/timers.c:568:2
	b	.LBB2_1
.Ltmp30:
.Lfunc_end2:
	.size	prvTimerTask, .Lfunc_end2-prvTimerTask
	.cfi_endproc
	.cantunwind
	.fnend
                                        @ -- End function
	.section	.text.xTimerCreate,"ax",%progbits
	.hidden	xTimerCreate                    @ -- Begin function xTimerCreate
	.globl	xTimerCreate
	.p2align	2
	.type	xTimerCreate,%function
	.code	16                              @ @xTimerCreate
	.thumb_func
xTimerCreate:
.Lfunc_begin3:
	.loc	2 287 0                         @ ../Middlewares/Third_Party/FreeRTOS/Source/timers.c:287:0
	.fnstart
	.cfi_startproc
@ %bb.0:
	.save	{r4, lr}
	push	{r4, lr}
	.cfi_def_cfa_offset 8
	.cfi_offset lr, -4
	.cfi_offset r4, -8
	.pad	#32
	sub	sp, #32
	.cfi_def_cfa_offset 40
	ldr.w	r12, [sp, #40]
	str	r0, [sp, #28]
	str	r1, [sp, #24]
	str	r2, [sp, #20]
	str	r3, [sp, #16]
	movs	r0, #40
.Ltmp31:
	.loc	2 290 30 prologue_end           @ ../Middlewares/Third_Party/FreeRTOS/Source/timers.c:290:30
	bl	pvPortMalloc
	.loc	2 290 14 is_stmt 0              @ ../Middlewares/Third_Party/FreeRTOS/Source/timers.c:290:14
	str	r0, [sp, #12]
.Ltmp32:
	.loc	2 292 7 is_stmt 1               @ ../Middlewares/Third_Party/FreeRTOS/Source/timers.c:292:7
	ldr	r0, [sp, #12]
.Ltmp33:
	.loc	2 292 7 is_stmt 0               @ ../Middlewares/Third_Party/FreeRTOS/Source/timers.c:292:7
	cbz	r0, .LBB3_2
	b	.LBB3_1
.LBB3_1:
.Ltmp34:
	.loc	2 297 4 is_stmt 1               @ ../Middlewares/Third_Party/FreeRTOS/Source/timers.c:297:4
	ldr	r1, [sp, #12]
	movs	r0, #0
	.loc	2 297 25 is_stmt 0              @ ../Middlewares/Third_Party/FreeRTOS/Source/timers.c:297:25
	strb.w	r0, [r1, #36]
	.loc	2 298 27 is_stmt 1              @ ../Middlewares/Third_Party/FreeRTOS/Source/timers.c:298:27
	ldr	r0, [sp, #28]
	.loc	2 298 40 is_stmt 0              @ ../Middlewares/Third_Party/FreeRTOS/Source/timers.c:298:40
	ldr	r1, [sp, #24]
	.loc	2 298 61                        @ ../Middlewares/Third_Party/FreeRTOS/Source/timers.c:298:61
	ldr	r2, [sp, #20]
	.loc	2 298 75                        @ ../Middlewares/Third_Party/FreeRTOS/Source/timers.c:298:75
	ldr	r3, [sp, #16]
	.loc	2 298 86                        @ ../Middlewares/Third_Party/FreeRTOS/Source/timers.c:298:86
	ldr.w	r12, [sp, #40]
	.loc	2 298 106                       @ ../Middlewares/Third_Party/FreeRTOS/Source/timers.c:298:106
	ldr	r4, [sp, #12]
	.loc	2 298 4                         @ ../Middlewares/Third_Party/FreeRTOS/Source/timers.c:298:4
	mov	lr, sp
	str.w	r4, [lr, #4]
	str.w	r12, [lr]
	bl	prvInitialiseNewTimer
	.loc	2 299 3 is_stmt 1               @ ../Middlewares/Third_Party/FreeRTOS/Source/timers.c:299:3
	b	.LBB3_2
.Ltmp35:
.LBB3_2:
	.loc	2 301 10                        @ ../Middlewares/Third_Party/FreeRTOS/Source/timers.c:301:10
	ldr	r0, [sp, #12]
	.loc	2 301 3 is_stmt 0               @ ../Middlewares/Third_Party/FreeRTOS/Source/timers.c:301:3
	add	sp, #32
	pop	{r4, pc}
.Ltmp36:
.Lfunc_end3:
	.size	xTimerCreate, .Lfunc_end3-xTimerCreate
	.cfi_endproc
	.cantunwind
	.fnend
                                        @ -- End function
	.section	.text.prvInitialiseNewTimer,"ax",%progbits
	.p2align	2                               @ -- Begin function prvInitialiseNewTimer
	.type	prvInitialiseNewTimer,%function
	.code	16                              @ @prvInitialiseNewTimer
	.thumb_func
prvInitialiseNewTimer:
.Lfunc_begin4:
	.loc	2 355 0 is_stmt 1               @ ../Middlewares/Third_Party/FreeRTOS/Source/timers.c:355:0
	.fnstart
	.cfi_startproc
@ %bb.0:
	.save	{r7, lr}
	push	{r7, lr}
	.cfi_def_cfa_offset 8
	.cfi_offset lr, -4
	.cfi_offset r7, -8
	.pad	#24
	sub	sp, #24
	.cfi_def_cfa_offset 32
	ldr.w	r12, [sp, #36]
	ldr.w	r12, [sp, #32]
	str	r0, [sp, #16]
	str	r1, [sp, #12]
	str	r2, [sp, #8]
	str	r3, [sp, #4]
.Ltmp37:
	.loc	2 357 9 prologue_end            @ ../Middlewares/Third_Party/FreeRTOS/Source/timers.c:357:9
	ldr	r0, [sp, #12]
.Ltmp38:
	.loc	2 357 6 is_stmt 0               @ ../Middlewares/Third_Party/FreeRTOS/Source/timers.c:357:6
	cbnz	r0, .LBB4_3
	b	.LBB4_1
.LBB4_1:
.Ltmp39:
	.loc	4 195 2 is_stmt 1               @ ../Middlewares/Third_Party/FreeRTOS/Source/portable/RVDS/ARM_CM4F\portmacro.h:195:2
	@APP
	mov.w	r0, #80
	msr	basepri, r0
	isb	sy
	dsb	sy

	@NO_APP
	str	r0, [sp, #20]
.Ltmp40:
	.loc	2 357 64                        @ ../Middlewares/Third_Party/FreeRTOS/Source/timers.c:357:64
	b	.LBB4_2
.LBB4_2:                                @ =>This Inner Loop Header: Depth=1
.Ltmp41:
	.loc	2 357 64 is_stmt 0              @ ../Middlewares/Third_Party/FreeRTOS/Source/timers.c:357:64
	b	.LBB4_2
.Ltmp42:
.LBB4_3:
	.loc	2 359 6 is_stmt 1               @ ../Middlewares/Third_Party/FreeRTOS/Source/timers.c:359:6
	ldr	r0, [sp, #36]
.Ltmp43:
	.loc	2 359 6 is_stmt 0               @ ../Middlewares/Third_Party/FreeRTOS/Source/timers.c:359:6
	cbz	r0, .LBB4_7
	b	.LBB4_4
.LBB4_4:
.Ltmp44:
	.loc	2 363 3 is_stmt 1               @ ../Middlewares/Third_Party/FreeRTOS/Source/timers.c:363:3
	bl	prvCheckForValidListAndQueue
	.loc	2 367 29                        @ ../Middlewares/Third_Party/FreeRTOS/Source/timers.c:367:29
	ldr	r0, [sp, #16]
	.loc	2 367 3 is_stmt 0               @ ../Middlewares/Third_Party/FreeRTOS/Source/timers.c:367:3
	ldr	r1, [sp, #36]
	.loc	2 367 27                        @ ../Middlewares/Third_Party/FreeRTOS/Source/timers.c:367:27
	str	r0, [r1]
	.loc	2 368 37 is_stmt 1              @ ../Middlewares/Third_Party/FreeRTOS/Source/timers.c:368:37
	ldr	r0, [sp, #12]
	.loc	2 368 3 is_stmt 0               @ ../Middlewares/Third_Party/FreeRTOS/Source/timers.c:368:3
	ldr	r1, [sp, #36]
	.loc	2 368 35                        @ ../Middlewares/Third_Party/FreeRTOS/Source/timers.c:368:35
	str	r0, [r1, #24]
	.loc	2 369 27 is_stmt 1              @ ../Middlewares/Third_Party/FreeRTOS/Source/timers.c:369:27
	ldr	r0, [sp, #4]
	.loc	2 369 3 is_stmt 0               @ ../Middlewares/Third_Party/FreeRTOS/Source/timers.c:369:3
	ldr	r1, [sp, #36]
	.loc	2 369 25                        @ ../Middlewares/Third_Party/FreeRTOS/Source/timers.c:369:25
	str	r0, [r1, #28]
	.loc	2 370 36 is_stmt 1              @ ../Middlewares/Third_Party/FreeRTOS/Source/timers.c:370:36
	ldr	r0, [sp, #32]
	.loc	2 370 3 is_stmt 0               @ ../Middlewares/Third_Party/FreeRTOS/Source/timers.c:370:3
	ldr	r1, [sp, #36]
	.loc	2 370 34                        @ ../Middlewares/Third_Party/FreeRTOS/Source/timers.c:370:34
	str	r0, [r1, #32]
	.loc	2 371 27 is_stmt 1              @ ../Middlewares/Third_Party/FreeRTOS/Source/timers.c:371:27
	ldr	r0, [sp, #36]
	.loc	2 371 39 is_stmt 0              @ ../Middlewares/Third_Party/FreeRTOS/Source/timers.c:371:39
	adds	r0, #4
	.loc	2 371 3                         @ ../Middlewares/Third_Party/FreeRTOS/Source/timers.c:371:3
	bl	vListInitialiseItem
.Ltmp45:
	.loc	2 372 7 is_stmt 1               @ ../Middlewares/Third_Party/FreeRTOS/Source/timers.c:372:7
	ldr	r0, [sp, #8]
.Ltmp46:
	.loc	2 372 7 is_stmt 0               @ ../Middlewares/Third_Party/FreeRTOS/Source/timers.c:372:7
	cbz	r0, .LBB4_6
	b	.LBB4_5
.LBB4_5:
.Ltmp47:
	.loc	2 374 4 is_stmt 1               @ ../Middlewares/Third_Party/FreeRTOS/Source/timers.c:374:4
	ldr	r1, [sp, #36]
	.loc	2 374 25 is_stmt 0              @ ../Middlewares/Third_Party/FreeRTOS/Source/timers.c:374:25
	ldrb.w	r0, [r1, #36]
	orr	r0, r0, #4
	strb.w	r0, [r1, #36]
	.loc	2 375 3 is_stmt 1               @ ../Middlewares/Third_Party/FreeRTOS/Source/timers.c:375:3
	b	.LBB4_6
.Ltmp48:
.LBB4_6:
	.loc	2 377 2                         @ ../Middlewares/Third_Party/FreeRTOS/Source/timers.c:377:2
	b	.LBB4_7
.Ltmp49:
.LBB4_7:
	.loc	2 378 1                         @ ../Middlewares/Third_Party/FreeRTOS/Source/timers.c:378:1
	add	sp, #24
	pop	{r7, pc}
.Ltmp50:
.Lfunc_end4:
	.size	prvInitialiseNewTimer, .Lfunc_end4-prvInitialiseNewTimer
	.cfi_endproc
	.cantunwind
	.fnend
                                        @ -- End function
	.section	.text.xTimerCreateStatic,"ax",%progbits
	.hidden	xTimerCreateStatic              @ -- Begin function xTimerCreateStatic
	.globl	xTimerCreateStatic
	.p2align	2
	.type	xTimerCreateStatic,%function
	.code	16                              @ @xTimerCreateStatic
	.thumb_func
xTimerCreateStatic:
.Lfunc_begin5:
	.loc	2 315 0                         @ ../Middlewares/Third_Party/FreeRTOS/Source/timers.c:315:0
	.fnstart
	.cfi_startproc
@ %bb.0:
	.save	{r4, lr}
	push	{r4, lr}
	.cfi_def_cfa_offset 8
	.cfi_offset lr, -4
	.cfi_offset r4, -8
	.pad	#40
	sub	sp, #40
	.cfi_def_cfa_offset 48
	ldr.w	r12, [sp, #52]
	ldr.w	r12, [sp, #48]
	str	r0, [sp, #28]
	str	r1, [sp, #24]
	str	r2, [sp, #20]
	str	r3, [sp, #16]
	movs	r0, #40
.Ltmp51:
	.loc	2 323 20 prologue_end           @ ../Middlewares/Third_Party/FreeRTOS/Source/timers.c:323:20
	str	r0, [sp, #8]
.Ltmp52:
	.loc	2 324 9                         @ ../Middlewares/Third_Party/FreeRTOS/Source/timers.c:324:9
	ldr	r0, [sp, #8]
.Ltmp53:
	.loc	2 324 8 is_stmt 0               @ ../Middlewares/Third_Party/FreeRTOS/Source/timers.c:324:8
	cmp	r0, #40
	beq	.LBB5_3
	b	.LBB5_1
.LBB5_1:
.Ltmp54:
	.loc	4 195 2 is_stmt 1               @ ../Middlewares/Third_Party/FreeRTOS/Source/portable/RVDS/ARM_CM4F\portmacro.h:195:2
	@APP
	mov.w	r0, #80
	msr	basepri, r0
	isb	sy
	dsb	sy

	@NO_APP
	str	r0, [sp, #36]
.Ltmp55:
	.loc	2 324 65                        @ ../Middlewares/Third_Party/FreeRTOS/Source/timers.c:324:65
	b	.LBB5_2
.LBB5_2:                                @ =>This Inner Loop Header: Depth=1
.Ltmp56:
	.loc	2 324 65 is_stmt 0              @ ../Middlewares/Third_Party/FreeRTOS/Source/timers.c:324:65
	b	.LBB5_2
.Ltmp57:
.LBB5_3:
	.loc	2 325 13 is_stmt 1              @ ../Middlewares/Third_Party/FreeRTOS/Source/timers.c:325:13
	ldr	r0, [sp, #8]
.Ltmp58:
	.loc	2 330 8                         @ ../Middlewares/Third_Party/FreeRTOS/Source/timers.c:330:8
	ldr	r0, [sp, #52]
.Ltmp59:
	.loc	2 330 7 is_stmt 0               @ ../Middlewares/Third_Party/FreeRTOS/Source/timers.c:330:7
	cbnz	r0, .LBB5_6
	b	.LBB5_4
.LBB5_4:
.Ltmp60:
	.loc	4 195 2 is_stmt 1               @ ../Middlewares/Third_Party/FreeRTOS/Source/portable/RVDS/ARM_CM4F\portmacro.h:195:2
	@APP
	mov.w	r0, #80
	msr	basepri, r0
	isb	sy
	dsb	sy

	@NO_APP
	str	r0, [sp, #32]
.Ltmp61:
	.loc	2 330 51                        @ ../Middlewares/Third_Party/FreeRTOS/Source/timers.c:330:51
	b	.LBB5_5
.LBB5_5:                                @ =>This Inner Loop Header: Depth=1
.Ltmp62:
	.loc	2 330 51 is_stmt 0              @ ../Middlewares/Third_Party/FreeRTOS/Source/timers.c:330:51
	b	.LBB5_5
.Ltmp63:
.LBB5_6:
	.loc	2 331 30 is_stmt 1              @ ../Middlewares/Third_Party/FreeRTOS/Source/timers.c:331:30
	ldr	r0, [sp, #52]
	.loc	2 331 14 is_stmt 0              @ ../Middlewares/Third_Party/FreeRTOS/Source/timers.c:331:14
	str	r0, [sp, #12]
.Ltmp64:
	.loc	2 333 7 is_stmt 1               @ ../Middlewares/Third_Party/FreeRTOS/Source/timers.c:333:7
	ldr	r0, [sp, #12]
.Ltmp65:
	.loc	2 333 7 is_stmt 0               @ ../Middlewares/Third_Party/FreeRTOS/Source/timers.c:333:7
	cbz	r0, .LBB5_8
	b	.LBB5_7
.LBB5_7:
.Ltmp66:
	.loc	2 338 4 is_stmt 1               @ ../Middlewares/Third_Party/FreeRTOS/Source/timers.c:338:4
	ldr	r1, [sp, #12]
	movs	r0, #2
	.loc	2 338 25 is_stmt 0              @ ../Middlewares/Third_Party/FreeRTOS/Source/timers.c:338:25
	strb.w	r0, [r1, #36]
	.loc	2 340 27 is_stmt 1              @ ../Middlewares/Third_Party/FreeRTOS/Source/timers.c:340:27
	ldr	r0, [sp, #28]
	.loc	2 340 40 is_stmt 0              @ ../Middlewares/Third_Party/FreeRTOS/Source/timers.c:340:40
	ldr	r1, [sp, #24]
	.loc	2 340 61                        @ ../Middlewares/Third_Party/FreeRTOS/Source/timers.c:340:61
	ldr	r2, [sp, #20]
	.loc	2 340 75                        @ ../Middlewares/Third_Party/FreeRTOS/Source/timers.c:340:75
	ldr	r3, [sp, #16]
	.loc	2 340 86                        @ ../Middlewares/Third_Party/FreeRTOS/Source/timers.c:340:86
	ldr.w	r12, [sp, #48]
	.loc	2 340 106                       @ ../Middlewares/Third_Party/FreeRTOS/Source/timers.c:340:106
	ldr	r4, [sp, #12]
	.loc	2 340 4                         @ ../Middlewares/Third_Party/FreeRTOS/Source/timers.c:340:4
	mov	lr, sp
	str.w	r4, [lr, #4]
	str.w	r12, [lr]
	bl	prvInitialiseNewTimer
	.loc	2 341 3 is_stmt 1               @ ../Middlewares/Third_Party/FreeRTOS/Source/timers.c:341:3
	b	.LBB5_8
.Ltmp67:
.LBB5_8:
	.loc	2 343 10                        @ ../Middlewares/Third_Party/FreeRTOS/Source/timers.c:343:10
	ldr	r0, [sp, #12]
	.loc	2 343 3 is_stmt 0               @ ../Middlewares/Third_Party/FreeRTOS/Source/timers.c:343:3
	add	sp, #40
	pop	{r4, pc}
.Ltmp68:
.Lfunc_end5:
	.size	xTimerCreateStatic, .Lfunc_end5-xTimerCreateStatic
	.cfi_endproc
	.cantunwind
	.fnend
                                        @ -- End function
	.section	.text.xTimerGenericCommand,"ax",%progbits
	.hidden	xTimerGenericCommand            @ -- Begin function xTimerGenericCommand
	.globl	xTimerGenericCommand
	.p2align	2
	.type	xTimerGenericCommand,%function
	.code	16                              @ @xTimerGenericCommand
	.thumb_func
xTimerGenericCommand:
.Lfunc_begin6:
	.loc	2 382 0 is_stmt 1               @ ../Middlewares/Third_Party/FreeRTOS/Source/timers.c:382:0
	.fnstart
	.cfi_startproc
@ %bb.0:
	.save	{r7, lr}
	push	{r7, lr}
	.cfi_def_cfa_offset 8
	.cfi_offset lr, -4
	.cfi_offset r7, -8
	.pad	#40
	sub	sp, #40
	.cfi_def_cfa_offset 48
	ldr.w	r12, [sp, #48]
	str	r0, [sp, #32]
	str	r1, [sp, #28]
	str	r2, [sp, #24]
	str	r3, [sp, #20]
	movs	r0, #0
.Ltmp69:
	.loc	2 383 12 prologue_end           @ ../Middlewares/Third_Party/FreeRTOS/Source/timers.c:383:12
	str	r0, [sp, #16]
.Ltmp70:
	.loc	2 386 7                         @ ../Middlewares/Third_Party/FreeRTOS/Source/timers.c:386:7
	ldr	r0, [sp, #32]
.Ltmp71:
	.loc	2 386 6 is_stmt 0               @ ../Middlewares/Third_Party/FreeRTOS/Source/timers.c:386:6
	cbnz	r0, .LBB6_3
	b	.LBB6_1
.LBB6_1:
.Ltmp72:
	.loc	4 195 2 is_stmt 1               @ ../Middlewares/Third_Party/FreeRTOS/Source/portable/RVDS/ARM_CM4F\portmacro.h:195:2
	@APP
	mov.w	r0, #80
	msr	basepri, r0
	isb	sy
	dsb	sy

	@NO_APP
	str	r0, [sp, #36]
.Ltmp73:
	.loc	2 386 43                        @ ../Middlewares/Third_Party/FreeRTOS/Source/timers.c:386:43
	b	.LBB6_2
.LBB6_2:                                @ =>This Inner Loop Header: Depth=1
.Ltmp74:
	.loc	2 386 43 is_stmt 0              @ ../Middlewares/Third_Party/FreeRTOS/Source/timers.c:386:43
	b	.LBB6_2
.Ltmp75:
.LBB6_3:
	.loc	2 390 6 is_stmt 1               @ ../Middlewares/Third_Party/FreeRTOS/Source/timers.c:390:6
	movw	r0, :lower16:xTimerQueue
	movt	r0, :upper16:xTimerQueue
	ldr	r0, [r0]
.Ltmp76:
	.loc	2 390 6 is_stmt 0               @ ../Middlewares/Third_Party/FreeRTOS/Source/timers.c:390:6
	cbz	r0, .LBB6_11
	b	.LBB6_4
.LBB6_4:
.Ltmp77:
	.loc	2 393 25 is_stmt 1              @ ../Middlewares/Third_Party/FreeRTOS/Source/timers.c:393:25
	ldr	r0, [sp, #28]
	.loc	2 393 23 is_stmt 0              @ ../Middlewares/Third_Party/FreeRTOS/Source/timers.c:393:23
	str	r0, [sp]
	.loc	2 394 47 is_stmt 1              @ ../Middlewares/Third_Party/FreeRTOS/Source/timers.c:394:47
	ldr	r0, [sp, #24]
	.loc	2 394 45 is_stmt 0              @ ../Middlewares/Third_Party/FreeRTOS/Source/timers.c:394:45
	str	r0, [sp, #4]
	.loc	2 395 41 is_stmt 1              @ ../Middlewares/Third_Party/FreeRTOS/Source/timers.c:395:41
	ldr	r0, [sp, #32]
	.loc	2 395 39 is_stmt 0              @ ../Middlewares/Third_Party/FreeRTOS/Source/timers.c:395:39
	str	r0, [sp, #8]
.Ltmp78:
	.loc	2 397 7 is_stmt 1               @ ../Middlewares/Third_Party/FreeRTOS/Source/timers.c:397:7
	ldr	r0, [sp, #28]
.Ltmp79:
	.loc	2 397 7 is_stmt 0               @ ../Middlewares/Third_Party/FreeRTOS/Source/timers.c:397:7
	cmp	r0, #5
	bgt	.LBB6_9
	b	.LBB6_5
.LBB6_5:
.Ltmp80:
	.loc	2 399 8 is_stmt 1               @ ../Middlewares/Third_Party/FreeRTOS/Source/timers.c:399:8
	bl	xTaskGetSchedulerState
.Ltmp81:
	.loc	2 399 8 is_stmt 0               @ ../Middlewares/Third_Party/FreeRTOS/Source/timers.c:399:8
	cmp	r0, #2
	bne	.LBB6_7
	b	.LBB6_6
.LBB6_6:
.Ltmp82:
	.loc	2 401 36 is_stmt 1              @ ../Middlewares/Third_Party/FreeRTOS/Source/timers.c:401:36
	movw	r0, :lower16:xTimerQueue
	movt	r0, :upper16:xTimerQueue
	ldr	r0, [r0]
	.loc	2 401 68 is_stmt 0              @ ../Middlewares/Third_Party/FreeRTOS/Source/timers.c:401:68
	ldr	r2, [sp, #48]
	mov	r1, sp
	movs	r3, #0
	.loc	2 401 15                        @ ../Middlewares/Third_Party/FreeRTOS/Source/timers.c:401:15
	bl	xQueueGenericSend
	.loc	2 401 13                        @ ../Middlewares/Third_Party/FreeRTOS/Source/timers.c:401:13
	str	r0, [sp, #16]
	.loc	2 402 4 is_stmt 1               @ ../Middlewares/Third_Party/FreeRTOS/Source/timers.c:402:4
	b	.LBB6_8
.Ltmp83:
.LBB6_7:
	.loc	2 405 36                        @ ../Middlewares/Third_Party/FreeRTOS/Source/timers.c:405:36
	movw	r0, :lower16:xTimerQueue
	movt	r0, :upper16:xTimerQueue
	ldr	r0, [r0]
	mov	r1, sp
	movs	r3, #0
	.loc	2 405 15 is_stmt 0              @ ../Middlewares/Third_Party/FreeRTOS/Source/timers.c:405:15
	mov	r2, r3
	bl	xQueueGenericSend
	.loc	2 405 13                        @ ../Middlewares/Third_Party/FreeRTOS/Source/timers.c:405:13
	str	r0, [sp, #16]
	b	.LBB6_8
.Ltmp84:
.LBB6_8:
	.loc	2 407 3 is_stmt 1               @ ../Middlewares/Third_Party/FreeRTOS/Source/timers.c:407:3
	b	.LBB6_10
.Ltmp85:
.LBB6_9:
	.loc	2 410 42                        @ ../Middlewares/Third_Party/FreeRTOS/Source/timers.c:410:42
	movw	r0, :lower16:xTimerQueue
	movt	r0, :upper16:xTimerQueue
	ldr	r0, [r0]
	.loc	2 410 74 is_stmt 0              @ ../Middlewares/Third_Party/FreeRTOS/Source/timers.c:410:74
	ldr	r2, [sp, #20]
	mov	r1, sp
	movs	r3, #0
	.loc	2 410 14                        @ ../Middlewares/Third_Party/FreeRTOS/Source/timers.c:410:14
	bl	xQueueGenericSendFromISR
	.loc	2 410 12                        @ ../Middlewares/Third_Party/FreeRTOS/Source/timers.c:410:12
	str	r0, [sp, #16]
	b	.LBB6_10
.Ltmp86:
.LBB6_10:
	.loc	2 414 2 is_stmt 1               @ ../Middlewares/Third_Party/FreeRTOS/Source/timers.c:414:2
	b	.LBB6_12
.Ltmp87:
.LBB6_11:
	.loc	2 0 2 is_stmt 0                 @ ../Middlewares/Third_Party/FreeRTOS/Source/timers.c:0:2
	b	.LBB6_12
.LBB6_12:
	.loc	2 420 9 is_stmt 1               @ ../Middlewares/Third_Party/FreeRTOS/Source/timers.c:420:9
	ldr	r0, [sp, #16]
	.loc	2 420 2 is_stmt 0               @ ../Middlewares/Third_Party/FreeRTOS/Source/timers.c:420:2
	add	sp, #40
	pop	{r7, pc}
.Ltmp88:
.Lfunc_end6:
	.size	xTimerGenericCommand, .Lfunc_end6-xTimerGenericCommand
	.cfi_endproc
	.cantunwind
	.fnend
                                        @ -- End function
	.section	.text.xTimerGetTimerDaemonTaskHandle,"ax",%progbits
	.hidden	xTimerGetTimerDaemonTaskHandle  @ -- Begin function xTimerGetTimerDaemonTaskHandle
	.globl	xTimerGetTimerDaemonTaskHandle
	.p2align	2
	.type	xTimerGetTimerDaemonTaskHandle,%function
	.code	16                              @ @xTimerGetTimerDaemonTaskHandle
	.thumb_func
xTimerGetTimerDaemonTaskHandle:
.Lfunc_begin7:
	.loc	2 425 0 is_stmt 1               @ ../Middlewares/Third_Party/FreeRTOS/Source/timers.c:425:0
	.fnstart
	.cfi_startproc
@ %bb.0:
	.pad	#4
	sub	sp, #4
	.cfi_def_cfa_offset 4
.Ltmp89:
	.loc	2 428 9 prologue_end            @ ../Middlewares/Third_Party/FreeRTOS/Source/timers.c:428:9
	movw	r0, :lower16:xTimerTaskHandle
	movt	r0, :upper16:xTimerTaskHandle
	ldr	r0, [r0]
.Ltmp90:
	.loc	2 428 6 is_stmt 0               @ ../Middlewares/Third_Party/FreeRTOS/Source/timers.c:428:6
	cbnz	r0, .LBB7_3
	b	.LBB7_1
.LBB7_1:
.Ltmp91:
	.loc	4 195 2 is_stmt 1               @ ../Middlewares/Third_Party/FreeRTOS/Source/portable/RVDS/ARM_CM4F\portmacro.h:195:2
	@APP
	mov.w	r0, #80
	msr	basepri, r0
	isb	sy
	dsb	sy

	@NO_APP
	str	r0, [sp]
.Ltmp92:
	.loc	2 428 62                        @ ../Middlewares/Third_Party/FreeRTOS/Source/timers.c:428:62
	b	.LBB7_2
.LBB7_2:                                @ =>This Inner Loop Header: Depth=1
.Ltmp93:
	.loc	2 428 62 is_stmt 0              @ ../Middlewares/Third_Party/FreeRTOS/Source/timers.c:428:62
	b	.LBB7_2
.Ltmp94:
.LBB7_3:
	.loc	2 429 9 is_stmt 1               @ ../Middlewares/Third_Party/FreeRTOS/Source/timers.c:429:9
	movw	r0, :lower16:xTimerTaskHandle
	movt	r0, :upper16:xTimerTaskHandle
	ldr	r0, [r0]
	.loc	2 429 2 is_stmt 0               @ ../Middlewares/Third_Party/FreeRTOS/Source/timers.c:429:2
	add	sp, #4
	bx	lr
.Ltmp95:
.Lfunc_end7:
	.size	xTimerGetTimerDaemonTaskHandle, .Lfunc_end7-xTimerGetTimerDaemonTaskHandle
	.cfi_endproc
	.cantunwind
	.fnend
                                        @ -- End function
	.section	.text.xTimerGetPeriod,"ax",%progbits
	.hidden	xTimerGetPeriod                 @ -- Begin function xTimerGetPeriod
	.globl	xTimerGetPeriod
	.p2align	2
	.type	xTimerGetPeriod,%function
	.code	16                              @ @xTimerGetPeriod
	.thumb_func
xTimerGetPeriod:
.Lfunc_begin8:
	.loc	2 434 0 is_stmt 1               @ ../Middlewares/Third_Party/FreeRTOS/Source/timers.c:434:0
	.fnstart
	.cfi_startproc
@ %bb.0:
	.pad	#12
	sub	sp, #12
	.cfi_def_cfa_offset 12
	str	r0, [sp, #4]
.Ltmp96:
	.loc	2 435 20 prologue_end           @ ../Middlewares/Third_Party/FreeRTOS/Source/timers.c:435:20
	ldr	r0, [sp, #4]
	.loc	2 435 10 is_stmt 0              @ ../Middlewares/Third_Party/FreeRTOS/Source/timers.c:435:10
	str	r0, [sp]
.Ltmp97:
	.loc	2 437 7 is_stmt 1               @ ../Middlewares/Third_Party/FreeRTOS/Source/timers.c:437:7
	ldr	r0, [sp, #4]
.Ltmp98:
	.loc	2 437 6 is_stmt 0               @ ../Middlewares/Third_Party/FreeRTOS/Source/timers.c:437:6
	cbnz	r0, .LBB8_3
	b	.LBB8_1
.LBB8_1:
.Ltmp99:
	.loc	4 195 2 is_stmt 1               @ ../Middlewares/Third_Party/FreeRTOS/Source/portable/RVDS/ARM_CM4F\portmacro.h:195:2
	@APP
	mov.w	r0, #80
	msr	basepri, r0
	isb	sy
	dsb	sy

	@NO_APP
	str	r0, [sp, #8]
.Ltmp100:
	.loc	2 437 43                        @ ../Middlewares/Third_Party/FreeRTOS/Source/timers.c:437:43
	b	.LBB8_2
.LBB8_2:                                @ =>This Inner Loop Header: Depth=1
.Ltmp101:
	.loc	2 437 43 is_stmt 0              @ ../Middlewares/Third_Party/FreeRTOS/Source/timers.c:437:43
	b	.LBB8_2
.Ltmp102:
.LBB8_3:
	.loc	2 438 9 is_stmt 1               @ ../Middlewares/Third_Party/FreeRTOS/Source/timers.c:438:9
	ldr	r0, [sp]
	.loc	2 438 18 is_stmt 0              @ ../Middlewares/Third_Party/FreeRTOS/Source/timers.c:438:18
	ldr	r0, [r0, #24]
	.loc	2 438 2                         @ ../Middlewares/Third_Party/FreeRTOS/Source/timers.c:438:2
	add	sp, #12
	bx	lr
.Ltmp103:
.Lfunc_end8:
	.size	xTimerGetPeriod, .Lfunc_end8-xTimerGetPeriod
	.cfi_endproc
	.cantunwind
	.fnend
                                        @ -- End function
	.section	.text.vTimerSetReloadMode,"ax",%progbits
	.hidden	vTimerSetReloadMode             @ -- Begin function vTimerSetReloadMode
	.globl	vTimerSetReloadMode
	.p2align	2
	.type	vTimerSetReloadMode,%function
	.code	16                              @ @vTimerSetReloadMode
	.thumb_func
vTimerSetReloadMode:
.Lfunc_begin9:
	.loc	2 443 0 is_stmt 1               @ ../Middlewares/Third_Party/FreeRTOS/Source/timers.c:443:0
	.fnstart
	.cfi_startproc
@ %bb.0:
	.save	{r7, lr}
	push	{r7, lr}
	.cfi_def_cfa_offset 8
	.cfi_offset lr, -4
	.cfi_offset r7, -8
	.pad	#16
	sub	sp, #16
	.cfi_def_cfa_offset 24
	str	r0, [sp, #8]
	str	r1, [sp, #4]
.Ltmp104:
	.loc	2 444 21 prologue_end           @ ../Middlewares/Third_Party/FreeRTOS/Source/timers.c:444:21
	ldr	r0, [sp, #8]
	.loc	2 444 11 is_stmt 0              @ ../Middlewares/Third_Party/FreeRTOS/Source/timers.c:444:11
	str	r0, [sp]
.Ltmp105:
	.loc	2 446 7 is_stmt 1               @ ../Middlewares/Third_Party/FreeRTOS/Source/timers.c:446:7
	ldr	r0, [sp, #8]
.Ltmp106:
	.loc	2 446 6 is_stmt 0               @ ../Middlewares/Third_Party/FreeRTOS/Source/timers.c:446:6
	cbnz	r0, .LBB9_3
	b	.LBB9_1
.LBB9_1:
.Ltmp107:
	.loc	4 195 2 is_stmt 1               @ ../Middlewares/Third_Party/FreeRTOS/Source/portable/RVDS/ARM_CM4F\portmacro.h:195:2
	@APP
	mov.w	r0, #80
	msr	basepri, r0
	isb	sy
	dsb	sy

	@NO_APP
	str	r0, [sp, #12]
.Ltmp108:
	.loc	2 446 43                        @ ../Middlewares/Third_Party/FreeRTOS/Source/timers.c:446:43
	b	.LBB9_2
.LBB9_2:                                @ =>This Inner Loop Header: Depth=1
.Ltmp109:
	.loc	2 446 43 is_stmt 0              @ ../Middlewares/Third_Party/FreeRTOS/Source/timers.c:446:43
	b	.LBB9_2
.Ltmp110:
.LBB9_3:
	.loc	2 447 2 is_stmt 1               @ ../Middlewares/Third_Party/FreeRTOS/Source/timers.c:447:2
	bl	vPortEnterCritical
.Ltmp111:
	.loc	2 449 7                         @ ../Middlewares/Third_Party/FreeRTOS/Source/timers.c:449:7
	ldr	r0, [sp, #4]
.Ltmp112:
	.loc	2 449 7 is_stmt 0               @ ../Middlewares/Third_Party/FreeRTOS/Source/timers.c:449:7
	cbz	r0, .LBB9_5
	b	.LBB9_4
.LBB9_4:
.Ltmp113:
	.loc	2 451 4 is_stmt 1               @ ../Middlewares/Third_Party/FreeRTOS/Source/timers.c:451:4
	ldr	r1, [sp]
	.loc	2 451 22 is_stmt 0              @ ../Middlewares/Third_Party/FreeRTOS/Source/timers.c:451:22
	ldrb.w	r0, [r1, #36]
	orr	r0, r0, #4
	strb.w	r0, [r1, #36]
	.loc	2 452 3 is_stmt 1               @ ../Middlewares/Third_Party/FreeRTOS/Source/timers.c:452:3
	b	.LBB9_6
.Ltmp114:
.LBB9_5:
	.loc	2 455 4                         @ ../Middlewares/Third_Party/FreeRTOS/Source/timers.c:455:4
	ldr	r1, [sp]
	.loc	2 455 22 is_stmt 0              @ ../Middlewares/Third_Party/FreeRTOS/Source/timers.c:455:22
	ldrb.w	r0, [r1, #36]
	and	r0, r0, #251
	strb.w	r0, [r1, #36]
	b	.LBB9_6
.Ltmp115:
.LBB9_6:
	.loc	2 458 2 is_stmt 1               @ ../Middlewares/Third_Party/FreeRTOS/Source/timers.c:458:2
	bl	vPortExitCritical
	.loc	2 459 1                         @ ../Middlewares/Third_Party/FreeRTOS/Source/timers.c:459:1
	add	sp, #16
	pop	{r7, pc}
.Ltmp116:
.Lfunc_end9:
	.size	vTimerSetReloadMode, .Lfunc_end9-vTimerSetReloadMode
	.cfi_endproc
	.cantunwind
	.fnend
                                        @ -- End function
	.section	.text.uxTimerGetReloadMode,"ax",%progbits
	.hidden	uxTimerGetReloadMode            @ -- Begin function uxTimerGetReloadMode
	.globl	uxTimerGetReloadMode
	.p2align	2
	.type	uxTimerGetReloadMode,%function
	.code	16                              @ @uxTimerGetReloadMode
	.thumb_func
uxTimerGetReloadMode:
.Lfunc_begin10:
	.loc	2 463 0                         @ ../Middlewares/Third_Party/FreeRTOS/Source/timers.c:463:0
	.fnstart
	.cfi_startproc
@ %bb.0:
	.save	{r7, lr}
	push	{r7, lr}
	.cfi_def_cfa_offset 8
	.cfi_offset lr, -4
	.cfi_offset r7, -8
	.pad	#16
	sub	sp, #16
	.cfi_def_cfa_offset 24
	str	r0, [sp, #8]
.Ltmp117:
	.loc	2 464 21 prologue_end           @ ../Middlewares/Third_Party/FreeRTOS/Source/timers.c:464:21
	ldr	r0, [sp, #8]
	.loc	2 464 11 is_stmt 0              @ ../Middlewares/Third_Party/FreeRTOS/Source/timers.c:464:11
	str	r0, [sp, #4]
.Ltmp118:
	.loc	2 467 7 is_stmt 1               @ ../Middlewares/Third_Party/FreeRTOS/Source/timers.c:467:7
	ldr	r0, [sp, #8]
.Ltmp119:
	.loc	2 467 6 is_stmt 0               @ ../Middlewares/Third_Party/FreeRTOS/Source/timers.c:467:6
	cbnz	r0, .LBB10_3
	b	.LBB10_1
.LBB10_1:
.Ltmp120:
	.loc	4 195 2 is_stmt 1               @ ../Middlewares/Third_Party/FreeRTOS/Source/portable/RVDS/ARM_CM4F\portmacro.h:195:2
	@APP
	mov.w	r0, #80
	msr	basepri, r0
	isb	sy
	dsb	sy

	@NO_APP
	str	r0, [sp, #12]
.Ltmp121:
	.loc	2 467 43                        @ ../Middlewares/Third_Party/FreeRTOS/Source/timers.c:467:43
	b	.LBB10_2
.LBB10_2:                               @ =>This Inner Loop Header: Depth=1
.Ltmp122:
	.loc	2 467 43 is_stmt 0              @ ../Middlewares/Third_Party/FreeRTOS/Source/timers.c:467:43
	b	.LBB10_2
.Ltmp123:
.LBB10_3:
	.loc	2 468 2 is_stmt 1               @ ../Middlewares/Third_Party/FreeRTOS/Source/timers.c:468:2
	bl	vPortEnterCritical
.Ltmp124:
	.loc	2 470 9                         @ ../Middlewares/Third_Party/FreeRTOS/Source/timers.c:470:9
	ldr	r0, [sp, #4]
	ldrb.w	r0, [r0, #36]
.Ltmp125:
	.loc	2 470 7 is_stmt 0               @ ../Middlewares/Third_Party/FreeRTOS/Source/timers.c:470:7
	lsls	r0, r0, #29
	cmp	r0, #0
	bmi	.LBB10_5
	b	.LBB10_4
.LBB10_4:
	.loc	2 0 7                           @ ../Middlewares/Third_Party/FreeRTOS/Source/timers.c:0:7
	movs	r0, #0
.Ltmp126:
	.loc	2 473 13 is_stmt 1              @ ../Middlewares/Third_Party/FreeRTOS/Source/timers.c:473:13
	str	r0, [sp]
	.loc	2 474 3                         @ ../Middlewares/Third_Party/FreeRTOS/Source/timers.c:474:3
	b	.LBB10_6
.Ltmp127:
.LBB10_5:
	.loc	2 0 3 is_stmt 0                 @ ../Middlewares/Third_Party/FreeRTOS/Source/timers.c:0:3
	movs	r0, #1
.Ltmp128:
	.loc	2 478 13 is_stmt 1              @ ../Middlewares/Third_Party/FreeRTOS/Source/timers.c:478:13
	str	r0, [sp]
	b	.LBB10_6
.Ltmp129:
.LBB10_6:
	.loc	2 481 2                         @ ../Middlewares/Third_Party/FreeRTOS/Source/timers.c:481:2
	bl	vPortExitCritical
	.loc	2 483 9                         @ ../Middlewares/Third_Party/FreeRTOS/Source/timers.c:483:9
	ldr	r0, [sp]
	.loc	2 483 2 is_stmt 0               @ ../Middlewares/Third_Party/FreeRTOS/Source/timers.c:483:2
	add	sp, #16
	pop	{r7, pc}
.Ltmp130:
.Lfunc_end10:
	.size	uxTimerGetReloadMode, .Lfunc_end10-uxTimerGetReloadMode
	.cfi_endproc
	.cantunwind
	.fnend
                                        @ -- End function
	.section	.text.xTimerGetExpiryTime,"ax",%progbits
	.hidden	xTimerGetExpiryTime             @ -- Begin function xTimerGetExpiryTime
	.globl	xTimerGetExpiryTime
	.p2align	2
	.type	xTimerGetExpiryTime,%function
	.code	16                              @ @xTimerGetExpiryTime
	.thumb_func
xTimerGetExpiryTime:
.Lfunc_begin11:
	.loc	2 488 0 is_stmt 1               @ ../Middlewares/Third_Party/FreeRTOS/Source/timers.c:488:0
	.fnstart
	.cfi_startproc
@ %bb.0:
	.pad	#16
	sub	sp, #16
	.cfi_def_cfa_offset 16
	str	r0, [sp, #8]
.Ltmp131:
	.loc	2 489 21 prologue_end           @ ../Middlewares/Third_Party/FreeRTOS/Source/timers.c:489:21
	ldr	r0, [sp, #8]
	.loc	2 489 11 is_stmt 0              @ ../Middlewares/Third_Party/FreeRTOS/Source/timers.c:489:11
	str	r0, [sp, #4]
.Ltmp132:
	.loc	2 492 7 is_stmt 1               @ ../Middlewares/Third_Party/FreeRTOS/Source/timers.c:492:7
	ldr	r0, [sp, #8]
.Ltmp133:
	.loc	2 492 6 is_stmt 0               @ ../Middlewares/Third_Party/FreeRTOS/Source/timers.c:492:6
	cbnz	r0, .LBB11_3
	b	.LBB11_1
.LBB11_1:
.Ltmp134:
	.loc	4 195 2 is_stmt 1               @ ../Middlewares/Third_Party/FreeRTOS/Source/portable/RVDS/ARM_CM4F\portmacro.h:195:2
	@APP
	mov.w	r0, #80
	msr	basepri, r0
	isb	sy
	dsb	sy

	@NO_APP
	str	r0, [sp, #12]
.Ltmp135:
	.loc	2 492 43                        @ ../Middlewares/Third_Party/FreeRTOS/Source/timers.c:492:43
	b	.LBB11_2
.LBB11_2:                               @ =>This Inner Loop Header: Depth=1
.Ltmp136:
	.loc	2 492 43 is_stmt 0              @ ../Middlewares/Third_Party/FreeRTOS/Source/timers.c:492:43
	b	.LBB11_2
.Ltmp137:
.LBB11_3:
	.loc	2 493 19 is_stmt 1              @ ../Middlewares/Third_Party/FreeRTOS/Source/timers.c:493:19
	ldr	r0, [sp, #4]
	.loc	2 493 48 is_stmt 0              @ ../Middlewares/Third_Party/FreeRTOS/Source/timers.c:493:48
	ldr	r0, [r0, #4]
	.loc	2 493 10                        @ ../Middlewares/Third_Party/FreeRTOS/Source/timers.c:493:10
	str	r0, [sp]
	.loc	2 494 9 is_stmt 1               @ ../Middlewares/Third_Party/FreeRTOS/Source/timers.c:494:9
	ldr	r0, [sp]
	.loc	2 494 2 is_stmt 0               @ ../Middlewares/Third_Party/FreeRTOS/Source/timers.c:494:2
	add	sp, #16
	bx	lr
.Ltmp138:
.Lfunc_end11:
	.size	xTimerGetExpiryTime, .Lfunc_end11-xTimerGetExpiryTime
	.cfi_endproc
	.cantunwind
	.fnend
                                        @ -- End function
	.section	.text.pcTimerGetName,"ax",%progbits
	.hidden	pcTimerGetName                  @ -- Begin function pcTimerGetName
	.globl	pcTimerGetName
	.p2align	2
	.type	pcTimerGetName,%function
	.code	16                              @ @pcTimerGetName
	.thumb_func
pcTimerGetName:
.Lfunc_begin12:
	.loc	2 499 0 is_stmt 1               @ ../Middlewares/Third_Party/FreeRTOS/Source/timers.c:499:0
	.fnstart
	.cfi_startproc
@ %bb.0:
	.pad	#12
	sub	sp, #12
	.cfi_def_cfa_offset 12
	str	r0, [sp, #4]
.Ltmp139:
	.loc	2 500 20 prologue_end           @ ../Middlewares/Third_Party/FreeRTOS/Source/timers.c:500:20
	ldr	r0, [sp, #4]
	.loc	2 500 10 is_stmt 0              @ ../Middlewares/Third_Party/FreeRTOS/Source/timers.c:500:10
	str	r0, [sp]
.Ltmp140:
	.loc	2 502 7 is_stmt 1               @ ../Middlewares/Third_Party/FreeRTOS/Source/timers.c:502:7
	ldr	r0, [sp, #4]
.Ltmp141:
	.loc	2 502 6 is_stmt 0               @ ../Middlewares/Third_Party/FreeRTOS/Source/timers.c:502:6
	cbnz	r0, .LBB12_3
	b	.LBB12_1
.LBB12_1:
.Ltmp142:
	.loc	4 195 2 is_stmt 1               @ ../Middlewares/Third_Party/FreeRTOS/Source/portable/RVDS/ARM_CM4F\portmacro.h:195:2
	@APP
	mov.w	r0, #80
	msr	basepri, r0
	isb	sy
	dsb	sy

	@NO_APP
	str	r0, [sp, #8]
.Ltmp143:
	.loc	2 502 43                        @ ../Middlewares/Third_Party/FreeRTOS/Source/timers.c:502:43
	b	.LBB12_2
.LBB12_2:                               @ =>This Inner Loop Header: Depth=1
.Ltmp144:
	.loc	2 502 43 is_stmt 0              @ ../Middlewares/Third_Party/FreeRTOS/Source/timers.c:502:43
	b	.LBB12_2
.Ltmp145:
.LBB12_3:
	.loc	2 503 9 is_stmt 1               @ ../Middlewares/Third_Party/FreeRTOS/Source/timers.c:503:9
	ldr	r0, [sp]
	.loc	2 503 18 is_stmt 0              @ ../Middlewares/Third_Party/FreeRTOS/Source/timers.c:503:18
	ldr	r0, [r0]
	.loc	2 503 2                         @ ../Middlewares/Third_Party/FreeRTOS/Source/timers.c:503:2
	add	sp, #12
	bx	lr
.Ltmp146:
.Lfunc_end12:
	.size	pcTimerGetName, .Lfunc_end12-pcTimerGetName
	.cfi_endproc
	.cantunwind
	.fnend
                                        @ -- End function
	.section	.text.xTimerIsTimerActive,"ax",%progbits
	.hidden	xTimerIsTimerActive             @ -- Begin function xTimerIsTimerActive
	.globl	xTimerIsTimerActive
	.p2align	2
	.type	xTimerIsTimerActive,%function
	.code	16                              @ @xTimerIsTimerActive
	.thumb_func
xTimerIsTimerActive:
.Lfunc_begin13:
	.loc	2 993 0 is_stmt 1               @ ../Middlewares/Third_Party/FreeRTOS/Source/timers.c:993:0
	.fnstart
	.cfi_startproc
@ %bb.0:
	.save	{r7, lr}
	push	{r7, lr}
	.cfi_def_cfa_offset 8
	.cfi_offset lr, -4
	.cfi_offset r7, -8
	.pad	#16
	sub	sp, #16
	.cfi_def_cfa_offset 24
	str	r0, [sp, #8]
.Ltmp147:
	.loc	2 995 20 prologue_end           @ ../Middlewares/Third_Party/FreeRTOS/Source/timers.c:995:20
	ldr	r0, [sp, #8]
	.loc	2 995 10 is_stmt 0              @ ../Middlewares/Third_Party/FreeRTOS/Source/timers.c:995:10
	str	r0, [sp]
.Ltmp148:
	.loc	2 997 7 is_stmt 1               @ ../Middlewares/Third_Party/FreeRTOS/Source/timers.c:997:7
	ldr	r0, [sp, #8]
.Ltmp149:
	.loc	2 997 6 is_stmt 0               @ ../Middlewares/Third_Party/FreeRTOS/Source/timers.c:997:6
	cbnz	r0, .LBB13_3
	b	.LBB13_1
.LBB13_1:
.Ltmp150:
	.loc	4 195 2 is_stmt 1               @ ../Middlewares/Third_Party/FreeRTOS/Source/portable/RVDS/ARM_CM4F\portmacro.h:195:2
	@APP
	mov.w	r0, #80
	msr	basepri, r0
	isb	sy
	dsb	sy

	@NO_APP
	str	r0, [sp, #12]
.Ltmp151:
	.loc	2 997 43                        @ ../Middlewares/Third_Party/FreeRTOS/Source/timers.c:997:43
	b	.LBB13_2
.LBB13_2:                               @ =>This Inner Loop Header: Depth=1
.Ltmp152:
	.loc	2 997 43 is_stmt 0              @ ../Middlewares/Third_Party/FreeRTOS/Source/timers.c:997:43
	b	.LBB13_2
.Ltmp153:
.LBB13_3:
	.loc	2 1000 2 is_stmt 1              @ ../Middlewares/Third_Party/FreeRTOS/Source/timers.c:1000:2
	bl	vPortEnterCritical
.Ltmp154:
	.loc	2 1002 9                        @ ../Middlewares/Third_Party/FreeRTOS/Source/timers.c:1002:9
	ldr	r0, [sp]
	ldrb.w	r0, [r0, #36]
.Ltmp155:
	.loc	2 1002 7 is_stmt 0              @ ../Middlewares/Third_Party/FreeRTOS/Source/timers.c:1002:7
	lsls	r0, r0, #31
	cbnz	r0, .LBB13_5
	b	.LBB13_4
.LBB13_4:
	.loc	2 0 7                           @ ../Middlewares/Third_Party/FreeRTOS/Source/timers.c:0:7
	movs	r0, #0
.Ltmp156:
	.loc	2 1004 12 is_stmt 1             @ ../Middlewares/Third_Party/FreeRTOS/Source/timers.c:1004:12
	str	r0, [sp, #4]
	.loc	2 1005 3                        @ ../Middlewares/Third_Party/FreeRTOS/Source/timers.c:1005:3
	b	.LBB13_6
.Ltmp157:
.LBB13_5:
	.loc	2 0 3 is_stmt 0                 @ ../Middlewares/Third_Party/FreeRTOS/Source/timers.c:0:3
	movs	r0, #1
.Ltmp158:
	.loc	2 1008 12 is_stmt 1             @ ../Middlewares/Third_Party/FreeRTOS/Source/timers.c:1008:12
	str	r0, [sp, #4]
	b	.LBB13_6
.Ltmp159:
.LBB13_6:
	.loc	2 1011 2                        @ ../Middlewares/Third_Party/FreeRTOS/Source/timers.c:1011:2
	bl	vPortExitCritical
	.loc	2 1013 9                        @ ../Middlewares/Third_Party/FreeRTOS/Source/timers.c:1013:9
	ldr	r0, [sp, #4]
	.loc	2 1013 2 is_stmt 0              @ ../Middlewares/Third_Party/FreeRTOS/Source/timers.c:1013:2
	add	sp, #16
	pop	{r7, pc}
.Ltmp160:
.Lfunc_end13:
	.size	xTimerIsTimerActive, .Lfunc_end13-xTimerIsTimerActive
	.cfi_endproc
	.cantunwind
	.fnend
                                        @ -- End function
	.section	.text.pvTimerGetTimerID,"ax",%progbits
	.hidden	pvTimerGetTimerID               @ -- Begin function pvTimerGetTimerID
	.globl	pvTimerGetTimerID
	.p2align	2
	.type	pvTimerGetTimerID,%function
	.code	16                              @ @pvTimerGetTimerID
	.thumb_func
pvTimerGetTimerID:
.Lfunc_begin14:
	.loc	2 1018 0 is_stmt 1              @ ../Middlewares/Third_Party/FreeRTOS/Source/timers.c:1018:0
	.fnstart
	.cfi_startproc
@ %bb.0:
	.save	{r7, lr}
	push	{r7, lr}
	.cfi_def_cfa_offset 8
	.cfi_offset lr, -4
	.cfi_offset r7, -8
	.pad	#16
	sub	sp, #16
	.cfi_def_cfa_offset 24
	str	r0, [sp, #8]
.Ltmp161:
	.loc	2 1019 27 prologue_end          @ ../Middlewares/Third_Party/FreeRTOS/Source/timers.c:1019:27
	ldr	r0, [sp, #8]
	.loc	2 1019 17 is_stmt 0             @ ../Middlewares/Third_Party/FreeRTOS/Source/timers.c:1019:17
	str	r0, [sp, #4]
.Ltmp162:
	.loc	2 1022 7 is_stmt 1              @ ../Middlewares/Third_Party/FreeRTOS/Source/timers.c:1022:7
	ldr	r0, [sp, #8]
.Ltmp163:
	.loc	2 1022 6 is_stmt 0              @ ../Middlewares/Third_Party/FreeRTOS/Source/timers.c:1022:6
	cbnz	r0, .LBB14_3
	b	.LBB14_1
.LBB14_1:
.Ltmp164:
	.loc	4 195 2 is_stmt 1               @ ../Middlewares/Third_Party/FreeRTOS/Source/portable/RVDS/ARM_CM4F\portmacro.h:195:2
	@APP
	mov.w	r0, #80
	msr	basepri, r0
	isb	sy
	dsb	sy

	@NO_APP
	str	r0, [sp, #12]
.Ltmp165:
	.loc	2 1022 43                       @ ../Middlewares/Third_Party/FreeRTOS/Source/timers.c:1022:43
	b	.LBB14_2
.LBB14_2:                               @ =>This Inner Loop Header: Depth=1
.Ltmp166:
	.loc	2 1022 43 is_stmt 0             @ ../Middlewares/Third_Party/FreeRTOS/Source/timers.c:1022:43
	b	.LBB14_2
.Ltmp167:
.LBB14_3:
	.loc	2 1024 2 is_stmt 1              @ ../Middlewares/Third_Party/FreeRTOS/Source/timers.c:1024:2
	bl	vPortEnterCritical
.Ltmp168:
	.loc	2 1026 14                       @ ../Middlewares/Third_Party/FreeRTOS/Source/timers.c:1026:14
	ldr	r0, [sp, #4]
	.loc	2 1026 23 is_stmt 0             @ ../Middlewares/Third_Party/FreeRTOS/Source/timers.c:1026:23
	ldr	r0, [r0, #28]
	.loc	2 1026 12                       @ ../Middlewares/Third_Party/FreeRTOS/Source/timers.c:1026:12
	str	r0, [sp]
.Ltmp169:
	.loc	2 1028 2 is_stmt 1              @ ../Middlewares/Third_Party/FreeRTOS/Source/timers.c:1028:2
	bl	vPortExitCritical
	.loc	2 1030 9                        @ ../Middlewares/Third_Party/FreeRTOS/Source/timers.c:1030:9
	ldr	r0, [sp]
	.loc	2 1030 2 is_stmt 0              @ ../Middlewares/Third_Party/FreeRTOS/Source/timers.c:1030:2
	add	sp, #16
	pop	{r7, pc}
.Ltmp170:
.Lfunc_end14:
	.size	pvTimerGetTimerID, .Lfunc_end14-pvTimerGetTimerID
	.cfi_endproc
	.cantunwind
	.fnend
                                        @ -- End function
	.section	.text.vTimerSetTimerID,"ax",%progbits
	.hidden	vTimerSetTimerID                @ -- Begin function vTimerSetTimerID
	.globl	vTimerSetTimerID
	.p2align	2
	.type	vTimerSetTimerID,%function
	.code	16                              @ @vTimerSetTimerID
	.thumb_func
vTimerSetTimerID:
.Lfunc_begin15:
	.loc	2 1035 0 is_stmt 1              @ ../Middlewares/Third_Party/FreeRTOS/Source/timers.c:1035:0
	.fnstart
	.cfi_startproc
@ %bb.0:
	.save	{r7, lr}
	push	{r7, lr}
	.cfi_def_cfa_offset 8
	.cfi_offset lr, -4
	.cfi_offset r7, -8
	.pad	#16
	sub	sp, #16
	.cfi_def_cfa_offset 24
	str	r0, [sp, #8]
	str	r1, [sp, #4]
.Ltmp171:
	.loc	2 1036 27 prologue_end          @ ../Middlewares/Third_Party/FreeRTOS/Source/timers.c:1036:27
	ldr	r0, [sp, #8]
	.loc	2 1036 17 is_stmt 0             @ ../Middlewares/Third_Party/FreeRTOS/Source/timers.c:1036:17
	str	r0, [sp]
.Ltmp172:
	.loc	2 1038 7 is_stmt 1              @ ../Middlewares/Third_Party/FreeRTOS/Source/timers.c:1038:7
	ldr	r0, [sp, #8]
.Ltmp173:
	.loc	2 1038 6 is_stmt 0              @ ../Middlewares/Third_Party/FreeRTOS/Source/timers.c:1038:6
	cbnz	r0, .LBB15_3
	b	.LBB15_1
.LBB15_1:
.Ltmp174:
	.loc	4 195 2 is_stmt 1               @ ../Middlewares/Third_Party/FreeRTOS/Source/portable/RVDS/ARM_CM4F\portmacro.h:195:2
	@APP
	mov.w	r0, #80
	msr	basepri, r0
	isb	sy
	dsb	sy

	@NO_APP
	str	r0, [sp, #12]
.Ltmp175:
	.loc	2 1038 43                       @ ../Middlewares/Third_Party/FreeRTOS/Source/timers.c:1038:43
	b	.LBB15_2
.LBB15_2:                               @ =>This Inner Loop Header: Depth=1
.Ltmp176:
	.loc	2 1038 43 is_stmt 0             @ ../Middlewares/Third_Party/FreeRTOS/Source/timers.c:1038:43
	b	.LBB15_2
.Ltmp177:
.LBB15_3:
	.loc	2 1040 2 is_stmt 1              @ ../Middlewares/Third_Party/FreeRTOS/Source/timers.c:1040:2
	bl	vPortEnterCritical
.Ltmp178:
	.loc	2 1042 24                       @ ../Middlewares/Third_Party/FreeRTOS/Source/timers.c:1042:24
	ldr	r0, [sp, #4]
	.loc	2 1042 3 is_stmt 0              @ ../Middlewares/Third_Party/FreeRTOS/Source/timers.c:1042:3
	ldr	r1, [sp]
	.loc	2 1042 22                       @ ../Middlewares/Third_Party/FreeRTOS/Source/timers.c:1042:22
	str	r0, [r1, #28]
.Ltmp179:
	.loc	2 1044 2 is_stmt 1              @ ../Middlewares/Third_Party/FreeRTOS/Source/timers.c:1044:2
	bl	vPortExitCritical
	.loc	2 1045 1                        @ ../Middlewares/Third_Party/FreeRTOS/Source/timers.c:1045:1
	add	sp, #16
	pop	{r7, pc}
.Ltmp180:
.Lfunc_end15:
	.size	vTimerSetTimerID, .Lfunc_end15-vTimerSetTimerID
	.cfi_endproc
	.cantunwind
	.fnend
                                        @ -- End function
	.section	.text.xTimerPendFunctionCallFromISR,"ax",%progbits
	.hidden	xTimerPendFunctionCallFromISR   @ -- Begin function xTimerPendFunctionCallFromISR
	.globl	xTimerPendFunctionCallFromISR
	.p2align	2
	.type	xTimerPendFunctionCallFromISR,%function
	.code	16                              @ @xTimerPendFunctionCallFromISR
	.thumb_func
xTimerPendFunctionCallFromISR:
.Lfunc_begin16:
	.loc	2 1051 0                        @ ../Middlewares/Third_Party/FreeRTOS/Source/timers.c:1051:0
	.fnstart
	.cfi_startproc
@ %bb.0:
	.save	{r7, lr}
	push	{r7, lr}
	.cfi_def_cfa_offset 8
	.cfi_offset lr, -4
	.cfi_offset r7, -8
	.pad	#40
	sub	sp, #40
	.cfi_def_cfa_offset 48
	str	r0, [sp, #36]
	str	r1, [sp, #32]
	str	r2, [sp, #28]
	str	r3, [sp, #24]
	mvn	r0, #1
.Ltmp181:
	.loc	2 1057 23 prologue_end          @ ../Middlewares/Third_Party/FreeRTOS/Source/timers.c:1057:23
	str	r0, [sp, #8]
	.loc	2 1058 55                       @ ../Middlewares/Third_Party/FreeRTOS/Source/timers.c:1058:55
	ldr	r0, [sp, #36]
	.loc	2 1058 53 is_stmt 0             @ ../Middlewares/Third_Party/FreeRTOS/Source/timers.c:1058:53
	str	r0, [sp, #12]
	.loc	2 1059 49 is_stmt 1             @ ../Middlewares/Third_Party/FreeRTOS/Source/timers.c:1059:49
	ldr	r0, [sp, #32]
	.loc	2 1059 47 is_stmt 0             @ ../Middlewares/Third_Party/FreeRTOS/Source/timers.c:1059:47
	str	r0, [sp, #16]
	.loc	2 1060 49 is_stmt 1             @ ../Middlewares/Third_Party/FreeRTOS/Source/timers.c:1060:49
	ldr	r0, [sp, #28]
	.loc	2 1060 47 is_stmt 0             @ ../Middlewares/Third_Party/FreeRTOS/Source/timers.c:1060:47
	str	r0, [sp, #20]
	.loc	2 1062 41 is_stmt 1             @ ../Middlewares/Third_Party/FreeRTOS/Source/timers.c:1062:41
	movw	r0, :lower16:xTimerQueue
	movt	r0, :upper16:xTimerQueue
	ldr	r0, [r0]
	.loc	2 1062 73 is_stmt 0             @ ../Middlewares/Third_Party/FreeRTOS/Source/timers.c:1062:73
	ldr	r2, [sp, #24]
	add	r1, sp, #8
	movs	r3, #0
	.loc	2 1062 13                       @ ../Middlewares/Third_Party/FreeRTOS/Source/timers.c:1062:13
	bl	xQueueGenericSendFromISR
	.loc	2 1062 11                       @ ../Middlewares/Third_Party/FreeRTOS/Source/timers.c:1062:11
	str	r0, [sp, #4]
	.loc	2 1066 10 is_stmt 1             @ ../Middlewares/Third_Party/FreeRTOS/Source/timers.c:1066:10
	ldr	r0, [sp, #4]
	.loc	2 1066 3 is_stmt 0              @ ../Middlewares/Third_Party/FreeRTOS/Source/timers.c:1066:3
	add	sp, #40
	pop	{r7, pc}
.Ltmp182:
.Lfunc_end16:
	.size	xTimerPendFunctionCallFromISR, .Lfunc_end16-xTimerPendFunctionCallFromISR
	.cfi_endproc
	.cantunwind
	.fnend
                                        @ -- End function
	.section	.text.xTimerPendFunctionCall,"ax",%progbits
	.hidden	xTimerPendFunctionCall          @ -- Begin function xTimerPendFunctionCall
	.globl	xTimerPendFunctionCall
	.p2align	2
	.type	xTimerPendFunctionCall,%function
	.code	16                              @ @xTimerPendFunctionCall
	.thumb_func
xTimerPendFunctionCall:
.Lfunc_begin17:
	.loc	2 1075 0 is_stmt 1              @ ../Middlewares/Third_Party/FreeRTOS/Source/timers.c:1075:0
	.fnstart
	.cfi_startproc
@ %bb.0:
	.save	{r7, lr}
	push	{r7, lr}
	.cfi_def_cfa_offset 8
	.cfi_offset lr, -4
	.cfi_offset r7, -8
	.pad	#40
	sub	sp, #40
	.cfi_def_cfa_offset 48
	str	r0, [sp, #32]
	str	r1, [sp, #28]
	str	r2, [sp, #24]
	str	r3, [sp, #20]
.Ltmp183:
	.loc	2 1082 8 prologue_end           @ ../Middlewares/Third_Party/FreeRTOS/Source/timers.c:1082:8
	movw	r0, :lower16:xTimerQueue
	movt	r0, :upper16:xTimerQueue
	ldr	r0, [r0]
.Ltmp184:
	.loc	2 1082 7 is_stmt 0              @ ../Middlewares/Third_Party/FreeRTOS/Source/timers.c:1082:7
	cbnz	r0, .LBB17_3
	b	.LBB17_1
.LBB17_1:
.Ltmp185:
	.loc	4 195 2 is_stmt 1               @ ../Middlewares/Third_Party/FreeRTOS/Source/portable/RVDS/ARM_CM4F\portmacro.h:195:2
	@APP
	mov.w	r0, #80
	msr	basepri, r0
	isb	sy
	dsb	sy

	@NO_APP
	str	r0, [sp, #36]
.Ltmp186:
	.loc	2 1082 49                       @ ../Middlewares/Third_Party/FreeRTOS/Source/timers.c:1082:49
	b	.LBB17_2
.LBB17_2:                               @ =>This Inner Loop Header: Depth=1
.Ltmp187:
	.loc	2 1082 49 is_stmt 0             @ ../Middlewares/Third_Party/FreeRTOS/Source/timers.c:1082:49
	b	.LBB17_2
.Ltmp188:
.LBB17_3:
	.loc	2 0 49                          @ ../Middlewares/Third_Party/FreeRTOS/Source/timers.c:0:49
	mov.w	r0, #-1
	.loc	2 1086 23 is_stmt 1             @ ../Middlewares/Third_Party/FreeRTOS/Source/timers.c:1086:23
	str	r0, [sp, #4]
	.loc	2 1087 55                       @ ../Middlewares/Third_Party/FreeRTOS/Source/timers.c:1087:55
	ldr	r0, [sp, #32]
	.loc	2 1087 53 is_stmt 0             @ ../Middlewares/Third_Party/FreeRTOS/Source/timers.c:1087:53
	str	r0, [sp, #8]
	.loc	2 1088 49 is_stmt 1             @ ../Middlewares/Third_Party/FreeRTOS/Source/timers.c:1088:49
	ldr	r0, [sp, #28]
	.loc	2 1088 47 is_stmt 0             @ ../Middlewares/Third_Party/FreeRTOS/Source/timers.c:1088:47
	str	r0, [sp, #12]
	.loc	2 1089 49 is_stmt 1             @ ../Middlewares/Third_Party/FreeRTOS/Source/timers.c:1089:49
	ldr	r0, [sp, #24]
	.loc	2 1089 47 is_stmt 0             @ ../Middlewares/Third_Party/FreeRTOS/Source/timers.c:1089:47
	str	r0, [sp, #16]
	.loc	2 1091 34 is_stmt 1             @ ../Middlewares/Third_Party/FreeRTOS/Source/timers.c:1091:34
	movw	r0, :lower16:xTimerQueue
	movt	r0, :upper16:xTimerQueue
	ldr	r0, [r0]
	.loc	2 1091 66 is_stmt 0             @ ../Middlewares/Third_Party/FreeRTOS/Source/timers.c:1091:66
	ldr	r2, [sp, #20]
	add	r1, sp, #4
	movs	r3, #0
	.loc	2 1091 13                       @ ../Middlewares/Third_Party/FreeRTOS/Source/timers.c:1091:13
	bl	xQueueGenericSend
	.loc	2 1091 11                       @ ../Middlewares/Third_Party/FreeRTOS/Source/timers.c:1091:11
	str	r0, [sp]
	.loc	2 1095 10 is_stmt 1             @ ../Middlewares/Third_Party/FreeRTOS/Source/timers.c:1095:10
	ldr	r0, [sp]
	.loc	2 1095 3 is_stmt 0              @ ../Middlewares/Third_Party/FreeRTOS/Source/timers.c:1095:3
	add	sp, #40
	pop	{r7, pc}
.Ltmp189:
.Lfunc_end17:
	.size	xTimerPendFunctionCall, .Lfunc_end17-xTimerPendFunctionCall
	.cfi_endproc
	.cantunwind
	.fnend
                                        @ -- End function
	.section	.text.prvGetNextExpireTime,"ax",%progbits
	.p2align	2                               @ -- Begin function prvGetNextExpireTime
	.type	prvGetNextExpireTime,%function
	.code	16                              @ @prvGetNextExpireTime
	.thumb_func
prvGetNextExpireTime:
.Lfunc_begin18:
	.loc	2 645 0 is_stmt 1               @ ../Middlewares/Third_Party/FreeRTOS/Source/timers.c:645:0
	.fnstart
	.cfi_startproc
@ %bb.0:
	.pad	#8
	sub	sp, #8
	.cfi_def_cfa_offset 8
	str	r0, [sp, #4]
.Ltmp190:
	.loc	2 655 26 prologue_end           @ ../Middlewares/Third_Party/FreeRTOS/Source/timers.c:655:26
	movw	r0, :lower16:pxCurrentTimerList
	movt	r0, :upper16:pxCurrentTimerList
	ldr	r0, [r0]
	.loc	2 655 48 is_stmt 0              @ ../Middlewares/Third_Party/FreeRTOS/Source/timers.c:655:48
	ldr	r0, [r0]
	.loc	2 655 64                        @ ../Middlewares/Third_Party/FreeRTOS/Source/timers.c:655:64
	clz	r0, r0
	lsrs	r0, r0, #5
	.loc	2 655 3                         @ ../Middlewares/Third_Party/FreeRTOS/Source/timers.c:655:3
	ldr	r1, [sp, #4]
	.loc	2 655 18                        @ ../Middlewares/Third_Party/FreeRTOS/Source/timers.c:655:18
	str	r0, [r1]
.Ltmp191:
	.loc	2 656 7 is_stmt 1               @ ../Middlewares/Third_Party/FreeRTOS/Source/timers.c:656:7
	ldr	r0, [sp, #4]
	.loc	2 656 6 is_stmt 0               @ ../Middlewares/Third_Party/FreeRTOS/Source/timers.c:656:6
	ldr	r0, [r0]
.Ltmp192:
	.loc	2 656 6                         @ ../Middlewares/Third_Party/FreeRTOS/Source/timers.c:656:6
	cbnz	r0, .LBB18_2
	b	.LBB18_1
.LBB18_1:
.Ltmp193:
	.loc	2 658 27 is_stmt 1              @ ../Middlewares/Third_Party/FreeRTOS/Source/timers.c:658:27
	movw	r0, :lower16:pxCurrentTimerList
	movt	r0, :upper16:pxCurrentTimerList
	ldr	r0, [r0]
	.loc	2 658 60 is_stmt 0              @ ../Middlewares/Third_Party/FreeRTOS/Source/timers.c:658:60
	ldr	r0, [r0, #12]
	.loc	2 658 68                        @ ../Middlewares/Third_Party/FreeRTOS/Source/timers.c:658:68
	ldr	r0, [r0]
	.loc	2 658 19                        @ ../Middlewares/Third_Party/FreeRTOS/Source/timers.c:658:19
	str	r0, [sp]
	.loc	2 659 2 is_stmt 1               @ ../Middlewares/Third_Party/FreeRTOS/Source/timers.c:659:2
	b	.LBB18_3
.Ltmp194:
.LBB18_2:
	.loc	2 0 2 is_stmt 0                 @ ../Middlewares/Third_Party/FreeRTOS/Source/timers.c:0:2
	movs	r0, #0
.Ltmp195:
	.loc	2 663 19 is_stmt 1              @ ../Middlewares/Third_Party/FreeRTOS/Source/timers.c:663:19
	str	r0, [sp]
	b	.LBB18_3
.Ltmp196:
.LBB18_3:
	.loc	2 666 9                         @ ../Middlewares/Third_Party/FreeRTOS/Source/timers.c:666:9
	ldr	r0, [sp]
	.loc	2 666 2 is_stmt 0               @ ../Middlewares/Third_Party/FreeRTOS/Source/timers.c:666:2
	add	sp, #8
	bx	lr
.Ltmp197:
.Lfunc_end18:
	.size	prvGetNextExpireTime, .Lfunc_end18-prvGetNextExpireTime
	.cfi_endproc
	.cantunwind
	.fnend
                                        @ -- End function
	.section	.text.prvProcessTimerOrBlockTask,"ax",%progbits
	.p2align	2                               @ -- Begin function prvProcessTimerOrBlockTask
	.type	prvProcessTimerOrBlockTask,%function
	.code	16                              @ @prvProcessTimerOrBlockTask
	.thumb_func
prvProcessTimerOrBlockTask:
.Lfunc_begin19:
	.loc	2 585 0 is_stmt 1               @ ../Middlewares/Third_Party/FreeRTOS/Source/timers.c:585:0
	.fnstart
	.cfi_startproc
@ %bb.0:
	.save	{r7, lr}
	push	{r7, lr}
	.cfi_def_cfa_offset 8
	.cfi_offset lr, -4
	.cfi_offset r7, -8
	.pad	#16
	sub	sp, #16
	.cfi_def_cfa_offset 24
	str	r0, [sp, #12]
	str	r1, [sp, #8]
.Ltmp198:
	.loc	2 589 2 prologue_end            @ ../Middlewares/Third_Party/FreeRTOS/Source/timers.c:589:2
	bl	vTaskSuspendAll
	mov	r0, sp
.Ltmp199:
	.loc	2 596 14                        @ ../Middlewares/Third_Party/FreeRTOS/Source/timers.c:596:14
	bl	prvSampleTimeNow
	.loc	2 596 12 is_stmt 0              @ ../Middlewares/Third_Party/FreeRTOS/Source/timers.c:596:12
	str	r0, [sp, #4]
.Ltmp200:
	.loc	2 597 7 is_stmt 1               @ ../Middlewares/Third_Party/FreeRTOS/Source/timers.c:597:7
	ldr	r0, [sp]
.Ltmp201:
	.loc	2 597 7 is_stmt 0               @ ../Middlewares/Third_Party/FreeRTOS/Source/timers.c:597:7
	cbnz	r0, .LBB19_11
	b	.LBB19_1
.LBB19_1:
.Ltmp202:
	.loc	2 600 10 is_stmt 1              @ ../Middlewares/Third_Party/FreeRTOS/Source/timers.c:600:10
	ldr	r0, [sp, #8]
	.loc	2 600 50 is_stmt 0              @ ../Middlewares/Third_Party/FreeRTOS/Source/timers.c:600:50
	cbnz	r0, .LBB19_4
	b	.LBB19_2
.LBB19_2:
	.loc	2 600 55                        @ ../Middlewares/Third_Party/FreeRTOS/Source/timers.c:600:55
	ldr	r0, [sp, #12]
	.loc	2 600 74                        @ ../Middlewares/Third_Party/FreeRTOS/Source/timers.c:600:74
	ldr	r1, [sp, #4]
.Ltmp203:
	.loc	2 600 8                         @ ../Middlewares/Third_Party/FreeRTOS/Source/timers.c:600:8
	cmp	r0, r1
	bhi	.LBB19_4
	b	.LBB19_3
.LBB19_3:
.Ltmp204:
	.loc	2 602 14 is_stmt 1              @ ../Middlewares/Third_Party/FreeRTOS/Source/timers.c:602:14
	bl	xTaskResumeAll
	.loc	2 603 29                        @ ../Middlewares/Third_Party/FreeRTOS/Source/timers.c:603:29
	ldr	r0, [sp, #12]
	.loc	2 603 46 is_stmt 0              @ ../Middlewares/Third_Party/FreeRTOS/Source/timers.c:603:46
	ldr	r1, [sp, #4]
	.loc	2 603 5                         @ ../Middlewares/Third_Party/FreeRTOS/Source/timers.c:603:5
	bl	prvProcessExpiredTimer
	.loc	2 604 4 is_stmt 1               @ ../Middlewares/Third_Party/FreeRTOS/Source/timers.c:604:4
	b	.LBB19_10
.Ltmp205:
.LBB19_4:
	.loc	2 613 9                         @ ../Middlewares/Third_Party/FreeRTOS/Source/timers.c:613:9
	ldr	r0, [sp, #8]
.Ltmp206:
	.loc	2 613 9 is_stmt 0               @ ../Middlewares/Third_Party/FreeRTOS/Source/timers.c:613:9
	cbz	r0, .LBB19_6
	b	.LBB19_5
.LBB19_5:
.Ltmp207:
	.loc	2 617 28 is_stmt 1              @ ../Middlewares/Third_Party/FreeRTOS/Source/timers.c:617:28
	movw	r0, :lower16:pxOverflowTimerList
	movt	r0, :upper16:pxOverflowTimerList
	ldr	r0, [r0]
	.loc	2 617 51 is_stmt 0              @ ../Middlewares/Third_Party/FreeRTOS/Source/timers.c:617:51
	ldr	r0, [r0]
	.loc	2 617 67                        @ ../Middlewares/Third_Party/FreeRTOS/Source/timers.c:617:67
	clz	r0, r0
	lsrs	r0, r0, #5
	.loc	2 617 20                        @ ../Middlewares/Third_Party/FreeRTOS/Source/timers.c:617:20
	str	r0, [sp, #8]
	.loc	2 618 5 is_stmt 1               @ ../Middlewares/Third_Party/FreeRTOS/Source/timers.c:618:5
	b	.LBB19_6
.Ltmp208:
.LBB19_6:
	.loc	2 620 37                        @ ../Middlewares/Third_Party/FreeRTOS/Source/timers.c:620:37
	movw	r0, :lower16:xTimerQueue
	movt	r0, :upper16:xTimerQueue
	ldr	r0, [r0]
	.loc	2 620 52 is_stmt 0              @ ../Middlewares/Third_Party/FreeRTOS/Source/timers.c:620:52
	ldr	r1, [sp, #12]
	.loc	2 620 70                        @ ../Middlewares/Third_Party/FreeRTOS/Source/timers.c:620:70
	ldr	r2, [sp, #4]
	.loc	2 620 68                        @ ../Middlewares/Third_Party/FreeRTOS/Source/timers.c:620:68
	subs	r1, r1, r2
	.loc	2 620 82                        @ ../Middlewares/Third_Party/FreeRTOS/Source/timers.c:620:82
	ldr	r2, [sp, #8]
	.loc	2 620 5                         @ ../Middlewares/Third_Party/FreeRTOS/Source/timers.c:620:5
	bl	vQueueWaitForMessageRestricted
.Ltmp209:
	.loc	2 622 9 is_stmt 1               @ ../Middlewares/Third_Party/FreeRTOS/Source/timers.c:622:9
	bl	xTaskResumeAll
.Ltmp210:
	.loc	2 622 9 is_stmt 0               @ ../Middlewares/Third_Party/FreeRTOS/Source/timers.c:622:9
	cbnz	r0, .LBB19_8
	b	.LBB19_7
.LBB19_7:
	.loc	2 0 9                           @ ../Middlewares/Third_Party/FreeRTOS/Source/timers.c:0:9
	movw	r1, #60676
	movt	r1, #57344
	mov.w	r0, #268435456
.Ltmp211:
	.loc	2 628 53 is_stmt 1              @ ../Middlewares/Third_Party/FreeRTOS/Source/timers.c:628:53
	str	r0, [r1]
	.loc	2 628 72 is_stmt 0              @ ../Middlewares/Third_Party/FreeRTOS/Source/timers.c:628:72
	@APP
	dsb	sy
	@NO_APP
	.loc	2 628 110                       @ ../Middlewares/Third_Party/FreeRTOS/Source/timers.c:628:110
	@APP
	isb	sy
	@NO_APP
.Ltmp212:
	.loc	2 629 5 is_stmt 1               @ ../Middlewares/Third_Party/FreeRTOS/Source/timers.c:629:5
	b	.LBB19_9
.Ltmp213:
.LBB19_8:
	.loc	2 0 5 is_stmt 0                 @ ../Middlewares/Third_Party/FreeRTOS/Source/timers.c:0:5
	b	.LBB19_9
.LBB19_9:
	b	.LBB19_10
.LBB19_10:
	.loc	2 635 3 is_stmt 1               @ ../Middlewares/Third_Party/FreeRTOS/Source/timers.c:635:3
	b	.LBB19_12
.Ltmp214:
.LBB19_11:
	.loc	2 638 13                        @ ../Middlewares/Third_Party/FreeRTOS/Source/timers.c:638:13
	bl	xTaskResumeAll
	b	.LBB19_12
.Ltmp215:
.LBB19_12:
	.loc	2 641 1                         @ ../Middlewares/Third_Party/FreeRTOS/Source/timers.c:641:1
	add	sp, #16
	pop	{r7, pc}
.Ltmp216:
.Lfunc_end19:
	.size	prvProcessTimerOrBlockTask, .Lfunc_end19-prvProcessTimerOrBlockTask
	.cfi_endproc
	.cantunwind
	.fnend
                                        @ -- End function
	.section	.text.prvProcessReceivedCommands,"ax",%progbits
	.p2align	2                               @ -- Begin function prvProcessReceivedCommands
	.type	prvProcessReceivedCommands,%function
	.code	16                              @ @prvProcessReceivedCommands
	.thumb_func
prvProcessReceivedCommands:
.Lfunc_begin20:
	.loc	2 735 0                         @ ../Middlewares/Third_Party/FreeRTOS/Source/timers.c:735:0
	.fnstart
	.cfi_startproc
@ %bb.0:
	.save	{r7, lr}
	push	{r7, lr}
	.cfi_def_cfa_offset 8
	.cfi_offset lr, -4
	.cfi_offset r7, -8
	.pad	#56
	sub	sp, #56
	.cfi_def_cfa_offset 64
.Ltmp217:
	.loc	2 741 2 prologue_end            @ ../Middlewares/Third_Party/FreeRTOS/Source/timers.c:741:2
	b	.LBB20_1
.LBB20_1:                               @ =>This Inner Loop Header: Depth=1
	.loc	2 741 24 is_stmt 0              @ ../Middlewares/Third_Party/FreeRTOS/Source/timers.c:741:24
	movw	r0, :lower16:xTimerQueue
	movt	r0, :upper16:xTimerQueue
	ldr	r0, [r0]
	add	r1, sp, #28
	movs	r2, #0
	.loc	2 741 9                         @ ../Middlewares/Third_Party/FreeRTOS/Source/timers.c:741:9
	bl	xQueueReceive
	.loc	2 741 2                         @ ../Middlewares/Third_Party/FreeRTOS/Source/timers.c:741:2
	cmp	r0, #0
	beq.w	.LBB20_37
	b	.LBB20_2
.LBB20_2:                               @   in Loop: Header=BB20_1 Depth=1
.Ltmp218:
	.loc	2 747 17 is_stmt 1              @ ../Middlewares/Third_Party/FreeRTOS/Source/timers.c:747:17
	ldr	r0, [sp, #28]
.Ltmp219:
	.loc	2 747 8 is_stmt 0               @ ../Middlewares/Third_Party/FreeRTOS/Source/timers.c:747:8
	cmp.w	r0, #-1
	bgt	.LBB20_7
	b	.LBB20_3
.LBB20_3:                               @   in Loop: Header=BB20_1 Depth=1
	.loc	2 0 8                           @ ../Middlewares/Third_Party/FreeRTOS/Source/timers.c:0:8
	add	r0, sp, #28
.Ltmp220:
	.loc	2 749 65 is_stmt 1              @ ../Middlewares/Third_Party/FreeRTOS/Source/timers.c:749:65
	adds	r0, #4
	.loc	2 749 40 is_stmt 0              @ ../Middlewares/Third_Party/FreeRTOS/Source/timers.c:749:40
	str	r0, [sp, #8]
.Ltmp221:
	.loc	2 753 10 is_stmt 1              @ ../Middlewares/Third_Party/FreeRTOS/Source/timers.c:753:10
	ldr	r0, [sp, #8]
.Ltmp222:
	.loc	2 753 9 is_stmt 0               @ ../Middlewares/Third_Party/FreeRTOS/Source/timers.c:753:9
	cbnz	r0, .LBB20_6
	b	.LBB20_4
.LBB20_4:
.Ltmp223:
	.loc	4 195 2 is_stmt 1               @ ../Middlewares/Third_Party/FreeRTOS/Source/portable/RVDS/ARM_CM4F\portmacro.h:195:2
	@APP
	mov.w	r0, #80
	msr	basepri, r0
	isb	sy
	dsb	sy

	@NO_APP
	str	r0, [sp, #52]
.Ltmp224:
	.loc	2 753 50                        @ ../Middlewares/Third_Party/FreeRTOS/Source/timers.c:753:50
	b	.LBB20_5
.LBB20_5:                               @ =>This Inner Loop Header: Depth=1
.Ltmp225:
	.loc	2 753 50 is_stmt 0              @ ../Middlewares/Third_Party/FreeRTOS/Source/timers.c:753:50
	b	.LBB20_5
.Ltmp226:
.LBB20_6:                               @   in Loop: Header=BB20_1 Depth=1
	.loc	2 756 5 is_stmt 1               @ ../Middlewares/Third_Party/FreeRTOS/Source/timers.c:756:5
	ldr	r1, [sp, #8]
	.loc	2 756 17 is_stmt 0              @ ../Middlewares/Third_Party/FreeRTOS/Source/timers.c:756:17
	ldr	r2, [r1]
	.loc	2 756 49                        @ ../Middlewares/Third_Party/FreeRTOS/Source/timers.c:756:49
	ldr	r0, [r1, #4]
	.loc	2 756 75                        @ ../Middlewares/Third_Party/FreeRTOS/Source/timers.c:756:75
	ldr	r1, [r1, #8]
	.loc	2 756 5                         @ ../Middlewares/Third_Party/FreeRTOS/Source/timers.c:756:5
	blx	r2
	.loc	2 757 4 is_stmt 1               @ ../Middlewares/Third_Party/FreeRTOS/Source/timers.c:757:4
	b	.LBB20_8
.Ltmp227:
.LBB20_7:                               @   in Loop: Header=BB20_1 Depth=1
	.loc	2 0 4 is_stmt 0                 @ ../Middlewares/Third_Party/FreeRTOS/Source/timers.c:0:4
	b	.LBB20_8
.LBB20_8:                               @   in Loop: Header=BB20_1 Depth=1
.Ltmp228:
	.loc	2 767 16 is_stmt 1              @ ../Middlewares/Third_Party/FreeRTOS/Source/timers.c:767:16
	ldr	r0, [sp, #28]
.Ltmp229:
	.loc	2 767 7 is_stmt 0               @ ../Middlewares/Third_Party/FreeRTOS/Source/timers.c:767:7
	cmp	r0, #0
	bmi.w	.LBB20_36
	b	.LBB20_9
.LBB20_9:                               @   in Loop: Header=BB20_1 Depth=1
.Ltmp230:
	.loc	2 771 42 is_stmt 1              @ ../Middlewares/Third_Party/FreeRTOS/Source/timers.c:771:42
	ldr	r0, [sp, #36]
	.loc	2 771 12 is_stmt 0              @ ../Middlewares/Third_Party/FreeRTOS/Source/timers.c:771:12
	str	r0, [sp, #24]
.Ltmp231:
	.loc	2 773 17 is_stmt 1              @ ../Middlewares/Third_Party/FreeRTOS/Source/timers.c:773:17
	ldr	r0, [sp, #24]
	.loc	2 773 46 is_stmt 0              @ ../Middlewares/Third_Party/FreeRTOS/Source/timers.c:773:46
	ldr	r0, [r0, #20]
.Ltmp232:
	.loc	2 773 8                         @ ../Middlewares/Third_Party/FreeRTOS/Source/timers.c:773:8
	cbz	r0, .LBB20_11
	b	.LBB20_10
.LBB20_10:                              @   in Loop: Header=BB20_1 Depth=1
.Ltmp233:
	.loc	2 776 31 is_stmt 1              @ ../Middlewares/Third_Party/FreeRTOS/Source/timers.c:776:31
	ldr	r0, [sp, #24]
	.loc	2 776 40 is_stmt 0              @ ../Middlewares/Third_Party/FreeRTOS/Source/timers.c:776:40
	adds	r0, #4
	.loc	2 776 14                        @ ../Middlewares/Third_Party/FreeRTOS/Source/timers.c:776:14
	bl	uxListRemove
	.loc	2 777 4 is_stmt 1               @ ../Middlewares/Third_Party/FreeRTOS/Source/timers.c:777:4
	b	.LBB20_12
.Ltmp234:
.LBB20_11:                              @   in Loop: Header=BB20_1 Depth=1
	.loc	2 0 4 is_stmt 0                 @ ../Middlewares/Third_Party/FreeRTOS/Source/timers.c:0:4
	b	.LBB20_12
.LBB20_12:                              @   in Loop: Header=BB20_1 Depth=1
	add	r0, sp, #20
	.loc	2 791 15 is_stmt 1              @ ../Middlewares/Third_Party/FreeRTOS/Source/timers.c:791:15
	bl	prvSampleTimeNow
	.loc	2 791 13 is_stmt 0              @ ../Middlewares/Third_Party/FreeRTOS/Source/timers.c:791:13
	str	r0, [sp, #12]
	.loc	2 793 21 is_stmt 1              @ ../Middlewares/Third_Party/FreeRTOS/Source/timers.c:793:21
	ldr	r0, [sp, #28]
	.loc	2 793 4 is_stmt 0               @ ../Middlewares/Third_Party/FreeRTOS/Source/timers.c:793:4
	str	r0, [sp, #4]                    @ 4-byte Spill
	cmp	r0, #9
	bhi.w	.LBB20_34
@ %bb.13:                               @   in Loop: Header=BB20_1 Depth=1
	.loc	2 0 4                           @ ../Middlewares/Third_Party/FreeRTOS/Source/timers.c:0:4
	ldr	r1, [sp, #4]                    @ 4-byte Reload
.LCPI20_0:
	tbb	[pc, r1]
@ %bb.14:
.LJTI20_0:
	.byte	(.LBB20_15-(.LCPI20_0+4))/2
	.byte	(.LBB20_15-(.LCPI20_0+4))/2
	.byte	(.LBB20_15-(.LCPI20_0+4))/2
	.byte	(.LBB20_25-(.LCPI20_0+4))/2
	.byte	(.LBB20_26-(.LCPI20_0+4))/2
	.byte	(.LBB20_30-(.LCPI20_0+4))/2
	.byte	(.LBB20_15-(.LCPI20_0+4))/2
	.byte	(.LBB20_15-(.LCPI20_0+4))/2
	.byte	(.LBB20_25-(.LCPI20_0+4))/2
	.byte	(.LBB20_26-(.LCPI20_0+4))/2
	.p2align	1
.LBB20_15:                              @   in Loop: Header=BB20_1 Depth=1
.Ltmp235:
	.loc	2 801 6 is_stmt 1               @ ../Middlewares/Third_Party/FreeRTOS/Source/timers.c:801:6
	ldr	r1, [sp, #24]
	.loc	2 801 24 is_stmt 0              @ ../Middlewares/Third_Party/FreeRTOS/Source/timers.c:801:24
	ldrb.w	r0, [r1, #36]
	orr	r0, r0, #1
	strb.w	r0, [r1, #36]
.Ltmp236:
	.loc	2 802 38 is_stmt 1              @ ../Middlewares/Third_Party/FreeRTOS/Source/timers.c:802:38
	ldr	r0, [sp, #24]
	.loc	2 802 75 is_stmt 0              @ ../Middlewares/Third_Party/FreeRTOS/Source/timers.c:802:75
	ldr	r3, [sp, #32]
	.loc	2 802 100                       @ ../Middlewares/Third_Party/FreeRTOS/Source/timers.c:802:100
	ldr	r1, [r0, #24]
	.loc	2 802 89                        @ ../Middlewares/Third_Party/FreeRTOS/Source/timers.c:802:89
	add	r1, r3
	.loc	2 802 121                       @ ../Middlewares/Third_Party/FreeRTOS/Source/timers.c:802:121
	ldr	r2, [sp, #12]
	.loc	2 802 10                        @ ../Middlewares/Third_Party/FreeRTOS/Source/timers.c:802:10
	bl	prvInsertTimerInActiveList
.Ltmp237:
	.loc	2 802 10                        @ ../Middlewares/Third_Party/FreeRTOS/Source/timers.c:802:10
	cbz	r0, .LBB20_23
	b	.LBB20_16
.LBB20_16:                              @   in Loop: Header=BB20_1 Depth=1
.Ltmp238:
	.loc	2 806 7 is_stmt 1               @ ../Middlewares/Third_Party/FreeRTOS/Source/timers.c:806:7
	ldr	r0, [sp, #24]
	.loc	2 806 16 is_stmt 0              @ ../Middlewares/Third_Party/FreeRTOS/Source/timers.c:806:16
	ldr	r1, [r0, #32]
	.loc	2 806 7                         @ ../Middlewares/Third_Party/FreeRTOS/Source/timers.c:806:7
	blx	r1
.Ltmp239:
	.loc	2 809 13 is_stmt 1              @ ../Middlewares/Third_Party/FreeRTOS/Source/timers.c:809:13
	ldr	r0, [sp, #24]
	ldrb.w	r0, [r0, #36]
.Ltmp240:
	.loc	2 809 11 is_stmt 0              @ ../Middlewares/Third_Party/FreeRTOS/Source/timers.c:809:11
	lsls	r0, r0, #29
	cmp	r0, #0
	bpl	.LBB20_21
	b	.LBB20_17
.LBB20_17:                              @   in Loop: Header=BB20_1 Depth=1
.Ltmp241:
	.loc	2 811 40 is_stmt 1              @ ../Middlewares/Third_Party/FreeRTOS/Source/timers.c:811:40
	ldr	r0, [sp, #24]
	.loc	2 811 99 is_stmt 0              @ ../Middlewares/Third_Party/FreeRTOS/Source/timers.c:811:99
	ldr	r1, [sp, #32]
	.loc	2 811 124                       @ ../Middlewares/Third_Party/FreeRTOS/Source/timers.c:811:124
	ldr	r2, [r0, #24]
	.loc	2 811 113                       @ ../Middlewares/Third_Party/FreeRTOS/Source/timers.c:811:113
	add	r2, r1
	.loc	2 811 18                        @ ../Middlewares/Third_Party/FreeRTOS/Source/timers.c:811:18
	mov	r1, sp
	movs	r3, #0
	str	r3, [r1]
	mov	r1, r3
	bl	xTimerGenericCommand
	.loc	2 811 16                        @ ../Middlewares/Third_Party/FreeRTOS/Source/timers.c:811:16
	str	r0, [sp, #16]
.Ltmp242:
	.loc	2 812 13 is_stmt 1              @ ../Middlewares/Third_Party/FreeRTOS/Source/timers.c:812:13
	ldr	r0, [sp, #16]
.Ltmp243:
	.loc	2 812 12 is_stmt 0              @ ../Middlewares/Third_Party/FreeRTOS/Source/timers.c:812:12
	cbnz	r0, .LBB20_20
	b	.LBB20_18
.LBB20_18:
.Ltmp244:
	.loc	4 195 2 is_stmt 1               @ ../Middlewares/Third_Party/FreeRTOS/Source/portable/RVDS/ARM_CM4F\portmacro.h:195:2
	@APP
	mov.w	r0, #80
	msr	basepri, r0
	isb	sy
	dsb	sy

	@NO_APP
	str	r0, [sp, #48]
.Ltmp245:
	.loc	2 812 50                        @ ../Middlewares/Third_Party/FreeRTOS/Source/timers.c:812:50
	b	.LBB20_19
.LBB20_19:                              @ =>This Inner Loop Header: Depth=1
.Ltmp246:
	.loc	2 812 50 is_stmt 0              @ ../Middlewares/Third_Party/FreeRTOS/Source/timers.c:812:50
	b	.LBB20_19
.Ltmp247:
.LBB20_20:                              @   in Loop: Header=BB20_1 Depth=1
	.loc	2 814 7 is_stmt 1               @ ../Middlewares/Third_Party/FreeRTOS/Source/timers.c:814:7
	b	.LBB20_22
.Ltmp248:
.LBB20_21:                              @   in Loop: Header=BB20_1 Depth=1
	.loc	2 0 7 is_stmt 0                 @ ../Middlewares/Third_Party/FreeRTOS/Source/timers.c:0:7
	b	.LBB20_22
.LBB20_22:                              @   in Loop: Header=BB20_1 Depth=1
	.loc	2 819 6 is_stmt 1               @ ../Middlewares/Third_Party/FreeRTOS/Source/timers.c:819:6
	b	.LBB20_24
.Ltmp249:
.LBB20_23:                              @   in Loop: Header=BB20_1 Depth=1
	.loc	2 0 6 is_stmt 0                 @ ../Middlewares/Third_Party/FreeRTOS/Source/timers.c:0:6
	b	.LBB20_24
.LBB20_24:                              @   in Loop: Header=BB20_1 Depth=1
	.loc	2 824 6 is_stmt 1               @ ../Middlewares/Third_Party/FreeRTOS/Source/timers.c:824:6
	b	.LBB20_35
.LBB20_25:                              @   in Loop: Header=BB20_1 Depth=1
	.loc	2 829 6                         @ ../Middlewares/Third_Party/FreeRTOS/Source/timers.c:829:6
	ldr	r1, [sp, #24]
	.loc	2 829 24 is_stmt 0              @ ../Middlewares/Third_Party/FreeRTOS/Source/timers.c:829:24
	ldrb.w	r0, [r1, #36]
	and	r0, r0, #254
	strb.w	r0, [r1, #36]
	.loc	2 830 6 is_stmt 1               @ ../Middlewares/Third_Party/FreeRTOS/Source/timers.c:830:6
	b	.LBB20_35
.LBB20_26:                              @   in Loop: Header=BB20_1 Depth=1
	.loc	2 834 6                         @ ../Middlewares/Third_Party/FreeRTOS/Source/timers.c:834:6
	ldr	r1, [sp, #24]
	.loc	2 834 24 is_stmt 0              @ ../Middlewares/Third_Party/FreeRTOS/Source/timers.c:834:24
	ldrb.w	r0, [r1, #36]
	orr	r0, r0, #1
	strb.w	r0, [r1, #36]
	.loc	2 835 65 is_stmt 1              @ ../Middlewares/Third_Party/FreeRTOS/Source/timers.c:835:65
	ldr	r0, [sp, #32]
	.loc	2 835 6 is_stmt 0               @ ../Middlewares/Third_Party/FreeRTOS/Source/timers.c:835:6
	ldr	r1, [sp, #24]
	.loc	2 835 35                        @ ../Middlewares/Third_Party/FreeRTOS/Source/timers.c:835:35
	str	r0, [r1, #24]
.Ltmp250:
	.loc	2 836 13 is_stmt 1              @ ../Middlewares/Third_Party/FreeRTOS/Source/timers.c:836:13
	ldr	r0, [sp, #24]
	.loc	2 836 22 is_stmt 0              @ ../Middlewares/Third_Party/FreeRTOS/Source/timers.c:836:22
	ldr	r0, [r0, #24]
.Ltmp251:
	.loc	2 836 10                        @ ../Middlewares/Third_Party/FreeRTOS/Source/timers.c:836:10
	cbnz	r0, .LBB20_29
	b	.LBB20_27
.LBB20_27:
.Ltmp252:
	.loc	4 195 2 is_stmt 1               @ ../Middlewares/Third_Party/FreeRTOS/Source/portable/RVDS/ARM_CM4F\portmacro.h:195:2
	@APP
	mov.w	r0, #80
	msr	basepri, r0
	isb	sy
	dsb	sy

	@NO_APP
	str	r0, [sp, #44]
.Ltmp253:
	.loc	2 836 77                        @ ../Middlewares/Third_Party/FreeRTOS/Source/timers.c:836:77
	b	.LBB20_28
.LBB20_28:                              @ =>This Inner Loop Header: Depth=1
.Ltmp254:
	.loc	2 836 77 is_stmt 0              @ ../Middlewares/Third_Party/FreeRTOS/Source/timers.c:836:77
	b	.LBB20_28
.Ltmp255:
.LBB20_29:                              @   in Loop: Header=BB20_1 Depth=1
	.loc	2 844 43 is_stmt 1              @ ../Middlewares/Third_Party/FreeRTOS/Source/timers.c:844:43
	ldr	r0, [sp, #24]
	.loc	2 844 54 is_stmt 0              @ ../Middlewares/Third_Party/FreeRTOS/Source/timers.c:844:54
	ldr	r3, [sp, #12]
	.loc	2 844 74                        @ ../Middlewares/Third_Party/FreeRTOS/Source/timers.c:844:74
	ldr	r1, [r0, #24]
	.loc	2 844 63                        @ ../Middlewares/Third_Party/FreeRTOS/Source/timers.c:844:63
	add	r1, r3
	.loc	2 844 15                        @ ../Middlewares/Third_Party/FreeRTOS/Source/timers.c:844:15
	mov	r2, r3
	bl	prvInsertTimerInActiveList
	.loc	2 845 6 is_stmt 1               @ ../Middlewares/Third_Party/FreeRTOS/Source/timers.c:845:6
	b	.LBB20_35
.LBB20_30:                              @   in Loop: Header=BB20_1 Depth=1
.Ltmp256:
	.loc	2 853 13                        @ ../Middlewares/Third_Party/FreeRTOS/Source/timers.c:853:13
	ldr	r0, [sp, #24]
	ldrb.w	r0, [r0, #36]
.Ltmp257:
	.loc	2 853 11 is_stmt 0              @ ../Middlewares/Third_Party/FreeRTOS/Source/timers.c:853:11
	lsls	r0, r0, #30
	cmp	r0, #0
	bmi	.LBB20_32
	b	.LBB20_31
.LBB20_31:                              @   in Loop: Header=BB20_1 Depth=1
.Ltmp258:
	.loc	2 855 19 is_stmt 1              @ ../Middlewares/Third_Party/FreeRTOS/Source/timers.c:855:19
	ldr	r0, [sp, #24]
	.loc	2 855 8 is_stmt 0               @ ../Middlewares/Third_Party/FreeRTOS/Source/timers.c:855:8
	bl	vPortFree
	.loc	2 856 7 is_stmt 1               @ ../Middlewares/Third_Party/FreeRTOS/Source/timers.c:856:7
	b	.LBB20_33
.Ltmp259:
.LBB20_32:                              @   in Loop: Header=BB20_1 Depth=1
	.loc	2 859 8                         @ ../Middlewares/Third_Party/FreeRTOS/Source/timers.c:859:8
	ldr	r1, [sp, #24]
	.loc	2 859 26 is_stmt 0              @ ../Middlewares/Third_Party/FreeRTOS/Source/timers.c:859:26
	ldrb.w	r0, [r1, #36]
	and	r0, r0, #254
	strb.w	r0, [r1, #36]
	b	.LBB20_33
.Ltmp260:
.LBB20_33:                              @   in Loop: Header=BB20_1 Depth=1
	.loc	2 871 6 is_stmt 1               @ ../Middlewares/Third_Party/FreeRTOS/Source/timers.c:871:6
	b	.LBB20_35
.LBB20_34:                              @   in Loop: Header=BB20_1 Depth=1
	.loc	2 875 6                         @ ../Middlewares/Third_Party/FreeRTOS/Source/timers.c:875:6
	b	.LBB20_35
.Ltmp261:
.LBB20_35:                              @   in Loop: Header=BB20_1 Depth=1
	.loc	2 877 3                         @ ../Middlewares/Third_Party/FreeRTOS/Source/timers.c:877:3
	b	.LBB20_36
.Ltmp262:
.LBB20_36:                              @   in Loop: Header=BB20_1 Depth=1
	.loc	2 741 2                         @ ../Middlewares/Third_Party/FreeRTOS/Source/timers.c:741:2
	b	.LBB20_1
.LBB20_37:
	.loc	2 879 1                         @ ../Middlewares/Third_Party/FreeRTOS/Source/timers.c:879:1
	add	sp, #56
	pop	{r7, pc}
.Ltmp263:
.Lfunc_end20:
	.size	prvProcessReceivedCommands, .Lfunc_end20-prvProcessReceivedCommands
	.cfi_endproc
	.cantunwind
	.fnend
                                        @ -- End function
	.section	.text.prvSampleTimeNow,"ax",%progbits
	.p2align	2                               @ -- Begin function prvSampleTimeNow
	.type	prvSampleTimeNow,%function
	.code	16                              @ @prvSampleTimeNow
	.thumb_func
prvSampleTimeNow:
.Lfunc_begin21:
	.loc	2 671 0                         @ ../Middlewares/Third_Party/FreeRTOS/Source/timers.c:671:0
	.fnstart
	.cfi_startproc
@ %bb.0:
	.save	{r7, lr}
	push	{r7, lr}
	.cfi_def_cfa_offset 8
	.cfi_offset lr, -4
	.cfi_offset r7, -8
	.pad	#8
	sub	sp, #8
	.cfi_def_cfa_offset 16
	str	r0, [sp, #4]
.Ltmp264:
	.loc	2 675 13 prologue_end           @ ../Middlewares/Third_Party/FreeRTOS/Source/timers.c:675:13
	bl	xTaskGetTickCount
	.loc	2 675 11 is_stmt 0              @ ../Middlewares/Third_Party/FreeRTOS/Source/timers.c:675:11
	str	r0, [sp]
.Ltmp265:
	.loc	2 677 6 is_stmt 1               @ ../Middlewares/Third_Party/FreeRTOS/Source/timers.c:677:6
	ldr	r0, [sp]
	.loc	2 677 17 is_stmt 0              @ ../Middlewares/Third_Party/FreeRTOS/Source/timers.c:677:17
	movw	r1, :lower16:prvSampleTimeNow.xLastTime
	movt	r1, :upper16:prvSampleTimeNow.xLastTime
	ldr	r1, [r1]
.Ltmp266:
	.loc	2 677 6                         @ ../Middlewares/Third_Party/FreeRTOS/Source/timers.c:677:6
	cmp	r0, r1
	bhs	.LBB21_2
	b	.LBB21_1
.LBB21_1:
.Ltmp267:
	.loc	2 679 3 is_stmt 1               @ ../Middlewares/Third_Party/FreeRTOS/Source/timers.c:679:3
	bl	prvSwitchTimerLists
	.loc	2 680 4                         @ ../Middlewares/Third_Party/FreeRTOS/Source/timers.c:680:4
	ldr	r1, [sp, #4]
	movs	r0, #1
	.loc	2 680 29 is_stmt 0              @ ../Middlewares/Third_Party/FreeRTOS/Source/timers.c:680:29
	str	r0, [r1]
	.loc	2 681 2 is_stmt 1               @ ../Middlewares/Third_Party/FreeRTOS/Source/timers.c:681:2
	b	.LBB21_3
.Ltmp268:
.LBB21_2:
	.loc	2 684 4                         @ ../Middlewares/Third_Party/FreeRTOS/Source/timers.c:684:4
	ldr	r1, [sp, #4]
	movs	r0, #0
	.loc	2 684 29 is_stmt 0              @ ../Middlewares/Third_Party/FreeRTOS/Source/timers.c:684:29
	str	r0, [r1]
	b	.LBB21_3
.Ltmp269:
.LBB21_3:
	.loc	2 687 14 is_stmt 1              @ ../Middlewares/Third_Party/FreeRTOS/Source/timers.c:687:14
	ldr	r0, [sp]
	.loc	2 687 12 is_stmt 0              @ ../Middlewares/Third_Party/FreeRTOS/Source/timers.c:687:12
	movw	r1, :lower16:prvSampleTimeNow.xLastTime
	movt	r1, :upper16:prvSampleTimeNow.xLastTime
	str	r0, [r1]
	.loc	2 689 9 is_stmt 1               @ ../Middlewares/Third_Party/FreeRTOS/Source/timers.c:689:9
	ldr	r0, [sp]
	.loc	2 689 2 is_stmt 0               @ ../Middlewares/Third_Party/FreeRTOS/Source/timers.c:689:2
	add	sp, #8
	pop	{r7, pc}
.Ltmp270:
.Lfunc_end21:
	.size	prvSampleTimeNow, .Lfunc_end21-prvSampleTimeNow
	.cfi_endproc
	.cantunwind
	.fnend
                                        @ -- End function
	.section	.text.prvProcessExpiredTimer,"ax",%progbits
	.p2align	2                               @ -- Begin function prvProcessExpiredTimer
	.type	prvProcessExpiredTimer,%function
	.code	16                              @ @prvProcessExpiredTimer
	.thumb_func
prvProcessExpiredTimer:
.Lfunc_begin22:
	.loc	2 508 0 is_stmt 1               @ ../Middlewares/Third_Party/FreeRTOS/Source/timers.c:508:0
	.fnstart
	.cfi_startproc
@ %bb.0:
	.save	{r7, lr}
	push	{r7, lr}
	.cfi_def_cfa_offset 8
	.cfi_offset lr, -4
	.cfi_offset r7, -8
	.pad	#24
	sub	sp, #24
	.cfi_def_cfa_offset 32
	str	r0, [sp, #16]
	str	r1, [sp, #12]
.Ltmp271:
	.loc	2 510 49 prologue_end           @ ../Middlewares/Third_Party/FreeRTOS/Source/timers.c:510:49
	movw	r0, :lower16:pxCurrentTimerList
	movt	r0, :upper16:pxCurrentTimerList
	ldr	r0, [r0]
	.loc	2 510 84 is_stmt 0              @ ../Middlewares/Third_Party/FreeRTOS/Source/timers.c:510:84
	ldr	r0, [r0, #12]
	.loc	2 510 92                        @ ../Middlewares/Third_Party/FreeRTOS/Source/timers.c:510:92
	ldr	r0, [r0, #12]
	.loc	2 510 17                        @ ../Middlewares/Third_Party/FreeRTOS/Source/timers.c:510:17
	str	r0, [sp, #4]
	.loc	2 514 28 is_stmt 1              @ ../Middlewares/Third_Party/FreeRTOS/Source/timers.c:514:28
	ldr	r0, [sp, #4]
	.loc	2 514 37 is_stmt 0              @ ../Middlewares/Third_Party/FreeRTOS/Source/timers.c:514:37
	adds	r0, #4
	.loc	2 514 11                        @ ../Middlewares/Third_Party/FreeRTOS/Source/timers.c:514:11
	bl	uxListRemove
.Ltmp272:
	.loc	2 519 8 is_stmt 1               @ ../Middlewares/Third_Party/FreeRTOS/Source/timers.c:519:8
	ldr	r0, [sp, #4]
	ldrb.w	r0, [r0, #36]
.Ltmp273:
	.loc	2 519 6 is_stmt 0               @ ../Middlewares/Third_Party/FreeRTOS/Source/timers.c:519:6
	lsls	r0, r0, #29
	cmp	r0, #0
	bpl	.LBB22_8
	b	.LBB22_1
.LBB22_1:
.Ltmp274:
	.loc	2 524 35 is_stmt 1              @ ../Middlewares/Third_Party/FreeRTOS/Source/timers.c:524:35
	ldr	r0, [sp, #4]
	.loc	2 524 46 is_stmt 0              @ ../Middlewares/Third_Party/FreeRTOS/Source/timers.c:524:46
	ldr	r3, [sp, #16]
	.loc	2 524 73                        @ ../Middlewares/Third_Party/FreeRTOS/Source/timers.c:524:73
	ldr	r1, [r0, #24]
	.loc	2 524 62                        @ ../Middlewares/Third_Party/FreeRTOS/Source/timers.c:524:62
	add	r1, r3
	.loc	2 524 96                        @ ../Middlewares/Third_Party/FreeRTOS/Source/timers.c:524:96
	ldr	r2, [sp, #12]
	.loc	2 524 7                         @ ../Middlewares/Third_Party/FreeRTOS/Source/timers.c:524:7
	bl	prvInsertTimerInActiveList
.Ltmp275:
	.loc	2 524 7                         @ ../Middlewares/Third_Party/FreeRTOS/Source/timers.c:524:7
	cbz	r0, .LBB22_6
	b	.LBB22_2
.LBB22_2:
.Ltmp276:
	.loc	2 528 36 is_stmt 1              @ ../Middlewares/Third_Party/FreeRTOS/Source/timers.c:528:36
	ldr	r0, [sp, #4]
	.loc	2 528 67 is_stmt 0              @ ../Middlewares/Third_Party/FreeRTOS/Source/timers.c:528:67
	ldr	r2, [sp, #16]
	.loc	2 528 14                        @ ../Middlewares/Third_Party/FreeRTOS/Source/timers.c:528:14
	mov	r1, sp
	movs	r3, #0
	str	r3, [r1]
	mov	r1, r3
	bl	xTimerGenericCommand
	.loc	2 528 12                        @ ../Middlewares/Third_Party/FreeRTOS/Source/timers.c:528:12
	str	r0, [sp, #8]
.Ltmp277:
	.loc	2 529 9 is_stmt 1               @ ../Middlewares/Third_Party/FreeRTOS/Source/timers.c:529:9
	ldr	r0, [sp, #8]
.Ltmp278:
	.loc	2 529 8 is_stmt 0               @ ../Middlewares/Third_Party/FreeRTOS/Source/timers.c:529:8
	cbnz	r0, .LBB22_5
	b	.LBB22_3
.LBB22_3:
.Ltmp279:
	.loc	4 195 2 is_stmt 1               @ ../Middlewares/Third_Party/FreeRTOS/Source/portable/RVDS/ARM_CM4F\portmacro.h:195:2
	@APP
	mov.w	r0, #80
	msr	basepri, r0
	isb	sy
	dsb	sy

	@NO_APP
	str	r0, [sp, #20]
.Ltmp280:
	.loc	2 529 46                        @ ../Middlewares/Third_Party/FreeRTOS/Source/timers.c:529:46
	b	.LBB22_4
.LBB22_4:                               @ =>This Inner Loop Header: Depth=1
.Ltmp281:
	.loc	2 529 46 is_stmt 0              @ ../Middlewares/Third_Party/FreeRTOS/Source/timers.c:529:46
	b	.LBB22_4
.Ltmp282:
.LBB22_5:
	.loc	2 531 3 is_stmt 1               @ ../Middlewares/Third_Party/FreeRTOS/Source/timers.c:531:3
	b	.LBB22_7
.Ltmp283:
.LBB22_6:
	.loc	2 0 3 is_stmt 0                 @ ../Middlewares/Third_Party/FreeRTOS/Source/timers.c:0:3
	b	.LBB22_7
.LBB22_7:
	.loc	2 536 2 is_stmt 1               @ ../Middlewares/Third_Party/FreeRTOS/Source/timers.c:536:2
	b	.LBB22_9
.Ltmp284:
.LBB22_8:
	.loc	2 539 3                         @ ../Middlewares/Third_Party/FreeRTOS/Source/timers.c:539:3
	ldr	r1, [sp, #4]
	.loc	2 539 21 is_stmt 0              @ ../Middlewares/Third_Party/FreeRTOS/Source/timers.c:539:21
	ldrb.w	r0, [r1, #36]
	and	r0, r0, #254
	strb.w	r0, [r1, #36]
	b	.LBB22_9
.Ltmp285:
.LBB22_9:
	.loc	2 544 2 is_stmt 1               @ ../Middlewares/Third_Party/FreeRTOS/Source/timers.c:544:2
	ldr	r0, [sp, #4]
	.loc	2 544 11 is_stmt 0              @ ../Middlewares/Third_Party/FreeRTOS/Source/timers.c:544:11
	ldr	r1, [r0, #32]
	.loc	2 544 2                         @ ../Middlewares/Third_Party/FreeRTOS/Source/timers.c:544:2
	blx	r1
	.loc	2 545 1 is_stmt 1               @ ../Middlewares/Third_Party/FreeRTOS/Source/timers.c:545:1
	add	sp, #24
	pop	{r7, pc}
.Ltmp286:
.Lfunc_end22:
	.size	prvProcessExpiredTimer, .Lfunc_end22-prvProcessExpiredTimer
	.cfi_endproc
	.cantunwind
	.fnend
                                        @ -- End function
	.section	.text.prvSwitchTimerLists,"ax",%progbits
	.p2align	2                               @ -- Begin function prvSwitchTimerLists
	.type	prvSwitchTimerLists,%function
	.code	16                              @ @prvSwitchTimerLists
	.thumb_func
prvSwitchTimerLists:
.Lfunc_begin23:
	.loc	2 883 0                         @ ../Middlewares/Third_Party/FreeRTOS/Source/timers.c:883:0
	.fnstart
	.cfi_startproc
@ %bb.0:
	.save	{r7, lr}
	push	{r7, lr}
	.cfi_def_cfa_offset 8
	.cfi_offset lr, -4
	.cfi_offset r7, -8
	.pad	#32
	sub	sp, #32
	.cfi_def_cfa_offset 40
.Ltmp287:
	.loc	2 893 2 prologue_end            @ ../Middlewares/Third_Party/FreeRTOS/Source/timers.c:893:2
	b	.LBB23_1
.LBB23_1:                               @ =>This Inner Loop Header: Depth=1
	.loc	2 893 15 is_stmt 0              @ ../Middlewares/Third_Party/FreeRTOS/Source/timers.c:893:15
	movw	r0, :lower16:pxCurrentTimerList
	movt	r0, :upper16:pxCurrentTimerList
	ldr	r0, [r0]
	.loc	2 893 37                        @ ../Middlewares/Third_Party/FreeRTOS/Source/timers.c:893:37
	ldr	r0, [r0]
	.loc	2 893 2                         @ ../Middlewares/Third_Party/FreeRTOS/Source/timers.c:893:2
	cmp	r0, #0
	beq	.LBB23_12
	b	.LBB23_2
.LBB23_2:                               @   in Loop: Header=BB23_1 Depth=1
.Ltmp288:
	.loc	2 895 27 is_stmt 1              @ ../Middlewares/Third_Party/FreeRTOS/Source/timers.c:895:27
	movw	r0, :lower16:pxCurrentTimerList
	movt	r0, :upper16:pxCurrentTimerList
	ldr	r1, [r0]
	.loc	2 895 60 is_stmt 0              @ ../Middlewares/Third_Party/FreeRTOS/Source/timers.c:895:60
	ldr	r1, [r1, #12]
	.loc	2 895 68                        @ ../Middlewares/Third_Party/FreeRTOS/Source/timers.c:895:68
	ldr	r1, [r1]
	.loc	2 895 19                        @ ../Middlewares/Third_Party/FreeRTOS/Source/timers.c:895:19
	str	r1, [sp, #24]
	.loc	2 898 35 is_stmt 1              @ ../Middlewares/Third_Party/FreeRTOS/Source/timers.c:898:35
	ldr	r0, [r0]
	.loc	2 898 70 is_stmt 0              @ ../Middlewares/Third_Party/FreeRTOS/Source/timers.c:898:70
	ldr	r0, [r0, #12]
	.loc	2 898 78                        @ ../Middlewares/Third_Party/FreeRTOS/Source/timers.c:898:78
	ldr	r0, [r0, #12]
	.loc	2 898 11                        @ ../Middlewares/Third_Party/FreeRTOS/Source/timers.c:898:11
	str	r0, [sp, #12]
	.loc	2 899 29 is_stmt 1              @ ../Middlewares/Third_Party/FreeRTOS/Source/timers.c:899:29
	ldr	r0, [sp, #12]
	.loc	2 899 38 is_stmt 0              @ ../Middlewares/Third_Party/FreeRTOS/Source/timers.c:899:38
	adds	r0, #4
	.loc	2 899 12                        @ ../Middlewares/Third_Party/FreeRTOS/Source/timers.c:899:12
	bl	uxListRemove
	.loc	2 905 3 is_stmt 1               @ ../Middlewares/Third_Party/FreeRTOS/Source/timers.c:905:3
	ldr	r0, [sp, #12]
	.loc	2 905 12 is_stmt 0              @ ../Middlewares/Third_Party/FreeRTOS/Source/timers.c:905:12
	ldr	r1, [r0, #32]
	.loc	2 905 3                         @ ../Middlewares/Third_Party/FreeRTOS/Source/timers.c:905:3
	blx	r1
.Ltmp289:
	.loc	2 907 9 is_stmt 1               @ ../Middlewares/Third_Party/FreeRTOS/Source/timers.c:907:9
	ldr	r0, [sp, #12]
	ldrb.w	r0, [r0, #36]
.Ltmp290:
	.loc	2 907 7 is_stmt 0               @ ../Middlewares/Third_Party/FreeRTOS/Source/timers.c:907:7
	lsls	r0, r0, #29
	cmp	r0, #0
	bpl	.LBB23_10
	b	.LBB23_3
.LBB23_3:                               @   in Loop: Header=BB23_1 Depth=1
.Ltmp291:
	.loc	2 915 20 is_stmt 1              @ ../Middlewares/Third_Party/FreeRTOS/Source/timers.c:915:20
	ldr	r0, [sp, #24]
	.loc	2 915 38 is_stmt 0              @ ../Middlewares/Third_Party/FreeRTOS/Source/timers.c:915:38
	ldr	r1, [sp, #12]
	.loc	2 915 47                        @ ../Middlewares/Third_Party/FreeRTOS/Source/timers.c:915:47
	ldr	r1, [r1, #24]
	.loc	2 915 36                        @ ../Middlewares/Third_Party/FreeRTOS/Source/timers.c:915:36
	add	r0, r1
	.loc	2 915 16                        @ ../Middlewares/Third_Party/FreeRTOS/Source/timers.c:915:16
	str	r0, [sp, #20]
.Ltmp292:
	.loc	2 916 8 is_stmt 1               @ ../Middlewares/Third_Party/FreeRTOS/Source/timers.c:916:8
	ldr	r0, [sp, #20]
	.loc	2 916 22 is_stmt 0              @ ../Middlewares/Third_Party/FreeRTOS/Source/timers.c:916:22
	ldr	r1, [sp, #24]
.Ltmp293:
	.loc	2 916 8                         @ ../Middlewares/Third_Party/FreeRTOS/Source/timers.c:916:8
	cmp	r0, r1
	bls	.LBB23_5
	b	.LBB23_4
.LBB23_4:                               @   in Loop: Header=BB23_1 Depth=1
.Ltmp294:
	.loc	2 918 56 is_stmt 1              @ ../Middlewares/Third_Party/FreeRTOS/Source/timers.c:918:56
	ldr	r0, [sp, #20]
	.loc	2 918 12 is_stmt 0              @ ../Middlewares/Third_Party/FreeRTOS/Source/timers.c:918:12
	ldr	r1, [sp, #12]
	.loc	2 918 52                        @ ../Middlewares/Third_Party/FreeRTOS/Source/timers.c:918:52
	str	r0, [r1, #4]
	.loc	2 919 64 is_stmt 1              @ ../Middlewares/Third_Party/FreeRTOS/Source/timers.c:919:64
	ldr	r0, [sp, #12]
	.loc	2 919 49 is_stmt 0              @ ../Middlewares/Third_Party/FreeRTOS/Source/timers.c:919:49
	str	r0, [r0, #16]
	.loc	2 920 18 is_stmt 1              @ ../Middlewares/Third_Party/FreeRTOS/Source/timers.c:920:18
	movw	r0, :lower16:pxCurrentTimerList
	movt	r0, :upper16:pxCurrentTimerList
	ldr	r0, [r0]
	.loc	2 920 41 is_stmt 0              @ ../Middlewares/Third_Party/FreeRTOS/Source/timers.c:920:41
	ldr	r1, [sp, #12]
	.loc	2 920 50                        @ ../Middlewares/Third_Party/FreeRTOS/Source/timers.c:920:50
	adds	r1, #4
	.loc	2 920 5                         @ ../Middlewares/Third_Party/FreeRTOS/Source/timers.c:920:5
	bl	vListInsert
	.loc	2 921 4 is_stmt 1               @ ../Middlewares/Third_Party/FreeRTOS/Source/timers.c:921:4
	b	.LBB23_9
.Ltmp295:
.LBB23_5:                               @   in Loop: Header=BB23_1 Depth=1
	.loc	2 924 37                        @ ../Middlewares/Third_Party/FreeRTOS/Source/timers.c:924:37
	ldr	r0, [sp, #12]
	.loc	2 924 68 is_stmt 0              @ ../Middlewares/Third_Party/FreeRTOS/Source/timers.c:924:68
	ldr	r2, [sp, #24]
	.loc	2 924 15                        @ ../Middlewares/Third_Party/FreeRTOS/Source/timers.c:924:15
	mov	r1, sp
	movs	r3, #0
	str	r3, [r1]
	mov	r1, r3
	bl	xTimerGenericCommand
	.loc	2 924 13                        @ ../Middlewares/Third_Party/FreeRTOS/Source/timers.c:924:13
	str	r0, [sp, #8]
.Ltmp296:
	.loc	2 925 10 is_stmt 1              @ ../Middlewares/Third_Party/FreeRTOS/Source/timers.c:925:10
	ldr	r0, [sp, #8]
.Ltmp297:
	.loc	2 925 9 is_stmt 0               @ ../Middlewares/Third_Party/FreeRTOS/Source/timers.c:925:9
	cbnz	r0, .LBB23_8
	b	.LBB23_6
.LBB23_6:
.Ltmp298:
	.loc	4 195 2 is_stmt 1               @ ../Middlewares/Third_Party/FreeRTOS/Source/portable/RVDS/ARM_CM4F\portmacro.h:195:2
	@APP
	mov.w	r0, #80
	msr	basepri, r0
	isb	sy
	dsb	sy

	@NO_APP
	str	r0, [sp, #28]
.Ltmp299:
	.loc	2 925 47                        @ ../Middlewares/Third_Party/FreeRTOS/Source/timers.c:925:47
	b	.LBB23_7
.LBB23_7:                               @ =>This Inner Loop Header: Depth=1
.Ltmp300:
	.loc	2 925 47 is_stmt 0              @ ../Middlewares/Third_Party/FreeRTOS/Source/timers.c:925:47
	b	.LBB23_7
.Ltmp301:
.LBB23_8:                               @   in Loop: Header=BB23_1 Depth=1
	.loc	2 0 47                          @ ../Middlewares/Third_Party/FreeRTOS/Source/timers.c:0:47
	b	.LBB23_9
.LBB23_9:                               @   in Loop: Header=BB23_1 Depth=1
	.loc	2 928 3 is_stmt 1               @ ../Middlewares/Third_Party/FreeRTOS/Source/timers.c:928:3
	b	.LBB23_11
.Ltmp302:
.LBB23_10:                              @   in Loop: Header=BB23_1 Depth=1
	.loc	2 0 3 is_stmt 0                 @ ../Middlewares/Third_Party/FreeRTOS/Source/timers.c:0:3
	b	.LBB23_11
.LBB23_11:                              @   in Loop: Header=BB23_1 Depth=1
	.loc	2 893 2 is_stmt 1               @ ../Middlewares/Third_Party/FreeRTOS/Source/timers.c:893:2
	b	.LBB23_1
.LBB23_12:
	.loc	2 935 11                        @ ../Middlewares/Third_Party/FreeRTOS/Source/timers.c:935:11
	movw	r2, :lower16:pxCurrentTimerList
	movt	r2, :upper16:pxCurrentTimerList
	ldr	r0, [r2]
	.loc	2 935 9 is_stmt 0               @ ../Middlewares/Third_Party/FreeRTOS/Source/timers.c:935:9
	str	r0, [sp, #16]
	.loc	2 936 23 is_stmt 1              @ ../Middlewares/Third_Party/FreeRTOS/Source/timers.c:936:23
	movw	r1, :lower16:pxOverflowTimerList
	movt	r1, :upper16:pxOverflowTimerList
	ldr	r0, [r1]
	.loc	2 936 21 is_stmt 0              @ ../Middlewares/Third_Party/FreeRTOS/Source/timers.c:936:21
	str	r0, [r2]
	.loc	2 937 24 is_stmt 1              @ ../Middlewares/Third_Party/FreeRTOS/Source/timers.c:937:24
	ldr	r0, [sp, #16]
	.loc	2 937 22 is_stmt 0              @ ../Middlewares/Third_Party/FreeRTOS/Source/timers.c:937:22
	str	r0, [r1]
	.loc	2 938 1 is_stmt 1               @ ../Middlewares/Third_Party/FreeRTOS/Source/timers.c:938:1
	add	sp, #32
	pop	{r7, pc}
.Ltmp303:
.Lfunc_end23:
	.size	prvSwitchTimerLists, .Lfunc_end23-prvSwitchTimerLists
	.cfi_endproc
	.cantunwind
	.fnend
                                        @ -- End function
	.section	.text.prvInsertTimerInActiveList,"ax",%progbits
	.p2align	2                               @ -- Begin function prvInsertTimerInActiveList
	.type	prvInsertTimerInActiveList,%function
	.code	16                              @ @prvInsertTimerInActiveList
	.thumb_func
prvInsertTimerInActiveList:
.Lfunc_begin24:
	.loc	2 694 0                         @ ../Middlewares/Third_Party/FreeRTOS/Source/timers.c:694:0
	.fnstart
	.cfi_startproc
@ %bb.0:
	.save	{r7, lr}
	push	{r7, lr}
	.cfi_def_cfa_offset 8
	.cfi_offset lr, -4
	.cfi_offset r7, -8
	.pad	#24
	sub	sp, #24
	.cfi_def_cfa_offset 32
	str	r0, [sp, #20]
	str	r1, [sp, #16]
	str	r2, [sp, #12]
	str	r3, [sp, #8]
	movs	r0, #0
.Ltmp304:
	.loc	2 695 12 prologue_end           @ ../Middlewares/Third_Party/FreeRTOS/Source/timers.c:695:12
	str	r0, [sp, #4]
	.loc	2 697 53                        @ ../Middlewares/Third_Party/FreeRTOS/Source/timers.c:697:53
	ldr	r0, [sp, #16]
	.loc	2 697 9 is_stmt 0               @ ../Middlewares/Third_Party/FreeRTOS/Source/timers.c:697:9
	ldr	r1, [sp, #20]
	.loc	2 697 49                        @ ../Middlewares/Third_Party/FreeRTOS/Source/timers.c:697:49
	str	r0, [r1, #4]
	.loc	2 698 61 is_stmt 1              @ ../Middlewares/Third_Party/FreeRTOS/Source/timers.c:698:61
	ldr	r0, [sp, #20]
	.loc	2 698 46 is_stmt 0              @ ../Middlewares/Third_Party/FreeRTOS/Source/timers.c:698:46
	str	r0, [r0, #16]
.Ltmp305:
	.loc	2 700 6 is_stmt 1               @ ../Middlewares/Third_Party/FreeRTOS/Source/timers.c:700:6
	ldr	r0, [sp, #16]
	.loc	2 700 25 is_stmt 0              @ ../Middlewares/Third_Party/FreeRTOS/Source/timers.c:700:25
	ldr	r1, [sp, #12]
.Ltmp306:
	.loc	2 700 6                         @ ../Middlewares/Third_Party/FreeRTOS/Source/timers.c:700:6
	cmp	r0, r1
	bhi	.LBB24_5
	b	.LBB24_1
.LBB24_1:
.Ltmp307:
	.loc	2 704 26 is_stmt 1              @ ../Middlewares/Third_Party/FreeRTOS/Source/timers.c:704:26
	ldr	r0, [sp, #12]
	.loc	2 704 37 is_stmt 0              @ ../Middlewares/Third_Party/FreeRTOS/Source/timers.c:704:37
	ldr	r1, [sp, #8]
	.loc	2 704 35                        @ ../Middlewares/Third_Party/FreeRTOS/Source/timers.c:704:35
	subs	r0, r0, r1
	.loc	2 704 57                        @ ../Middlewares/Third_Party/FreeRTOS/Source/timers.c:704:57
	ldr	r1, [sp, #20]
	.loc	2 704 66                        @ ../Middlewares/Third_Party/FreeRTOS/Source/timers.c:704:66
	ldr	r1, [r1, #24]
.Ltmp308:
	.loc	2 704 7                         @ ../Middlewares/Third_Party/FreeRTOS/Source/timers.c:704:7
	cmp	r0, r1
	blo	.LBB24_3
	b	.LBB24_2
.LBB24_2:
	.loc	2 0 7                           @ ../Middlewares/Third_Party/FreeRTOS/Source/timers.c:0:7
	movs	r0, #1
.Ltmp309:
	.loc	2 708 21 is_stmt 1              @ ../Middlewares/Third_Party/FreeRTOS/Source/timers.c:708:21
	str	r0, [sp, #4]
	.loc	2 709 3                         @ ../Middlewares/Third_Party/FreeRTOS/Source/timers.c:709:3
	b	.LBB24_4
.Ltmp310:
.LBB24_3:
	.loc	2 712 17                        @ ../Middlewares/Third_Party/FreeRTOS/Source/timers.c:712:17
	movw	r0, :lower16:pxOverflowTimerList
	movt	r0, :upper16:pxOverflowTimerList
	ldr	r0, [r0]
	.loc	2 712 41 is_stmt 0              @ ../Middlewares/Third_Party/FreeRTOS/Source/timers.c:712:41
	ldr	r1, [sp, #20]
	.loc	2 712 50                        @ ../Middlewares/Third_Party/FreeRTOS/Source/timers.c:712:50
	adds	r1, #4
	.loc	2 712 4                         @ ../Middlewares/Third_Party/FreeRTOS/Source/timers.c:712:4
	bl	vListInsert
	b	.LBB24_4
.Ltmp311:
.LBB24_4:
	.loc	2 714 2 is_stmt 1               @ ../Middlewares/Third_Party/FreeRTOS/Source/timers.c:714:2
	b	.LBB24_10
.Ltmp312:
.LBB24_5:
	.loc	2 717 9                         @ ../Middlewares/Third_Party/FreeRTOS/Source/timers.c:717:9
	ldr	r0, [sp, #12]
	.loc	2 717 20 is_stmt 0              @ ../Middlewares/Third_Party/FreeRTOS/Source/timers.c:717:20
	ldr	r1, [sp, #8]
	.loc	2 717 35                        @ ../Middlewares/Third_Party/FreeRTOS/Source/timers.c:717:35
	cmp	r0, r1
	bhs	.LBB24_8
	b	.LBB24_6
.LBB24_6:
	.loc	2 717 40                        @ ../Middlewares/Third_Party/FreeRTOS/Source/timers.c:717:40
	ldr	r0, [sp, #16]
	.loc	2 717 59                        @ ../Middlewares/Third_Party/FreeRTOS/Source/timers.c:717:59
	ldr	r1, [sp, #8]
.Ltmp313:
	.loc	2 717 7                         @ ../Middlewares/Third_Party/FreeRTOS/Source/timers.c:717:7
	cmp	r0, r1
	blo	.LBB24_8
	b	.LBB24_7
.LBB24_7:
	.loc	2 0 7                           @ ../Middlewares/Third_Party/FreeRTOS/Source/timers.c:0:7
	movs	r0, #1
.Ltmp314:
	.loc	2 722 21 is_stmt 1              @ ../Middlewares/Third_Party/FreeRTOS/Source/timers.c:722:21
	str	r0, [sp, #4]
	.loc	2 723 3                         @ ../Middlewares/Third_Party/FreeRTOS/Source/timers.c:723:3
	b	.LBB24_9
.Ltmp315:
.LBB24_8:
	.loc	2 726 17                        @ ../Middlewares/Third_Party/FreeRTOS/Source/timers.c:726:17
	movw	r0, :lower16:pxCurrentTimerList
	movt	r0, :upper16:pxCurrentTimerList
	ldr	r0, [r0]
	.loc	2 726 40 is_stmt 0              @ ../Middlewares/Third_Party/FreeRTOS/Source/timers.c:726:40
	ldr	r1, [sp, #20]
	.loc	2 726 49                        @ ../Middlewares/Third_Party/FreeRTOS/Source/timers.c:726:49
	adds	r1, #4
	.loc	2 726 4                         @ ../Middlewares/Third_Party/FreeRTOS/Source/timers.c:726:4
	bl	vListInsert
	b	.LBB24_9
.Ltmp316:
.LBB24_9:
	.loc	2 0 4                           @ ../Middlewares/Third_Party/FreeRTOS/Source/timers.c:0:4
	b	.LBB24_10
.LBB24_10:
	.loc	2 730 9 is_stmt 1               @ ../Middlewares/Third_Party/FreeRTOS/Source/timers.c:730:9
	ldr	r0, [sp, #4]
	.loc	2 730 2 is_stmt 0               @ ../Middlewares/Third_Party/FreeRTOS/Source/timers.c:730:2
	add	sp, #24
	pop	{r7, pc}
.Ltmp317:
.Lfunc_end24:
	.size	prvInsertTimerInActiveList, .Lfunc_end24-prvInsertTimerInActiveList
	.cfi_endproc
	.cantunwind
	.fnend
                                        @ -- End function
	.type	xTimerQueue,%object             @ @xTimerQueue
	.section	.bss.xTimerQueue,"aw",%nobits
	.p2align	2
xTimerQueue:
	.long	0
	.size	xTimerQueue, 4

	.type	.L.str,%object                  @ @.str
	.section	.rodata.str1.1,"aMS",%progbits,1
.L.str:
	.asciz	"Tmr Svc"
	.size	.L.str, 8

	.type	xTimerTaskHandle,%object        @ @xTimerTaskHandle
	.section	.bss.xTimerTaskHandle,"aw",%nobits
	.p2align	2
xTimerTaskHandle:
	.long	0
	.size	xTimerTaskHandle, 4

	.type	pxCurrentTimerList,%object      @ @pxCurrentTimerList
	.section	.bss.pxCurrentTimerList,"aw",%nobits
	.p2align	2
pxCurrentTimerList:
	.long	0
	.size	pxCurrentTimerList, 4

	.type	pxOverflowTimerList,%object     @ @pxOverflowTimerList
	.section	.bss.pxOverflowTimerList,"aw",%nobits
	.p2align	2
pxOverflowTimerList:
	.long	0
	.size	pxOverflowTimerList, 4

	.type	prvSampleTimeNow.xLastTime,%object @ @prvSampleTimeNow.xLastTime
	.section	.bss.prvSampleTimeNow.xLastTime,"aw",%nobits
	.p2align	2
prvSampleTimeNow.xLastTime:
	.long	0                               @ 0x0
	.size	prvSampleTimeNow.xLastTime, 4

	.type	xActiveTimerList1,%object       @ @xActiveTimerList1
	.section	.bss.xActiveTimerList1,"aw",%nobits
	.p2align	2
xActiveTimerList1:
	.zero	20
	.size	xActiveTimerList1, 20

	.type	xActiveTimerList2,%object       @ @xActiveTimerList2
	.section	.bss.xActiveTimerList2,"aw",%nobits
	.p2align	2
xActiveTimerList2:
	.zero	20
	.size	xActiveTimerList2, 20

	.type	prvCheckForValidListAndQueue.xStaticTimerQueue,%object @ @prvCheckForValidListAndQueue.xStaticTimerQueue
	.section	.bss.prvCheckForValidListAndQueue.xStaticTimerQueue,"aw",%nobits
	.p2align	2
prvCheckForValidListAndQueue.xStaticTimerQueue:
	.zero	72
	.size	prvCheckForValidListAndQueue.xStaticTimerQueue, 72

	.type	prvCheckForValidListAndQueue.ucStaticTimerQueueStorage,%object @ @prvCheckForValidListAndQueue.ucStaticTimerQueueStorage
	.section	.bss.prvCheckForValidListAndQueue.ucStaticTimerQueueStorage,"aw",%nobits
prvCheckForValidListAndQueue.ucStaticTimerQueueStorage:
	.zero	160
	.size	prvCheckForValidListAndQueue.ucStaticTimerQueueStorage, 160

	.type	.L.str.1,%object                @ @.str.1
	.section	.rodata.str1.1,"aMS",%progbits,1
.L.str.1:
	.asciz	"TmrQ"
	.size	.L.str.1, 5

	.file	9 "D:\\horizon\\Horizon_Infantry (2)\\MDK-ARM" "../Middlewares/Third_Party/FreeRTOS/Source/include/projdefs.h"
	.file	10 "D:\\" "kevil\\ARM\\ARMCLANG\\Bin\\..\\include\\stdlib.h"
	.section	".note.GNU-stack","",%progbits
	.eabi_attribute	30, 6	@ Tag_ABI_optimization_goals
	.ARM_attribute	16, 1	@ Tag_AV_eba