	.text
	.syntax unified
	.eabi_attribute	67, "2.09"	@ Tag_conformance
	.cpu	cortex-m4
	.eabi_attribute	6, 13	@ Tag_CPU_arch
	.eabi_attribute	7, 77	@ Tag_CPU_arch_profile
	.eabi_attribute	8, 0	@ Tag_ARM_ISA_use
	.eabi_attribute	9, 2	@ Tag_THUMB_ISA_use
	.fpu	fpv4-sp-d16
	.eabi_attribute	27, 1	@ Tag_ABI_HardFP_use
	.eabi_attribute	36, 1	@ Tag_FP_HP_extension
	.eabi_attribute	34, 1	@ Tag_CPU_unaligned_access
	.eabi_attribute	17, 1	@ Tag_ABI_PCS_GOT_use
	.eabi_attribute	20, 2	@ Tag_ABI_FP_denormal
	.eabi_attribute	21, 0	@ Tag_ABI_FP_exceptions
	.eabi_attribute	23, 1	@ Tag_ABI_FP_number_model
	.eabi_attribute	24, 1	@ Tag_ABI_align_needed
	.eabi_attribute	25, 1	@ Tag_ABI_align_preserved
	.eabi_attribute	28, 1	@ Tag_ABI_VFP_args
	.eabi_attribute	38, 1	@ Tag_ABI_FP_16bit_format
	.eabi_attribute	18, 2	@ Tag_ABI_PCS_wchar_t
	.eabi_attribute	26, 1	@ Tag_ABI_enum_size
	.eabi_attribute	14, 0	@ Tag_ABI_PCS_R9_use
	.file	"TransformFunctions.c"
	.file	1 "D:\\horizon\\Horizon_Infantry (2)\\MDK-ARM" "../Middlewares/CMSIS/DSP/Inc\\arm_math_types.h"
	.file	2 "D:\\" "kevil\\ARM\\ARMCLANG\\Bin\\..\\include\\stdint.h"
	.file	3 "D:\\horizon\\Horizon_Infantry (2)\\MDK-ARM" "../Middlewares/CMSIS/DSP/Inc\\dsp/transform_functions.h"
	.section	.text.arm_bitreversal_f32,"ax",%progbits
	.hidden	arm_bitreversal_f32             @ -- Begin function arm_bitreversal_f32
	.globl	arm_bitreversal_f32
	.p2align	2
	.type	arm_bitreversal_f32,%function
	.code	16                              @ @arm_bitreversal_f32
	.thumb_func
arm_bitreversal_f32:
.Lfunc_begin0:
	.file	4 "D:\\horizon\\Horizon_Infantry (2)\\MDK-ARM" "../Middlewares/CMSIS/DSP/Src/TransformFunctions/arm_bitreversal.c"
	.loc	4 47 0                          @ ../Middlewares/CMSIS/DSP/Src/TransformFunctions/arm_bitreversal.c:47:0
	.fnstart
	.cfi_sections .debug_frame
	.cfi_startproc
@ %bb.0:
	.pad	#24
	sub	sp, #24
	.cfi_def_cfa_offset 24
                                        @ kill: def $r12 killed $r2
                                        @ kill: def $r12 killed $r1
	str	r0, [sp, #20]
	strh.w	r1, [sp, #18]
	strh.w	r2, [sp, #16]
	str	r3, [sp, #12]
	movs	r0, #0
.Ltmp0:
	.loc	4 53 6 prologue_end             @ ../Middlewares/CMSIS/DSP/Src/TransformFunctions/arm_bitreversal.c:53:6
	strh.w	r0, [sp, #4]
	.loc	4 54 16                         @ ../Middlewares/CMSIS/DSP/Src/TransformFunctions/arm_bitreversal.c:54:16
	ldrh.w	r1, [sp, #18]
	.loc	4 54 24 is_stmt 0               @ ../Middlewares/CMSIS/DSP/Src/TransformFunctions/arm_bitreversal.c:54:24
	lsrs	r1, r1, #1
	.loc	4 54 14                         @ ../Middlewares/CMSIS/DSP/Src/TransformFunctions/arm_bitreversal.c:54:14
	strh.w	r1, [sp, #10]
	.loc	4 55 19 is_stmt 1               @ ../Middlewares/CMSIS/DSP/Src/TransformFunctions/arm_bitreversal.c:55:19
	ldrh.w	r2, [sp, #18]
	movs	r1, #1
	.loc	4 55 34 is_stmt 0               @ ../Middlewares/CMSIS/DSP/Src/TransformFunctions/arm_bitreversal.c:55:34
	add.w	r1, r1, r2, lsr #1
	.loc	4 55 16                         @ ../Middlewares/CMSIS/DSP/Src/TransformFunctions/arm_bitreversal.c:55:16
	strh.w	r1, [sp, #8]
.Ltmp1:
	.loc	4 58 11 is_stmt 1               @ ../Middlewares/CMSIS/DSP/Src/TransformFunctions/arm_bitreversal.c:58:11
	strh.w	r0, [sp, #6]
	.loc	4 58 9 is_stmt 0                @ ../Middlewares/CMSIS/DSP/Src/TransformFunctions/arm_bitreversal.c:58:9
	b	.LBB0_1
.LBB0_1:                                @ =>This Inner Loop Header: Depth=1
.Ltmp2:
	.loc	4 58 17                         @ ../Middlewares/CMSIS/DSP/Src/TransformFunctions/arm_bitreversal.c:58:17
	ldrh.w	r0, [sp, #6]
	.loc	4 58 23                         @ ../Middlewares/CMSIS/DSP/Src/TransformFunctions/arm_bitreversal.c:58:23
	ldrh.w	r1, [sp, #10]
	.loc	4 58 33                         @ ../Middlewares/CMSIS/DSP/Src/TransformFunctions/arm_bitreversal.c:58:33
	subs	r1, #2
.Ltmp3:
	.loc	4 58 4                          @ ../Middlewares/CMSIS/DSP/Src/TransformFunctions/arm_bitreversal.c:58:4
	cmp	r0, r1
	bhi.w	.LBB0_6
	b	.LBB0_2
.LBB0_2:                                @   in Loop: Header=BB0_1 Depth=1
.Ltmp4:
	.loc	4 60 11 is_stmt 1               @ ../Middlewares/CMSIS/DSP/Src/TransformFunctions/arm_bitreversal.c:60:11
	ldrh.w	r0, [sp, #6]
	.loc	4 60 15 is_stmt 0               @ ../Middlewares/CMSIS/DSP/Src/TransformFunctions/arm_bitreversal.c:60:15
	ldrh.w	r1, [sp, #4]
.Ltmp5:
	.loc	4 60 11                         @ ../Middlewares/CMSIS/DSP/Src/TransformFunctions/arm_bitreversal.c:60:11
	cmp	r0, r1
	bge	.LBB0_4
	b	.LBB0_3
.LBB0_3:                                @   in Loop: Header=BB0_1 Depth=1
.Ltmp6:
	.loc	4 63 15 is_stmt 1               @ ../Middlewares/CMSIS/DSP/Src/TransformFunctions/arm_bitreversal.c:63:15
	ldr	r0, [sp, #20]
	.loc	4 63 25 is_stmt 0               @ ../Middlewares/CMSIS/DSP/Src/TransformFunctions/arm_bitreversal.c:63:25
	ldrh.w	r1, [sp, #6]
	.loc	4 63 15                         @ ../Middlewares/CMSIS/DSP/Src/TransformFunctions/arm_bitreversal.c:63:15
	ldr.w	r0, [r0, r1, lsl #3]
	.loc	4 63 13                         @ ../Middlewares/CMSIS/DSP/Src/TransformFunctions/arm_bitreversal.c:63:13
	str	r0, [sp]
	.loc	4 64 25 is_stmt 1               @ ../Middlewares/CMSIS/DSP/Src/TransformFunctions/arm_bitreversal.c:64:25
	ldr	r1, [sp, #20]
	.loc	4 64 35 is_stmt 0               @ ../Middlewares/CMSIS/DSP/Src/TransformFunctions/arm_bitreversal.c:64:35
	ldrh.w	r0, [sp, #4]
	.loc	4 64 25                         @ ../Middlewares/CMSIS/DSP/Src/TransformFunctions/arm_bitreversal.c:64:25
	ldr.w	r0, [r1, r0, lsl #3]
	.loc	4 64 20                         @ ../Middlewares/CMSIS/DSP/Src/TransformFunctions/arm_bitreversal.c:64:20
	ldrh.w	r2, [sp, #6]
	.loc	4 64 23                         @ ../Middlewares/CMSIS/DSP/Src/TransformFunctions/arm_bitreversal.c:64:23
	str.w	r0, [r1, r2, lsl #3]
	.loc	4 65 25 is_stmt 1               @ ../Middlewares/CMSIS/DSP/Src/TransformFunctions/arm_bitreversal.c:65:25
	ldr	r0, [sp]
	.loc	4 65 10 is_stmt 0               @ ../Middlewares/CMSIS/DSP/Src/TransformFunctions/arm_bitreversal.c:65:10
	ldr	r1, [sp, #20]
	.loc	4 65 20                         @ ../Middlewares/CMSIS/DSP/Src/TransformFunctions/arm_bitreversal.c:65:20
	ldrh.w	r2, [sp, #4]
	.loc	4 65 23                         @ ../Middlewares/CMSIS/DSP/Src/TransformFunctions/arm_bitreversal.c:65:23
	str.w	r0, [r1, r2, lsl #3]
	.loc	4 68 15 is_stmt 1               @ ../Middlewares/CMSIS/DSP/Src/TransformFunctions/arm_bitreversal.c:68:15
	ldr	r0, [sp, #20]
	.loc	4 68 26 is_stmt 0               @ ../Middlewares/CMSIS/DSP/Src/TransformFunctions/arm_bitreversal.c:68:26
	ldrh.w	r1, [sp, #6]
	.loc	4 68 15                         @ ../Middlewares/CMSIS/DSP/Src/TransformFunctions/arm_bitreversal.c:68:15
	add.w	r0, r0, r1, lsl #3
	ldr	r0, [r0, #4]
	.loc	4 68 13                         @ ../Middlewares/CMSIS/DSP/Src/TransformFunctions/arm_bitreversal.c:68:13
	str	r0, [sp]
	.loc	4 69 32 is_stmt 1               @ ../Middlewares/CMSIS/DSP/Src/TransformFunctions/arm_bitreversal.c:69:32
	ldr	r1, [sp, #20]
	.loc	4 69 43 is_stmt 0               @ ../Middlewares/CMSIS/DSP/Src/TransformFunctions/arm_bitreversal.c:69:43
	ldrh.w	r0, [sp, #4]
	.loc	4 69 32                         @ ../Middlewares/CMSIS/DSP/Src/TransformFunctions/arm_bitreversal.c:69:32
	add.w	r0, r1, r0, lsl #3
	ldr	r0, [r0, #4]
	.loc	4 69 21                         @ ../Middlewares/CMSIS/DSP/Src/TransformFunctions/arm_bitreversal.c:69:21
	ldrh.w	r2, [sp, #6]
	.loc	4 69 10                         @ ../Middlewares/CMSIS/DSP/Src/TransformFunctions/arm_bitreversal.c:69:10
	add.w	r1, r1, r2, lsl #3
	.loc	4 69 30                         @ ../Middlewares/CMSIS/DSP/Src/TransformFunctions/arm_bitreversal.c:69:30
	str	r0, [r1, #4]
	.loc	4 70 32 is_stmt 1               @ ../Middlewares/CMSIS/DSP/Src/TransformFunctions/arm_bitreversal.c:70:32
	ldr	r0, [sp]
	.loc	4 70 10 is_stmt 0               @ ../Middlewares/CMSIS/DSP/Src/TransformFunctions/arm_bitreversal.c:70:10
	ldr	r1, [sp, #20]
	.loc	4 70 21                         @ ../Middlewares/CMSIS/DSP/Src/TransformFunctions/arm_bitreversal.c:70:21
	ldrh.w	r2, [sp, #4]
	.loc	4 70 10                         @ ../Middlewares/CMSIS/DSP/Src/TransformFunctions/arm_bitreversal.c:70:10
	add.w	r1, r1, r2, lsl #3
	.loc	4 70 30                         @ ../Middlewares/CMSIS/DSP/Src/TransformFunctions/arm_bitreversal.c:70:30
	str	r0, [r1, #4]
	.loc	4 73 15 is_stmt 1               @ ../Middlewares/CMSIS/DSP/Src/TransformFunctions/arm_bitreversal.c:73:15
	ldr	r0, [sp, #20]
	.loc	4 73 26 is_stmt 0               @ ../Middlewares/CMSIS/DSP/Src/TransformFunctions/arm_bitreversal.c:73:26
	ldrh.w	r1, [sp, #6]
	.loc	4 73 30                         @ ../Middlewares/CMSIS/DSP/Src/TransformFunctions/arm_bitreversal.c:73:30
	ldrh.w	r2, [sp, #8]
	.loc	4 73 28                         @ ../Middlewares/CMSIS/DSP/Src/TransformFunctions/arm_bitreversal.c:73:28
	add	r1, r2
	.loc	4 73 15                         @ ../Middlewares/CMSIS/DSP/Src/TransformFunctions/arm_bitreversal.c:73:15
	ldr.w	r0, [r0, r1, lsl #3]
	.loc	4 73 13                         @ ../Middlewares/CMSIS/DSP/Src/TransformFunctions/arm_bitreversal.c:73:13
	str	r0, [sp]
	.loc	4 74 41 is_stmt 1               @ ../Middlewares/CMSIS/DSP/Src/TransformFunctions/arm_bitreversal.c:74:41
	ldr	r1, [sp, #20]
	.loc	4 74 52 is_stmt 0               @ ../Middlewares/CMSIS/DSP/Src/TransformFunctions/arm_bitreversal.c:74:52
	ldrh.w	r0, [sp, #4]
	.loc	4 74 56                         @ ../Middlewares/CMSIS/DSP/Src/TransformFunctions/arm_bitreversal.c:74:56
	ldrh.w	r3, [sp, #8]
	.loc	4 74 54                         @ ../Middlewares/CMSIS/DSP/Src/TransformFunctions/arm_bitreversal.c:74:54
	add	r0, r3
	.loc	4 74 41                         @ ../Middlewares/CMSIS/DSP/Src/TransformFunctions/arm_bitreversal.c:74:41
	ldr.w	r0, [r1, r0, lsl #3]
	.loc	4 74 21                         @ ../Middlewares/CMSIS/DSP/Src/TransformFunctions/arm_bitreversal.c:74:21
	ldrh.w	r2, [sp, #6]
	.loc	4 74 23                         @ ../Middlewares/CMSIS/DSP/Src/TransformFunctions/arm_bitreversal.c:74:23
	add	r2, r3
	.loc	4 74 39                         @ ../Middlewares/CMSIS/DSP/Src/TransformFunctions/arm_bitreversal.c:74:39
	str.w	r0, [r1, r2, lsl #3]
	.loc	4 75 41 is_stmt 1               @ ../Middlewares/CMSIS/DSP/Src/TransformFunctions/arm_bitreversal.c:75:41
	ldr	r0, [sp]
	.loc	4 75 10 is_stmt 0               @ ../Middlewares/CMSIS/DSP/Src/TransformFunctions/arm_bitreversal.c:75:10
	ldr	r1, [sp, #20]
	.loc	4 75 21                         @ ../Middlewares/CMSIS/DSP/Src/TransformFunctions/arm_bitreversal.c:75:21
	ldrh.w	r2, [sp, #4]
	.loc	4 75 25                         @ ../Middlewares/CMSIS/DSP/Src/TransformFunctions/arm_bitreversal.c:75:25
	ldrh.w	r3, [sp, #8]
	.loc	4 75 23                         @ ../Middlewares/CMSIS/DSP/Src/TransformFunctions/arm_bitreversal.c:75:23
	add	r2, r3
	.loc	4 75 39                         @ ../Middlewares/CMSIS/DSP/Src/TransformFunctions/arm_bitreversal.c:75:39
	str.w	r0, [r1, r2, lsl #3]
	.loc	4 78 15 is_stmt 1               @ ../Middlewares/CMSIS/DSP/Src/TransformFunctions/arm_bitreversal.c:78:15
	ldr	r0, [sp, #20]
	.loc	4 78 27 is_stmt 0               @ ../Middlewares/CMSIS/DSP/Src/TransformFunctions/arm_bitreversal.c:78:27
	ldrh.w	r1, [sp, #6]
	.loc	4 78 31                         @ ../Middlewares/CMSIS/DSP/Src/TransformFunctions/arm_bitreversal.c:78:31
	ldrh.w	r2, [sp, #8]
	.loc	4 78 29                         @ ../Middlewares/CMSIS/DSP/Src/TransformFunctions/arm_bitreversal.c:78:29
	add	r1, r2
	.loc	4 78 15                         @ ../Middlewares/CMSIS/DSP/Src/TransformFunctions/arm_bitreversal.c:78:15
	add.w	r0, r0, r1, lsl #3
	ldr	r0, [r0, #4]
	.loc	4 78 13                         @ ../Middlewares/CMSIS/DSP/Src/TransformFunctions/arm_bitreversal.c:78:13
	str	r0, [sp]
	.loc	4 80 10 is_stmt 1               @ ../Middlewares/CMSIS/DSP/Src/TransformFunctions/arm_bitreversal.c:80:10
	ldr	r1, [sp, #20]
	.loc	4 80 22 is_stmt 0               @ ../Middlewares/CMSIS/DSP/Src/TransformFunctions/arm_bitreversal.c:80:22
	ldrh.w	r0, [sp, #4]
	.loc	4 80 26                         @ ../Middlewares/CMSIS/DSP/Src/TransformFunctions/arm_bitreversal.c:80:26
	ldrh.w	r3, [sp, #8]
	.loc	4 80 24                         @ ../Middlewares/CMSIS/DSP/Src/TransformFunctions/arm_bitreversal.c:80:24
	add	r0, r3
	.loc	4 80 10                         @ ../Middlewares/CMSIS/DSP/Src/TransformFunctions/arm_bitreversal.c:80:10
	add.w	r0, r1, r0, lsl #3
	ldr	r0, [r0, #4]
	.loc	4 79 22 is_stmt 1               @ ../Middlewares/CMSIS/DSP/Src/TransformFunctions/arm_bitreversal.c:79:22
	ldrh.w	r2, [sp, #6]
	.loc	4 79 24 is_stmt 0               @ ../Middlewares/CMSIS/DSP/Src/TransformFunctions/arm_bitreversal.c:79:24
	add	r2, r3
	.loc	4 79 10                         @ ../Middlewares/CMSIS/DSP/Src/TransformFunctions/arm_bitreversal.c:79:10
	add.w	r1, r1, r2, lsl #3
	.loc	4 79 46                         @ ../Middlewares/CMSIS/DSP/Src/TransformFunctions/arm_bitreversal.c:79:46
	str	r0, [r1, #4]
	.loc	4 81 48 is_stmt 1               @ ../Middlewares/CMSIS/DSP/Src/TransformFunctions/arm_bitreversal.c:81:48
	ldr	r0, [sp]
	.loc	4 81 10 is_stmt 0               @ ../Middlewares/CMSIS/DSP/Src/TransformFunctions/arm_bitreversal.c:81:10
	ldr	r1, [sp, #20]
	.loc	4 81 22                         @ ../Middlewares/CMSIS/DSP/Src/TransformFunctions/arm_bitreversal.c:81:22
	ldrh.w	r2, [sp, #4]
	.loc	4 81 26                         @ ../Middlewares/CMSIS/DSP/Src/TransformFunctions/arm_bitreversal.c:81:26
	ldrh.w	r3, [sp, #8]
	.loc	4 81 24                         @ ../Middlewares/CMSIS/DSP/Src/TransformFunctions/arm_bitreversal.c:81:24
	add	r2, r3
	.loc	4 81 10                         @ ../Middlewares/CMSIS/DSP/Src/TransformFunctions/arm_bitreversal.c:81:10
	add.w	r1, r1, r2, lsl #3
	.loc	4 81 46                         @ ../Middlewares/CMSIS/DSP/Src/TransformFunctions/arm_bitreversal.c:81:46
	str	r0, [r1, #4]
	.loc	4 83 7 is_stmt 1                @ ../Middlewares/CMSIS/DSP/Src/TransformFunctions/arm_bitreversal.c:83:7
	b	.LBB0_4
.Ltmp7:
.LBB0_4:                                @   in Loop: Header=BB0_1 Depth=1
	.loc	4 86 12                         @ ../Middlewares/CMSIS/DSP/Src/TransformFunctions/arm_bitreversal.c:86:12
	ldr	r0, [sp, #20]
	.loc	4 86 23 is_stmt 0               @ ../Middlewares/CMSIS/DSP/Src/TransformFunctions/arm_bitreversal.c:86:23
	ldrh.w	r1, [sp, #6]
	.loc	4 86 12                         @ ../Middlewares/CMSIS/DSP/Src/TransformFunctions/arm_bitreversal.c:86:12
	add.w	r0, r0, r1, lsl #3
	ldr	r0, [r0, #8]
	.loc	4 86 10                         @ ../Middlewares/CMSIS/DSP/Src/TransformFunctions/arm_bitreversal.c:86:10
	str	r0, [sp]
	.loc	4 87 29 is_stmt 1               @ ../Middlewares/CMSIS/DSP/Src/TransformFunctions/arm_bitreversal.c:87:29
	ldr	r1, [sp, #20]
	.loc	4 87 40 is_stmt 0               @ ../Middlewares/CMSIS/DSP/Src/TransformFunctions/arm_bitreversal.c:87:40
	ldrh.w	r0, [sp, #4]
	.loc	4 87 44                         @ ../Middlewares/CMSIS/DSP/Src/TransformFunctions/arm_bitreversal.c:87:44
	ldrh.w	r2, [sp, #10]
	.loc	4 87 42                         @ ../Middlewares/CMSIS/DSP/Src/TransformFunctions/arm_bitreversal.c:87:42
	add	r0, r2
	.loc	4 87 29                         @ ../Middlewares/CMSIS/DSP/Src/TransformFunctions/arm_bitreversal.c:87:29
	ldr.w	r0, [r1, r0, lsl #3]
	.loc	4 87 18                         @ ../Middlewares/CMSIS/DSP/Src/TransformFunctions/arm_bitreversal.c:87:18
	ldrh.w	r2, [sp, #6]
	.loc	4 87 7                          @ ../Middlewares/CMSIS/DSP/Src/TransformFunctions/arm_bitreversal.c:87:7
	add.w	r1, r1, r2, lsl #3
	.loc	4 87 27                         @ ../Middlewares/CMSIS/DSP/Src/TransformFunctions/arm_bitreversal.c:87:27
	str	r0, [r1, #8]
	.loc	4 88 36 is_stmt 1               @ ../Middlewares/CMSIS/DSP/Src/TransformFunctions/arm_bitreversal.c:88:36
	ldr	r0, [sp]
	.loc	4 88 7 is_stmt 0                @ ../Middlewares/CMSIS/DSP/Src/TransformFunctions/arm_bitreversal.c:88:7
	ldr	r1, [sp, #20]
	.loc	4 88 18                         @ ../Middlewares/CMSIS/DSP/Src/TransformFunctions/arm_bitreversal.c:88:18
	ldrh.w	r2, [sp, #4]
	.loc	4 88 22                         @ ../Middlewares/CMSIS/DSP/Src/TransformFunctions/arm_bitreversal.c:88:22
	ldrh.w	r3, [sp, #10]
	.loc	4 88 20                         @ ../Middlewares/CMSIS/DSP/Src/TransformFunctions/arm_bitreversal.c:88:20
	add	r2, r3
	.loc	4 88 34                         @ ../Middlewares/CMSIS/DSP/Src/TransformFunctions/arm_bitreversal.c:88:34
	str.w	r0, [r1, r2, lsl #3]
	.loc	4 91 12 is_stmt 1               @ ../Middlewares/CMSIS/DSP/Src/TransformFunctions/arm_bitreversal.c:91:12
	ldr	r0, [sp, #20]
	.loc	4 91 24 is_stmt 0               @ ../Middlewares/CMSIS/DSP/Src/TransformFunctions/arm_bitreversal.c:91:24
	ldrh.w	r1, [sp, #6]
	.loc	4 91 33                         @ ../Middlewares/CMSIS/DSP/Src/TransformFunctions/arm_bitreversal.c:91:33
	add.w	r0, r0, r1, lsl #3
	.loc	4 91 12                         @ ../Middlewares/CMSIS/DSP/Src/TransformFunctions/arm_bitreversal.c:91:12
	ldr	r0, [r0, #12]
	.loc	4 91 10                         @ ../Middlewares/CMSIS/DSP/Src/TransformFunctions/arm_bitreversal.c:91:10
	str	r0, [sp]
	.loc	4 92 36 is_stmt 1               @ ../Middlewares/CMSIS/DSP/Src/TransformFunctions/arm_bitreversal.c:92:36
	ldr	r1, [sp, #20]
	.loc	4 92 48 is_stmt 0               @ ../Middlewares/CMSIS/DSP/Src/TransformFunctions/arm_bitreversal.c:92:48
	ldrh.w	r0, [sp, #4]
	.loc	4 92 52                         @ ../Middlewares/CMSIS/DSP/Src/TransformFunctions/arm_bitreversal.c:92:52
	ldrh.w	r2, [sp, #10]
	.loc	4 92 50                         @ ../Middlewares/CMSIS/DSP/Src/TransformFunctions/arm_bitreversal.c:92:50
	add	r0, r2
	.loc	4 92 36                         @ ../Middlewares/CMSIS/DSP/Src/TransformFunctions/arm_bitreversal.c:92:36
	add.w	r0, r1, r0, lsl #3
	ldr	r0, [r0, #4]
	.loc	4 92 19                         @ ../Middlewares/CMSIS/DSP/Src/TransformFunctions/arm_bitreversal.c:92:19
	ldrh.w	r2, [sp, #6]
	.loc	4 92 28                         @ ../Middlewares/CMSIS/DSP/Src/TransformFunctions/arm_bitreversal.c:92:28
	add.w	r1, r1, r2, lsl #3
	.loc	4 92 34                         @ ../Middlewares/CMSIS/DSP/Src/TransformFunctions/arm_bitreversal.c:92:34
	str	r0, [r1, #12]
	.loc	4 93 43 is_stmt 1               @ ../Middlewares/CMSIS/DSP/Src/TransformFunctions/arm_bitreversal.c:93:43
	ldr	r0, [sp]
	.loc	4 93 7 is_stmt 0                @ ../Middlewares/CMSIS/DSP/Src/TransformFunctions/arm_bitreversal.c:93:7
	ldr	r1, [sp, #20]
	.loc	4 93 19                         @ ../Middlewares/CMSIS/DSP/Src/TransformFunctions/arm_bitreversal.c:93:19
	ldrh.w	r2, [sp, #4]
	.loc	4 93 23                         @ ../Middlewares/CMSIS/DSP/Src/TransformFunctions/arm_bitreversal.c:93:23
	ldrh.w	r3, [sp, #10]
	.loc	4 93 21                         @ ../Middlewares/CMSIS/DSP/Src/TransformFunctions/arm_bitreversal.c:93:21
	add	r2, r3
	.loc	4 93 7                          @ ../Middlewares/CMSIS/DSP/Src/TransformFunctions/arm_bitreversal.c:93:7
	add.w	r1, r1, r2, lsl #3
	.loc	4 93 41                         @ ../Middlewares/CMSIS/DSP/Src/TransformFunctions/arm_bitreversal.c:93:41
	str	r0, [r1, #4]
	.loc	4 96 12 is_stmt 1               @ ../Middlewares/CMSIS/DSP/Src/TransformFunctions/arm_bitreversal.c:96:12
	ldr	r0, [sp, #12]
	.loc	4 96 11 is_stmt 0               @ ../Middlewares/CMSIS/DSP/Src/TransformFunctions/arm_bitreversal.c:96:11
	ldrh	r0, [r0]
	.loc	4 96 9                          @ ../Middlewares/CMSIS/DSP/Src/TransformFunctions/arm_bitreversal.c:96:9
	strh.w	r0, [sp, #4]
	.loc	4 99 21 is_stmt 1               @ ../Middlewares/CMSIS/DSP/Src/TransformFunctions/arm_bitreversal.c:99:21
	ldrh.w	r1, [sp, #16]
	.loc	4 99 18 is_stmt 0               @ ../Middlewares/CMSIS/DSP/Src/TransformFunctions/arm_bitreversal.c:99:18
	ldr	r0, [sp, #12]
	add.w	r0, r0, r1, lsl #1
	str	r0, [sp, #12]
	.loc	4 100 4 is_stmt 1               @ ../Middlewares/CMSIS/DSP/Src/TransformFunctions/arm_bitreversal.c:100:4
	b	.LBB0_5
.Ltmp8:
.LBB0_5:                                @   in Loop: Header=BB0_1 Depth=1
	.loc	4 58 42                         @ ../Middlewares/CMSIS/DSP/Src/TransformFunctions/arm_bitreversal.c:58:42
	ldrh.w	r0, [sp, #6]
	adds	r0, #2
	strh.w	r0, [sp, #6]
	.loc	4 58 4 is_stmt 0                @ ../Middlewares/CMSIS/DSP/Src/TransformFunctions/arm_bitreversal.c:58:4
	b	.LBB0_1
.Ltmp9:
.LBB0_6:
	.loc	4 101 1 is_stmt 1               @ ../Middlewares/CMSIS/DSP/Src/TransformFunctions/arm_bitreversal.c:101:1
	add	sp, #24
	bx	lr
.Ltmp10:
.Lfunc_end0:
	.size	arm_bitreversal_f32, .Lfunc_end0-arm_bitreversal_f32
	.cfi_endproc
	.cantunwind
	.fnend
                                        @ -- End function
	.section	.text.arm_bitreversal_q31,"ax",%progbits
	.hidden	arm_bitreversal_q31             @ -- Begin function arm_bitreversal_q31
	.globl	arm_bitreversal_q31
	.p2align	2
	.type	arm_bitreversal_q31,%function
	.code	16                              @ @arm_bitreversal_q31
	.thumb_func
arm_bitreversal_q31:
.Lfunc_begin1:
	.loc	4 118 0                         @ ../Middlewares/CMSIS/DSP/Src/TransformFunctions/arm_bitreversal.c:118:0
	.fnstart
	.cfi_startproc
@ %bb.0:
	.pad	#36
	sub	sp, #36
	.cfi_def_cfa_offset 36
                                        @ kill: def $r12 killed $r2
	str	r0, [sp, #32]
	str	r1, [sp, #28]
	strh.w	r2, [sp, #26]
	str	r3, [sp, #20]
	movs	r0, #0
.Ltmp11:
	.loc	4 123 6 prologue_end            @ ../Middlewares/CMSIS/DSP/Src/TransformFunctions/arm_bitreversal.c:123:6
	str	r0, [sp, #4]
	.loc	4 124 16                        @ ../Middlewares/CMSIS/DSP/Src/TransformFunctions/arm_bitreversal.c:124:16
	ldr	r1, [sp, #28]
	.loc	4 124 23 is_stmt 0              @ ../Middlewares/CMSIS/DSP/Src/TransformFunctions/arm_bitreversal.c:124:23
	lsrs	r1, r1, #1
	.loc	4 124 14                        @ ../Middlewares/CMSIS/DSP/Src/TransformFunctions/arm_bitreversal.c:124:14
	str	r1, [sp, #16]
	.loc	4 125 19 is_stmt 1              @ ../Middlewares/CMSIS/DSP/Src/TransformFunctions/arm_bitreversal.c:125:19
	ldr	r2, [sp, #28]
	movs	r1, #1
	.loc	4 125 32 is_stmt 0              @ ../Middlewares/CMSIS/DSP/Src/TransformFunctions/arm_bitreversal.c:125:32
	add.w	r1, r1, r2, lsr #1
	.loc	4 125 16                        @ ../Middlewares/CMSIS/DSP/Src/TransformFunctions/arm_bitreversal.c:125:16
	str	r1, [sp, #12]
.Ltmp12:
	.loc	4 128 11 is_stmt 1              @ ../Middlewares/CMSIS/DSP/Src/TransformFunctions/arm_bitreversal.c:128:11
	str	r0, [sp, #8]
	.loc	4 128 9 is_stmt 0               @ ../Middlewares/CMSIS/DSP/Src/TransformFunctions/arm_bitreversal.c:128:9
	b	.LBB1_1
.LBB1_1:                                @ =>This Inner Loop Header: Depth=1
.Ltmp13:
	.loc	4 128 17                        @ ../Middlewares/CMSIS/DSP/Src/TransformFunctions/arm_bitreversal.c:128:17
	ldr	r0, [sp, #8]
	.loc	4 128 23                        @ ../Middlewares/CMSIS/DSP/Src/TransformFunctions/arm_bitreversal.c:128:23
	ldr	r1, [sp, #16]
	.loc	4 128 33                        @ ../Middlewares/CMSIS/DSP/Src/TransformFunctions/arm_bitreversal.c:128:33
	subs	r1, #2
.Ltmp14:
	.loc	4 128 4                         @ ../Middlewares/CMSIS/DSP/Src/TransformFunctions/arm_bitreversal.c:128:4
	cmp	r0, r1
	bhi.w	.LBB1_6
	b	.LBB1_2
.LBB1_2:                                @   in Loop: Header=BB1_1 Depth=1
.Ltmp15:
	.loc	4 130 11 is_stmt 1              @ ../Middlewares/CMSIS/DSP/Src/TransformFunctions/arm_bitreversal.c:130:11
	ldr	r0, [sp, #8]
	.loc	4 130 15 is_stmt 0              @ ../Middlewares/CMSIS/DSP/Src/TransformFunctions/arm_bitreversal.c:130:15
	ldr	r1, [sp, #4]
.Ltmp16:
	.loc	4 130 11                        @ ../Middlewares/CMSIS/DSP/Src/TransformFunctions/arm_bitreversal.c:130:11
	cmp	r0, r1
	bhs	.LBB1_4
	b	.LBB1_3
.LBB1_3:                                @   in Loop: Header=BB1_1 Depth=1
.Ltmp17:
	.loc	4 133 15 is_stmt 1              @ ../Middlewares/CMSIS/DSP/Src/TransformFunctions/arm_bitreversal.c:133:15
	ldr	r0, [sp, #32]
	.loc	4 133 25 is_stmt 0              @ ../Middlewares/CMSIS/DSP/Src/TransformFunctions/arm_bitreversal.c:133:25
	ldr	r1, [sp, #8]
	.loc	4 133 15                        @ ../Middlewares/CMSIS/DSP/Src/TransformFunctions/arm_bitreversal.c:133:15
	ldr.w	r0, [r0, r1, lsl #3]
	.loc	4 133 13                        @ ../Middlewares/CMSIS/DSP/Src/TransformFunctions/arm_bitreversal.c:133:13
	str	r0, [sp]
	.loc	4 134 25 is_stmt 1              @ ../Middlewares/CMSIS/DSP/Src/TransformFunctions/arm_bitreversal.c:134:25
	ldr	r1, [sp, #32]
	.loc	4 134 35 is_stmt 0              @ ../Middlewares/CMSIS/DSP/Src/TransformFunctions/arm_bitreversal.c:134:35
	ldr	r0, [sp, #4]
	.loc	4 134 25                        @ ../Middlewares/CMSIS/DSP/Src/TransformFunctions/arm_bitreversal.c:134:25
	ldr.w	r0, [r1, r0, lsl #3]
	.loc	4 134 20                        @ ../Middlewares/CMSIS/DSP/Src/TransformFunctions/arm_bitreversal.c:134:20
	ldr	r2, [sp, #8]
	.loc	4 134 23                        @ ../Middlewares/CMSIS/DSP/Src/TransformFunctions/arm_bitreversal.c:134:23
	str.w	r0, [r1, r2, lsl #3]
	.loc	4 135 25 is_stmt 1              @ ../Middlewares/CMSIS/DSP/Src/TransformFunctions/arm_bitreversal.c:135:25
	ldr	r0, [sp]
	.loc	4 135 10 is_stmt 0              @ ../Middlewares/CMSIS/DSP/Src/TransformFunctions/arm_bitreversal.c:135:10
	ldr	r1, [sp, #32]
	.loc	4 135 20                        @ ../Middlewares/CMSIS/DSP/Src/TransformFunctions/arm_bitreversal.c:135:20
	ldr	r2, [sp, #4]
	.loc	4 135 23                        @ ../Middlewares/CMSIS/DSP/Src/TransformFunctions/arm_bitreversal.c:135:23
	str.w	r0, [r1, r2, lsl #3]
	.loc	4 138 15 is_stmt 1              @ ../Middlewares/CMSIS/DSP/Src/TransformFunctions/arm_bitreversal.c:138:15
	ldr	r0, [sp, #32]
	.loc	4 138 26 is_stmt 0              @ ../Middlewares/CMSIS/DSP/Src/TransformFunctions/arm_bitreversal.c:138:26
	ldr	r1, [sp, #8]
	.loc	4 138 15                        @ ../Middlewares/CMSIS/DSP/Src/TransformFunctions/arm_bitreversal.c:138:15
	add.w	r0, r0, r1, lsl #3
	ldr	r0, [r0, #4]
	.loc	4 138 13                        @ ../Middlewares/CMSIS/DSP/Src/TransformFunctions/arm_bitreversal.c:138:13
	str	r0, [sp]
	.loc	4 139 32 is_stmt 1              @ ../Middlewares/CMSIS/DSP/Src/TransformFunctions/arm_bitreversal.c:139:32
	ldr	r1, [sp, #32]
	.loc	4 139 43 is_stmt 0              @ ../Middlewares/CMSIS/DSP/Src/TransformFunctions/arm_bitreversal.c:139:43
	ldr	r0, [sp, #4]
	.loc	4 139 32                        @ ../Middlewares/CMSIS/DSP/Src/TransformFunctions/arm_bitreversal.c:139:32
	add.w	r0, r1, r0, lsl #3
	ldr	r0, [r0, #4]
	.loc	4 139 21                        @ ../Middlewares/CMSIS/DSP/Src/TransformFunctions/arm_bitreversal.c:139:21
	ldr	r2, [sp, #8]
	.loc	4 139 10                        @ ../Middlewares/CMSIS/DSP/Src/TransformFunctions/arm_bitreversal.c:139:10
	add.w	r1, r1, r2, lsl #3
	.loc	4 139 30                        @ ../Middlewares/CMSIS/DSP/Src/TransformFunctions/arm_bitreversal.c:139:30
	str	r0, [r1, #4]
	.loc	4 140 32 is_stmt 1              @ ../Middlewares/CMSIS/DSP/Src/TransformFunctions/arm_bitreversal.c:140:32
	ldr	r0, [sp]
	.loc	4 140 10 is_stmt 0              @ ../Middlewares/CMSIS/DSP/Src/TransformFunctions/arm_bitreversal.c:140:10
	ldr	r1, [sp, #32]
	.loc	4 140 21                        @ ../Middlewares/CMSIS/DSP/Src/TransformFunctions/arm_bitreversal.c:140:21
	ldr	r2, [sp, #4]
	.loc	4 140 10                        @ ../Middlewares/CMSIS/DSP/Src/TransformFunctions/arm_bitreversal.c:140:10
	add.w	r1, r1, r2, lsl #3
	.loc	4 140 30                        @ ../Middlewares/CMSIS/DSP/Src/TransformFunctions/arm_bitreversal.c:140:30
	str	r0, [r1, #4]
	.loc	4 143 15 is_stmt 1              @ ../Middlewares/CMSIS/DSP/Src/TransformFunctions/arm_bitreversal.c:143:15
	ldr	r0, [sp, #32]
	.loc	4 143 26 is_stmt 0              @ ../Middlewares/CMSIS/DSP/Src/TransformFunctions/arm_bitreversal.c:143:26
	ldr	r1, [sp, #8]
	.loc	4 143 30                        @ ../Middlewares/CMSIS/DSP/Src/TransformFunctions/arm_bitreversal.c:143:30
	ldr	r2, [sp, #12]
	.loc	4 143 28                        @ ../Middlewares/CMSIS/DSP/Src/TransformFunctions/arm_bitreversal.c:143:28
	add	r1, r2
	.loc	4 143 15                        @ ../Middlewares/CMSIS/DSP/Src/TransformFunctions/arm_bitreversal.c:143:15
	ldr.w	r0, [r0, r1, lsl #3]
	.loc	4 143 13                        @ ../Middlewares/CMSIS/DSP/Src/TransformFunctions/arm_bitreversal.c:143:13
	str	r0, [sp]
	.loc	4 144 41 is_stmt 1              @ ../Middlewares/CMSIS/DSP/Src/TransformFunctions/arm_bitreversal.c:144:41
	ldr	r1, [sp, #32]
	.loc	4 144 52 is_stmt 0              @ ../Middlewares/CMSIS/DSP/Src/TransformFunctions/arm_bitreversal.c:144:52
	ldr	r0, [sp, #4]
	.loc	4 144 56                        @ ../Middlewares/CMSIS/DSP/Src/TransformFunctions/arm_bitreversal.c:144:56
	ldr	r3, [sp, #12]
	.loc	4 144 54                        @ ../Middlewares/CMSIS/DSP/Src/TransformFunctions/arm_bitreversal.c:144:54
	add	r0, r3
	.loc	4 144 41                        @ ../Middlewares/CMSIS/DSP/Src/TransformFunctions/arm_bitreversal.c:144:41
	ldr.w	r0, [r1, r0, lsl #3]
	.loc	4 144 21                        @ ../Middlewares/CMSIS/DSP/Src/TransformFunctions/arm_bitreversal.c:144:21
	ldr	r2, [sp, #8]
	.loc	4 144 23                        @ ../Middlewares/CMSIS/DSP/Src/TransformFunctions/arm_bitreversal.c:144:23
	add	r2, r3
	.loc	4 144 39                        @ ../Middlewares/CMSIS/DSP/Src/TransformFunctions/arm_bitreversal.c:144:39
	str.w	r0, [r1, r2, lsl #3]
	.loc	4 145 41 is_stmt 1              @ ../Middlewares/CMSIS/DSP/Src/TransformFunctions/arm_bitreversal.c:145:41
	ldr	r0, [sp]
	.loc	4 145 10 is_stmt 0              @ ../Middlewares/CMSIS/DSP/Src/TransformFunctions/arm_bitreversal.c:145:10
	ldr	r1, [sp, #32]
	.loc	4 145 21                        @ ../Middlewares/CMSIS/DSP/Src/TransformFunctions/arm_bitreversal.c:145:21
	ldr	r2, [sp, #4]
	.loc	4 145 25                        @ ../Middlewares/CMSIS/DSP/Src/TransformFunctions/arm_bitreversal.c:145:25
	ldr	r3, [sp, #12]
	.loc	4 145 23                        @ ../Middlewares/CMSIS/DSP/Src/TransformFunctions/arm_bitreversal.c:145:23
	add	r2, r3
	.loc	4 145 39                        @ ../Middlewares/CMSIS/DSP/Src/TransformFunctions/arm_bitreversal.c:145:39
	str.w	r0, [r1, r2, lsl #3]
	.loc	4 148 15 is_stmt 1              @ ../Middlewares/CMSIS/DSP/Src/TransformFunctions/arm_bitreversal.c:148:15
	ldr	r0, [sp, #32]
	.loc	4 148 27 is_stmt 0              @ ../Middlewares/CMSIS/DSP/Src/TransformFunctions/arm_bitreversal.c:148:27
	ldr	r1, [sp, #8]
	.loc	4 148 31                        @ ../Middlewares/CMSIS/DSP/Src/TransformFunctions/arm_bitreversal.c:148:31
	ldr	r2, [sp, #12]
	.loc	4 148 29                        @ ../Middlewares/CMSIS/DSP/Src/TransformFunctions/arm_bitreversal.c:148:29
	add	r1, r2
	.loc	4 148 15                        @ ../Middlewares/CMSIS/DSP/Src/TransformFunctions/arm_bitreversal.c:148:15
	add.w	r0, r0, r1, lsl #3
	ldr	r0, [r0, #4]
	.loc	4 148 13                        @ ../Middlewares/CMSIS/DSP/Src/TransformFunctions/arm_bitreversal.c:148:13
	str	r0, [sp]
	.loc	4 150 10 is_stmt 1              @ ../Middlewares/CMSIS/DSP/Src/TransformFunctions/arm_bitreversal.c:150:10
	ldr	r1, [sp, #32]
	.loc	4 150 22 is_stmt 0              @ ../Middlewares/CMSIS/DSP/Src/TransformFunctions/arm_bitreversal.c:150:22
	ldr	r0, [sp, #4]
	.loc	4 150 26                        @ ../Middlewares/CMSIS/DSP/Src/TransformFunctions/arm_bitreversal.c:150:26
	ldr	r3, [sp, #12]
	.loc	4 150 24                        @ ../Middlewares/CMSIS/DSP/Src/TransformFunctions/arm_bitreversal.c:150:24
	add	r0, r3
	.loc	4 150 10                        @ ../Middlewares/CMSIS/DSP/Src/TransformFunctions/arm_bitreversal.c:150:10
	add.w	r0, r1, r0, lsl #3
	ldr	r0, [r0, #4]
	.loc	4 149 22 is_stmt 1              @ ../Middlewares/CMSIS/DSP/Src/TransformFunctions/arm_bitreversal.c:149:22
	ldr	r2, [sp, #8]
	.loc	4 149 24 is_stmt 0              @ ../Middlewares/CMSIS/DSP/Src/TransformFunctions/arm_bitreversal.c:149:24
	add	r2, r3
	.loc	4 149 10                        @ ../Middlewares/CMSIS/DSP/Src/TransformFunctions/arm_bitreversal.c:149:10
	add.w	r1, r1, r2, lsl #3
	.loc	4 149 46                        @ ../Middlewares/CMSIS/DSP/Src/TransformFunctions/arm_bitreversal.c:149:46
	str	r0, [r1, #4]
	.loc	4 151 48 is_stmt 1              @ ../Middlewares/CMSIS/DSP/Src/TransformFunctions/arm_bitreversal.c:151:48
	ldr	r0, [sp]
	.loc	4 151 10 is_stmt 0              @ ../Middlewares/CMSIS/DSP/Src/TransformFunctions/arm_bitreversal.c:151:10
	ldr	r1, [sp, #32]
	.loc	4 151 22                        @ ../Middlewares/CMSIS/DSP/Src/TransformFunctions/arm_bitreversal.c:151:22
	ldr	r2, [sp, #4]
	.loc	4 151 26                        @ ../Middlewares/CMSIS/DSP/Src/TransformFunctions/arm_bitreversal.c:151:26
	ldr	r3, [sp, #12]
	.loc	4 151 24                        @ ../Middlewares/CMSIS/DSP/Src/TransformFunctions/arm_bitreversal.c:151:24
	add	r2, r3
	.loc	4 151 10                        @ ../Middlewares/CMSIS/DSP/Src/TransformFunctions/arm_bitreversal.c:151:10
	add.w	r1, r1, r2, lsl #3
	.loc	4 151 46                        @ ../Middlewares/CMSIS/DSP/Src/TransformFunctions/arm_bitreversal.c:151:46
	str	r0, [r1, #4]
	.loc	4 153 7 is_stmt 1               @ ../Middlewares/CMSIS/DSP/Src/TransformFunctions/arm_bitreversal.c:153:7
	b	.LBB1_4
.Ltmp18:
.LBB1_4:                                @   in Loop: Header=BB1_1 Depth=1
	.loc	4 156 12                        @ ../Middlewares/CMSIS/DSP/Src/TransformFunctions/arm_bitreversal.c:156:12
	ldr	r0, [sp, #32]
	.loc	4 156 23 is_stmt 0              @ ../Middlewares/CMSIS/DSP/Src/TransformFunctions/arm_bitreversal.c:156:23
	ldr	r1, [sp, #8]
	.loc	4 156 12                        @ ../Middlewares/CMSIS/DSP/Src/TransformFunctions/arm_bitreversal.c:156:12
	add.w	r0, r0, r1, lsl #3
	ldr	r0, [r0, #8]
	.loc	4 156 10                        @ ../Middlewares/CMSIS/DSP/Src/TransformFunctions/arm_bitreversal.c:156:10
	str	r0, [sp]
	.loc	4 157 29 is_stmt 1              @ ../Middlewares/CMSIS/DSP/Src/TransformFunctions/arm_bitreversal.c:157:29
	ldr	r1, [sp, #32]
	.loc	4 157 40 is_stmt 0              @ ../Middlewares/CMSIS/DSP/Src/TransformFunctions/arm_bitreversal.c:157:40
	ldr	r0, [sp, #4]
	.loc	4 157 44                        @ ../Middlewares/CMSIS/DSP/Src/TransformFunctions/arm_bitreversal.c:157:44
	ldr	r2, [sp, #16]
	.loc	4 157 42                        @ ../Middlewares/CMSIS/DSP/Src/TransformFunctions/arm_bitreversal.c:157:42
	add	r0, r2
	.loc	4 157 29                        @ ../Middlewares/CMSIS/DSP/Src/TransformFunctions/arm_bitreversal.c:157:29
	ldr.w	r0, [r1, r0, lsl #3]
	.loc	4 157 18                        @ ../Middlewares/CMSIS/DSP/Src/TransformFunctions/arm_bitreversal.c:157:18
	ldr	r2, [sp, #8]
	.loc	4 157 7                         @ ../Middlewares/CMSIS/DSP/Src/TransformFunctions/arm_bitreversal.c:157:7
	add.w	r1, r1, r2, lsl #3
	.loc	4 157 27                        @ ../Middlewares/CMSIS/DSP/Src/TransformFunctions/arm_bitreversal.c:157:27
	str	r0, [r1, #8]
	.loc	4 158 36 is_stmt 1              @ ../Middlewares/CMSIS/DSP/Src/TransformFunctions/arm_bitreversal.c:158:36
	ldr	r0, [sp]
	.loc	4 158 7 is_stmt 0               @ ../Middlewares/CMSIS/DSP/Src/TransformFunctions/arm_bitreversal.c:158:7
	ldr	r1, [sp, #32]
	.loc	4 158 18                        @ ../Middlewares/CMSIS/DSP/Src/TransformFunctions/arm_bitreversal.c:158:18
	ldr	r2, [sp, #4]
	.loc	4 158 22                        @ ../Middlewares/CMSIS/DSP/Src/TransformFunctions/arm_bitreversal.c:158:22
	ldr	r3, [sp, #16]
	.loc	4 158 20                        @ ../Middlewares/CMSIS/DSP/Src/TransformFunctions/arm_bitreversal.c:158:20
	add	r2, r3
	.loc	4 158 34                        @ ../Middlewares/CMSIS/DSP/Src/TransformFunctions/arm_bitreversal.c:158:34
	str.w	r0, [r1, r2, lsl #3]
	.loc	4 161 12 is_stmt 1              @ ../Middlewares/CMSIS/DSP/Src/TransformFunctions/arm_bitreversal.c:161:12
	ldr	r0, [sp, #32]
	.loc	4 161 24 is_stmt 0              @ ../Middlewares/CMSIS/DSP/Src/TransformFunctions/arm_bitreversal.c:161:24
	ldr	r1, [sp, #8]
	.loc	4 161 33                        @ ../Middlewares/CMSIS/DSP/Src/TransformFunctions/arm_bitreversal.c:161:33
	add.w	r0, r0, r1, lsl #3
	.loc	4 161 12                        @ ../Middlewares/CMSIS/DSP/Src/TransformFunctions/arm_bitreversal.c:161:12
	ldr	r0, [r0, #12]
	.loc	4 161 10                        @ ../Middlewares/CMSIS/DSP/Src/TransformFunctions/arm_bitreversal.c:161:10
	str	r0, [sp]
	.loc	4 162 36 is_stmt 1              @ ../Middlewares/CMSIS/DSP/Src/TransformFunctions/arm_bitreversal.c:162:36
	ldr	r1, [sp, #32]
	.loc	4 162 48 is_stmt 0              @ ../Middlewares/CMSIS/DSP/Src/TransformFunctions/arm_bitreversal.c:162:48
	ldr	r0, [sp, #4]
	.loc	4 162 52                        @ ../Middlewares/CMSIS/DSP/Src/TransformFunctions/arm_bitreversal.c:162:52
	ldr	r2, [sp, #16]
	.loc	4 162 50                        @ ../Middlewares/CMSIS/DSP/Src/TransformFunctions/arm_bitreversal.c:162:50
	add	r0, r2
	.loc	4 162 36                        @ ../Middlewares/CMSIS/DSP/Src/TransformFunctions/arm_bitreversal.c:162:36
	add.w	r0, r1, r0, lsl #3
	ldr	r0, [r0, #4]
	.loc	4 162 19                        @ ../Middlewares/CMSIS/DSP/Src/TransformFunctions/arm_bitreversal.c:162:19
	ldr	r2, [sp, #8]
	.loc	4 162 28                        @ ../Middlewares/CMSIS/DSP/Src/TransformFunctions/arm_bitreversal.c:162:28
	add.w	r1, r1, r2, lsl #3
	.loc	4 162 34                        @ ../Middlewares/CMSIS/DSP/Src/TransformFunctions/arm_bitreversal.c:162:34
	str	r0, [r1, #12]
	.loc	4 163 43 is_stmt 1              @ ../Middlewares/CMSIS/DSP/Src/TransformFunctions/arm_bitreversal.c:163:43
	ldr	r0, [sp]
	.loc	4 163 7 is_stmt 0               @ ../Middlewares/CMSIS/DSP/Src/TransformFunctions/arm_bitreversal.c:163:7
	ldr	r1, [sp, #32]
	.loc	4 163 19                        @ ../Middlewares/CMSIS/DSP/Src/TransformFunctions/arm_bitreversal.c:163:19
	ldr	r2, [sp, #4]
	.loc	4 163 23                        @ ../Middlewares/CMSIS/DSP/Src/TransformFunctions/arm_bitreversal.c:163:23
	ldr	r3, [sp, #16]
	.loc	4 163 21                        @ ../Middlewares/CMSIS/DSP/Src/TransformFunctions/arm_bitreversal.c:163:21
	add	r2, r3
	.loc	4 163 7                         @ ../Middlewares/CMSIS/DSP/Src/TransformFunctions/arm_bitreversal.c:163:7
	add.w	r1, r1, r2, lsl #3
	.loc	4 163 41                        @ ../Middlewares/CMSIS/DSP/Src/TransformFunctions/arm_bitreversal.c:163:41
	str	r0, [r1, #4]
	.loc	4 166 12 is_stmt 1              @ ../Middlewares/CMSIS/DSP/Src/TransformFunctions/arm_bitreversal.c:166:12
	ldr	r0, [sp, #20]
	.loc	4 166 11 is_stmt 0              @ ../Middlewares/CMSIS/DSP/Src/TransformFunctions/arm_bitreversal.c:166:11
	ldrh	r0, [r0]
	.loc	4 166 9                         @ ../Middlewares/CMSIS/DSP/Src/TransformFunctions/arm_bitreversal.c:166:9
	str	r0, [sp, #4]
	.loc	4 169 21 is_stmt 1              @ ../Middlewares/CMSIS/DSP/Src/TransformFunctions/arm_bitreversal.c:169:21
	ldrh.w	r1, [sp, #26]
	.loc	4 169 18 is_stmt 0              @ ../Middlewares/CMSIS/DSP/Src/TransformFunctions/arm_bitreversal.c:169:18
	ldr	r0, [sp, #20]
	add.w	r0, r0, r1, lsl #1
	str	r0, [sp, #20]
	.loc	4 170 4 is_stmt 1               @ ../Middlewares/CMSIS/DSP/Src/TransformFunctions/arm_bitreversal.c:170:4
	b	.LBB1_5
.Ltmp19:
.LBB1_5:                                @   in Loop: Header=BB1_1 Depth=1
	.loc	4 128 42                        @ ../Middlewares/CMSIS/DSP/Src/TransformFunctions/arm_bitreversal.c:128:42
	ldr	r0, [sp, #8]
	adds	r0, #2
	str	r0, [sp, #8]
	.loc	4 128 4 is_stmt 0               @ ../Middlewares/CMSIS/DSP/Src/TransformFunctions/arm_bitreversal.c:128:4
	b	.LBB1_1
.Ltmp20:
.LBB1_6:
	.loc	4 171 1 is_stmt 1               @ ../Middlewares/CMSIS/DSP/Src/TransformFunctions/arm_bitreversal.c:171:1
	add	sp, #36
	bx	lr
.Ltmp21:
.Lfunc_end1:
	.size	arm_bitreversal_q31, .Lfunc_end1-arm_bitreversal_q31
	.cfi_endproc
	.cantunwind
	.fnend
                                        @ -- End function
	.section	.text.arm_bitreversal_q15,"ax",%progbits
	.hidden	arm_bitreversal_q15             @ -- Begin function arm_bitreversal_q15
	.globl	arm_bitreversal_q15
	.p2align	2
	.type	arm_bitreversal_q15,%function
	.code	16                              @ @arm_bitreversal_q15
	.thumb_func
arm_bitreversal_q15:
.Lfunc_begin2:
	.loc	4 189 0                         @ ../Middlewares/CMSIS/DSP/Src/TransformFunctions/arm_bitreversal.c:189:0
	.fnstart
	.cfi_startproc
@ %bb.0:
	.pad	#40
	sub	sp, #40
	.cfi_def_cfa_offset 40
                                        @ kill: def $r12 killed $r2
	str	r0, [sp, #36]
	str	r1, [sp, #32]
	strh.w	r2, [sp, #30]
	str	r3, [sp, #24]
.Ltmp22:
	.loc	4 190 28 prologue_end           @ ../Middlewares/CMSIS/DSP/Src/TransformFunctions/arm_bitreversal.c:190:28
	ldr	r0, [sp, #36]
	.loc	4 190 11 is_stmt 0              @ ../Middlewares/CMSIS/DSP/Src/TransformFunctions/arm_bitreversal.c:190:11
	str	r0, [sp, #20]
	movs	r0, #0
	.loc	4 196 6 is_stmt 1               @ ../Middlewares/CMSIS/DSP/Src/TransformFunctions/arm_bitreversal.c:196:6
	str	r0, [sp]
	.loc	4 197 16                        @ ../Middlewares/CMSIS/DSP/Src/TransformFunctions/arm_bitreversal.c:197:16
	ldr	r1, [sp, #32]
	.loc	4 197 23 is_stmt 0              @ ../Middlewares/CMSIS/DSP/Src/TransformFunctions/arm_bitreversal.c:197:23
	lsrs	r1, r1, #1
	.loc	4 197 14                        @ ../Middlewares/CMSIS/DSP/Src/TransformFunctions/arm_bitreversal.c:197:14
	str	r1, [sp, #12]
	.loc	4 198 19 is_stmt 1              @ ../Middlewares/CMSIS/DSP/Src/TransformFunctions/arm_bitreversal.c:198:19
	ldr	r2, [sp, #32]
	movs	r1, #1
	.loc	4 198 32 is_stmt 0              @ ../Middlewares/CMSIS/DSP/Src/TransformFunctions/arm_bitreversal.c:198:32
	add.w	r1, r1, r2, lsr #1
	.loc	4 198 16                        @ ../Middlewares/CMSIS/DSP/Src/TransformFunctions/arm_bitreversal.c:198:16
	str	r1, [sp, #8]
.Ltmp23:
	.loc	4 201 11 is_stmt 1              @ ../Middlewares/CMSIS/DSP/Src/TransformFunctions/arm_bitreversal.c:201:11
	str	r0, [sp, #4]
	.loc	4 201 9 is_stmt 0               @ ../Middlewares/CMSIS/DSP/Src/TransformFunctions/arm_bitreversal.c:201:9
	b	.LBB2_1
.LBB2_1:                                @ =>This Inner Loop Header: Depth=1
.Ltmp24:
	.loc	4 201 17                        @ ../Middlewares/CMSIS/DSP/Src/TransformFunctions/arm_bitreversal.c:201:17
	ldr	r0, [sp, #4]
	.loc	4 201 23                        @ ../Middlewares/CMSIS/DSP/Src/TransformFunctions/arm_bitreversal.c:201:23
	ldr	r1, [sp, #12]
	.loc	4 201 33                        @ ../Middlewares/CMSIS/DSP/Src/TransformFunctions/arm_bitreversal.c:201:33
	subs	r1, #2
.Ltmp25:
	.loc	4 201 4                         @ ../Middlewares/CMSIS/DSP/Src/TransformFunctions/arm_bitreversal.c:201:4
	cmp	r0, r1
	bhi	.LBB2_6
	b	.LBB2_2
.LBB2_2:                                @   in Loop: Header=BB2_1 Depth=1
.Ltmp26:
	.loc	4 203 11 is_stmt 1              @ ../Middlewares/CMSIS/DSP/Src/TransformFunctions/arm_bitreversal.c:203:11
	ldr	r0, [sp, #4]
	.loc	4 203 15 is_stmt 0              @ ../Middlewares/CMSIS/DSP/Src/TransformFunctions/arm_bitreversal.c:203:15
	ldr	r1, [sp]
.Ltmp27:
	.loc	4 203 11                        @ ../Middlewares/CMSIS/DSP/Src/TransformFunctions/arm_bitreversal.c:203:11
	cmp	r0, r1
	bhs	.LBB2_4
	b	.LBB2_3
.LBB2_3:                                @   in Loop: Header=BB2_1 Depth=1
.Ltmp28:
	.loc	4 207 15 is_stmt 1              @ ../Middlewares/CMSIS/DSP/Src/TransformFunctions/arm_bitreversal.c:207:15
	ldr	r0, [sp, #20]
	.loc	4 207 20 is_stmt 0              @ ../Middlewares/CMSIS/DSP/Src/TransformFunctions/arm_bitreversal.c:207:20
	ldr	r1, [sp, #4]
	.loc	4 207 15                        @ ../Middlewares/CMSIS/DSP/Src/TransformFunctions/arm_bitreversal.c:207:15
	ldr.w	r0, [r0, r1, lsl #2]
	.loc	4 207 13                        @ ../Middlewares/CMSIS/DSP/Src/TransformFunctions/arm_bitreversal.c:207:13
	str	r0, [sp, #16]
	.loc	4 208 20 is_stmt 1              @ ../Middlewares/CMSIS/DSP/Src/TransformFunctions/arm_bitreversal.c:208:20
	ldr	r1, [sp, #20]
	.loc	4 208 25 is_stmt 0              @ ../Middlewares/CMSIS/DSP/Src/TransformFunctions/arm_bitreversal.c:208:25
	ldr	r0, [sp]
	.loc	4 208 20                        @ ../Middlewares/CMSIS/DSP/Src/TransformFunctions/arm_bitreversal.c:208:20
	ldr.w	r0, [r1, r0, lsl #2]
	.loc	4 208 15                        @ ../Middlewares/CMSIS/DSP/Src/TransformFunctions/arm_bitreversal.c:208:15
	ldr	r2, [sp, #4]
	.loc	4 208 18                        @ ../Middlewares/CMSIS/DSP/Src/TransformFunctions/arm_bitreversal.c:208:18
	str.w	r0, [r1, r2, lsl #2]
	.loc	4 209 20 is_stmt 1              @ ../Middlewares/CMSIS/DSP/Src/TransformFunctions/arm_bitreversal.c:209:20
	ldr	r0, [sp, #16]
	.loc	4 209 10 is_stmt 0              @ ../Middlewares/CMSIS/DSP/Src/TransformFunctions/arm_bitreversal.c:209:10
	ldr	r1, [sp, #20]
	.loc	4 209 15                        @ ../Middlewares/CMSIS/DSP/Src/TransformFunctions/arm_bitreversal.c:209:15
	ldr	r2, [sp]
	.loc	4 209 18                        @ ../Middlewares/CMSIS/DSP/Src/TransformFunctions/arm_bitreversal.c:209:18
	str.w	r0, [r1, r2, lsl #2]
	.loc	4 213 15 is_stmt 1              @ ../Middlewares/CMSIS/DSP/Src/TransformFunctions/arm_bitreversal.c:213:15
	ldr	r0, [sp, #20]
	.loc	4 213 20 is_stmt 0              @ ../Middlewares/CMSIS/DSP/Src/TransformFunctions/arm_bitreversal.c:213:20
	ldr	r1, [sp, #4]
	.loc	4 213 24                        @ ../Middlewares/CMSIS/DSP/Src/TransformFunctions/arm_bitreversal.c:213:24
	ldr	r2, [sp, #8]
	.loc	4 213 22                        @ ../Middlewares/CMSIS/DSP/Src/TransformFunctions/arm_bitreversal.c:213:22
	add	r1, r2
	.loc	4 213 15                        @ ../Middlewares/CMSIS/DSP/Src/TransformFunctions/arm_bitreversal.c:213:15
	ldr.w	r0, [r0, r1, lsl #2]
	.loc	4 213 13                        @ ../Middlewares/CMSIS/DSP/Src/TransformFunctions/arm_bitreversal.c:213:13
	str	r0, [sp, #16]
	.loc	4 214 34 is_stmt 1              @ ../Middlewares/CMSIS/DSP/Src/TransformFunctions/arm_bitreversal.c:214:34
	ldr	r1, [sp, #20]
	.loc	4 214 39 is_stmt 0              @ ../Middlewares/CMSIS/DSP/Src/TransformFunctions/arm_bitreversal.c:214:39
	ldr	r0, [sp]
	.loc	4 214 43                        @ ../Middlewares/CMSIS/DSP/Src/TransformFunctions/arm_bitreversal.c:214:43
	ldr	r3, [sp, #8]
	.loc	4 214 41                        @ ../Middlewares/CMSIS/DSP/Src/TransformFunctions/arm_bitreversal.c:214:41
	add	r0, r3
	.loc	4 214 34                        @ ../Middlewares/CMSIS/DSP/Src/TransformFunctions/arm_bitreversal.c:214:34
	ldr.w	r0, [r1, r0, lsl #2]
	.loc	4 214 15                        @ ../Middlewares/CMSIS/DSP/Src/TransformFunctions/arm_bitreversal.c:214:15
	ldr	r2, [sp, #4]
	.loc	4 214 17                        @ ../Middlewares/CMSIS/DSP/Src/TransformFunctions/arm_bitreversal.c:214:17
	add	r2, r3
	.loc	4 214 32                        @ ../Middlewares/CMSIS/DSP/Src/TransformFunctions/arm_bitreversal.c:214:32
	str.w	r0, [r1, r2, lsl #2]
	.loc	4 215 34 is_stmt 1              @ ../Middlewares/CMSIS/DSP/Src/TransformFunctions/arm_bitreversal.c:215:34
	ldr	r0, [sp, #16]
	.loc	4 215 10 is_stmt 0              @ ../Middlewares/CMSIS/DSP/Src/TransformFunctions/arm_bitreversal.c:215:10
	ldr	r1, [sp, #20]
	.loc	4 215 15                        @ ../Middlewares/CMSIS/DSP/Src/TransformFunctions/arm_bitreversal.c:215:15
	ldr	r2, [sp]
	.loc	4 215 19                        @ ../Middlewares/CMSIS/DSP/Src/TransformFunctions/arm_bitreversal.c:215:19
	ldr	r3, [sp, #8]
	.loc	4 215 17                        @ ../Middlewares/CMSIS/DSP/Src/TransformFunctions/arm_bitreversal.c:215:17
	add	r2, r3
	.loc	4 215 32                        @ ../Middlewares/CMSIS/DSP/Src/TransformFunctions/arm_bitreversal.c:215:32
	str.w	r0, [r1, r2, lsl #2]
	.loc	4 216 7 is_stmt 1               @ ../Middlewares/CMSIS/DSP/Src/TransformFunctions/arm_bitreversal.c:216:7
	b	.LBB2_4
.Ltmp29:
.LBB2_4:                                @   in Loop: Header=BB2_1 Depth=1
	.loc	4 220 12                        @ ../Middlewares/CMSIS/DSP/Src/TransformFunctions/arm_bitreversal.c:220:12
	ldr	r0, [sp, #20]
	.loc	4 220 17 is_stmt 0              @ ../Middlewares/CMSIS/DSP/Src/TransformFunctions/arm_bitreversal.c:220:17
	ldr	r1, [sp, #4]
	.loc	4 220 12                        @ ../Middlewares/CMSIS/DSP/Src/TransformFunctions/arm_bitreversal.c:220:12
	add.w	r0, r0, r1, lsl #2
	ldr	r0, [r0, #4]
	.loc	4 220 10                        @ ../Middlewares/CMSIS/DSP/Src/TransformFunctions/arm_bitreversal.c:220:10
	str	r0, [sp, #16]
	.loc	4 221 22 is_stmt 1              @ ../Middlewares/CMSIS/DSP/Src/TransformFunctions/arm_bitreversal.c:221:22
	ldr	r1, [sp, #20]
	.loc	4 221 27 is_stmt 0              @ ../Middlewares/CMSIS/DSP/Src/TransformFunctions/arm_bitreversal.c:221:27
	ldr	r0, [sp]
	.loc	4 221 31                        @ ../Middlewares/CMSIS/DSP/Src/TransformFunctions/arm_bitreversal.c:221:31
	ldr	r2, [sp, #12]
	.loc	4 221 29                        @ ../Middlewares/CMSIS/DSP/Src/TransformFunctions/arm_bitreversal.c:221:29
	add	r0, r2
	.loc	4 221 22                        @ ../Middlewares/CMSIS/DSP/Src/TransformFunctions/arm_bitreversal.c:221:22
	ldr.w	r0, [r1, r0, lsl #2]
	.loc	4 221 12                        @ ../Middlewares/CMSIS/DSP/Src/TransformFunctions/arm_bitreversal.c:221:12
	ldr	r2, [sp, #4]
	.loc	4 221 7                         @ ../Middlewares/CMSIS/DSP/Src/TransformFunctions/arm_bitreversal.c:221:7
	add.w	r1, r1, r2, lsl #2
	.loc	4 221 20                        @ ../Middlewares/CMSIS/DSP/Src/TransformFunctions/arm_bitreversal.c:221:20
	str	r0, [r1, #4]
	.loc	4 222 29 is_stmt 1              @ ../Middlewares/CMSIS/DSP/Src/TransformFunctions/arm_bitreversal.c:222:29
	ldr	r0, [sp, #16]
	.loc	4 222 7 is_stmt 0               @ ../Middlewares/CMSIS/DSP/Src/TransformFunctions/arm_bitreversal.c:222:7
	ldr	r1, [sp, #20]
	.loc	4 222 12                        @ ../Middlewares/CMSIS/DSP/Src/TransformFunctions/arm_bitreversal.c:222:12
	ldr	r2, [sp]
	.loc	4 222 16                        @ ../Middlewares/CMSIS/DSP/Src/TransformFunctions/arm_bitreversal.c:222:16
	ldr	r3, [sp, #12]
	.loc	4 222 14                        @ ../Middlewares/CMSIS/DSP/Src/TransformFunctions/arm_bitreversal.c:222:14
	add	r2, r3
	.loc	4 222 27                        @ ../Middlewares/CMSIS/DSP/Src/TransformFunctions/arm_bitreversal.c:222:27
	str.w	r0, [r1, r2, lsl #2]
	.loc	4 225 12 is_stmt 1              @ ../Middlewares/CMSIS/DSP/Src/TransformFunctions/arm_bitreversal.c:225:12
	ldr	r0, [sp, #24]
	.loc	4 225 11 is_stmt 0              @ ../Middlewares/CMSIS/DSP/Src/TransformFunctions/arm_bitreversal.c:225:11
	ldrh	r0, [r0]
	.loc	4 225 9                         @ ../Middlewares/CMSIS/DSP/Src/TransformFunctions/arm_bitreversal.c:225:9
	str	r0, [sp]
	.loc	4 228 21 is_stmt 1              @ ../Middlewares/CMSIS/DSP/Src/TransformFunctions/arm_bitreversal.c:228:21
	ldrh.w	r1, [sp, #30]
	.loc	4 228 18 is_stmt 0              @ ../Middlewares/CMSIS/DSP/Src/TransformFunctions/arm_bitreversal.c:228:18
	ldr	r0, [sp, #24]
	add.w	r0, r0, r1, lsl #1
	str	r0, [sp, #24]
	.loc	4 229 4 is_stmt 1               @ ../Middlewares/CMSIS/DSP/Src/TransformFunctions/arm_bitreversal.c:229:4
	b	.LBB2_5
.Ltmp30:
.LBB2_5:                                @   in Loop: Header=BB2_1 Depth=1
	.loc	4 201 42                        @ ../Middlewares/CMSIS/DSP/Src/TransformFunctions/arm_bitreversal.c:201:42
	ldr	r0, [sp, #4]
	adds	r0, #2
	str	r0, [sp, #4]
	.loc	4 201 4 is_stmt 0               @ ../Middlewares/CMSIS/DSP/Src/TransformFunctions/arm_bitreversal.c:201:4
	b	.LBB2_1
.Ltmp31:
.LBB2_6:
	.loc	4 230 1 is_stmt 1               @ ../Middlewares/CMSIS/DSP/Src/TransformFunctions/arm_bitreversal.c:230:1
	add	sp, #40
	bx	lr
.Ltmp32:
.Lfunc_end2:
	.size	arm_bitreversal_q15, .Lfunc_end2-arm_bitreversal_q15
	.cfi_endproc
	.cantunwind
	.fnend
                                        @ -- End function
	.section	.text.arm_bitreversal_64,"ax",%progbits
	.hidden	arm_bitreversal_64              @ -- Begin function arm_bitreversal_64
	.globl	arm_bitreversal_64
	.p2align	2
	.type	arm_bitreversal_64,%function
	.code	16                              @ @arm_bitreversal_64
	.thumb_func
arm_bitreversal_64:
.Lfunc_begin3:
	.file	5 "D:\\horizon\\Horizon_Infantry (2)\\MDK-ARM" "../Middlewares/CMSIS/DSP/Src/TransformFunctions/arm_bitreversal2.c"
	.loc	5 45 0                          @ ../Middlewares/CMSIS/DSP/Src/TransformFunctions/arm_bitreversal2.c:45:0
	.fnstart
	.cfi_startproc
@ %bb.0:
	.pad	#48
	sub	sp, #48
	.cfi_def_cfa_offset 48
                                        @ kill: def $r3 killed $r1
	str	r0, [sp, #44]
	strh.w	r1, [sp, #42]
	str	r2, [sp, #36]
	movs	r0, #0
.Ltmp33:
	.loc	5 49 10 prologue_end            @ ../Middlewares/CMSIS/DSP/Src/TransformFunctions/arm_bitreversal2.c:49:10
	str	r0, [sp, #4]
	.loc	5 49 8 is_stmt 0                @ ../Middlewares/CMSIS/DSP/Src/TransformFunctions/arm_bitreversal2.c:49:8
	b	.LBB3_1
.LBB3_1:                                @ =>This Inner Loop Header: Depth=1
.Ltmp34:
	.loc	5 49 15                         @ ../Middlewares/CMSIS/DSP/Src/TransformFunctions/arm_bitreversal2.c:49:15
	ldr	r0, [sp, #4]
	.loc	5 49 19                         @ ../Middlewares/CMSIS/DSP/Src/TransformFunctions/arm_bitreversal2.c:49:19
	ldrh.w	r1, [sp, #42]
.Ltmp35:
	.loc	5 49 3                          @ ../Middlewares/CMSIS/DSP/Src/TransformFunctions/arm_bitreversal2.c:49:3
	cmp	r0, r1
	bhs	.LBB3_3
	b	.LBB3_2
.LBB3_2:                                @   in Loop: Header=BB3_1 Depth=1
.Ltmp36:
	.loc	5 51 10 is_stmt 1               @ ../Middlewares/CMSIS/DSP/Src/TransformFunctions/arm_bitreversal2.c:51:10
	ldr	r0, [sp, #36]
	.loc	5 51 21 is_stmt 0               @ ../Middlewares/CMSIS/DSP/Src/TransformFunctions/arm_bitreversal2.c:51:21
	ldr	r1, [sp, #4]
	.loc	5 51 10                         @ ../Middlewares/CMSIS/DSP/Src/TransformFunctions/arm_bitreversal2.c:51:10
	ldrh.w	r0, [r0, r1, lsl #1]
	lsrs	r0, r0, #2
	movs	r1, #0
	.loc	5 51 8                          @ ../Middlewares/CMSIS/DSP/Src/TransformFunctions/arm_bitreversal2.c:51:8
	str	r1, [sp, #28]
	str	r0, [sp, #24]
	.loc	5 52 10 is_stmt 1               @ ../Middlewares/CMSIS/DSP/Src/TransformFunctions/arm_bitreversal2.c:52:10
	ldr	r0, [sp, #36]
	.loc	5 52 21 is_stmt 0               @ ../Middlewares/CMSIS/DSP/Src/TransformFunctions/arm_bitreversal2.c:52:21
	ldr	r2, [sp, #4]
	.loc	5 52 10                         @ ../Middlewares/CMSIS/DSP/Src/TransformFunctions/arm_bitreversal2.c:52:10
	add.w	r0, r0, r2, lsl #1
	ldrh	r0, [r0, #2]
	lsrs	r0, r0, #2
	.loc	5 52 8                          @ ../Middlewares/CMSIS/DSP/Src/TransformFunctions/arm_bitreversal2.c:52:8
	str	r1, [sp, #20]
	str	r0, [sp, #16]
	.loc	5 55 12 is_stmt 1               @ ../Middlewares/CMSIS/DSP/Src/TransformFunctions/arm_bitreversal2.c:55:12
	ldr	r0, [sp, #44]
	.loc	5 55 17 is_stmt 0               @ ../Middlewares/CMSIS/DSP/Src/TransformFunctions/arm_bitreversal2.c:55:17
	ldr	r2, [sp, #24]
	.loc	5 55 12                         @ ../Middlewares/CMSIS/DSP/Src/TransformFunctions/arm_bitreversal2.c:55:12
	add.w	r1, r0, r2, lsl #3
	ldr.w	r0, [r0, r2, lsl #3]
	ldr	r1, [r1, #4]
	.loc	5 55 10                         @ ../Middlewares/CMSIS/DSP/Src/TransformFunctions/arm_bitreversal2.c:55:10
	str	r1, [sp, #12]
	str	r0, [sp, #8]
	.loc	5 56 16 is_stmt 1               @ ../Middlewares/CMSIS/DSP/Src/TransformFunctions/arm_bitreversal2.c:56:16
	ldr	r3, [sp, #44]
	.loc	5 56 21 is_stmt 0               @ ../Middlewares/CMSIS/DSP/Src/TransformFunctions/arm_bitreversal2.c:56:21
	ldr	r1, [sp, #16]
	.loc	5 56 16                         @ ../Middlewares/CMSIS/DSP/Src/TransformFunctions/arm_bitreversal2.c:56:16
	add.w	r0, r3, r1, lsl #3
	ldr	r0, [r0, #4]
	ldr.w	r2, [r3, r1, lsl #3]
	.loc	5 56 11                         @ ../Middlewares/CMSIS/DSP/Src/TransformFunctions/arm_bitreversal2.c:56:11
	ldr.w	r12, [sp, #24]
	.loc	5 56 6                          @ ../Middlewares/CMSIS/DSP/Src/TransformFunctions/arm_bitreversal2.c:56:6
	add.w	r1, r3, r12, lsl #3
	.loc	5 56 14                         @ ../Middlewares/CMSIS/DSP/Src/TransformFunctions/arm_bitreversal2.c:56:14
	str.w	r2, [r3, r12, lsl #3]
	str	r0, [r1, #4]
	.loc	5 57 16 is_stmt 1               @ ../Middlewares/CMSIS/DSP/Src/TransformFunctions/arm_bitreversal2.c:57:16
	ldr	r2, [sp, #8]
	ldr	r0, [sp, #12]
	.loc	5 57 6 is_stmt 0                @ ../Middlewares/CMSIS/DSP/Src/TransformFunctions/arm_bitreversal2.c:57:6
	ldr	r3, [sp, #44]
	.loc	5 57 11                         @ ../Middlewares/CMSIS/DSP/Src/TransformFunctions/arm_bitreversal2.c:57:11
	ldr.w	r12, [sp, #16]
	.loc	5 57 6                          @ ../Middlewares/CMSIS/DSP/Src/TransformFunctions/arm_bitreversal2.c:57:6
	add.w	r1, r3, r12, lsl #3
	.loc	5 57 14                         @ ../Middlewares/CMSIS/DSP/Src/TransformFunctions/arm_bitreversal2.c:57:14
	str.w	r2, [r3, r12, lsl #3]
	str	r0, [r1, #4]
	.loc	5 60 12 is_stmt 1               @ ../Middlewares/CMSIS/DSP/Src/TransformFunctions/arm_bitreversal2.c:60:12
	ldr	r0, [sp, #44]
	.loc	5 60 17 is_stmt 0               @ ../Middlewares/CMSIS/DSP/Src/TransformFunctions/arm_bitreversal2.c:60:17
	ldr	r1, [sp, #24]
	.loc	5 60 12                         @ ../Middlewares/CMSIS/DSP/Src/TransformFunctions/arm_bitreversal2.c:60:12
	add.w	r1, r0, r1, lsl #3
	ldr	r0, [r1, #8]
	ldr	r1, [r1, #12]
	.loc	5 60 10                         @ ../Middlewares/CMSIS/DSP/Src/TransformFunctions/arm_bitreversal2.c:60:10
	str	r1, [sp, #12]
	str	r0, [sp, #8]
	.loc	5 61 18 is_stmt 1               @ ../Middlewares/CMSIS/DSP/Src/TransformFunctions/arm_bitreversal2.c:61:18
	ldr	r1, [sp, #44]
	.loc	5 61 23 is_stmt 0               @ ../Middlewares/CMSIS/DSP/Src/TransformFunctions/arm_bitreversal2.c:61:23
	ldr	r0, [sp, #16]
	.loc	5 61 18                         @ ../Middlewares/CMSIS/DSP/Src/TransformFunctions/arm_bitreversal2.c:61:18
	add.w	r2, r1, r0, lsl #3
	ldr	r0, [r2, #8]
	ldr	r2, [r2, #12]
	.loc	5 61 11                         @ ../Middlewares/CMSIS/DSP/Src/TransformFunctions/arm_bitreversal2.c:61:11
	ldr	r3, [sp, #24]
	.loc	5 61 6                          @ ../Middlewares/CMSIS/DSP/Src/TransformFunctions/arm_bitreversal2.c:61:6
	add.w	r1, r1, r3, lsl #3
	.loc	5 61 16                         @ ../Middlewares/CMSIS/DSP/Src/TransformFunctions/arm_bitreversal2.c:61:16
	str	r2, [r1, #12]
	str	r0, [r1, #8]
	.loc	5 62 18 is_stmt 1               @ ../Middlewares/CMSIS/DSP/Src/TransformFunctions/arm_bitreversal2.c:62:18
	ldr	r0, [sp, #8]
	ldr	r2, [sp, #12]
	.loc	5 62 6 is_stmt 0                @ ../Middlewares/CMSIS/DSP/Src/TransformFunctions/arm_bitreversal2.c:62:6
	ldr	r1, [sp, #44]
	.loc	5 62 11                         @ ../Middlewares/CMSIS/DSP/Src/TransformFunctions/arm_bitreversal2.c:62:11
	ldr	r3, [sp, #16]
	.loc	5 62 6                          @ ../Middlewares/CMSIS/DSP/Src/TransformFunctions/arm_bitreversal2.c:62:6
	add.w	r1, r1, r3, lsl #3
	.loc	5 62 16                         @ ../Middlewares/CMSIS/DSP/Src/TransformFunctions/arm_bitreversal2.c:62:16
	str	r2, [r1, #12]
	str	r0, [r1, #8]
	.loc	5 64 7 is_stmt 1                @ ../Middlewares/CMSIS/DSP/Src/TransformFunctions/arm_bitreversal2.c:64:7
	ldr	r0, [sp, #4]
	adds	r0, #2
	str	r0, [sp, #4]
.Ltmp37:
	.loc	5 49 3                          @ ../Middlewares/CMSIS/DSP/Src/TransformFunctions/arm_bitreversal2.c:49:3
	b	.LBB3_1
.Ltmp38:
.LBB3_3:
	.loc	5 66 1                          @ ../Middlewares/CMSIS/DSP/Src/TransformFunctions/arm_bitreversal2.c:66:1
	add	sp, #48
	bx	lr
.Ltmp39:
.Lfunc_end3:
	.size	arm_bitreversal_64, .Lfunc_end3-arm_bitreversal_64
	.cfi_endproc
	.cantunwind
	.fnend
                                        @ -- End function
	.section	.text.arm_bitreversal_32,"ax",%progbits
	.hidden	arm_bitreversal_32              @ -- Begin function arm_bitreversal_32
	.globl	arm_bitreversal_32
	.p2align	2
	.type	arm_bitreversal_32,%function
	.code	16                              @ @arm_bitreversal_32
	.thumb_func
arm_bitreversal_32:
.Lfunc_begin4:
	.loc	5 80 0                          @ ../Middlewares/CMSIS/DSP/Src/TransformFunctions/arm_bitreversal2.c:80:0
	.fnstart
	.cfi_startproc
@ %bb.0:
	.pad	#28
	sub	sp, #28
	.cfi_def_cfa_offset 28
                                        @ kill: def $r3 killed $r1
	str	r0, [sp, #24]
	strh.w	r1, [sp, #22]
	str	r2, [sp, #16]
	movs	r0, #0
.Ltmp40:
	.loc	5 83 10 prologue_end            @ ../Middlewares/CMSIS/DSP/Src/TransformFunctions/arm_bitreversal2.c:83:10
	str	r0, [sp, #4]
	.loc	5 83 8 is_stmt 0                @ ../Middlewares/CMSIS/DSP/Src/TransformFunctions/arm_bitreversal2.c:83:8
	b	.LBB4_1
.LBB4_1:                                @ =>This Inner Loop Header: Depth=1
.Ltmp41:
	.loc	5 83 15                         @ ../Middlewares/CMSIS/DSP/Src/TransformFunctions/arm_bitreversal2.c:83:15
	ldr	r0, [sp, #4]
	.loc	5 83 19                         @ ../Middlewares/CMSIS/DSP/Src/TransformFunctions/arm_bitreversal2.c:83:19
	ldrh.w	r1, [sp, #22]
.Ltmp42:
	.loc	5 83 3                          @ ../Middlewares/CMSIS/DSP/Src/TransformFunctions/arm_bitreversal2.c:83:3
	cmp	r0, r1
	bhs	.LBB4_3
	b	.LBB4_2
.LBB4_2:                                @   in Loop: Header=BB4_1 Depth=1
.Ltmp43:
	.loc	5 85 10 is_stmt 1               @ ../Middlewares/CMSIS/DSP/Src/TransformFunctions/arm_bitreversal2.c:85:10
	ldr	r0, [sp, #16]
	.loc	5 85 21 is_stmt 0               @ ../Middlewares/CMSIS/DSP/Src/TransformFunctions/arm_bitreversal2.c:85:21
	ldr	r1, [sp, #4]
	.loc	5 85 10                         @ ../Middlewares/CMSIS/DSP/Src/TransformFunctions/arm_bitreversal2.c:85:10
	ldrh.w	r0, [r0, r1, lsl #1]
	.loc	5 85 25                         @ ../Middlewares/CMSIS/DSP/Src/TransformFunctions/arm_bitreversal2.c:85:25
	lsrs	r0, r0, #2
	.loc	5 85 8                          @ ../Middlewares/CMSIS/DSP/Src/TransformFunctions/arm_bitreversal2.c:85:8
	str	r0, [sp, #12]
	.loc	5 86 10 is_stmt 1               @ ../Middlewares/CMSIS/DSP/Src/TransformFunctions/arm_bitreversal2.c:86:10
	ldr	r0, [sp, #16]
	.loc	5 86 21 is_stmt 0               @ ../Middlewares/CMSIS/DSP/Src/TransformFunctions/arm_bitreversal2.c:86:21
	ldr	r1, [sp, #4]
	.loc	5 86 10                         @ ../Middlewares/CMSIS/DSP/Src/TransformFunctions/arm_bitreversal2.c:86:10
	add.w	r0, r0, r1, lsl #1
	ldrh	r0, [r0, #2]
	.loc	5 86 28                         @ ../Middlewares/CMSIS/DSP/Src/TransformFunctions/arm_bitreversal2.c:86:28
	lsrs	r0, r0, #2
	.loc	5 86 8                          @ ../Middlewares/CMSIS/DSP/Src/TransformFunctions/arm_bitreversal2.c:86:8
	str	r0, [sp, #8]
	.loc	5 89 12 is_stmt 1               @ ../Middlewares/CMSIS/DSP/Src/TransformFunctions/arm_bitreversal2.c:89:12
	ldr	r0, [sp, #24]
	.loc	5 89 17 is_stmt 0               @ ../Middlewares/CMSIS/DSP/Src/TransformFunctions/arm_bitreversal2.c:89:17
	ldr	r1, [sp, #12]
	.loc	5 89 12                         @ ../Middlewares/CMSIS/DSP/Src/TransformFunctions/arm_bitreversal2.c:89:12
	ldr.w	r0, [r0, r1, lsl #2]
	.loc	5 89 10                         @ ../Middlewares/CMSIS/DSP/Src/TransformFunctions/arm_bitreversal2.c:89:10
	str	r0, [sp]
	.loc	5 90 16 is_stmt 1               @ ../Middlewares/CMSIS/DSP/Src/TransformFunctions/arm_bitreversal2.c:90:16
	ldr	r1, [sp, #24]
	.loc	5 90 21 is_stmt 0               @ ../Middlewares/CMSIS/DSP/Src/TransformFunctions/arm_bitreversal2.c:90:21
	ldr	r0, [sp, #8]
	.loc	5 90 16                         @ ../Middlewares/CMSIS/DSP/Src/TransformFunctions/arm_bitreversal2.c:90:16
	ldr.w	r0, [r1, r0, lsl #2]
	.loc	5 90 11                         @ ../Middlewares/CMSIS/DSP/Src/TransformFunctions/arm_bitreversal2.c:90:11
	ldr	r2, [sp, #12]
	.loc	5 90 14                         @ ../Middlewares/CMSIS/DSP/Src/TransformFunctions/arm_bitreversal2.c:90:14
	str.w	r0, [r1, r2, lsl #2]
	.loc	5 91 16 is_stmt 1               @ ../Middlewares/CMSIS/DSP/Src/TransformFunctions/arm_bitreversal2.c:91:16
	ldr	r0, [sp]
	.loc	5 91 6 is_stmt 0                @ ../Middlewares/CMSIS/DSP/Src/TransformFunctions/arm_bitreversal2.c:91:6
	ldr	r1, [sp, #24]
	.loc	5 91 11                         @ ../Middlewares/CMSIS/DSP/Src/TransformFunctions/arm_bitreversal2.c:91:11
	ldr	r2, [sp, #8]
	.loc	5 91 14                         @ ../Middlewares/CMSIS/DSP/Src/TransformFunctions/arm_bitreversal2.c:91:14
	str.w	r0, [r1, r2, lsl #2]
	.loc	5 94 12 is_stmt 1               @ ../Middlewares/CMSIS/DSP/Src/TransformFunctions/arm_bitreversal2.c:94:12
	ldr	r0, [sp, #24]
	.loc	5 94 17 is_stmt 0               @ ../Middlewares/CMSIS/DSP/Src/TransformFunctions/arm_bitreversal2.c:94:17
	ldr	r1, [sp, #12]
	.loc	5 94 12                         @ ../Middlewares/CMSIS/DSP/Src/TransformFunctions/arm_bitreversal2.c:94:12
	add.w	r0, r0, r1, lsl #2
	ldr	r0, [r0, #4]
	.loc	5 94 10                         @ ../Middlewares/CMSIS/DSP/Src/TransformFunctions/arm_bitreversal2.c:94:10
	str	r0, [sp]
	.loc	5 95 18 is_stmt 1               @ ../Middlewares/CMSIS/DSP/Src/TransformFunctions/arm_bitreversal2.c:95:18
	ldr	r1, [sp, #24]
	.loc	5 95 23 is_stmt 0               @ ../Middlewares/CMSIS/DSP/Src/TransformFunctions/arm_bitreversal2.c:95:23
	ldr	r0, [sp, #8]
	.loc	5 95 18                         @ ../Middlewares/CMSIS/DSP/Src/TransformFunctions/arm_bitreversal2.c:95:18
	add.w	r0, r1, r0, lsl #2
	ldr	r0, [r0, #4]
	.loc	5 95 11                         @ ../Middlewares/CMSIS/DSP/Src/TransformFunctions/arm_bitreversal2.c:95:11
	ldr	r2, [sp, #12]
	.loc	5 95 6                          @ ../Middlewares/CMSIS/DSP/Src/TransformFunctions/arm_bitreversal2.c:95:6
	add.w	r1, r1, r2, lsl #2
	.loc	5 95 16                         @ ../Middlewares/CMSIS/DSP/Src/TransformFunctions/arm_bitreversal2.c:95:16
	str	r0, [r1, #4]
	.loc	5 96 18 is_stmt 1               @ ../Middlewares/CMSIS/DSP/Src/TransformFunctions/arm_bitreversal2.c:96:18
	ldr	r0, [sp]
	.loc	5 96 6 is_stmt 0                @ ../Middlewares/CMSIS/DSP/Src/TransformFunctions/arm_bitreversal2.c:96:6
	ldr	r1, [sp, #24]
	.loc	5 96 11                         @ ../Middlewares/CMSIS/DSP/Src/TransformFunctions/arm_bitreversal2.c:96:11
	ldr	r2, [sp, #8]
	.loc	5 96 6                          @ ../Middlewares/CMSIS/DSP/Src/TransformFunctions/arm_bitreversal2.c:96:6
	add.w	r1, r1, r2, lsl #2
	.loc	5 96 16                         @ ../Middlewares/CMSIS/DSP/Src/TransformFunctions/arm_bitreversal2.c:96:16
	str	r0, [r1, #4]
	.loc	5 98 7 is_stmt 1                @ ../Middlewares/CMSIS/DSP/Src/TransformFunctions/arm_bitreversal2.c:98:7
	ldr	r0, [sp, #4]
	adds	r0, #2
	str	r0, [sp, #4]
.Ltmp44:
	.loc	5 83 3                          @ ../Middlewares/CMSIS/DSP/Src/TransformFunctions/arm_bitreversal2.c:83:3
	b	.LBB4_1
.Ltmp45:
.LBB4_3:
	.loc	5 100 1                         @ ../Middlewares/CMSIS/DSP/Src/TransformFunctions/arm_bitreversal2.c:100:1
	add	sp, #28
	bx	lr
.Ltmp46:
.Lfunc_end4:
	.size	arm_bitreversal_32, .Lfunc_end4-arm_bitreversal_32
	.cfi_endproc
	.cantunwind
	.fnend
                                        @ -- End function
	.section	.text.arm_bitreversal_16,"ax",%progbits
	.hidden	arm_bitreversal_16              @ -- Begin function arm_bitreversal_16
	.globl	arm_bitreversal_16
	.p2align	2
	.type	arm_bitreversal_16,%function
	.code	16                              @ @arm_bitreversal_16
	.thumb_func
arm_bitreversal_16:
.Lfunc_begin5:
	.loc	5 115 0                         @ ../Middlewares/CMSIS/DSP/Src/TransformFunctions/arm_bitreversal2.c:115:0
	.fnstart
	.cfi_startproc
@ %bb.0:
	.pad	#24
	sub	sp, #24
	.cfi_def_cfa_offset 24
                                        @ kill: def $r3 killed $r1
	str	r0, [sp, #20]
	strh.w	r1, [sp, #18]
	str	r2, [sp, #12]
	movs	r0, #0
.Ltmp47:
	.loc	5 119 10 prologue_end           @ ../Middlewares/CMSIS/DSP/Src/TransformFunctions/arm_bitreversal2.c:119:10
	str	r0, [sp]
	.loc	5 119 8 is_stmt 0               @ ../Middlewares/CMSIS/DSP/Src/TransformFunctions/arm_bitreversal2.c:119:8
	b	.LBB5_1
.LBB5_1:                                @ =>This Inner Loop Header: Depth=1
.Ltmp48:
	.loc	5 119 15                        @ ../Middlewares/CMSIS/DSP/Src/TransformFunctions/arm_bitreversal2.c:119:15
	ldr	r0, [sp]
	.loc	5 119 19                        @ ../Middlewares/CMSIS/DSP/Src/TransformFunctions/arm_bitreversal2.c:119:19
	ldrh.w	r1, [sp, #18]
.Ltmp49:
	.loc	5 119 3                         @ ../Middlewares/CMSIS/DSP/Src/TransformFunctions/arm_bitreversal2.c:119:3
	cmp	r0, r1
	bhs	.LBB5_3
	b	.LBB5_2
.LBB5_2:                                @   in Loop: Header=BB5_1 Depth=1
.Ltmp50:
	.loc	5 121 10 is_stmt 1              @ ../Middlewares/CMSIS/DSP/Src/TransformFunctions/arm_bitreversal2.c:121:10
	ldr	r0, [sp, #12]
	.loc	5 121 21 is_stmt 0              @ ../Middlewares/CMSIS/DSP/Src/TransformFunctions/arm_bitreversal2.c:121:21
	ldr	r1, [sp]
	.loc	5 121 10                        @ ../Middlewares/CMSIS/DSP/Src/TransformFunctions/arm_bitreversal2.c:121:10
	ldrh.w	r0, [r0, r1, lsl #1]
	.loc	5 121 25                        @ ../Middlewares/CMSIS/DSP/Src/TransformFunctions/arm_bitreversal2.c:121:25
	lsrs	r0, r0, #2
	.loc	5 121 8                         @ ../Middlewares/CMSIS/DSP/Src/TransformFunctions/arm_bitreversal2.c:121:8
	strh.w	r0, [sp, #10]
	.loc	5 122 10 is_stmt 1              @ ../Middlewares/CMSIS/DSP/Src/TransformFunctions/arm_bitreversal2.c:122:10
	ldr	r0, [sp, #12]
	.loc	5 122 21 is_stmt 0              @ ../Middlewares/CMSIS/DSP/Src/TransformFunctions/arm_bitreversal2.c:122:21
	ldr	r1, [sp]
	.loc	5 122 10                        @ ../Middlewares/CMSIS/DSP/Src/TransformFunctions/arm_bitreversal2.c:122:10
	add.w	r0, r0, r1, lsl #1
	ldrh	r0, [r0, #2]
	.loc	5 122 28                        @ ../Middlewares/CMSIS/DSP/Src/TransformFunctions/arm_bitreversal2.c:122:28
	lsrs	r0, r0, #2
	.loc	5 122 8                         @ ../Middlewares/CMSIS/DSP/Src/TransformFunctions/arm_bitreversal2.c:122:8
	strh.w	r0, [sp, #8]
	.loc	5 125 12 is_stmt 1              @ ../Middlewares/CMSIS/DSP/Src/TransformFunctions/arm_bitreversal2.c:125:12
	ldr	r0, [sp, #20]
	.loc	5 125 17 is_stmt 0              @ ../Middlewares/CMSIS/DSP/Src/TransformFunctions/arm_bitreversal2.c:125:17
	ldrh.w	r1, [sp, #10]
	.loc	5 125 12                        @ ../Middlewares/CMSIS/DSP/Src/TransformFunctions/arm_bitreversal2.c:125:12
	ldrh.w	r0, [r0, r1, lsl #1]
	.loc	5 125 10                        @ ../Middlewares/CMSIS/DSP/Src/TransformFunctions/arm_bitreversal2.c:125:10
	strh.w	r0, [sp, #6]
	.loc	5 126 16 is_stmt 1              @ ../Middlewares/CMSIS/DSP/Src/TransformFunctions/arm_bitreversal2.c:126:16
	ldr	r1, [sp, #20]
	.loc	5 126 21 is_stmt 0              @ ../Middlewares/CMSIS/DSP/Src/TransformFunctions/arm_bitreversal2.c:126:21
	ldrh.w	r0, [sp, #8]
	.loc	5 126 16                        @ ../Middlewares/CMSIS/DSP/Src/TransformFunctions/arm_bitreversal2.c:126:16
	ldrh.w	r0, [r1, r0, lsl #1]
	.loc	5 126 11                        @ ../Middlewares/CMSIS/DSP/Src/TransformFunctions/arm_bitreversal2.c:126:11
	ldrh.w	r2, [sp, #10]
	.loc	5 126 14                        @ ../Middlewares/CMSIS/DSP/Src/TransformFunctions/arm_bitreversal2.c:126:14
	strh.w	r0, [r1, r2, lsl #1]
	.loc	5 127 16 is_stmt 1              @ ../Middlewares/CMSIS/DSP/Src/TransformFunctions/arm_bitreversal2.c:127:16
	ldrh.w	r0, [sp, #6]
	.loc	5 127 6 is_stmt 0               @ ../Middlewares/CMSIS/DSP/Src/TransformFunctions/arm_bitreversal2.c:127:6
	ldr	r1, [sp, #20]
	.loc	5 127 11                        @ ../Middlewares/CMSIS/DSP/Src/TransformFunctions/arm_bitreversal2.c:127:11
	ldrh.w	r2, [sp, #8]
	.loc	5 127 14                        @ ../Middlewares/CMSIS/DSP/Src/TransformFunctions/arm_bitreversal2.c:127:14
	strh.w	r0, [r1, r2, lsl #1]
	.loc	5 130 12 is_stmt 1              @ ../Middlewares/CMSIS/DSP/Src/TransformFunctions/arm_bitreversal2.c:130:12
	ldr	r0, [sp, #20]
	.loc	5 130 17 is_stmt 0              @ ../Middlewares/CMSIS/DSP/Src/TransformFunctions/arm_bitreversal2.c:130:17
	ldrh.w	r1, [sp, #10]
	.loc	5 130 12                        @ ../Middlewares/CMSIS/DSP/Src/TransformFunctions/arm_bitreversal2.c:130:12
	add.w	r0, r0, r1, lsl #1
	ldrh	r0, [r0, #2]
	.loc	5 130 10                        @ ../Middlewares/CMSIS/DSP/Src/TransformFunctions/arm_bitreversal2.c:130:10
	strh.w	r0, [sp, #6]
	.loc	5 131 18 is_stmt 1              @ ../Middlewares/CMSIS/DSP/Src/TransformFunctions/arm_bitreversal2.c:131:18
	ldr	r1, [sp, #20]
	.loc	5 131 23 is_stmt 0              @ ../Middlewares/CMSIS/DSP/Src/TransformFunctions/arm_bitreversal2.c:131:23
	ldrh.w	r0, [sp, #8]
	.loc	5 131 18                        @ ../Middlewares/CMSIS/DSP/Src/TransformFunctions/arm_bitreversal2.c:131:18
	add.w	r0, r1, r0, lsl #1
	ldrh	r0, [r0, #2]
	.loc	5 131 11                        @ ../Middlewares/CMSIS/DSP/Src/TransformFunctions/arm_bitreversal2.c:131:11
	ldrh.w	r2, [sp, #10]
	.loc	5 131 6                         @ ../Middlewares/CMSIS/DSP/Src/TransformFunctions/arm_bitreversal2.c:131:6
	add.w	r1, r1, r2, lsl #1
	.loc	5 131 16                        @ ../Middlewares/CMSIS/DSP/Src/TransformFunctions/arm_bitreversal2.c:131:16
	strh	r0, [r1, #2]
	.loc	5 132 18 is_stmt 1              @ ../Middlewares/CMSIS/DSP/Src/TransformFunctions/arm_bitreversal2.c:132:18
	ldrh.w	r0, [sp, #6]
	.loc	5 132 6 is_stmt 0               @ ../Middlewares/CMSIS/DSP/Src/TransformFunctions/arm_bitreversal2.c:132:6
	ldr	r1, [sp, #20]
	.loc	5 132 11                        @ ../Middlewares/CMSIS/DSP/Src/TransformFunctions/arm_bitreversal2.c:132:11
	ldrh.w	r2, [sp, #8]
	.loc	5 132 6                         @ ../Middlewares/CMSIS/DSP/Src/TransformFunctions/arm_bitreversal2.c:132:6
	add.w	r1, r1, r2, lsl #1
	.loc	5 132 16                        @ ../Middlewares/CMSIS/DSP/Src/TransformFunctions/arm_bitreversal2.c:132:16
	strh	r0, [r1, #2]
	.loc	5 134 7 is_stmt 1               @ ../Middlewares/CMSIS/DSP/Src/TransformFunctions/arm_bitreversal2.c:134:7
	ldr	r0, [sp]
	adds	r0, #2
	str	r0, [sp]
.Ltmp51:
	.loc	5 119 3                         @ ../Middlewares/CMSIS/DSP/Src/TransformFunctions/arm_bitreversal2.c:119:3
	b	.LBB5_1
.Ltmp52:
.LBB5_3:
	.loc	5 136 1                         @ ../Middlewares/CMSIS/DSP/Src/TransformFunctions/arm_bitreversal2.c:136:1
	add	sp, #24
	bx	lr
.Ltmp53:
.Lfunc_end5:
	.size	arm_bitreversal_16, .Lfunc_end5-arm_bitreversal_16
	.cfi_endproc
	.cantunwind
	.fnend
                                        @ -- End function
	.section	.text.arm_cfft_radix8by2_f32,"ax",%progbits
	.hidden	arm_cfft_radix8by2_f32          @ -- Begin function arm_cfft_radix8by2_f32
	.globl	arm_cfft_radix8by2_f32
	.p2align	2
	.type	arm_cfft_radix8by2_f32,%function
	.code	16                              @ @arm_cfft_radix8by2_f32
	.thumb_func
arm_cfft_radix8by2_f32:
.Lfunc_begin6:
	.file	6 "D:\\horizon\\Horizon_Infantry (2)\\MDK-ARM" "../Middlewares/CMSIS/DSP/Src/TransformFunctions/arm_cfft_f32.c"
	.loc	6 759 0                         @ ../Middlewares/CMSIS/DSP/Src/TransformFunctions/arm_cfft_f32.c:759:0
	.fnstart
	.cfi_startproc
@ %bb.0:
	.save	{r7, lr}
	push	{r7, lr}
	.cfi_def_cfa_offset 8
	.cfi_offset lr, -4
	.cfi_offset r7, -8
	.pad	#136
	sub	sp, #136
	.cfi_def_cfa_offset 144
	str	r0, [sp, #132]
	str	r1, [sp, #128]
.Ltmp54:
	.loc	6 760 16 prologue_end           @ ../Middlewares/CMSIS/DSP/Src/TransformFunctions/arm_cfft_f32.c:760:16
	ldr	r0, [sp, #132]
	.loc	6 760 19 is_stmt 0              @ ../Middlewares/CMSIS/DSP/Src/TransformFunctions/arm_cfft_f32.c:760:19
	ldrh	r0, [r0]
	.loc	6 760 12                        @ ../Middlewares/CMSIS/DSP/Src/TransformFunctions/arm_cfft_f32.c:760:12
	str	r0, [sp, #124]
	.loc	6 762 20 is_stmt 1              @ ../Middlewares/CMSIS/DSP/Src/TransformFunctions/arm_cfft_f32.c:762:20
	ldr	r0, [sp, #128]
	.loc	6 762 25 is_stmt 0              @ ../Middlewares/CMSIS/DSP/Src/TransformFunctions/arm_cfft_f32.c:762:25
	ldr	r1, [sp, #124]
	.loc	6 762 23                        @ ../Middlewares/CMSIS/DSP/Src/TransformFunctions/arm_cfft_f32.c:762:23
	add.w	r0, r0, r1, lsl #2
	.loc	6 762 15                        @ ../Middlewares/CMSIS/DSP/Src/TransformFunctions/arm_cfft_f32.c:762:15
	str	r0, [sp, #104]
	.loc	6 763 40 is_stmt 1              @ ../Middlewares/CMSIS/DSP/Src/TransformFunctions/arm_cfft_f32.c:763:40
	ldr	r0, [sp, #132]
	.loc	6 763 43 is_stmt 0              @ ../Middlewares/CMSIS/DSP/Src/TransformFunctions/arm_cfft_f32.c:763:43
	ldr	r0, [r0, #4]
	.loc	6 763 21                        @ ../Middlewares/CMSIS/DSP/Src/TransformFunctions/arm_cfft_f32.c:763:21
	str	r0, [sp, #100]
	.loc	6 768 11 is_stmt 1              @ ../Middlewares/CMSIS/DSP/Src/TransformFunctions/arm_cfft_f32.c:768:11
	ldr	r0, [sp, #128]
	.loc	6 768 9 is_stmt 0               @ ../Middlewares/CMSIS/DSP/Src/TransformFunctions/arm_cfft_f32.c:768:9
	str	r0, [sp, #120]
	.loc	6 769 11 is_stmt 1              @ ../Middlewares/CMSIS/DSP/Src/TransformFunctions/arm_cfft_f32.c:769:11
	ldr	r0, [sp, #104]
	.loc	6 769 9 is_stmt 0               @ ../Middlewares/CMSIS/DSP/Src/TransformFunctions/arm_cfft_f32.c:769:9
	str	r0, [sp, #116]
	.loc	6 772 5 is_stmt 1               @ ../Middlewares/CMSIS/DSP/Src/TransformFunctions/arm_cfft_f32.c:772:5
	ldr	r0, [sp, #124]
	lsrs	r0, r0, #1
	str	r0, [sp, #124]
	.loc	6 775 11                        @ ../Middlewares/CMSIS/DSP/Src/TransformFunctions/arm_cfft_f32.c:775:11
	ldr	r0, [sp, #128]
	.loc	6 775 16 is_stmt 0              @ ../Middlewares/CMSIS/DSP/Src/TransformFunctions/arm_cfft_f32.c:775:16
	ldr	r1, [sp, #124]
	.loc	6 775 14                        @ ../Middlewares/CMSIS/DSP/Src/TransformFunctions/arm_cfft_f32.c:775:14
	add.w	r0, r0, r1, lsl #2
	.loc	6 775 9                         @ ../Middlewares/CMSIS/DSP/Src/TransformFunctions/arm_cfft_f32.c:775:9
	str	r0, [sp, #112]
	.loc	6 776 11 is_stmt 1              @ ../Middlewares/CMSIS/DSP/Src/TransformFunctions/arm_cfft_f32.c:776:11
	ldr	r0, [sp, #104]
	.loc	6 776 16 is_stmt 0              @ ../Middlewares/CMSIS/DSP/Src/TransformFunctions/arm_cfft_f32.c:776:16
	ldr	r1, [sp, #124]
	.loc	6 776 14                        @ ../Middlewares/CMSIS/DSP/Src/TransformFunctions/arm_cfft_f32.c:776:14
	add.w	r0, r0, r1, lsl #2
	.loc	6 776 9                         @ ../Middlewares/CMSIS/DSP/Src/TransformFunctions/arm_cfft_f32.c:776:9
	str	r0, [sp, #108]
.Ltmp55:
	.loc	6 779 12 is_stmt 1              @ ../Middlewares/CMSIS/DSP/Src/TransformFunctions/arm_cfft_f32.c:779:12
	ldr	r0, [sp, #124]
	.loc	6 779 14 is_stmt 0              @ ../Middlewares/CMSIS/DSP/Src/TransformFunctions/arm_cfft_f32.c:779:14
	lsrs	r0, r0, #2
	.loc	6 779 10                        @ ../Middlewares/CMSIS/DSP/Src/TransformFunctions/arm_cfft_f32.c:779:10
	str	r0, [sp, #8]
	.loc	6 779 8                         @ ../Middlewares/CMSIS/DSP/Src/TransformFunctions/arm_cfft_f32.c:779:8
	b	.LBB6_1
.LBB6_1:                                @ =>This Inner Loop Header: Depth=1
.Ltmp56:
	.loc	6 779 20                        @ ../Middlewares/CMSIS/DSP/Src/TransformFunctions/arm_cfft_f32.c:779:20
	ldr	r0, [sp, #8]
.Ltmp57:
	.loc	6 779 3                         @ ../Middlewares/CMSIS/DSP/Src/TransformFunctions/arm_cfft_f32.c:779:3
	cmp	r0, #0
	beq.w	.LBB6_4
	b	.LBB6_2
.LBB6_2:                                @   in Loop: Header=BB6_1 Depth=1
.Ltmp58:
	.loc	6 781 13 is_stmt 1              @ ../Middlewares/CMSIS/DSP/Src/TransformFunctions/arm_cfft_f32.c:781:13
	ldr	r0, [sp, #128]
	ldr	r0, [r0]
	.loc	6 781 11 is_stmt 0              @ ../Middlewares/CMSIS/DSP/Src/TransformFunctions/arm_cfft_f32.c:781:11
	str	r0, [sp, #84]
	.loc	6 782 13 is_stmt 1              @ ../Middlewares/CMSIS/DSP/Src/TransformFunctions/arm_cfft_f32.c:782:13
	ldr	r0, [sp, #128]
	ldr	r0, [r0, #4]
	.loc	6 782 11 is_stmt 0              @ ../Middlewares/CMSIS/DSP/Src/TransformFunctions/arm_cfft_f32.c:782:11
	str	r0, [sp, #88]
	.loc	6 783 13 is_stmt 1              @ ../Middlewares/CMSIS/DSP/Src/TransformFunctions/arm_cfft_f32.c:783:13
	ldr	r0, [sp, #128]
	ldr	r0, [r0, #8]
	.loc	6 783 11 is_stmt 0              @ ../Middlewares/CMSIS/DSP/Src/TransformFunctions/arm_cfft_f32.c:783:11
	str	r0, [sp, #92]
	.loc	6 784 13 is_stmt 1              @ ../Middlewares/CMSIS/DSP/Src/TransformFunctions/arm_cfft_f32.c:784:13
	ldr	r0, [sp, #128]
	ldr	r0, [r0, #12]
	.loc	6 784 11 is_stmt 0              @ ../Middlewares/CMSIS/DSP/Src/TransformFunctions/arm_cfft_f32.c:784:11
	str	r0, [sp, #96]
	.loc	6 786 13 is_stmt 1              @ ../Middlewares/CMSIS/DSP/Src/TransformFunctions/arm_cfft_f32.c:786:13
	ldr	r0, [sp, #104]
	ldr	r0, [r0]
	.loc	6 786 11 is_stmt 0              @ ../Middlewares/CMSIS/DSP/Src/TransformFunctions/arm_cfft_f32.c:786:11
	str	r0, [sp, #68]
	.loc	6 787 13 is_stmt 1              @ ../Middlewares/CMSIS/DSP/Src/TransformFunctions/arm_cfft_f32.c:787:13
	ldr	r0, [sp, #104]
	ldr	r0, [r0, #4]
	.loc	6 787 11 is_stmt 0              @ ../Middlewares/CMSIS/DSP/Src/TransformFunctions/arm_cfft_f32.c:787:11
	str	r0, [sp, #72]
	.loc	6 788 13 is_stmt 1              @ ../Middlewares/CMSIS/DSP/Src/TransformFunctions/arm_cfft_f32.c:788:13
	ldr	r0, [sp, #104]
	ldr	r0, [r0, #8]
	.loc	6 788 11 is_stmt 0              @ ../Middlewares/CMSIS/DSP/Src/TransformFunctions/arm_cfft_f32.c:788:11
	str	r0, [sp, #76]
	.loc	6 789 13 is_stmt 1              @ ../Middlewares/CMSIS/DSP/Src/TransformFunctions/arm_cfft_f32.c:789:13
	ldr	r0, [sp, #104]
	ldr	r0, [r0, #12]
	.loc	6 789 11 is_stmt 0              @ ../Middlewares/CMSIS/DSP/Src/TransformFunctions/arm_cfft_f32.c:789:11
	str	r0, [sp, #80]
	.loc	6 791 13 is_stmt 1              @ ../Middlewares/CMSIS/DSP/Src/TransformFunctions/arm_cfft_f32.c:791:13
	ldr	r0, [sp, #112]
	ldr	r0, [r0]
	.loc	6 791 11 is_stmt 0              @ ../Middlewares/CMSIS/DSP/Src/TransformFunctions/arm_cfft_f32.c:791:11
	str	r0, [sp, #52]
	.loc	6 792 13 is_stmt 1              @ ../Middlewares/CMSIS/DSP/Src/TransformFunctions/arm_cfft_f32.c:792:13
	ldr	r0, [sp, #112]
	ldr	r0, [r0, #4]
	.loc	6 792 11 is_stmt 0              @ ../Middlewares/CMSIS/DSP/Src/TransformFunctions/arm_cfft_f32.c:792:11
	str	r0, [sp, #56]
	.loc	6 793 13 is_stmt 1              @ ../Middlewares/CMSIS/DSP/Src/TransformFunctions/arm_cfft_f32.c:793:13
	ldr	r0, [sp, #112]
	ldr	r0, [r0, #8]
	.loc	6 793 11 is_stmt 0              @ ../Middlewares/CMSIS/DSP/Src/TransformFunctions/arm_cfft_f32.c:793:11
	str	r0, [sp, #60]
	.loc	6 794 13 is_stmt 1              @ ../Middlewares/CMSIS/DSP/Src/TransformFunctions/arm_cfft_f32.c:794:13
	ldr	r0, [sp, #112]
	ldr	r0, [r0, #12]
	.loc	6 794 11 is_stmt 0              @ ../Middlewares/CMSIS/DSP/Src/TransformFunctions/arm_cfft_f32.c:794:11
	str	r0, [sp, #64]
	.loc	6 796 13 is_stmt 1              @ ../Middlewares/CMSIS/DSP/Src/TransformFunctions/arm_cfft_f32.c:796:13
	ldr	r0, [sp, #108]
	ldr	r0, [r0]
	.loc	6 796 11 is_stmt 0              @ ../Middlewares/CMSIS/DSP/Src/TransformFunctions/arm_cfft_f32.c:796:11
	str	r0, [sp, #36]
	.loc	6 797 13 is_stmt 1              @ ../Middlewares/CMSIS/DSP/Src/TransformFunctions/arm_cfft_f32.c:797:13
	ldr	r0, [sp, #108]
	ldr	r0, [r0, #4]
	.loc	6 797 11 is_stmt 0              @ ../Middlewares/CMSIS/DSP/Src/TransformFunctions/arm_cfft_f32.c:797:11
	str	r0, [sp, #40]
	.loc	6 798 13 is_stmt 1              @ ../Middlewares/CMSIS/DSP/Src/TransformFunctions/arm_cfft_f32.c:798:13
	ldr	r0, [sp, #108]
	ldr	r0, [r0, #8]
	.loc	6 798 11 is_stmt 0              @ ../Middlewares/CMSIS/DSP/Src/TransformFunctions/arm_cfft_f32.c:798:11
	str	r0, [sp, #44]
	.loc	6 799 13 is_stmt 1              @ ../Middlewares/CMSIS/DSP/Src/TransformFunctions/arm_cfft_f32.c:799:13
	ldr	r0, [sp, #108]
	ldr	r0, [r0, #12]
	.loc	6 799 11 is_stmt 0              @ ../Middlewares/CMSIS/DSP/Src/TransformFunctions/arm_cfft_f32.c:799:11
	str	r0, [sp, #48]
	.loc	6 801 13 is_stmt 1              @ ../Middlewares/CMSIS/DSP/Src/TransformFunctions/arm_cfft_f32.c:801:13
	vldr	s0, [sp, #84]
	.loc	6 801 21 is_stmt 0              @ ../Middlewares/CMSIS/DSP/Src/TransformFunctions/arm_cfft_f32.c:801:21
	vldr	s2, [sp, #68]
	.loc	6 801 19                        @ ../Middlewares/CMSIS/DSP/Src/TransformFunctions/arm_cfft_f32.c:801:19
	vadd.f32	s0, s0, s2
	.loc	6 801 8                         @ ../Middlewares/CMSIS/DSP/Src/TransformFunctions/arm_cfft_f32.c:801:8
	ldr	r0, [sp, #128]
	adds	r1, r0, #4
	str	r1, [sp, #128]
	.loc	6 801 11                        @ ../Middlewares/CMSIS/DSP/Src/TransformFunctions/arm_cfft_f32.c:801:11
	vstr	s0, [r0]
	.loc	6 802 13 is_stmt 1              @ ../Middlewares/CMSIS/DSP/Src/TransformFunctions/arm_cfft_f32.c:802:13
	vldr	s0, [sp, #88]
	.loc	6 802 21 is_stmt 0              @ ../Middlewares/CMSIS/DSP/Src/TransformFunctions/arm_cfft_f32.c:802:21
	vldr	s2, [sp, #72]
	.loc	6 802 19                        @ ../Middlewares/CMSIS/DSP/Src/TransformFunctions/arm_cfft_f32.c:802:19
	vadd.f32	s0, s0, s2
	.loc	6 802 8                         @ ../Middlewares/CMSIS/DSP/Src/TransformFunctions/arm_cfft_f32.c:802:8
	ldr	r0, [sp, #128]
	adds	r1, r0, #4
	str	r1, [sp, #128]
	.loc	6 802 11                        @ ../Middlewares/CMSIS/DSP/Src/TransformFunctions/arm_cfft_f32.c:802:11
	vstr	s0, [r0]
	.loc	6 803 13 is_stmt 1              @ ../Middlewares/CMSIS/DSP/Src/TransformFunctions/arm_cfft_f32.c:803:13
	vldr	s0, [sp, #92]
	.loc	6 803 21 is_stmt 0              @ ../Middlewares/CMSIS/DSP/Src/TransformFunctions/arm_cfft_f32.c:803:21
	vldr	s2, [sp, #76]
	.loc	6 803 19                        @ ../Middlewares/CMSIS/DSP/Src/TransformFunctions/arm_cfft_f32.c:803:19
	vadd.f32	s0, s0, s2
	.loc	6 803 8                         @ ../Middlewares/CMSIS/DSP/Src/TransformFunctions/arm_cfft_f32.c:803:8
	ldr	r0, [sp, #128]
	adds	r1, r0, #4
	str	r1, [sp, #128]
	.loc	6 803 11                        @ ../Middlewares/CMSIS/DSP/Src/TransformFunctions/arm_cfft_f32.c:803:11
	vstr	s0, [r0]
	.loc	6 804 13 is_stmt 1              @ ../Middlewares/CMSIS/DSP/Src/TransformFunctions/arm_cfft_f32.c:804:13
	vldr	s0, [sp, #96]
	.loc	6 804 21 is_stmt 0              @ ../Middlewares/CMSIS/DSP/Src/TransformFunctions/arm_cfft_f32.c:804:21
	vldr	s2, [sp, #80]
	.loc	6 804 19                        @ ../Middlewares/CMSIS/DSP/Src/TransformFunctions/arm_cfft_f32.c:804:19
	vadd.f32	s0, s0, s2
	.loc	6 804 8                         @ ../Middlewares/CMSIS/DSP/Src/TransformFunctions/arm_cfft_f32.c:804:8
	ldr	r0, [sp, #128]
	adds	r1, r0, #4
	str	r1, [sp, #128]
	.loc	6 804 11                        @ ../Middlewares/CMSIS/DSP/Src/TransformFunctions/arm_cfft_f32.c:804:11
	vstr	s0, [r0]
	.loc	6 806 13 is_stmt 1              @ ../Middlewares/CMSIS/DSP/Src/TransformFunctions/arm_cfft_f32.c:806:13
	vldr	s0, [sp, #84]
	.loc	6 806 21 is_stmt 0              @ ../Middlewares/CMSIS/DSP/Src/TransformFunctions/arm_cfft_f32.c:806:21
	vldr	s2, [sp, #68]
	.loc	6 806 19                        @ ../Middlewares/CMSIS/DSP/Src/TransformFunctions/arm_cfft_f32.c:806:19
	vsub.f32	s0, s0, s2
	.loc	6 806 11                        @ ../Middlewares/CMSIS/DSP/Src/TransformFunctions/arm_cfft_f32.c:806:11
	vstr	s0, [sp, #68]
	.loc	6 807 13 is_stmt 1              @ ../Middlewares/CMSIS/DSP/Src/TransformFunctions/arm_cfft_f32.c:807:13
	vldr	s0, [sp, #88]
	.loc	6 807 21 is_stmt 0              @ ../Middlewares/CMSIS/DSP/Src/TransformFunctions/arm_cfft_f32.c:807:21
	vldr	s2, [sp, #72]
	.loc	6 807 19                        @ ../Middlewares/CMSIS/DSP/Src/TransformFunctions/arm_cfft_f32.c:807:19
	vsub.f32	s0, s0, s2
	.loc	6 807 11                        @ ../Middlewares/CMSIS/DSP/Src/TransformFunctions/arm_cfft_f32.c:807:11
	vstr	s0, [sp, #72]
	.loc	6 808 13 is_stmt 1              @ ../Middlewares/CMSIS/DSP/Src/TransformFunctions/arm_cfft_f32.c:808:13
	vldr	s0, [sp, #92]
	.loc	6 808 21 is_stmt 0              @ ../Middlewares/CMSIS/DSP/Src/TransformFunctions/arm_cfft_f32.c:808:21
	vldr	s2, [sp, #76]
	.loc	6 808 19                        @ ../Middlewares/CMSIS/DSP/Src/TransformFunctions/arm_cfft_f32.c:808:19
	vsub.f32	s0, s0, s2
	.loc	6 808 11                        @ ../Middlewares/CMSIS/DSP/Src/TransformFunctions/arm_cfft_f32.c:808:11
	vstr	s0, [sp, #76]
	.loc	6 809 13 is_stmt 1              @ ../Middlewares/CMSIS/DSP/Src/TransformFunctions/arm_cfft_f32.c:809:13
	vldr	s0, [sp, #96]
	.loc	6 809 21 is_stmt 0              @ ../Middlewares/CMSIS/DSP/Src/TransformFunctions/arm_cfft_f32.c:809:21
	vldr	s2, [sp, #80]
	.loc	6 809 19                        @ ../Middlewares/CMSIS/DSP/Src/TransformFunctions/arm_cfft_f32.c:809:19
	vsub.f32	s0, s0, s2
	.loc	6 809 11                        @ ../Middlewares/CMSIS/DSP/Src/TransformFunctions/arm_cfft_f32.c:809:11
	vstr	s0, [sp, #80]
	.loc	6 811 16 is_stmt 1              @ ../Middlewares/CMSIS/DSP/Src/TransformFunctions/arm_cfft_f32.c:811:16
	vldr	s0, [sp, #52]
	.loc	6 811 24 is_stmt 0              @ ../Middlewares/CMSIS/DSP/Src/TransformFunctions/arm_cfft_f32.c:811:24
	vldr	s2, [sp, #36]
	.loc	6 811 22                        @ ../Middlewares/CMSIS/DSP/Src/TransformFunctions/arm_cfft_f32.c:811:22
	vadd.f32	s0, s0, s2
	.loc	6 811 11                        @ ../Middlewares/CMSIS/DSP/Src/TransformFunctions/arm_cfft_f32.c:811:11
	ldr	r0, [sp, #112]
	adds	r1, r0, #4
	str	r1, [sp, #112]
	.loc	6 811 14                        @ ../Middlewares/CMSIS/DSP/Src/TransformFunctions/arm_cfft_f32.c:811:14
	vstr	s0, [r0]
	.loc	6 812 16 is_stmt 1              @ ../Middlewares/CMSIS/DSP/Src/TransformFunctions/arm_cfft_f32.c:812:16
	vldr	s0, [sp, #56]
	.loc	6 812 24 is_stmt 0              @ ../Middlewares/CMSIS/DSP/Src/TransformFunctions/arm_cfft_f32.c:812:24
	vldr	s2, [sp, #40]
	.loc	6 812 22                        @ ../Middlewares/CMSIS/DSP/Src/TransformFunctions/arm_cfft_f32.c:812:22
	vadd.f32	s0, s0, s2
	.loc	6 812 11                        @ ../Middlewares/CMSIS/DSP/Src/TransformFunctions/arm_cfft_f32.c:812:11
	ldr	r0, [sp, #112]
	adds	r1, r0, #4
	str	r1, [sp, #112]
	.loc	6 812 14                        @ ../Middlewares/CMSIS/DSP/Src/TransformFunctions/arm_cfft_f32.c:812:14
	vstr	s0, [r0]
	.loc	6 813 16 is_stmt 1              @ ../Middlewares/CMSIS/DSP/Src/TransformFunctions/arm_cfft_f32.c:813:16
	vldr	s0, [sp, #60]
	.loc	6 813 24 is_stmt 0              @ ../Middlewares/CMSIS/DSP/Src/TransformFunctions/arm_cfft_f32.c:813:24
	vldr	s2, [sp, #44]
	.loc	6 813 22                        @ ../Middlewares/CMSIS/DSP/Src/TransformFunctions/arm_cfft_f32.c:813:22
	vadd.f32	s0, s0, s2
	.loc	6 813 11                        @ ../Middlewares/CMSIS/DSP/Src/TransformFunctions/arm_cfft_f32.c:813:11
	ldr	r0, [sp, #112]
	adds	r1, r0, #4
	str	r1, [sp, #112]
	.loc	6 813 14                        @ ../Middlewares/CMSIS/DSP/Src/TransformFunctions/arm_cfft_f32.c:813:14
	vstr	s0, [r0]
	.loc	6 814 16 is_stmt 1              @ ../Middlewares/CMSIS/DSP/Src/TransformFunctions/arm_cfft_f32.c:814:16
	vldr	s0, [sp, #64]
	.loc	6 814 24 is_stmt 0              @ ../Middlewares/CMSIS/DSP/Src/TransformFunctions/arm_cfft_f32.c:814:24
	vldr	s2, [sp, #48]
	.loc	6 814 22                        @ ../Middlewares/CMSIS/DSP/Src/TransformFunctions/arm_cfft_f32.c:814:22
	vadd.f32	s0, s0, s2
	.loc	6 814 11                        @ ../Middlewares/CMSIS/DSP/Src/TransformFunctions/arm_cfft_f32.c:814:11
	ldr	r0, [sp, #112]
	adds	r1, r0, #4
	str	r1, [sp, #112]
	.loc	6 814 14                        @ ../Middlewares/CMSIS/DSP/Src/TransformFunctions/arm_cfft_f32.c:814:14
	vstr	s0, [r0]
	.loc	6 816 13 is_stmt 1              @ ../Middlewares/CMSIS/DSP/Src/TransformFunctions/arm_cfft_f32.c:816:13
	vldr	s0, [sp, #36]
	.loc	6 816 21 is_stmt 0              @ ../Middlewares/CMSIS/DSP/Src/TransformFunctions/arm_cfft_f32.c:816:21
	vldr	s2, [sp, #52]
	.loc	6 816 19                        @ ../Middlewares/CMSIS/DSP/Src/TransformFunctions/arm_cfft_f32.c:816:19
	vsub.f32	s0, s0, s2
	.loc	6 816 11                        @ ../Middlewares/CMSIS/DSP/Src/TransformFunctions/arm_cfft_f32.c:816:11
	vstr	s0, [sp, #36]
	.loc	6 817 13 is_stmt 1              @ ../Middlewares/CMSIS/DSP/Src/TransformFunctions/arm_cfft_f32.c:817:13
	vldr	s0, [sp, #40]
	.loc	6 817 21 is_stmt 0              @ ../Middlewares/CMSIS/DSP/Src/TransformFunctions/arm_cfft_f32.c:817:21
	vldr	s2, [sp, #56]
	.loc	6 817 19                        @ ../Middlewares/CMSIS/DSP/Src/TransformFunctions/arm_cfft_f32.c:817:19
	vsub.f32	s0, s0, s2
	.loc	6 817 11                        @ ../Middlewares/CMSIS/DSP/Src/TransformFunctions/arm_cfft_f32.c:817:11
	vstr	s0, [sp, #40]
	.loc	6 818 13 is_stmt 1              @ ../Middlewares/CMSIS/DSP/Src/TransformFunctions/arm_cfft_f32.c:818:13
	vldr	s0, [sp, #44]
	.loc	6 818 21 is_stmt 0              @ ../Middlewares/CMSIS/DSP/Src/TransformFunctions/arm_cfft_f32.c:818:21
	vldr	s2, [sp, #60]
	.loc	6 818 19                        @ ../Middlewares/CMSIS/DSP/Src/TransformFunctions/arm_cfft_f32.c:818:19
	vsub.f32	s0, s0, s2
	.loc	6 818 11                        @ ../Middlewares/CMSIS/DSP/Src/TransformFunctions/arm_cfft_f32.c:818:11
	vstr	s0, [sp, #44]
	.loc	6 819 13 is_stmt 1              @ ../Middlewares/CMSIS/DSP/Src/TransformFunctions/arm_cfft_f32.c:819:13
	vldr	s0, [sp, #48]
	.loc	6 819 21 is_stmt 0              @ ../Middlewares/CMSIS/DSP/Src/TransformFunctions/arm_cfft_f32.c:819:21
	vldr	s2, [sp, #64]
	.loc	6 819 19                        @ ../Middlewares/CMSIS/DSP/Src/TransformFunctions/arm_cfft_f32.c:819:19
	vsub.f32	s0, s0, s2
	.loc	6 819 11                        @ ../Middlewares/CMSIS/DSP/Src/TransformFunctions/arm_cfft_f32.c:819:11
	vstr	s0, [sp, #48]
	.loc	6 821 14 is_stmt 1              @ ../Middlewares/CMSIS/DSP/Src/TransformFunctions/arm_cfft_f32.c:821:14
	ldr	r0, [sp, #100]
	adds	r1, r0, #4
	str	r1, [sp, #100]
	.loc	6 821 11 is_stmt 0              @ ../Middlewares/CMSIS/DSP/Src/TransformFunctions/arm_cfft_f32.c:821:11
	ldr	r0, [r0]
	.loc	6 821 9                         @ ../Middlewares/CMSIS/DSP/Src/TransformFunctions/arm_cfft_f32.c:821:9
	str	r0, [sp, #32]
	.loc	6 822 14 is_stmt 1              @ ../Middlewares/CMSIS/DSP/Src/TransformFunctions/arm_cfft_f32.c:822:14
	ldr	r0, [sp, #100]
	adds	r1, r0, #4
	str	r1, [sp, #100]
	.loc	6 822 11 is_stmt 0              @ ../Middlewares/CMSIS/DSP/Src/TransformFunctions/arm_cfft_f32.c:822:11
	ldr	r0, [r0]
	.loc	6 822 9                         @ ../Middlewares/CMSIS/DSP/Src/TransformFunctions/arm_cfft_f32.c:822:9
	str	r0, [sp, #28]
	.loc	6 825 10 is_stmt 1              @ ../Middlewares/CMSIS/DSP/Src/TransformFunctions/arm_cfft_f32.c:825:10
	vldr	s0, [sp, #68]
	.loc	6 825 18 is_stmt 0              @ ../Middlewares/CMSIS/DSP/Src/TransformFunctions/arm_cfft_f32.c:825:18
	vldr	s2, [sp, #32]
	.loc	6 825 16                        @ ../Middlewares/CMSIS/DSP/Src/TransformFunctions/arm_cfft_f32.c:825:16
	vmul.f32	s0, s0, s2
	.loc	6 825 8                         @ ../Middlewares/CMSIS/DSP/Src/TransformFunctions/arm_cfft_f32.c:825:8
	vstr	s0, [sp, #24]
	.loc	6 826 10 is_stmt 1              @ ../Middlewares/CMSIS/DSP/Src/TransformFunctions/arm_cfft_f32.c:826:10
	vldr	s0, [sp, #72]
	.loc	6 826 18 is_stmt 0              @ ../Middlewares/CMSIS/DSP/Src/TransformFunctions/arm_cfft_f32.c:826:18
	vldr	s2, [sp, #28]
	.loc	6 826 16                        @ ../Middlewares/CMSIS/DSP/Src/TransformFunctions/arm_cfft_f32.c:826:16
	vmul.f32	s0, s0, s2
	.loc	6 826 8                         @ ../Middlewares/CMSIS/DSP/Src/TransformFunctions/arm_cfft_f32.c:826:8
	vstr	s0, [sp, #20]
	.loc	6 827 10 is_stmt 1              @ ../Middlewares/CMSIS/DSP/Src/TransformFunctions/arm_cfft_f32.c:827:10
	vldr	s0, [sp, #72]
	.loc	6 827 18 is_stmt 0              @ ../Middlewares/CMSIS/DSP/Src/TransformFunctions/arm_cfft_f32.c:827:18
	vldr	s2, [sp, #32]
	.loc	6 827 16                        @ ../Middlewares/CMSIS/DSP/Src/TransformFunctions/arm_cfft_f32.c:827:16
	vmul.f32	s0, s0, s2
	.loc	6 827 8                         @ ../Middlewares/CMSIS/DSP/Src/TransformFunctions/arm_cfft_f32.c:827:8
	vstr	s0, [sp, #16]
	.loc	6 828 10 is_stmt 1              @ ../Middlewares/CMSIS/DSP/Src/TransformFunctions/arm_cfft_f32.c:828:10
	vldr	s0, [sp, #68]
	.loc	6 828 18 is_stmt 0              @ ../Middlewares/CMSIS/DSP/Src/TransformFunctions/arm_cfft_f32.c:828:18
	vldr	s2, [sp, #28]
	.loc	6 828 16                        @ ../Middlewares/CMSIS/DSP/Src/TransformFunctions/arm_cfft_f32.c:828:16
	vmul.f32	s0, s0, s2
	.loc	6 828 8                         @ ../Middlewares/CMSIS/DSP/Src/TransformFunctions/arm_cfft_f32.c:828:8
	vstr	s0, [sp, #12]
	.loc	6 831 13 is_stmt 1              @ ../Middlewares/CMSIS/DSP/Src/TransformFunctions/arm_cfft_f32.c:831:13
	vldr	s0, [sp, #24]
	.loc	6 831 18 is_stmt 0              @ ../Middlewares/CMSIS/DSP/Src/TransformFunctions/arm_cfft_f32.c:831:18
	vldr	s2, [sp, #20]
	.loc	6 831 16                        @ ../Middlewares/CMSIS/DSP/Src/TransformFunctions/arm_cfft_f32.c:831:16
	vadd.f32	s0, s0, s2
	.loc	6 831 8                         @ ../Middlewares/CMSIS/DSP/Src/TransformFunctions/arm_cfft_f32.c:831:8
	ldr	r0, [sp, #104]
	adds	r1, r0, #4
	str	r1, [sp, #104]
	.loc	6 831 11                        @ ../Middlewares/CMSIS/DSP/Src/TransformFunctions/arm_cfft_f32.c:831:11
	vstr	s0, [r0]
	.loc	6 833 13 is_stmt 1              @ ../Middlewares/CMSIS/DSP/Src/TransformFunctions/arm_cfft_f32.c:833:13
	vldr	s0, [sp, #16]
	.loc	6 833 18 is_stmt 0              @ ../Middlewares/CMSIS/DSP/Src/TransformFunctions/arm_cfft_f32.c:833:18
	vldr	s2, [sp, #12]
	.loc	6 833 16                        @ ../Middlewares/CMSIS/DSP/Src/TransformFunctions/arm_cfft_f32.c:833:16
	vsub.f32	s0, s0, s2
	.loc	6 833 8                         @ ../Middlewares/CMSIS/DSP/Src/TransformFunctions/arm_cfft_f32.c:833:8
	ldr	r0, [sp, #104]
	adds	r1, r0, #4
	str	r1, [sp, #104]
	.loc	6 833 11                        @ ../Middlewares/CMSIS/DSP/Src/TransformFunctions/arm_cfft_f32.c:833:11
	vstr	s0, [r0]
	.loc	6 837 10 is_stmt 1              @ ../Middlewares/CMSIS/DSP/Src/TransformFunctions/arm_cfft_f32.c:837:10
	vldr	s0, [sp, #36]
	.loc	6 837 18 is_stmt 0              @ ../Middlewares/CMSIS/DSP/Src/TransformFunctions/arm_cfft_f32.c:837:18
	vldr	s2, [sp, #28]
	.loc	6 837 16                        @ ../Middlewares/CMSIS/DSP/Src/TransformFunctions/arm_cfft_f32.c:837:16
	vmul.f32	s0, s0, s2
	.loc	6 837 8                         @ ../Middlewares/CMSIS/DSP/Src/TransformFunctions/arm_cfft_f32.c:837:8
	vstr	s0, [sp, #24]
	.loc	6 838 10 is_stmt 1              @ ../Middlewares/CMSIS/DSP/Src/TransformFunctions/arm_cfft_f32.c:838:10
	vldr	s0, [sp, #40]
	.loc	6 838 18 is_stmt 0              @ ../Middlewares/CMSIS/DSP/Src/TransformFunctions/arm_cfft_f32.c:838:18
	vldr	s2, [sp, #32]
	.loc	6 838 16                        @ ../Middlewares/CMSIS/DSP/Src/TransformFunctions/arm_cfft_f32.c:838:16
	vmul.f32	s0, s0, s2
	.loc	6 838 8                         @ ../Middlewares/CMSIS/DSP/Src/TransformFunctions/arm_cfft_f32.c:838:8
	vstr	s0, [sp, #20]
	.loc	6 839 10 is_stmt 1              @ ../Middlewares/CMSIS/DSP/Src/TransformFunctions/arm_cfft_f32.c:839:10
	vldr	s0, [sp, #40]
	.loc	6 839 18 is_stmt 0              @ ../Middlewares/CMSIS/DSP/Src/TransformFunctions/arm_cfft_f32.c:839:18
	vldr	s2, [sp, #28]
	.loc	6 839 16                        @ ../Middlewares/CMSIS/DSP/Src/TransformFunctions/arm_cfft_f32.c:839:16
	vmul.f32	s0, s0, s2
	.loc	6 839 8                         @ ../Middlewares/CMSIS/DSP/Src/TransformFunctions/arm_cfft_f32.c:839:8
	vstr	s0, [sp, #16]
	.loc	6 840 10 is_stmt 1              @ ../Middlewares/CMSIS/DSP/Src/TransformFunctions/arm_cfft_f32.c:840:10
	vldr	s0, [sp, #36]
	.loc	6 840 18 is_stmt 0              @ ../Middlewares/CMSIS/DSP/Src/TransformFunctions/arm_cfft_f32.c:840:18
	vldr	s2, [sp, #32]
	.loc	6 840 16                        @ ../Middlewares/CMSIS/DSP/Src/TransformFunctions/arm_cfft_f32.c:840:16
	vmul.f32	s0, s0, s2
	.loc	6 840 8                         @ ../Middlewares/CMSIS/DSP/Src/TransformFunctions/arm_cfft_f32.c:840:8
	vstr	s0, [sp, #12]
	.loc	6 842 16 is_stmt 1              @ ../Middlewares/CMSIS/DSP/Src/TransformFunctions/arm_cfft_f32.c:842:16
	vldr	s0, [sp, #24]
	.loc	6 842 21 is_stmt 0              @ ../Middlewares/CMSIS/DSP/Src/TransformFunctions/arm_cfft_f32.c:842:21
	vldr	s2, [sp, #20]
	.loc	6 842 19                        @ ../Middlewares/CMSIS/DSP/Src/TransformFunctions/arm_cfft_f32.c:842:19
	vsub.f32	s0, s0, s2
	.loc	6 842 11                        @ ../Middlewares/CMSIS/DSP/Src/TransformFunctions/arm_cfft_f32.c:842:11
	ldr	r0, [sp, #108]
	adds	r1, r0, #4
	str	r1, [sp, #108]
	.loc	6 842 14                        @ ../Middlewares/CMSIS/DSP/Src/TransformFunctions/arm_cfft_f32.c:842:14
	vstr	s0, [r0]
	.loc	6 843 16 is_stmt 1              @ ../Middlewares/CMSIS/DSP/Src/TransformFunctions/arm_cfft_f32.c:843:16
	vldr	s0, [sp, #16]
	.loc	6 843 21 is_stmt 0              @ ../Middlewares/CMSIS/DSP/Src/TransformFunctions/arm_cfft_f32.c:843:21
	vldr	s2, [sp, #12]
	.loc	6 843 19                        @ ../Middlewares/CMSIS/DSP/Src/TransformFunctions/arm_cfft_f32.c:843:19
	vadd.f32	s0, s0, s2
	.loc	6 843 11                        @ ../Middlewares/CMSIS/DSP/Src/TransformFunctions/arm_cfft_f32.c:843:11
	ldr	r0, [sp, #108]
	adds	r1, r0, #4
	str	r1, [sp, #108]
	.loc	6 843 14                        @ ../Middlewares/CMSIS/DSP/Src/TransformFunctions/arm_cfft_f32.c:843:14
	vstr	s0, [r0]
	.loc	6 845 14 is_stmt 1              @ ../Middlewares/CMSIS/DSP/Src/TransformFunctions/arm_cfft_f32.c:845:14
	ldr	r0, [sp, #100]
	adds	r1, r0, #4
	str	r1, [sp, #100]
	.loc	6 845 11 is_stmt 0              @ ../Middlewares/CMSIS/DSP/Src/TransformFunctions/arm_cfft_f32.c:845:11
	ldr	r0, [r0]
	.loc	6 845 9                         @ ../Middlewares/CMSIS/DSP/Src/TransformFunctions/arm_cfft_f32.c:845:9
	str	r0, [sp, #32]
	.loc	6 846 14 is_stmt 1              @ ../Middlewares/CMSIS/DSP/Src/TransformFunctions/arm_cfft_f32.c:846:14
	ldr	r0, [sp, #100]
	adds	r1, r0, #4
	str	r1, [sp, #100]
	.loc	6 846 11 is_stmt 0              @ ../Middlewares/CMSIS/DSP/Src/TransformFunctions/arm_cfft_f32.c:846:11
	ldr	r0, [r0]
	.loc	6 846 9                         @ ../Middlewares/CMSIS/DSP/Src/TransformFunctions/arm_cfft_f32.c:846:9
	str	r0, [sp, #28]
	.loc	6 848 10 is_stmt 1              @ ../Middlewares/CMSIS/DSP/Src/TransformFunctions/arm_cfft_f32.c:848:10
	vldr	s0, [sp, #76]
	.loc	6 848 18 is_stmt 0              @ ../Middlewares/CMSIS/DSP/Src/TransformFunctions/arm_cfft_f32.c:848:18
	vldr	s2, [sp, #32]
	.loc	6 848 16                        @ ../Middlewares/CMSIS/DSP/Src/TransformFunctions/arm_cfft_f32.c:848:16
	vmul.f32	s0, s0, s2
	.loc	6 848 8                         @ ../Middlewares/CMSIS/DSP/Src/TransformFunctions/arm_cfft_f32.c:848:8
	vstr	s0, [sp, #24]
	.loc	6 849 10 is_stmt 1              @ ../Middlewares/CMSIS/DSP/Src/TransformFunctions/arm_cfft_f32.c:849:10
	vldr	s0, [sp, #80]
	.loc	6 849 18 is_stmt 0              @ ../Middlewares/CMSIS/DSP/Src/TransformFunctions/arm_cfft_f32.c:849:18
	vldr	s2, [sp, #28]
	.loc	6 849 16                        @ ../Middlewares/CMSIS/DSP/Src/TransformFunctions/arm_cfft_f32.c:849:16
	vmul.f32	s0, s0, s2
	.loc	6 849 8                         @ ../Middlewares/CMSIS/DSP/Src/TransformFunctions/arm_cfft_f32.c:849:8
	vstr	s0, [sp, #20]
	.loc	6 850 10 is_stmt 1              @ ../Middlewares/CMSIS/DSP/Src/TransformFunctions/arm_cfft_f32.c:850:10
	vldr	s0, [sp, #80]
	.loc	6 850 18 is_stmt 0              @ ../Middlewares/CMSIS/DSP/Src/TransformFunctions/arm_cfft_f32.c:850:18
	vldr	s2, [sp, #32]
	.loc	6 850 16                        @ ../Middlewares/CMSIS/DSP/Src/TransformFunctions/arm_cfft_f32.c:850:16
	vmul.f32	s0, s0, s2
	.loc	6 850 8                         @ ../Middlewares/CMSIS/DSP/Src/TransformFunctions/arm_cfft_f32.c:850:8
	vstr	s0, [sp, #16]
	.loc	6 851 10 is_stmt 1              @ ../Middlewares/CMSIS/DSP/Src/TransformFunctions/arm_cfft_f32.c:851:10
	vldr	s0, [sp, #76]
	.loc	6 851 18 is_stmt 0              @ ../Middlewares/CMSIS/DSP/Src/TransformFunctions/arm_cfft_f32.c:851:18
	vldr	s2, [sp, #28]
	.loc	6 851 16                        @ ../Middlewares/CMSIS/DSP/Src/TransformFunctions/arm_cfft_f32.c:851:16
	vmul.f32	s0, s0, s2
	.loc	6 851 8                         @ ../Middlewares/CMSIS/DSP/Src/TransformFunctions/arm_cfft_f32.c:851:8
	vstr	s0, [sp, #12]
	.loc	6 853 13 is_stmt 1              @ ../Middlewares/CMSIS/DSP/Src/TransformFunctions/arm_cfft_f32.c:853:13
	vldr	s0, [sp, #24]
	.loc	6 853 18 is_stmt 0              @ ../Middlewares/CMSIS/DSP/Src/TransformFunctions/arm_cfft_f32.c:853:18
	vldr	s2, [sp, #20]
	.loc	6 853 16                        @ ../Middlewares/CMSIS/DSP/Src/TransformFunctions/arm_cfft_f32.c:853:16
	vadd.f32	s0, s0, s2
	.loc	6 853 8                         @ ../Middlewares/CMSIS/DSP/Src/TransformFunctions/arm_cfft_f32.c:853:8
	ldr	r0, [sp, #104]
	adds	r1, r0, #4
	str	r1, [sp, #104]
	.loc	6 853 11                        @ ../Middlewares/CMSIS/DSP/Src/TransformFunctions/arm_cfft_f32.c:853:11
	vstr	s0, [r0]
	.loc	6 854 13 is_stmt 1              @ ../Middlewares/CMSIS/DSP/Src/TransformFunctions/arm_cfft_f32.c:854:13
	vldr	s0, [sp, #16]
	.loc	6 854 18 is_stmt 0              @ ../Middlewares/CMSIS/DSP/Src/TransformFunctions/arm_cfft_f32.c:854:18
	vldr	s2, [sp, #12]
	.loc	6 854 16                        @ ../Middlewares/CMSIS/DSP/Src/TransformFunctions/arm_cfft_f32.c:854:16
	vsub.f32	s0, s0, s2
	.loc	6 854 8                         @ ../Middlewares/CMSIS/DSP/Src/TransformFunctions/arm_cfft_f32.c:854:8
	ldr	r0, [sp, #104]
	adds	r1, r0, #4
	str	r1, [sp, #104]
	.loc	6 854 11                        @ ../Middlewares/CMSIS/DSP/Src/TransformFunctions/arm_cfft_f32.c:854:11
	vstr	s0, [r0]
	.loc	6 856 10 is_stmt 1              @ ../Middlewares/CMSIS/DSP/Src/TransformFunctions/arm_cfft_f32.c:856:10
	vldr	s0, [sp, #44]
	.loc	6 856 18 is_stmt 0              @ ../Middlewares/CMSIS/DSP/Src/TransformFunctions/arm_cfft_f32.c:856:18
	vldr	s2, [sp, #28]
	.loc	6 856 16                        @ ../Middlewares/CMSIS/DSP/Src/TransformFunctions/arm_cfft_f32.c:856:16
	vmul.f32	s0, s0, s2
	.loc	6 856 8                         @ ../Middlewares/CMSIS/DSP/Src/TransformFunctions/arm_cfft_f32.c:856:8
	vstr	s0, [sp, #24]
	.loc	6 857 10 is_stmt 1              @ ../Middlewares/CMSIS/DSP/Src/TransformFunctions/arm_cfft_f32.c:857:10
	vldr	s0, [sp, #48]
	.loc	6 857 18 is_stmt 0              @ ../Middlewares/CMSIS/DSP/Src/TransformFunctions/arm_cfft_f32.c:857:18
	vldr	s2, [sp, #32]
	.loc	6 857 16                        @ ../Middlewares/CMSIS/DSP/Src/TransformFunctions/arm_cfft_f32.c:857:16
	vmul.f32	s0, s0, s2
	.loc	6 857 8                         @ ../Middlewares/CMSIS/DSP/Src/TransformFunctions/arm_cfft_f32.c:857:8
	vstr	s0, [sp, #20]
	.loc	6 858 10 is_stmt 1              @ ../Middlewares/CMSIS/DSP/Src/TransformFunctions/arm_cfft_f32.c:858:10
	vldr	s0, [sp, #48]
	.loc	6 858 18 is_stmt 0              @ ../Middlewares/CMSIS/DSP/Src/TransformFunctions/arm_cfft_f32.c:858:18
	vldr	s2, [sp, #28]
	.loc	6 858 16                        @ ../Middlewares/CMSIS/DSP/Src/TransformFunctions/arm_cfft_f32.c:858:16
	vmul.f32	s0, s0, s2
	.loc	6 858 8                         @ ../Middlewares/CMSIS/DSP/Src/TransformFunctions/arm_cfft_f32.c:858:8
	vstr	s0, [sp, #16]
	.loc	6 859 10 is_stmt 1              @ ../Middlewares/CMSIS/DSP/Src/TransformFunctions/arm_cfft_f32.c:859:10
	vldr	s0, [sp, #44]
	.loc	6 859 18 is_stmt 0              @ ../Middlewares/CMSIS/DSP/Src/TransformFunctions/arm_cfft_f32.c:859:18
	vldr	s2, [sp, #32]
	.loc	6 859 16                        @ ../Middlewares/CMSIS/DSP/Src/TransformFunctions/arm_cfft_f32.c:859:16
	vmul.f32	s0, s0, s2
	.loc	6 859 8                         @ ../Middlewares/CMSIS/DSP/Src/TransformFunctions/arm_cfft_f32.c:859:8
	vstr	s0, [sp, #12]
	.loc	6 861 16 is_stmt 1              @ ../Middlewares/CMSIS/DSP/Src/TransformFunctions/arm_cfft_f32.c:861:16
	vldr	s0, [sp, #24]
	.loc	6 861 21 is_stmt 0              @ ../Middlewares/CMSIS/DSP/Src/TransformFunctions/arm_cfft_f32.c:861:21
	vldr	s2, [sp, #20]
	.loc	6 861 19                        @ ../Middlewares/CMSIS/DSP/Src/TransformFunctions/arm_cfft_f32.c:861:19
	vsub.f32	s0, s0, s2
	.loc	6 861 11                        @ ../Middlewares/CMSIS/DSP/Src/TransformFunctions/arm_cfft_f32.c:861:11
	ldr	r0, [sp, #108]
	adds	r1, r0, #4
	str	r1, [sp, #108]
	.loc	6 861 14                        @ ../Middlewares/CMSIS/DSP/Src/TransformFunctions/arm_cfft_f32.c:861:14
	vstr	s0, [r0]
	.loc	6 862 16 is_stmt 1              @ ../Middlewares/CMSIS/DSP/Src/TransformFunctions/arm_cfft_f32.c:862:16
	vldr	s0, [sp, #16]
	.loc	6 862 21 is_stmt 0              @ ../Middlewares/CMSIS/DSP/Src/TransformFunctions/arm_cfft_f32.c:862:21
	vldr	s2, [sp, #12]
	.loc	6 862 19                        @ ../Middlewares/CMSIS/DSP/Src/TransformFunctions/arm_cfft_f32.c:862:19
	vadd.f32	s0, s0, s2
	.loc	6 862 11                        @ ../Middlewares/CMSIS/DSP/Src/TransformFunctions/arm_cfft_f32.c:862:11
	ldr	r0, [sp, #108]
	adds	r1, r0, #4
	str	r1, [sp, #108]
	.loc	6 862 14                        @ ../Middlewares/CMSIS/DSP/Src/TransformFunctions/arm_cfft_f32.c:862:14
	vstr	s0, [r0]
	.loc	6 863 3 is_stmt 1               @ ../Middlewares/CMSIS/DSP/Src/TransformFunctions/arm_cfft_f32.c:863:3
	b	.LBB6_3
.Ltmp59:
.LBB6_3:                                @   in Loop: Header=BB6_1 Depth=1
	.loc	6 779 28                        @ ../Middlewares/CMSIS/DSP/Src/TransformFunctions/arm_cfft_f32.c:779:28
	ldr	r0, [sp, #8]
	subs	r0, #1
	str	r0, [sp, #8]
	.loc	6 779 3 is_stmt 0               @ ../Middlewares/CMSIS/DSP/Src/TransformFunctions/arm_cfft_f32.c:779:3
	b	.LBB6_1
.Ltmp60:
.LBB6_4:
	.loc	6 866 29 is_stmt 1              @ ../Middlewares/CMSIS/DSP/Src/TransformFunctions/arm_cfft_f32.c:866:29
	ldr	r0, [sp, #120]
	.loc	6 866 36 is_stmt 0              @ ../Middlewares/CMSIS/DSP/Src/TransformFunctions/arm_cfft_f32.c:866:36
	ldrh.w	r1, [sp, #124]
	.loc	6 866 53                        @ ../Middlewares/CMSIS/DSP/Src/TransformFunctions/arm_cfft_f32.c:866:53
	ldr	r2, [sp, #132]
	.loc	6 866 56                        @ ../Middlewares/CMSIS/DSP/Src/TransformFunctions/arm_cfft_f32.c:866:56
	ldr	r2, [r2, #4]
	movs	r3, #2
	.loc	6 866 3                         @ ../Middlewares/CMSIS/DSP/Src/TransformFunctions/arm_cfft_f32.c:866:3
	str	r3, [sp, #4]                    @ 4-byte Spill
	bl	arm_radix8_butterfly_f32
	ldr	r3, [sp, #4]                    @ 4-byte Reload
	.loc	6 869 29 is_stmt 1              @ ../Middlewares/CMSIS/DSP/Src/TransformFunctions/arm_cfft_f32.c:869:29
	ldr	r0, [sp, #116]
	.loc	6 869 36 is_stmt 0              @ ../Middlewares/CMSIS/DSP/Src/TransformFunctions/arm_cfft_f32.c:869:36
	ldrh.w	r1, [sp, #124]
	.loc	6 869 53                        @ ../Middlewares/CMSIS/DSP/Src/TransformFunctions/arm_cfft_f32.c:869:53
	ldr	r2, [sp, #132]
	.loc	6 869 56                        @ ../Middlewares/CMSIS/DSP/Src/TransformFunctions/arm_cfft_f32.c:869:56
	ldr	r2, [r2, #4]
	.loc	6 869 3                         @ ../Middlewares/CMSIS/DSP/Src/TransformFunctions/arm_cfft_f32.c:869:3
	bl	arm_radix8_butterfly_f32
	.loc	6 870 1 is_stmt 1               @ ../Middlewares/CMSIS/DSP/Src/TransformFunctions/arm_cfft_f32.c:870:1
	add	sp, #136
	pop	{r7, pc}
.Ltmp61:
.Lfunc_end6:
	.size	arm_cfft_radix8by2_f32, .Lfunc_end6-arm_cfft_radix8by2_f32
	.cfi_endproc
	.cantunwind
	.fnend
                                        @ -- End function
	.section	.text.arm_radix8_butterfly_f32,"ax",%progbits
	.hidden	arm_radix8_butterfly_f32        @ -- Begin function arm_radix8_butterfly_f32
	.globl	arm_radix8_butterfly_f32
	.p2align	2
	.type	arm_radix8_butterfly_f32,%function
	.code	16                              @ @arm_radix8_butterfly_f32
	.thumb_func
arm_radix8_butterfly_f32:
.Lfunc_begin7:
	.file	7 "D:\\horizon\\Horizon_Infantry (2)\\MDK-ARM" "../Middlewares/CMSIS/DSP/Src/TransformFunctions/arm_cfft_radix8_f32.c"
	.loc	7 50 0                          @ ../Middlewares/CMSIS/DSP/Src/TransformFunctions/arm_cfft_radix8_f32.c:50:0
	.fnstart
	.cfi_startproc
@ %bb.0:
	.pad	#240
	sub	sp, #240
	.cfi_def_cfa_offset 240
                                        @ kill: def $r12 killed $r3
                                        @ kill: def $r12 killed $r1
	str	r0, [sp, #236]
	strh.w	r1, [sp, #234]
	str	r2, [sp, #228]
	strh.w	r3, [sp, #226]
	movw	r0, #1267
	movt	r0, #16181
.Ltmp62:
	.loc	7 62 20 prologue_end            @ ../Middlewares/CMSIS/DSP/Src/TransformFunctions/arm_cfft_radix8_f32.c:62:20
	str	r0, [sp]
	.loc	7 64 9                          @ ../Middlewares/CMSIS/DSP/Src/TransformFunctions/arm_cfft_radix8_f32.c:64:9
	ldrh.w	r0, [sp, #234]
	.loc	7 64 7 is_stmt 0                @ ../Middlewares/CMSIS/DSP/Src/TransformFunctions/arm_cfft_radix8_f32.c:64:7
	str	r0, [sp, #152]
	.loc	7 66 4 is_stmt 1                @ ../Middlewares/CMSIS/DSP/Src/TransformFunctions/arm_cfft_radix8_f32.c:66:4
	b	.LBB7_1
.LBB7_1:                                @ =>This Loop Header: Depth=1
                                        @     Child Loop BB7_2 Depth 2
                                        @     Child Loop BB7_8 Depth 2
                                        @       Child Loop BB7_9 Depth 3
.Ltmp63:
	.loc	7 68 12                         @ ../Middlewares/CMSIS/DSP/Src/TransformFunctions/arm_cfft_radix8_f32.c:68:12
	ldr	r0, [sp, #152]
	.loc	7 68 10 is_stmt 0               @ ../Middlewares/CMSIS/DSP/Src/TransformFunctions/arm_cfft_radix8_f32.c:68:10
	str	r0, [sp, #156]
	.loc	7 69 12 is_stmt 1               @ ../Middlewares/CMSIS/DSP/Src/TransformFunctions/arm_cfft_radix8_f32.c:69:12
	ldr	r0, [sp, #152]
	.loc	7 69 15 is_stmt 0               @ ../Middlewares/CMSIS/DSP/Src/TransformFunctions/arm_cfft_radix8_f32.c:69:15
	lsrs	r0, r0, #3
	.loc	7 69 10                         @ ../Middlewares/CMSIS/DSP/Src/TransformFunctions/arm_cfft_radix8_f32.c:69:10
	str	r0, [sp, #152]
	movs	r0, #0
	.loc	7 70 10 is_stmt 1               @ ../Middlewares/CMSIS/DSP/Src/TransformFunctions/arm_cfft_radix8_f32.c:70:10
	str	r0, [sp, #192]
	.loc	7 72 7                          @ ../Middlewares/CMSIS/DSP/Src/TransformFunctions/arm_cfft_radix8_f32.c:72:7
	b	.LBB7_2
.LBB7_2:                                @   Parent Loop BB7_1 Depth=1
                                        @ =>  This Inner Loop Header: Depth=2
.Ltmp64:
	.loc	7 74 15                         @ ../Middlewares/CMSIS/DSP/Src/TransformFunctions/arm_cfft_radix8_f32.c:74:15
	ldr	r0, [sp, #192]
	.loc	7 74 20 is_stmt 0               @ ../Middlewares/CMSIS/DSP/Src/TransformFunctions/arm_cfft_radix8_f32.c:74:20
	ldr	r1, [sp, #152]
	.loc	7 74 18                         @ ../Middlewares/CMSIS/DSP/Src/TransformFunctions/arm_cfft_radix8_f32.c:74:18
	add	r0, r1
	.loc	7 74 13                         @ ../Middlewares/CMSIS/DSP/Src/TransformFunctions/arm_cfft_radix8_f32.c:74:13
	str	r0, [sp, #188]
	.loc	7 75 15 is_stmt 1               @ ../Middlewares/CMSIS/DSP/Src/TransformFunctions/arm_cfft_radix8_f32.c:75:15
	ldr	r0, [sp, #188]
	.loc	7 75 20 is_stmt 0               @ ../Middlewares/CMSIS/DSP/Src/TransformFunctions/arm_cfft_radix8_f32.c:75:20
	ldr	r1, [sp, #152]
	.loc	7 75 18                         @ ../Middlewares/CMSIS/DSP/Src/TransformFunctions/arm_cfft_radix8_f32.c:75:18
	add	r0, r1
	.loc	7 75 13                         @ ../Middlewares/CMSIS/DSP/Src/TransformFunctions/arm_cfft_radix8_f32.c:75:13
	str	r0, [sp, #184]
	.loc	7 76 15 is_stmt 1               @ ../Middlewares/CMSIS/DSP/Src/TransformFunctions/arm_cfft_radix8_f32.c:76:15
	ldr	r0, [sp, #184]
	.loc	7 76 20 is_stmt 0               @ ../Middlewares/CMSIS/DSP/Src/TransformFunctions/arm_cfft_radix8_f32.c:76:20
	ldr	r1, [sp, #152]
	.loc	7 76 18                         @ ../Middlewares/CMSIS/DSP/Src/TransformFunctions/arm_cfft_radix8_f32.c:76:18
	add	r0, r1
	.loc	7 76 13                         @ ../Middlewares/CMSIS/DSP/Src/TransformFunctions/arm_cfft_radix8_f32.c:76:13
	str	r0, [sp, #180]
	.loc	7 77 15 is_stmt 1               @ ../Middlewares/CMSIS/DSP/Src/TransformFunctions/arm_cfft_radix8_f32.c:77:15
	ldr	r0, [sp, #180]
	.loc	7 77 20 is_stmt 0               @ ../Middlewares/CMSIS/DSP/Src/TransformFunctions/arm_cfft_radix8_f32.c:77:20
	ldr	r1, [sp, #152]
	.loc	7 77 18                         @ ../Middlewares/CMSIS/DSP/Src/TransformFunctions/arm_cfft_radix8_f32.c:77:18
	add	r0, r1
	.loc	7 77 13                         @ ../Middlewares/CMSIS/DSP/Src/TransformFunctions/arm_cfft_radix8_f32.c:77:13
	str	r0, [sp, #176]
	.loc	7 78 15 is_stmt 1               @ ../Middlewares/CMSIS/DSP/Src/TransformFunctions/arm_cfft_radix8_f32.c:78:15
	ldr	r0, [sp, #176]
	.loc	7 78 20 is_stmt 0               @ ../Middlewares/CMSIS/DSP/Src/TransformFunctions/arm_cfft_radix8_f32.c:78:20
	ldr	r1, [sp, #152]
	.loc	7 78 18                         @ ../Middlewares/CMSIS/DSP/Src/TransformFunctions/arm_cfft_radix8_f32.c:78:18
	add	r0, r1
	.loc	7 78 13                         @ ../Middlewares/CMSIS/DSP/Src/TransformFunctions/arm_cfft_radix8_f32.c:78:13
	str	r0, [sp, #172]
	.loc	7 79 15 is_stmt 1               @ ../Middlewares/CMSIS/DSP/Src/TransformFunctions/arm_cfft_radix8_f32.c:79:15
	ldr	r0, [sp, #172]
	.loc	7 79 20 is_stmt 0               @ ../Middlewares/CMSIS/DSP/Src/TransformFunctions/arm_cfft_radix8_f32.c:79:20
	ldr	r1, [sp, #152]
	.loc	7 79 18                         @ ../Middlewares/CMSIS/DSP/Src/TransformFunctions/arm_cfft_radix8_f32.c:79:18
	add	r0, r1
	.loc	7 79 13                         @ ../Middlewares/CMSIS/DSP/Src/TransformFunctions/arm_cfft_radix8_f32.c:79:13
	str	r0, [sp, #168]
	.loc	7 80 15 is_stmt 1               @ ../Middlewares/CMSIS/DSP/Src/TransformFunctions/arm_cfft_radix8_f32.c:80:15
	ldr	r0, [sp, #168]
	.loc	7 80 20 is_stmt 0               @ ../Middlewares/CMSIS/DSP/Src/TransformFunctions/arm_cfft_radix8_f32.c:80:20
	ldr	r1, [sp, #152]
	.loc	7 80 18                         @ ../Middlewares/CMSIS/DSP/Src/TransformFunctions/arm_cfft_radix8_f32.c:80:18
	add	r0, r1
	.loc	7 80 13                         @ ../Middlewares/CMSIS/DSP/Src/TransformFunctions/arm_cfft_radix8_f32.c:80:13
	str	r0, [sp, #164]
	.loc	7 81 15 is_stmt 1               @ ../Middlewares/CMSIS/DSP/Src/TransformFunctions/arm_cfft_radix8_f32.c:81:15
	ldr	r0, [sp, #236]
	.loc	7 81 24 is_stmt 0               @ ../Middlewares/CMSIS/DSP/Src/TransformFunctions/arm_cfft_radix8_f32.c:81:24
	ldr	r1, [sp, #192]
	.loc	7 81 15                         @ ../Middlewares/CMSIS/DSP/Src/TransformFunctions/arm_cfft_radix8_f32.c:81:15
	add.w	r1, r0, r1, lsl #3
	vldr	s0, [r1]
	.loc	7 81 39                         @ ../Middlewares/CMSIS/DSP/Src/TransformFunctions/arm_cfft_radix8_f32.c:81:39
	ldr	r1, [sp, #176]
	.loc	7 81 30                         @ ../Middlewares/CMSIS/DSP/Src/TransformFunctions/arm_cfft_radix8_f32.c:81:30
	add.w	r0, r0, r1, lsl #3
	vldr	s2, [r0]
	.loc	7 81 28                         @ ../Middlewares/CMSIS/DSP/Src/TransformFunctions/arm_cfft_radix8_f32.c:81:28
	vadd.f32	s0, s0, s2
	.loc	7 81 13                         @ ../Middlewares/CMSIS/DSP/Src/TransformFunctions/arm_cfft_radix8_f32.c:81:13
	vstr	s0, [sp, #144]
	.loc	7 82 15 is_stmt 1               @ ../Middlewares/CMSIS/DSP/Src/TransformFunctions/arm_cfft_radix8_f32.c:82:15
	ldr	r0, [sp, #236]
	.loc	7 82 24 is_stmt 0               @ ../Middlewares/CMSIS/DSP/Src/TransformFunctions/arm_cfft_radix8_f32.c:82:24
	ldr	r1, [sp, #192]
	.loc	7 82 15                         @ ../Middlewares/CMSIS/DSP/Src/TransformFunctions/arm_cfft_radix8_f32.c:82:15
	add.w	r1, r0, r1, lsl #3
	vldr	s0, [r1]
	.loc	7 82 39                         @ ../Middlewares/CMSIS/DSP/Src/TransformFunctions/arm_cfft_radix8_f32.c:82:39
	ldr	r1, [sp, #176]
	.loc	7 82 30                         @ ../Middlewares/CMSIS/DSP/Src/TransformFunctions/arm_cfft_radix8_f32.c:82:30
	add.w	r0, r0, r1, lsl #3
	vldr	s2, [r0]
	.loc	7 82 28                         @ ../Middlewares/CMSIS/DSP/Src/TransformFunctions/arm_cfft_radix8_f32.c:82:28
	vsub.f32	s0, s0, s2
	.loc	7 82 13                         @ ../Middlewares/CMSIS/DSP/Src/TransformFunctions/arm_cfft_radix8_f32.c:82:13
	vstr	s0, [sp, #128]
	.loc	7 83 15 is_stmt 1               @ ../Middlewares/CMSIS/DSP/Src/TransformFunctions/arm_cfft_radix8_f32.c:83:15
	ldr	r0, [sp, #236]
	.loc	7 83 24 is_stmt 0               @ ../Middlewares/CMSIS/DSP/Src/TransformFunctions/arm_cfft_radix8_f32.c:83:24
	ldr	r1, [sp, #188]
	.loc	7 83 15                         @ ../Middlewares/CMSIS/DSP/Src/TransformFunctions/arm_cfft_radix8_f32.c:83:15
	add.w	r1, r0, r1, lsl #3
	vldr	s0, [r1]
	.loc	7 83 39                         @ ../Middlewares/CMSIS/DSP/Src/TransformFunctions/arm_cfft_radix8_f32.c:83:39
	ldr	r1, [sp, #172]
	.loc	7 83 30                         @ ../Middlewares/CMSIS/DSP/Src/TransformFunctions/arm_cfft_radix8_f32.c:83:30
	add.w	r0, r0, r1, lsl #3
	vldr	s2, [r0]
	.loc	7 83 28                         @ ../Middlewares/CMSIS/DSP/Src/TransformFunctions/arm_cfft_radix8_f32.c:83:28
	vadd.f32	s0, s0, s2
	.loc	7 83 13                         @ ../Middlewares/CMSIS/DSP/Src/TransformFunctions/arm_cfft_radix8_f32.c:83:13
	vstr	s0, [sp, #140]
	.loc	7 84 15 is_stmt 1               @ ../Middlewares/CMSIS/DSP/Src/TransformFunctions/arm_cfft_radix8_f32.c:84:15
	ldr	r0, [sp, #236]
	.loc	7 84 24 is_stmt 0               @ ../Middlewares/CMSIS/DSP/Src/TransformFunctions/arm_cfft_radix8_f32.c:84:24
	ldr	r1, [sp, #188]
	.loc	7 84 15                         @ ../Middlewares/CMSIS/DSP/Src/TransformFunctions/arm_cfft_radix8_f32.c:84:15
	add.w	r1, r0, r1, lsl #3
	vldr	s0, [r1]
	.loc	7 84 39                         @ ../Middlewares/CMSIS/DSP/Src/TransformFunctions/arm_cfft_radix8_f32.c:84:39
	ldr	r1, [sp, #172]
	.loc	7 84 30                         @ ../Middlewares/CMSIS/DSP/Src/TransformFunctions/arm_cfft_radix8_f32.c:84:30
	add.w	r0, r0, r1, lsl #3
	vldr	s2, [r0]
	.loc	7 84 28                         @ ../Middlewares/CMSIS/DSP/Src/TransformFunctions/arm_cfft_radix8_f32.c:84:28
	vsub.f32	s0, s0, s2
	.loc	7 84 13                         @ ../Middlewares/CMSIS/DSP/Src/TransformFunctions/arm_cfft_radix8_f32.c:84:13
	vstr	s0, [sp, #124]
	.loc	7 85 15 is_stmt 1               @ ../Middlewares/CMSIS/DSP/Src/TransformFunctions/arm_cfft_radix8_f32.c:85:15
	ldr	r0, [sp, #236]
	.loc	7 85 24 is_stmt 0               @ ../Middlewares/CMSIS/DSP/Src/TransformFunctions/arm_cfft_radix8_f32.c:85:24
	ldr	r1, [sp, #184]
	.loc	7 85 15                         @ ../Middlewares/CMSIS/DSP/Src/TransformFunctions/arm_cfft_radix8_f32.c:85:15
	add.w	r1, r0, r1, lsl #3
	vldr	s0, [r1]
	.loc	7 85 39                         @ ../Middlewares/CMSIS/DSP/Src/TransformFunctions/arm_cfft_radix8_f32.c:85:39
	ldr	r1, [sp, #168]
	.loc	7 85 30                         @ ../Middlewares/CMSIS/DSP/Src/TransformFunctions/arm_cfft_radix8_f32.c:85:30
	add.w	r0, r0, r1, lsl #3
	vldr	s2, [r0]
	.loc	7 85 28                         @ ../Middlewares/CMSIS/DSP/Src/TransformFunctions/arm_cfft_radix8_f32.c:85:28
	vadd.f32	s0, s0, s2
	.loc	7 85 13                         @ ../Middlewares/CMSIS/DSP/Src/TransformFunctions/arm_cfft_radix8_f32.c:85:13
	vstr	s0, [sp, #136]
	.loc	7 86 15 is_stmt 1               @ ../Middlewares/CMSIS/DSP/Src/TransformFunctions/arm_cfft_radix8_f32.c:86:15
	ldr	r0, [sp, #236]
	.loc	7 86 24 is_stmt 0               @ ../Middlewares/CMSIS/DSP/Src/TransformFunctions/arm_cfft_radix8_f32.c:86:24
	ldr	r1, [sp, #184]
	.loc	7 86 15                         @ ../Middlewares/CMSIS/DSP/Src/TransformFunctions/arm_cfft_radix8_f32.c:86:15
	add.w	r1, r0, r1, lsl #3
	vldr	s0, [r1]
	.loc	7 86 39                         @ ../Middlewares/CMSIS/DSP/Src/TransformFunctions/arm_cfft_radix8_f32.c:86:39
	ldr	r1, [sp, #168]
	.loc	7 86 30                         @ ../Middlewares/CMSIS/DSP/Src/TransformFunctions/arm_cfft_radix8_f32.c:86:30
	add.w	r0, r0, r1, lsl #3
	vldr	s2, [r0]
	.loc	7 86 28                         @ ../Middlewares/CMSIS/DSP/Src/TransformFunctions/arm_cfft_radix8_f32.c:86:28
	vsub.f32	s0, s0, s2
	.loc	7 86 13                         @ ../Middlewares/CMSIS/DSP/Src/TransformFunctions/arm_cfft_radix8_f32.c:86:13
	vstr	s0, [sp, #120]
	.loc	7 87 15 is_stmt 1               @ ../Middlewares/CMSIS/DSP/Src/TransformFunctions/arm_cfft_radix8_f32.c:87:15
	ldr	r0, [sp, #236]
	.loc	7 87 24 is_stmt 0               @ ../Middlewares/CMSIS/DSP/Src/TransformFunctions/arm_cfft_radix8_f32.c:87:24
	ldr	r1, [sp, #180]
	.loc	7 87 15                         @ ../Middlewares/CMSIS/DSP/Src/TransformFunctions/arm_cfft_radix8_f32.c:87:15
	add.w	r1, r0, r1, lsl #3
	vldr	s0, [r1]
	.loc	7 87 39                         @ ../Middlewares/CMSIS/DSP/Src/TransformFunctions/arm_cfft_radix8_f32.c:87:39
	ldr	r1, [sp, #164]
	.loc	7 87 30                         @ ../Middlewares/CMSIS/DSP/Src/TransformFunctions/arm_cfft_radix8_f32.c:87:30
	add.w	r0, r0, r1, lsl #3
	vldr	s2, [r0]
	.loc	7 87 28                         @ ../Middlewares/CMSIS/DSP/Src/TransformFunctions/arm_cfft_radix8_f32.c:87:28
	vadd.f32	s0, s0, s2
	.loc	7 87 13                         @ ../Middlewares/CMSIS/DSP/Src/TransformFunctions/arm_cfft_radix8_f32.c:87:13
	vstr	s0, [sp, #132]
	.loc	7 88 15 is_stmt 1               @ ../Middlewares/CMSIS/DSP/Src/TransformFunctions/arm_cfft_radix8_f32.c:88:15
	ldr	r0, [sp, #236]
	.loc	7 88 24 is_stmt 0               @ ../Middlewares/CMSIS/DSP/Src/TransformFunctions/arm_cfft_radix8_f32.c:88:24
	ldr	r1, [sp, #180]
	.loc	7 88 15                         @ ../Middlewares/CMSIS/DSP/Src/TransformFunctions/arm_cfft_radix8_f32.c:88:15
	add.w	r1, r0, r1, lsl #3
	vldr	s0, [r1]
	.loc	7 88 39                         @ ../Middlewares/CMSIS/DSP/Src/TransformFunctions/arm_cfft_radix8_f32.c:88:39
	ldr	r1, [sp, #164]
	.loc	7 88 30                         @ ../Middlewares/CMSIS/DSP/Src/TransformFunctions/arm_cfft_radix8_f32.c:88:30
	add.w	r0, r0, r1, lsl #3
	vldr	s2, [r0]
	.loc	7 88 28                         @ ../Middlewares/CMSIS/DSP/Src/TransformFunctions/arm_cfft_radix8_f32.c:88:28
	vsub.f32	s0, s0, s2
	.loc	7 88 13                         @ ../Middlewares/CMSIS/DSP/Src/TransformFunctions/arm_cfft_radix8_f32.c:88:13
	vstr	s0, [sp, #116]
	.loc	7 89 15 is_stmt 1               @ ../Middlewares/CMSIS/DSP/Src/TransformFunctions/arm_cfft_radix8_f32.c:89:15
	vldr	s0, [sp, #144]
	.loc	7 89 20 is_stmt 0               @ ../Middlewares/CMSIS/DSP/Src/TransformFunctions/arm_cfft_radix8_f32.c:89:20
	vldr	s2, [sp, #136]
	.loc	7 89 18                         @ ../Middlewares/CMSIS/DSP/Src/TransformFunctions/arm_cfft_radix8_f32.c:89:18
	vsub.f32	s0, s0, s2
	.loc	7 89 13                         @ ../Middlewares/CMSIS/DSP/Src/TransformFunctions/arm_cfft_radix8_f32.c:89:13
	vstr	s0, [sp, #112]
	.loc	7 90 15 is_stmt 1               @ ../Middlewares/CMSIS/DSP/Src/TransformFunctions/arm_cfft_radix8_f32.c:90:15
	vldr	s0, [sp, #144]
	.loc	7 90 20 is_stmt 0               @ ../Middlewares/CMSIS/DSP/Src/TransformFunctions/arm_cfft_radix8_f32.c:90:20
	vldr	s2, [sp, #136]
	.loc	7 90 18                         @ ../Middlewares/CMSIS/DSP/Src/TransformFunctions/arm_cfft_radix8_f32.c:90:18
	vadd.f32	s0, s0, s2
	.loc	7 90 13                         @ ../Middlewares/CMSIS/DSP/Src/TransformFunctions/arm_cfft_radix8_f32.c:90:13
	vstr	s0, [sp, #144]
	.loc	7 91 15 is_stmt 1               @ ../Middlewares/CMSIS/DSP/Src/TransformFunctions/arm_cfft_radix8_f32.c:91:15
	vldr	s0, [sp, #140]
	.loc	7 91 20 is_stmt 0               @ ../Middlewares/CMSIS/DSP/Src/TransformFunctions/arm_cfft_radix8_f32.c:91:20
	vldr	s2, [sp, #132]
	.loc	7 91 18                         @ ../Middlewares/CMSIS/DSP/Src/TransformFunctions/arm_cfft_radix8_f32.c:91:18
	vsub.f32	s0, s0, s2
	.loc	7 91 13                         @ ../Middlewares/CMSIS/DSP/Src/TransformFunctions/arm_cfft_radix8_f32.c:91:13
	vstr	s0, [sp, #136]
	.loc	7 92 15 is_stmt 1               @ ../Middlewares/CMSIS/DSP/Src/TransformFunctions/arm_cfft_radix8_f32.c:92:15
	vldr	s0, [sp, #140]
	.loc	7 92 20 is_stmt 0               @ ../Middlewares/CMSIS/DSP/Src/TransformFunctions/arm_cfft_radix8_f32.c:92:20
	vldr	s2, [sp, #132]
	.loc	7 92 18                         @ ../Middlewares/CMSIS/DSP/Src/TransformFunctions/arm_cfft_radix8_f32.c:92:18
	vadd.f32	s0, s0, s2
	.loc	7 92 13                         @ ../Middlewares/CMSIS/DSP/Src/TransformFunctions/arm_cfft_radix8_f32.c:92:13
	vstr	s0, [sp, #140]
	.loc	7 93 25 is_stmt 1               @ ../Middlewares/CMSIS/DSP/Src/TransformFunctions/arm_cfft_radix8_f32.c:93:25
	vldr	s0, [sp, #144]
	.loc	7 93 30 is_stmt 0               @ ../Middlewares/CMSIS/DSP/Src/TransformFunctions/arm_cfft_radix8_f32.c:93:30
	vldr	s2, [sp, #140]
	.loc	7 93 28                         @ ../Middlewares/CMSIS/DSP/Src/TransformFunctions/arm_cfft_radix8_f32.c:93:28
	vadd.f32	s0, s0, s2
	.loc	7 93 10                         @ ../Middlewares/CMSIS/DSP/Src/TransformFunctions/arm_cfft_radix8_f32.c:93:10
	ldr	r0, [sp, #236]
	.loc	7 93 19                         @ ../Middlewares/CMSIS/DSP/Src/TransformFunctions/arm_cfft_radix8_f32.c:93:19
	ldr	r1, [sp, #192]
	.loc	7 93 10                         @ ../Middlewares/CMSIS/DSP/Src/TransformFunctions/arm_cfft_radix8_f32.c:93:10
	add.w	r0, r0, r1, lsl #3
	.loc	7 93 23                         @ ../Middlewares/CMSIS/DSP/Src/TransformFunctions/arm_cfft_radix8_f32.c:93:23
	vstr	s0, [r0]
	.loc	7 94 25 is_stmt 1               @ ../Middlewares/CMSIS/DSP/Src/TransformFunctions/arm_cfft_radix8_f32.c:94:25
	vldr	s0, [sp, #144]
	.loc	7 94 30 is_stmt 0               @ ../Middlewares/CMSIS/DSP/Src/TransformFunctions/arm_cfft_radix8_f32.c:94:30
	vldr	s2, [sp, #140]
	.loc	7 94 28                         @ ../Middlewares/CMSIS/DSP/Src/TransformFunctions/arm_cfft_radix8_f32.c:94:28
	vsub.f32	s0, s0, s2
	.loc	7 94 10                         @ ../Middlewares/CMSIS/DSP/Src/TransformFunctions/arm_cfft_radix8_f32.c:94:10
	ldr	r0, [sp, #236]
	.loc	7 94 19                         @ ../Middlewares/CMSIS/DSP/Src/TransformFunctions/arm_cfft_radix8_f32.c:94:19
	ldr	r1, [sp, #176]
	.loc	7 94 10                         @ ../Middlewares/CMSIS/DSP/Src/TransformFunctions/arm_cfft_radix8_f32.c:94:10
	add.w	r0, r0, r1, lsl #3
	.loc	7 94 23                         @ ../Middlewares/CMSIS/DSP/Src/TransformFunctions/arm_cfft_radix8_f32.c:94:23
	vstr	s0, [r0]
	.loc	7 95 15 is_stmt 1               @ ../Middlewares/CMSIS/DSP/Src/TransformFunctions/arm_cfft_radix8_f32.c:95:15
	ldr	r0, [sp, #236]
	.loc	7 95 24 is_stmt 0               @ ../Middlewares/CMSIS/DSP/Src/TransformFunctions/arm_cfft_radix8_f32.c:95:24
	ldr	r1, [sp, #192]
	.loc	7 95 15                         @ ../Middlewares/CMSIS/DSP/Src/TransformFunctions/arm_cfft_radix8_f32.c:95:15
	add.w	r1, r0, r1, lsl #3
	vldr	s0, [r1, #4]
	.loc	7 95 43                         @ ../Middlewares/CMSIS/DSP/Src/TransformFunctions/arm_cfft_radix8_f32.c:95:43
	ldr	r1, [sp, #176]
	.loc	7 95 34                         @ ../Middlewares/CMSIS/DSP/Src/TransformFunctions/arm_cfft_radix8_f32.c:95:34
	add.w	r0, r0, r1, lsl #3
	vldr	s2, [r0, #4]
	.loc	7 95 32                         @ ../Middlewares/CMSIS/DSP/Src/TransformFunctions/arm_cfft_radix8_f32.c:95:32
	vadd.f32	s0, s0, s2
	.loc	7 95 13                         @ ../Middlewares/CMSIS/DSP/Src/TransformFunctions/arm_cfft_radix8_f32.c:95:13
	vstr	s0, [sp, #144]
	.loc	7 96 15 is_stmt 1               @ ../Middlewares/CMSIS/DSP/Src/TransformFunctions/arm_cfft_radix8_f32.c:96:15
	ldr	r0, [sp, #236]
	.loc	7 96 24 is_stmt 0               @ ../Middlewares/CMSIS/DSP/Src/TransformFunctions/arm_cfft_radix8_f32.c:96:24
	ldr	r1, [sp, #192]
	.loc	7 96 15                         @ ../Middlewares/CMSIS/DSP/Src/TransformFunctions/arm_cfft_radix8_f32.c:96:15
	add.w	r1, r0, r1, lsl #3
	vldr	s0, [r1, #4]
	.loc	7 96 43                         @ ../Middlewares/CMSIS/DSP/Src/TransformFunctions/arm_cfft_radix8_f32.c:96:43
	ldr	r1, [sp, #176]
	.loc	7 96 34                         @ ../Middlewares/CMSIS/DSP/Src/TransformFunctions/arm_cfft_radix8_f32.c:96:34
	add.w	r0, r0, r1, lsl #3
	vldr	s2, [r0, #4]
	.loc	7 96 32                         @ ../Middlewares/CMSIS/DSP/Src/TransformFunctions/arm_cfft_radix8_f32.c:96:32
	vsub.f32	s0, s0, s2
	.loc	7 96 13                         @ ../Middlewares/CMSIS/DSP/Src/TransformFunctions/arm_cfft_radix8_f32.c:96:13
	vstr	s0, [sp, #88]
	.loc	7 97 15 is_stmt 1               @ ../Middlewares/CMSIS/DSP/Src/TransformFunctions/arm_cfft_radix8_f32.c:97:15
	ldr	r0, [sp, #236]
	.loc	7 97 24 is_stmt 0               @ ../Middlewares/CMSIS/DSP/Src/TransformFunctions/arm_cfft_radix8_f32.c:97:24
	ldr	r1, [sp, #188]
	.loc	7 97 15                         @ ../Middlewares/CMSIS/DSP/Src/TransformFunctions/arm_cfft_radix8_f32.c:97:15
	add.w	r1, r0, r1, lsl #3
	vldr	s0, [r1, #4]
	.loc	7 97 43                         @ ../Middlewares/CMSIS/DSP/Src/TransformFunctions/arm_cfft_radix8_f32.c:97:43
	ldr	r1, [sp, #172]
	.loc	7 97 34                         @ ../Middlewares/CMSIS/DSP/Src/TransformFunctions/arm_cfft_radix8_f32.c:97:34
	add.w	r0, r0, r1, lsl #3
	vldr	s2, [r0, #4]
	.loc	7 97 32                         @ ../Middlewares/CMSIS/DSP/Src/TransformFunctions/arm_cfft_radix8_f32.c:97:32
	vadd.f32	s0, s0, s2
	.loc	7 97 13                         @ ../Middlewares/CMSIS/DSP/Src/TransformFunctions/arm_cfft_radix8_f32.c:97:13
	vstr	s0, [sp, #140]
	.loc	7 98 15 is_stmt 1               @ ../Middlewares/CMSIS/DSP/Src/TransformFunctions/arm_cfft_radix8_f32.c:98:15
	ldr	r0, [sp, #236]
	.loc	7 98 24 is_stmt 0               @ ../Middlewares/CMSIS/DSP/Src/TransformFunctions/arm_cfft_radix8_f32.c:98:24
	ldr	r1, [sp, #188]
	.loc	7 98 15                         @ ../Middlewares/CMSIS/DSP/Src/TransformFunctions/arm_cfft_radix8_f32.c:98:15
	add.w	r1, r0, r1, lsl #3
	vldr	s0, [r1, #4]
	.loc	7 98 43                         @ ../Middlewares/CMSIS/DSP/Src/TransformFunctions/arm_cfft_radix8_f32.c:98:43
	ldr	r1, [sp, #172]
	.loc	7 98 34                         @ ../Middlewares/CMSIS/DSP/Src/TransformFunctions/arm_cfft_radix8_f32.c:98:34
	add.w	r0, r0, r1, lsl #3
	vldr	s2, [r0, #4]
	.loc	7 98 32                         @ ../Middlewares/CMSIS/DSP/Src/TransformFunctions/arm_cfft_radix8_f32.c:98:32
	vsub.f32	s0, s0, s2
	.loc	7 98 13                         @ ../Middlewares/CMSIS/DSP/Src/TransformFunctions/arm_cfft_radix8_f32.c:98:13
	vstr	s0, [sp, #84]
	.loc	7 99 15 is_stmt 1               @ ../Middlewares/CMSIS/DSP/Src/TransformFunctions/arm_cfft_radix8_f32.c:99:15
	ldr	r0, [sp, #236]
	.loc	7 99 24 is_stmt 0               @ ../Middlewares/CMSIS/DSP/Src/TransformFunctions/arm_cfft_radix8_f32.c:99:24
	ldr	r1, [sp, #184]
	.loc	7 99 15                         @ ../Middlewares/CMSIS/DSP/Src/TransformFunctions/arm_cfft_radix8_f32.c:99:15
	add.w	r1, r0, r1, lsl #3
	vldr	s0, [r1, #4]
	.loc	7 99 43                         @ ../Middlewares/CMSIS/DSP/Src/TransformFunctions/arm_cfft_radix8_f32.c:99:43
	ldr	r1, [sp, #168]
	.loc	7 99 34                         @ ../Middlewares/CMSIS/DSP/Src/TransformFunctions/arm_cfft_radix8_f32.c:99:34
	add.w	r0, r0, r1, lsl #3
	vldr	s2, [r0, #4]
	.loc	7 99 32                         @ ../Middlewares/CMSIS/DSP/Src/TransformFunctions/arm_cfft_radix8_f32.c:99:32
	vadd.f32	s0, s0, s2
	.loc	7 99 13                         @ ../Middlewares/CMSIS/DSP/Src/TransformFunctions/arm_cfft_radix8_f32.c:99:13
	vstr	s0, [sp, #96]
	.loc	7 100 15 is_stmt 1              @ ../Middlewares/CMSIS/DSP/Src/TransformFunctions/arm_cfft_radix8_f32.c:100:15
	ldr	r0, [sp, #236]
	.loc	7 100 24 is_stmt 0              @ ../Middlewares/CMSIS/DSP/Src/TransformFunctions/arm_cfft_radix8_f32.c:100:24
	ldr	r1, [sp, #184]
	.loc	7 100 15                        @ ../Middlewares/CMSIS/DSP/Src/TransformFunctions/arm_cfft_radix8_f32.c:100:15
	add.w	r1, r0, r1, lsl #3
	vldr	s0, [r1, #4]
	.loc	7 100 43                        @ ../Middlewares/CMSIS/DSP/Src/TransformFunctions/arm_cfft_radix8_f32.c:100:43
	ldr	r1, [sp, #168]
	.loc	7 100 34                        @ ../Middlewares/CMSIS/DSP/Src/TransformFunctions/arm_cfft_radix8_f32.c:100:34
	add.w	r0, r0, r1, lsl #3
	vldr	s2, [r0, #4]
	.loc	7 100 32                        @ ../Middlewares/CMSIS/DSP/Src/TransformFunctions/arm_cfft_radix8_f32.c:100:32
	vsub.f32	s0, s0, s2
	.loc	7 100 13                        @ ../Middlewares/CMSIS/DSP/Src/TransformFunctions/arm_cfft_radix8_f32.c:100:13
	vstr	s0, [sp, #80]
	.loc	7 101 15 is_stmt 1              @ ../Middlewares/CMSIS/DSP/Src/TransformFunctions/arm_cfft_radix8_f32.c:101:15
	ldr	r0, [sp, #236]
	.loc	7 101 24 is_stmt 0              @ ../Middlewares/CMSIS/DSP/Src/TransformFunctions/arm_cfft_radix8_f32.c:101:24
	ldr	r1, [sp, #180]
	.loc	7 101 15                        @ ../Middlewares/CMSIS/DSP/Src/TransformFunctions/arm_cfft_radix8_f32.c:101:15
	add.w	r1, r0, r1, lsl #3
	vldr	s0, [r1, #4]
	.loc	7 101 43                        @ ../Middlewares/CMSIS/DSP/Src/TransformFunctions/arm_cfft_radix8_f32.c:101:43
	ldr	r1, [sp, #164]
	.loc	7 101 34                        @ ../Middlewares/CMSIS/DSP/Src/TransformFunctions/arm_cfft_radix8_f32.c:101:34
	add.w	r0, r0, r1, lsl #3
	vldr	s2, [r0, #4]
	.loc	7 101 32                        @ ../Middlewares/CMSIS/DSP/Src/TransformFunctions/arm_cfft_radix8_f32.c:101:32
	vadd.f32	s0, s0, s2
	.loc	7 101 13                        @ ../Middlewares/CMSIS/DSP/Src/TransformFunctions/arm_cfft_radix8_f32.c:101:13
	vstr	s0, [sp, #132]
	.loc	7 102 15 is_stmt 1              @ ../Middlewares/CMSIS/DSP/Src/TransformFunctions/arm_cfft_radix8_f32.c:102:15
	ldr	r0, [sp, #236]
	.loc	7 102 24 is_stmt 0              @ ../Middlewares/CMSIS/DSP/Src/TransformFunctions/arm_cfft_radix8_f32.c:102:24
	ldr	r1, [sp, #180]
	.loc	7 102 15                        @ ../Middlewares/CMSIS/DSP/Src/TransformFunctions/arm_cfft_radix8_f32.c:102:15
	add.w	r1, r0, r1, lsl #3
	vldr	s0, [r1, #4]
	.loc	7 102 43                        @ ../Middlewares/CMSIS/DSP/Src/TransformFunctions/arm_cfft_radix8_f32.c:102:43
	ldr	r1, [sp, #164]
	.loc	7 102 34                        @ ../Middlewares/CMSIS/DSP/Src/TransformFunctions/arm_cfft_radix8_f32.c:102:34
	add.w	r0, r0, r1, lsl #3
	vldr	s2, [r0, #4]
	.loc	7 102 32                        @ ../Middlewares/CMSIS/DSP/Src/TransformFunctions/arm_cfft_radix8_f32.c:102:32
	vsub.f32	s0, s0, s2
	.loc	7 102 13                        @ ../Middlewares/CMSIS/DSP/Src/TransformFunctions/arm_cfft_radix8_f32.c:102:13
	vstr	s0, [sp, #76]
	.loc	7 103 15 is_stmt 1              @ ../Middlewares/CMSIS/DSP/Src/TransformFunctions/arm_cfft_radix8_f32.c:103:15
	vldr	s0, [sp, #144]
	.loc	7 103 20 is_stmt 0              @ ../Middlewares/CMSIS/DSP/Src/TransformFunctions/arm_cfft_radix8_f32.c:103:20
	vldr	s2, [sp, #96]
	.loc	7 103 18                        @ ../Middlewares/CMSIS/DSP/Src/TransformFunctions/arm_cfft_radix8_f32.c:103:18
	vsub.f32	s0, s0, s2
	.loc	7 103 13                        @ ../Middlewares/CMSIS/DSP/Src/TransformFunctions/arm_cfft_radix8_f32.c:103:13
	vstr	s0, [sp, #108]
	.loc	7 104 15 is_stmt 1              @ ../Middlewares/CMSIS/DSP/Src/TransformFunctions/arm_cfft_radix8_f32.c:104:15
	vldr	s0, [sp, #144]
	.loc	7 104 20 is_stmt 0              @ ../Middlewares/CMSIS/DSP/Src/TransformFunctions/arm_cfft_radix8_f32.c:104:20
	vldr	s2, [sp, #96]
	.loc	7 104 18                        @ ../Middlewares/CMSIS/DSP/Src/TransformFunctions/arm_cfft_radix8_f32.c:104:18
	vadd.f32	s0, s0, s2
	.loc	7 104 13                        @ ../Middlewares/CMSIS/DSP/Src/TransformFunctions/arm_cfft_radix8_f32.c:104:13
	vstr	s0, [sp, #144]
	.loc	7 105 15 is_stmt 1              @ ../Middlewares/CMSIS/DSP/Src/TransformFunctions/arm_cfft_radix8_f32.c:105:15
	vldr	s0, [sp, #140]
	.loc	7 105 20 is_stmt 0              @ ../Middlewares/CMSIS/DSP/Src/TransformFunctions/arm_cfft_radix8_f32.c:105:20
	vldr	s2, [sp, #132]
	.loc	7 105 18                        @ ../Middlewares/CMSIS/DSP/Src/TransformFunctions/arm_cfft_radix8_f32.c:105:18
	vsub.f32	s0, s0, s2
	.loc	7 105 13                        @ ../Middlewares/CMSIS/DSP/Src/TransformFunctions/arm_cfft_radix8_f32.c:105:13
	vstr	s0, [sp, #96]
	.loc	7 106 15 is_stmt 1              @ ../Middlewares/CMSIS/DSP/Src/TransformFunctions/arm_cfft_radix8_f32.c:106:15
	vldr	s0, [sp, #140]
	.loc	7 106 20 is_stmt 0              @ ../Middlewares/CMSIS/DSP/Src/TransformFunctions/arm_cfft_radix8_f32.c:106:20
	vldr	s2, [sp, #132]
	.loc	7 106 18                        @ ../Middlewares/CMSIS/DSP/Src/TransformFunctions/arm_cfft_radix8_f32.c:106:18
	vadd.f32	s0, s0, s2
	.loc	7 106 13                        @ ../Middlewares/CMSIS/DSP/Src/TransformFunctions/arm_cfft_radix8_f32.c:106:13
	vstr	s0, [sp, #140]
	.loc	7 107 29 is_stmt 1              @ ../Middlewares/CMSIS/DSP/Src/TransformFunctions/arm_cfft_radix8_f32.c:107:29
	vldr	s0, [sp, #144]
	.loc	7 107 34 is_stmt 0              @ ../Middlewares/CMSIS/DSP/Src/TransformFunctions/arm_cfft_radix8_f32.c:107:34
	vldr	s2, [sp, #140]
	.loc	7 107 32                        @ ../Middlewares/CMSIS/DSP/Src/TransformFunctions/arm_cfft_radix8_f32.c:107:32
	vadd.f32	s0, s0, s2
	.loc	7 107 10                        @ ../Middlewares/CMSIS/DSP/Src/TransformFunctions/arm_cfft_radix8_f32.c:107:10
	ldr	r0, [sp, #236]
	.loc	7 107 19                        @ ../Middlewares/CMSIS/DSP/Src/TransformFunctions/arm_cfft_radix8_f32.c:107:19
	ldr	r1, [sp, #192]
	.loc	7 107 10                        @ ../Middlewares/CMSIS/DSP/Src/TransformFunctions/arm_cfft_radix8_f32.c:107:10
	add.w	r0, r0, r1, lsl #3
	.loc	7 107 27                        @ ../Middlewares/CMSIS/DSP/Src/TransformFunctions/arm_cfft_radix8_f32.c:107:27
	vstr	s0, [r0, #4]
	.loc	7 108 29 is_stmt 1              @ ../Middlewares/CMSIS/DSP/Src/TransformFunctions/arm_cfft_radix8_f32.c:108:29
	vldr	s0, [sp, #144]
	.loc	7 108 34 is_stmt 0              @ ../Middlewares/CMSIS/DSP/Src/TransformFunctions/arm_cfft_radix8_f32.c:108:34
	vldr	s2, [sp, #140]
	.loc	7 108 32                        @ ../Middlewares/CMSIS/DSP/Src/TransformFunctions/arm_cfft_radix8_f32.c:108:32
	vsub.f32	s0, s0, s2
	.loc	7 108 10                        @ ../Middlewares/CMSIS/DSP/Src/TransformFunctions/arm_cfft_radix8_f32.c:108:10
	ldr	r0, [sp, #236]
	.loc	7 108 19                        @ ../Middlewares/CMSIS/DSP/Src/TransformFunctions/arm_cfft_radix8_f32.c:108:19
	ldr	r1, [sp, #176]
	.loc	7 108 10                        @ ../Middlewares/CMSIS/DSP/Src/TransformFunctions/arm_cfft_radix8_f32.c:108:10
	add.w	r0, r0, r1, lsl #3
	.loc	7 108 27                        @ ../Middlewares/CMSIS/DSP/Src/TransformFunctions/arm_cfft_radix8_f32.c:108:27
	vstr	s0, [r0, #4]
	.loc	7 109 25 is_stmt 1              @ ../Middlewares/CMSIS/DSP/Src/TransformFunctions/arm_cfft_radix8_f32.c:109:25
	vldr	s0, [sp, #112]
	.loc	7 109 30 is_stmt 0              @ ../Middlewares/CMSIS/DSP/Src/TransformFunctions/arm_cfft_radix8_f32.c:109:30
	vldr	s2, [sp, #96]
	.loc	7 109 28                        @ ../Middlewares/CMSIS/DSP/Src/TransformFunctions/arm_cfft_radix8_f32.c:109:28
	vadd.f32	s0, s0, s2
	.loc	7 109 10                        @ ../Middlewares/CMSIS/DSP/Src/TransformFunctions/arm_cfft_radix8_f32.c:109:10
	ldr	r0, [sp, #236]
	.loc	7 109 19                        @ ../Middlewares/CMSIS/DSP/Src/TransformFunctions/arm_cfft_radix8_f32.c:109:19
	ldr	r1, [sp, #184]
	.loc	7 109 10                        @ ../Middlewares/CMSIS/DSP/Src/TransformFunctions/arm_cfft_radix8_f32.c:109:10
	add.w	r0, r0, r1, lsl #3
	.loc	7 109 23                        @ ../Middlewares/CMSIS/DSP/Src/TransformFunctions/arm_cfft_radix8_f32.c:109:23
	vstr	s0, [r0]
	.loc	7 110 25 is_stmt 1              @ ../Middlewares/CMSIS/DSP/Src/TransformFunctions/arm_cfft_radix8_f32.c:110:25
	vldr	s0, [sp, #112]
	.loc	7 110 30 is_stmt 0              @ ../Middlewares/CMSIS/DSP/Src/TransformFunctions/arm_cfft_radix8_f32.c:110:30
	vldr	s2, [sp, #96]
	.loc	7 110 28                        @ ../Middlewares/CMSIS/DSP/Src/TransformFunctions/arm_cfft_radix8_f32.c:110:28
	vsub.f32	s0, s0, s2
	.loc	7 110 10                        @ ../Middlewares/CMSIS/DSP/Src/TransformFunctions/arm_cfft_radix8_f32.c:110:10
	ldr	r0, [sp, #236]
	.loc	7 110 19                        @ ../Middlewares/CMSIS/DSP/Src/TransformFunctions/arm_cfft_radix8_f32.c:110:19
	ldr	r1, [sp, #168]
	.loc	7 110 10                        @ ../Middlewares/CMSIS/DSP/Src/TransformFunctions/arm_cfft_radix8_f32.c:110:10
	add.w	r0, r0, r1, lsl #3
	.loc	7 110 23                        @ ../Middlewares/CMSIS/DSP/Src/TransformFunctions/arm_cfft_radix8_f32.c:110:23
	vstr	s0, [r0]
	.loc	7 111 29 is_stmt 1              @ ../Middlewares/CMSIS/DSP/Src/TransformFunctions/arm_cfft_radix8_f32.c:111:29
	vldr	s0, [sp, #108]
	.loc	7 111 34 is_stmt 0              @ ../Middlewares/CMSIS/DSP/Src/TransformFunctions/arm_cfft_radix8_f32.c:111:34
	vldr	s2, [sp, #136]
	.loc	7 111 32                        @ ../Middlewares/CMSIS/DSP/Src/TransformFunctions/arm_cfft_radix8_f32.c:111:32
	vsub.f32	s0, s0, s2
	.loc	7 111 10                        @ ../Middlewares/CMSIS/DSP/Src/TransformFunctions/arm_cfft_radix8_f32.c:111:10
	ldr	r0, [sp, #236]
	.loc	7 111 19                        @ ../Middlewares/CMSIS/DSP/Src/TransformFunctions/arm_cfft_radix8_f32.c:111:19
	ldr	r1, [sp, #184]
	.loc	7 111 10                        @ ../Middlewares/CMSIS/DSP/Src/TransformFunctions/arm_cfft_radix8_f32.c:111:10
	add.w	r0, r0, r1, lsl #3
	.loc	7 111 27                        @ ../Middlewares/CMSIS/DSP/Src/TransformFunctions/arm_cfft_radix8_f32.c:111:27
	vstr	s0, [r0, #4]
	.loc	7 112 29 is_stmt 1              @ ../Middlewares/CMSIS/DSP/Src/TransformFunctions/arm_cfft_radix8_f32.c:112:29
	vldr	s0, [sp, #108]
	.loc	7 112 34 is_stmt 0              @ ../Middlewares/CMSIS/DSP/Src/TransformFunctions/arm_cfft_radix8_f32.c:112:34
	vldr	s2, [sp, #136]
	.loc	7 112 32                        @ ../Middlewares/CMSIS/DSP/Src/TransformFunctions/arm_cfft_radix8_f32.c:112:32
	vadd.f32	s0, s0, s2
	.loc	7 112 10                        @ ../Middlewares/CMSIS/DSP/Src/TransformFunctions/arm_cfft_radix8_f32.c:112:10
	ldr	r0, [sp, #236]
	.loc	7 112 19                        @ ../Middlewares/CMSIS/DSP/Src/TransformFunctions/arm_cfft_radix8_f32.c:112:19
	ldr	r1, [sp, #168]
	.loc	7 112 10                        @ ../Middlewares/CMSIS/DSP/Src/TransformFunctions/arm_cfft_radix8_f32.c:112:10
	add.w	r0, r0, r1, lsl #3
	.loc	7 112 27                        @ ../Middlewares/CMSIS/DSP/Src/TransformFunctions/arm_cfft_radix8_f32.c:112:27
	vstr	s0, [r0, #4]
	.loc	7 113 16 is_stmt 1              @ ../Middlewares/CMSIS/DSP/Src/TransformFunctions/arm_cfft_radix8_f32.c:113:16
	vldr	s0, [sp, #124]
	.loc	7 113 21 is_stmt 0              @ ../Middlewares/CMSIS/DSP/Src/TransformFunctions/arm_cfft_radix8_f32.c:113:21
	vldr	s2, [sp, #116]
	.loc	7 113 19                        @ ../Middlewares/CMSIS/DSP/Src/TransformFunctions/arm_cfft_radix8_f32.c:113:19
	vsub.f32	s0, s0, s2
	vldr	s2, .LCPI7_1
	.loc	7 113 25                        @ ../Middlewares/CMSIS/DSP/Src/TransformFunctions/arm_cfft_radix8_f32.c:113:25
	vmul.f32	s0, s0, s2
	.loc	7 113 13                        @ ../Middlewares/CMSIS/DSP/Src/TransformFunctions/arm_cfft_radix8_f32.c:113:13
	vstr	s0, [sp, #144]
	.loc	7 114 16 is_stmt 1              @ ../Middlewares/CMSIS/DSP/Src/TransformFunctions/arm_cfft_radix8_f32.c:114:16
	vldr	s0, [sp, #124]
	.loc	7 114 21 is_stmt 0              @ ../Middlewares/CMSIS/DSP/Src/TransformFunctions/arm_cfft_radix8_f32.c:114:21
	vldr	s4, [sp, #116]
	.loc	7 114 19                        @ ../Middlewares/CMSIS/DSP/Src/TransformFunctions/arm_cfft_radix8_f32.c:114:19
	vadd.f32	s0, s0, s4
	.loc	7 114 25                        @ ../Middlewares/CMSIS/DSP/Src/TransformFunctions/arm_cfft_radix8_f32.c:114:25
	vmul.f32	s0, s0, s2
	.loc	7 114 13                        @ ../Middlewares/CMSIS/DSP/Src/TransformFunctions/arm_cfft_radix8_f32.c:114:13
	vstr	s0, [sp, #124]
	.loc	7 115 16 is_stmt 1              @ ../Middlewares/CMSIS/DSP/Src/TransformFunctions/arm_cfft_radix8_f32.c:115:16
	vldr	s0, [sp, #84]
	.loc	7 115 21 is_stmt 0              @ ../Middlewares/CMSIS/DSP/Src/TransformFunctions/arm_cfft_radix8_f32.c:115:21
	vldr	s4, [sp, #76]
	.loc	7 115 19                        @ ../Middlewares/CMSIS/DSP/Src/TransformFunctions/arm_cfft_radix8_f32.c:115:19
	vsub.f32	s0, s0, s4
	.loc	7 115 25                        @ ../Middlewares/CMSIS/DSP/Src/TransformFunctions/arm_cfft_radix8_f32.c:115:25
	vmul.f32	s0, s0, s2
	.loc	7 115 13                        @ ../Middlewares/CMSIS/DSP/Src/TransformFunctions/arm_cfft_radix8_f32.c:115:13
	vstr	s0, [sp, #140]
	.loc	7 116 16 is_stmt 1              @ ../Middlewares/CMSIS/DSP/Src/TransformFunctions/arm_cfft_radix8_f32.c:116:16
	vldr	s0, [sp, #84]
	.loc	7 116 21 is_stmt 0              @ ../Middlewares/CMSIS/DSP/Src/TransformFunctions/arm_cfft_radix8_f32.c:116:21
	vldr	s4, [sp, #76]
	.loc	7 116 19                        @ ../Middlewares/CMSIS/DSP/Src/TransformFunctions/arm_cfft_radix8_f32.c:116:19
	vadd.f32	s0, s0, s4
	.loc	7 116 25                        @ ../Middlewares/CMSIS/DSP/Src/TransformFunctions/arm_cfft_radix8_f32.c:116:25
	vmul.f32	s0, s0, s2
	.loc	7 116 13                        @ ../Middlewares/CMSIS/DSP/Src/TransformFunctions/arm_cfft_radix8_f32.c:116:13
	vstr	s0, [sp, #84]
	.loc	7 117 15 is_stmt 1              @ ../Middlewares/CMSIS/DSP/Src/TransformFunctions/arm_cfft_radix8_f32.c:117:15
	vldr	s0, [sp, #128]
	.loc	7 117 20 is_stmt 0              @ ../Middlewares/CMSIS/DSP/Src/TransformFunctions/arm_cfft_radix8_f32.c:117:20
	vldr	s2, [sp, #144]
	.loc	7 117 18                        @ ../Middlewares/CMSIS/DSP/Src/TransformFunctions/arm_cfft_radix8_f32.c:117:18
	vsub.f32	s0, s0, s2
	.loc	7 117 13                        @ ../Middlewares/CMSIS/DSP/Src/TransformFunctions/arm_cfft_radix8_f32.c:117:13
	vstr	s0, [sp, #112]
	.loc	7 118 15 is_stmt 1              @ ../Middlewares/CMSIS/DSP/Src/TransformFunctions/arm_cfft_radix8_f32.c:118:15
	vldr	s0, [sp, #128]
	.loc	7 118 20 is_stmt 0              @ ../Middlewares/CMSIS/DSP/Src/TransformFunctions/arm_cfft_radix8_f32.c:118:20
	vldr	s2, [sp, #144]
	.loc	7 118 18                        @ ../Middlewares/CMSIS/DSP/Src/TransformFunctions/arm_cfft_radix8_f32.c:118:18
	vadd.f32	s0, s0, s2
	.loc	7 118 13                        @ ../Middlewares/CMSIS/DSP/Src/TransformFunctions/arm_cfft_radix8_f32.c:118:13
	vstr	s0, [sp, #128]
	.loc	7 119 15 is_stmt 1              @ ../Middlewares/CMSIS/DSP/Src/TransformFunctions/arm_cfft_radix8_f32.c:119:15
	vldr	s0, [sp, #120]
	.loc	7 119 20 is_stmt 0              @ ../Middlewares/CMSIS/DSP/Src/TransformFunctions/arm_cfft_radix8_f32.c:119:20
	vldr	s2, [sp, #124]
	.loc	7 119 18                        @ ../Middlewares/CMSIS/DSP/Src/TransformFunctions/arm_cfft_radix8_f32.c:119:18
	vsub.f32	s0, s0, s2
	.loc	7 119 13                        @ ../Middlewares/CMSIS/DSP/Src/TransformFunctions/arm_cfft_radix8_f32.c:119:13
	vstr	s0, [sp, #116]
	.loc	7 120 15 is_stmt 1              @ ../Middlewares/CMSIS/DSP/Src/TransformFunctions/arm_cfft_radix8_f32.c:120:15
	vldr	s0, [sp, #120]
	.loc	7 120 20 is_stmt 0              @ ../Middlewares/CMSIS/DSP/Src/TransformFunctions/arm_cfft_radix8_f32.c:120:20
	vldr	s2, [sp, #124]
	.loc	7 120 18                        @ ../Middlewares/CMSIS/DSP/Src/TransformFunctions/arm_cfft_radix8_f32.c:120:18
	vadd.f32	s0, s0, s2
	.loc	7 120 13                        @ ../Middlewares/CMSIS/DSP/Src/TransformFunctions/arm_cfft_radix8_f32.c:120:13
	vstr	s0, [sp, #120]
	.loc	7 121 15 is_stmt 1              @ ../Middlewares/CMSIS/DSP/Src/TransformFunctions/arm_cfft_radix8_f32.c:121:15
	vldr	s0, [sp, #88]
	.loc	7 121 20 is_stmt 0              @ ../Middlewares/CMSIS/DSP/Src/TransformFunctions/arm_cfft_radix8_f32.c:121:20
	vldr	s2, [sp, #140]
	.loc	7 121 18                        @ ../Middlewares/CMSIS/DSP/Src/TransformFunctions/arm_cfft_radix8_f32.c:121:18
	vsub.f32	s0, s0, s2
	.loc	7 121 13                        @ ../Middlewares/CMSIS/DSP/Src/TransformFunctions/arm_cfft_radix8_f32.c:121:13
	vstr	s0, [sp, #108]
	.loc	7 122 15 is_stmt 1              @ ../Middlewares/CMSIS/DSP/Src/TransformFunctions/arm_cfft_radix8_f32.c:122:15
	vldr	s0, [sp, #88]
	.loc	7 122 20 is_stmt 0              @ ../Middlewares/CMSIS/DSP/Src/TransformFunctions/arm_cfft_radix8_f32.c:122:20
	vldr	s2, [sp, #140]
	.loc	7 122 18                        @ ../Middlewares/CMSIS/DSP/Src/TransformFunctions/arm_cfft_radix8_f32.c:122:18
	vadd.f32	s0, s0, s2
	.loc	7 122 13                        @ ../Middlewares/CMSIS/DSP/Src/TransformFunctions/arm_cfft_radix8_f32.c:122:13
	vstr	s0, [sp, #88]
	.loc	7 123 15 is_stmt 1              @ ../Middlewares/CMSIS/DSP/Src/TransformFunctions/arm_cfft_radix8_f32.c:123:15
	vldr	s0, [sp, #80]
	.loc	7 123 20 is_stmt 0              @ ../Middlewares/CMSIS/DSP/Src/TransformFunctions/arm_cfft_radix8_f32.c:123:20
	vldr	s2, [sp, #84]
	.loc	7 123 18                        @ ../Middlewares/CMSIS/DSP/Src/TransformFunctions/arm_cfft_radix8_f32.c:123:18
	vsub.f32	s0, s0, s2
	.loc	7 123 13                        @ ../Middlewares/CMSIS/DSP/Src/TransformFunctions/arm_cfft_radix8_f32.c:123:13
	vstr	s0, [sp, #76]
	.loc	7 124 15 is_stmt 1              @ ../Middlewares/CMSIS/DSP/Src/TransformFunctions/arm_cfft_radix8_f32.c:124:15
	vldr	s0, [sp, #80]
	.loc	7 124 20 is_stmt 0              @ ../Middlewares/CMSIS/DSP/Src/TransformFunctions/arm_cfft_radix8_f32.c:124:20
	vldr	s2, [sp, #84]
	.loc	7 124 18                        @ ../Middlewares/CMSIS/DSP/Src/TransformFunctions/arm_cfft_radix8_f32.c:124:18
	vadd.f32	s0, s0, s2
	.loc	7 124 13                        @ ../Middlewares/CMSIS/DSP/Src/TransformFunctions/arm_cfft_radix8_f32.c:124:13
	vstr	s0, [sp, #80]
	.loc	7 125 25 is_stmt 1              @ ../Middlewares/CMSIS/DSP/Src/TransformFunctions/arm_cfft_radix8_f32.c:125:25
	vldr	s0, [sp, #128]
	.loc	7 125 30 is_stmt 0              @ ../Middlewares/CMSIS/DSP/Src/TransformFunctions/arm_cfft_radix8_f32.c:125:30
	vldr	s2, [sp, #80]
	.loc	7 125 28                        @ ../Middlewares/CMSIS/DSP/Src/TransformFunctions/arm_cfft_radix8_f32.c:125:28
	vadd.f32	s0, s0, s2
	.loc	7 125 10                        @ ../Middlewares/CMSIS/DSP/Src/TransformFunctions/arm_cfft_radix8_f32.c:125:10
	ldr	r0, [sp, #236]
	.loc	7 125 19                        @ ../Middlewares/CMSIS/DSP/Src/TransformFunctions/arm_cfft_radix8_f32.c:125:19
	ldr	r1, [sp, #188]
	.loc	7 125 10                        @ ../Middlewares/CMSIS/DSP/Src/TransformFunctions/arm_cfft_radix8_f32.c:125:10
	add.w	r0, r0, r1, lsl #3
	.loc	7 125 23                        @ ../Middlewares/CMSIS/DSP/Src/TransformFunctions/arm_cfft_radix8_f32.c:125:23
	vstr	s0, [r0]
	.loc	7 126 25 is_stmt 1              @ ../Middlewares/CMSIS/DSP/Src/TransformFunctions/arm_cfft_radix8_f32.c:126:25
	vldr	s0, [sp, #128]
	.loc	7 126 30 is_stmt 0              @ ../Middlewares/CMSIS/DSP/Src/TransformFunctions/arm_cfft_radix8_f32.c:126:30
	vldr	s2, [sp, #80]
	.loc	7 126 28                        @ ../Middlewares/CMSIS/DSP/Src/TransformFunctions/arm_cfft_radix8_f32.c:126:28
	vsub.f32	s0, s0, s2
	.loc	7 126 10                        @ ../Middlewares/CMSIS/DSP/Src/TransformFunctions/arm_cfft_radix8_f32.c:126:10
	ldr	r0, [sp, #236]
	.loc	7 126 19                        @ ../Middlewares/CMSIS/DSP/Src/TransformFunctions/arm_cfft_radix8_f32.c:126:19
	ldr	r1, [sp, #164]
	.loc	7 126 10                        @ ../Middlewares/CMSIS/DSP/Src/TransformFunctions/arm_cfft_radix8_f32.c:126:10
	add.w	r0, r0, r1, lsl #3
	.loc	7 126 23                        @ ../Middlewares/CMSIS/DSP/Src/TransformFunctions/arm_cfft_radix8_f32.c:126:23
	vstr	s0, [r0]
	.loc	7 127 25 is_stmt 1              @ ../Middlewares/CMSIS/DSP/Src/TransformFunctions/arm_cfft_radix8_f32.c:127:25
	vldr	s0, [sp, #112]
	.loc	7 127 30 is_stmt 0              @ ../Middlewares/CMSIS/DSP/Src/TransformFunctions/arm_cfft_radix8_f32.c:127:30
	vldr	s2, [sp, #76]
	.loc	7 127 28                        @ ../Middlewares/CMSIS/DSP/Src/TransformFunctions/arm_cfft_radix8_f32.c:127:28
	vadd.f32	s0, s0, s2
	.loc	7 127 10                        @ ../Middlewares/CMSIS/DSP/Src/TransformFunctions/arm_cfft_radix8_f32.c:127:10
	ldr	r0, [sp, #236]
	.loc	7 127 19                        @ ../Middlewares/CMSIS/DSP/Src/TransformFunctions/arm_cfft_radix8_f32.c:127:19
	ldr	r1, [sp, #172]
	.loc	7 127 10                        @ ../Middlewares/CMSIS/DSP/Src/TransformFunctions/arm_cfft_radix8_f32.c:127:10
	add.w	r0, r0, r1, lsl #3
	.loc	7 127 23                        @ ../Middlewares/CMSIS/DSP/Src/TransformFunctions/arm_cfft_radix8_f32.c:127:23
	vstr	s0, [r0]
	.loc	7 128 25 is_stmt 1              @ ../Middlewares/CMSIS/DSP/Src/TransformFunctions/arm_cfft_radix8_f32.c:128:25
	vldr	s0, [sp, #112]
	.loc	7 128 30 is_stmt 0              @ ../Middlewares/CMSIS/DSP/Src/TransformFunctions/arm_cfft_radix8_f32.c:128:30
	vldr	s2, [sp, #76]
	.loc	7 128 28                        @ ../Middlewares/CMSIS/DSP/Src/TransformFunctions/arm_cfft_radix8_f32.c:128:28
	vsub.f32	s0, s0, s2
	.loc	7 128 10                        @ ../Middlewares/CMSIS/DSP/Src/TransformFunctions/arm_cfft_radix8_f32.c:128:10
	ldr	r0, [sp, #236]
	.loc	7 128 19                        @ ../Middlewares/CMSIS/DSP/Src/TransformFunctions/arm_cfft_radix8_f32.c:128:19
	ldr	r1, [sp, #180]
	.loc	7 128 10                        @ ../Middlewares/CMSIS/DSP/Src/TransformFunctions/arm_cfft_radix8_f32.c:128:10
	add.w	r0, r0, r1, lsl #3
	.loc	7 128 23                        @ ../Middlewares/CMSIS/DSP/Src/TransformFunctions/arm_cfft_radix8_f32.c:128:23
	vstr	s0, [r0]
	.loc	7 129 29 is_stmt 1              @ ../Middlewares/CMSIS/DSP/Src/TransformFunctions/arm_cfft_radix8_f32.c:129:29
	vldr	s0, [sp, #88]
	.loc	7 129 34 is_stmt 0              @ ../Middlewares/CMSIS/DSP/Src/TransformFunctions/arm_cfft_radix8_f32.c:129:34
	vldr	s2, [sp, #120]
	.loc	7 129 32                        @ ../Middlewares/CMSIS/DSP/Src/TransformFunctions/arm_cfft_radix8_f32.c:129:32
	vsub.f32	s0, s0, s2
	.loc	7 129 10                        @ ../Middlewares/CMSIS/DSP/Src/TransformFunctions/arm_cfft_radix8_f32.c:129:10
	ldr	r0, [sp, #236]
	.loc	7 129 19                        @ ../Middlewares/CMSIS/DSP/Src/TransformFunctions/arm_cfft_radix8_f32.c:129:19
	ldr	r1, [sp, #188]
	.loc	7 129 10                        @ ../Middlewares/CMSIS/DSP/Src/TransformFunctions/arm_cfft_radix8_f32.c:129:10
	add.w	r0, r0, r1, lsl #3
	.loc	7 129 27                        @ ../Middlewares/CMSIS/DSP/Src/TransformFunctions/arm_cfft_radix8_f32.c:129:27
	vstr	s0, [r0, #4]
	.loc	7 130 29 is_stmt 1              @ ../Middlewares/CMSIS/DSP/Src/TransformFunctions/arm_cfft_radix8_f32.c:130:29
	vldr	s0, [sp, #88]
	.loc	7 130 34 is_stmt 0              @ ../Middlewares/CMSIS/DSP/Src/TransformFunctions/arm_cfft_radix8_f32.c:130:34
	vldr	s2, [sp, #120]
	.loc	7 130 32                        @ ../Middlewares/CMSIS/DSP/Src/TransformFunctions/arm_cfft_radix8_f32.c:130:32
	vadd.f32	s0, s0, s2
	.loc	7 130 10                        @ ../Middlewares/CMSIS/DSP/Src/TransformFunctions/arm_cfft_radix8_f32.c:130:10
	ldr	r0, [sp, #236]
	.loc	7 130 19                        @ ../Middlewares/CMSIS/DSP/Src/TransformFunctions/arm_cfft_radix8_f32.c:130:19
	ldr	r1, [sp, #164]
	.loc	7 130 10                        @ ../Middlewares/CMSIS/DSP/Src/TransformFunctions/arm_cfft_radix8_f32.c:130:10
	add.w	r0, r0, r1, lsl #3
	.loc	7 130 27                        @ ../Middlewares/CMSIS/DSP/Src/TransformFunctions/arm_cfft_radix8_f32.c:130:27
	vstr	s0, [r0, #4]
	.loc	7 131 29 is_stmt 1              @ ../Middlewares/CMSIS/DSP/Src/TransformFunctions/arm_cfft_radix8_f32.c:131:29
	vldr	s0, [sp, #108]
	.loc	7 131 34 is_stmt 0              @ ../Middlewares/CMSIS/DSP/Src/TransformFunctions/arm_cfft_radix8_f32.c:131:34
	vldr	s2, [sp, #116]
	.loc	7 131 32                        @ ../Middlewares/CMSIS/DSP/Src/TransformFunctions/arm_cfft_radix8_f32.c:131:32
	vsub.f32	s0, s0, s2
	.loc	7 131 10                        @ ../Middlewares/CMSIS/DSP/Src/TransformFunctions/arm_cfft_radix8_f32.c:131:10
	ldr	r0, [sp, #236]
	.loc	7 131 19                        @ ../Middlewares/CMSIS/DSP/Src/TransformFunctions/arm_cfft_radix8_f32.c:131:19
	ldr	r1, [sp, #172]
	.loc	7 131 10                        @ ../Middlewares/CMSIS/DSP/Src/TransformFunctions/arm_cfft_radix8_f32.c:131:10
	add.w	r0, r0, r1, lsl #3
	.loc	7 131 27                        @ ../Middlewares/CMSIS/DSP/Src/TransformFunctions/arm_cfft_radix8_f32.c:131:27
	vstr	s0, [r0, #4]
	.loc	7 132 29 is_stmt 1              @ ../Middlewares/CMSIS/DSP/Src/TransformFunctions/arm_cfft_radix8_f32.c:132:29
	vldr	s0, [sp, #108]
	.loc	7 132 34 is_stmt 0              @ ../Middlewares/CMSIS/DSP/Src/TransformFunctions/arm_cfft_radix8_f32.c:132:34
	vldr	s2, [sp, #116]
	.loc	7 132 32                        @ ../Middlewares/CMSIS/DSP/Src/TransformFunctions/arm_cfft_radix8_f32.c:132:32
	vadd.f32	s0, s0, s2
	.loc	7 132 10                        @ ../Middlewares/CMSIS/DSP/Src/TransformFunctions/arm_cfft_radix8_f32.c:132:10
	ldr	r0, [sp, #236]
	.loc	7 132 19                        @ ../Middlewares/CMSIS/DSP/Src/TransformFunctions/arm_cfft_radix8_f32.c:132:19
	ldr	r1, [sp, #180]
	.loc	7 132 10                        @ ../Middlewares/CMSIS/DSP/Src/TransformFunctions/arm_cfft_radix8_f32.c:132:10
	add.w	r0, r0, r1, lsl #3
	.loc	7 132 27                        @ ../Middlewares/CMSIS/DSP/Src/TransformFunctions/arm_cfft_radix8_f32.c:132:27
	vstr	s0, [r0, #4]
	.loc	7 134 16 is_stmt 1              @ ../Middlewares/CMSIS/DSP/Src/TransformFunctions/arm_cfft_radix8_f32.c:134:16
	ldr	r1, [sp, #156]
	.loc	7 134 13 is_stmt 0              @ ../Middlewares/CMSIS/DSP/Src/TransformFunctions/arm_cfft_radix8_f32.c:134:13
	ldr	r0, [sp, #192]
	add	r0, r1
	str	r0, [sp, #192]
	.loc	7 135 7 is_stmt 1               @ ../Middlewares/CMSIS/DSP/Src/TransformFunctions/arm_cfft_radix8_f32.c:135:7
	b	.LBB7_3
.Ltmp65:
.LBB7_3:                                @   in Loop: Header=BB7_2 Depth=2
	.loc	7 135 16 is_stmt 0              @ ../Middlewares/CMSIS/DSP/Src/TransformFunctions/arm_cfft_radix8_f32.c:135:16
	ldr	r0, [sp, #192]
	.loc	7 135 21                        @ ../Middlewares/CMSIS/DSP/Src/TransformFunctions/arm_cfft_radix8_f32.c:135:21
	ldrh.w	r1, [sp, #234]
.Ltmp66:
	.loc	7 135 7                         @ ../Middlewares/CMSIS/DSP/Src/TransformFunctions/arm_cfft_radix8_f32.c:135:7
	cmp	r0, r1
	blo.w	.LBB7_2
	b	.LBB7_4
.Ltmp67:
.LBB7_4:                                @   in Loop: Header=BB7_1 Depth=1
	.loc	7 137 11 is_stmt 1              @ ../Middlewares/CMSIS/DSP/Src/TransformFunctions/arm_cfft_radix8_f32.c:137:11
	ldr	r0, [sp, #152]
.Ltmp68:
	.loc	7 137 11 is_stmt 0              @ ../Middlewares/CMSIS/DSP/Src/TransformFunctions/arm_cfft_radix8_f32.c:137:11
	cmp	r0, #7
	bhi	.LBB7_7
	b	.LBB7_5
.LBB7_5:
.Ltmp69:
	.loc	7 138 10 is_stmt 1              @ ../Middlewares/CMSIS/DSP/Src/TransformFunctions/arm_cfft_radix8_f32.c:138:10
	b.w	.LBB7_15
.Ltmp70:
	.p2align	2
@ %bb.6:
	.loc	7 0 10 is_stmt 0                @ ../Middlewares/CMSIS/DSP/Src/TransformFunctions/arm_cfft_radix8_f32.c:0:10
.LCPI7_1:
	.long	0x3f3504f3                      @ float 0.707106769
	.p2align	1
.LBB7_7:                                @   in Loop: Header=BB7_1 Depth=1
	movs	r0, #0
	.loc	7 140 11 is_stmt 1              @ ../Middlewares/CMSIS/DSP/Src/TransformFunctions/arm_cfft_radix8_f32.c:140:11
	str	r0, [sp, #220]
	movs	r0, #1
	.loc	7 141 9                         @ ../Middlewares/CMSIS/DSP/Src/TransformFunctions/arm_cfft_radix8_f32.c:141:9
	str	r0, [sp, #148]
	.loc	7 143 7                         @ ../Middlewares/CMSIS/DSP/Src/TransformFunctions/arm_cfft_radix8_f32.c:143:7
	b	.LBB7_8
.LBB7_8:                                @   Parent Loop BB7_1 Depth=1
                                        @ =>  This Loop Header: Depth=2
                                        @       Child Loop BB7_9 Depth 3
.Ltmp71:
	.loc	7 146 15                        @ ../Middlewares/CMSIS/DSP/Src/TransformFunctions/arm_cfft_radix8_f32.c:146:15
	ldr	r0, [sp, #220]
	.loc	7 146 21 is_stmt 0              @ ../Middlewares/CMSIS/DSP/Src/TransformFunctions/arm_cfft_radix8_f32.c:146:21
	ldrh.w	r1, [sp, #226]
	.loc	7 146 19                        @ ../Middlewares/CMSIS/DSP/Src/TransformFunctions/arm_cfft_radix8_f32.c:146:19
	add	r0, r1
	.loc	7 146 13                        @ ../Middlewares/CMSIS/DSP/Src/TransformFunctions/arm_cfft_radix8_f32.c:146:13
	str	r0, [sp, #160]
	.loc	7 147 16 is_stmt 1              @ ../Middlewares/CMSIS/DSP/Src/TransformFunctions/arm_cfft_radix8_f32.c:147:16
	ldr	r0, [sp, #160]
	.loc	7 147 14 is_stmt 0              @ ../Middlewares/CMSIS/DSP/Src/TransformFunctions/arm_cfft_radix8_f32.c:147:14
	str	r0, [sp, #220]
	.loc	7 148 16 is_stmt 1              @ ../Middlewares/CMSIS/DSP/Src/TransformFunctions/arm_cfft_radix8_f32.c:148:16
	ldr	r0, [sp, #220]
	.loc	7 148 22 is_stmt 0              @ ../Middlewares/CMSIS/DSP/Src/TransformFunctions/arm_cfft_radix8_f32.c:148:22
	ldr	r1, [sp, #160]
	.loc	7 148 20                        @ ../Middlewares/CMSIS/DSP/Src/TransformFunctions/arm_cfft_radix8_f32.c:148:20
	add	r0, r1
	.loc	7 148 14                        @ ../Middlewares/CMSIS/DSP/Src/TransformFunctions/arm_cfft_radix8_f32.c:148:14
	str	r0, [sp, #216]
	.loc	7 149 16 is_stmt 1              @ ../Middlewares/CMSIS/DSP/Src/TransformFunctions/arm_cfft_radix8_f32.c:149:16
	ldr	r0, [sp, #216]
	.loc	7 149 22 is_stmt 0              @ ../Middlewares/CMSIS/DSP/Src/TransformFunctions/arm_cfft_radix8_f32.c:149:22
	ldr	r1, [sp, #160]
	.loc	7 149 20                        @ ../Middlewares/CMSIS/DSP/Src/TransformFunctions/arm_cfft_radix8_f32.c:149:20
	add	r0, r1
	.loc	7 149 14                        @ ../Middlewares/CMSIS/DSP/Src/TransformFunctions/arm_cfft_radix8_f32.c:149:14
	str	r0, [sp, #212]
	.loc	7 150 16 is_stmt 1              @ ../Middlewares/CMSIS/DSP/Src/TransformFunctions/arm_cfft_radix8_f32.c:150:16
	ldr	r0, [sp, #212]
	.loc	7 150 22 is_stmt 0              @ ../Middlewares/CMSIS/DSP/Src/TransformFunctions/arm_cfft_radix8_f32.c:150:22
	ldr	r1, [sp, #160]
	.loc	7 150 20                        @ ../Middlewares/CMSIS/DSP/Src/TransformFunctions/arm_cfft_radix8_f32.c:150:20
	add	r0, r1
	.loc	7 150 14                        @ ../Middlewares/CMSIS/DSP/Src/TransformFunctions/arm_cfft_radix8_f32.c:150:14
	str	r0, [sp, #208]
	.loc	7 151 16 is_stmt 1              @ ../Middlewares/CMSIS/DSP/Src/TransformFunctions/arm_cfft_radix8_f32.c:151:16
	ldr	r0, [sp, #208]
	.loc	7 151 22 is_stmt 0              @ ../Middlewares/CMSIS/DSP/Src/TransformFunctions/arm_cfft_radix8_f32.c:151:22
	ldr	r1, [sp, #160]
	.loc	7 151 20                        @ ../Middlewares/CMSIS/DSP/Src/TransformFunctions/arm_cfft_radix8_f32.c:151:20
	add	r0, r1
	.loc	7 151 14                        @ ../Middlewares/CMSIS/DSP/Src/TransformFunctions/arm_cfft_radix8_f32.c:151:14
	str	r0, [sp, #204]
	.loc	7 152 16 is_stmt 1              @ ../Middlewares/CMSIS/DSP/Src/TransformFunctions/arm_cfft_radix8_f32.c:152:16
	ldr	r0, [sp, #204]
	.loc	7 152 22 is_stmt 0              @ ../Middlewares/CMSIS/DSP/Src/TransformFunctions/arm_cfft_radix8_f32.c:152:22
	ldr	r1, [sp, #160]
	.loc	7 152 20                        @ ../Middlewares/CMSIS/DSP/Src/TransformFunctions/arm_cfft_radix8_f32.c:152:20
	add	r0, r1
	.loc	7 152 14                        @ ../Middlewares/CMSIS/DSP/Src/TransformFunctions/arm_cfft_radix8_f32.c:152:14
	str	r0, [sp, #200]
	.loc	7 153 16 is_stmt 1              @ ../Middlewares/CMSIS/DSP/Src/TransformFunctions/arm_cfft_radix8_f32.c:153:16
	ldr	r0, [sp, #200]
	.loc	7 153 22 is_stmt 0              @ ../Middlewares/CMSIS/DSP/Src/TransformFunctions/arm_cfft_radix8_f32.c:153:22
	ldr	r1, [sp, #160]
	.loc	7 153 20                        @ ../Middlewares/CMSIS/DSP/Src/TransformFunctions/arm_cfft_radix8_f32.c:153:20
	add	r0, r1
	.loc	7 153 14                        @ ../Middlewares/CMSIS/DSP/Src/TransformFunctions/arm_cfft_radix8_f32.c:153:14
	str	r0, [sp, #196]
	.loc	7 155 16 is_stmt 1              @ ../Middlewares/CMSIS/DSP/Src/TransformFunctions/arm_cfft_radix8_f32.c:155:16
	ldr	r0, [sp, #228]
	.loc	7 155 26 is_stmt 0              @ ../Middlewares/CMSIS/DSP/Src/TransformFunctions/arm_cfft_radix8_f32.c:155:26
	ldr	r1, [sp, #220]
	.loc	7 155 16                        @ ../Middlewares/CMSIS/DSP/Src/TransformFunctions/arm_cfft_radix8_f32.c:155:16
	ldr.w	r0, [r0, r1, lsl #3]
	.loc	7 155 14                        @ ../Middlewares/CMSIS/DSP/Src/TransformFunctions/arm_cfft_radix8_f32.c:155:14
	str	r0, [sp, #56]
	.loc	7 156 16 is_stmt 1              @ ../Middlewares/CMSIS/DSP/Src/TransformFunctions/arm_cfft_radix8_f32.c:156:16
	ldr	r0, [sp, #228]
	.loc	7 156 26 is_stmt 0              @ ../Middlewares/CMSIS/DSP/Src/TransformFunctions/arm_cfft_radix8_f32.c:156:26
	ldr	r1, [sp, #216]
	.loc	7 156 16                        @ ../Middlewares/CMSIS/DSP/Src/TransformFunctions/arm_cfft_radix8_f32.c:156:16
	ldr.w	r0, [r0, r1, lsl #3]
	.loc	7 156 14                        @ ../Middlewares/CMSIS/DSP/Src/TransformFunctions/arm_cfft_radix8_f32.c:156:14
	str	r0, [sp, #52]
	.loc	7 157 16 is_stmt 1              @ ../Middlewares/CMSIS/DSP/Src/TransformFunctions/arm_cfft_radix8_f32.c:157:16
	ldr	r0, [sp, #228]
	.loc	7 157 26 is_stmt 0              @ ../Middlewares/CMSIS/DSP/Src/TransformFunctions/arm_cfft_radix8_f32.c:157:26
	ldr	r1, [sp, #212]
	.loc	7 157 16                        @ ../Middlewares/CMSIS/DSP/Src/TransformFunctions/arm_cfft_radix8_f32.c:157:16
	ldr.w	r0, [r0, r1, lsl #3]
	.loc	7 157 14                        @ ../Middlewares/CMSIS/DSP/Src/TransformFunctions/arm_cfft_radix8_f32.c:157:14
	str	r0, [sp, #48]
	.loc	7 158 16 is_stmt 1              @ ../Middlewares/CMSIS/DSP/Src/TransformFunctions/arm_cfft_radix8_f32.c:158:16
	ldr	r0, [sp, #228]
	.loc	7 158 26 is_stmt 0              @ ../Middlewares/CMSIS/DSP/Src/TransformFunctions/arm_cfft_radix8_f32.c:158:26
	ldr	r1, [sp, #208]
	.loc	7 158 16                        @ ../Middlewares/CMSIS/DSP/Src/TransformFunctions/arm_cfft_radix8_f32.c:158:16
	ldr.w	r0, [r0, r1, lsl #3]
	.loc	7 158 14                        @ ../Middlewares/CMSIS/DSP/Src/TransformFunctions/arm_cfft_radix8_f32.c:158:14
	str	r0, [sp, #44]
	.loc	7 159 16 is_stmt 1              @ ../Middlewares/CMSIS/DSP/Src/TransformFunctions/arm_cfft_radix8_f32.c:159:16
	ldr	r0, [sp, #228]
	.loc	7 159 26 is_stmt 0              @ ../Middlewares/CMSIS/DSP/Src/TransformFunctions/arm_cfft_radix8_f32.c:159:26
	ldr	r1, [sp, #204]
	.loc	7 159 16                        @ ../Middlewares/CMSIS/DSP/Src/TransformFunctions/arm_cfft_radix8_f32.c:159:16
	ldr.w	r0, [r0, r1, lsl #3]
	.loc	7 159 14                        @ ../Middlewares/CMSIS/DSP/Src/TransformFunctions/arm_cfft_radix8_f32.c:159:14
	str	r0, [sp, #40]
	.loc	7 160 16 is_stmt 1              @ ../Middlewares/CMSIS/DSP/Src/TransformFunctions/arm_cfft_radix8_f32.c:160:16
	ldr	r0, [sp, #228]
	.loc	7 160 26 is_stmt 0              @ ../Middlewares/CMSIS/DSP/Src/TransformFunctions/arm_cfft_radix8_f32.c:160:26
	ldr	r1, [sp, #200]
	.loc	7 160 16                        @ ../Middlewares/CMSIS/DSP/Src/TransformFunctions/arm_cfft_radix8_f32.c:160:16
	ldr.w	r0, [r0, r1, lsl #3]
	.loc	7 160 14                        @ ../Middlewares/CMSIS/DSP/Src/TransformFunctions/arm_cfft_radix8_f32.c:160:14
	str	r0, [sp, #36]
	.loc	7 161 16 is_stmt 1              @ ../Middlewares/CMSIS/DSP/Src/TransformFunctions/arm_cfft_radix8_f32.c:161:16
	ldr	r0, [sp, #228]
	.loc	7 161 26 is_stmt 0              @ ../Middlewares/CMSIS/DSP/Src/TransformFunctions/arm_cfft_radix8_f32.c:161:26
	ldr	r1, [sp, #196]
	.loc	7 161 16                        @ ../Middlewares/CMSIS/DSP/Src/TransformFunctions/arm_cfft_radix8_f32.c:161:16
	ldr.w	r0, [r0, r1, lsl #3]
	.loc	7 161 14                        @ ../Middlewares/CMSIS/DSP/Src/TransformFunctions/arm_cfft_radix8_f32.c:161:14
	str	r0, [sp, #32]
	.loc	7 162 16 is_stmt 1              @ ../Middlewares/CMSIS/DSP/Src/TransformFunctions/arm_cfft_radix8_f32.c:162:16
	ldr	r0, [sp, #228]
	.loc	7 162 26 is_stmt 0              @ ../Middlewares/CMSIS/DSP/Src/TransformFunctions/arm_cfft_radix8_f32.c:162:26
	ldr	r1, [sp, #220]
	.loc	7 162 16                        @ ../Middlewares/CMSIS/DSP/Src/TransformFunctions/arm_cfft_radix8_f32.c:162:16
	add.w	r0, r0, r1, lsl #3
	ldr	r0, [r0, #4]
	.loc	7 162 14                        @ ../Middlewares/CMSIS/DSP/Src/TransformFunctions/arm_cfft_radix8_f32.c:162:14
	str	r0, [sp, #28]
	.loc	7 163 16 is_stmt 1              @ ../Middlewares/CMSIS/DSP/Src/TransformFunctions/arm_cfft_radix8_f32.c:163:16
	ldr	r0, [sp, #228]
	.loc	7 163 26 is_stmt 0              @ ../Middlewares/CMSIS/DSP/Src/TransformFunctions/arm_cfft_radix8_f32.c:163:26
	ldr	r1, [sp, #216]
	.loc	7 163 16                        @ ../Middlewares/CMSIS/DSP/Src/TransformFunctions/arm_cfft_radix8_f32.c:163:16
	add.w	r0, r0, r1, lsl #3
	ldr	r0, [r0, #4]
	.loc	7 163 14                        @ ../Middlewares/CMSIS/DSP/Src/TransformFunctions/arm_cfft_radix8_f32.c:163:14
	str	r0, [sp, #24]
	.loc	7 164 16 is_stmt 1              @ ../Middlewares/CMSIS/DSP/Src/TransformFunctions/arm_cfft_radix8_f32.c:164:16
	ldr	r0, [sp, #228]
	.loc	7 164 26 is_stmt 0              @ ../Middlewares/CMSIS/DSP/Src/TransformFunctions/arm_cfft_radix8_f32.c:164:26
	ldr	r1, [sp, #212]
	.loc	7 164 16                        @ ../Middlewares/CMSIS/DSP/Src/TransformFunctions/arm_cfft_radix8_f32.c:164:16
	add.w	r0, r0, r1, lsl #3
	ldr	r0, [r0, #4]
	.loc	7 164 14                        @ ../Middlewares/CMSIS/DSP/Src/TransformFunctions/arm_cfft_radix8_f32.c:164:14
	str	r0, [sp, #20]
	.loc	7 165 16 is_stmt 1              @ ../Middlewares/CMSIS/DSP/Src/TransformFunctions/arm_cfft_radix8_f32.c:165:16
	ldr	r0, [sp, #228]
	.loc	7 165 26 is_stmt 0              @ ../Middlewares/CMSIS/DSP/Src/TransformFunctions/arm_cfft_radix8_f32.c:165:26
	ldr	r1, [sp, #208]
	.loc	7 165 16                        @ ../Middlewares/CMSIS/DSP/Src/TransformFunctions/arm_cfft_radix8_f32.c:165:16
	add.w	r0, r0, r1, lsl #3
	ldr	r0, [r0, #4]
	.loc	7 165 14                        @ ../Middlewares/CMSIS/DSP/Src/TransformFunctions/arm_cfft_radix8_f32.c:165:14
	str	r0, [sp, #16]
	.loc	7 166 16 is_stmt 1              @ ../Middlewares/CMSIS/DSP/Src/TransformFunctions/arm_cfft_radix8_f32.c:166:16
	ldr	r0, [sp, #228]
	.loc	7 166 26 is_stmt 0              @ ../Middlewares/CMSIS/DSP/Src/TransformFunctions/arm_cfft_radix8_f32.c:166:26
	ldr	r1, [sp, #204]
	.loc	7 166 16                        @ ../Middlewares/CMSIS/DSP/Src/TransformFunctions/arm_cfft_radix8_f32.c:166:16
	add.w	r0, r0, r1, lsl #3
	ldr	r0, [r0, #4]
	.loc	7 166 14                        @ ../Middlewares/CMSIS/DSP/Src/TransformFunctions/arm_cfft_radix8_f32.c:166:14
	str	r0, [sp, #12]
	.loc	7 167 16 is_stmt 1              @ ../Middlewares/CMSIS/DSP/Src/TransformFunctions/arm_cfft_radix8_f32.c:167:16
	ldr	r0, [sp, #228]
	.loc	7 167 26 is_stmt 0              @ ../Middlewares/CMSIS/DSP/Src/TransformFunctions/arm_cfft_radix8_f32.c:167:26
	ldr	r1, [sp, #200]
	.loc	7 167 16                        @ ../Middlewares/CMSIS/DSP/Src/TransformFunctions/arm_cfft_radix8_f32.c:167:16
	add.w	r0, r0, r1, lsl #3
	ldr	r0, [r0, #4]
	.loc	7 167 14                        @ ../Middlewares/CMSIS/DSP/Src/TransformFunctions/arm_cfft_radix8_f32.c:167:14
	str	r0, [sp, #8]
	.loc	7 168 16 is_stmt 1              @ ../Middlewares/CMSIS/DSP/Src/TransformFunctions/arm_cfft_radix8_f32.c:168:16
	ldr	r0, [sp, #228]
	.loc	7 168 26 is_stmt 0              @ ../Middlewares/CMSIS/DSP/Src/TransformFunctions/arm_cfft_radix8_f32.c:168:26
	ldr	r1, [sp, #196]
	.loc	7 168 16                        @ ../Middlewares/CMSIS/DSP/Src/TransformFunctions/arm_cfft_radix8_f32.c:168:16
	add.w	r0, r0, r1, lsl #3
	ldr	r0, [r0, #4]
	.loc	7 168 14                        @ ../Middlewares/CMSIS/DSP/Src/TransformFunctions/arm_cfft_radix8_f32.c:168:14
	str	r0, [sp, #4]
	.loc	7 170 15 is_stmt 1              @ ../Middlewares/CMSIS/DSP/Src/TransformFunctions/arm_cfft_radix8_f32.c:170:15
	ldr	r0, [sp, #148]
	.loc	7 170 13 is_stmt 0              @ ../Middlewares/CMSIS/DSP/Src/TransformFunctions/arm_cfft_radix8_f32.c:170:13
	str	r0, [sp, #192]
	.loc	7 172 10 is_stmt 1              @ ../Middlewares/CMSIS/DSP/Src/TransformFunctions/arm_cfft_radix8_f32.c:172:10
	b	.LBB7_9
.LBB7_9:                                @   Parent Loop BB7_1 Depth=1
                                        @     Parent Loop BB7_8 Depth=2
                                        @ =>    This Inner Loop Header: Depth=3
.Ltmp72:
	.loc	7 175 18                        @ ../Middlewares/CMSIS/DSP/Src/TransformFunctions/arm_cfft_radix8_f32.c:175:18
	ldr	r0, [sp, #192]
	.loc	7 175 23 is_stmt 0              @ ../Middlewares/CMSIS/DSP/Src/TransformFunctions/arm_cfft_radix8_f32.c:175:23
	ldr	r1, [sp, #152]
	.loc	7 175 21                        @ ../Middlewares/CMSIS/DSP/Src/TransformFunctions/arm_cfft_radix8_f32.c:175:21
	add	r0, r1
	.loc	7 175 16                        @ ../Middlewares/CMSIS/DSP/Src/TransformFunctions/arm_cfft_radix8_f32.c:175:16
	str	r0, [sp, #188]
	.loc	7 176 18 is_stmt 1              @ ../Middlewares/CMSIS/DSP/Src/TransformFunctions/arm_cfft_radix8_f32.c:176:18
	ldr	r0, [sp, #188]
	.loc	7 176 23 is_stmt 0              @ ../Middlewares/CMSIS/DSP/Src/TransformFunctions/arm_cfft_radix8_f32.c:176:23
	ldr	r1, [sp, #152]
	.loc	7 176 21                        @ ../Middlewares/CMSIS/DSP/Src/TransformFunctions/arm_cfft_radix8_f32.c:176:21
	add	r0, r1
	.loc	7 176 16                        @ ../Middlewares/CMSIS/DSP/Src/TransformFunctions/arm_cfft_radix8_f32.c:176:16
	str	r0, [sp, #184]
	.loc	7 177 18 is_stmt 1              @ ../Middlewares/CMSIS/DSP/Src/TransformFunctions/arm_cfft_radix8_f32.c:177:18
	ldr	r0, [sp, #184]
	.loc	7 177 23 is_stmt 0              @ ../Middlewares/CMSIS/DSP/Src/TransformFunctions/arm_cfft_radix8_f32.c:177:23
	ldr	r1, [sp, #152]
	.loc	7 177 21                        @ ../Middlewares/CMSIS/DSP/Src/TransformFunctions/arm_cfft_radix8_f32.c:177:21
	add	r0, r1
	.loc	7 177 16                        @ ../Middlewares/CMSIS/DSP/Src/TransformFunctions/arm_cfft_radix8_f32.c:177:16
	str	r0, [sp, #180]
	.loc	7 178 18 is_stmt 1              @ ../Middlewares/CMSIS/DSP/Src/TransformFunctions/arm_cfft_radix8_f32.c:178:18
	ldr	r0, [sp, #180]
	.loc	7 178 23 is_stmt 0              @ ../Middlewares/CMSIS/DSP/Src/TransformFunctions/arm_cfft_radix8_f32.c:178:23
	ldr	r1, [sp, #152]
	.loc	7 178 21                        @ ../Middlewares/CMSIS/DSP/Src/TransformFunctions/arm_cfft_radix8_f32.c:178:21
	add	r0, r1
	.loc	7 178 16                        @ ../Middlewares/CMSIS/DSP/Src/TransformFunctions/arm_cfft_radix8_f32.c:178:16
	str	r0, [sp, #176]
	.loc	7 179 18 is_stmt 1              @ ../Middlewares/CMSIS/DSP/Src/TransformFunctions/arm_cfft_radix8_f32.c:179:18
	ldr	r0, [sp, #176]
	.loc	7 179 23 is_stmt 0              @ ../Middlewares/CMSIS/DSP/Src/TransformFunctions/arm_cfft_radix8_f32.c:179:23
	ldr	r1, [sp, #152]
	.loc	7 179 21                        @ ../Middlewares/CMSIS/DSP/Src/TransformFunctions/arm_cfft_radix8_f32.c:179:21
	add	r0, r1
	.loc	7 179 16                        @ ../Middlewares/CMSIS/DSP/Src/TransformFunctions/arm_cfft_radix8_f32.c:179:16
	str	r0, [sp, #172]
	.loc	7 180 18 is_stmt 1              @ ../Middlewares/CMSIS/DSP/Src/TransformFunctions/arm_cfft_radix8_f32.c:180:18
	ldr	r0, [sp, #172]
	.loc	7 180 23 is_stmt 0              @ ../Middlewares/CMSIS/DSP/Src/TransformFunctions/arm_cfft_radix8_f32.c:180:23
	ldr	r1, [sp, #152]
	.loc	7 180 21                        @ ../Middlewares/CMSIS/DSP/Src/TransformFunctions/arm_cfft_radix8_f32.c:180:21
	add	r0, r1
	.loc	7 180 16                        @ ../Middlewares/CMSIS/DSP/Src/TransformFunctions/arm_cfft_radix8_f32.c:180:16
	str	r0, [sp, #168]
	.loc	7 181 18 is_stmt 1              @ ../Middlewares/CMSIS/DSP/Src/TransformFunctions/arm_cfft_radix8_f32.c:181:18
	ldr	r0, [sp, #168]
	.loc	7 181 23 is_stmt 0              @ ../Middlewares/CMSIS/DSP/Src/TransformFunctions/arm_cfft_radix8_f32.c:181:23
	ldr	r1, [sp, #152]
	.loc	7 181 21                        @ ../Middlewares/CMSIS/DSP/Src/TransformFunctions/arm_cfft_radix8_f32.c:181:21
	add	r0, r1
	.loc	7 181 16                        @ ../Middlewares/CMSIS/DSP/Src/TransformFunctions/arm_cfft_radix8_f32.c:181:16
	str	r0, [sp, #164]
	.loc	7 182 18 is_stmt 1              @ ../Middlewares/CMSIS/DSP/Src/TransformFunctions/arm_cfft_radix8_f32.c:182:18
	ldr	r0, [sp, #236]
	.loc	7 182 27 is_stmt 0              @ ../Middlewares/CMSIS/DSP/Src/TransformFunctions/arm_cfft_radix8_f32.c:182:27
	ldr	r1, [sp, #192]
	.loc	7 182 18                        @ ../Middlewares/CMSIS/DSP/Src/TransformFunctions/arm_cfft_radix8_f32.c:182:18
	add.w	r1, r0, r1, lsl #3
	vldr	s0, [r1]
	.loc	7 182 42                        @ ../Middlewares/CMSIS/DSP/Src/TransformFunctions/arm_cfft_radix8_f32.c:182:42
	ldr	r1, [sp, #176]
	.loc	7 182 33                        @ ../Middlewares/CMSIS/DSP/Src/TransformFunctions/arm_cfft_radix8_f32.c:182:33
	add.w	r0, r0, r1, lsl #3
	vldr	s2, [r0]
	.loc	7 182 31                        @ ../Middlewares/CMSIS/DSP/Src/TransformFunctions/arm_cfft_radix8_f32.c:182:31
	vadd.f32	s0, s0, s2
	.loc	7 182 16                        @ ../Middlewares/CMSIS/DSP/Src/TransformFunctions/arm_cfft_radix8_f32.c:182:16
	vstr	s0, [sp, #144]
	.loc	7 183 18 is_stmt 1              @ ../Middlewares/CMSIS/DSP/Src/TransformFunctions/arm_cfft_radix8_f32.c:183:18
	ldr	r0, [sp, #236]
	.loc	7 183 27 is_stmt 0              @ ../Middlewares/CMSIS/DSP/Src/TransformFunctions/arm_cfft_radix8_f32.c:183:27
	ldr	r1, [sp, #192]
	.loc	7 183 18                        @ ../Middlewares/CMSIS/DSP/Src/TransformFunctions/arm_cfft_radix8_f32.c:183:18
	add.w	r1, r0, r1, lsl #3
	vldr	s0, [r1]
	.loc	7 183 42                        @ ../Middlewares/CMSIS/DSP/Src/TransformFunctions/arm_cfft_radix8_f32.c:183:42
	ldr	r1, [sp, #176]
	.loc	7 183 33                        @ ../Middlewares/CMSIS/DSP/Src/TransformFunctions/arm_cfft_radix8_f32.c:183:33
	add.w	r0, r0, r1, lsl #3
	vldr	s2, [r0]
	.loc	7 183 31                        @ ../Middlewares/CMSIS/DSP/Src/TransformFunctions/arm_cfft_radix8_f32.c:183:31
	vsub.f32	s0, s0, s2
	.loc	7 183 16                        @ ../Middlewares/CMSIS/DSP/Src/TransformFunctions/arm_cfft_radix8_f32.c:183:16
	vstr	s0, [sp, #128]
	.loc	7 184 18 is_stmt 1              @ ../Middlewares/CMSIS/DSP/Src/TransformFunctions/arm_cfft_radix8_f32.c:184:18
	ldr	r0, [sp, #236]
	.loc	7 184 27 is_stmt 0              @ ../Middlewares/CMSIS/DSP/Src/TransformFunctions/arm_cfft_radix8_f32.c:184:27
	ldr	r1, [sp, #188]
	.loc	7 184 18                        @ ../Middlewares/CMSIS/DSP/Src/TransformFunctions/arm_cfft_radix8_f32.c:184:18
	add.w	r1, r0, r1, lsl #3
	vldr	s0, [r1]
	.loc	7 184 42                        @ ../Middlewares/CMSIS/DSP/Src/TransformFunctions/arm_cfft_radix8_f32.c:184:42
	ldr	r1, [sp, #172]
	.loc	7 184 33                        @ ../Middlewares/CMSIS/DSP/Src/TransformFunctions/arm_cfft_radix8_f32.c:184:33
	add.w	r0, r0, r1, lsl #3
	vldr	s2, [r0]
	.loc	7 184 31                        @ ../Middlewares/CMSIS/DSP/Src/TransformFunctions/arm_cfft_radix8_f32.c:184:31
	vadd.f32	s0, s0, s2
	.loc	7 184 16                        @ ../Middlewares/CMSIS/DSP/Src/TransformFunctions/arm_cfft_radix8_f32.c:184:16
	vstr	s0, [sp, #140]
	.loc	7 185 18 is_stmt 1              @ ../Middlewares/CMSIS/DSP/Src/TransformFunctions/arm_cfft_radix8_f32.c:185:18
	ldr	r0, [sp, #236]
	.loc	7 185 27 is_stmt 0              @ ../Middlewares/CMSIS/DSP/Src/TransformFunctions/arm_cfft_radix8_f32.c:185:27
	ldr	r1, [sp, #188]
	.loc	7 185 18                        @ ../Middlewares/CMSIS/DSP/Src/TransformFunctions/arm_cfft_radix8_f32.c:185:18
	add.w	r1, r0, r1, lsl #3
	vldr	s0, [r1]
	.loc	7 185 42                        @ ../Middlewares/CMSIS/DSP/Src/TransformFunctions/arm_cfft_radix8_f32.c:185:42
	ldr	r1, [sp, #172]
	.loc	7 185 33                        @ ../Middlewares/CMSIS/DSP/Src/TransformFunctions/arm_cfft_radix8_f32.c:185:33
	add.w	r0, r0, r1, lsl #3
	vldr	s2, [r0]
	.loc	7 185 31                        @ ../Middlewares/CMSIS/DSP/Src/TransformFunctions/arm_cfft_radix8_f32.c:185:31
	vsub.f32	s0, s0, s2
	.loc	7 185 16                        @ ../Middlewares/CMSIS/DSP/Src/TransformFunctions/arm_cfft_radix8_f32.c:185:16
	vstr	s0, [sp, #124]
	.loc	7 186 18 is_stmt 1              @ ../Middlewares/CMSIS/DSP/Src/TransformFunctions/arm_cfft_radix8_f32.c:186:18
	ldr	r0, [sp, #236]
	.loc	7 186 27 is_stmt 0              @ ../Middlewares/CMSIS/DSP/Src/TransformFunctions/arm_cfft_radix8_f32.c:186:27
	ldr	r1, [sp, #184]
	.loc	7 186 18                        @ ../Middlewares/CMSIS/DSP/Src/TransformFunctions/arm_cfft_radix8_f32.c:186:18
	add.w	r1, r0, r1, lsl #3
	vldr	s0, [r1]
	.loc	7 186 42                        @ ../Middlewares/CMSIS/DSP/Src/TransformFunctions/arm_cfft_radix8_f32.c:186:42
	ldr	r1, [sp, #168]
	.loc	7 186 33                        @ ../Middlewares/CMSIS/DSP/Src/TransformFunctions/arm_cfft_radix8_f32.c:186:33
	add.w	r0, r0, r1, lsl #3
	vldr	s2, [r0]
	.loc	7 186 31                        @ ../Middlewares/CMSIS/DSP/Src/TransformFunctions/arm_cfft_radix8_f32.c:186:31
	vadd.f32	s0, s0, s2
	.loc	7 186 16                        @ ../Middlewares/CMSIS/DSP/Src/TransformFunctions/arm_cfft_radix8_f32.c:186:16
	vstr	s0, [sp, #136]
	.loc	7 187 18 is_stmt 1              @ ../Middlewares/CMSIS/DSP/Src/TransformFunctions/arm_cfft_radix8_f32.c:187:18
	ldr	r0, [sp, #236]
	.loc	7 187 27 is_stmt 0              @ ../Middlewares/CMSIS/DSP/Src/TransformFunctions/arm_cfft_radix8_f32.c:187:27
	ldr	r1, [sp, #184]
	.loc	7 187 18                        @ ../Middlewares/CMSIS/DSP/Src/TransformFunctions/arm_cfft_radix8_f32.c:187:18
	add.w	r1, r0, r1, lsl #3
	vldr	s0, [r1]
	.loc	7 187 42                        @ ../Middlewares/CMSIS/DSP/Src/TransformFunctions/arm_cfft_radix8_f32.c:187:42
	ldr	r1, [sp, #168]
	.loc	7 187 33                        @ ../Middlewares/CMSIS/DSP/Src/TransformFunctions/arm_cfft_radix8_f32.c:187:33
	add.w	r0, r0, r1, lsl #3
	vldr	s2, [r0]
	.loc	7 187 31                        @ ../Middlewares/CMSIS/DSP/Src/TransformFunctions/arm_cfft_radix8_f32.c:187:31
	vsub.f32	s0, s0, s2
	.loc	7 187 16                        @ ../Middlewares/CMSIS/DSP/Src/TransformFunctions/arm_cfft_radix8_f32.c:187:16
	vstr	s0, [sp, #120]
	.loc	7 188 18 is_stmt 1              @ ../Middlewares/CMSIS/DSP/Src/TransformFunctions/arm_cfft_radix8_f32.c:188:18
	ldr	r0, [sp, #236]
	.loc	7 188 27 is_stmt 0              @ ../Middlewares/CMSIS/DSP/Src/TransformFunctions/arm_cfft_radix8_f32.c:188:27
	ldr	r1, [sp, #180]
	.loc	7 188 18                        @ ../Middlewares/CMSIS/DSP/Src/TransformFunctions/arm_cfft_radix8_f32.c:188:18
	add.w	r1, r0, r1, lsl #3
	vldr	s0, [r1]
	.loc	7 188 42                        @ ../Middlewares/CMSIS/DSP/Src/TransformFunctions/arm_cfft_radix8_f32.c:188:42
	ldr	r1, [sp, #164]
	.loc	7 188 33                        @ ../Middlewares/CMSIS/DSP/Src/TransformFunctions/arm_cfft_radix8_f32.c:188:33
	add.w	r0, r0, r1, lsl #3
	vldr	s2, [r0]
	.loc	7 188 31                        @ ../Middlewares/CMSIS/DSP/Src/TransformFunctions/arm_cfft_radix8_f32.c:188:31
	vadd.f32	s0, s0, s2
	.loc	7 188 16                        @ ../Middlewares/CMSIS/DSP/Src/TransformFunctions/arm_cfft_radix8_f32.c:188:16
	vstr	s0, [sp, #132]
	.loc	7 189 18 is_stmt 1              @ ../Middlewares/CMSIS/DSP/Src/TransformFunctions/arm_cfft_radix8_f32.c:189:18
	ldr	r0, [sp, #236]
	.loc	7 189 27 is_stmt 0              @ ../Middlewares/CMSIS/DSP/Src/TransformFunctions/arm_cfft_radix8_f32.c:189:27
	ldr	r1, [sp, #180]
	.loc	7 189 18                        @ ../Middlewares/CMSIS/DSP/Src/TransformFunctions/arm_cfft_radix8_f32.c:189:18
	add.w	r1, r0, r1, lsl #3
	vldr	s0, [r1]
	.loc	7 189 42                        @ ../Middlewares/CMSIS/DSP/Src/TransformFunctions/arm_cfft_radix8_f32.c:189:42
	ldr	r1, [sp, #164]
	.loc	7 189 33                        @ ../Middlewares/CMSIS/DSP/Src/TransformFunctions/arm_cfft_radix8_f32.c:189:33
	add.w	r0, r0, r1, lsl #3
	vldr	s2, [r0]
	.loc	7 189 31                        @ ../Middlewares/CMSIS/DSP/Src/TransformFunctions/arm_cfft_radix8_f32.c:189:31
	vsub.f32	s0, s0, s2
	.loc	7 189 16                        @ ../Middlewares/CMSIS/DSP/Src/TransformFunctions/arm_cfft_radix8_f32.c:189:16
	vstr	s0, [sp, #116]
	.loc	7 190 18 is_stmt 1              @ ../Middlewares/CMSIS/DSP/Src/TransformFunctions/arm_cfft_radix8_f32.c:190:18
	vldr	s0, [sp, #144]
	.loc	7 190 23 is_stmt 0              @ ../Middlewares/CMSIS/DSP/Src/TransformFunctions/arm_cfft_radix8_f32.c:190:23
	vldr	s2, [sp, #136]
	.loc	7 190 21                        @ ../Middlewares/CMSIS/DSP/Src/TransformFunctions/arm_cfft_radix8_f32.c:190:21
	vsub.f32	s0, s0, s2
	.loc	7 190 16                        @ ../Middlewares/CMSIS/DSP/Src/TransformFunctions/arm_cfft_radix8_f32.c:190:16
	vstr	s0, [sp, #112]
	.loc	7 191 18 is_stmt 1              @ ../Middlewares/CMSIS/DSP/Src/TransformFunctions/arm_cfft_radix8_f32.c:191:18
	vldr	s0, [sp, #144]
	.loc	7 191 23 is_stmt 0              @ ../Middlewares/CMSIS/DSP/Src/TransformFunctions/arm_cfft_radix8_f32.c:191:23
	vldr	s2, [sp, #136]
	.loc	7 191 21                        @ ../Middlewares/CMSIS/DSP/Src/TransformFunctions/arm_cfft_radix8_f32.c:191:21
	vadd.f32	s0, s0, s2
	.loc	7 191 16                        @ ../Middlewares/CMSIS/DSP/Src/TransformFunctions/arm_cfft_radix8_f32.c:191:16
	vstr	s0, [sp, #144]
	.loc	7 192 18 is_stmt 1              @ ../Middlewares/CMSIS/DSP/Src/TransformFunctions/arm_cfft_radix8_f32.c:192:18
	vldr	s0, [sp, #140]
	.loc	7 192 23 is_stmt 0              @ ../Middlewares/CMSIS/DSP/Src/TransformFunctions/arm_cfft_radix8_f32.c:192:23
	vldr	s2, [sp, #132]
	.loc	7 192 21                        @ ../Middlewares/CMSIS/DSP/Src/TransformFunctions/arm_cfft_radix8_f32.c:192:21
	vsub.f32	s0, s0, s2
	.loc	7 192 16                        @ ../Middlewares/CMSIS/DSP/Src/TransformFunctions/arm_cfft_radix8_f32.c:192:16
	vstr	s0, [sp, #136]
	.loc	7 193 18 is_stmt 1              @ ../Middlewares/CMSIS/DSP/Src/TransformFunctions/arm_cfft_radix8_f32.c:193:18
	vldr	s0, [sp, #140]
	.loc	7 193 23 is_stmt 0              @ ../Middlewares/CMSIS/DSP/Src/TransformFunctions/arm_cfft_radix8_f32.c:193:23
	vldr	s2, [sp, #132]
	.loc	7 193 21                        @ ../Middlewares/CMSIS/DSP/Src/TransformFunctions/arm_cfft_radix8_f32.c:193:21
	vadd.f32	s0, s0, s2
	.loc	7 193 16                        @ ../Middlewares/CMSIS/DSP/Src/TransformFunctions/arm_cfft_radix8_f32.c:193:16
	vstr	s0, [sp, #140]
	.loc	7 194 28 is_stmt 1              @ ../Middlewares/CMSIS/DSP/Src/TransformFunctions/arm_cfft_radix8_f32.c:194:28
	vldr	s0, [sp, #144]
	.loc	7 194 33 is_stmt 0              @ ../Middlewares/CMSIS/DSP/Src/TransformFunctions/arm_cfft_radix8_f32.c:194:33
	vldr	s2, [sp, #140]
	.loc	7 194 31                        @ ../Middlewares/CMSIS/DSP/Src/TransformFunctions/arm_cfft_radix8_f32.c:194:31
	vadd.f32	s0, s0, s2
	.loc	7 194 13                        @ ../Middlewares/CMSIS/DSP/Src/TransformFunctions/arm_cfft_radix8_f32.c:194:13
	ldr	r0, [sp, #236]
	.loc	7 194 22                        @ ../Middlewares/CMSIS/DSP/Src/TransformFunctions/arm_cfft_radix8_f32.c:194:22
	ldr	r1, [sp, #192]
	.loc	7 194 13                        @ ../Middlewares/CMSIS/DSP/Src/TransformFunctions/arm_cfft_radix8_f32.c:194:13
	add.w	r0, r0, r1, lsl #3
	.loc	7 194 26                        @ ../Middlewares/CMSIS/DSP/Src/TransformFunctions/arm_cfft_radix8_f32.c:194:26
	vstr	s0, [r0]
	.loc	7 195 18 is_stmt 1              @ ../Middlewares/CMSIS/DSP/Src/TransformFunctions/arm_cfft_radix8_f32.c:195:18
	vldr	s0, [sp, #144]
	.loc	7 195 23 is_stmt 0              @ ../Middlewares/CMSIS/DSP/Src/TransformFunctions/arm_cfft_radix8_f32.c:195:23
	vldr	s2, [sp, #140]
	.loc	7 195 21                        @ ../Middlewares/CMSIS/DSP/Src/TransformFunctions/arm_cfft_radix8_f32.c:195:21
	vsub.f32	s0, s0, s2
	.loc	7 195 16                        @ ../Middlewares/CMSIS/DSP/Src/TransformFunctions/arm_cfft_radix8_f32.c:195:16
	vstr	s0, [sp, #140]
	.loc	7 196 18 is_stmt 1              @ ../Middlewares/CMSIS/DSP/Src/TransformFunctions/arm_cfft_radix8_f32.c:196:18
	ldr	r0, [sp, #236]
	.loc	7 196 27 is_stmt 0              @ ../Middlewares/CMSIS/DSP/Src/TransformFunctions/arm_cfft_radix8_f32.c:196:27
	ldr	r1, [sp, #192]
	.loc	7 196 18                        @ ../Middlewares/CMSIS/DSP/Src/TransformFunctions/arm_cfft_radix8_f32.c:196:18
	add.w	r1, r0, r1, lsl #3
	vldr	s0, [r1, #4]
	.loc	7 196 46                        @ ../Middlewares/CMSIS/DSP/Src/TransformFunctions/arm_cfft_radix8_f32.c:196:46
	ldr	r1, [sp, #176]
	.loc	7 196 37                        @ ../Middlewares/CMSIS/DSP/Src/TransformFunctions/arm_cfft_radix8_f32.c:196:37
	add.w	r0, r0, r1, lsl #3
	vldr	s2, [r0, #4]
	.loc	7 196 35                        @ ../Middlewares/CMSIS/DSP/Src/TransformFunctions/arm_cfft_radix8_f32.c:196:35
	vadd.f32	s0, s0, s2
	.loc	7 196 16                        @ ../Middlewares/CMSIS/DSP/Src/TransformFunctions/arm_cfft_radix8_f32.c:196:16
	vstr	s0, [sp, #104]
	.loc	7 197 18 is_stmt 1              @ ../Middlewares/CMSIS/DSP/Src/TransformFunctions/arm_cfft_radix8_f32.c:197:18
	ldr	r0, [sp, #236]
	.loc	7 197 27 is_stmt 0              @ ../Middlewares/CMSIS/DSP/Src/TransformFunctions/arm_cfft_radix8_f32.c:197:27
	ldr	r1, [sp, #192]
	.loc	7 197 18                        @ ../Middlewares/CMSIS/DSP/Src/TransformFunctions/arm_cfft_radix8_f32.c:197:18
	add.w	r1, r0, r1, lsl #3
	vldr	s0, [r1, #4]
	.loc	7 197 46                        @ ../Middlewares/CMSIS/DSP/Src/TransformFunctions/arm_cfft_radix8_f32.c:197:46
	ldr	r1, [sp, #176]
	.loc	7 197 37                        @ ../Middlewares/CMSIS/DSP/Src/TransformFunctions/arm_cfft_radix8_f32.c:197:37
	add.w	r0, r0, r1, lsl #3
	vldr	s2, [r0, #4]
	.loc	7 197 35                        @ ../Middlewares/CMSIS/DSP/Src/TransformFunctions/arm_cfft_radix8_f32.c:197:35
	vsub.f32	s0, s0, s2
	.loc	7 197 16                        @ ../Middlewares/CMSIS/DSP/Src/TransformFunctions/arm_cfft_radix8_f32.c:197:16
	vstr	s0, [sp, #88]
	.loc	7 198 18 is_stmt 1              @ ../Middlewares/CMSIS/DSP/Src/TransformFunctions/arm_cfft_radix8_f32.c:198:18
	ldr	r0, [sp, #236]
	.loc	7 198 27 is_stmt 0              @ ../Middlewares/CMSIS/DSP/Src/TransformFunctions/arm_cfft_radix8_f32.c:198:27
	ldr	r1, [sp, #188]
	.loc	7 198 18                        @ ../Middlewares/CMSIS/DSP/Src/TransformFunctions/arm_cfft_radix8_f32.c:198:18
	add.w	r1, r0, r1, lsl #3
	vldr	s0, [r1, #4]
	.loc	7 198 46                        @ ../Middlewares/CMSIS/DSP/Src/TransformFunctions/arm_cfft_radix8_f32.c:198:46
	ldr	r1, [sp, #172]
	.loc	7 198 37                        @ ../Middlewares/CMSIS/DSP/Src/TransformFunctions/arm_cfft_radix8_f32.c:198:37
	add.w	r0, r0, r1, lsl #3
	vldr	s2, [r0, #4]
	.loc	7 198 35                        @ ../Middlewares/CMSIS/DSP/Src/TransformFunctions/arm_cfft_radix8_f32.c:198:35
	vadd.f32	s0, s0, s2
	.loc	7 198 16                        @ ../Middlewares/CMSIS/DSP/Src/TransformFunctions/arm_cfft_radix8_f32.c:198:16
	vstr	s0, [sp, #100]
	.loc	7 199 18 is_stmt 1              @ ../Middlewares/CMSIS/DSP/Src/TransformFunctions/arm_cfft_radix8_f32.c:199:18
	ldr	r0, [sp, #236]
	.loc	7 199 27 is_stmt 0              @ ../Middlewares/CMSIS/DSP/Src/TransformFunctions/arm_cfft_radix8_f32.c:199:27
	ldr	r1, [sp, #188]
	.loc	7 199 18                        @ ../Middlewares/CMSIS/DSP/Src/TransformFunctions/arm_cfft_radix8_f32.c:199:18
	add.w	r1, r0, r1, lsl #3
	vldr	s0, [r1, #4]
	.loc	7 199 46                        @ ../Middlewares/CMSIS/DSP/Src/TransformFunctions/arm_cfft_radix8_f32.c:199:46
	ldr	r1, [sp, #172]
	.loc	7 199 37                        @ ../Middlewares/CMSIS/DSP/Src/TransformFunctions/arm_cfft_radix8_f32.c:199:37
	add.w	r0, r0, r1, lsl #3
	vldr	s2, [r0, #4]
	.loc	7 199 35                        @ ../Middlewares/CMSIS/DSP/Src/TransformFunctions/arm_cfft_radix8_f32.c:199:35
	vsub.f32	s0, s0, s2
	.loc	7 199 16                        @ ../Middlewares/CMSIS/DSP/Src/TransformFunctions/arm_cfft_radix8_f32.c:199:16
	vstr	s0, [sp, #84]
	.loc	7 200 18 is_stmt 1              @ ../Middlewares/CMSIS/DSP/Src/TransformFunctions/arm_cfft_radix8_f32.c:200:18
	ldr	r0, [sp, #236]
	.loc	7 200 27 is_stmt 0              @ ../Middlewares/CMSIS/DSP/Src/TransformFunctions/arm_cfft_radix8_f32.c:200:27
	ldr	r1, [sp, #184]
	.loc	7 200 18                        @ ../Middlewares/CMSIS/DSP/Src/TransformFunctions/arm_cfft_radix8_f32.c:200:18
	add.w	r1, r0, r1, lsl #3
	vldr	s0, [r1, #4]
	.loc	7 200 46                        @ ../Middlewares/CMSIS/DSP/Src/TransformFunctions/arm_cfft_radix8_f32.c:200:46
	ldr	r1, [sp, #168]
	.loc	7 200 37                        @ ../Middlewares/CMSIS/DSP/Src/TransformFunctions/arm_cfft_radix8_f32.c:200:37
	add.w	r0, r0, r1, lsl #3
	vldr	s2, [r0, #4]
	.loc	7 200 35                        @ ../Middlewares/CMSIS/DSP/Src/TransformFunctions/arm_cfft_radix8_f32.c:200:35
	vadd.f32	s0, s0, s2
	.loc	7 200 16                        @ ../Middlewares/CMSIS/DSP/Src/TransformFunctions/arm_cfft_radix8_f32.c:200:16
	vstr	s0, [sp, #96]
	.loc	7 201 18 is_stmt 1              @ ../Middlewares/CMSIS/DSP/Src/TransformFunctions/arm_cfft_radix8_f32.c:201:18
	ldr	r0, [sp, #236]
	.loc	7 201 27 is_stmt 0              @ ../Middlewares/CMSIS/DSP/Src/TransformFunctions/arm_cfft_radix8_f32.c:201:27
	ldr	r1, [sp, #184]
	.loc	7 201 18                        @ ../Middlewares/CMSIS/DSP/Src/TransformFunctions/arm_cfft_radix8_f32.c:201:18
	add.w	r1, r0, r1, lsl #3
	vldr	s0, [r1, #4]
	.loc	7 201 46                        @ ../Middlewares/CMSIS/DSP/Src/TransformFunctions/arm_cfft_radix8_f32.c:201:46
	ldr	r1, [sp, #168]
	.loc	7 201 37                        @ ../Middlewares/CMSIS/DSP/Src/TransformFunctions/arm_cfft_radix8_f32.c:201:37
	add.w	r0, r0, r1, lsl #3
	vldr	s2, [r0, #4]
	.loc	7 201 35                        @ ../Middlewares/CMSIS/DSP/Src/TransformFunctions/arm_cfft_radix8_f32.c:201:35
	vsub.f32	s0, s0, s2
	.loc	7 201 16                        @ ../Middlewares/CMSIS/DSP/Src/TransformFunctions/arm_cfft_radix8_f32.c:201:16
	vstr	s0, [sp, #80]
	.loc	7 202 18 is_stmt 1              @ ../Middlewares/CMSIS/DSP/Src/TransformFunctions/arm_cfft_radix8_f32.c:202:18
	ldr	r0, [sp, #236]
	.loc	7 202 27 is_stmt 0              @ ../Middlewares/CMSIS/DSP/Src/TransformFunctions/arm_cfft_radix8_f32.c:202:27
	ldr	r1, [sp, #180]
	.loc	7 202 18                        @ ../Middlewares/CMSIS/DSP/Src/TransformFunctions/arm_cfft_radix8_f32.c:202:18
	add.w	r1, r0, r1, lsl #3
	vldr	s0, [r1, #4]
	.loc	7 202 46                        @ ../Middlewares/CMSIS/DSP/Src/TransformFunctions/arm_cfft_radix8_f32.c:202:46
	ldr	r1, [sp, #164]
	.loc	7 202 37                        @ ../Middlewares/CMSIS/DSP/Src/TransformFunctions/arm_cfft_radix8_f32.c:202:37
	add.w	r0, r0, r1, lsl #3
	vldr	s2, [r0, #4]
	.loc	7 202 35                        @ ../Middlewares/CMSIS/DSP/Src/TransformFunctions/arm_cfft_radix8_f32.c:202:35
	vadd.f32	s0, s0, s2
	.loc	7 202 16                        @ ../Middlewares/CMSIS/DSP/Src/TransformFunctions/arm_cfft_radix8_f32.c:202:16
	vstr	s0, [sp, #92]
	.loc	7 203 18 is_stmt 1              @ ../Middlewares/CMSIS/DSP/Src/TransformFunctions/arm_cfft_radix8_f32.c:203:18
	ldr	r0, [sp, #236]
	.loc	7 203 27 is_stmt 0              @ ../Middlewares/CMSIS/DSP/Src/TransformFunctions/arm_cfft_radix8_f32.c:203:27
	ldr	r1, [sp, #180]
	.loc	7 203 18                        @ ../Middlewares/CMSIS/DSP/Src/TransformFunctions/arm_cfft_radix8_f32.c:203:18
	add.w	r1, r0, r1, lsl #3
	vldr	s0, [r1, #4]
	.loc	7 203 46                        @ ../Middlewares/CMSIS/DSP/Src/TransformFunctions/arm_cfft_radix8_f32.c:203:46
	ldr	r1, [sp, #164]
	.loc	7 203 37                        @ ../Middlewares/CMSIS/DSP/Src/TransformFunctions/arm_cfft_radix8_f32.c:203:37
	add.w	r0, r0, r1, lsl #3
	vldr	s2, [r0, #4]
	.loc	7 203 35                        @ ../Middlewares/CMSIS/DSP/Src/TransformFunctions/arm_cfft_radix8_f32.c:203:35
	vsub.f32	s0, s0, s2
	.loc	7 203 16                        @ ../Middlewares/CMSIS/DSP/Src/TransformFunctions/arm_cfft_radix8_f32.c:203:16
	vstr	s0, [sp, #76]
	.loc	7 204 18 is_stmt 1              @ ../Middlewares/CMSIS/DSP/Src/TransformFunctions/arm_cfft_radix8_f32.c:204:18
	vldr	s0, [sp, #104]
	.loc	7 204 23 is_stmt 0              @ ../Middlewares/CMSIS/DSP/Src/TransformFunctions/arm_cfft_radix8_f32.c:204:23
	vldr	s2, [sp, #96]
	.loc	7 204 21                        @ ../Middlewares/CMSIS/DSP/Src/TransformFunctions/arm_cfft_radix8_f32.c:204:21
	vsub.f32	s0, s0, s2
	.loc	7 204 16                        @ ../Middlewares/CMSIS/DSP/Src/TransformFunctions/arm_cfft_radix8_f32.c:204:16
	vstr	s0, [sp, #108]
	.loc	7 205 18 is_stmt 1              @ ../Middlewares/CMSIS/DSP/Src/TransformFunctions/arm_cfft_radix8_f32.c:205:18
	vldr	s0, [sp, #104]
	.loc	7 205 23 is_stmt 0              @ ../Middlewares/CMSIS/DSP/Src/TransformFunctions/arm_cfft_radix8_f32.c:205:23
	vldr	s2, [sp, #96]
	.loc	7 205 21                        @ ../Middlewares/CMSIS/DSP/Src/TransformFunctions/arm_cfft_radix8_f32.c:205:21
	vadd.f32	s0, s0, s2
	.loc	7 205 16                        @ ../Middlewares/CMSIS/DSP/Src/TransformFunctions/arm_cfft_radix8_f32.c:205:16
	vstr	s0, [sp, #104]
	.loc	7 206 18 is_stmt 1              @ ../Middlewares/CMSIS/DSP/Src/TransformFunctions/arm_cfft_radix8_f32.c:206:18
	vldr	s0, [sp, #100]
	.loc	7 206 23 is_stmt 0              @ ../Middlewares/CMSIS/DSP/Src/TransformFunctions/arm_cfft_radix8_f32.c:206:23
	vldr	s2, [sp, #92]
	.loc	7 206 21                        @ ../Middlewares/CMSIS/DSP/Src/TransformFunctions/arm_cfft_radix8_f32.c:206:21
	vsub.f32	s0, s0, s2
	.loc	7 206 16                        @ ../Middlewares/CMSIS/DSP/Src/TransformFunctions/arm_cfft_radix8_f32.c:206:16
	vstr	s0, [sp, #96]
	.loc	7 207 18 is_stmt 1              @ ../Middlewares/CMSIS/DSP/Src/TransformFunctions/arm_cfft_radix8_f32.c:207:18
	vldr	s0, [sp, #100]
	.loc	7 207 23 is_stmt 0              @ ../Middlewares/CMSIS/DSP/Src/TransformFunctions/arm_cfft_radix8_f32.c:207:23
	vldr	s2, [sp, #92]
	.loc	7 207 21                        @ ../Middlewares/CMSIS/DSP/Src/TransformFunctions/arm_cfft_radix8_f32.c:207:21
	vadd.f32	s0, s0, s2
	.loc	7 207 16                        @ ../Middlewares/CMSIS/DSP/Src/TransformFunctions/arm_cfft_radix8_f32.c:207:16
	vstr	s0, [sp, #100]
	.loc	7 208 18 is_stmt 1              @ ../Middlewares/CMSIS/DSP/Src/TransformFunctions/arm_cfft_radix8_f32.c:208:18
	vldr	s0, [sp, #112]
	.loc	7 208 23 is_stmt 0              @ ../Middlewares/CMSIS/DSP/Src/TransformFunctions/arm_cfft_radix8_f32.c:208:23
	vldr	s2, [sp, #96]
	.loc	7 208 21                        @ ../Middlewares/CMSIS/DSP/Src/TransformFunctions/arm_cfft_radix8_f32.c:208:21
	vadd.f32	s0, s0, s2
	.loc	7 208 16                        @ ../Middlewares/CMSIS/DSP/Src/TransformFunctions/arm_cfft_radix8_f32.c:208:16
	vstr	s0, [sp, #144]
	.loc	7 209 18 is_stmt 1              @ ../Middlewares/CMSIS/DSP/Src/TransformFunctions/arm_cfft_radix8_f32.c:209:18
	vldr	s0, [sp, #112]
	.loc	7 209 23 is_stmt 0              @ ../Middlewares/CMSIS/DSP/Src/TransformFunctions/arm_cfft_radix8_f32.c:209:23
	vldr	s2, [sp, #96]
	.loc	7 209 21                        @ ../Middlewares/CMSIS/DSP/Src/TransformFunctions/arm_cfft_radix8_f32.c:209:21
	vsub.f32	s0, s0, s2
	.loc	7 209 16                        @ ../Middlewares/CMSIS/DSP/Src/TransformFunctions/arm_cfft_radix8_f32.c:209:16
	vstr	s0, [sp, #112]
	.loc	7 210 32 is_stmt 1              @ ../Middlewares/CMSIS/DSP/Src/TransformFunctions/arm_cfft_radix8_f32.c:210:32
	vldr	s0, [sp, #104]
	.loc	7 210 37 is_stmt 0              @ ../Middlewares/CMSIS/DSP/Src/TransformFunctions/arm_cfft_radix8_f32.c:210:37
	vldr	s2, [sp, #100]
	.loc	7 210 35                        @ ../Middlewares/CMSIS/DSP/Src/TransformFunctions/arm_cfft_radix8_f32.c:210:35
	vadd.f32	s0, s0, s2
	.loc	7 210 13                        @ ../Middlewares/CMSIS/DSP/Src/TransformFunctions/arm_cfft_radix8_f32.c:210:13
	ldr	r0, [sp, #236]
	.loc	7 210 22                        @ ../Middlewares/CMSIS/DSP/Src/TransformFunctions/arm_cfft_radix8_f32.c:210:22
	ldr	r1, [sp, #192]
	.loc	7 210 13                        @ ../Middlewares/CMSIS/DSP/Src/TransformFunctions/arm_cfft_radix8_f32.c:210:13
	add.w	r0, r0, r1, lsl #3
	.loc	7 210 30                        @ ../Middlewares/CMSIS/DSP/Src/TransformFunctions/arm_cfft_radix8_f32.c:210:30
	vstr	s0, [r0, #4]
	.loc	7 211 18 is_stmt 1              @ ../Middlewares/CMSIS/DSP/Src/TransformFunctions/arm_cfft_radix8_f32.c:211:18
	vldr	s0, [sp, #104]
	.loc	7 211 23 is_stmt 0              @ ../Middlewares/CMSIS/DSP/Src/TransformFunctions/arm_cfft_radix8_f32.c:211:23
	vldr	s2, [sp, #100]
	.loc	7 211 21                        @ ../Middlewares/CMSIS/DSP/Src/TransformFunctions/arm_cfft_radix8_f32.c:211:21
	vsub.f32	s0, s0, s2
	.loc	7 211 16                        @ ../Middlewares/CMSIS/DSP/Src/TransformFunctions/arm_cfft_radix8_f32.c:211:16
	vstr	s0, [sp, #100]
	.loc	7 212 18 is_stmt 1              @ ../Middlewares/CMSIS/DSP/Src/TransformFunctions/arm_cfft_radix8_f32.c:212:18
	vldr	s0, [sp, #108]
	.loc	7 212 23 is_stmt 0              @ ../Middlewares/CMSIS/DSP/Src/TransformFunctions/arm_cfft_radix8_f32.c:212:23
	vldr	s2, [sp, #136]
	.loc	7 212 21                        @ ../Middlewares/CMSIS/DSP/Src/TransformFunctions/arm_cfft_radix8_f32.c:212:21
	vsub.f32	s0, s0, s2
	.loc	7 212 16                        @ ../Middlewares/CMSIS/DSP/Src/TransformFunctions/arm_cfft_radix8_f32.c:212:16
	vstr	s0, [sp, #104]
	.loc	7 213 18 is_stmt 1              @ ../Middlewares/CMSIS/DSP/Src/TransformFunctions/arm_cfft_radix8_f32.c:213:18
	vldr	s0, [sp, #108]
	.loc	7 213 23 is_stmt 0              @ ../Middlewares/CMSIS/DSP/Src/TransformFunctions/arm_cfft_radix8_f32.c:213:23
	vldr	s2, [sp, #136]
	.loc	7 213 21                        @ ../Middlewares/CMSIS/DSP/Src/TransformFunctions/arm_cfft_radix8_f32.c:213:21
	vadd.f32	s0, s0, s2
	.loc	7 213 16                        @ ../Middlewares/CMSIS/DSP/Src/TransformFunctions/arm_cfft_radix8_f32.c:213:16
	vstr	s0, [sp, #108]
	.loc	7 214 18 is_stmt 1              @ ../Middlewares/CMSIS/DSP/Src/TransformFunctions/arm_cfft_radix8_f32.c:214:18
	vldr	s0, [sp, #44]
	.loc	7 214 24 is_stmt 0              @ ../Middlewares/CMSIS/DSP/Src/TransformFunctions/arm_cfft_radix8_f32.c:214:24
	vldr	s2, [sp, #140]
	.loc	7 214 22                        @ ../Middlewares/CMSIS/DSP/Src/TransformFunctions/arm_cfft_radix8_f32.c:214:22
	vmul.f32	s0, s0, s2
	.loc	7 214 16                        @ ../Middlewares/CMSIS/DSP/Src/TransformFunctions/arm_cfft_radix8_f32.c:214:16
	vstr	s0, [sp, #72]
	.loc	7 215 18 is_stmt 1              @ ../Middlewares/CMSIS/DSP/Src/TransformFunctions/arm_cfft_radix8_f32.c:215:18
	vldr	s0, [sp, #16]
	.loc	7 215 24 is_stmt 0              @ ../Middlewares/CMSIS/DSP/Src/TransformFunctions/arm_cfft_radix8_f32.c:215:24
	vldr	s2, [sp, #100]
	.loc	7 215 22                        @ ../Middlewares/CMSIS/DSP/Src/TransformFunctions/arm_cfft_radix8_f32.c:215:22
	vmul.f32	s0, s0, s2
	.loc	7 215 16                        @ ../Middlewares/CMSIS/DSP/Src/TransformFunctions/arm_cfft_radix8_f32.c:215:16
	vstr	s0, [sp, #68]
	.loc	7 216 18 is_stmt 1              @ ../Middlewares/CMSIS/DSP/Src/TransformFunctions/arm_cfft_radix8_f32.c:216:18
	vldr	s0, [sp, #44]
	.loc	7 216 24 is_stmt 0              @ ../Middlewares/CMSIS/DSP/Src/TransformFunctions/arm_cfft_radix8_f32.c:216:24
	vldr	s2, [sp, #100]
	.loc	7 216 22                        @ ../Middlewares/CMSIS/DSP/Src/TransformFunctions/arm_cfft_radix8_f32.c:216:22
	vmul.f32	s0, s0, s2
	.loc	7 216 16                        @ ../Middlewares/CMSIS/DSP/Src/TransformFunctions/arm_cfft_radix8_f32.c:216:16
	vstr	s0, [sp, #64]
	.loc	7 217 18 is_stmt 1              @ ../Middlewares/CMSIS/DSP/Src/TransformFunctions/arm_cfft_radix8_f32.c:217:18
	vldr	s0, [sp, #16]
	.loc	7 217 24 is_stmt 0              @ ../Middlewares/CMSIS/DSP/Src/TransformFunctions/arm_cfft_radix8_f32.c:217:24
	vldr	s2, [sp, #140]
	.loc	7 217 22                        @ ../Middlewares/CMSIS/DSP/Src/TransformFunctions/arm_cfft_radix8_f32.c:217:22
	vmul.f32	s0, s0, s2
	.loc	7 217 16                        @ ../Middlewares/CMSIS/DSP/Src/TransformFunctions/arm_cfft_radix8_f32.c:217:16
	vstr	s0, [sp, #60]
	.loc	7 218 28 is_stmt 1              @ ../Middlewares/CMSIS/DSP/Src/TransformFunctions/arm_cfft_radix8_f32.c:218:28
	vldr	s0, [sp, #72]
	.loc	7 218 33 is_stmt 0              @ ../Middlewares/CMSIS/DSP/Src/TransformFunctions/arm_cfft_radix8_f32.c:218:33
	vldr	s2, [sp, #68]
	.loc	7 218 31                        @ ../Middlewares/CMSIS/DSP/Src/TransformFunctions/arm_cfft_radix8_f32.c:218:31
	vadd.f32	s0, s0, s2
	.loc	7 218 13                        @ ../Middlewares/CMSIS/DSP/Src/TransformFunctions/arm_cfft_radix8_f32.c:218:13
	ldr	r0, [sp, #236]
	.loc	7 218 22                        @ ../Middlewares/CMSIS/DSP/Src/TransformFunctions/arm_cfft_radix8_f32.c:218:22
	ldr	r1, [sp, #176]
	.loc	7 218 13                        @ ../Middlewares/CMSIS/DSP/Src/TransformFunctions/arm_cfft_radix8_f32.c:218:13
	add.w	r0, r0, r1, lsl #3
	.loc	7 218 26                        @ ../Middlewares/CMSIS/DSP/Src/TransformFunctions/arm_cfft_radix8_f32.c:218:26
	vstr	s0, [r0]
	.loc	7 219 32 is_stmt 1              @ ../Middlewares/CMSIS/DSP/Src/TransformFunctions/arm_cfft_radix8_f32.c:219:32
	vldr	s0, [sp, #64]
	.loc	7 219 37 is_stmt 0              @ ../Middlewares/CMSIS/DSP/Src/TransformFunctions/arm_cfft_radix8_f32.c:219:37
	vldr	s2, [sp, #60]
	.loc	7 219 35                        @ ../Middlewares/CMSIS/DSP/Src/TransformFunctions/arm_cfft_radix8_f32.c:219:35
	vsub.f32	s0, s0, s2
	.loc	7 219 13                        @ ../Middlewares/CMSIS/DSP/Src/TransformFunctions/arm_cfft_radix8_f32.c:219:13
	ldr	r0, [sp, #236]
	.loc	7 219 22                        @ ../Middlewares/CMSIS/DSP/Src/TransformFunctions/arm_cfft_radix8_f32.c:219:22
	ldr	r1, [sp, #176]
	.loc	7 219 13                        @ ../Middlewares/CMSIS/DSP/Src/TransformFunctions/arm_cfft_radix8_f32.c:219:13
	add.w	r0, r0, r1, lsl #3
	.loc	7 219 30                        @ ../Middlewares/CMSIS/DSP/Src/TransformFunctions/arm_cfft_radix8_f32.c:219:30
	vstr	s0, [r0, #4]
	.loc	7 220 18 is_stmt 1              @ ../Middlewares/CMSIS/DSP/Src/TransformFunctions/arm_cfft_radix8_f32.c:220:18
	vldr	s0, [sp, #52]
	.loc	7 220 24 is_stmt 0              @ ../Middlewares/CMSIS/DSP/Src/TransformFunctions/arm_cfft_radix8_f32.c:220:24
	vldr	s2, [sp, #144]
	.loc	7 220 22                        @ ../Middlewares/CMSIS/DSP/Src/TransformFunctions/arm_cfft_radix8_f32.c:220:22
	vmul.f32	s0, s0, s2
	.loc	7 220 16                        @ ../Middlewares/CMSIS/DSP/Src/TransformFunctions/arm_cfft_radix8_f32.c:220:16
	vstr	s0, [sp, #72]
	.loc	7 221 18 is_stmt 1              @ ../Middlewares/CMSIS/DSP/Src/TransformFunctions/arm_cfft_radix8_f32.c:221:18
	vldr	s0, [sp, #24]
	.loc	7 221 24 is_stmt 0              @ ../Middlewares/CMSIS/DSP/Src/TransformFunctions/arm_cfft_radix8_f32.c:221:24
	vldr	s2, [sp, #104]
	.loc	7 221 22                        @ ../Middlewares/CMSIS/DSP/Src/TransformFunctions/arm_cfft_radix8_f32.c:221:22
	vmul.f32	s0, s0, s2
	.loc	7 221 16                        @ ../Middlewares/CMSIS/DSP/Src/TransformFunctions/arm_cfft_radix8_f32.c:221:16
	vstr	s0, [sp, #68]
	.loc	7 222 18 is_stmt 1              @ ../Middlewares/CMSIS/DSP/Src/TransformFunctions/arm_cfft_radix8_f32.c:222:18
	vldr	s0, [sp, #52]
	.loc	7 222 24 is_stmt 0              @ ../Middlewares/CMSIS/DSP/Src/TransformFunctions/arm_cfft_radix8_f32.c:222:24
	vldr	s2, [sp, #104]
	.loc	7 222 22                        @ ../Middlewares/CMSIS/DSP/Src/TransformFunctions/arm_cfft_radix8_f32.c:222:22
	vmul.f32	s0, s0, s2
	.loc	7 222 16                        @ ../Middlewares/CMSIS/DSP/Src/TransformFunctions/arm_cfft_radix8_f32.c:222:16
	vstr	s0, [sp, #64]
	.loc	7 223 18 is_stmt 1              @ ../Middlewares/CMSIS/DSP/Src/TransformFunctions/arm_cfft_radix8_f32.c:223:18
	vldr	s0, [sp, #24]
	.loc	7 223 24 is_stmt 0              @ ../Middlewares/CMSIS/DSP/Src/TransformFunctions/arm_cfft_radix8_f32.c:223:24
	vldr	s2, [sp, #144]
	.loc	7 223 22                        @ ../Middlewares/CMSIS/DSP/Src/TransformFunctions/arm_cfft_radix8_f32.c:223:22
	vmul.f32	s0, s0, s2
	.loc	7 223 16                        @ ../Middlewares/CMSIS/DSP/Src/TransformFunctions/arm_cfft_radix8_f32.c:223:16
	vstr	s0, [sp, #60]
	.loc	7 224 28 is_stmt 1              @ ../Middlewares/CMSIS/DSP/Src/TransformFunctions/arm_cfft_radix8_f32.c:224:28
	vldr	s0, [sp, #72]
	.loc	7 224 33 is_stmt 0              @ ../Middlewares/CMSIS/DSP/Src/TransformFunctions/arm_cfft_radix8_f32.c:224:33
	vldr	s2, [sp, #68]
	.loc	7 224 31                        @ ../Middlewares/CMSIS/DSP/Src/TransformFunctions/arm_cfft_radix8_f32.c:224:31
	vadd.f32	s0, s0, s2
	.loc	7 224 13                        @ ../Middlewares/CMSIS/DSP/Src/TransformFunctions/arm_cfft_radix8_f32.c:224:13
	ldr	r0, [sp, #236]
	.loc	7 224 22                        @ ../Middlewares/CMSIS/DSP/Src/TransformFunctions/arm_cfft_radix8_f32.c:224:22
	ldr	r1, [sp, #184]
	.loc	7 224 13                        @ ../Middlewares/CMSIS/DSP/Src/TransformFunctions/arm_cfft_radix8_f32.c:224:13
	add.w	r0, r0, r1, lsl #3
	.loc	7 224 26                        @ ../Middlewares/CMSIS/DSP/Src/TransformFunctions/arm_cfft_radix8_f32.c:224:26
	vstr	s0, [r0]
	.loc	7 225 32 is_stmt 1              @ ../Middlewares/CMSIS/DSP/Src/TransformFunctions/arm_cfft_radix8_f32.c:225:32
	vldr	s0, [sp, #64]
	.loc	7 225 37 is_stmt 0              @ ../Middlewares/CMSIS/DSP/Src/TransformFunctions/arm_cfft_radix8_f32.c:225:37
	vldr	s2, [sp, #60]
	.loc	7 225 35                        @ ../Middlewares/CMSIS/DSP/Src/TransformFunctions/arm_cfft_radix8_f32.c:225:35
	vsub.f32	s0, s0, s2
	.loc	7 225 13                        @ ../Middlewares/CMSIS/DSP/Src/TransformFunctions/arm_cfft_radix8_f32.c:225:13
	ldr	r0, [sp, #236]
	.loc	7 225 22                        @ ../Middlewares/CMSIS/DSP/Src/TransformFunctions/arm_cfft_radix8_f32.c:225:22
	ldr	r1, [sp, #184]
	.loc	7 225 13                        @ ../Middlewares/CMSIS/DSP/Src/TransformFunctions/arm_cfft_radix8_f32.c:225:13
	add.w	r0, r0, r1, lsl #3
	.loc	7 225 30                        @ ../Middlewares/CMSIS/DSP/Src/TransformFunctions/arm_cfft_radix8_f32.c:225:30
	vstr	s0, [r0, #4]
	.loc	7 226 18 is_stmt 1              @ ../Middlewares/CMSIS/DSP/Src/TransformFunctions/arm_cfft_radix8_f32.c:226:18
	vldr	s0, [sp, #36]
	.loc	7 226 24 is_stmt 0              @ ../Middlewares/CMSIS/DSP/Src/TransformFunctions/arm_cfft_radix8_f32.c:226:24
	vldr	s2, [sp, #112]
	.loc	7 226 22                        @ ../Middlewares/CMSIS/DSP/Src/TransformFunctions/arm_cfft_radix8_f32.c:226:22
	vmul.f32	s0, s0, s2
	.loc	7 226 16                        @ ../Middlewares/CMSIS/DSP/Src/TransformFunctions/arm_cfft_radix8_f32.c:226:16
	vstr	s0, [sp, #72]
	.loc	7 227 18 is_stmt 1              @ ../Middlewares/CMSIS/DSP/Src/TransformFunctions/arm_cfft_radix8_f32.c:227:18
	vldr	s0, [sp, #8]
	.loc	7 227 24 is_stmt 0              @ ../Middlewares/CMSIS/DSP/Src/TransformFunctions/arm_cfft_radix8_f32.c:227:24
	vldr	s2, [sp, #108]
	.loc	7 227 22                        @ ../Middlewares/CMSIS/DSP/Src/TransformFunctions/arm_cfft_radix8_f32.c:227:22
	vmul.f32	s0, s0, s2
	.loc	7 227 16                        @ ../Middlewares/CMSIS/DSP/Src/TransformFunctions/arm_cfft_radix8_f32.c:227:16
	vstr	s0, [sp, #68]
	.loc	7 228 18 is_stmt 1              @ ../Middlewares/CMSIS/DSP/Src/TransformFunctions/arm_cfft_radix8_f32.c:228:18
	vldr	s0, [sp, #36]
	.loc	7 228 24 is_stmt 0              @ ../Middlewares/CMSIS/DSP/Src/TransformFunctions/arm_cfft_radix8_f32.c:228:24
	vldr	s2, [sp, #108]
	.loc	7 228 22                        @ ../Middlewares/CMSIS/DSP/Src/TransformFunctions/arm_cfft_radix8_f32.c:228:22
	vmul.f32	s0, s0, s2
	.loc	7 228 16                        @ ../Middlewares/CMSIS/DSP/Src/TransformFunctions/arm_cfft_radix8_f32.c:228:16
	vstr	s0, [sp, #64]
	.loc	7 229 18 is_stmt 1              @ ../Middlewares/CMSIS/DSP/Src/TransformFunctions/arm_cfft_radix8_f32.c:229:18
	vldr	s0, [sp, #8]
	.loc	7 229 24 is_stmt 0              @ ../Middlewares/CMSIS/DSP/Src/TransformFunctions/arm_cfft_radix8_f32.c:229:24
	vldr	s2, [sp, #112]
	.loc	7 229 22                        @ ../Middlewares/CMSIS/DSP/Src/TransformFunctions/arm_cfft_radix8_f32.c:229:22
	vmul.f32	s0, s0, s2
	.loc	7 229 16                        @ ../Middlewares/CMSIS/DSP/Src/TransformFunctions/arm_cfft_radix8_f32.c:229:16
	vstr	s0, [sp, #60]
	.loc	7 230 28 is_stmt 1              @ ../Middlewares/CMSIS/DSP/Src/TransformFunctions/arm_cfft_radix8_f32.c:230:28
	vldr	s0, [sp, #72]
	.loc	7 230 33 is_stmt 0              @ ../Middlewares/CMSIS/DSP/Src/TransformFunctions/arm_cfft_radix8_f32.c:230:33
	vldr	s2, [sp, #68]
	.loc	7 230 31                        @ ../Middlewares/CMSIS/DSP/Src/TransformFunctions/arm_cfft_radix8_f32.c:230:31
	vadd.f32	s0, s0, s2
	.loc	7 230 13                        @ ../Middlewares/CMSIS/DSP/Src/TransformFunctions/arm_cfft_radix8_f32.c:230:13
	ldr	r0, [sp, #236]
	.loc	7 230 22                        @ ../Middlewares/CMSIS/DSP/Src/TransformFunctions/arm_cfft_radix8_f32.c:230:22
	ldr	r1, [sp, #168]
	.loc	7 230 13                        @ ../Middlewares/CMSIS/DSP/Src/TransformFunctions/arm_cfft_radix8_f32.c:230:13
	add.w	r0, r0, r1, lsl #3
	.loc	7 230 26                        @ ../Middlewares/CMSIS/DSP/Src/TransformFunctions/arm_cfft_radix8_f32.c:230:26
	vstr	s0, [r0]
	.loc	7 231 32 is_stmt 1              @ ../Middlewares/CMSIS/DSP/Src/TransformFunctions/arm_cfft_radix8_f32.c:231:32
	vldr	s0, [sp, #64]
	.loc	7 231 37 is_stmt 0              @ ../Middlewares/CMSIS/DSP/Src/TransformFunctions/arm_cfft_radix8_f32.c:231:37
	vldr	s2, [sp, #60]
	.loc	7 231 35                        @ ../Middlewares/CMSIS/DSP/Src/TransformFunctions/arm_cfft_radix8_f32.c:231:35
	vsub.f32	s0, s0, s2
	.loc	7 231 13                        @ ../Middlewares/CMSIS/DSP/Src/TransformFunctions/arm_cfft_radix8_f32.c:231:13
	ldr	r0, [sp, #236]
	.loc	7 231 22                        @ ../Middlewares/CMSIS/DSP/Src/TransformFunctions/arm_cfft_radix8_f32.c:231:22
	ldr	r1, [sp, #168]
	.loc	7 231 13                        @ ../Middlewares/CMSIS/DSP/Src/TransformFunctions/arm_cfft_radix8_f32.c:231:13
	add.w	r0, r0, r1, lsl #3
	.loc	7 231 30                        @ ../Middlewares/CMSIS/DSP/Src/TransformFunctions/arm_cfft_radix8_f32.c:231:30
	vstr	s0, [r0, #4]
	.loc	7 232 19 is_stmt 1              @ ../Middlewares/CMSIS/DSP/Src/TransformFunctions/arm_cfft_radix8_f32.c:232:19
	vldr	s0, [sp, #124]
	.loc	7 232 24 is_stmt 0              @ ../Middlewares/CMSIS/DSP/Src/TransformFunctions/arm_cfft_radix8_f32.c:232:24
	vldr	s2, [sp, #116]
	.loc	7 232 22                        @ ../Middlewares/CMSIS/DSP/Src/TransformFunctions/arm_cfft_radix8_f32.c:232:22
	vsub.f32	s0, s0, s2
	vldr	s2, .LCPI7_0
	.loc	7 232 28                        @ ../Middlewares/CMSIS/DSP/Src/TransformFunctions/arm_cfft_radix8_f32.c:232:28
	vmul.f32	s0, s0, s2
	.loc	7 232 16                        @ ../Middlewares/CMSIS/DSP/Src/TransformFunctions/arm_cfft_radix8_f32.c:232:16
	vstr	s0, [sp, #144]
	.loc	7 233 19 is_stmt 1              @ ../Middlewares/CMSIS/DSP/Src/TransformFunctions/arm_cfft_radix8_f32.c:233:19
	vldr	s0, [sp, #124]
	.loc	7 233 24 is_stmt 0              @ ../Middlewares/CMSIS/DSP/Src/TransformFunctions/arm_cfft_radix8_f32.c:233:24
	vldr	s4, [sp, #116]
	.loc	7 233 22                        @ ../Middlewares/CMSIS/DSP/Src/TransformFunctions/arm_cfft_radix8_f32.c:233:22
	vadd.f32	s0, s0, s4
	.loc	7 233 28                        @ ../Middlewares/CMSIS/DSP/Src/TransformFunctions/arm_cfft_radix8_f32.c:233:28
	vmul.f32	s0, s0, s2
	.loc	7 233 16                        @ ../Middlewares/CMSIS/DSP/Src/TransformFunctions/arm_cfft_radix8_f32.c:233:16
	vstr	s0, [sp, #124]
	.loc	7 234 19 is_stmt 1              @ ../Middlewares/CMSIS/DSP/Src/TransformFunctions/arm_cfft_radix8_f32.c:234:19
	vldr	s0, [sp, #84]
	.loc	7 234 24 is_stmt 0              @ ../Middlewares/CMSIS/DSP/Src/TransformFunctions/arm_cfft_radix8_f32.c:234:24
	vldr	s4, [sp, #76]
	.loc	7 234 22                        @ ../Middlewares/CMSIS/DSP/Src/TransformFunctions/arm_cfft_radix8_f32.c:234:22
	vsub.f32	s0, s0, s4
	.loc	7 234 28                        @ ../Middlewares/CMSIS/DSP/Src/TransformFunctions/arm_cfft_radix8_f32.c:234:28
	vmul.f32	s0, s0, s2
	.loc	7 234 16                        @ ../Middlewares/CMSIS/DSP/Src/TransformFunctions/arm_cfft_radix8_f32.c:234:16
	vstr	s0, [sp, #104]
	.loc	7 235 19 is_stmt 1              @ ../Middlewares/CMSIS/DSP/Src/TransformFunctions/arm_cfft_radix8_f32.c:235:19
	vldr	s0, [sp, #84]
	.loc	7 235 24 is_stmt 0              @ ../Middlewares/CMSIS/DSP/Src/TransformFunctions/arm_cfft_radix8_f32.c:235:24
	vldr	s4, [sp, #76]
	.loc	7 235 22                        @ ../Middlewares/CMSIS/DSP/Src/TransformFunctions/arm_cfft_radix8_f32.c:235:22
	vadd.f32	s0, s0, s4
	.loc	7 235 28                        @ ../Middlewares/CMSIS/DSP/Src/TransformFunctions/arm_cfft_radix8_f32.c:235:28
	vmul.f32	s0, s0, s2
	.loc	7 235 16                        @ ../Middlewares/CMSIS/DSP/Src/TransformFunctions/arm_cfft_radix8_f32.c:235:16
	vstr	s0, [sp, #84]
	.loc	7 236 18 is_stmt 1              @ ../Middlewares/CMSIS/DSP/Src/TransformFunctions/arm_cfft_radix8_f32.c:236:18
	vldr	s0, [sp, #128]
	.loc	7 236 23 is_stmt 0              @ ../Middlewares/CMSIS/DSP/Src/TransformFunctions/arm_cfft_radix8_f32.c:236:23
	vldr	s2, [sp, #144]
	.loc	7 236 21                        @ ../Middlewares/CMSIS/DSP/Src/TransformFunctions/arm_cfft_radix8_f32.c:236:21
	vsub.f32	s0, s0, s2
	.loc	7 236 16                        @ ../Middlewares/CMSIS/DSP/Src/TransformFunctions/arm_cfft_radix8_f32.c:236:16
	vstr	s0, [sp, #112]
	.loc	7 237 18 is_stmt 1              @ ../Middlewares/CMSIS/DSP/Src/TransformFunctions/arm_cfft_radix8_f32.c:237:18
	vldr	s0, [sp, #128]
	.loc	7 237 23 is_stmt 0              @ ../Middlewares/CMSIS/DSP/Src/TransformFunctions/arm_cfft_radix8_f32.c:237:23
	vldr	s2, [sp, #144]
	.loc	7 237 21                        @ ../Middlewares/CMSIS/DSP/Src/TransformFunctions/arm_cfft_radix8_f32.c:237:21
	vadd.f32	s0, s0, s2
	.loc	7 237 16                        @ ../Middlewares/CMSIS/DSP/Src/TransformFunctions/arm_cfft_radix8_f32.c:237:16
	vstr	s0, [sp, #128]
	.loc	7 238 18 is_stmt 1              @ ../Middlewares/CMSIS/DSP/Src/TransformFunctions/arm_cfft_radix8_f32.c:238:18
	vldr	s0, [sp, #120]
	.loc	7 238 23 is_stmt 0              @ ../Middlewares/CMSIS/DSP/Src/TransformFunctions/arm_cfft_radix8_f32.c:238:23
	vldr	s2, [sp, #124]
	.loc	7 238 21                        @ ../Middlewares/CMSIS/DSP/Src/TransformFunctions/arm_cfft_radix8_f32.c:238:21
	vsub.f32	s0, s0, s2
	.loc	7 238 16                        @ ../Middlewares/CMSIS/DSP/Src/TransformFunctions/arm_cfft_radix8_f32.c:238:16
	vstr	s0, [sp, #116]
	.loc	7 239 18 is_stmt 1              @ ../Middlewares/CMSIS/DSP/Src/TransformFunctions/arm_cfft_radix8_f32.c:239:18
	vldr	s0, [sp, #120]
	.loc	7 239 23 is_stmt 0              @ ../Middlewares/CMSIS/DSP/Src/TransformFunctions/arm_cfft_radix8_f32.c:239:23
	vldr	s2, [sp, #124]
	.loc	7 239 21                        @ ../Middlewares/CMSIS/DSP/Src/TransformFunctions/arm_cfft_radix8_f32.c:239:21
	vadd.f32	s0, s0, s2
	.loc	7 239 16                        @ ../Middlewares/CMSIS/DSP/Src/TransformFunctions/arm_cfft_radix8_f32.c:239:16
	vstr	s0, [sp, #120]
	.loc	7 240 18 is_stmt 1              @ ../Middlewares/CMSIS/DSP/Src/TransformFunctions/arm_cfft_radix8_f32.c:240:18
	vldr	s0, [sp, #88]
	.loc	7 240 23 is_stmt 0              @ ../Middlewares/CMSIS/DSP/Src/TransformFunctions/arm_cfft_radix8_f32.c:240:23
	vldr	s2, [sp, #104]
	.loc	7 240 21                        @ ../Middlewares/CMSIS/DSP/Src/TransformFunctions/arm_cfft_radix8_f32.c:240:21
	vsub.f32	s0, s0, s2
	.loc	7 240 16                        @ ../Middlewares/CMSIS/DSP/Src/TransformFunctions/arm_cfft_radix8_f32.c:240:16
	vstr	s0, [sp, #108]
	.loc	7 241 18 is_stmt 1              @ ../Middlewares/CMSIS/DSP/Src/TransformFunctions/arm_cfft_radix8_f32.c:241:18
	vldr	s0, [sp, #88]
	.loc	7 241 23 is_stmt 0              @ ../Middlewares/CMSIS/DSP/Src/TransformFunctions/arm_cfft_radix8_f32.c:241:23
	vldr	s2, [sp, #104]
	.loc	7 241 21                        @ ../Middlewares/CMSIS/DSP/Src/TransformFunctions/arm_cfft_radix8_f32.c:241:21
	vadd.f32	s0, s0, s2
	.loc	7 241 16                        @ ../Middlewares/CMSIS/DSP/Src/TransformFunctions/arm_cfft_radix8_f32.c:241:16
	vstr	s0, [sp, #88]
	.loc	7 242 18 is_stmt 1              @ ../Middlewares/CMSIS/DSP/Src/TransformFunctions/arm_cfft_radix8_f32.c:242:18
	vldr	s0, [sp, #80]
	.loc	7 242 23 is_stmt 0              @ ../Middlewares/CMSIS/DSP/Src/TransformFunctions/arm_cfft_radix8_f32.c:242:23
	vldr	s2, [sp, #84]
	.loc	7 242 21                        @ ../Middlewares/CMSIS/DSP/Src/TransformFunctions/arm_cfft_radix8_f32.c:242:21
	vsub.f32	s0, s0, s2
	.loc	7 242 16                        @ ../Middlewares/CMSIS/DSP/Src/TransformFunctions/arm_cfft_radix8_f32.c:242:16
	vstr	s0, [sp, #76]
	.loc	7 243 18 is_stmt 1              @ ../Middlewares/CMSIS/DSP/Src/TransformFunctions/arm_cfft_radix8_f32.c:243:18
	vldr	s0, [sp, #80]
	.loc	7 243 23 is_stmt 0              @ ../Middlewares/CMSIS/DSP/Src/TransformFunctions/arm_cfft_radix8_f32.c:243:23
	vldr	s2, [sp, #84]
	.loc	7 243 21                        @ ../Middlewares/CMSIS/DSP/Src/TransformFunctions/arm_cfft_radix8_f32.c:243:21
	vadd.f32	s0, s0, s2
	.loc	7 243 16                        @ ../Middlewares/CMSIS/DSP/Src/TransformFunctions/arm_cfft_radix8_f32.c:243:16
	vstr	s0, [sp, #80]
	.loc	7 244 18 is_stmt 1              @ ../Middlewares/CMSIS/DSP/Src/TransformFunctions/arm_cfft_radix8_f32.c:244:18
	vldr	s0, [sp, #128]
	.loc	7 244 23 is_stmt 0              @ ../Middlewares/CMSIS/DSP/Src/TransformFunctions/arm_cfft_radix8_f32.c:244:23
	vldr	s2, [sp, #80]
	.loc	7 244 21                        @ ../Middlewares/CMSIS/DSP/Src/TransformFunctions/arm_cfft_radix8_f32.c:244:21
	vadd.f32	s0, s0, s2
	.loc	7 244 16                        @ ../Middlewares/CMSIS/DSP/Src/TransformFunctions/arm_cfft_radix8_f32.c:244:16
	vstr	s0, [sp, #144]
	.loc	7 245 18 is_stmt 1              @ ../Middlewares/CMSIS/DSP/Src/TransformFunctions/arm_cfft_radix8_f32.c:245:18
	vldr	s0, [sp, #128]
	.loc	7 245 23 is_stmt 0              @ ../Middlewares/CMSIS/DSP/Src/TransformFunctions/arm_cfft_radix8_f32.c:245:23
	vldr	s2, [sp, #80]
	.loc	7 245 21                        @ ../Middlewares/CMSIS/DSP/Src/TransformFunctions/arm_cfft_radix8_f32.c:245:21
	vsub.f32	s0, s0, s2
	.loc	7 245 16                        @ ../Middlewares/CMSIS/DSP/Src/TransformFunctions/arm_cfft_radix8_f32.c:245:16
	vstr	s0, [sp, #128]
	.loc	7 246 18 is_stmt 1              @ ../Middlewares/CMSIS/DSP/Src/TransformFunctions/arm_cfft_radix8_f32.c:246:18
	vldr	s0, [sp, #112]
	.loc	7 246 23 is_stmt 0              @ ../Middlewares/CMSIS/DSP/Src/TransformFunctions/arm_cfft_radix8_f32.c:246:23
	vldr	s2, [sp, #76]
	.loc	7 246 21                        @ ../Middlewares/CMSIS/DSP/Src/TransformFunctions/arm_cfft_radix8_f32.c:246:21
	vadd.f32	s0, s0, s2
	.loc	7 246 16                        @ ../Middlewares/CMSIS/DSP/Src/TransformFunctions/arm_cfft_radix8_f32.c:246:16
	vstr	s0, [sp, #124]
	.loc	7 247 18 is_stmt 1              @ ../Middlewares/CMSIS/DSP/Src/TransformFunctions/arm_cfft_radix8_f32.c:247:18
	vldr	s0, [sp, #112]
	.loc	7 247 23 is_stmt 0              @ ../Middlewares/CMSIS/DSP/Src/TransformFunctions/arm_cfft_radix8_f32.c:247:23
	vldr	s2, [sp, #76]
	.loc	7 247 21                        @ ../Middlewares/CMSIS/DSP/Src/TransformFunctions/arm_cfft_radix8_f32.c:247:21
	vsub.f32	s0, s0, s2
	.loc	7 247 16                        @ ../Middlewares/CMSIS/DSP/Src/TransformFunctions/arm_cfft_radix8_f32.c:247:16
	vstr	s0, [sp, #112]
	.loc	7 248 18 is_stmt 1              @ ../Middlewares/CMSIS/DSP/Src/TransformFunctions/arm_cfft_radix8_f32.c:248:18
	vldr	s0, [sp, #88]
	.loc	7 248 23 is_stmt 0              @ ../Middlewares/CMSIS/DSP/Src/TransformFunctions/arm_cfft_radix8_f32.c:248:23
	vldr	s2, [sp, #120]
	.loc	7 248 21                        @ ../Middlewares/CMSIS/DSP/Src/TransformFunctions/arm_cfft_radix8_f32.c:248:21
	vsub.f32	s0, s0, s2
	.loc	7 248 16                        @ ../Middlewares/CMSIS/DSP/Src/TransformFunctions/arm_cfft_radix8_f32.c:248:16
	vstr	s0, [sp, #104]
	.loc	7 249 18 is_stmt 1              @ ../Middlewares/CMSIS/DSP/Src/TransformFunctions/arm_cfft_radix8_f32.c:249:18
	vldr	s0, [sp, #88]
	.loc	7 249 23 is_stmt 0              @ ../Middlewares/CMSIS/DSP/Src/TransformFunctions/arm_cfft_radix8_f32.c:249:23
	vldr	s2, [sp, #120]
	.loc	7 249 21                        @ ../Middlewares/CMSIS/DSP/Src/TransformFunctions/arm_cfft_radix8_f32.c:249:21
	vadd.f32	s0, s0, s2
	.loc	7 249 16                        @ ../Middlewares/CMSIS/DSP/Src/TransformFunctions/arm_cfft_radix8_f32.c:249:16
	vstr	s0, [sp, #88]
	.loc	7 250 18 is_stmt 1              @ ../Middlewares/CMSIS/DSP/Src/TransformFunctions/arm_cfft_radix8_f32.c:250:18
	vldr	s0, [sp, #108]
	.loc	7 250 23 is_stmt 0              @ ../Middlewares/CMSIS/DSP/Src/TransformFunctions/arm_cfft_radix8_f32.c:250:23
	vldr	s2, [sp, #116]
	.loc	7 250 21                        @ ../Middlewares/CMSIS/DSP/Src/TransformFunctions/arm_cfft_radix8_f32.c:250:21
	vsub.f32	s0, s0, s2
	.loc	7 250 16                        @ ../Middlewares/CMSIS/DSP/Src/TransformFunctions/arm_cfft_radix8_f32.c:250:16
	vstr	s0, [sp, #84]
	.loc	7 251 18 is_stmt 1              @ ../Middlewares/CMSIS/DSP/Src/TransformFunctions/arm_cfft_radix8_f32.c:251:18
	vldr	s0, [sp, #108]
	.loc	7 251 23 is_stmt 0              @ ../Middlewares/CMSIS/DSP/Src/TransformFunctions/arm_cfft_radix8_f32.c:251:23
	vldr	s2, [sp, #116]
	.loc	7 251 21                        @ ../Middlewares/CMSIS/DSP/Src/TransformFunctions/arm_cfft_radix8_f32.c:251:21
	vadd.f32	s0, s0, s2
	.loc	7 251 16                        @ ../Middlewares/CMSIS/DSP/Src/TransformFunctions/arm_cfft_radix8_f32.c:251:16
	vstr	s0, [sp, #108]
	.loc	7 252 18 is_stmt 1              @ ../Middlewares/CMSIS/DSP/Src/TransformFunctions/arm_cfft_radix8_f32.c:252:18
	vldr	s0, [sp, #56]
	.loc	7 252 24 is_stmt 0              @ ../Middlewares/CMSIS/DSP/Src/TransformFunctions/arm_cfft_radix8_f32.c:252:24
	vldr	s2, [sp, #144]
	.loc	7 252 22                        @ ../Middlewares/CMSIS/DSP/Src/TransformFunctions/arm_cfft_radix8_f32.c:252:22
	vmul.f32	s0, s0, s2
	.loc	7 252 16                        @ ../Middlewares/CMSIS/DSP/Src/TransformFunctions/arm_cfft_radix8_f32.c:252:16
	vstr	s0, [sp, #72]
	.loc	7 253 18 is_stmt 1              @ ../Middlewares/CMSIS/DSP/Src/TransformFunctions/arm_cfft_radix8_f32.c:253:18
	vldr	s0, [sp, #28]
	.loc	7 253 24 is_stmt 0              @ ../Middlewares/CMSIS/DSP/Src/TransformFunctions/arm_cfft_radix8_f32.c:253:24
	vldr	s2, [sp, #104]
	.loc	7 253 22                        @ ../Middlewares/CMSIS/DSP/Src/TransformFunctions/arm_cfft_radix8_f32.c:253:22
	vmul.f32	s0, s0, s2
	.loc	7 253 16                        @ ../Middlewares/CMSIS/DSP/Src/TransformFunctions/arm_cfft_radix8_f32.c:253:16
	vstr	s0, [sp, #68]
	.loc	7 254 18 is_stmt 1              @ ../Middlewares/CMSIS/DSP/Src/TransformFunctions/arm_cfft_radix8_f32.c:254:18
	vldr	s0, [sp, #56]
	.loc	7 254 24 is_stmt 0              @ ../Middlewares/CMSIS/DSP/Src/TransformFunctions/arm_cfft_radix8_f32.c:254:24
	vldr	s2, [sp, #104]
	.loc	7 254 22                        @ ../Middlewares/CMSIS/DSP/Src/TransformFunctions/arm_cfft_radix8_f32.c:254:22
	vmul.f32	s0, s0, s2
	.loc	7 254 16                        @ ../Middlewares/CMSIS/DSP/Src/TransformFunctions/arm_cfft_radix8_f32.c:254:16
	vstr	s0, [sp, #64]
	.loc	7 255 18 is_stmt 1              @ ../Middlewares/CMSIS/DSP/Src/TransformFunctions/arm_cfft_radix8_f32.c:255:18
	vldr	s0, [sp, #28]
	.loc	7 255 24 is_stmt 0              @ ../Middlewares/CMSIS/DSP/Src/TransformFunctions/arm_cfft_radix8_f32.c:255:24
	vldr	s2, [sp, #144]
	.loc	7 255 22                        @ ../Middlewares/CMSIS/DSP/Src/TransformFunctions/arm_cfft_radix8_f32.c:255:22
	vmul.f32	s0, s0, s2
	.loc	7 255 16                        @ ../Middlewares/CMSIS/DSP/Src/TransformFunctions/arm_cfft_radix8_f32.c:255:16
	vstr	s0, [sp, #60]
	.loc	7 256 28 is_stmt 1              @ ../Middlewares/CMSIS/DSP/Src/TransformFunctions/arm_cfft_radix8_f32.c:256:28
	vldr	s0, [sp, #72]
	.loc	7 256 33 is_stmt 0              @ ../Middlewares/CMSIS/DSP/Src/TransformFunctions/arm_cfft_radix8_f32.c:256:33
	vldr	s2, [sp, #68]
	.loc	7 256 31                        @ ../Middlewares/CMSIS/DSP/Src/TransformFunctions/arm_cfft_radix8_f32.c:256:31
	vadd.f32	s0, s0, s2
	.loc	7 256 13                        @ ../Middlewares/CMSIS/DSP/Src/TransformFunctions/arm_cfft_radix8_f32.c:256:13
	ldr	r0, [sp, #236]
	.loc	7 256 22                        @ ../Middlewares/CMSIS/DSP/Src/TransformFunctions/arm_cfft_radix8_f32.c:256:22
	ldr	r1, [sp, #188]
	.loc	7 256 13                        @ ../Middlewares/CMSIS/DSP/Src/TransformFunctions/arm_cfft_radix8_f32.c:256:13
	add.w	r0, r0, r1, lsl #3
	.loc	7 256 26                        @ ../Middlewares/CMSIS/DSP/Src/TransformFunctions/arm_cfft_radix8_f32.c:256:26
	vstr	s0, [r0]
	.loc	7 257 32 is_stmt 1              @ ../Middlewares/CMSIS/DSP/Src/TransformFunctions/arm_cfft_radix8_f32.c:257:32
	vldr	s0, [sp, #64]
	.loc	7 257 37 is_stmt 0              @ ../Middlewares/CMSIS/DSP/Src/TransformFunctions/arm_cfft_radix8_f32.c:257:37
	vldr	s2, [sp, #60]
	.loc	7 257 35                        @ ../Middlewares/CMSIS/DSP/Src/TransformFunctions/arm_cfft_radix8_f32.c:257:35
	vsub.f32	s0, s0, s2
	.loc	7 257 13                        @ ../Middlewares/CMSIS/DSP/Src/TransformFunctions/arm_cfft_radix8_f32.c:257:13
	ldr	r0, [sp, #236]
	.loc	7 257 22                        @ ../Middlewares/CMSIS/DSP/Src/TransformFunctions/arm_cfft_radix8_f32.c:257:22
	ldr	r1, [sp, #188]
	.loc	7 257 13                        @ ../Middlewares/CMSIS/DSP/Src/TransformFunctions/arm_cfft_radix8_f32.c:257:13
	add.w	r0, r0, r1, lsl #3
	.loc	7 257 30                        @ ../Middlewares/CMSIS/DSP/Src/TransformFunctions/arm_cfft_radix8_f32.c:257:30
	vstr	s0, [r0, #4]
	.loc	7 258 18 is_stmt 1              @ ../Middlewares/CMSIS/DSP/Src/TransformFunctions/arm_cfft_radix8_f32.c:258:18
	vldr	s0, [sp, #32]
	.loc	7 258 24 is_stmt 0              @ ../Middlewares/CMSIS/DSP/Src/TransformFunctions/arm_cfft_radix8_f32.c:258:24
	vldr	s2, [sp, #128]
	.loc	7 258 22                        @ ../Middlewares/CMSIS/DSP/Src/TransformFunctions/arm_cfft_radix8_f32.c:258:22
	vmul.f32	s0, s0, s2
	.loc	7 258 16                        @ ../Middlewares/CMSIS/DSP/Src/TransformFunctions/arm_cfft_radix8_f32.c:258:16
	vstr	s0, [sp, #72]
	.loc	7 259 18 is_stmt 1              @ ../Middlewares/CMSIS/DSP/Src/TransformFunctions/arm_cfft_radix8_f32.c:259:18
	vldr	s0, [sp, #4]
	.loc	7 259 24 is_stmt 0              @ ../Middlewares/CMSIS/DSP/Src/TransformFunctions/arm_cfft_radix8_f32.c:259:24
	vldr	s2, [sp, #88]
	.loc	7 259 22                        @ ../Middlewares/CMSIS/DSP/Src/TransformFunctions/arm_cfft_radix8_f32.c:259:22
	vmul.f32	s0, s0, s2
	.loc	7 259 16                        @ ../Middlewares/CMSIS/DSP/Src/TransformFunctions/arm_cfft_radix8_f32.c:259:16
	vstr	s0, [sp, #68]
	.loc	7 260 18 is_stmt 1              @ ../Middlewares/CMSIS/DSP/Src/TransformFunctions/arm_cfft_radix8_f32.c:260:18
	vldr	s0, [sp, #32]
	.loc	7 260 24 is_stmt 0              @ ../Middlewares/CMSIS/DSP/Src/TransformFunctions/arm_cfft_radix8_f32.c:260:24
	vldr	s2, [sp, #88]
	.loc	7 260 22                        @ ../Middlewares/CMSIS/DSP/Src/TransformFunctions/arm_cfft_radix8_f32.c:260:22
	vmul.f32	s0, s0, s2
	.loc	7 260 16                        @ ../Middlewares/CMSIS/DSP/Src/TransformFunctions/arm_cfft_radix8_f32.c:260:16
	vstr	s0, [sp, #64]
	.loc	7 261 18 is_stmt 1              @ ../Middlewares/CMSIS/DSP/Src/TransformFunctions/arm_cfft_radix8_f32.c:261:18
	vldr	s0, [sp, #4]
	.loc	7 261 24 is_stmt 0              @ ../Middlewares/CMSIS/DSP/Src/TransformFunctions/arm_cfft_radix8_f32.c:261:24
	vldr	s2, [sp, #128]
	.loc	7 261 22                        @ ../Middlewares/CMSIS/DSP/Src/TransformFunctions/arm_cfft_radix8_f32.c:261:22
	vmul.f32	s0, s0, s2
	.loc	7 261 16                        @ ../Middlewares/CMSIS/DSP/Src/TransformFunctions/arm_cfft_radix8_f32.c:261:16
	vstr	s0, [sp, #60]
	.loc	7 262 28 is_stmt 1              @ ../Middlewares/CMSIS/DSP/Src/TransformFunctions/arm_cfft_radix8_f32.c:262:28
	vldr	s0, [sp, #72]
	.loc	7 262 33 is_stmt 0              @ ../Middlewares/CMSIS/DSP/Src/TransformFunctions/arm_cfft_radix8_f32.c:262:33
	vldr	s2, [sp, #68]
	.loc	7 262 31                        @ ../Middlewares/CMSIS/DSP/Src/TransformFunctions/arm_cfft_radix8_f32.c:262:31
	vadd.f32	s0, s0, s2
	.loc	7 262 13                        @ ../Middlewares/CMSIS/DSP/Src/TransformFunctions/arm_cfft_radix8_f32.c:262:13
	ldr	r0, [sp, #236]
	.loc	7 262 22                        @ ../Middlewares/CMSIS/DSP/Src/TransformFunctions/arm_cfft_radix8_f32.c:262:22
	ldr	r1, [sp, #164]
	.loc	7 262 13                        @ ../Middlewares/CMSIS/DSP/Src/TransformFunctions/arm_cfft_radix8_f32.c:262:13
	add.w	r0, r0, r1, lsl #3
	.loc	7 262 26                        @ ../Middlewares/CMSIS/DSP/Src/TransformFunctions/arm_cfft_radix8_f32.c:262:26
	vstr	s0, [r0]
	.loc	7 263 32 is_stmt 1              @ ../Middlewares/CMSIS/DSP/Src/TransformFunctions/arm_cfft_radix8_f32.c:263:32
	vldr	s0, [sp, #64]
	.loc	7 263 37 is_stmt 0              @ ../Middlewares/CMSIS/DSP/Src/TransformFunctions/arm_cfft_radix8_f32.c:263:37
	vldr	s2, [sp, #60]
	.loc	7 263 35                        @ ../Middlewares/CMSIS/DSP/Src/TransformFunctions/arm_cfft_radix8_f32.c:263:35
	vsub.f32	s0, s0, s2
	.loc	7 263 13                        @ ../Middlewares/CMSIS/DSP/Src/TransformFunctions/arm_cfft_radix8_f32.c:263:13
	ldr	r0, [sp, #236]
	.loc	7 263 22                        @ ../Middlewares/CMSIS/DSP/Src/TransformFunctions/arm_cfft_radix8_f32.c:263:22
	ldr	r1, [sp, #164]
	.loc	7 263 13                        @ ../Middlewares/CMSIS/DSP/Src/TransformFunctions/arm_cfft_radix8_f32.c:263:13
	add.w	r0, r0, r1, lsl #3
	.loc	7 263 30                        @ ../Middlewares/CMSIS/DSP/Src/TransformFunctions/arm_cfft_radix8_f32.c:263:30
	vstr	s0, [r0, #4]
	.loc	7 264 18 is_stmt 1              @ ../Middlewares/CMSIS/DSP/Src/TransformFunctions/arm_cfft_radix8_f32.c:264:18
	vldr	s0, [sp, #40]
	.loc	7 264 24 is_stmt 0              @ ../Middlewares/CMSIS/DSP/Src/TransformFunctions/arm_cfft_radix8_f32.c:264:24
	vldr	s2, [sp, #124]
	.loc	7 264 22                        @ ../Middlewares/CMSIS/DSP/Src/TransformFunctions/arm_cfft_radix8_f32.c:264:22
	vmul.f32	s0, s0, s2
	.loc	7 264 16                        @ ../Middlewares/CMSIS/DSP/Src/TransformFunctions/arm_cfft_radix8_f32.c:264:16
	vstr	s0, [sp, #72]
	.loc	7 265 18 is_stmt 1              @ ../Middlewares/CMSIS/DSP/Src/TransformFunctions/arm_cfft_radix8_f32.c:265:18
	vldr	s0, [sp, #12]
	.loc	7 265 24 is_stmt 0              @ ../Middlewares/CMSIS/DSP/Src/TransformFunctions/arm_cfft_radix8_f32.c:265:24
	vldr	s2, [sp, #84]
	.loc	7 265 22                        @ ../Middlewares/CMSIS/DSP/Src/TransformFunctions/arm_cfft_radix8_f32.c:265:22
	vmul.f32	s0, s0, s2
	.loc	7 265 16                        @ ../Middlewares/CMSIS/DSP/Src/TransformFunctions/arm_cfft_radix8_f32.c:265:16
	vstr	s0, [sp, #68]
	.loc	7 266 18 is_stmt 1              @ ../Middlewares/CMSIS/DSP/Src/TransformFunctions/arm_cfft_radix8_f32.c:266:18
	vldr	s0, [sp, #40]
	.loc	7 266 24 is_stmt 0              @ ../Middlewares/CMSIS/DSP/Src/TransformFunctions/arm_cfft_radix8_f32.c:266:24
	vldr	s2, [sp, #84]
	.loc	7 266 22                        @ ../Middlewares/CMSIS/DSP/Src/TransformFunctions/arm_cfft_radix8_f32.c:266:22
	vmul.f32	s0, s0, s2
	.loc	7 266 16                        @ ../Middlewares/CMSIS/DSP/Src/TransformFunctions/arm_cfft_radix8_f32.c:266:16
	vstr	s0, [sp, #64]
	.loc	7 267 18 is_stmt 1              @ ../Middlewares/CMSIS/DSP/Src/TransformFunctions/arm_cfft_radix8_f32.c:267:18
	vldr	s0, [sp, #12]
	.loc	7 267 24 is_stmt 0              @ ../Middlewares/CMSIS/DSP/Src/TransformFunctions/arm_cfft_radix8_f32.c:267:24
	vldr	s2, [sp, #124]
	.loc	7 267 22                        @ ../Middlewares/CMSIS/DSP/Src/TransformFunctions/arm_cfft_radix8_f32.c:267:22
	vmul.f32	s0, s0, s2
	.loc	7 267 16                        @ ../Middlewares/CMSIS/DSP/Src/TransformFunctions/arm_cfft_radix8_f32.c:267:16
	vstr	s0, [sp, #60]
	.loc	7 268 28 is_stmt 1              @ ../Middlewares/CMSIS/DSP/Src/TransformFunctions/arm_cfft_radix8_f32.c:268:28
	vldr	s0, [sp, #72]
	.loc	7 268 33 is_stmt 0              @ ../Middlewares/CMSIS/DSP/Src/TransformFunctions/arm_cfft_radix8_f32.c:268:33
	vldr	s2, [sp, #68]
	.loc	7 268 31                        @ ../Middlewares/CMSIS/DSP/Src/TransformFunctions/arm_cfft_radix8_f32.c:268:31
	vadd.f32	s0, s0, s2
	.loc	7 268 13                        @ ../Middlewares/CMSIS/DSP/Src/TransformFunctions/arm_cfft_radix8_f32.c:268:13
	ldr	r0, [sp, #236]
	.loc	7 268 22                        @ ../Middlewares/CMSIS/DSP/Src/TransformFunctions/arm_cfft_radix8_f32.c:268:22
	ldr	r1, [sp, #172]
	.loc	7 268 13                        @ ../Middlewares/CMSIS/DSP/Src/TransformFunctions/arm_cfft_radix8_f32.c:268:13
	add.w	r0, r0, r1, lsl #3
	.loc	7 268 26                        @ ../Middlewares/CMSIS/DSP/Src/TransformFunctions/arm_cfft_radix8_f32.c:268:26
	vstr	s0, [r0]
	.loc	7 269 32 is_stmt 1              @ ../Middlewares/CMSIS/DSP/Src/TransformFunctions/arm_cfft_radix8_f32.c:269:32
	vldr	s0, [sp, #64]
	.loc	7 269 37 is_stmt 0              @ ../Middlewares/CMSIS/DSP/Src/TransformFunctions/arm_cfft_radix8_f32.c:269:37
	vldr	s2, [sp, #60]
	.loc	7 269 35                        @ ../Middlewares/CMSIS/DSP/Src/TransformFunctions/arm_cfft_radix8_f32.c:269:35
	vsub.f32	s0, s0, s2
	.loc	7 269 13                        @ ../Middlewares/CMSIS/DSP/Src/TransformFunctions/arm_cfft_radix8_f32.c:269:13
	ldr	r0, [sp, #236]
	.loc	7 269 22                        @ ../Middlewares/CMSIS/DSP/Src/TransformFunctions/arm_cfft_radix8_f32.c:269:22
	ldr	r1, [sp, #172]
	.loc	7 269 13                        @ ../Middlewares/CMSIS/DSP/Src/TransformFunctions/arm_cfft_radix8_f32.c:269:13
	add.w	r0, r0, r1, lsl #3
	.loc	7 269 30                        @ ../Middlewares/CMSIS/DSP/Src/TransformFunctions/arm_cfft_radix8_f32.c:269:30
	vstr	s0, [r0, #4]
	.loc	7 270 18 is_stmt 1              @ ../Middlewares/CMSIS/DSP/Src/TransformFunctions/arm_cfft_radix8_f32.c:270:18
	vldr	s0, [sp, #48]
	.loc	7 270 24 is_stmt 0              @ ../Middlewares/CMSIS/DSP/Src/TransformFunctions/arm_cfft_radix8_f32.c:270:24
	vldr	s2, [sp, #112]
	.loc	7 270 22                        @ ../Middlewares/CMSIS/DSP/Src/TransformFunctions/arm_cfft_radix8_f32.c:270:22
	vmul.f32	s0, s0, s2
	.loc	7 270 16                        @ ../Middlewares/CMSIS/DSP/Src/TransformFunctions/arm_cfft_radix8_f32.c:270:16
	vstr	s0, [sp, #72]
	.loc	7 271 18 is_stmt 1              @ ../Middlewares/CMSIS/DSP/Src/TransformFunctions/arm_cfft_radix8_f32.c:271:18
	vldr	s0, [sp, #20]
	.loc	7 271 24 is_stmt 0              @ ../Middlewares/CMSIS/DSP/Src/TransformFunctions/arm_cfft_radix8_f32.c:271:24
	vldr	s2, [sp, #108]
	.loc	7 271 22                        @ ../Middlewares/CMSIS/DSP/Src/TransformFunctions/arm_cfft_radix8_f32.c:271:22
	vmul.f32	s0, s0, s2
	.loc	7 271 16                        @ ../Middlewares/CMSIS/DSP/Src/TransformFunctions/arm_cfft_radix8_f32.c:271:16
	vstr	s0, [sp, #68]
	.loc	7 272 18 is_stmt 1              @ ../Middlewares/CMSIS/DSP/Src/TransformFunctions/arm_cfft_radix8_f32.c:272:18
	vldr	s0, [sp, #48]
	.loc	7 272 24 is_stmt 0              @ ../Middlewares/CMSIS/DSP/Src/TransformFunctions/arm_cfft_radix8_f32.c:272:24
	vldr	s2, [sp, #108]
	.loc	7 272 22                        @ ../Middlewares/CMSIS/DSP/Src/TransformFunctions/arm_cfft_radix8_f32.c:272:22
	vmul.f32	s0, s0, s2
	.loc	7 272 16                        @ ../Middlewares/CMSIS/DSP/Src/TransformFunctions/arm_cfft_radix8_f32.c:272:16
	vstr	s0, [sp, #64]
	.loc	7 273 18 is_stmt 1              @ ../Middlewares/CMSIS/DSP/Src/TransformFunctions/arm_cfft_radix8_f32.c:273:18
	vldr	s0, [sp, #20]
	.loc	7 273 24 is_stmt 0              @ ../Middlewares/CMSIS/DSP/Src/TransformFunctions/arm_cfft_radix8_f32.c:273:24
	vldr	s2, [sp, #112]
	.loc	7 273 22                        @ ../Middlewares/CMSIS/DSP/Src/TransformFunctions/arm_cfft_radix8_f32.c:273:22
	vmul.f32	s0, s0, s2
	.loc	7 273 16                        @ ../Middlewares/CMSIS/DSP/Src/TransformFunctions/arm_cfft_radix8_f32.c:273:16
	vstr	s0, [sp, #60]
	.loc	7 274 28 is_stmt 1              @ ../Middlewares/CMSIS/DSP/Src/TransformFunctions/arm_cfft_radix8_f32.c:274:28
	vldr	s0, [sp, #72]
	.loc	7 274 33 is_stmt 0              @ ../Middlewares/CMSIS/DSP/Src/TransformFunctions/arm_cfft_radix8_f32.c:274:33
	vldr	s2, [sp, #68]
	.loc	7 274 31                        @ ../Middlewares/CMSIS/DSP/Src/TransformFunctions/arm_cfft_radix8_f32.c:274:31
	vadd.f32	s0, s0, s2
	.loc	7 274 13                        @ ../Middlewares/CMSIS/DSP/Src/TransformFunctions/arm_cfft_radix8_f32.c:274:13
	ldr	r0, [sp, #236]
	.loc	7 274 22                        @ ../Middlewares/CMSIS/DSP/Src/TransformFunctions/arm_cfft_radix8_f32.c:274:22
	ldr	r1, [sp, #180]
	.loc	7 274 13                        @ ../Middlewares/CMSIS/DSP/Src/TransformFunctions/arm_cfft_radix8_f32.c:274:13
	add.w	r0, r0, r1, lsl #3
	.loc	7 274 26                        @ ../Middlewares/CMSIS/DSP/Src/TransformFunctions/arm_cfft_radix8_f32.c:274:26
	vstr	s0, [r0]
	.loc	7 275 32 is_stmt 1              @ ../Middlewares/CMSIS/DSP/Src/TransformFunctions/arm_cfft_radix8_f32.c:275:32
	vldr	s0, [sp, #64]
	.loc	7 275 37 is_stmt 0              @ ../Middlewares/CMSIS/DSP/Src/TransformFunctions/arm_cfft_radix8_f32.c:275:37
	vldr	s2, [sp, #60]
	.loc	7 275 35                        @ ../Middlewares/CMSIS/DSP/Src/TransformFunctions/arm_cfft_radix8_f32.c:275:35
	vsub.f32	s0, s0, s2
	.loc	7 275 13                        @ ../Middlewares/CMSIS/DSP/Src/TransformFunctions/arm_cfft_radix8_f32.c:275:13
	ldr	r0, [sp, #236]
	.loc	7 275 22                        @ ../Middlewares/CMSIS/DSP/Src/TransformFunctions/arm_cfft_radix8_f32.c:275:22
	ldr	r1, [sp, #180]
	.loc	7 275 13                        @ ../Middlewares/CMSIS/DSP/Src/TransformFunctions/arm_cfft_radix8_f32.c:275:13
	add.w	r0, r0, r1, lsl #3
	.loc	7 275 30                        @ ../Middlewares/CMSIS/DSP/Src/TransformFunctions/arm_cfft_radix8_f32.c:275:30
	vstr	s0, [r0, #4]
	.loc	7 277 19 is_stmt 1              @ ../Middlewares/CMSIS/DSP/Src/TransformFunctions/arm_cfft_radix8_f32.c:277:19
	ldr	r1, [sp, #156]
	.loc	7 277 16 is_stmt 0              @ ../Middlewares/CMSIS/DSP/Src/TransformFunctions/arm_cfft_radix8_f32.c:277:16
	ldr	r0, [sp, #192]
	add	r0, r1
	str	r0, [sp, #192]
	.loc	7 278 10 is_stmt 1              @ ../Middlewares/CMSIS/DSP/Src/TransformFunctions/arm_cfft_radix8_f32.c:278:10
	b	.LBB7_10
.Ltmp73:
.LBB7_10:                               @   in Loop: Header=BB7_9 Depth=3
	.loc	7 278 19 is_stmt 0              @ ../Middlewares/CMSIS/DSP/Src/TransformFunctions/arm_cfft_radix8_f32.c:278:19
	ldr	r0, [sp, #192]
	.loc	7 278 24                        @ ../Middlewares/CMSIS/DSP/Src/TransformFunctions/arm_cfft_radix8_f32.c:278:24
	ldrh.w	r1, [sp, #234]
.Ltmp74:
	.loc	7 278 10                        @ ../Middlewares/CMSIS/DSP/Src/TransformFunctions/arm_cfft_radix8_f32.c:278:10
	cmp	r0, r1
	blo.w	.LBB7_9
	b	.LBB7_11
.Ltmp75:
.LBB7_11:                               @   in Loop: Header=BB7_8 Depth=2
	.loc	7 280 11 is_stmt 1              @ ../Middlewares/CMSIS/DSP/Src/TransformFunctions/arm_cfft_radix8_f32.c:280:11
	ldr	r0, [sp, #148]
	adds	r0, #1
	str	r0, [sp, #148]
	.loc	7 281 7                         @ ../Middlewares/CMSIS/DSP/Src/TransformFunctions/arm_cfft_radix8_f32.c:281:7
	b	.LBB7_12
.Ltmp76:
.LBB7_12:                               @   in Loop: Header=BB7_8 Depth=2
	.loc	7 281 16 is_stmt 0              @ ../Middlewares/CMSIS/DSP/Src/TransformFunctions/arm_cfft_radix8_f32.c:281:16
	ldr	r0, [sp, #148]
	.loc	7 281 20                        @ ../Middlewares/CMSIS/DSP/Src/TransformFunctions/arm_cfft_radix8_f32.c:281:20
	ldr	r1, [sp, #152]
.Ltmp77:
	.loc	7 281 7                         @ ../Middlewares/CMSIS/DSP/Src/TransformFunctions/arm_cfft_radix8_f32.c:281:7
	cmp	r0, r1
	blo.w	.LBB7_8
	b	.LBB7_13
.Ltmp78:
.LBB7_13:                               @   in Loop: Header=BB7_1 Depth=1
	.loc	7 283 24 is_stmt 1              @ ../Middlewares/CMSIS/DSP/Src/TransformFunctions/arm_cfft_radix8_f32.c:283:24
	ldrh.w	r0, [sp, #226]
	lsls	r0, r0, #3
	strh.w	r0, [sp, #226]
	.loc	7 284 4                         @ ../Middlewares/CMSIS/DSP/Src/TransformFunctions/arm_cfft_radix8_f32.c:284:4
	b	.LBB7_14
.Ltmp79:
.LBB7_14:                               @   in Loop: Header=BB7_1 Depth=1
	.loc	7 284 13 is_stmt 0              @ ../Middlewares/CMSIS/DSP/Src/TransformFunctions/arm_cfft_radix8_f32.c:284:13
	ldr	r0, [sp, #152]
.Ltmp80:
	.loc	7 284 4                         @ ../Middlewares/CMSIS/DSP/Src/TransformFunctions/arm_cfft_radix8_f32.c:284:4
	cmp	r0, #7
	bhi.w	.LBB7_1
	b	.LBB7_15
.Ltmp81:
.LBB7_15:
	.loc	7 285 1 is_stmt 1               @ ../Middlewares/CMSIS/DSP/Src/TransformFunctions/arm_cfft_radix8_f32.c:285:1
	add	sp, #240
	bx	lr
.Ltmp82:
	.p2align	2
@ %bb.16:
	.loc	7 0 1 is_stmt 0                 @ ../Middlewares/CMSIS/DSP/Src/TransformFunctions/arm_cfft_radix8_f32.c:0:1
.LCPI7_0:
	.long	0x3f3504f3                      @ float 0.707106769
.Lfunc_end7:
	.size	arm_radix8_butterfly_f32, .Lfunc_end7-arm_radix8_butterfly_f32
	.cfi_endproc
	.cantunwind
	.fnend
                                        @ -- End function
	.section	.text.arm_cfft_radix8by4_f32,"ax",%progbits
	.hidden	arm_cfft_radix8by4_f32          @ -- Begin function arm_cfft_radix8by4_f32
	.globl	arm_cfft_radix8by4_f32
	.p2align	2
	.type	arm_cfft_radix8by4_f32,%function
	.code	16                              @ @arm_cfft_radix8by4_f32
	.thumb_func
arm_cfft_radix8by4_f32:
.Lfunc_begin8:
	.loc	6 873 0 is_stmt 1               @ ../Middlewares/CMSIS/DSP/Src/TransformFunctions/arm_cfft_f32.c:873:0
	.fnstart
	.cfi_startproc
@ %bb.0:
	.save	{r7, lr}
	push	{r7, lr}
	.cfi_def_cfa_offset 8
	.cfi_offset lr, -4
	.cfi_offset r7, -8
	.pad	#176
	sub	sp, #176
	.cfi_def_cfa_offset 184
	str	r0, [sp, #172]
	str	r1, [sp, #168]
.Ltmp83:
	.loc	6 874 18 prologue_end           @ ../Middlewares/CMSIS/DSP/Src/TransformFunctions/arm_cfft_f32.c:874:18
	ldr	r0, [sp, #172]
	.loc	6 874 21 is_stmt 0              @ ../Middlewares/CMSIS/DSP/Src/TransformFunctions/arm_cfft_f32.c:874:21
	ldrh	r0, [r0]
	.loc	6 874 28                        @ ../Middlewares/CMSIS/DSP/Src/TransformFunctions/arm_cfft_f32.c:874:28
	lsrs	r0, r0, #1
	.loc	6 874 14                        @ ../Middlewares/CMSIS/DSP/Src/TransformFunctions/arm_cfft_f32.c:874:14
	str	r0, [sp, #164]
	.loc	6 877 22 is_stmt 1              @ ../Middlewares/CMSIS/DSP/Src/TransformFunctions/arm_cfft_f32.c:877:22
	ldr	r0, [sp, #168]
	.loc	6 877 27 is_stmt 0              @ ../Middlewares/CMSIS/DSP/Src/TransformFunctions/arm_cfft_f32.c:877:27
	ldr	r1, [sp, #164]
	.loc	6 877 25                        @ ../Middlewares/CMSIS/DSP/Src/TransformFunctions/arm_cfft_f32.c:877:25
	add.w	r0, r0, r1, lsl #2
