	.text
	.syntax unified
	.eabi_attribute	67, "2.09"	@ Tag_conformance
	.cpu	cortex-m4
	.eabi_attribute	6, 13	@ Tag_CPU_arch
	.eabi_attribute	7, 77	@ Tag_CPU_arch_profile
	.eabi_attribute	8, 0	@ Tag_ARM_ISA_use
	.eabi_attribute	9, 2	@ Tag_THUMB_ISA_use
	.fpu	fpv4-sp-d16
	.eabi_attribute	27, 1	@ Tag_ABI_HardFP_use
	.eabi_attribute	36, 1	@ Tag_FP_HP_extension
	.eabi_attribute	34, 1	@ Tag_CPU_unaligned_access
	.eabi_attribute	17, 1	@ Tag_ABI_PCS_GOT_use
	.eabi_attribute	20, 2	@ Tag_ABI_FP_denormal
	.eabi_attribute	21, 0	@ Tag_ABI_FP_exceptions
	.eabi_attribute	23, 3	@ Tag_ABI_FP_number_model
	.eabi_attribute	24, 1	@ Tag_ABI_align_needed
	.eabi_attribute	25, 1	@ Tag_ABI_align_preserved
	.eabi_attribute	28, 1	@ Tag_ABI_VFP_args
	.eabi_attribute	38, 1	@ Tag_ABI_FP_16bit_format
	.eabi_attribute	18, 2	@ Tag_ABI_PCS_wchar_t
	.eabi_attribute	26, 1	@ Tag_ABI_enum_size
	.eabi_attribute	14, 0	@ Tag_ABI_PCS_R9_use
	.file	"usart.c"
	.file	1 "D:\\" "kevil\\ARM\\ARMCLANG\\Bin\\..\\include\\stdint.h"
	.file	2 "D:\\horizon\\Horizon_Infantry (2)\\MDK-ARM" "../Drivers/CMSIS/Device/ST/STM32F4xx/Include/stm32f407xx.h"
	.file	3 "D:\\horizon\\Horizon_Infantry (2)\\MDK-ARM" "../Drivers/STM32F4xx_HAL_Driver/Inc\\stm32f4xx_hal_uart.h"
	.file	4 "D:\\horizon\\Horizon_Infantry (2)\\MDK-ARM" "../Drivers/STM32F4xx_HAL_Driver/Inc\\stm32f4xx_hal_dma.h"
	.file	5 "D:\\horizon\\Horizon_Infantry (2)\\MDK-ARM" "../Drivers/STM32F4xx_HAL_Driver/Inc/stm32f4xx_hal_def.h"
	.file	6 "D:\\horizon\\Horizon_Infantry (2)\\MDK-ARM" "../Core/Src/usart.c"
	.section	.text.MX_USART1_UART_Init,"ax",%progbits
	.hidden	MX_USART1_UART_Init             @ -- Begin function MX_USART1_UART_Init
	.globl	MX_USART1_UART_Init
	.p2align	2
	.type	MX_USART1_UART_Init,%function
	.code	16                              @ @MX_USART1_UART_Init
	.thumb_func
MX_USART1_UART_Init:
.Lfunc_begin0:
	.loc	6 39 0                          @ ../Core/Src/usart.c:39:0
	.fnstart
	.cfi_sections .debug_frame
	.cfi_startproc
@ %bb.0:
	.save	{r7, lr}
	push	{r7, lr}
	.cfi_def_cfa_offset 8
	.cfi_offset lr, -4
	.cfi_offset r7, -8
	.pad	#8
	sub	sp, #8
	.cfi_def_cfa_offset 16
.Ltmp0:
	.loc	6 48 19 prologue_end            @ ../Core/Src/usart.c:48:19
	movw	r0, :lower16:huart1
	movt	r0, :upper16:huart1
	str	r0, [sp, #4]                    @ 4-byte Spill
	movw	r1, #4096
	movt	r1, #16385
	str	r1, [r0]
	mov.w	r1, #921600
	.loc	6 49 24                         @ ../Core/Src/usart.c:49:24
	str	r1, [r0, #4]
	movs	r1, #0
	.loc	6 50 26                         @ ../Core/Src/usart.c:50:26
	str	r1, [r0, #8]
	.loc	6 51 24                         @ ../Core/Src/usart.c:51:24
	str	r1, [r0, #12]
	.loc	6 52 22                         @ ../Core/Src/usart.c:52:22
	str	r1, [r0, #16]
	movs	r2, #12
	.loc	6 53 20                         @ ../Core/Src/usart.c:53:20
	str	r2, [r0, #20]
	.loc	6 54 25                         @ ../Core/Src/usart.c:54:25
	str	r1, [r0, #24]
	.loc	6 55 28                         @ ../Core/Src/usart.c:55:28
	str	r1, [r0, #28]
.Ltmp1:
	.loc	6 56 7                          @ ../Core/Src/usart.c:56:7
	bl	HAL_UART_Init
.Ltmp2:
	.loc	6 56 7 is_stmt 0                @ ../Core/Src/usart.c:56:7
	cbz	r0, .LBB0_2
	b	.LBB0_1
.LBB0_1:
.Ltmp3:
	.loc	6 58 5 is_stmt 1                @ ../Core/Src/usart.c:58:5
	bl	Error_Handler
	.loc	6 59 3                          @ ../Core/Src/usart.c:59:3
	b	.LBB0_2
.Ltmp4:
.LBB0_2:
	.loc	6 64 1                          @ ../Core/Src/usart.c:64:1
	add	sp, #8
	pop	{r7, pc}
.Ltmp5:
.Lfunc_end0:
	.size	MX_USART1_UART_Init, .Lfunc_end0-MX_USART1_UART_Init
	.cfi_endproc
	.cantunwind
	.fnend
                                        @ -- End function
	.section	.text.MX_USART3_UART_Init,"ax",%progbits
	.hidden	MX_USART3_UART_Init             @ -- Begin function MX_USART3_UART_Init
	.globl	MX_USART3_UART_Init
	.p2align	2
	.type	MX_USART3_UART_Init,%function
	.code	16                              @ @MX_USART3_UART_Init
	.thumb_func
MX_USART3_UART_Init:
.Lfunc_begin1:
	.loc	6 68 0                          @ ../Core/Src/usart.c:68:0
	.fnstart
	.cfi_startproc
@ %bb.0:
	.save	{r7, lr}
	push	{r7, lr}
	.cfi_def_cfa_offset 8
	.cfi_offset lr, -4
	.cfi_offset r7, -8
	.pad	#8
	sub	sp, #8
	.cfi_def_cfa_offset 16
.Ltmp6:
	.loc	6 77 19 prologue_end            @ ../Core/Src/usart.c:77:19
	movw	r0, :lower16:huart3
	movt	r0, :upper16:huart3
	str	r0, [sp, #4]                    @ 4-byte Spill
	movw	r1, #18432
	movt	r1, #16384
	str	r1, [r0]
	movw	r1, #34464
	movt	r1, #1
	.loc	6 78 24                         @ ../Core/Src/usart.c:78:24
	str	r1, [r0, #4]
	mov.w	r1, #4096
	.loc	6 79 26                         @ ../Core/Src/usart.c:79:26
	str	r1, [r0, #8]
	movs	r1, #0
	.loc	6 80 24                         @ ../Core/Src/usart.c:80:24
	str	r1, [r0, #12]
	mov.w	r2, #1024
	.loc	6 81 22                         @ ../Core/Src/usart.c:81:22
	str	r2, [r0, #16]
	movs	r2, #12
	.loc	6 82 20                         @ ../Core/Src/usart.c:82:20
	str	r2, [r0, #20]
	.loc	6 83 25                         @ ../Core/Src/usart.c:83:25
	str	r1, [r0, #24]
	.loc	6 84 28                         @ ../Core/Src/usart.c:84:28
	str	r1, [r0, #28]
.Ltmp7:
	.loc	6 85 7                          @ ../Core/Src/usart.c:85:7
	bl	HAL_UART_Init
.Ltmp8:
	.loc	6 85 7 is_stmt 0                @ ../Core/Src/usart.c:85:7
	cbz	r0, .LBB1_2
	b	.LBB1_1
.LBB1_1:
.Ltmp9:
	.loc	6 87 5 is_stmt 1                @ ../Core/Src/usart.c:87:5
	bl	Error_Handler
	.loc	6 88 3                          @ ../Core/Src/usart.c:88:3
	b	.LBB1_2
.Ltmp10:
.LBB1_2:
	.loc	6 93 1                          @ ../Core/Src/usart.c:93:1
	add	sp, #8
	pop	{r7, pc}
.Ltmp11:
.Lfunc_end1:
	.size	MX_USART3_UART_Init, .Lfunc_end1-MX_USART3_UART_Init
	.cfi_endproc
	.cantunwind
	.fnend
                                        @ -- End function
	.section	.text.MX_USART6_UART_Init,"ax",%progbits
	.hidden	MX_USART6_UART_Init             @ -- Begin function MX_USART6_UART_Init
	.globl	MX_USART6_UART_Init
	.p2align	2
	.type	MX_USART6_UART_Init,%function
	.code	16                              @ @MX_USART6_UART_Init
	.thumb_func
MX_USART6_UART_Init:
.Lfunc_begin2:
	.loc	6 97 0                          @ ../Core/Src/usart.c:97:0
	.fnstart
	.cfi_startproc
@ %bb.0:
	.save	{r7, lr}
	push	{r7, lr}
	.cfi_def_cfa_offset 8
	.cfi_offset lr, -4
	.cfi_offset r7, -8
	.pad	#8
	sub	sp, #8
	.cfi_def_cfa_offset 16
.Ltmp12:
	.loc	6 106 19 prologue_end           @ ../Core/Src/usart.c:106:19
	movw	r0, :lower16:huart6
	movt	r0, :upper16:huart6
	str	r0, [sp, #4]                    @ 4-byte Spill
	movw	r1, #5120
	movt	r1, #16385
	str	r1, [r0]
	mov.w	r1, #115200
	.loc	6 107 24                        @ ../Core/Src/usart.c:107:24
	str	r1, [r0, #4]
	movs	r1, #0
	.loc	6 108 26                        @ ../Core/Src/usart.c:108:26
	str	r1, [r0, #8]
	.loc	6 109 24                        @ ../Core/Src/usart.c:109:24
	str	r1, [r0, #12]
	.loc	6 110 22                        @ ../Core/Src/usart.c:110:22
	str	r1, [r0, #16]
	movs	r2, #12
	.loc	6 111 20                        @ ../Core/Src/usart.c:111:20
	str	r2, [r0, #20]
	.loc	6 112 25                        @ ../Core/Src/usart.c:112:25
	str	r1, [r0, #24]
	.loc	6 113 28                        @ ../Core/Src/usart.c:113:28
	str	r1, [r0, #28]
.Ltmp13:
	.loc	6 114 7                         @ ../Core/Src/usart.c:114:7
	bl	HAL_UART_Init
.Ltmp14:
	.loc	6 114 7 is_stmt 0               @ ../Core/Src/usart.c:114:7
	cbz	r0, .LBB2_2
	b	.LBB2_1
.LBB2_1:
.Ltmp15:
	.loc	6 116 5 is_stmt 1               @ ../Core/Src/usart.c:116:5
	bl	Error_Handler
	.loc	6 117 3                         @ ../Core/Src/usart.c:117:3
	b	.LBB2_2
.Ltmp16:
.LBB2_2:
	.loc	6 122 1                         @ ../Core/Src/usart.c:122:1
	add	sp, #8
	pop	{r7, pc}
.Ltmp17:
.Lfunc_end2:
	.size	MX_USART6_UART_Init, .Lfunc_end2-MX_USART6_UART_Init
	.cfi_endproc
	.cantunwind
	.fnend
                                        @ -- End function
	.section	.text.HAL_UART_MspInit,"ax",%progbits
	.hidden	HAL_UART_MspInit                @ -- Begin function HAL_UART_MspInit
	.globl	HAL_UART_MspInit
	.p2align	2
	.type	HAL_UART_MspInit,%function
	.code	16                              @ @HAL_UART_MspInit
	.thumb_func
HAL_UART_MspInit:
.Lfunc_begin3:
	.loc	6 125 0                         @ ../Core/Src/usart.c:125:0
	.fnstart
	.cfi_startproc
@ %bb.0:
	.save	{r7, lr}
	push	{r7, lr}
	.cfi_def_cfa_offset 8
	.cfi_offset lr, -4
	.cfi_offset r7, -8
	.pad	#112
	sub	sp, #112
	.cfi_def_cfa_offset 120
	str	r0, [sp, #108]
	movs	r0, #0
.Ltmp18:
	.loc	6 127 20 prologue_end           @ ../Core/Src/usart.c:127:20
	str	r0, [sp, #104]
	str	r0, [sp, #100]
	str	r0, [sp, #96]
	str	r0, [sp, #92]
	str	r0, [sp, #88]
.Ltmp19:
	.loc	6 128 6                         @ ../Core/Src/usart.c:128:6
	ldr	r0, [sp, #108]
	.loc	6 128 18 is_stmt 0              @ ../Core/Src/usart.c:128:18
	ldr	r0, [r0]
	movw	r1, #4096
	movt	r1, #16385
.Ltmp20:
	.loc	6 128 6                         @ ../Core/Src/usart.c:128:6
	cmp	r0, r1
	bne.w	.LBB3_16
	b	.LBB3_1
.LBB3_1:
.Ltmp21:
	.loc	6 134 5 is_stmt 1               @ ../Core/Src/usart.c:134:5
	b	.LBB3_2
.LBB3_2:
	.loc	6 0 5 is_stmt 0                 @ ../Core/Src/usart.c:0:5
	movs	r0, #0
.Ltmp22:
	.loc	6 134 28                        @ ../Core/Src/usart.c:134:28
	str	r0, [sp, #84]
	movw	r0, #14404
	movt	r0, #16386
	.loc	6 134 117                       @ ../Core/Src/usart.c:134:117
	ldr	r1, [r0]
	orr	r1, r1, #16
	str	r1, [r0]
	.loc	6 134 213                       @ ../Core/Src/usart.c:134:213
	ldr	r0, [r0]
	.loc	6 134 222                       @ ../Core/Src/usart.c:134:222
	and	r0, r0, #16
	.loc	6 134 147                       @ ../Core/Src/usart.c:134:147
	str	r0, [sp, #84]
	.loc	6 134 250                       @ ../Core/Src/usart.c:134:250
	ldr	r0, [sp, #84]
	.loc	6 134 258                       @ ../Core/Src/usart.c:134:258
	b	.LBB3_3
.Ltmp23:
.LBB3_3:
	.loc	6 136 5 is_stmt 1               @ ../Core/Src/usart.c:136:5
	b	.LBB3_4
.LBB3_4:
	.loc	6 0 5 is_stmt 0                 @ ../Core/Src/usart.c:0:5
	movs	r0, #0
.Ltmp24:
	.loc	6 136 28                        @ ../Core/Src/usart.c:136:28
	str	r0, [sp, #80]
	movw	r0, #14384
	movt	r0, #16386
	.loc	6 136 117                       @ ../Core/Src/usart.c:136:117
	ldr	r1, [r0]
	orr	r1, r1, #2
	str	r1, [r0]
	.loc	6 136 213                       @ ../Core/Src/usart.c:136:213
	ldr	r0, [r0]
	.loc	6 136 222                       @ ../Core/Src/usart.c:136:222
	and	r0, r0, #2
	.loc	6 136 147                       @ ../Core/Src/usart.c:136:147
	str	r0, [sp, #80]
	.loc	6 136 250                       @ ../Core/Src/usart.c:136:250
	ldr	r0, [sp, #80]
	.loc	6 136 258                       @ ../Core/Src/usart.c:136:258
	b	.LBB3_5
.Ltmp25:
.LBB3_5:
	.loc	6 137 5 is_stmt 1               @ ../Core/Src/usart.c:137:5
	b	.LBB3_6
.LBB3_6:
	.loc	6 0 5 is_stmt 0                 @ ../Core/Src/usart.c:0:5
	movs	r0, #0
.Ltmp26:
	.loc	6 137 28                        @ ../Core/Src/usart.c:137:28
	str	r0, [sp, #76]
	movw	r0, #14384
	movt	r0, #16386
	.loc	6 137 117                       @ ../Core/Src/usart.c:137:117
	ldr	r1, [r0]
	orr	r1, r1, #1
	str	r1, [r0]
	.loc	6 137 213                       @ ../Core/Src/usart.c:137:213
	ldr	r0, [r0]
	.loc	6 137 222                       @ ../Core/Src/usart.c:137:222
	and	r0, r0, #1
	.loc	6 137 147                       @ ../Core/Src/usart.c:137:147
	str	r0, [sp, #76]
	.loc	6 137 250                       @ ../Core/Src/usart.c:137:250
	ldr	r0, [sp, #76]
	.loc	6 137 258                       @ ../Core/Src/usart.c:137:258
	b	.LBB3_7
.Ltmp27:
.LBB3_7:
	.loc	6 0 258                         @ ../Core/Src/usart.c:0:258
	movs	r0, #128
	.loc	6 142 25 is_stmt 1              @ ../Core/Src/usart.c:142:25
	str	r0, [sp, #88]
	movs	r0, #2
	.loc	6 143 26                        @ ../Core/Src/usart.c:143:26
	str	r0, [sp, #36]                   @ 4-byte Spill
	str	r0, [sp, #92]
	movs	r0, #0
	.loc	6 144 26                        @ ../Core/Src/usart.c:144:26
	str	r0, [sp, #52]                   @ 4-byte Spill
	str	r0, [sp, #96]
	movs	r0, #3
	.loc	6 145 27                        @ ../Core/Src/usart.c:145:27
	str	r0, [sp, #40]                   @ 4-byte Spill
	str	r0, [sp, #100]
	movs	r0, #7
	.loc	6 146 31                        @ ../Core/Src/usart.c:146:31
	str	r0, [sp, #44]                   @ 4-byte Spill
	str	r0, [sp, #104]
	movw	r0, #1024
	movt	r0, #16386
	add	r1, sp, #88
	.loc	6 147 5                         @ ../Core/Src/usart.c:147:5
	str	r1, [sp, #48]                   @ 4-byte Spill
	bl	HAL_GPIO_Init
	ldr.w	r12, [sp, #36]                  @ 4-byte Reload
	ldr	r2, [sp, #40]                   @ 4-byte Reload
	ldr	r0, [sp, #44]                   @ 4-byte Reload
	ldr	r1, [sp, #48]                   @ 4-byte Reload
	ldr	r3, [sp, #52]                   @ 4-byte Reload
	mov.w	lr, #512
	.loc	6 149 25                        @ ../Core/Src/usart.c:149:25
	str.w	lr, [sp, #88]
	.loc	6 150 26                        @ ../Core/Src/usart.c:150:26
	str.w	r12, [sp, #92]
	.loc	6 151 26                        @ ../Core/Src/usart.c:151:26
	str	r3, [sp, #96]
	.loc	6 152 27                        @ ../Core/Src/usart.c:152:27
	str	r2, [sp, #100]
	.loc	6 153 31                        @ ../Core/Src/usart.c:153:31
	str	r0, [sp, #104]
	movs	r0, #0
	movt	r0, #16386
	.loc	6 154 5                         @ ../Core/Src/usart.c:154:5
	bl	HAL_GPIO_Init
	ldr	r1, [sp, #52]                   @ 4-byte Reload
	.loc	6 158 29                        @ ../Core/Src/usart.c:158:29
	movw	r0, :lower16:hdma_usart1_rx
	movt	r0, :upper16:hdma_usart1_rx
	str	r0, [sp, #56]                   @ 4-byte Spill
	movw	r2, #25736
	movt	r2, #16386
	str	r2, [r0]
	mov.w	r2, #134217728
	.loc	6 159 33                        @ ../Core/Src/usart.c:159:33
	str	r2, [r0, #4]
	.loc	6 160 35                        @ ../Core/Src/usart.c:160:35
	str	r1, [r0, #8]
	.loc	6 161 35                        @ ../Core/Src/usart.c:161:35
	str	r1, [r0, #12]
	mov.w	r2, #1024
	.loc	6 162 32                        @ ../Core/Src/usart.c:162:32
	str	r2, [r0, #16]
	.loc	6 163 45                        @ ../Core/Src/usart.c:163:45
	str	r1, [r0, #20]
	.loc	6 164 42                        @ ../Core/Src/usart.c:164:42
	str	r1, [r0, #24]
	mov.w	r2, #256
	.loc	6 165 30                        @ ../Core/Src/usart.c:165:30
	str	r2, [r0, #28]
	mov.w	r2, #131072
	.loc	6 166 34                        @ ../Core/Src/usart.c:166:34
	str	r2, [r0, #32]
	.loc	6 167 34                        @ ../Core/Src/usart.c:167:34
	str	r1, [r0, #36]
.Ltmp28:
	.loc	6 168 9                         @ ../Core/Src/usart.c:168:9
	bl	HAL_DMA_Init
.Ltmp29:
	.loc	6 168 9 is_stmt 0               @ ../Core/Src/usart.c:168:9
	cbz	r0, .LBB3_9
	b	.LBB3_8
.LBB3_8:
.Ltmp30:
	.loc	6 170 7 is_stmt 1               @ ../Core/Src/usart.c:170:7
	bl	Error_Handler
	.loc	6 171 5                         @ ../Core/Src/usart.c:171:5
	b	.LBB3_9
.Ltmp31:
.LBB3_9:
	.loc	6 173 5                         @ ../Core/Src/usart.c:173:5
	b	.LBB3_10
.LBB3_10:
.Ltmp32:
	.loc	6 173 10 is_stmt 0              @ ../Core/Src/usart.c:173:10
	ldr	r0, [sp, #108]
	.loc	6 173 30                        @ ../Core/Src/usart.c:173:30
	movw	r1, :lower16:hdma_usart1_rx
	movt	r1, :upper16:hdma_usart1_rx
	str	r1, [r0, #60]
	.loc	6 173 78                        @ ../Core/Src/usart.c:173:78
	ldr	r0, [sp, #108]
	.loc	6 173 75                        @ ../Core/Src/usart.c:173:75
	str	r0, [r1, #56]
	.loc	6 173 91                        @ ../Core/Src/usart.c:173:91
	b	.LBB3_11
.Ltmp33:
.LBB3_11:
	.loc	6 176 29 is_stmt 1              @ ../Core/Src/usart.c:176:29
	movw	r0, :lower16:hdma_usart1_tx
	movt	r0, :upper16:hdma_usart1_tx
	str	r0, [sp, #32]                   @ 4-byte Spill
	movw	r1, #25784
	movt	r1, #16386
	str	r1, [r0]
	mov.w	r1, #134217728
	.loc	6 177 33                        @ ../Core/Src/usart.c:177:33
	str	r1, [r0, #4]
	movs	r1, #64
	.loc	6 178 35                        @ ../Core/Src/usart.c:178:35
	str	r1, [r0, #8]
	movs	r1, #0
	.loc	6 179 35                        @ ../Core/Src/usart.c:179:35
	str	r1, [r0, #12]
	mov.w	r2, #1024
	.loc	6 180 32                        @ ../Core/Src/usart.c:180:32
	str	r2, [r0, #16]
	.loc	6 181 45                        @ ../Core/Src/usart.c:181:45
	str	r1, [r0, #20]
	.loc	6 182 42                        @ ../Core/Src/usart.c:182:42
	str	r1, [r0, #24]
	mov.w	r2, #256
	.loc	6 183 30                        @ ../Core/Src/usart.c:183:30
	str	r2, [r0, #28]
	.loc	6 184 34                        @ ../Core/Src/usart.c:184:34
	str	r1, [r0, #32]
	.loc	6 185 34                        @ ../Core/Src/usart.c:185:34
	str	r1, [r0, #36]
.Ltmp34:
	.loc	6 186 9                         @ ../Core/Src/usart.c:186:9
	bl	HAL_DMA_Init
.Ltmp35:
	.loc	6 186 9 is_stmt 0               @ ../Core/Src/usart.c:186:9
	cbz	r0, .LBB3_13
	b	.LBB3_12
.LBB3_12:
.Ltmp36:
	.loc	6 188 7 is_stmt 1               @ ../Core/Src/usart.c:188:7
	bl	Error_Handler
	.loc	6 189 5                         @ ../Core/Src/usart.c:189:5
	b	.LBB3_13
.Ltmp37:
.LBB3_13:
	.loc	6 191 5                         @ ../Core/Src/usart.c:191:5
	b	.LBB3_14
.LBB3_14:
.Ltmp38:
	.loc	6 191 10 is_stmt 0              @ ../Core/Src/usart.c:191:10
	ldr	r0, [sp, #108]
	.loc	6 191 30                        @ ../Core/Src/usart.c:191:30
	movw	r1, :lower16:hdma_usart1_tx
	movt	r1, :upper16:hdma_usart1_tx
	str	r1, [r0, #56]
	.loc	6 191 78                        @ ../Core/Src/usart.c:191:78
	ldr	r0, [sp, #108]
	.loc	6 191 75                        @ ../Core/Src/usart.c:191:75
	str	r0, [r1, #56]
	.loc	6 191 91                        @ ../Core/Src/usart.c:191:91
	b	.LBB3_15
.Ltmp39:
.LBB3_15:
	.loc	6 0 91                          @ ../Core/Src/usart.c:0:91
	movs	r0, #37
	str	r0, [sp, #28]                   @ 4-byte Spill
	movs	r1, #5
	movs	r2, #0
	.loc	6 194 5 is_stmt 1               @ ../Core/Src/usart.c:194:5
	bl	HAL_NVIC_SetPriority
	ldr	r0, [sp, #28]                   @ 4-byte Reload
	.loc	6 195 5                         @ ../Core/Src/usart.c:195:5
	bl	HAL_NVIC_EnableIRQ
	.loc	6 199 3                         @ ../Core/Src/usart.c:199:3
	b	.LBB3_42
.Ltmp40:
.LBB3_16:
	.loc	6 200 11                        @ ../Core/Src/usart.c:200:11
	ldr	r0, [sp, #108]
	.loc	6 200 23 is_stmt 0              @ ../Core/Src/usart.c:200:23
	ldr	r0, [r0]
	movw	r1, #18432
	movt	r1, #16384
.Ltmp41:
	.loc	6 200 11                        @ ../Core/Src/usart.c:200:11
	cmp	r0, r1
	bne	.LBB3_26
	b	.LBB3_17
.LBB3_17:
.Ltmp42:
	.loc	6 206 5 is_stmt 1               @ ../Core/Src/usart.c:206:5
	b	.LBB3_18
.LBB3_18:
	.loc	6 0 5 is_stmt 0                 @ ../Core/Src/usart.c:0:5
	movs	r0, #0
.Ltmp43:
	.loc	6 206 28                        @ ../Core/Src/usart.c:206:28
	str	r0, [sp, #72]
	movw	r0, #14400
	movt	r0, #16386
	.loc	6 206 117                       @ ../Core/Src/usart.c:206:117
	ldr	r1, [r0]
	orr	r1, r1, #262144
	str	r1, [r0]
	.loc	6 206 214                       @ ../Core/Src/usart.c:206:214
	ldr	r0, [r0]
	.loc	6 206 223                       @ ../Core/Src/usart.c:206:223
	and	r0, r0, #262144
	.loc	6 206 148                       @ ../Core/Src/usart.c:206:148
	str	r0, [sp, #72]
	.loc	6 206 252                       @ ../Core/Src/usart.c:206:252
	ldr	r0, [sp, #72]
	.loc	6 206 260                       @ ../Core/Src/usart.c:206:260
	b	.LBB3_19
.Ltmp44:
.LBB3_19:
	.loc	6 208 5 is_stmt 1               @ ../Core/Src/usart.c:208:5
	b	.LBB3_20
.LBB3_20:
	.loc	6 0 5 is_stmt 0                 @ ../Core/Src/usart.c:0:5
	movs	r0, #0
.Ltmp45:
	.loc	6 208 28                        @ ../Core/Src/usart.c:208:28
	str	r0, [sp, #68]
	movw	r0, #14384
	movt	r0, #16386
	.loc	6 208 117                       @ ../Core/Src/usart.c:208:117
	ldr	r1, [r0]
	orr	r1, r1, #4
	str	r1, [r0]
	.loc	6 208 213                       @ ../Core/Src/usart.c:208:213
	ldr	r0, [r0]
	.loc	6 208 222                       @ ../Core/Src/usart.c:208:222
	and	r0, r0, #4
	.loc	6 208 147                       @ ../Core/Src/usart.c:208:147
	str	r0, [sp, #68]
	.loc	6 208 250                       @ ../Core/Src/usart.c:208:250
	ldr	r0, [sp, #68]
	.loc	6 208 258                       @ ../Core/Src/usart.c:208:258
	b	.LBB3_21
.Ltmp46:
.LBB3_21:
	.loc	6 0 258                         @ ../Core/Src/usart.c:0:258
	mov.w	r0, #3072
	.loc	6 213 25 is_stmt 1              @ ../Core/Src/usart.c:213:25
	str	r0, [sp, #88]
	movs	r0, #2
	.loc	6 214 26                        @ ../Core/Src/usart.c:214:26
	str	r0, [sp, #92]
	movs	r0, #0
	.loc	6 215 26                        @ ../Core/Src/usart.c:215:26
	str	r0, [sp, #20]                   @ 4-byte Spill
	str	r0, [sp, #96]
	movs	r0, #3
	.loc	6 216 27                        @ ../Core/Src/usart.c:216:27
	str	r0, [sp, #100]
	movs	r0, #7
	.loc	6 217 31                        @ ../Core/Src/usart.c:217:31
	str	r0, [sp, #104]
	movw	r0, #2048
	movt	r0, #16386
	add	r1, sp, #88
	.loc	6 218 5                         @ ../Core/Src/usart.c:218:5
	bl	HAL_GPIO_Init
	ldr	r1, [sp, #20]                   @ 4-byte Reload
	.loc	6 222 29                        @ ../Core/Src/usart.c:222:29
	movw	r0, :lower16:hdma_usart3_rx
	movt	r0, :upper16:hdma_usart3_rx
	str	r0, [sp, #24]                   @ 4-byte Spill
	movw	r2, #24616
	movt	r2, #16386
	str	r2, [r0]
	mov.w	r2, #134217728
	.loc	6 223 33                        @ ../Core/Src/usart.c:223:33
	str	r2, [r0, #4]
	.loc	6 224 35                        @ ../Core/Src/usart.c:224:35
	str	r1, [r0, #8]
	.loc	6 225 35                        @ ../Core/Src/usart.c:225:35
	str	r1, [r0, #12]
	mov.w	r2, #1024
	.loc	6 226 32                        @ ../Core/Src/usart.c:226:32
	str	r2, [r0, #16]
	.loc	6 227 45                        @ ../Core/Src/usart.c:227:45
	str	r1, [r0, #20]
	.loc	6 228 42                        @ ../Core/Src/usart.c:228:42
	str	r1, [r0, #24]
	.loc	6 229 30                        @ ../Core/Src/usart.c:229:30
	str	r1, [r0, #28]
	.loc	6 230 34                        @ ../Core/Src/usart.c:230:34
	str	r1, [r0, #32]
	.loc	6 231 34                        @ ../Core/Src/usart.c:231:34
	str	r1, [r0, #36]
.Ltmp47:
	.loc	6 232 9                         @ ../Core/Src/usart.c:232:9
	bl	HAL_DMA_Init
.Ltmp48:
	.loc	6 232 9 is_stmt 0               @ ../Core/Src/usart.c:232:9
	cbz	r0, .LBB3_23
	b	.LBB3_22
.LBB3_22:
.Ltmp49:
	.loc	6 234 7 is_stmt 1               @ ../Core/Src/usart.c:234:7
	bl	Error_Handler
	.loc	6 235 5                         @ ../Core/Src/usart.c:235:5
	b	.LBB3_23
.Ltmp50:
.LBB3_23:
	.loc	6 237 5                         @ ../Core/Src/usart.c:237:5
	b	.LBB3_24
.LBB3_24:
.Ltmp51:
	.loc	6 237 10 is_stmt 0              @ ../Core/Src/usart.c:237:10
	ldr	r0, [sp, #108]
	.loc	6 237 30                        @ ../Core/Src/usart.c:237:30
	movw	r1, :lower16:hdma_usart3_rx
	movt	r1, :upper16:hdma_usart3_rx
	str	r1, [r0, #60]
	.loc	6 237 78                        @ ../Core/Src/usart.c:237:78
	ldr	r0, [sp, #108]
	.loc	6 237 75                        @ ../Core/Src/usart.c:237:75
	str	r0, [r1, #56]
	.loc	6 237 91                        @ ../Core/Src/usart.c:237:91
	b	.LBB3_25
.Ltmp52:
.LBB3_25:
	.loc	6 0 91                          @ ../Core/Src/usart.c:0:91
	movs	r0, #39
	str	r0, [sp, #16]                   @ 4-byte Spill
	movs	r1, #5
	movs	r2, #0
	.loc	6 240 5 is_stmt 1               @ ../Core/Src/usart.c:240:5
	bl	HAL_NVIC_SetPriority
	ldr	r0, [sp, #16]                   @ 4-byte Reload
	.loc	6 241 5                         @ ../Core/Src/usart.c:241:5
	bl	HAL_NVIC_EnableIRQ
	.loc	6 245 3                         @ ../Core/Src/usart.c:245:3
	b	.LBB3_41
.Ltmp53:
.LBB3_26:
	.loc	6 246 11                        @ ../Core/Src/usart.c:246:11
	ldr	r0, [sp, #108]
	.loc	6 246 23 is_stmt 0              @ ../Core/Src/usart.c:246:23
	ldr	r0, [r0]
	movw	r1, #5120
	movt	r1, #16385
.Ltmp54:
	.loc	6 246 11                        @ ../Core/Src/usart.c:246:11
	cmp	r0, r1
	bne.w	.LBB3_40
	b	.LBB3_27
.LBB3_27:
.Ltmp55:
	.loc	6 252 5 is_stmt 1               @ ../Core/Src/usart.c:252:5
	b	.LBB3_28
.LBB3_28:
	.loc	6 0 5 is_stmt 0                 @ ../Core/Src/usart.c:0:5
	movs	r0, #0
.Ltmp56:
	.loc	6 252 28                        @ ../Core/Src/usart.c:252:28
	str	r0, [sp, #64]
	movw	r0, #14404
	movt	r0, #16386
	.loc	6 252 117                       @ ../Core/Src/usart.c:252:117
	ldr	r1, [r0]
	orr	r1, r1, #32
	str	r1, [r0]
	.loc	6 252 213                       @ ../Core/Src/usart.c:252:213
	ldr	r0, [r0]
	.loc	6 252 222                       @ ../Core/Src/usart.c:252:222
	and	r0, r0, #32
	.loc	6 252 147                       @ ../Core/Src/usart.c:252:147
	str	r0, [sp, #64]
	.loc	6 252 250                       @ ../Core/Src/usart.c:252:250
	ldr	r0, [sp, #64]
	.loc	6 252 258                       @ ../Core/Src/usart.c:252:258
	b	.LBB3_29
.Ltmp57:
.LBB3_29:
	.loc	6 254 5 is_stmt 1               @ ../Core/Src/usart.c:254:5
	b	.LBB3_30
.LBB3_30:
	.loc	6 0 5 is_stmt 0                 @ ../Core/Src/usart.c:0:5
	movs	r0, #0
.Ltmp58:
	.loc	6 254 28                        @ ../Core/Src/usart.c:254:28
	str	r0, [sp, #60]
	movw	r0, #14384
	movt	r0, #16386
	.loc	6 254 117                       @ ../Core/Src/usart.c:254:117
	ldr	r1, [r0]
	orr	r1, r1, #64
	str	r1, [r0]
	.loc	6 254 213                       @ ../Core/Src/usart.c:254:213
	ldr	r0, [r0]
	.loc	6 254 222                       @ ../Core/Src/usart.c:254:222
	and	r0, r0, #64
	.loc	6 254 147                       @ ../Core/Src/usart.c:254:147
	str	r0, [sp, #60]
	.loc	6 254 250                       @ ../Core/Src/usart.c:254:250
	ldr	r0, [sp, #60]
	.loc	6 254 258                       @ ../Core/Src/usart.c:254:258
	b	.LBB3_31
.Ltmp59:
.LBB3_31:
	.loc	6 0 258                         @ ../Core/Src/usart.c:0:258
	mov.w	r0, #16896
	.loc	6 259 25 is_stmt 1              @ ../Core/Src/usart.c:259:25
	str	r0, [sp, #88]
	movs	r0, #2
	.loc	6 260 26                        @ ../Core/Src/usart.c:260:26
	str	r0, [sp, #92]
	movs	r0, #0
	.loc	6 261 26                        @ ../Core/Src/usart.c:261:26
	str	r0, [sp, #8]                    @ 4-byte Spill
	str	r0, [sp, #96]
	movs	r0, #3
	.loc	6 262 27                        @ ../Core/Src/usart.c:262:27
	str	r0, [sp, #100]
	movs	r0, #8
	.loc	6 263 31                        @ ../Core/Src/usart.c:263:31
	str	r0, [sp, #104]
	movw	r0, #6144
	movt	r0, #16386
	add	r1, sp, #88
	.loc	6 264 5                         @ ../Core/Src/usart.c:264:5
	bl	HAL_GPIO_Init
	ldr	r1, [sp, #8]                    @ 4-byte Reload
	.loc	6 268 29                        @ ../Core/Src/usart.c:268:29
	movw	r0, :lower16:hdma_usart6_rx
	movt	r0, :upper16:hdma_usart6_rx
	str	r0, [sp, #12]                   @ 4-byte Spill
	movw	r2, #25640
	movt	r2, #16386
	str	r2, [r0]
	mov.w	r2, #167772160
	.loc	6 269 33                        @ ../Core/Src/usart.c:269:33
	str	r2, [r0, #4]
	.loc	6 270 35                        @ ../Core/Src/usart.c:270:35
	str	r1, [r0, #8]
	.loc	6 271 35                        @ ../Core/Src/usart.c:271:35
	str	r1, [r0, #12]
	mov.w	r2, #1024
	.loc	6 272 32                        @ ../Core/Src/usart.c:272:32
	str	r2, [r0, #16]
	.loc	6 273 45                        @ ../Core/Src/usart.c:273:45
	str	r1, [r0, #20]
	.loc	6 274 42                        @ ../Core/Src/usart.c:274:42
	str	r1, [r0, #24]
	.loc	6 275 30                        @ ../Core/Src/usart.c:275:30
	str	r1, [r0, #28]
	mov.w	r2, #131072
	.loc	6 276 34                        @ ../Core/Src/usart.c:276:34
	str	r2, [r0, #32]
	.loc	6 277 34                        @ ../Core/Src/usart.c:277:34
	str	r1, [r0, #36]
.Ltmp60:
	.loc	6 278 9                         @ ../Core/Src/usart.c:278:9
	bl	HAL_DMA_Init
.Ltmp61:
	.loc	6 278 9 is_stmt 0               @ ../Core/Src/usart.c:278:9
	cbz	r0, .LBB3_33
	b	.LBB3_32
.LBB3_32:
.Ltmp62:
	.loc	6 280 7 is_stmt 1               @ ../Core/Src/usart.c:280:7
	bl	Error_Handler
	.loc	6 281 5                         @ ../Core/Src/usart.c:281:5
	b	.LBB3_33
.Ltmp63:
.LBB3_33:
	.loc	6 283 5                         @ ../Core/Src/usart.c:283:5
	b	.LBB3_34
.LBB3_34:
.Ltmp64:
	.loc	6 283 10 is_stmt 0              @ ../Core/Src/usart.c:283:10
	ldr	r0, [sp, #108]
	.loc	6 283 30                        @ ../Core/Src/usart.c:283:30
	movw	r1, :lower16:hdma_usart6_rx
	movt	r1, :upper16:hdma_usart6_rx
	str	r1, [r0, #60]
	.loc	6 283 78                        @ ../Core/Src/usart.c:283:78
	ldr	r0, [sp, #108]
	.loc	6 283 75                        @ ../Core/Src/usart.c:283:75
	str	r0, [r1, #56]
	.loc	6 283 91                        @ ../Core/Src/usart.c:283:91
	b	.LBB3_35
.Ltmp65:
.LBB3_35:
	.loc	6 286 29 is_stmt 1              @ ../Core/Src/usart.c:286:29
	movw	r0, :lower16:hdma_usart6_tx
	movt	r0, :upper16:hdma_usart6_tx
	str	r0, [sp, #4]                    @ 4-byte Spill
	movw	r1, #25760
	movt	r1, #16386
	str	r1, [r0]
	mov.w	r1, #167772160
	.loc	6 287 33                        @ ../Core/Src/usart.c:287:33
	str	r1, [r0, #4]
	movs	r1, #64
	.loc	6 288 35                        @ ../Core/Src/usart.c:288:35
	str	r1, [r0, #8]
	movs	r1, #0
	.loc	6 289 35                        @ ../Core/Src/usart.c:289:35
	str	r1, [r0, #12]
	mov.w	r2, #1024
	.loc	6 290 32                        @ ../Core/Src/usart.c:290:32
	str	r2, [r0, #16]
	.loc	6 291 45                        @ ../Core/Src/usart.c:291:45
	str	r1, [r0, #20]
	.loc	6 292 42                        @ ../Core/Src/usart.c:292:42
	str	r1, [r0, #24]
	.loc	6 293 30                        @ ../Core/Src/usart.c:293:30
	str	r1, [r0, #28]
	.loc	6 294 34                        @ ../Core/Src/usart.c:294:34
	str	r1, [r0, #32]
	.loc	6 295 34                        @ ../Core/Src/usart.c:295:34
	str	r1, [r0, #36]
.Ltmp66:
	.loc	6 296 9                         @ ../Core/Src/usart.c:296:9
	bl	HAL_DMA_Init
.Ltmp67:
	.loc	6 296 9 is_stmt 0               @ ../Core/Src/usart.c:296:9
	cbz	r0, .LBB3_37
	b	.LBB3_36
.LBB3_36:
.Ltmp68:
	.loc	6 298 7 is_stmt 1               @ ../Core/Src/usart.c:298:7
	bl	Error_Handler
	.loc	6 299 5                         @ ../Core/Src/usart.c:299:5
	b	.LBB3_37
.Ltmp69:
.LBB3_37:
	.loc	6 301 5                         @ ../Core/Src/usart.c:301:5
	b	.LBB3_38
.LBB3_38:
.Ltmp70:
	.loc	6 301 10 is_stmt 0              @ ../Core/Src/usart.c:301:10
	ldr	r0, [sp, #108]
	.loc	6 301 30                        @ ../Core/Src/usart.c:301:30
	movw	r1, :lower16:hdma_usart6_tx
	movt	r1, :upper16:hdma_usart6_tx
	str	r1, [r0, #56]
	.loc	6 301 78                        @ ../Core/Src/usart.c:301:78
	ldr	r0, [sp, #108]
	.loc	6 301 75                        @ ../Core/Src/usart.c:301:75
	str	r0, [r1, #56]
	.loc	6 301 91                        @ ../Core/Src/usart.c:301:91
	b	.LBB3_39
.Ltmp71:
.LBB3_39:
	.loc	6 0 91                          @ ../Core/Src/usart.c:0:91
	movs	r0, #71
	str	r0, [sp]                        @ 4-byte Spill
	movs	r1, #5
	movs	r2, #0
	.loc	6 304 5 is_stmt 1               @ ../Core/Src/usart.c:304:5
	bl	HAL_NVIC_SetPriority
	ldr	r0, [sp]                        @ 4-byte Reload
	.loc	6 305 5                         @ ../Core/Src/usart.c:305:5
	bl	HAL_NVIC_EnableIRQ
	.loc	6 309 3                         @ ../Core/Src/usart.c:309:3
	b	.LBB3_40
.Ltmp72:
.LBB3_40:
	.loc	6 0 3 is_stmt 0                 @ ../Core/Src/usart.c:0:3
	b	.LBB3_41
.LBB3_41:
	b	.LBB3_42
.LBB3_42:
	.loc	6 310 1 is_stmt 1               @ ../Core/Src/usart.c:310:1
	add	sp, #112
	pop	{r7, pc}
.Ltmp73:
.Lfunc_end3:
	.size	HAL_UART_MspInit, .Lfunc_end3-HAL_UART_MspInit
	.cfi_endproc
	.cantunwind
	.fnend
                                        @ -- End function
	.section	.text.HAL_UART_MspDeInit,"ax",%progbits
	.hidden	HAL_UART_MspDeInit              @ -- Begin function HAL_UART_MspDeInit
	.globl	HAL_UART_MspDeInit
	.p2align	2
	.type	HAL_UART_MspDeInit,%function
	.code	16                              @ @HAL_UART_MspDeInit
	.thumb_func
HAL_UART_MspDeInit:
.Lfunc_begin4:
	.loc	6 313 0                         @ ../Core/Src/usart.c:313:0
	.fnstart
	.cfi_startproc
@ %bb.0:
	.save	{r7, lr}
	push	{r7, lr}
	.cfi_def_cfa_offset 8
	.cfi_offset lr, -4
	.cfi_offset r7, -8
	.pad	#8
	sub	sp, #8
	.cfi_def_cfa_offset 16
	str	r0, [sp, #4]
.Ltmp74:
	.loc	6 315 6 prologue_end            @ ../Core/Src/usart.c:315:6
	ldr	r0, [sp, #4]
	.loc	6 315 18 is_stmt 0              @ ../Core/Src/usart.c:315:18
	ldr	r0, [r0]
	movw	r1, #4096
	movt	r1, #16385
.Ltmp75:
	.loc	6 315 6                         @ ../Core/Src/usart.c:315:6
	cmp	r0, r1
	bne	.LBB4_2
	b	.LBB4_1
.LBB4_1:
	.loc	6 0 6                           @ ../Core/Src/usart.c:0:6
	movw	r1, #14404
	movt	r1, #16386
.Ltmp76:
	.loc	6 321 76 is_stmt 1              @ ../Core/Src/usart.c:321:76
	ldr	r0, [r1]
	bic	r0, r0, #16
	str	r0, [r1]
	movw	r0, #1024
	movt	r0, #16386
	movs	r1, #128
	.loc	6 327 5                         @ ../Core/Src/usart.c:327:5
	bl	HAL_GPIO_DeInit
	movs	r0, #0
	movt	r0, #16386
	mov.w	r1, #512
	.loc	6 329 5                         @ ../Core/Src/usart.c:329:5
	bl	HAL_GPIO_DeInit
	.loc	6 332 20                        @ ../Core/Src/usart.c:332:20
	ldr	r0, [sp, #4]
	.loc	6 332 32 is_stmt 0              @ ../Core/Src/usart.c:332:32
	ldr	r0, [r0, #60]
	.loc	6 332 5                         @ ../Core/Src/usart.c:332:5
	bl	HAL_DMA_DeInit
	.loc	6 333 20 is_stmt 1              @ ../Core/Src/usart.c:333:20
	ldr	r0, [sp, #4]
	.loc	6 333 32 is_stmt 0              @ ../Core/Src/usart.c:333:32
	ldr	r0, [r0, #56]
	.loc	6 333 5                         @ ../Core/Src/usart.c:333:5
	bl	HAL_DMA_DeInit
	movs	r0, #37
	.loc	6 336 5 is_stmt 1               @ ../Core/Src/usart.c:336:5
	bl	HAL_NVIC_DisableIRQ
	.loc	6 340 3                         @ ../Core/Src/usart.c:340:3
	b	.LBB4_8
.Ltmp77:
.LBB4_2:
	.loc	6 341 11                        @ ../Core/Src/usart.c:341:11
	ldr	r0, [sp, #4]
	.loc	6 341 23 is_stmt 0              @ ../Core/Src/usart.c:341:23
	ldr	r0, [r0]
	movw	r1, #18432
	movt	r1, #16384
.Ltmp78:
	.loc	6 341 11                        @ ../Core/Src/usart.c:341:11
	cmp	r0, r1
	bne	.LBB4_4
	b	.LBB4_3
.LBB4_3:
	.loc	6 0 11                          @ ../Core/Src/usart.c:0:11
	movw	r1, #14400
	movt	r1, #16386
.Ltmp79:
	.loc	6 347 76 is_stmt 1              @ ../Core/Src/usart.c:347:76
	ldr	r0, [r1]
	bic	r0, r0, #262144
	str	r0, [r1]
	movw	r0, #2048
	movt	r0, #16386
	mov.w	r1, #3072
	.loc	6 353 5                         @ ../Core/Src/usart.c:353:5
	bl	HAL_GPIO_DeInit
	.loc	6 356 20                        @ ../Core/Src/usart.c:356:20
	ldr	r0, [sp, #4]
	.loc	6 356 32 is_stmt 0              @ ../Core/Src/usart.c:356:32
	ldr	r0, [r0, #60]
	.loc	6 356 5                         @ ../Core/Src/usart.c:356:5
	bl	HAL_DMA_DeInit
	movs	r0, #39
	.loc	6 359 5 is_stmt 1               @ ../Core/Src/usart.c:359:5
	bl	HAL_NVIC_DisableIRQ
	.loc	6 363 3                         @ ../Core/Src/usart.c:363:3
	b	.LBB4_7
.Ltmp80:
.LBB4_4:
	.loc	6 364 11                        @ ../Core/Src/usart.c:364:11
	ldr	r0, [sp, #4]
	.loc	6 364 23 is_stmt 0              @ ../Core/Src/usart.c:364:23
	ldr	r0, [r0]
	movw	r1, #5120
	movt	r1, #16385
.Ltmp81:
	.loc	6 364 11                        @ ../Core/Src/usart.c:364:11
	cmp	r0, r1
	bne	.LBB4_6
	b	.LBB4_5
.LBB4_5:
	.loc	6 0 11                          @ ../Core/Src/usart.c:0:11
	movw	r1, #14404
	movt	r1, #16386
.Ltmp82:
	.loc	6 370 76 is_stmt 1              @ ../Core/Src/usart.c:370:76
	ldr	r0, [r1]
	bic	r0, r0, #32
	str	r0, [r1]
	movw	r0, #6144
	movt	r0, #16386
	mov.w	r1, #16896
	.loc	6 376 5                         @ ../Core/Src/usart.c:376:5
	bl	HAL_GPIO_DeInit
	.loc	6 379 20                        @ ../Core/Src/usart.c:379:20
	ldr	r0, [sp, #4]
	.loc	6 379 32 is_stmt 0              @ ../Core/Src/usart.c:379:32
	ldr	r0, [r0, #60]
	.loc	6 379 5                         @ ../Core/Src/usart.c:379:5
	bl	HAL_DMA_DeInit
	.loc	6 380 20 is_stmt 1              @ ../Core/Src/usart.c:380:20
	ldr	r0, [sp, #4]
	.loc	6 380 32 is_stmt 0              @ ../Core/Src/usart.c:380:32
	ldr	r0, [r0, #56]
	.loc	6 380 5                         @ ../Core/Src/usart.c:380:5
	bl	HAL_DMA_DeInit
	movs	r0, #71
	.loc	6 383 5 is_stmt 1               @ ../Core/Src/usart.c:383:5
	bl	HAL_NVIC_DisableIRQ
	.loc	6 387 3                         @ ../Core/Src/usart.c:387:3
	b	.LBB4_6
.Ltmp83:
.LBB4_6:
	.loc	6 0 3 is_stmt 0                 @ ../Core/Src/usart.c:0:3
	b	.LBB4_7
.LBB4_7:
	b	.LBB4_8
.LBB4_8:
	.loc	6 388 1 is_stmt 1               @ ../Core/Src/usart.c:388:1
	add	sp, #8
	pop	{r7, pc}
.Ltmp84:
.Lfunc_end4:
	.size	HAL_UART_MspDeInit, .Lfunc_end4-HAL_UART_MspDeInit
	.cfi_endproc
	.cantunwind
	.fnend
                                        @ -- End function
	.hidden	huart1                          @ @huart1
	.type	huart1,%object
	.section	.bss.huart1,"aw",%nobits
	.globl	huart1
	.p2align	2
huart1:
	.zero	72
	.size	huart1, 72

	.hidden	huart3                          @ @huart3
	.type	huart3,%object
	.section	.bss.huart3,"aw",%nobits
	.globl	huart3
	.p2align	2
huart3:
	.zero	72
	.size	huart3, 72

	.hidden	huart6                          @ @huart6
	.type	huart6,%object
	.section	.bss.huart6,"aw",%nobits
	.globl	huart6
	.p2align	2
huart6:
	.zero	72
	.size	huart6, 72

	.hidden	hdma_usart1_rx                  @ @hdma_usart1_rx
	.type	hdma_usart1_rx,%object
	.section	.bss.hdma_usart1_rx,"aw",%nobits
	.globl	hdma_usart1_rx
	.p2align	2
hdma_usart1_rx:
	.zero	96
	.size	hdma_usart1_rx, 96

	.hidden	hdma_usart1_tx                  @ @hdma_usart1_tx
	.type	hdma_usart1_tx,%object
	.section	.bss.hdma_usart1_tx,"aw",%nobits
	.globl	hdma_usart1_tx
	.p2align	2
hdma_usart1_tx:
	.zero	96
	.size	hdma_usart1_tx, 96

	.hidden	hdma_usart3_rx                  @ @hdma_usart3_rx
	.type	hdma_usart3_rx,%object
	.section	.bss.hdma_usart3_rx,"aw",%nobits
	.globl	hdma_usart3_rx
	.p2align	2
hdma_usart3_rx:
	.zero	96
	.size	hdma_usart3_rx, 96

	.hidden	hdma_usart6_rx                  @ @hdma_usart6_rx
	.type	hdma_usart6_rx,%object
	.section	.bss.hdma_usart6_rx,"aw",%nobits
	.globl	hdma_usart6_rx
	.p2align	2
hdma_usart6_rx:
	.zero	96
	.size	hdma_usart6_rx, 96

	.hidden	hdma_usart6_tx                  @ @hdma_usart6_tx
	.type	hdma_usart6_tx,%object
	.section	.bss.hdma_usart6_tx,"aw",%nobits
	.globl	hdma_usart6_tx
	.p2align	2
hdma_usart6_tx:
	.zero	96
	.size	hdma_usart6_tx, 96

	.file	7 "D:\\horizon\\Horizon_Infantry (2)\\MDK-ARM" "../Drivers/STM32F4xx_HAL_Driver/Inc\\stm32f4xx_hal_gpio.h"
	.section	".note.GNU-stack","",%progbits
	.eabi_attribute	30, 6	@ Tag_ABI_optimization_goals
	.ARM_attribute	16, 1	@ Tag_AV_eba