	.text
	.syntax unified
	.eabi_attribute	67, "2.09"	@ Tag_conformance
	.cpu	cortex-m4
	.eabi_attribute	6, 13	@ Tag_CPU_arch
	.eabi_attribute	7, 77	@ Tag_CPU_arch_profile
	.eabi_attribute	8, 0	@ Tag_ARM_ISA_use
	.eabi_attribute	9, 2	@ Tag_THUMB_ISA_use
	.fpu	fpv4-sp-d16
	.eabi_attribute	27, 1	@ Tag_ABI_HardFP_use
	.eabi_attribute	36, 1	@ Tag_FP_HP_extension
	.eabi_attribute	34, 1	@ Tag_CPU_unaligned_access
	.eabi_attribute	17, 1	@ Tag_ABI_PCS_GOT_use
	.eabi_attribute	20, 2	@ Tag_ABI_FP_denormal
	.eabi_attribute	21, 0	@ Tag_ABI_FP_exceptions
	.eabi_attribute	23, 3	@ Tag_ABI_FP_number_model
	.eabi_attribute	24, 1	@ Tag_ABI_align_needed
	.eabi_attribute	25, 1	@ Tag_ABI_align_preserved
	.eabi_attribute	28, 1	@ Tag_ABI_VFP_args
	.eabi_attribute	38, 1	@ Tag_ABI_FP_16bit_format
	.eabi_attribute	18, 2	@ Tag_ABI_PCS_wchar_t
	.eabi_attribute	26, 1	@ Tag_ABI_enum_size
	.eabi_attribute	14, 0	@ Tag_ABI_PCS_R9_use
	.file	"usbd_desc.c"
	.file	1 "D:\\" "kevil\\ARM\\ARMCLANG\\Bin\\..\\include\\stdint.h"
	.file	2 "D:\\horizon\\Horizon_Infantry (2)\\MDK-ARM" "../Middlewares/ST/STM32_USB_Device_Library/Core/Inc/usbd_def.h"
	.file	3 "D:\\horizon\\Horizon_Infantry (2)\\MDK-ARM" "../USB_DEVICE/App/usbd_desc.c"
	.section	.text.USBD_FS_DeviceDescriptor,"ax",%progbits
	.hidden	USBD_FS_DeviceDescriptor        @ -- Begin function USBD_FS_DeviceDescriptor
	.globl	USBD_FS_DeviceDescriptor
	.p2align	2
	.type	USBD_FS_DeviceDescriptor,%function
	.code	16                              @ @USBD_FS_DeviceDescriptor
	.thumb_func
USBD_FS_DeviceDescriptor:
.Lfunc_begin0:
	.loc	3 259 0                         @ ../USB_DEVICE/App/usbd_desc.c:259:0
	.fnstart
	.cfi_sections .debug_frame
	.cfi_startproc
@ %bb.0:
	.pad	#8
	sub	sp, #8
	.cfi_def_cfa_offset 8
                                        @ kill: def $r2 killed $r0
	strb.w	r0, [sp, #7]
	str	r1, [sp]
.Ltmp0:
	.loc	3 261 4 prologue_end            @ ../USB_DEVICE/App/usbd_desc.c:261:4
	ldr	r1, [sp]
	movs	r0, #18
	.loc	3 261 11 is_stmt 0              @ ../USB_DEVICE/App/usbd_desc.c:261:11
	strh	r0, [r1]
	.loc	3 262 3 is_stmt 1               @ ../USB_DEVICE/App/usbd_desc.c:262:3
	movw	r0, :lower16:USBD_FS_DeviceDesc
	movt	r0, :upper16:USBD_FS_DeviceDesc
	add	sp, #8
	bx	lr
.Ltmp1:
.Lfunc_end0:
	.size	USBD_FS_DeviceDescriptor, .Lfunc_end0-USBD_FS_DeviceDescriptor
	.cfi_endproc
	.cantunwind
	.fnend
                                        @ -- End function
	.section	.text.USBD_FS_LangIDStrDescriptor,"ax",%progbits
	.hidden	USBD_FS_LangIDStrDescriptor     @ -- Begin function USBD_FS_LangIDStrDescriptor
	.globl	USBD_FS_LangIDStrDescriptor
	.p2align	2
	.type	USBD_FS_LangIDStrDescriptor,%function
	.code	16                              @ @USBD_FS_LangIDStrDescriptor
	.thumb_func
USBD_FS_LangIDStrDescriptor:
.Lfunc_begin1:
	.loc	3 272 0                         @ ../USB_DEVICE/App/usbd_desc.c:272:0
	.fnstart
	.cfi_startproc
@ %bb.0:
	.pad	#8
	sub	sp, #8
	.cfi_def_cfa_offset 8
                                        @ kill: def $r2 killed $r0
	strb.w	r0, [sp, #7]
	str	r1, [sp]
.Ltmp2:
	.loc	3 274 4 prologue_end            @ ../USB_DEVICE/App/usbd_desc.c:274:4
	ldr	r1, [sp]
	movs	r0, #4
	.loc	3 274 11 is_stmt 0              @ ../USB_DEVICE/App/usbd_desc.c:274:11
	strh	r0, [r1]
	.loc	3 275 3 is_stmt 1               @ ../USB_DEVICE/App/usbd_desc.c:275:3
	movw	r0, :lower16:USBD_LangIDDesc
	movt	r0, :upper16:USBD_LangIDDesc
	add	sp, #8
	bx	lr
.Ltmp3:
.Lfunc_end1:
	.size	USBD_FS_LangIDStrDescriptor, .Lfunc_end1-USBD_FS_LangIDStrDescriptor
	.cfi_endproc
	.cantunwind
	.fnend
                                        @ -- End function
	.section	.text.USBD_FS_ManufacturerStrDescriptor,"ax",%progbits
	.hidden	USBD_FS_ManufacturerStrDescriptor @ -- Begin function USBD_FS_ManufacturerStrDescriptor
	.globl	USBD_FS_ManufacturerStrDescriptor
	.p2align	2
	.type	USBD_FS_ManufacturerStrDescriptor,%function
	.code	16                              @ @USBD_FS_ManufacturerStrDescriptor
	.thumb_func
USBD_FS_ManufacturerStrDescriptor:
.Lfunc_begin2:
	.loc	3 304 0                         @ ../USB_DEVICE/App/usbd_desc.c:304:0
	.fnstart
	.cfi_startproc
@ %bb.0:
	.save	{r7, lr}
	push	{r7, lr}
	.cfi_def_cfa_offset 8
	.cfi_offset lr, -4
	.cfi_offset r7, -8
	.pad	#16
	sub	sp, #16
	.cfi_def_cfa_offset 24
                                        @ kill: def $r2 killed $r0
	strb.w	r0, [sp, #15]
	str	r1, [sp, #8]
.Ltmp4:
	.loc	3 306 65 prologue_end           @ ../USB_DEVICE/App/usbd_desc.c:306:65
	ldr	r2, [sp, #8]
	.loc	3 306 3 is_stmt 0               @ ../USB_DEVICE/App/usbd_desc.c:306:3
	movw	r0, :lower16:.L.str.1
	movt	r0, :upper16:.L.str.1
	movw	r1, :lower16:USBD_StrDesc
	movt	r1, :upper16:USBD_StrDesc
	str	r1, [sp, #4]                    @ 4-byte Spill
	bl	USBD_GetString
	ldr	r0, [sp, #4]                    @ 4-byte Reload
	.loc	3 307 3 is_stmt 1               @ ../USB_DEVICE/App/usbd_desc.c:307:3
	add	sp, #16
	pop	{r7, pc}
.Ltmp5:
.Lfunc_end2:
	.size	USBD_FS_ManufacturerStrDescriptor, .Lfunc_end2-USBD_FS_ManufacturerStrDescriptor
	.cfi_endproc
	.cantunwind
	.fnend
                                        @ -- End function
	.section	.text.USBD_FS_ProductStrDescriptor,"ax",%progbits
	.hidden	USBD_FS_ProductStrDescriptor    @ -- Begin function USBD_FS_ProductStrDescriptor
	.globl	USBD_FS_ProductStrDescriptor
	.p2align	2
	.type	USBD_FS_ProductStrDescriptor,%function
	.code	16                              @ @USBD_FS_ProductStrDescriptor
	.thumb_func
USBD_FS_ProductStrDescriptor:
.Lfunc_begin3:
	.loc	3 285 0                         @ ../USB_DEVICE/App/usbd_desc.c:285:0
	.fnstart
	.cfi_startproc
@ %bb.0:
	.save	{r7, lr}
	push	{r7, lr}
	.cfi_def_cfa_offset 8
	.cfi_offset lr, -4
	.cfi_offset r7, -8
	.pad	#8
	sub	sp, #8
	.cfi_def_cfa_offset 16
                                        @ kill: def $r2 killed $r0
	strb.w	r0, [sp, #7]
	str	r1, [sp]
.Ltmp6:
	.loc	3 286 6 prologue_end            @ ../USB_DEVICE/App/usbd_desc.c:286:6
	ldrb.w	r0, [sp, #7]
.Ltmp7:
	.loc	3 286 6 is_stmt 0               @ ../USB_DEVICE/App/usbd_desc.c:286:6
	cbnz	r0, .LBB3_2
	b	.LBB3_1
.LBB3_1:
.Ltmp8:
	.loc	3 288 70 is_stmt 1              @ ../USB_DEVICE/App/usbd_desc.c:288:70
	ldr	r2, [sp]
	.loc	3 288 5 is_stmt 0               @ ../USB_DEVICE/App/usbd_desc.c:288:5
	movw	r0, :lower16:.L.str
	movt	r0, :upper16:.L.str
	movw	r1, :lower16:USBD_StrDesc
	movt	r1, :upper16:USBD_StrDesc
	bl	USBD_GetString
	.loc	3 289 3 is_stmt 1               @ ../USB_DEVICE/App/usbd_desc.c:289:3
	b	.LBB3_3
.Ltmp9:
.LBB3_2:
	.loc	3 292 70                        @ ../USB_DEVICE/App/usbd_desc.c:292:70
	ldr	r2, [sp]
	.loc	3 292 5 is_stmt 0               @ ../USB_DEVICE/App/usbd_desc.c:292:5
	movw	r0, :lower16:.L.str
	movt	r0, :upper16:.L.str
	movw	r1, :lower16:USBD_StrDesc
	movt	r1, :upper16:USBD_StrDesc
	bl	USBD_GetString
	b	.LBB3_3
.Ltmp10:
.LBB3_3:
	.loc	3 294 3 is_stmt 1               @ ../USB_DEVICE/App/usbd_desc.c:294:3
	movw	r0, :lower16:USBD_StrDesc
	movt	r0, :upper16:USBD_StrDesc
	add	sp, #8
	pop	{r7, pc}
.Ltmp11:
.Lfunc_end3:
	.size	USBD_FS_ProductStrDescriptor, .Lfunc_end3-USBD_FS_ProductStrDescriptor
	.cfi_endproc
	.cantunwind
	.fnend
                                        @ -- End function
	.section	.text.USBD_FS_SerialStrDescriptor,"ax",%progbits
	.hidden	USBD_FS_SerialStrDescriptor     @ -- Begin function USBD_FS_SerialStrDescriptor
	.globl	USBD_FS_SerialStrDescriptor
	.p2align	2
	.type	USBD_FS_SerialStrDescriptor,%function
	.code	16                              @ @USBD_FS_SerialStrDescriptor
	.thumb_func
USBD_FS_SerialStrDescriptor:
.Lfunc_begin4:
	.loc	3 317 0                         @ ../USB_DEVICE/App/usbd_desc.c:317:0
	.fnstart
	.cfi_startproc
@ %bb.0:
	.save	{r7, lr}
	push	{r7, lr}
	.cfi_def_cfa_offset 8
	.cfi_offset lr, -4
	.cfi_offset r7, -8
	.pad	#8
	sub	sp, #8
	.cfi_def_cfa_offset 16
                                        @ kill: def $r2 killed $r0
	strb.w	r0, [sp, #7]
	str	r1, [sp]
.Ltmp12:
	.loc	3 319 4 prologue_end            @ ../USB_DEVICE/App/usbd_desc.c:319:4
	ldr	r1, [sp]
	movs	r0, #26
	.loc	3 319 11 is_stmt 0              @ ../USB_DEVICE/App/usbd_desc.c:319:11
	strh	r0, [r1]
	.loc	3 323 3 is_stmt 1               @ ../USB_DEVICE/App/usbd_desc.c:323:3
	bl	Get_SerialNum
	.loc	3 327 3                         @ ../USB_DEVICE/App/usbd_desc.c:327:3
	movw	r0, :lower16:USBD_StringSerial
	movt	r0, :upper16:USBD_StringSerial
	add	sp, #8
	pop	{r7, pc}
.Ltmp13:
.Lfunc_end4:
	.size	USBD_FS_SerialStrDescriptor, .Lfunc_end4-USBD_FS_SerialStrDescriptor
	.cfi_endproc
	.cantunwind
	.fnend
                                        @ -- End function
	.section	.text.USBD_FS_ConfigStrDescriptor,"ax",%progbits
	.hidden	USBD_FS_ConfigStrDescriptor     @ -- Begin function USBD_FS_ConfigStrDescriptor
	.globl	USBD_FS_ConfigStrDescriptor
	.p2align	2
	.type	USBD_FS_ConfigStrDescriptor,%function
	.code	16                              @ @USBD_FS_ConfigStrDescriptor
	.thumb_func
USBD_FS_ConfigStrDescriptor:
.Lfunc_begin5:
	.loc	3 337 0                         @ ../USB_DEVICE/App/usbd_desc.c:337:0
	.fnstart
	.cfi_startproc
@ %bb.0:
	.save	{r7, lr}
	push	{r7, lr}
	.cfi_def_cfa_offset 8
	.cfi_offset lr, -4
	.cfi_offset r7, -8
	.pad	#8
	sub	sp, #8
	.cfi_def_cfa_offset 16
                                        @ kill: def $r2 killed $r0
	strb.w	r0, [sp, #7]
	str	r1, [sp]
.Ltmp14:
	.loc	3 338 6 prologue_end            @ ../USB_DEVICE/App/usbd_desc.c:338:6
	ldrb.w	r0, [sp, #7]
.Ltmp15:
	.loc	3 338 6 is_stmt 0               @ ../USB_DEVICE/App/usbd_desc.c:338:6
	cbnz	r0, .LBB5_2
	b	.LBB5_1
.LBB5_1:
.Ltmp16:
	.loc	3 340 59 is_stmt 1              @ ../USB_DEVICE/App/usbd_desc.c:340:59
	ldr	r2, [sp]
	.loc	3 340 5 is_stmt 0               @ ../USB_DEVICE/App/usbd_desc.c:340:5
	movw	r0, :lower16:.L.str.2
	movt	r0, :upper16:.L.str.2
	movw	r1, :lower16:USBD_StrDesc
	movt	r1, :upper16:USBD_StrDesc
	bl	USBD_GetString
	.loc	3 341 3 is_stmt 1               @ ../USB_DEVICE/App/usbd_desc.c:341:3
	b	.LBB5_3
.Ltmp17:
.LBB5_2:
	.loc	3 344 59                        @ ../USB_DEVICE/App/usbd_desc.c:344:59
	ldr	r2, [sp]
	.loc	3 344 5 is_stmt 0               @ ../USB_DEVICE/App/usbd_desc.c:344:5
	movw	r0, :lower16:.L.str.2
	movt	r0, :upper16:.L.str.2
	movw	r1, :lower16:USBD_StrDesc
	movt	r1, :upper16:USBD_StrDesc
	bl	USBD_GetString
	b	.LBB5_3
.Ltmp18:
.LBB5_3:
	.loc	3 346 3 is_stmt 1               @ ../USB_DEVICE/App/usbd_desc.c:346:3
	movw	r0, :lower16:USBD_StrDesc
	movt	r0, :upper16:USBD_StrDesc
	add	sp, #8
	pop	{r7, pc}
.Ltmp19:
.Lfunc_end5:
	.size	USBD_FS_ConfigStrDescriptor, .Lfunc_end5-USBD_FS_ConfigStrDescriptor
	.cfi_endproc
	.cantunwind
	.fnend
                                        @ -- End function
	.section	.text.USBD_FS_InterfaceStrDescriptor,"ax",%progbits
	.hidden	USBD_FS_InterfaceStrDescriptor  @ -- Begin function USBD_FS_InterfaceStrDescriptor
	.globl	USBD_FS_InterfaceStrDescriptor
	.p2align	2
	.type	USBD_FS_InterfaceStrDescriptor,%function
	.code	16                              @ @USBD_FS_InterfaceStrDescriptor
	.thumb_func
USBD_FS_InterfaceStrDescriptor:
.Lfunc_begin6:
	.loc	3 356 0                         @ ../USB_DEVICE/App/usbd_desc.c:356:0
	.fnstart
	.cfi_startproc
@ %bb.0:
	.save	{r7, lr}
	push	{r7, lr}
	.cfi_def_cfa_offset 8
	.cfi_offset lr, -4
	.cfi_offset r7, -8
	.pad	#8
	sub	sp, #8
	.cfi_def_cfa_offset 16
                                        @ kill: def $r2 killed $r0
	strb.w	r0, [sp, #7]
	str	r1, [sp]
.Ltmp20:
	.loc	3 357 6 prologue_end            @ ../USB_DEVICE/App/usbd_desc.c:357:6
	ldrb.w	r0, [sp, #7]
.Ltmp21:
	.loc	3 357 6 is_stmt 0               @ ../USB_DEVICE/App/usbd_desc.c:357:6
	cbnz	r0, .LBB6_2
	b	.LBB6_1
.LBB6_1:
.Ltmp22:
	.loc	3 359 62 is_stmt 1              @ ../USB_DEVICE/App/usbd_desc.c:359:62
	ldr	r2, [sp]
	.loc	3 359 5 is_stmt 0               @ ../USB_DEVICE/App/usbd_desc.c:359:5
	movw	r0, :lower16:.L.str.3
	movt	r0, :upper16:.L.str.3
	movw	r1, :lower16:USBD_StrDesc
	movt	r1, :upper16:USBD_StrDesc
	bl	USBD_GetString
	.loc	3 360 3 is_stmt 1               @ ../USB_DEVICE/App/usbd_desc.c:360:3
	b	.LBB6_3
.Ltmp23:
.LBB6_2:
	.loc	3 363 62                        @ ../USB_DEVICE/App/usbd_desc.c:363:62
	ldr	r2, [sp]
	.loc	3 363 5 is_stmt 0               @ ../USB_DEVICE/App/usbd_desc.c:363:5
	movw	r0, :lower16:.L.str.3
	movt	r0, :upper16:.L.str.3
	movw	r1, :lower16:USBD_StrDesc
	movt	r1, :upper16:USBD_StrDesc
	bl	USBD_GetString
	b	.LBB6_3
.Ltmp24:
.LBB6_3:
	.loc	3 365 3 is_stmt 1               @ ../USB_DEVICE/App/usbd_desc.c:365:3
	movw	r0, :lower16:USBD_StrDesc
	movt	r0, :upper16:USBD_StrDesc
	add	sp, #8
	pop	{r7, pc}
.Ltmp25:
.Lfunc_end6:
	.size	USBD_FS_InterfaceStrDescriptor, .Lfunc_end6-USBD_FS_InterfaceStrDescriptor
	.cfi_endproc
	.cantunwind
	.fnend
                                        @ -- End function
	.section	.text.Get_SerialNum,"ax",%progbits
	.p2align	2                               @ -- Begin function Get_SerialNum
	.type	Get_SerialNum,%function
	.code	16                              @ @Get_SerialNum
	.thumb_func
Get_SerialNum:
.Lfunc_begin7:
	.loc	3 389 0                         @ ../USB_DEVICE/App/usbd_desc.c:389:0
	.fnstart
	.cfi_startproc
@ %bb.0:
	.save	{r7, lr}
	push	{r7, lr}
	.cfi_def_cfa_offset 8
	.cfi_offset lr, -4
	.cfi_offset r7, -8
	.pad	#16
	sub	sp, #16
	.cfi_def_cfa_offset 24
	movw	r0, #31248
	movt	r0, #8191
.Ltmp26:
	.loc	3 394 19 prologue_end           @ ../USB_DEVICE/App/usbd_desc.c:394:19
	ldr	r0, [r0]
	.loc	3 394 17 is_stmt 0              @ ../USB_DEVICE/App/usbd_desc.c:394:17
	str	r0, [sp, #12]
	movw	r0, #31252
	movt	r0, #8191
	.loc	3 395 19 is_stmt 1              @ ../USB_DEVICE/App/usbd_desc.c:395:19
	ldr	r0, [r0]
	.loc	3 395 17 is_stmt 0              @ ../USB_DEVICE/App/usbd_desc.c:395:17
	str	r0, [sp, #8]
	movw	r0, #31256
	movt	r0, #8191
	.loc	3 396 19 is_stmt 1              @ ../USB_DEVICE/App/usbd_desc.c:396:19
	ldr	r0, [r0]
	.loc	3 396 17 is_stmt 0              @ ../USB_DEVICE/App/usbd_desc.c:396:17
	str	r0, [sp, #4]
	.loc	3 398 20 is_stmt 1              @ ../USB_DEVICE/App/usbd_desc.c:398:20
	ldr	r1, [sp, #4]
	.loc	3 398 17 is_stmt 0              @ ../USB_DEVICE/App/usbd_desc.c:398:17
	ldr	r0, [sp, #12]
	add	r0, r1
	str	r0, [sp, #12]
.Ltmp27:
	.loc	3 400 7 is_stmt 1               @ ../USB_DEVICE/App/usbd_desc.c:400:7
	ldr	r0, [sp, #12]
.Ltmp28:
	.loc	3 400 7 is_stmt 0               @ ../USB_DEVICE/App/usbd_desc.c:400:7
	cbz	r0, .LBB7_2
	b	.LBB7_1
.LBB7_1:
.Ltmp29:
	.loc	3 402 18 is_stmt 1              @ ../USB_DEVICE/App/usbd_desc.c:402:18
	ldr	r0, [sp, #12]
	.loc	3 402 5 is_stmt 0               @ ../USB_DEVICE/App/usbd_desc.c:402:5
	movw	r1, :lower16:USBD_StringSerial
	movt	r1, :upper16:USBD_StringSerial
	str	r1, [sp]                        @ 4-byte Spill
	adds	r1, #2
	movs	r2, #8
	bl	IntToUnicode
	ldr	r1, [sp]                        @ 4-byte Reload
	.loc	3 403 18 is_stmt 1              @ ../USB_DEVICE/App/usbd_desc.c:403:18
	ldr	r0, [sp, #8]
	.loc	3 403 5 is_stmt 0               @ ../USB_DEVICE/App/usbd_desc.c:403:5
	adds	r1, #18
	movs	r2, #4
	bl	IntToUnicode
	.loc	3 404 3 is_stmt 1               @ ../USB_DEVICE/App/usbd_desc.c:404:3
	b	.LBB7_2
.Ltmp30:
.LBB7_2:
	.loc	3 405 1                         @ ../USB_DEVICE/App/usbd_desc.c:405:1
	add	sp, #16
	pop	{r7, pc}
.Ltmp31:
.Lfunc_end7:
	.size	Get_SerialNum, .Lfunc_end7-Get_SerialNum
	.cfi_endproc
	.cantunwind
	.fnend
                                        @ -- End function
	.section	.text.IntToUnicode,"ax",%progbits
	.p2align	2                               @ -- Begin function IntToUnicode
	.type	IntToUnicode,%function
	.code	16                              @ @IntToUnicode
	.thumb_func
IntToUnicode:
.Lfunc_begin8:
	.loc	3 415 0                         @ ../USB_DEVICE/App/usbd_desc.c:415:0
	.fnstart
	.cfi_startproc
@ %bb.0:
	.pad	#12
	sub	sp, #12
	.cfi_def_cfa_offset 12
                                        @ kill: def $r3 killed $r2
	str	r0, [sp, #8]
	str	r1, [sp, #4]
	strb.w	r2, [sp, #3]
	movs	r0, #0
.Ltmp32:
	.loc	3 416 11 prologue_end           @ ../USB_DEVICE/App/usbd_desc.c:416:11
	strb.w	r0, [sp, #2]
.Ltmp33:
	.loc	3 418 12                        @ ../USB_DEVICE/App/usbd_desc.c:418:12
	strb.w	r0, [sp, #2]
	.loc	3 418 8 is_stmt 0               @ ../USB_DEVICE/App/usbd_desc.c:418:8
	b	.LBB8_1
.LBB8_1:                                @ =>This Inner Loop Header: Depth=1
.Ltmp34:
	.loc	3 418 17                        @ ../USB_DEVICE/App/usbd_desc.c:418:17
	ldrb.w	r0, [sp, #2]
	.loc	3 418 23                        @ ../USB_DEVICE/App/usbd_desc.c:418:23
	ldrb.w	r1, [sp, #3]
.Ltmp35:
	.loc	3 418 3                         @ ../USB_DEVICE/App/usbd_desc.c:418:3
	cmp	r0, r1
	bge	.LBB8_7
	b	.LBB8_2
.LBB8_2:                                @   in Loop: Header=BB8_1 Depth=1
.Ltmp36:
	.loc	3 420 11 is_stmt 1              @ ../USB_DEVICE/App/usbd_desc.c:420:11
	ldr	r0, [sp, #8]
	.loc	3 420 17 is_stmt 0              @ ../USB_DEVICE/App/usbd_desc.c:420:17
	lsrs	r0, r0, #28
.Ltmp37:
	.loc	3 420 9                         @ ../USB_DEVICE/App/usbd_desc.c:420:9
	cmp	r0, #9
	bhi	.LBB8_4
	b	.LBB8_3
.LBB8_3:                                @   in Loop: Header=BB8_1 Depth=1
.Ltmp38:
	.loc	3 422 24 is_stmt 1              @ ../USB_DEVICE/App/usbd_desc.c:422:24
	ldr	r0, [sp, #8]
	.loc	3 422 30 is_stmt 0              @ ../USB_DEVICE/App/usbd_desc.c:422:30
	lsrs	r0, r0, #28
	.loc	3 422 37                        @ ../USB_DEVICE/App/usbd_desc.c:422:37
	adds	r0, #48
	.loc	3 422 7                         @ ../USB_DEVICE/App/usbd_desc.c:422:7
	ldr	r1, [sp, #4]
	.loc	3 422 16                        @ ../USB_DEVICE/App/usbd_desc.c:422:16
	ldrb.w	r2, [sp, #2]
	.loc	3 422 21                        @ ../USB_DEVICE/App/usbd_desc.c:422:21
	strb.w	r0, [r1, r2, lsl #1]
	.loc	3 423 5 is_stmt 1               @ ../USB_DEVICE/App/usbd_desc.c:423:5
	b	.LBB8_5
.Ltmp39:
.LBB8_4:                                @   in Loop: Header=BB8_1 Depth=1
	.loc	3 426 24                        @ ../USB_DEVICE/App/usbd_desc.c:426:24
	ldr	r1, [sp, #8]
	movs	r0, #55
	.loc	3 426 43 is_stmt 0              @ ../USB_DEVICE/App/usbd_desc.c:426:43
	add.w	r0, r0, r1, lsr #28
	.loc	3 426 7                         @ ../USB_DEVICE/App/usbd_desc.c:426:7
	ldr	r1, [sp, #4]
	.loc	3 426 16                        @ ../USB_DEVICE/App/usbd_desc.c:426:16
	ldrb.w	r2, [sp, #2]
	.loc	3 426 21                        @ ../USB_DEVICE/App/usbd_desc.c:426:21
	strb.w	r0, [r1, r2, lsl #1]
	b	.LBB8_5
.Ltmp40:
.LBB8_5:                                @   in Loop: Header=BB8_1 Depth=1
	.loc	3 429 13 is_stmt 1              @ ../USB_DEVICE/App/usbd_desc.c:429:13
	ldr	r0, [sp, #8]
	.loc	3 429 19 is_stmt 0              @ ../USB_DEVICE/App/usbd_desc.c:429:19
	lsls	r0, r0, #4
	.loc	3 429 11                        @ ../USB_DEVICE/App/usbd_desc.c:429:11
	str	r0, [sp, #8]
	.loc	3 431 5 is_stmt 1               @ ../USB_DEVICE/App/usbd_desc.c:431:5
	ldr	r0, [sp, #4]
	.loc	3 431 14 is_stmt 0              @ ../USB_DEVICE/App/usbd_desc.c:431:14
	ldrb.w	r1, [sp, #2]
	.loc	3 431 18                        @ ../USB_DEVICE/App/usbd_desc.c:431:18
	add.w	r1, r0, r1, lsl #1
	movs	r0, #0
	.loc	3 431 23                        @ ../USB_DEVICE/App/usbd_desc.c:431:23
	strb	r0, [r1, #1]
	.loc	3 432 3 is_stmt 1               @ ../USB_DEVICE/App/usbd_desc.c:432:3
	b	.LBB8_6
.Ltmp41:
.LBB8_6:                                @   in Loop: Header=BB8_1 Depth=1
	.loc	3 418 31                        @ ../USB_DEVICE/App/usbd_desc.c:418:31
	ldrb.w	r0, [sp, #2]
	adds	r0, #1
	strb.w	r0, [sp, #2]
	.loc	3 418 3 is_stmt 0               @ ../USB_DEVICE/App/usbd_desc.c:418:3
	b	.LBB8_1
.Ltmp42:
.LBB8_7:
	.loc	3 433 1 is_stmt 1               @ ../USB_DEVICE/App/usbd_desc.c:433:1
	add	sp, #12
	bx	lr
.Ltmp43:
.Lfunc_end8:
	.size	IntToUnicode, .Lfunc_end8-IntToUnicode
	.cfi_endproc
	.cantunwind
	.fnend
                                        @ -- End function
	.hidden	FS_Desc                         @ @FS_Desc
	.type	FS_Desc,%object
	.section	.data.FS_Desc,"aw",%progbits
	.globl	FS_Desc
	.p2align	2
FS_Desc:
	.long	USBD_FS_DeviceDescriptor
	.long	USBD_FS_LangIDStrDescriptor
	.long	USBD_FS_ManufacturerStrDescriptor
	.long	USBD_FS_ProductStrDescriptor
	.long	USBD_FS_SerialStrDescriptor
	.long	USBD_FS_ConfigStrDescriptor
	.long	USBD_FS_InterfaceStrDescriptor
	.size	FS_Desc, 28

	.hidden	USBD_FS_DeviceDesc              @ @USBD_FS_DeviceDesc
	.type	USBD_FS_DeviceDesc,%object
	.section	.data.USBD_FS_DeviceDesc,"aw",%progbits
	.globl	USBD_FS_DeviceDesc
	.p2align	2
USBD_FS_DeviceDesc:
	.ascii	"\022\001\000\002\002\002\000@\203\004@W\000\002\001\002\003\001"
	.size	USBD_FS_DeviceDesc, 18

	.hidden	USBD_LangIDDesc                 @ @USBD_LangIDDesc
	.type	USBD_LangIDDesc,%object
	.section	.data.USBD_LangIDDesc,"aw",%progbits
	.globl	USBD_LangIDDesc
	.p2align	2
USBD_LangIDDesc:
	.ascii	"\004\003\t\004"
	.size	USBD_LangIDDesc, 4

	.hidden	USBD_StringSerial               @ @USBD_StringSerial
	.type	USBD_StringSerial,%object
	.section	.data.USBD_StringSerial,"aw",%progbits
	.globl	USBD_StringSerial
	.p2align	2
USBD_StringSerial:
	.byte	26                              @ 0x1a
	.byte	3                               @ 0x3
	.zero	24
	.size	USBD_StringSerial, 26

	.type	.L.str,%object                  @ @.str
	.section	.rodata.str1.1,"aMS",%progbits,1
.L.str:
	.asciz	"STM32 Virtual ComPort"
	.size	.L.str, 22

	.hidden	USBD_StrDesc                    @ @USBD_StrDesc
	.type	USBD_StrDesc,%object
	.section	.bss.USBD_StrDesc,"aw",%nobits
	.globl	USBD_StrDesc
	.p2align	2
USBD_StrDesc:
	.zero	512
	.size	USBD_StrDesc, 512

	.type	.L.str.1,%object                @ @.str.1
	.section	.rodata.str1.1,"aMS",%progbits,1
.L.str.1:
	.asciz	"STMicroelectronics"
	.size	.L.str.1, 19

	.type	.L.str.2,%object                @ @.str.2
.L.str.2:
	.asciz	"CDC Config"
	.size	.L.str.2, 11

	.type	.L.str.3,%object                @ @.str.3
.L.str.3:
	.asciz	"CDC Interface"
	.size	.L.str.3, 14

	.section	".note.GNU-stack","",%progbits
	.eabi_attribute	30, 6	@ Tag_ABI_optimization_goals
	.ARM_attribute	16, 1	@ Tag_AV_eba