	.text
	.syntax unified
	.eabi_attribute	67, "2.09"	@ Tag_conformance
	.cpu	cortex-m4
	.eabi_attribute	6, 13	@ Tag_CPU_arch
	.eabi_attribute	7, 77	@ Tag_CPU_arch_profile
	.eabi_attribute	8, 0	@ Tag_ARM_ISA_use
	.eabi_attribute	9, 2	@ Tag_THUMB_ISA_use
	.fpu	fpv4-sp-d16
	.eabi_attribute	27, 1	@ Tag_ABI_HardFP_use
	.eabi_attribute	36, 1	@ Tag_FP_HP_extension
	.eabi_attribute	34, 1	@ Tag_CPU_unaligned_access
	.eabi_attribute	17, 1	@ Tag_ABI_PCS_GOT_use
	.eabi_attribute	20, 2	@ Tag_ABI_FP_denormal
	.eabi_attribute	21, 0	@ Tag_ABI_FP_exceptions
	.eabi_attribute	23, 3	@ Tag_ABI_FP_number_model
	.eabi_attribute	24, 1	@ Tag_ABI_align_needed
	.eabi_attribute	25, 1	@ Tag_ABI_align_preserved
	.eabi_attribute	28, 1	@ Tag_ABI_VFP_args
	.eabi_attribute	38, 1	@ Tag_ABI_FP_16bit_format
	.eabi_attribute	18, 2	@ Tag_ABI_PCS_wchar_t
	.eabi_attribute	26, 1	@ Tag_ABI_enum_size
	.eabi_attribute	14, 0	@ Tag_ABI_PCS_R9_use
	.file	"usbd_conf.c"
	.file	1 "D:\\" "kevil\\ARM\\ARMCLANG\\Bin\\..\\include\\stdint.h"
	.file	2 "D:\\horizon\\Horizon_Infantry (2)\\MDK-ARM" "../USB_DEVICE/Target/usbd_conf.c"
	.file	3 "D:\\horizon\\Horizon_Infantry (2)\\MDK-ARM" "../Drivers/CMSIS/Device/ST/STM32F4xx/Include/stm32f407xx.h"
	.file	4 "D:\\horizon\\Horizon_Infantry (2)\\MDK-ARM" "../Drivers/STM32F4xx_HAL_Driver/Inc\\stm32f4xx_hal_pcd.h"
	.file	5 "D:\\horizon\\Horizon_Infantry (2)\\MDK-ARM" "../Drivers/STM32F4xx_HAL_Driver/Inc/stm32f4xx_ll_usb.h"
	.file	6 "D:\\horizon\\Horizon_Infantry (2)\\MDK-ARM" "../Drivers/STM32F4xx_HAL_Driver/Inc/stm32f4xx_hal_def.h"
	.file	7 "D:\\horizon\\Horizon_Infantry (2)\\MDK-ARM" "../Middlewares/ST/STM32_USB_Device_Library/Core/Inc\\usbd_def.h"
	.file	8 "D:\\horizon\\Horizon_Infantry (2)\\MDK-ARM" "../Drivers/CMSIS/Device/ST/STM32F4xx/Include\\stm32f4xx.h"
	.file	9 "D:\\horizon\\Horizon_Infantry (2)\\MDK-ARM" "../Drivers/CMSIS/Include\\core_cm4.h"
	.section	.text.HAL_PCD_MspInit,"ax",%progbits
	.hidden	HAL_PCD_MspInit                 @ -- Begin function HAL_PCD_MspInit
	.globl	HAL_PCD_MspInit
	.p2align	2
	.type	HAL_PCD_MspInit,%function
	.code	16                              @ @HAL_PCD_MspInit
	.thumb_func
HAL_PCD_MspInit:
.Lfunc_begin0:
	.loc	2 70 0                          @ ../USB_DEVICE/Target/usbd_conf.c:70:0
	.fnstart
	.cfi_sections .debug_frame
	.cfi_startproc
@ %bb.0:
	.save	{r7, lr}
	push	{r7, lr}
	.cfi_def_cfa_offset 8
	.cfi_offset lr, -4
	.cfi_offset r7, -8
	.pad	#40
	sub	sp, #40
	.cfi_def_cfa_offset 48
	str	r0, [sp, #36]
	movs	r0, #0
.Ltmp0:
	.loc	2 71 20 prologue_end            @ ../USB_DEVICE/Target/usbd_conf.c:71:20
	str	r0, [sp, #32]
	str	r0, [sp, #28]
	str	r0, [sp, #24]
	str	r0, [sp, #20]
	str	r0, [sp, #16]
.Ltmp1:
	.loc	2 72 6                          @ ../USB_DEVICE/Target/usbd_conf.c:72:6
	ldr	r0, [sp, #36]
	.loc	2 72 17 is_stmt 0               @ ../USB_DEVICE/Target/usbd_conf.c:72:17
	ldr	r0, [r0]
.Ltmp2:
	.loc	2 72 6                          @ ../USB_DEVICE/Target/usbd_conf.c:72:6
	cmp.w	r0, #1342177280
	bne	.LBB0_8
	b	.LBB0_1
.LBB0_1:
.Ltmp3:
	.loc	2 78 5 is_stmt 1                @ ../USB_DEVICE/Target/usbd_conf.c:78:5
	b	.LBB0_2
.LBB0_2:
	.loc	2 0 5 is_stmt 0                 @ ../USB_DEVICE/Target/usbd_conf.c:0:5
	movs	r0, #0
.Ltmp4:
	.loc	2 78 28                         @ ../USB_DEVICE/Target/usbd_conf.c:78:28
	str	r0, [sp, #12]
	movw	r0, #14384
	movt	r0, #16386
	.loc	2 78 117                        @ ../USB_DEVICE/Target/usbd_conf.c:78:117
	ldr	r1, [r0]
	orr	r1, r1, #1
	str	r1, [r0]
	.loc	2 78 213                        @ ../USB_DEVICE/Target/usbd_conf.c:78:213
	ldr	r0, [r0]
	.loc	2 78 222                        @ ../USB_DEVICE/Target/usbd_conf.c:78:222
	and	r0, r0, #1
	.loc	2 78 147                        @ ../USB_DEVICE/Target/usbd_conf.c:78:147
	str	r0, [sp, #12]
	.loc	2 78 250                        @ ../USB_DEVICE/Target/usbd_conf.c:78:250
	ldr	r0, [sp, #12]
	.loc	2 78 258                        @ ../USB_DEVICE/Target/usbd_conf.c:78:258
	b	.LBB0_3
.Ltmp5:
.LBB0_3:
	.loc	2 0 258                         @ ../USB_DEVICE/Target/usbd_conf.c:0:258
	mov.w	r0, #6144
	.loc	2 83 25 is_stmt 1               @ ../USB_DEVICE/Target/usbd_conf.c:83:25
	str	r0, [sp, #16]
	movs	r0, #2
	.loc	2 84 26                         @ ../USB_DEVICE/Target/usbd_conf.c:84:26
	str	r0, [sp, #20]
	movs	r0, #0
	.loc	2 85 26                         @ ../USB_DEVICE/Target/usbd_conf.c:85:26
	str	r0, [sp, #24]
	movs	r0, #3
	.loc	2 86 27                         @ ../USB_DEVICE/Target/usbd_conf.c:86:27
	str	r0, [sp, #28]
	movs	r0, #10
	.loc	2 87 31                         @ ../USB_DEVICE/Target/usbd_conf.c:87:31
	str	r0, [sp, #32]
	movs	r0, #0
	movt	r0, #16386
	add	r1, sp, #16
	.loc	2 88 5                          @ ../USB_DEVICE/Target/usbd_conf.c:88:5
	bl	HAL_GPIO_Init
	.loc	2 91 5                          @ ../USB_DEVICE/Target/usbd_conf.c:91:5
	b	.LBB0_4
.LBB0_4:
	.loc	2 0 5 is_stmt 0                 @ ../USB_DEVICE/Target/usbd_conf.c:0:5
	movw	r1, #14388
	movt	r1, #16386
.Ltmp6:
	.loc	2 91 80                         @ ../USB_DEVICE/Target/usbd_conf.c:91:80
	ldr	r0, [r1]
	orr	r0, r0, #128
	str	r0, [r1]
	.loc	2 91 103                        @ ../USB_DEVICE/Target/usbd_conf.c:91:103
	b	.LBB0_5
.LBB0_5:
	.loc	2 0 103                         @ ../USB_DEVICE/Target/usbd_conf.c:0:103
	movs	r0, #0
.Ltmp7:
	.loc	2 91 126                        @ ../USB_DEVICE/Target/usbd_conf.c:91:126
	str	r0, [sp, #8]
	movw	r0, #14404
	movt	r0, #16386
	.loc	2 91 215                        @ ../USB_DEVICE/Target/usbd_conf.c:91:215
	ldr	r1, [r0]
	orr	r1, r1, #16384
	str	r1, [r0]
	.loc	2 91 312                        @ ../USB_DEVICE/Target/usbd_conf.c:91:312
	ldr	r0, [r0]
	.loc	2 91 321                        @ ../USB_DEVICE/Target/usbd_conf.c:91:321
	and	r0, r0, #16384
	.loc	2 91 246                        @ ../USB_DEVICE/Target/usbd_conf.c:91:246
	str	r0, [sp, #8]
	.loc	2 91 350                        @ ../USB_DEVICE/Target/usbd_conf.c:91:350
	ldr	r0, [sp, #8]
	.loc	2 91 358                        @ ../USB_DEVICE/Target/usbd_conf.c:91:358
	b	.LBB0_6
.Ltmp8:
.LBB0_6:
	.loc	2 91 371                        @ ../USB_DEVICE/Target/usbd_conf.c:91:371
	b	.LBB0_7
.Ltmp9:
.LBB0_7:
	.loc	2 0 371                         @ ../USB_DEVICE/Target/usbd_conf.c:0:371
	movs	r0, #67
	str	r0, [sp, #4]                    @ 4-byte Spill
	movs	r1, #5
	movs	r2, #0
	.loc	2 94 5 is_stmt 1                @ ../USB_DEVICE/Target/usbd_conf.c:94:5
	bl	HAL_NVIC_SetPriority
	ldr	r0, [sp, #4]                    @ 4-byte Reload
	.loc	2 95 5                          @ ../USB_DEVICE/Target/usbd_conf.c:95:5
	bl	HAL_NVIC_EnableIRQ
	.loc	2 99 3                          @ ../USB_DEVICE/Target/usbd_conf.c:99:3
	b	.LBB0_8
.Ltmp10:
.LBB0_8:
	.loc	2 100 1                         @ ../USB_DEVICE/Target/usbd_conf.c:100:1
	add	sp, #40
	pop	{r7, pc}
.Ltmp11:
.Lfunc_end0:
	.size	HAL_PCD_MspInit, .Lfunc_end0-HAL_PCD_MspInit
	.cfi_endproc
	.cantunwind
	.fnend
                                        @ -- End function
	.section	.text.HAL_PCD_MspDeInit,"ax",%progbits
	.hidden	HAL_PCD_MspDeInit               @ -- Begin function HAL_PCD_MspDeInit
	.globl	HAL_PCD_MspDeInit
	.p2align	2
	.type	HAL_PCD_MspDeInit,%function
	.code	16                              @ @HAL_PCD_MspDeInit
	.thumb_func
HAL_PCD_MspDeInit:
.Lfunc_begin1:
	.loc	2 103 0                         @ ../USB_DEVICE/Target/usbd_conf.c:103:0
	.fnstart
	.cfi_startproc
@ %bb.0:
	.save	{r7, lr}
	push	{r7, lr}
	.cfi_def_cfa_offset 8
	.cfi_offset lr, -4
	.cfi_offset r7, -8
	.pad	#8
	sub	sp, #8
	.cfi_def_cfa_offset 16
	str	r0, [sp, #4]
.Ltmp12:
	.loc	2 104 6 prologue_end            @ ../USB_DEVICE/Target/usbd_conf.c:104:6
	ldr	r0, [sp, #4]
	.loc	2 104 17 is_stmt 0              @ ../USB_DEVICE/Target/usbd_conf.c:104:17
	ldr	r0, [r0]
.Ltmp13:
	.loc	2 104 6                         @ ../USB_DEVICE/Target/usbd_conf.c:104:6
	cmp.w	r0, #1342177280
	bne	.LBB1_2
	b	.LBB1_1
.LBB1_1:
	.loc	2 0 6                           @ ../USB_DEVICE/Target/usbd_conf.c:0:6
	movw	r1, #14388
	movt	r1, #16386
.Ltmp14:
	.loc	2 110 76 is_stmt 1              @ ../USB_DEVICE/Target/usbd_conf.c:110:76
	ldr	r0, [r1]
	bic	r0, r0, #128
	str	r0, [r1]
	movs	r0, #0
	movt	r0, #16386
	mov.w	r1, #6144
	.loc	2 116 5                         @ ../USB_DEVICE/Target/usbd_conf.c:116:5
	bl	HAL_GPIO_DeInit
	movs	r0, #67
	.loc	2 119 5                         @ ../USB_DEVICE/Target/usbd_conf.c:119:5
	bl	HAL_NVIC_DisableIRQ
	.loc	2 124 3                         @ ../USB_DEVICE/Target/usbd_conf.c:124:3
	b	.LBB1_2
.Ltmp15:
.LBB1_2:
	.loc	2 125 1                         @ ../USB_DEVICE/Target/usbd_conf.c:125:1
	add	sp, #8
	pop	{r7, pc}
.Ltmp16:
.Lfunc_end1:
	.size	HAL_PCD_MspDeInit, .Lfunc_end1-HAL_PCD_MspDeInit
	.cfi_endproc
	.cantunwind
	.fnend
                                        @ -- End function
	.section	.text.HAL_PCD_SetupStageCallback,"ax",%progbits
	.hidden	HAL_PCD_SetupStageCallback      @ -- Begin function HAL_PCD_SetupStageCallback
	.globl	HAL_PCD_SetupStageCallback
	.p2align	2
	.type	HAL_PCD_SetupStageCallback,%function
	.code	16                              @ @HAL_PCD_SetupStageCallback
	.thumb_func
HAL_PCD_SetupStageCallback:
.Lfunc_begin2:
	.loc	2 137 0                         @ ../USB_DEVICE/Target/usbd_conf.c:137:0
	.fnstart
	.cfi_startproc
@ %bb.0:
	.save	{r7, lr}
	push	{r7, lr}
	.cfi_def_cfa_offset 8
	.cfi_offset lr, -4
	.cfi_offset r7, -8
	.pad	#8
	sub	sp, #8
	.cfi_def_cfa_offset 16
	str	r0, [sp, #4]
.Ltmp17:
	.loc	2 138 43 prologue_end           @ ../USB_DEVICE/Target/usbd_conf.c:138:43
	ldr	r1, [sp, #4]
	.loc	2 138 49 is_stmt 0              @ ../USB_DEVICE/Target/usbd_conf.c:138:49
	ldr.w	r0, [r1, #1248]
	.loc	2 138 73                        @ ../USB_DEVICE/Target/usbd_conf.c:138:73
	addw	r1, r1, #1180
	.loc	2 138 3                         @ ../USB_DEVICE/Target/usbd_conf.c:138:3
	bl	USBD_LL_SetupStage
	.loc	2 139 1 is_stmt 1               @ ../USB_DEVICE/Target/usbd_conf.c:139:1
	add	sp, #8
	pop	{r7, pc}
.Ltmp18:
.Lfunc_end2:
	.size	HAL_PCD_SetupStageCallback, .Lfunc_end2-HAL_PCD_SetupStageCallback
	.cfi_endproc
	.cantunwind
	.fnend
                                        @ -- End function
	.section	.text.HAL_PCD_DataOutStageCallback,"ax",%progbits
	.hidden	HAL_PCD_DataOutStageCallback    @ -- Begin function HAL_PCD_DataOutStageCallback
	.globl	HAL_PCD_DataOutStageCallback
	.p2align	2
	.type	HAL_PCD_DataOutStageCallback,%function
	.code	16                              @ @HAL_PCD_DataOutStageCallback
	.thumb_func
HAL_PCD_DataOutStageCallback:
.Lfunc_begin3:
	.loc	2 152 0                         @ ../USB_DEVICE/Target/usbd_conf.c:152:0
	.fnstart
	.cfi_startproc
@ %bb.0:
	.save	{r7, lr}
	push	{r7, lr}
	.cfi_def_cfa_offset 8
	.cfi_offset lr, -4
	.cfi_offset r7, -8
	.pad	#8
	sub	sp, #8
	.cfi_def_cfa_offset 16
                                        @ kill: def $r2 killed $r1
	str	r0, [sp, #4]
	strb.w	r1, [sp, #3]
.Ltmp19:
	.loc	2 153 45 prologue_end           @ ../USB_DEVICE/Target/usbd_conf.c:153:45
	ldr	r2, [sp, #4]
	.loc	2 153 51 is_stmt 0              @ ../USB_DEVICE/Target/usbd_conf.c:153:51
	ldr.w	r0, [r2, #1248]
	.loc	2 153 58                        @ ../USB_DEVICE/Target/usbd_conf.c:153:58
	ldrb.w	r1, [sp, #3]
	.loc	2 153 65                        @ ../USB_DEVICE/Target/usbd_conf.c:153:65
	add.w	r3, r1, r1, lsl #3
	.loc	2 153 71                        @ ../USB_DEVICE/Target/usbd_conf.c:153:71
	add.w	r2, r2, r3, lsl #2
	.loc	2 153 85                        @ ../USB_DEVICE/Target/usbd_conf.c:153:85
	ldr.w	r2, [r2, #608]
	.loc	2 153 3                         @ ../USB_DEVICE/Target/usbd_conf.c:153:3
	bl	USBD_LL_DataOutStage
	.loc	2 154 1 is_stmt 1               @ ../USB_DEVICE/Target/usbd_conf.c:154:1
	add	sp, #8
	pop	{r7, pc}
.Ltmp20:
.Lfunc_end3:
	.size	HAL_PCD_DataOutStageCallback, .Lfunc_end3-HAL_PCD_DataOutStageCallback
	.cfi_endproc
	.cantunwind
	.fnend
                                        @ -- End function
	.section	.text.HAL_PCD_DataInStageCallback,"ax",%progbits
	.hidden	HAL_PCD_DataInStageCallback     @ -- Begin function HAL_PCD_DataInStageCallback
	.globl	HAL_PCD_DataInStageCallback
	.p2align	2
	.type	HAL_PCD_DataInStageCallback,%function
	.code	16                              @ @HAL_PCD_DataInStageCallback
	.thumb_func
HAL_PCD_DataInStageCallback:
.Lfunc_begin4:
	.loc	2 167 0                         @ ../USB_DEVICE/Target/usbd_conf.c:167:0
	.fnstart
	.cfi_startproc
@ %bb.0:
	.save	{r7, lr}
	push	{r7, lr}
	.cfi_def_cfa_offset 8
	.cfi_offset lr, -4
	.cfi_offset r7, -8
	.pad	#8
	sub	sp, #8
	.cfi_def_cfa_offset 16
                                        @ kill: def $r2 killed $r1
	str	r0, [sp, #4]
	strb.w	r1, [sp, #3]
.Ltmp21:
	.loc	2 168 44 prologue_end           @ ../USB_DEVICE/Target/usbd_conf.c:168:44
	ldr	r2, [sp, #4]
	.loc	2 168 50 is_stmt 0              @ ../USB_DEVICE/Target/usbd_conf.c:168:50
	ldr.w	r0, [r2, #1248]
	.loc	2 168 57                        @ ../USB_DEVICE/Target/usbd_conf.c:168:57
	ldrb.w	r1, [sp, #3]
	.loc	2 168 64                        @ ../USB_DEVICE/Target/usbd_conf.c:168:64
	add.w	r3, r1, r1, lsl #3
	.loc	2 168 70                        @ ../USB_DEVICE/Target/usbd_conf.c:168:70
	add.w	r2, r2, r3, lsl #2
	.loc	2 168 83                        @ ../USB_DEVICE/Target/usbd_conf.c:168:83
	ldr	r2, [r2, #32]
	.loc	2 168 3                         @ ../USB_DEVICE/Target/usbd_conf.c:168:3
	bl	USBD_LL_DataInStage
	.loc	2 169 1 is_stmt 1               @ ../USB_DEVICE/Target/usbd_conf.c:169:1
	add	sp, #8
	pop	{r7, pc}
.Ltmp22:
.Lfunc_end4:
	.size	HAL_PCD_DataInStageCallback, .Lfunc_end4-HAL_PCD_DataInStageCallback
	.cfi_endproc
	.cantunwind
	.fnend
                                        @ -- End function
	.section	.text.HAL_PCD_SOFCallback,"ax",%progbits
	.hidden	HAL_PCD_SOFCallback             @ -- Begin function HAL_PCD_SOFCallback
	.globl	HAL_PCD_SOFCallback
	.p2align	2
	.type	HAL_PCD_SOFCallback,%function
	.code	16                              @ @HAL_PCD_SOFCallback
	.thumb_func
HAL_PCD_SOFCallback:
.Lfunc_begin5:
	.loc	2 181 0                         @ ../USB_DEVICE/Target/usbd_conf.c:181:0
	.fnstart
	.cfi_startproc
@ %bb.0:
	.save	{r7, lr}
	push	{r7, lr}
	.cfi_def_cfa_offset 8
	.cfi_offset lr, -4
	.cfi_offset r7, -8
	.pad	#8
	sub	sp, #8
	.cfi_def_cfa_offset 16
	str	r0, [sp, #4]
.Ltmp23:
	.loc	2 182 36 prologue_end           @ ../USB_DEVICE/Target/usbd_conf.c:182:36
	ldr	r0, [sp, #4]
	.loc	2 182 42 is_stmt 0              @ ../USB_DEVICE/Target/usbd_conf.c:182:42
	ldr.w	r0, [r0, #1248]
	.loc	2 182 3                         @ ../USB_DEVICE/Target/usbd_conf.c:182:3
	bl	USBD_LL_SOF
	.loc	2 183 1 is_stmt 1               @ ../USB_DEVICE/Target/usbd_conf.c:183:1
	add	sp, #8
	pop	{r7, pc}
.Ltmp24:
.Lfunc_end5:
	.size	HAL_PCD_SOFCallback, .Lfunc_end5-HAL_PCD_SOFCallback
	.cfi_endproc
	.cantunwind
	.fnend
                                        @ -- End function
	.section	.text.HAL_PCD_ResetCallback,"ax",%progbits
	.hidden	HAL_PCD_ResetCallback           @ -- Begin function HAL_PCD_ResetCallback
	.globl	HAL_PCD_ResetCallback
	.p2align	2
	.type	HAL_PCD_ResetCallback,%function
	.code	16                              @ @HAL_PCD_ResetCallback
	.thumb_func
HAL_PCD_ResetCallback:
.Lfunc_begin6:
	.loc	2 195 0                         @ ../USB_DEVICE/Target/usbd_conf.c:195:0
	.fnstart
	.cfi_startproc
@ %bb.0:
	.save	{r7, lr}
	push	{r7, lr}
	.cfi_def_cfa_offset 8
	.cfi_offset lr, -4
	.cfi_offset r7, -8
	.pad	#8
	sub	sp, #8
	.cfi_def_cfa_offset 16
	str	r0, [sp, #4]
	movs	r0, #1
.Ltmp25:
	.loc	2 196 21 prologue_end           @ ../USB_DEVICE/Target/usbd_conf.c:196:21
	strb.w	r0, [sp, #3]
.Ltmp26:
	.loc	2 198 8                         @ ../USB_DEVICE/Target/usbd_conf.c:198:8
	ldr	r0, [sp, #4]
	.loc	2 198 19 is_stmt 0              @ ../USB_DEVICE/Target/usbd_conf.c:198:19
	ldrb	r0, [r0, #7]
.Ltmp27:
	.loc	2 198 8                         @ ../USB_DEVICE/Target/usbd_conf.c:198:8
	cbnz	r0, .LBB6_2
	b	.LBB6_1
.LBB6_1:
	.loc	2 0 8                           @ ../USB_DEVICE/Target/usbd_conf.c:0:8
	movs	r0, #0
.Ltmp28:
	.loc	2 200 11 is_stmt 1              @ ../USB_DEVICE/Target/usbd_conf.c:200:11
	strb.w	r0, [sp, #3]
	.loc	2 201 3                         @ ../USB_DEVICE/Target/usbd_conf.c:201:3
	b	.LBB6_6
.Ltmp29:
.LBB6_2:
	.loc	2 202 13                        @ ../USB_DEVICE/Target/usbd_conf.c:202:13
	ldr	r0, [sp, #4]
	.loc	2 202 24 is_stmt 0              @ ../USB_DEVICE/Target/usbd_conf.c:202:24
	ldrb	r0, [r0, #7]
.Ltmp30:
	.loc	2 202 13                        @ ../USB_DEVICE/Target/usbd_conf.c:202:13
	cmp	r0, #2
	bne	.LBB6_4
	b	.LBB6_3
.LBB6_3:
	.loc	2 0 13                          @ ../USB_DEVICE/Target/usbd_conf.c:0:13
	movs	r0, #1
.Ltmp31:
	.loc	2 204 11 is_stmt 1              @ ../USB_DEVICE/Target/usbd_conf.c:204:11
	strb.w	r0, [sp, #3]
	.loc	2 205 3                         @ ../USB_DEVICE/Target/usbd_conf.c:205:3
	b	.LBB6_5
.Ltmp32:
.LBB6_4:
	.loc	2 208 5                         @ ../USB_DEVICE/Target/usbd_conf.c:208:5
	bl	Error_Handler
	b	.LBB6_5
.Ltmp33:
.LBB6_5:
	.loc	2 0 5 is_stmt 0                 @ ../USB_DEVICE/Target/usbd_conf.c:0:5
	b	.LBB6_6
.LBB6_6:
	.loc	2 211 41 is_stmt 1              @ ../USB_DEVICE/Target/usbd_conf.c:211:41
	ldr	r0, [sp, #4]
	.loc	2 211 47 is_stmt 0              @ ../USB_DEVICE/Target/usbd_conf.c:211:47
	ldr.w	r0, [r0, #1248]
	.loc	2 211 54                        @ ../USB_DEVICE/Target/usbd_conf.c:211:54
	ldrb.w	r1, [sp, #3]
	.loc	2 211 3                         @ ../USB_DEVICE/Target/usbd_conf.c:211:3
	bl	USBD_LL_SetSpeed
	.loc	2 214 38 is_stmt 1              @ ../USB_DEVICE/Target/usbd_conf.c:214:38
	ldr	r0, [sp, #4]
	.loc	2 214 44 is_stmt 0              @ ../USB_DEVICE/Target/usbd_conf.c:214:44
	ldr.w	r0, [r0, #1248]
	.loc	2 214 3                         @ ../USB_DEVICE/Target/usbd_conf.c:214:3
	bl	USBD_LL_Reset
	.loc	2 215 1 is_stmt 1               @ ../USB_DEVICE/Target/usbd_conf.c:215:1
	add	sp, #8
	pop	{r7, pc}
.Ltmp34:
.Lfunc_end6:
	.size	HAL_PCD_ResetCallback, .Lfunc_end6-HAL_PCD_ResetCallback
	.cfi_endproc
	.cantunwind
	.fnend
                                        @ -- End function
	.section	.text.HAL_PCD_SuspendCallback,"ax",%progbits
	.hidden	HAL_PCD_SuspendCallback         @ -- Begin function HAL_PCD_SuspendCallback
	.globl	HAL_PCD_SuspendCallback
	.p2align	2
	.type	HAL_PCD_SuspendCallback,%function
	.code	16                              @ @HAL_PCD_SuspendCallback
	.thumb_func
HAL_PCD_SuspendCallback:
.Lfunc_begin7:
	.loc	2 228 0                         @ ../USB_DEVICE/Target/usbd_conf.c:228:0
	.fnstart
	.cfi_startproc
@ %bb.0:
	.save	{r7, lr}
	push	{r7, lr}
	.cfi_def_cfa_offset 8
	.cfi_offset lr, -4
	.cfi_offset r7, -8
	.pad	#8
	sub	sp, #8
	.cfi_def_cfa_offset 16
	str	r0, [sp, #4]
.Ltmp35:
	.loc	2 230 40 prologue_end           @ ../USB_DEVICE/Target/usbd_conf.c:230:40
	ldr	r0, [sp, #4]
	.loc	2 230 46 is_stmt 0              @ ../USB_DEVICE/Target/usbd_conf.c:230:46
	ldr.w	r0, [r0, #1248]
	.loc	2 230 3                         @ ../USB_DEVICE/Target/usbd_conf.c:230:3
	bl	USBD_LL_Suspend
	.loc	2 231 38 is_stmt 1              @ ../USB_DEVICE/Target/usbd_conf.c:231:38
	ldr	r0, [sp, #4]
	.loc	2 231 45 is_stmt 0              @ ../USB_DEVICE/Target/usbd_conf.c:231:45
	ldr	r1, [r0]
	.loc	2 231 66                        @ ../USB_DEVICE/Target/usbd_conf.c:231:66
	ldr.w	r0, [r1, #3584]
	orr	r0, r0, #1
	str.w	r0, [r1, #3584]
.Ltmp36:
	.loc	2 234 7 is_stmt 1               @ ../USB_DEVICE/Target/usbd_conf.c:234:7
	ldr	r0, [sp, #4]
	.loc	2 234 18 is_stmt 0              @ ../USB_DEVICE/Target/usbd_conf.c:234:18
	ldrb	r0, [r0, #11]
.Ltmp37:
	.loc	2 234 7                         @ ../USB_DEVICE/Target/usbd_conf.c:234:7
	cbz	r0, .LBB7_2
	b	.LBB7_1
.LBB7_1:
	.loc	2 0 7                           @ ../USB_DEVICE/Target/usbd_conf.c:0:7
	movw	r1, #60688
	movt	r1, #57344
.Ltmp38:
	.loc	2 237 54 is_stmt 1              @ ../USB_DEVICE/Target/usbd_conf.c:237:54
	ldr	r0, [r1]
	orr	r0, r0, #6
	str	r0, [r1]
	.loc	2 238 3                         @ ../USB_DEVICE/Target/usbd_conf.c:238:3
	b	.LBB7_2
.Ltmp39:
.LBB7_2:
	.loc	2 240 1                         @ ../USB_DEVICE/Target/usbd_conf.c:240:1
	add	sp, #8
	pop	{r7, pc}
.Ltmp40:
.Lfunc_end7:
	.size	HAL_PCD_SuspendCallback, .Lfunc_end7-HAL_PCD_SuspendCallback
	.cfi_endproc
	.cantunwind
	.fnend
                                        @ -- End function
	.section	.text.HAL_PCD_ResumeCallback,"ax",%progbits
	.hidden	HAL_PCD_ResumeCallback          @ -- Begin function HAL_PCD_ResumeCallback
	.globl	HAL_PCD_ResumeCallback
	.p2align	2
	.type	HAL_PCD_ResumeCallback,%function
	.code	16                              @ @HAL_PCD_ResumeCallback
	.thumb_func
HAL_PCD_ResumeCallback:
.Lfunc_begin8:
	.loc	2 253 0                         @ ../USB_DEVICE/Target/usbd_conf.c:253:0
	.fnstart
	.cfi_startproc
@ %bb.0:
	.save	{r7, lr}
	push	{r7, lr}
	.cfi_def_cfa_offset 8
	.cfi_offset lr, -4
	.cfi_offset r7, -8
	.pad	#8
	sub	sp, #8
	.cfi_def_cfa_offset 16
	str	r0, [sp, #4]
.Ltmp41:
	.loc	2 257 39 prologue_end           @ ../USB_DEVICE/Target/usbd_conf.c:257:39
	ldr	r0, [sp, #4]
	.loc	2 257 45 is_stmt 0              @ ../USB_DEVICE/Target/usbd_conf.c:257:45
	ldr.w	r0, [r0, #1248]
	.loc	2 257 3                         @ ../USB_DEVICE/Target/usbd_conf.c:257:3
	bl	USBD_LL_Resume
	.loc	2 258 1 is_stmt 1               @ ../USB_DEVICE/Target/usbd_conf.c:258:1
	add	sp, #8
	pop	{r7, pc}
.Ltmp42:
.Lfunc_end8:
	.size	HAL_PCD_ResumeCallback, .Lfunc_end8-HAL_PCD_ResumeCallback
	.cfi_endproc
	.cantunwind
	.fnend
                                        @ -- End function
	.section	.text.HAL_PCD_ISOOUTIncompleteCallback,"ax",%progbits
	.hidden	HAL_PCD_ISOOUTIncompleteCallback @ -- Begin function HAL_PCD_ISOOUTIncompleteCallback
	.globl	HAL_PCD_ISOOUTIncompleteCallback
	.p2align	2
	.type	HAL_PCD_ISOOUTIncompleteCallback,%function
	.code	16                              @ @HAL_PCD_ISOOUTIncompleteCallback
	.thumb_func
HAL_PCD_ISOOUTIncompleteCallback:
.Lfunc_begin9:
	.loc	2 271 0                         @ ../USB_DEVICE/Target/usbd_conf.c:271:0
	.fnstart
	.cfi_startproc
@ %bb.0:
	.save	{r7, lr}
	push	{r7, lr}
	.cfi_def_cfa_offset 8
	.cfi_offset lr, -4
	.cfi_offset r7, -8
	.pad	#8
	sub	sp, #8
	.cfi_def_cfa_offset 16
                                        @ kill: def $r2 killed $r1
	str	r0, [sp, #4]
	strb.w	r1, [sp, #3]
.Ltmp43:
	.loc	2 272 49 prologue_end           @ ../USB_DEVICE/Target/usbd_conf.c:272:49
	ldr	r0, [sp, #4]
	.loc	2 272 55 is_stmt 0              @ ../USB_DEVICE/Target/usbd_conf.c:272:55
	ldr.w	r0, [r0, #1248]
	.loc	2 272 62                        @ ../USB_DEVICE/Target/usbd_conf.c:272:62
	ldrb.w	r1, [sp, #3]
	.loc	2 272 3                         @ ../USB_DEVICE/Target/usbd_conf.c:272:3
	bl	USBD_LL_IsoOUTIncomplete
	.loc	2 273 1 is_stmt 1               @ ../USB_DEVICE/Target/usbd_conf.c:273:1
	add	sp, #8
	pop	{r7, pc}
.Ltmp44:
.Lfunc_end9:
	.size	HAL_PCD_ISOOUTIncompleteCallback, .Lfunc_end9-HAL_PCD_ISOOUTIncompleteCallback
	.cfi_endproc
	.cantunwind
	.fnend
                                        @ -- End function
	.section	.text.HAL_PCD_ISOINIncompleteCallback,"ax",%progbits
	.hidden	HAL_PCD_ISOINIncompleteCallback @ -- Begin function HAL_PCD_ISOINIncompleteCallback
	.globl	HAL_PCD_ISOINIncompleteCallback
	.p2align	2
	.type	HAL_PCD_ISOINIncompleteCallback,%function
	.code	16                              @ @HAL_PCD_ISOINIncompleteCallback
	.thumb_func
HAL_PCD_ISOINIncompleteCallback:
.Lfunc_begin10:
	.loc	2 286 0                         @ ../USB_DEVICE/Target/usbd_conf.c:286:0
	.fnstart
	.cfi_startproc
@ %bb.0:
	.save	{r7, lr}
	push	{r7, lr}
	.cfi_def_cfa_offset 8
	.cfi_offset lr, -4
	.cfi_offset r7, -8
	.pad	#8
	sub	sp, #8
	.cfi_def_cfa_offset 16
                                        @ kill: def $r2 killed $r1
	str	r0, [sp, #4]
	strb.w	r1, [sp, #3]
.Ltmp45:
	.loc	2 287 48 prologue_end           @ ../USB_DEVICE/Target/usbd_conf.c:287:48
	ldr	r0, [sp, #4]
	.loc	2 287 54 is_stmt 0              @ ../USB_DEVICE/Target/usbd_conf.c:287:54
	ldr.w	r0, [r0, #1248]
	.loc	2 287 61                        @ ../USB_DEVICE/Target/usbd_conf.c:287:61
	ldrb.w	r1, [sp, #3]
	.loc	2 287 3                         @ ../USB_DEVICE/Target/usbd_conf.c:287:3
	bl	USBD_LL_IsoINIncomplete
	.loc	2 288 1 is_stmt 1               @ ../USB_DEVICE/Target/usbd_conf.c:288:1
	add	sp, #8
	pop	{r7, pc}
.Ltmp46:
.Lfunc_end10:
	.size	HAL_PCD_ISOINIncompleteCallback, .Lfunc_end10-HAL_PCD_ISOINIncompleteCallback
	.cfi_endproc
	.cantunwind
	.fnend
                                        @ -- End function
	.section	.text.HAL_PCD_ConnectCallback,"ax",%progbits
	.hidden	HAL_PCD_ConnectCallback         @ -- Begin function HAL_PCD_ConnectCallback
	.globl	HAL_PCD_ConnectCallback
	.p2align	2
	.type	HAL_PCD_ConnectCallback,%function
	.code	16                              @ @HAL_PCD_ConnectCallback
	.thumb_func
HAL_PCD_ConnectCallback:
.Lfunc_begin11:
	.loc	2 300 0                         @ ../USB_DEVICE/Target/usbd_conf.c:300:0
	.fnstart
	.cfi_startproc
@ %bb.0:
	.save	{r7, lr}
	push	{r7, lr}
	.cfi_def_cfa_offset 8
	.cfi_offset lr, -4
	.cfi_offset r7, -8
	.pad	#8
	sub	sp, #8
	.cfi_def_cfa_offset 16
	str	r0, [sp, #4]
.Ltmp47:
	.loc	2 301 45 prologue_end           @ ../USB_DEVICE/Target/usbd_conf.c:301:45
	ldr	r0, [sp, #4]
	.loc	2 301 51 is_stmt 0              @ ../USB_DEVICE/Target/usbd_conf.c:301:51
	ldr.w	r0, [r0, #1248]
	.loc	2 301 3                         @ ../USB_DEVICE/Target/usbd_conf.c:301:3
	bl	USBD_LL_DevConnected
	.loc	2 302 1 is_stmt 1               @ ../USB_DEVICE/Target/usbd_conf.c:302:1
	add	sp, #8
	pop	{r7, pc}
.Ltmp48:
.Lfunc_end11:
	.size	HAL_PCD_ConnectCallback, .Lfunc_end11-HAL_PCD_ConnectCallback
	.cfi_endproc
	.cantunwind
	.fnend
                                        @ -- End function
	.section	.text.HAL_PCD_DisconnectCallback,"ax",%progbits
	.hidden	HAL_PCD_DisconnectCallback      @ -- Begin function HAL_PCD_DisconnectCallback
	.globl	HAL_PCD_DisconnectCallback
	.p2align	2
	.type	HAL_PCD_DisconnectCallback,%function
	.code	16                              @ @HAL_PCD_DisconnectCallback
	.thumb_func
HAL_PCD_DisconnectCallback:
.Lfunc_begin12:
	.loc	2 314 0                         @ ../USB_DEVICE/Target/usbd_conf.c:314:0
	.fnstart
	.cfi_startproc
@ %bb.0:
	.save	{r7, lr}
	push	{r7, lr}
	.cfi_def_cfa_offset 8
	.cfi_offset lr, -4
	.cfi_offset r7, -8
	.pad	#8
	sub	sp, #8
	.cfi_def_cfa_offset 16
	str	r0, [sp, #4]
.Ltmp49:
	.loc	2 315 48 prologue_end           @ ../USB_DEVICE/Target/usbd_conf.c:315:48
	ldr	r0, [sp, #4]
	.loc	2 315 54 is_stmt 0              @ ../USB_DEVICE/Target/usbd_conf.c:315:54
	ldr.w	r0, [r0, #1248]
	.loc	2 315 3                         @ ../USB_DEVICE/Target/usbd_conf.c:315:3
	bl	USBD_LL_DevDisconnected
	.loc	2 316 1 is_stmt 1               @ ../USB_DEVICE/Target/usbd_conf.c:316:1
	add	sp, #8
	pop	{r7, pc}
.Ltmp50:
.Lfunc_end12:
	.size	HAL_PCD_DisconnectCallback, .Lfunc_end12-HAL_PCD_DisconnectCallback
	.cfi_endproc
	.cantunwind
	.fnend
                                        @ -- End function
	.section	.text.USBD_LL_Init,"ax",%progbits
	.hidden	USBD_LL_Init                    @ -- Begin function USBD_LL_Init
	.globl	USBD_LL_Init
	.p2align	2
	.type	USBD_LL_Init,%function
	.code	16                              @ @USBD_LL_Init
	.thumb_func
USBD_LL_Init:
.Lfunc_begin13:
	.loc	2 328 0                         @ ../USB_DEVICE/Target/usbd_conf.c:328:0
	.fnstart
	.cfi_startproc
@ %bb.0:
	.save	{r7, lr}
	push	{r7, lr}
	.cfi_def_cfa_offset 8
	.cfi_offset lr, -4
	.cfi_offset r7, -8
	.pad	#16
	sub	sp, #16
	.cfi_def_cfa_offset 24
	str	r0, [sp, #12]
.Ltmp51:
	.loc	2 330 7 prologue_end            @ ../USB_DEVICE/Target/usbd_conf.c:330:7
	ldr	r0, [sp, #12]
	.loc	2 330 13 is_stmt 0              @ ../USB_DEVICE/Target/usbd_conf.c:330:13
	ldrb	r0, [r0]
.Ltmp52:
	.loc	2 330 7                         @ ../USB_DEVICE/Target/usbd_conf.c:330:7
	cbnz	r0, .LBB13_4
	b	.LBB13_1
.LBB13_1:
.Ltmp53:
	.loc	2 332 27 is_stmt 1              @ ../USB_DEVICE/Target/usbd_conf.c:332:27
	ldr	r1, [sp, #12]
	.loc	2 332 25 is_stmt 0              @ ../USB_DEVICE/Target/usbd_conf.c:332:25
	movw	r0, :lower16:hpcd_USB_OTG_FS
	movt	r0, :upper16:hpcd_USB_OTG_FS
	str	r0, [sp, #8]                    @ 4-byte Spill
	str.w	r1, [r0, #1248]
	.loc	2 333 3 is_stmt 1               @ ../USB_DEVICE/Target/usbd_conf.c:333:3
	ldr	r1, [sp, #12]
	.loc	2 333 15 is_stmt 0              @ ../USB_DEVICE/Target/usbd_conf.c:333:15
	str.w	r0, [r1, #712]
	mov.w	r1, #1342177280
	.loc	2 335 28 is_stmt 1              @ ../USB_DEVICE/Target/usbd_conf.c:335:28
	str	r1, [r0]
	movs	r1, #4
	.loc	2 336 38                        @ ../USB_DEVICE/Target/usbd_conf.c:336:38
	strb	r1, [r0, #4]
	movs	r2, #2
	.loc	2 337 30                        @ ../USB_DEVICE/Target/usbd_conf.c:337:30
	strb	r2, [r0, #7]
	movs	r1, #0
	.loc	2 338 35                        @ ../USB_DEVICE/Target/usbd_conf.c:338:35
	strb	r1, [r0, #6]
	.loc	2 339 35                        @ ../USB_DEVICE/Target/usbd_conf.c:339:35
	strb	r2, [r0, #9]
	.loc	2 340 35                        @ ../USB_DEVICE/Target/usbd_conf.c:340:35
	strb	r1, [r0, #10]
	.loc	2 341 41                        @ ../USB_DEVICE/Target/usbd_conf.c:341:41
	strb	r1, [r0, #11]
	.loc	2 342 35                        @ ../USB_DEVICE/Target/usbd_conf.c:342:35
	strb	r1, [r0, #12]
	.loc	2 343 44                        @ ../USB_DEVICE/Target/usbd_conf.c:343:44
	strb	r1, [r0, #14]
	.loc	2 344 42                        @ ../USB_DEVICE/Target/usbd_conf.c:344:42
	strb	r1, [r0, #15]
.Ltmp54:
	.loc	2 345 7                         @ ../USB_DEVICE/Target/usbd_conf.c:345:7
	bl	HAL_PCD_Init
.Ltmp55:
	.loc	2 345 7 is_stmt 0               @ ../USB_DEVICE/Target/usbd_conf.c:345:7
	cbz	r0, .LBB13_3
	b	.LBB13_2
.LBB13_2:
.Ltmp56:
	.loc	2 347 5 is_stmt 1               @ ../USB_DEVICE/Target/usbd_conf.c:347:5
	bl	Error_Handler
	.loc	2 348 3                         @ ../USB_DEVICE/Target/usbd_conf.c:348:3
	b	.LBB13_3
.Ltmp57:
.LBB13_3:
	.loc	2 365 3                         @ ../USB_DEVICE/Target/usbd_conf.c:365:3
	movw	r0, :lower16:hpcd_USB_OTG_FS
	movt	r0, :upper16:hpcd_USB_OTG_FS
	str	r0, [sp, #4]                    @ 4-byte Spill
	movs	r1, #128
	str	r1, [sp]                        @ 4-byte Spill
	bl	HAL_PCDEx_SetRxFiFo
                                        @ kill: def $r1 killed $r0
	.loc	2 366 3                         @ ../USB_DEVICE/Target/usbd_conf.c:366:3
	ldr	r0, [sp, #4]                    @ 4-byte Reload
	movs	r1, #0
	movs	r2, #64
	bl	HAL_PCDEx_SetTxFiFo
	ldr	r2, [sp]                        @ 4-byte Reload
                                        @ kill: def $r1 killed $r0
	.loc	2 367 3                         @ ../USB_DEVICE/Target/usbd_conf.c:367:3
	ldr	r0, [sp, #4]                    @ 4-byte Reload
	movs	r1, #1
	bl	HAL_PCDEx_SetTxFiFo
	.loc	2 368 3                         @ ../USB_DEVICE/Target/usbd_conf.c:368:3
	b	.LBB13_4
.Ltmp58:
.LBB13_4:
	.loc	2 0 3 is_stmt 0                 @ ../USB_DEVICE/Target/usbd_conf.c:0:3
	movs	r0, #0
	.loc	2 369 3 is_stmt 1               @ ../USB_DEVICE/Target/usbd_conf.c:369:3
	add	sp, #16
	pop	{r7, pc}
.Ltmp59:
.Lfunc_end13:
	.size	USBD_LL_Init, .Lfunc_end13-USBD_LL_Init
	.cfi_endproc
	.cantunwind
	.fnend
                                        @ -- End function
	.section	.text.USBD_LL_DeInit,"ax",%progbits
	.hidden	USBD_LL_DeInit                  @ -- Begin function USBD_LL_DeInit
	.globl	USBD_LL_DeInit
	.p2align	2
	.type	USBD_LL_DeInit,%function
	.code	16                              @ @USBD_LL_DeInit
	.thumb_func
USBD_LL_DeInit:
.Lfunc_begin14:
	.loc	2 378 0                         @ ../USB_DEVICE/Target/usbd_conf.c:378:0
	.fnstart
	.cfi_startproc
@ %bb.0:
	.save	{r7, lr}
	push	{r7, lr}
	.cfi_def_cfa_offset 8
	.cfi_offset lr, -4
	.cfi_offset r7, -8
	.pad	#8
	sub	sp, #8
	.cfi_def_cfa_offset 16
	str	r0, [sp, #4]
	movs	r0, #0
.Ltmp60:
	.loc	2 379 21 prologue_end           @ ../USB_DEVICE/Target/usbd_conf.c:379:21
	strb.w	r0, [sp, #3]
	.loc	2 380 22                        @ ../USB_DEVICE/Target/usbd_conf.c:380:22
	strb.w	r0, [sp, #2]
	.loc	2 382 31                        @ ../USB_DEVICE/Target/usbd_conf.c:382:31
	ldr	r0, [sp, #4]
	.loc	2 382 37 is_stmt 0              @ ../USB_DEVICE/Target/usbd_conf.c:382:37
	ldr.w	r0, [r0, #712]
	.loc	2 382 16                        @ ../USB_DEVICE/Target/usbd_conf.c:382:16
	bl	HAL_PCD_DeInit
	.loc	2 382 14                        @ ../USB_DEVICE/Target/usbd_conf.c:382:14
	strb.w	r0, [sp, #3]
	.loc	2 384 36 is_stmt 1              @ ../USB_DEVICE/Target/usbd_conf.c:384:36
	ldrb.w	r0, [sp, #3]
	.loc	2 384 16 is_stmt 0              @ ../USB_DEVICE/Target/usbd_conf.c:384:16
	bl	USBD_Get_USB_Status
	.loc	2 384 14                        @ ../USB_DEVICE/Target/usbd_conf.c:384:14
	strb.w	r0, [sp, #2]
	.loc	2 386 10 is_stmt 1              @ ../USB_DEVICE/Target/usbd_conf.c:386:10
	ldrb.w	r0, [sp, #2]
	.loc	2 386 3 is_stmt 0               @ ../USB_DEVICE/Target/usbd_conf.c:386:3
	add	sp, #8
	pop	{r7, pc}
.Ltmp61:
.Lfunc_end14:
	.size	USBD_LL_DeInit, .Lfunc_end14-USBD_LL_DeInit
	.cfi_endproc
	.cantunwind
	.fnend
                                        @ -- End function
	.section	.text.USBD_Get_USB_Status,"ax",%progbits
	.hidden	USBD_Get_USB_Status             @ -- Begin function USBD_Get_USB_Status
	.globl	USBD_Get_USB_Status
	.p2align	2
	.type	USBD_Get_USB_Status,%function
	.code	16                              @ @USBD_Get_USB_Status
	.thumb_func
USBD_Get_USB_Status:
.Lfunc_begin15:
	.loc	2 657 0 is_stmt 1               @ ../USB_DEVICE/Target/usbd_conf.c:657:0
	.fnstart
	.cfi_startproc
@ %bb.0:
	.pad	#8
	sub	sp, #8
	.cfi_def_cfa_offset 8
                                        @ kill: def $r1 killed $r0
	strb.w	r0, [sp, #7]
	movs	r0, #0
.Ltmp62:
	.loc	2 658 22 prologue_end           @ ../USB_DEVICE/Target/usbd_conf.c:658:22
	strb.w	r0, [sp, #6]
	.loc	2 660 11                        @ ../USB_DEVICE/Target/usbd_conf.c:660:11
	ldrb.w	r0, [sp, #7]
	.loc	2 660 3 is_stmt 0               @ ../USB_DEVICE/Target/usbd_conf.c:660:3
	mov	r1, r0
	str	r1, [sp]                        @ 4-byte Spill
	cmp	r0, #3
	bhi	.LBB15_7
@ %bb.1:
	.loc	2 0 3                           @ ../USB_DEVICE/Target/usbd_conf.c:0:3
	ldr	r1, [sp]                        @ 4-byte Reload
.LCPI15_0:
	tbb	[pc, r1]
@ %bb.2:
.LJTI15_0:
	.byte	(.LBB15_3-(.LCPI15_0+4))/2
	.byte	(.LBB15_4-(.LCPI15_0+4))/2
	.byte	(.LBB15_5-(.LCPI15_0+4))/2
	.byte	(.LBB15_6-(.LCPI15_0+4))/2
	.p2align	1
.LBB15_3:
	movs	r0, #0
.Ltmp63:
	.loc	2 663 18 is_stmt 1              @ ../USB_DEVICE/Target/usbd_conf.c:663:18
	strb.w	r0, [sp, #6]
	.loc	2 664 5                         @ ../USB_DEVICE/Target/usbd_conf.c:664:5
	b	.LBB15_8
.LBB15_4:
	.loc	2 0 5 is_stmt 0                 @ ../USB_DEVICE/Target/usbd_conf.c:0:5
	movs	r0, #3
	.loc	2 666 18 is_stmt 1              @ ../USB_DEVICE/Target/usbd_conf.c:666:18
	strb.w	r0, [sp, #6]
	.loc	2 667 5                         @ ../USB_DEVICE/Target/usbd_conf.c:667:5
	b	.LBB15_8
.LBB15_5:
	.loc	2 0 5 is_stmt 0                 @ ../USB_DEVICE/Target/usbd_conf.c:0:5
	movs	r0, #1
	.loc	2 669 18 is_stmt 1              @ ../USB_DEVICE/Target/usbd_conf.c:669:18
	strb.w	r0, [sp, #6]
	.loc	2 670 5                         @ ../USB_DEVICE/Target/usbd_conf.c:670:5
	b	.LBB15_8
.LBB15_6:
	.loc	2 0 5 is_stmt 0                 @ ../USB_DEVICE/Target/usbd_conf.c:0:5
	movs	r0, #3
	.loc	2 672 18 is_stmt 1              @ ../USB_DEVICE/Target/usbd_conf.c:672:18
	strb.w	r0, [sp, #6]
	.loc	2 673 5                         @ ../USB_DEVICE/Target/usbd_conf.c:673:5
	b	.LBB15_8
.LBB15_7:
	.loc	2 0 5 is_stmt 0                 @ ../USB_DEVICE/Target/usbd_conf.c:0:5
	movs	r0, #3
	.loc	2 675 18 is_stmt 1              @ ../USB_DEVICE/Target/usbd_conf.c:675:18
	strb.w	r0, [sp, #6]
	.loc	2 676 5                         @ ../USB_DEVICE/Target/usbd_conf.c:676:5
	b	.LBB15_8
.Ltmp64:
.LBB15_8:
	.loc	2 678 10                        @ ../USB_DEVICE/Target/usbd_conf.c:678:10
	ldrb.w	r0, [sp, #6]
	.loc	2 678 3 is_stmt 0               @ ../USB_DEVICE/Target/usbd_conf.c:678:3
	add	sp, #8
	bx	lr
.Ltmp65:
.Lfunc_end15:
	.size	USBD_Get_USB_Status, .Lfunc_end15-USBD_Get_USB_Status
	.cfi_endproc
	.cantunwind
	.fnend
                                        @ -- End function
	.section	.text.USBD_LL_Start,"ax",%progbits
	.hidden	USBD_LL_Start                   @ -- Begin function USBD_LL_Start
	.globl	USBD_LL_Start
	.p2align	2
	.type	USBD_LL_Start,%function
	.code	16                              @ @USBD_LL_Start
	.thumb_func
USBD_LL_Start:
.Lfunc_begin16:
	.loc	2 395 0 is_stmt 1               @ ../USB_DEVICE/Target/usbd_conf.c:395:0
	.fnstart
	.cfi_startproc
@ %bb.0:
	.save	{r7, lr}
	push	{r7, lr}
	.cfi_def_cfa_offset 8
	.cfi_offset lr, -4
	.cfi_offset r7, -8
	.pad	#8
	sub	sp, #8
	.cfi_def_cfa_offset 16
	str	r0, [sp, #4]
	movs	r0, #0
.Ltmp66:
	.loc	2 396 21 prologue_end           @ ../USB_DEVICE/Target/usbd_conf.c:396:21
	strb.w	r0, [sp, #3]
	.loc	2 397 22                        @ ../USB_DEVICE/Target/usbd_conf.c:397:22
	strb.w	r0, [sp, #2]
	.loc	2 399 30                        @ ../USB_DEVICE/Target/usbd_conf.c:399:30
	ldr	r0, [sp, #4]
	.loc	2 399 36 is_stmt 0              @ ../USB_DEVICE/Target/usbd_conf.c:399:36
	ldr.w	r0, [r0, #712]
	.loc	2 399 16                        @ ../USB_DEVICE/Target/usbd_conf.c:399:16
	bl	HAL_PCD_Start
	.loc	2 399 14                        @ ../USB_DEVICE/Target/usbd_conf.c:399:14
	strb.w	r0, [sp, #3]
	.loc	2 401 36 is_stmt 1              @ ../USB_DEVICE/Target/usbd_conf.c:401:36
	ldrb.w	r0, [sp, #3]
	.loc	2 401 16 is_stmt 0              @ ../USB_DEVICE/Target/usbd_conf.c:401:16
	bl	USBD_Get_USB_Status
	.loc	2 401 14                        @ ../USB_DEVICE/Target/usbd_conf.c:401:14
	strb.w	r0, [sp, #2]
	.loc	2 403 10 is_stmt 1              @ ../USB_DEVICE/Target/usbd_conf.c:403:10
	ldrb.w	r0, [sp, #2]
	.loc	2 403 3 is_stmt 0               @ ../USB_DEVICE/Target/usbd_conf.c:403:3
	add	sp, #8
	pop	{r7, pc}
.Ltmp67:
.Lfunc_end16:
	.size	USBD_LL_Start, .Lfunc_end16-USBD_LL_Start
	.cfi_endproc
	.cantunwind
	.fnend
                                        @ -- End function
	.section	.text.USBD_LL_Stop,"ax",%progbits
	.hidden	USBD_LL_Stop                    @ -- Begin function USBD_LL_Stop
	.globl	USBD_LL_Stop
	.p2align	2
	.type	USBD_LL_Stop,%function
	.code	16                              @ @USBD_LL_Stop
	.thumb_func
USBD_LL_Stop:
.Lfunc_begin17:
	.loc	2 412 0 is_stmt 1               @ ../USB_DEVICE/Target/usbd_conf.c:412:0
	.fnstart
	.cfi_startproc
@ %bb.0:
	.save	{r7, lr}
	push	{r7, lr}
	.cfi_def_cfa_offset 8
	.cfi_offset lr, -4
	.cfi_offset r7, -8
	.pad	#8
	sub	sp, #8
	.cfi_def_cfa_offset 16
	str	r0, [sp, #4]
	movs	r0, #0
.Ltmp68:
	.loc	2 413 21 prologue_end           @ ../USB_DEVICE/Target/usbd_conf.c:413:21
	strb.w	r0, [sp, #3]
	.loc	2 414 22                        @ ../USB_DEVICE/Target/usbd_conf.c:414:22
	strb.w	r0, [sp, #2]
	.loc	2 416 29                        @ ../USB_DEVICE/Target/usbd_conf.c:416:29
	ldr	r0, [sp, #4]
	.loc	2 416 35 is_stmt 0              @ ../USB_DEVICE/Target/usbd_conf.c:416:35
	ldr.w	r0, [r0, #712]
	.loc	2 416 16                        @ ../USB_DEVICE/Target/usbd_conf.c:416:16
	bl	HAL_PCD_Stop
	.loc	2 416 14                        @ ../USB_DEVICE/Target/usbd_conf.c:416:14
	strb.w	r0, [sp, #3]
	.loc	2 418 36 is_stmt 1              @ ../USB_DEVICE/Target/usbd_conf.c:418:36
	ldrb.w	r0, [sp, #3]
	.loc	2 418 16 is_stmt 0              @ ../USB_DEVICE/Target/usbd_conf.c:418:16
	bl	USBD_Get_USB_Status
	.loc	2 418 14                        @ ../USB_DEVICE/Target/usbd_conf.c:418:14
	strb.w	r0, [sp, #2]
	.loc	2 420 10 is_stmt 1              @ ../USB_DEVICE/Target/usbd_conf.c:420:10
	ldrb.w	r0, [sp, #2]
	.loc	2 420 3 is_stmt 0               @ ../USB_DEVICE/Target/usbd_conf.c:420:3
	add	sp, #8
	pop	{r7, pc}
.Ltmp69:
.Lfunc_end17:
	.size	USBD_LL_Stop, .Lfunc_end17-USBD_LL_Stop
	.cfi_endproc
	.cantunwind
	.fnend
                                        @ -- End function
	.section	.text.USBD_LL_OpenEP,"ax",%progbits
	.hidden	USBD_LL_OpenEP                  @ -- Begin function USBD_LL_OpenEP
	.globl	USBD_LL_OpenEP
	.p2align	2
	.type	USBD_LL_OpenEP,%function
	.code	16                              @ @USBD_LL_OpenEP
	.thumb_func
USBD_LL_OpenEP:
.Lfunc_begin18:
	.loc	2 432 0 is_stmt 1               @ ../USB_DEVICE/Target/usbd_conf.c:432:0
	.fnstart
	.cfi_startproc
@ %bb.0:
	.save	{r7, lr}
	push	{r7, lr}
	.cfi_def_cfa_offset 8
	.cfi_offset lr, -4
	.cfi_offset r7, -8
	.pad	#16
	sub	sp, #16
	.cfi_def_cfa_offset 24
                                        @ kill: def $r12 killed $r3
                                        @ kill: def $r12 killed $r2
                                        @ kill: def $r12 killed $r1
	str	r0, [sp, #12]
	strb.w	r1, [sp, #11]
	strb.w	r2, [sp, #10]
	strh.w	r3, [sp, #8]
	movs	r0, #0
.Ltmp70:
	.loc	2 433 21 prologue_end           @ ../USB_DEVICE/Target/usbd_conf.c:433:21
	strb.w	r0, [sp, #7]
	.loc	2 434 22                        @ ../USB_DEVICE/Target/usbd_conf.c:434:22
	strb.w	r0, [sp, #6]
	.loc	2 436 32                        @ ../USB_DEVICE/Target/usbd_conf.c:436:32
	ldr	r0, [sp, #12]
	.loc	2 436 38 is_stmt 0              @ ../USB_DEVICE/Target/usbd_conf.c:436:38
	ldr.w	r0, [r0, #712]
	.loc	2 436 45                        @ ../USB_DEVICE/Target/usbd_conf.c:436:45
	ldrb.w	r1, [sp, #11]
	.loc	2 436 54                        @ ../USB_DEVICE/Target/usbd_conf.c:436:54
	ldrh.w	r2, [sp, #8]
	.loc	2 436 62                        @ ../USB_DEVICE/Target/usbd_conf.c:436:62
	ldrb.w	r3, [sp, #10]
	.loc	2 436 16                        @ ../USB_DEVICE/Target/usbd_conf.c:436:16
	bl	HAL_PCD_EP_Open
	.loc	2 436 14                        @ ../USB_DEVICE/Target/usbd_conf.c:436:14
	strb.w	r0, [sp, #7]
	.loc	2 438 36 is_stmt 1              @ ../USB_DEVICE/Target/usbd_conf.c:438:36
	ldrb.w	r0, [sp, #7]
	.loc	2 438 16 is_stmt 0              @ ../USB_DEVICE/Target/usbd_conf.c:438:16
	bl	USBD_Get_USB_Status
	.loc	2 438 14                        @ ../USB_DEVICE/Target/usbd_conf.c:438:14
	strb.w	r0, [sp, #6]
	.loc	2 440 10 is_stmt 1              @ ../USB_DEVICE/Target/usbd_conf.c:440:10
	ldrb.w	r0, [sp, #6]
	.loc	2 440 3 is_stmt 0               @ ../USB_DEVICE/Target/usbd_conf.c:440:3
	add	sp, #16
	pop	{r7, pc}
.Ltmp71:
.Lfunc_end18:
	.size	USBD_LL_OpenEP, .Lfunc_end18-USBD_LL_OpenEP
	.cfi_endproc
	.cantunwind
	.fnend
                                        @ -- End function
	.section	.text.USBD_LL_CloseEP,"ax",%progbits
	.hidden	USBD_LL_CloseEP                 @ -- Begin function USBD_LL_CloseEP
	.globl	USBD_LL_CloseEP
	.p2align	2
	.type	USBD_LL_CloseEP,%function
	.code	16                              @ @USBD_LL_CloseEP
	.thumb_func
USBD_LL_CloseEP:
.Lfunc_begin19:
	.loc	2 450 0 is_stmt 1               @ ../USB_DEVICE/Target/usbd_conf.c:450:0
	.fnstart
	.cfi_startproc
@ %bb.0:
	.save	{r7, lr}
	push	{r7, lr}
	.cfi_def_cfa_offset 8
	.cfi_offset lr, -4
	.cfi_offset r7, -8
	.pad	#8
	sub	sp, #8
	.cfi_def_cfa_offset 16
                                        @ kill: def $r2 killed $r1
	str	r0, [sp, #4]
	strb.w	r1, [sp, #3]
	movs	r0, #0
.Ltmp72:
	.loc	2 451 21 prologue_end           @ ../USB_DEVICE/Target/usbd_conf.c:451:21
	strb.w	r0, [sp, #2]
	.loc	2 452 22                        @ ../USB_DEVICE/Target/usbd_conf.c:452:22
	strb.w	r0, [sp, #1]
	.loc	2 454 33                        @ ../USB_DEVICE/Target/usbd_conf.c:454:33
	ldr	r0, [sp, #4]
	.loc	2 454 39 is_stmt 0              @ ../USB_DEVICE/Target/usbd_conf.c:454:39
	ldr.w	r0, [r0, #712]
	.loc	2 454 46                        @ ../USB_DEVICE/Target/usbd_conf.c:454:46
	ldrb.w	r1, [sp, #3]
	.loc	2 454 16                        @ ../USB_DEVICE/Target/usbd_conf.c:454:16
	bl	HAL_PCD_EP_Close
	.loc	2 454 14                        @ ../USB_DEVICE/Target/usbd_conf.c:454:14
	strb.w	r0, [sp, #2]
	.loc	2 456 36 is_stmt 1              @ ../USB_DEVICE/Target/usbd_conf.c:456:36
	ldrb.w	r0, [sp, #2]
	.loc	2 456 16 is_stmt 0              @ ../USB_DEVICE/Target/usbd_conf.c:456:16
	bl	USBD_Get_USB_Status
	.loc	2 456 14                        @ ../USB_DEVICE/Target/usbd_conf.c:456:14
	strb.w	r0, [sp, #1]
	.loc	2 458 10 is_stmt 1              @ ../USB_DEVICE/Target/usbd_conf.c:458:10
	ldrb.w	r0, [sp, #1]
	.loc	2 458 3 is_stmt 0               @ ../USB_DEVICE/Target/usbd_conf.c:458:3
	add	sp, #8
	pop	{r7, pc}
.Ltmp73:
.Lfunc_end19:
	.size	USBD_LL_CloseEP, .Lfunc_end19-USBD_LL_CloseEP
	.cfi_endproc
	.cantunwind
	.fnend
                                        @ -- End function
	.section	.text.USBD_LL_FlushEP,"ax",%progbits
	.hidden	USBD_LL_FlushEP                 @ -- Begin function USBD_LL_FlushEP
	.globl	USBD_LL_FlushEP
	.p2align	2
	.type	USBD_LL_FlushEP,%function
	.code	16                              @ @USBD_LL_FlushEP
	.thumb_func
USBD_LL_FlushEP:
.Lfunc_begin20:
	.loc	2 468 0 is_stmt 1               @ ../USB_DEVICE/Target/usbd_conf.c:468:0
	.fnstart
	.cfi_startproc
@ %bb.0:
	.save	{r7, lr}
	push	{r7, lr}
	.cfi_def_cfa_offset 8
	.cfi_offset lr, -4
	.cfi_offset r7, -8
	.pad	#8
	sub	sp, #8
	.cfi_def_cfa_offset 16
                                        @ kill: def $r2 killed $r1
	str	r0, [sp, #4]
	strb.w	r1, [sp, #3]
	movs	r0, #0
.Ltmp74:
	.loc	2 469 21 prologue_end           @ ../USB_DEVICE/Target/usbd_conf.c:469:21
	strb.w	r0, [sp, #2]
	.loc	2 470 22                        @ ../USB_DEVICE/Target/usbd_conf.c:470:22
	strb.w	r0, [sp, #1]
	.loc	2 472 33                        @ ../USB_DEVICE/Target/usbd_conf.c:472:33
	ldr	r0, [sp, #4]
	.loc	2 472 39 is_stmt 0              @ ../USB_DEVICE/Target/usbd_conf.c:472:39
	ldr.w	r0, [r0, #712]
	.loc	2 472 46                        @ ../USB_DEVICE/Target/usbd_conf.c:472:46
	ldrb.w	r1, [sp, #3]
	.loc	2 472 16                        @ ../USB_DEVICE/Target/usbd_conf.c:472:16
	bl	HAL_PCD_EP_Flush
	.loc	2 472 14                        @ ../USB_DEVICE/Target/usbd_conf.c:472:14
	strb.w	r0, [sp, #2]
	.loc	2 474 36 is_stmt 1              @ ../USB_DEVICE/Target/usbd_conf.c:474:36
	ldrb.w	r0, [sp, #2]
	.loc	2 474 16 is_stmt 0              @ ../USB_DEVICE/Target/usbd_conf.c:474:16
	bl	USBD_Get_USB_Status
	.loc	2 474 14                        @ ../USB_DEVICE/Target/usbd_conf.c:474:14
	strb.w	r0, [sp, #1]
	.loc	2 476 10 is_stmt 1              @ ../USB_DEVICE/Target/usbd_conf.c:476:10
	ldrb.w	r0, [sp, #1]
	.loc	2 476 3 is_stmt 0               @ ../USB_DEVICE/Target/usbd_conf.c:476:3
	add	sp, #8
	pop	{r7, pc}
.Ltmp75:
.Lfunc_end20:
	.size	USBD_LL_FlushEP, .Lfunc_end20-USBD_LL_FlushEP
	.cfi_endproc
	.cantunwind
	.fnend
                                        @ -- End function
	.section	.text.USBD_LL_StallEP,"ax",%progbits
	.hidden	USBD_LL_StallEP                 @ -- Begin function USBD_LL_StallEP
	.globl	USBD_LL_StallEP
	.p2align	2
	.type	USBD_LL_StallEP,%function
	.code	16                              @ @USBD_LL_StallEP
	.thumb_func
USBD_LL_StallEP:
.Lfunc_begin21:
	.loc	2 486 0 is_stmt 1               @ ../USB_DEVICE/Target/usbd_conf.c:486:0
	.fnstart
	.cfi_startproc
@ %bb.0:
	.save	{r7, lr}
	push	{r7, lr}
	.cfi_def_cfa_offset 8
	.cfi_offset lr, -4
	.cfi_offset r7, -8
	.pad	#8
	sub	sp, #8
	.cfi_def_cfa_offset 16
                                        @ kill: def $r2 killed $r1
	str	r0, [sp, #4]
	strb.w	r1, [sp, #3]
	movs	r0, #0
.Ltmp76:
	.loc	2 487 21 prologue_end           @ ../USB_DEVICE/Target/usbd_conf.c:487:21
	strb.w	r0, [sp, #2]
	.loc	2 488 22                        @ ../USB_DEVICE/Target/usbd_conf.c:488:22
	strb.w	r0, [sp, #1]
	.loc	2 490 36                        @ ../USB_DEVICE/Target/usbd_conf.c:490:36
	ldr	r0, [sp, #4]
	.loc	2 490 42 is_stmt 0              @ ../USB_DEVICE/Target/usbd_conf.c:490:42
	ldr.w	r0, [r0, #712]
	.loc	2 490 49                        @ ../USB_DEVICE/Target/usbd_conf.c:490:49
	ldrb.w	r1, [sp, #3]
	.loc	2 490 16                        @ ../USB_DEVICE/Target/usbd_conf.c:490:16
	bl	HAL_PCD_EP_SetStall
	.loc	2 490 14                        @ ../USB_DEVICE/Target/usbd_conf.c:490:14
	strb.w	r0, [sp, #2]
	.loc	2 492 36 is_stmt 1              @ ../USB_DEVICE/Target/usbd_conf.c:492:36
	ldrb.w	r0, [sp, #2]
	.loc	2 492 16 is_stmt 0              @ ../USB_DEVICE/Target/usbd_conf.c:492:16
	bl	USBD_Get_USB_Status
	.loc	2 492 14                        @ ../USB_DEVICE/Target/usbd_conf.c:492:14
	strb.w	r0, [sp, #1]
	.loc	2 494 10 is_stmt 1              @ ../USB_DEVICE/Target/usbd_conf.c:494:10
	ldrb.w	r0, [sp, #1]
	.loc	2 494 3 is_stmt 0               @ ../USB_DEVICE/Target/usbd_conf.c:494:3
	add	sp, #8
	pop	{r7, pc}
.Ltmp77:
.Lfunc_end21:
	.size	USBD_LL_StallEP, .Lfunc_end21-USBD_LL_StallEP
	.cfi_endproc
	.cantunwind
	.fnend
                                        @ -- End function
	.section	.text.USBD_LL_ClearStallEP,"ax",%progbits
	.hidden	USBD_LL_ClearStallEP            @ -- Begin function USBD_LL_ClearStallEP
	.globl	USBD_LL_ClearStallEP
	.p2align	2
	.type	USBD_LL_ClearStallEP,%function
	.code	16                              @ @USBD_LL_ClearStallEP
	.thumb_func
USBD_LL_ClearStallEP:
.Lfunc_begin22:
	.loc	2 504 0 is_stmt 1               @ ../USB_DEVICE/Target/usbd_conf.c:504:0
	.fnstart
	.cfi_startproc
@ %bb.0:
	.save	{r7, lr}
	push	{r7, lr}
	.cfi_def_cfa_offset 8
	.cfi_offset lr, -4
	.cfi_offset r7, -8
	.pad	#8
	sub	sp, #8
	.cfi_def_cfa_offset 16
                                        @ kill: def $r2 killed $r1
	str	r0, [sp, #4]
	strb.w	r1, [sp, #3]
	movs	r0, #0
.Ltmp78:
	.loc	2 505 21 prologue_end           @ ../USB_DEVICE/Target/usbd_conf.c:505:21
	strb.w	r0, [sp, #2]
	.loc	2 506 22                        @ ../USB_DEVICE/Target/usbd_conf.c:506:22
	strb.w	r0, [sp, #1]
	.loc	2 508 36                        @ ../USB_DEVICE/Target/usbd_conf.c:508:36
	ldr	r0, [sp, #4]
	.loc	2 508 42 is_stmt 0              @ ../USB_DEVICE/Target/usbd_conf.c:508:42
	ldr.w	r0, [r0, #712]
	.loc	2 508 49                        @ ../USB_DEVICE/Target/usbd_conf.c:508:49
	ldrb.w	r1, [sp, #3]
	.loc	2 508 16                        @ ../USB_DEVICE/Target/usbd_conf.c:508:16
	bl	HAL_PCD_EP_ClrStall
	.loc	2 508 14                        @ ../USB_DEVICE/Target/usbd_conf.c:508:14
	strb.w	r0, [sp, #2]
	.loc	2 510 36 is_stmt 1              @ ../USB_DEVICE/Target/usbd_conf.c:510:36
	ldrb.w	r0, [sp, #2]
	.loc	2 510 16 is_stmt 0              @ ../USB_DEVICE/Target/usbd_conf.c:510:16
	bl	USBD_Get_USB_Status
	.loc	2 510 14                        @ ../USB_DEVICE/Target/usbd_conf.c:510:14
	strb.w	r0, [sp, #1]
	.loc	2 512 10 is_stmt 1              @ ../USB_DEVICE/Target/usbd_conf.c:512:10
	ldrb.w	r0, [sp, #1]
	.loc	2 512 3 is_stmt 0               @ ../USB_DEVICE/Target/usbd_conf.c:512:3
	add	sp, #8
	pop	{r7, pc}
.Ltmp79:
.Lfunc_end22:
	.size	USBD_LL_ClearStallEP, .Lfunc_end22-USBD_LL_ClearStallEP
	.cfi_endproc
	.cantunwind
	.fnend
                                        @ -- End function
	.section	.text.USBD_LL_IsStallEP,"ax",%progbits
	.hidden	USBD_LL_IsStallEP               @ -- Begin function USBD_LL_IsStallEP
	.globl	USBD_LL_IsStallEP
	.p2align	2
	.type	USBD_LL_IsStallEP,%function
	.code	16                              @ @USBD_LL_IsStallEP
	.thumb_func
USBD_LL_IsStallEP:
.Lfunc_begin23:
	.loc	2 522 0 is_stmt 1               @ ../USB_DEVICE/Target/usbd_conf.c:522:0
	.fnstart
	.cfi_startproc
@ %bb.0:
	.pad	#16
	sub	sp, #16
	.cfi_def_cfa_offset 16
                                        @ kill: def $r2 killed $r1
	str	r0, [sp, #8]
	strb.w	r1, [sp, #7]
.Ltmp80:
	.loc	2 523 50 prologue_end           @ ../USB_DEVICE/Target/usbd_conf.c:523:50
	ldr	r0, [sp, #8]
	.loc	2 523 56 is_stmt 0              @ ../USB_DEVICE/Target/usbd_conf.c:523:56
	ldr.w	r0, [r0, #712]
	.loc	2 523 22                        @ ../USB_DEVICE/Target/usbd_conf.c:523:22
	str	r0, [sp]
.Ltmp81:
	.loc	2 525 7 is_stmt 1               @ ../USB_DEVICE/Target/usbd_conf.c:525:7
	ldrb.w	r0, [sp, #7]
.Ltmp82:
	.loc	2 525 6 is_stmt 0               @ ../USB_DEVICE/Target/usbd_conf.c:525:6
	lsls	r0, r0, #24
	cmp	r0, #0
	bpl	.LBB23_2
	b	.LBB23_1
.LBB23_1:
.Ltmp83:
	.loc	2 527 12 is_stmt 1              @ ../USB_DEVICE/Target/usbd_conf.c:527:12
	ldr	r0, [sp]
	.loc	2 527 24 is_stmt 0              @ ../USB_DEVICE/Target/usbd_conf.c:527:24
	ldrb.w	r1, [sp, #7]
	.loc	2 527 32                        @ ../USB_DEVICE/Target/usbd_conf.c:527:32
	and	r1, r1, #127
	.loc	2 527 12                        @ ../USB_DEVICE/Target/usbd_conf.c:527:12
	add.w	r1, r1, r1, lsl #3
	.loc	2 527 18                        @ ../USB_DEVICE/Target/usbd_conf.c:527:18
	add.w	r0, r0, r1, lsl #2
	.loc	2 527 40                        @ ../USB_DEVICE/Target/usbd_conf.c:527:40
	ldrb	r0, [r0, #22]
	.loc	2 527 5                         @ ../USB_DEVICE/Target/usbd_conf.c:527:5
	strb.w	r0, [sp, #15]
	b	.LBB23_3
.Ltmp84:
.LBB23_2:
	.loc	2 531 12 is_stmt 1              @ ../USB_DEVICE/Target/usbd_conf.c:531:12
	ldr	r0, [sp]
	.loc	2 531 25 is_stmt 0              @ ../USB_DEVICE/Target/usbd_conf.c:531:25
	ldrb.w	r1, [sp, #7]
	.loc	2 531 33                        @ ../USB_DEVICE/Target/usbd_conf.c:531:33
	and	r1, r1, #127
	.loc	2 531 12                        @ ../USB_DEVICE/Target/usbd_conf.c:531:12
	add.w	r1, r1, r1, lsl #3
	.loc	2 531 18                        @ ../USB_DEVICE/Target/usbd_conf.c:531:18
	add.w	r0, r0, r1, lsl #2
	.loc	2 531 41                        @ ../USB_DEVICE/Target/usbd_conf.c:531:41
	ldrb.w	r0, [r0, #598]
	.loc	2 531 5                         @ ../USB_DEVICE/Target/usbd_conf.c:531:5
	strb.w	r0, [sp, #15]
	b	.LBB23_3
.Ltmp85:
.LBB23_3:
	.loc	2 533 1 is_stmt 1               @ ../USB_DEVICE/Target/usbd_conf.c:533:1
	ldrb.w	r0, [sp, #15]
	add	sp, #16
	bx	lr
.Ltmp86:
.Lfunc_end23:
	.size	USBD_LL_IsStallEP, .Lfunc_end23-USBD_LL_IsStallEP
	.cfi_endproc
	.cantunwind
	.fnend
                                        @ -- End function
	.section	.text.USBD_LL_SetUSBAddress,"ax",%progbits
	.hidden	USBD_LL_SetUSBAddress           @ -- Begin function USBD_LL_SetUSBAddress
	.globl	USBD_LL_SetUSBAddress
	.p2align	2
	.type	USBD_LL_SetUSBAddress,%function
	.code	16                              @ @USBD_LL_SetUSBAddress
	.thumb_func
USBD_LL_SetUSBAddress:
.Lfunc_begin24:
	.loc	2 542 0                         @ ../USB_DEVICE/Target/usbd_conf.c:542:0
	.fnstart
	.cfi_startproc
@ %bb.0:
	.save	{r7, lr}
	push	{r7, lr}
	.cfi_def_cfa_offset 8
	.cfi_offset lr, -4
	.cfi_offset r7, -8
	.pad	#8
	sub	sp, #8
	.cfi_def_cfa_offset 16
                                        @ kill: def $r2 killed $r1
	str	r0, [sp, #4]
	strb.w	r1, [sp, #3]
	movs	r0, #0
.Ltmp87:
	.loc	2 543 21 prologue_end           @ ../USB_DEVICE/Target/usbd_conf.c:543:21
	strb.w	r0, [sp, #2]
	.loc	2 544 22                        @ ../USB_DEVICE/Target/usbd_conf.c:544:22
	strb.w	r0, [sp, #1]
	.loc	2 546 35                        @ ../USB_DEVICE/Target/usbd_conf.c:546:35
	ldr	r0, [sp, #4]
	.loc	2 546 41 is_stmt 0              @ ../USB_DEVICE/Target/usbd_conf.c:546:41
	ldr.w	r0, [r0, #712]
	.loc	2 546 48                        @ ../USB_DEVICE/Target/usbd_conf.c:546:48
	ldrb.w	r1, [sp, #3]
	.loc	2 546 16                        @ ../USB_DEVICE/Target/usbd_conf.c:546:16
	bl	HAL_PCD_SetAddress
	.loc	2 546 14                        @ ../USB_DEVICE/Target/usbd_conf.c:546:14
	strb.w	r0, [sp, #2]
	.loc	2 548 36 is_stmt 1              @ ../USB_DEVICE/Target/usbd_conf.c:548:36
	ldrb.w	r0, [sp, #2]
	.loc	2 548 16 is_stmt 0              @ ../USB_DEVICE/Target/usbd_conf.c:548:16
	bl	USBD_Get_USB_Status
	.loc	2 548 14                        @ ../USB_DEVICE/Target/usbd_conf.c:548:14
	strb.w	r0, [sp, #1]
	.loc	2 550 10 is_stmt 1              @ ../USB_DEVICE/Target/usbd_conf.c:550:10
	ldrb.w	r0, [sp, #1]
	.loc	2 550 3 is_stmt 0               @ ../USB_DEVICE/Target/usbd_conf.c:550:3
	add	sp, #8
	pop	{r7, pc}
.Ltmp88:
.Lfunc_end24:
	.size	USBD_LL_SetUSBAddress, .Lfunc_end24-USBD_LL_SetUSBAddress
	.cfi_endproc
	.cantunwind
	.fnend
                                        @ -- End function
	.section	.text.USBD_LL_Transmit,"ax",%progbits
	.hidden	USBD_LL_Transmit                @ -- Begin function USBD_LL_Transmit
	.globl	USBD_LL_Transmit
	.p2align	2
	.type	USBD_LL_Transmit,%function
	.code	16                              @ @USBD_LL_Transmit
	.thumb_func
USBD_LL_Transmit:
.Lfunc_begin25:
	.loc	2 562 0 is_stmt 1               @ ../USB_DEVICE/Target/usbd_conf.c:562:0
	.fnstart
	.cfi_startproc
@ %bb.0:
	.save	{r7, lr}
	push	{r7, lr}
	.cfi_def_cfa_offset 8
	.cfi_offset lr, -4
	.cfi_offset r7, -8
	.pad	#24
	sub	sp, #24
	.cfi_def_cfa_offset 32
                                        @ kill: def $r12 killed $r1
	str	r0, [sp, #20]
	strb.w	r1, [sp, #19]
	str	r2, [sp, #12]
	str	r3, [sp, #8]
	movs	r0, #0
.Ltmp89:
	.loc	2 563 21 prologue_end           @ ../USB_DEVICE/Target/usbd_conf.c:563:21
	strb.w	r0, [sp, #7]
	.loc	2 564 22                        @ ../USB_DEVICE/Target/usbd_conf.c:564:22
	strb.w	r0, [sp, #6]
	.loc	2 566 36                        @ ../USB_DEVICE/Target/usbd_conf.c:566:36
	ldr	r0, [sp, #20]
	.loc	2 566 42 is_stmt 0              @ ../USB_DEVICE/Target/usbd_conf.c:566:42
	ldr.w	r0, [r0, #712]
	.loc	2 566 49                        @ ../USB_DEVICE/Target/usbd_conf.c:566:49
	ldrb.w	r1, [sp, #19]
	.loc	2 566 58                        @ ../USB_DEVICE/Target/usbd_conf.c:566:58
	ldr	r2, [sp, #12]
	.loc	2 566 64                        @ ../USB_DEVICE/Target/usbd_conf.c:566:64
	ldr	r3, [sp, #8]
	.loc	2 566 16                        @ ../USB_DEVICE/Target/usbd_conf.c:566:16
	bl	HAL_PCD_EP_Transmit
	.loc	2 566 14                        @ ../USB_DEVICE/Target/usbd_conf.c:566:14
	strb.w	r0, [sp, #7]
	.loc	2 568 36 is_stmt 1              @ ../USB_DEVICE/Target/usbd_conf.c:568:36
	ldrb.w	r0, [sp, #7]
	.loc	2 568 16 is_stmt 0              @ ../USB_DEVICE/Target/usbd_conf.c:568:16
	bl	USBD_Get_USB_Status
	.loc	2 568 14                        @ ../USB_DEVICE/Target/usbd_conf.c:568:14
	strb.w	r0, [sp, #6]
	.loc	2 570 10 is_stmt 1              @ ../USB_DEVICE/Target/usbd_conf.c:570:10
	ldrb.w	r0, [sp, #6]
	.loc	2 570 3 is_stmt 0               @ ../USB_DEVICE/Target/usbd_conf.c:570:3
	add	sp, #24
	pop	{r7, pc}
.Ltmp90:
.Lfunc_end25:
	.size	USBD_LL_Transmit, .Lfunc_end25-USBD_LL_Transmit
	.cfi_endproc
	.cantunwind
	.fnend
                                        @ -- End function
	.section	.text.USBD_LL_PrepareReceive,"ax",%progbits
	.hidden	USBD_LL_PrepareReceive          @ -- Begin function USBD_LL_PrepareReceive
	.globl	USBD_LL_PrepareReceive
	.p2align	2
	.type	USBD_LL_PrepareReceive,%function
	.code	16                              @ @USBD_LL_PrepareReceive
	.thumb_func
USBD_LL_PrepareReceive:
.Lfunc_begin26:
	.loc	2 582 0 is_stmt 1               @ ../USB_DEVICE/Target/usbd_conf.c:582:0
	.fnstart
	.cfi_startproc
@ %bb.0:
	.save	{r7, lr}
	push	{r7, lr}
	.cfi_def_cfa_offset 8
	.cfi_offset lr, -4
	.cfi_offset r7, -8
	.pad	#24
	sub	sp, #24
	.cfi_def_cfa_offset 32
                                        @ kill: def $r12 killed $r1
	str	r0, [sp, #20]
	strb.w	r1, [sp, #19]
	str	r2, [sp, #12]
	str	r3, [sp, #8]
	movs	r0, #0
.Ltmp91:
	.loc	2 583 21 prologue_end           @ ../USB_DEVICE/Target/usbd_conf.c:583:21
	strb.w	r0, [sp, #7]
	.loc	2 584 22                        @ ../USB_DEVICE/Target/usbd_conf.c:584:22
	strb.w	r0, [sp, #6]
	.loc	2 586 35                        @ ../USB_DEVICE/Target/usbd_conf.c:586:35
	ldr	r0, [sp, #20]
	.loc	2 586 41 is_stmt 0              @ ../USB_DEVICE/Target/usbd_conf.c:586:41
	ldr.w	r0, [r0, #712]
	.loc	2 586 48                        @ ../USB_DEVICE/Target/usbd_conf.c:586:48
	ldrb.w	r1, [sp, #19]
	.loc	2 586 57                        @ ../USB_DEVICE/Target/usbd_conf.c:586:57
	ldr	r2, [sp, #12]
	.loc	2 586 63                        @ ../USB_DEVICE/Target/usbd_conf.c:586:63
	ldr	r3, [sp, #8]
	.loc	2 586 16                        @ ../USB_DEVICE/Target/usbd_conf.c:586:16
	bl	HAL_PCD_EP_Receive
	.loc	2 586 14                        @ ../USB_DEVICE/Target/usbd_conf.c:586:14
	strb.w	r0, [sp, #7]
	.loc	2 588 36 is_stmt 1              @ ../USB_DEVICE/Target/usbd_conf.c:588:36
	ldrb.w	r0, [sp, #7]
	.loc	2 588 16 is_stmt 0              @ ../USB_DEVICE/Target/usbd_conf.c:588:16
	bl	USBD_Get_USB_Status
	.loc	2 588 14                        @ ../USB_DEVICE/Target/usbd_conf.c:588:14
	strb.w	r0, [sp, #6]
	.loc	2 590 10 is_stmt 1              @ ../USB_DEVICE/Target/usbd_conf.c:590:10
	ldrb.w	r0, [sp, #6]
	.loc	2 590 3 is_stmt 0               @ ../USB_DEVICE/Target/usbd_conf.c:590:3
	add	sp, #24
	pop	{r7, pc}
.Ltmp92:
.Lfunc_end26:
	.size	USBD_LL_PrepareReceive, .Lfunc_end26-USBD_LL_PrepareReceive
	.cfi_endproc
	.cantunwind
	.fnend
                                        @ -- End function
	.section	.text.USBD_LL_GetRxDataSize,"ax",%progbits
	.hidden	USBD_LL_GetRxDataSize           @ -- Begin function USBD_LL_GetRxDataSize
	.globl	USBD_LL_GetRxDataSize
	.p2align	2
	.type	USBD_LL_GetRxDataSize,%function
	.code	16                              @ @USBD_LL_GetRxDataSize
	.thumb_func
USBD_LL_GetRxDataSize:
.Lfunc_begin27:
	.loc	2 600 0 is_stmt 1               @ ../USB_DEVICE/Target/usbd_conf.c:600:0
	.fnstart
	.cfi_startproc
@ %bb.0:
	.save	{r7, lr}
	push	{r7, lr}
	.cfi_def_cfa_offset 8
	.cfi_offset lr, -4
	.cfi_offset r7, -8
	.pad	#8
	sub	sp, #8
	.cfi_def_cfa_offset 16
                                        @ kill: def $r2 killed $r1
	str	r0, [sp, #4]
	strb.w	r1, [sp, #3]
.Ltmp93:
	.loc	2 601 53 prologue_end           @ ../USB_DEVICE/Target/usbd_conf.c:601:53
	ldr	r0, [sp, #4]
	.loc	2 601 59 is_stmt 0              @ ../USB_DEVICE/Target/usbd_conf.c:601:59
	ldr.w	r0, [r0, #712]
	.loc	2 601 66                        @ ../USB_DEVICE/Target/usbd_conf.c:601:66
	ldrb.w	r1, [sp, #3]
	.loc	2 601 10                        @ ../USB_DEVICE/Target/usbd_conf.c:601:10
	bl	HAL_PCD_EP_GetRxCount
	.loc	2 601 3                         @ ../USB_DEVICE/Target/usbd_conf.c:601:3
	add	sp, #8
	pop	{r7, pc}
.Ltmp94:
.Lfunc_end27:
	.size	USBD_LL_GetRxDataSize, .Lfunc_end27-USBD_LL_GetRxDataSize
	.cfi_endproc
	.cantunwind
	.fnend
                                        @ -- End function
	.section	.text.USBD_static_malloc,"ax",%progbits
	.hidden	USBD_static_malloc              @ -- Begin function USBD_static_malloc
	.globl	USBD_static_malloc
	.p2align	2
	.type	USBD_static_malloc,%function
	.code	16                              @ @USBD_static_malloc
	.thumb_func
USBD_static_malloc:
.Lfunc_begin28:
	.loc	2 626 0 is_stmt 1               @ ../USB_DEVICE/Target/usbd_conf.c:626:0
	.fnstart
	.cfi_startproc
@ %bb.0:
	.pad	#4
	sub	sp, #4
	.cfi_def_cfa_offset 4
	str	r0, [sp]
.Ltmp95:
	.loc	2 628 3 prologue_end            @ ../USB_DEVICE/Target/usbd_conf.c:628:3
	movw	r0, :lower16:USBD_static_malloc.mem
	movt	r0, :upper16:USBD_static_malloc.mem
	add	sp, #4
	bx	lr
.Ltmp96:
.Lfunc_end28:
	.size	USBD_static_malloc, .Lfunc_end28-USBD_static_malloc
	.cfi_endproc
	.cantunwind
	.fnend
                                        @ -- End function
	.section	.text.USBD_static_free,"ax",%progbits
	.hidden	USBD_static_free                @ -- Begin function USBD_static_free
	.globl	USBD_static_free
	.p2align	2
	.type	USBD_static_free,%function
	.code	16                              @ @USBD_static_free
	.thumb_func
USBD_static_free:
.Lfunc_begin29:
	.loc	2 637 0                         @ ../USB_DEVICE/Target/usbd_conf.c:637:0
	.fnstart
	.cfi_startproc
@ %bb.0:
	.pad	#4
	sub	sp, #4
	.cfi_def_cfa_offset 4
	str	r0, [sp]
.Ltmp97:
	.loc	2 639 1 prologue_end            @ ../USB_DEVICE/Target/usbd_conf.c:639:1
	add	sp, #4
	bx	lr
.Ltmp98:
.Lfunc_end29:
	.size	USBD_static_free, .Lfunc_end29-USBD_static_free
	.cfi_endproc
	.cantunwind
	.fnend
                                        @ -- End function
	.section	.text.USBD_LL_Delay,"ax",%progbits
	.hidden	USBD_LL_Delay                   @ -- Begin function USBD_LL_Delay
	.globl	USBD_LL_Delay
	.p2align	2
	.type	USBD_LL_Delay,%function
	.code	16                              @ @USBD_LL_Delay
	.thumb_func
USBD_LL_Delay:
.Lfunc_begin30:
	.loc	2 647 0                         @ ../USB_DEVICE/Target/usbd_conf.c:647:0
	.fnstart
	.cfi_startproc
@ %bb.0:
	.save	{r7, lr}
	push	{r7, lr}
	.cfi_def_cfa_offset 8
	.cfi_offset lr, -4
	.cfi_offset r7, -8
	.pad	#8
	sub	sp, #8
	.cfi_def_cfa_offset 16
	str	r0, [sp, #4]
.Ltmp99:
	.loc	2 648 13 prologue_end           @ ../USB_DEVICE/Target/usbd_conf.c:648:13
	ldr	r0, [sp, #4]
	.loc	2 648 3 is_stmt 0               @ ../USB_DEVICE/Target/usbd_conf.c:648:3
	bl	HAL_Delay
	.loc	2 649 1 is_stmt 1               @ ../USB_DEVICE/Target/usbd_conf.c:649:1
	add	sp, #8
	pop	{r7, pc}
.Ltmp100:
.Lfunc_end30:
	.size	USBD_LL_Delay, .Lfunc_end30-USBD_LL_Delay
	.cfi_endproc
	.cantunwind
	.fnend
                                        @ -- End function
	.hidden	hpcd_USB_OTG_FS                 @ @hpcd_USB_OTG_FS
	.type	hpcd_USB_OTG_FS,%object
	.section	.bss.hpcd_USB_OTG_FS,"aw",%nobits
	.globl	hpcd_USB_OTG_FS
	.p2align	2
hpcd_USB_OTG_FS:
	.zero	1252
	.size	hpcd_USB_OTG_FS, 1252

	.type	USBD_static_malloc.mem,%object  @ @USBD_static_malloc.mem
	.section	.bss.USBD_static_malloc.mem,"aw",%nobits
	.p2align	2
USBD_static_malloc.mem:
	.zero	544
	.size	USBD_static_malloc.mem, 544

	.file	10 "D:\\horizon\\Horizon_Infantry (2)\\MDK-ARM" "../Drivers/STM32F4xx_HAL_Driver/Inc\\stm32f4xx_hal_gpio.h"
	.section	".note.GNU-stack","",%progbits
	.eabi_attribute	30, 6	@ Tag_ABI_optimization_goals
	.ARM_attribute	16, 1	@ Tag_AV_eba