	.text
	.syntax unified
	.eabi_attribute	67, "2.09"	@ Tag_conformance
	.cpu	cortex-m4
	.eabi_attribute	6, 13	@ Tag_CPU_arch
	.eabi_attribute	7, 77	@ Tag_CPU_arch_profile
	.eabi_attribute	8, 0	@ Tag_ARM_ISA_use
	.eabi_attribute	9, 2	@ Tag_THUMB_ISA_use
	.fpu	fpv4-sp-d16
	.eabi_attribute	27, 1	@ Tag_ABI_HardFP_use
	.eabi_attribute	36, 1	@ Tag_FP_HP_extension
	.eabi_attribute	34, 1	@ Tag_CPU_unaligned_access
	.eabi_attribute	17, 1	@ Tag_ABI_PCS_GOT_use
	.eabi_attribute	20, 2	@ Tag_ABI_FP_denormal
	.eabi_attribute	21, 0	@ Tag_ABI_FP_exceptions
	.eabi_attribute	23, 3	@ Tag_ABI_FP_number_model
	.eabi_attribute	24, 1	@ Tag_ABI_align_needed
	.eabi_attribute	25, 1	@ Tag_ABI_align_preserved
	.eabi_attribute	28, 1	@ Tag_ABI_VFP_args
	.eabi_attribute	38, 1	@ Tag_ABI_FP_16bit_format
	.eabi_attribute	18, 2	@ Tag_ABI_PCS_wchar_t
	.eabi_attribute	26, 1	@ Tag_ABI_enum_size
	.eabi_attribute	14, 0	@ Tag_ABI_PCS_R9_use
	.file	"usbd_cdc.c"
	.file	1 "D:\\" "kevil\\ARM\\ARMCLANG\\Bin\\..\\include\\stdint.h"
	.file	2 "D:\\horizon\\Horizon_Infantry (2)\\MDK-ARM" "../Middlewares/ST/STM32_USB_Device_Library/Core/Inc/usbd_def.h"
	.file	3 "D:\\horizon\\Horizon_Infantry (2)\\MDK-ARM" "../Middlewares/ST/STM32_USB_Device_Library/Class/CDC/Src/usbd_cdc.c"
	.file	4 "D:\\horizon\\Horizon_Infantry (2)\\MDK-ARM" "../Drivers/STM32F4xx_HAL_Driver/Inc/stm32f4xx_hal_def.h"
	.file	5 "D:\\horizon\\Horizon_Infantry (2)\\MDK-ARM" "../Drivers/STM32F4xx_HAL_Driver/Inc\\stm32f4xx_hal_pcd.h"
	.file	6 "D:\\horizon\\Horizon_Infantry (2)\\MDK-ARM" "../Middlewares/ST/STM32_USB_Device_Library/Class/CDC/Inc\\usbd_cdc.h"
	.file	7 "D:\\horizon\\Horizon_Infantry (2)\\MDK-ARM" "../Drivers/CMSIS/Device/ST/STM32F4xx/Include/stm32f407xx.h"
	.file	8 "D:\\horizon\\Horizon_Infantry (2)\\MDK-ARM" "../Drivers/STM32F4xx_HAL_Driver/Inc/stm32f4xx_ll_usb.h"
	.section	.text.USBD_CDC_Init,"ax",%progbits
	.p2align	2                               @ -- Begin function USBD_CDC_Init
	.type	USBD_CDC_Init,%function
	.code	16                              @ @USBD_CDC_Init
	.thumb_func
USBD_CDC_Init:
.Lfunc_begin0:
	.loc	3 288 0                         @ ../Middlewares/ST/STM32_USB_Device_Library/Class/CDC/Src/usbd_cdc.c:288:0
	.fnstart
	.cfi_sections .debug_frame
	.cfi_startproc
@ %bb.0:
	.save	{r7, lr}
	push	{r7, lr}
	.cfi_def_cfa_offset 8
	.cfi_offset lr, -4
	.cfi_offset r7, -8
	.pad	#64
	sub	sp, #64
	.cfi_def_cfa_offset 72
                                        @ kill: def $r2 killed $r1
	str	r0, [sp, #56]
	strb.w	r1, [sp, #55]
	mov.w	r0, #540
.Ltmp0:
	.loc	3 292 44 prologue_end           @ ../Middlewares/ST/STM32_USB_Device_Library/Class/CDC/Src/usbd_cdc.c:292:44
	bl	USBD_static_malloc
	.loc	3 292 8 is_stmt 0               @ ../Middlewares/ST/STM32_USB_Device_Library/Class/CDC/Src/usbd_cdc.c:292:8
	str	r0, [sp, #48]
.Ltmp1:
	.loc	3 294 7 is_stmt 1               @ ../Middlewares/ST/STM32_USB_Device_Library/Class/CDC/Src/usbd_cdc.c:294:7
	ldr	r0, [sp, #48]
.Ltmp2:
	.loc	3 294 7 is_stmt 0               @ ../Middlewares/ST/STM32_USB_Device_Library/Class/CDC/Src/usbd_cdc.c:294:7
	cbnz	r0, .LBB0_2
	b	.LBB0_1
.LBB0_1:
.Ltmp3:
	.loc	3 296 5 is_stmt 1               @ ../Middlewares/ST/STM32_USB_Device_Library/Class/CDC/Src/usbd_cdc.c:296:5
	ldr	r0, [sp, #56]
	.loc	3 296 33 is_stmt 0              @ ../Middlewares/ST/STM32_USB_Device_Library/Class/CDC/Src/usbd_cdc.c:296:33
	ldr.w	r1, [r0, #724]
	.loc	3 296 11                        @ ../Middlewares/ST/STM32_USB_Device_Library/Class/CDC/Src/usbd_cdc.c:296:11
	add.w	r1, r0, r1, lsl #2
	movs	r0, #0
	.loc	3 296 42                        @ ../Middlewares/ST/STM32_USB_Device_Library/Class/CDC/Src/usbd_cdc.c:296:42
	str.w	r0, [r1, #704]
	movs	r0, #2
	.loc	3 297 5 is_stmt 1               @ ../Middlewares/ST/STM32_USB_Device_Library/Class/CDC/Src/usbd_cdc.c:297:5
	strb.w	r0, [sp, #63]
	b	.LBB0_11
.Ltmp4:
.LBB0_2:
	.loc	3 300 16                        @ ../Middlewares/ST/STM32_USB_Device_Library/Class/CDC/Src/usbd_cdc.c:300:16
	ldr	r0, [sp, #48]
	mov.w	r1, #540
	.loc	3 300 9 is_stmt 0               @ ../Middlewares/ST/STM32_USB_Device_Library/Class/CDC/Src/usbd_cdc.c:300:9
	bl	__aeabi_memclr4
	.loc	3 302 50 is_stmt 1              @ ../Middlewares/ST/STM32_USB_Device_Library/Class/CDC/Src/usbd_cdc.c:302:50
	ldr	r0, [sp, #48]
	.loc	3 302 3 is_stmt 0               @ ../Middlewares/ST/STM32_USB_Device_Library/Class/CDC/Src/usbd_cdc.c:302:3
	ldr	r1, [sp, #56]
	.loc	3 302 31                        @ ../Middlewares/ST/STM32_USB_Device_Library/Class/CDC/Src/usbd_cdc.c:302:31
	ldr.w	r2, [r1, #724]
	.loc	3 302 9                         @ ../Middlewares/ST/STM32_USB_Device_Library/Class/CDC/Src/usbd_cdc.c:302:9
	add.w	r1, r1, r2, lsl #2
	.loc	3 302 40                        @ ../Middlewares/ST/STM32_USB_Device_Library/Class/CDC/Src/usbd_cdc.c:302:40
	str.w	r0, [r1, #704]
	.loc	3 303 22 is_stmt 1              @ ../Middlewares/ST/STM32_USB_Device_Library/Class/CDC/Src/usbd_cdc.c:303:22
	ldr	r1, [sp, #56]
	.loc	3 303 50 is_stmt 0              @ ../Middlewares/ST/STM32_USB_Device_Library/Class/CDC/Src/usbd_cdc.c:303:50
	ldr.w	r0, [r1, #724]
	.loc	3 303 28                        @ ../Middlewares/ST/STM32_USB_Device_Library/Class/CDC/Src/usbd_cdc.c:303:28
	add.w	r0, r1, r0, lsl #2
	.loc	3 303 22                        @ ../Middlewares/ST/STM32_USB_Device_Library/Class/CDC/Src/usbd_cdc.c:303:22
	ldr.w	r0, [r0, #704]
	.loc	3 303 20                        @ ../Middlewares/ST/STM32_USB_Device_Library/Class/CDC/Src/usbd_cdc.c:303:20
	str.w	r0, [r1, #700]
.Ltmp5:
	.loc	3 312 7 is_stmt 1               @ ../Middlewares/ST/STM32_USB_Device_Library/Class/CDC/Src/usbd_cdc.c:312:7
	ldr	r0, [sp, #56]
	.loc	3 312 13 is_stmt 0              @ ../Middlewares/ST/STM32_USB_Device_Library/Class/CDC/Src/usbd_cdc.c:312:13
	ldrb	r0, [r0, #16]
.Ltmp6:
	.loc	3 312 7                         @ ../Middlewares/ST/STM32_USB_Device_Library/Class/CDC/Src/usbd_cdc.c:312:7
	cmp	r0, #0
	bne	.LBB0_4
	b	.LBB0_3
.LBB0_3:
.Ltmp7:
	.loc	3 315 26 is_stmt 1              @ ../Middlewares/ST/STM32_USB_Device_Library/Class/CDC/Src/usbd_cdc.c:315:26
	ldr	r0, [sp, #56]
	.loc	3 315 32 is_stmt 0              @ ../Middlewares/ST/STM32_USB_Device_Library/Class/CDC/Src/usbd_cdc.c:315:32
	movw	r1, :lower16:CDCInEpAdd
	movt	r1, :upper16:CDCInEpAdd
	str	r1, [sp, #28]                   @ 4-byte Spill
	ldrb	r1, [r1]
	movs	r2, #2
	str	r2, [sp, #32]                   @ 4-byte Spill
	mov.w	r3, #512
	.loc	3 315 11                        @ ../Middlewares/ST/STM32_USB_Device_Library/Class/CDC/Src/usbd_cdc.c:315:11
	str	r3, [sp, #36]                   @ 4-byte Spill
	bl	USBD_LL_OpenEP
	ldr	r1, [sp, #28]                   @ 4-byte Reload
	ldr	r2, [sp, #32]                   @ 4-byte Reload
	ldr	r3, [sp, #36]                   @ 4-byte Reload
	.loc	3 318 5 is_stmt 1               @ ../Middlewares/ST/STM32_USB_Device_Library/Class/CDC/Src/usbd_cdc.c:318:5
	ldr	r0, [sp, #56]
	.loc	3 318 17 is_stmt 0              @ ../Middlewares/ST/STM32_USB_Device_Library/Class/CDC/Src/usbd_cdc.c:318:17
	ldrb	r1, [r1]
	.loc	3 318 28                        @ ../Middlewares/ST/STM32_USB_Device_Library/Class/CDC/Src/usbd_cdc.c:318:28
	and	r1, r1, #15
	.loc	3 318 5                         @ ../Middlewares/ST/STM32_USB_Device_Library/Class/CDC/Src/usbd_cdc.c:318:5
	add.w	r1, r1, r1, lsl #2
	.loc	3 318 11                        @ ../Middlewares/ST/STM32_USB_Device_Library/Class/CDC/Src/usbd_cdc.c:318:11
	add.w	r1, r0, r1, lsl #2
	movs	r0, #1
	.loc	3 318 44                        @ ../Middlewares/ST/STM32_USB_Device_Library/Class/CDC/Src/usbd_cdc.c:318:44
	str	r0, [sp, #44]                   @ 4-byte Spill
	strb.w	r0, [r1, #35]
	.loc	3 321 26 is_stmt 1              @ ../Middlewares/ST/STM32_USB_Device_Library/Class/CDC/Src/usbd_cdc.c:321:26
	ldr	r0, [sp, #56]
	.loc	3 321 32 is_stmt 0              @ ../Middlewares/ST/STM32_USB_Device_Library/Class/CDC/Src/usbd_cdc.c:321:32
	movw	r1, :lower16:CDCOutEpAdd
	movt	r1, :upper16:CDCOutEpAdd
	str	r1, [sp, #40]                   @ 4-byte Spill
	ldrb	r1, [r1]
	.loc	3 321 11                        @ ../Middlewares/ST/STM32_USB_Device_Library/Class/CDC/Src/usbd_cdc.c:321:11
	bl	USBD_LL_OpenEP
	ldr	r2, [sp, #40]                   @ 4-byte Reload
                                        @ kill: def $r1 killed $r0
	.loc	3 324 5 is_stmt 1               @ ../Middlewares/ST/STM32_USB_Device_Library/Class/CDC/Src/usbd_cdc.c:324:5
	ldr	r0, [sp, #44]                   @ 4-byte Reload
	ldr	r1, [sp, #56]
	.loc	3 324 18 is_stmt 0              @ ../Middlewares/ST/STM32_USB_Device_Library/Class/CDC/Src/usbd_cdc.c:324:18
	ldrb	r2, [r2]
	.loc	3 324 30                        @ ../Middlewares/ST/STM32_USB_Device_Library/Class/CDC/Src/usbd_cdc.c:324:30
	and	r2, r2, #15
	.loc	3 324 5                         @ ../Middlewares/ST/STM32_USB_Device_Library/Class/CDC/Src/usbd_cdc.c:324:5
	add.w	r2, r2, r2, lsl #2
	.loc	3 324 11                        @ ../Middlewares/ST/STM32_USB_Device_Library/Class/CDC/Src/usbd_cdc.c:324:11
	add.w	r1, r1, r2, lsl #2
	.loc	3 324 46                        @ ../Middlewares/ST/STM32_USB_Device_Library/Class/CDC/Src/usbd_cdc.c:324:46
	strb.w	r0, [r1, #355]
	.loc	3 327 5 is_stmt 1               @ ../Middlewares/ST/STM32_USB_Device_Library/Class/CDC/Src/usbd_cdc.c:327:5
	ldr	r0, [sp, #56]
	.loc	3 327 17 is_stmt 0              @ ../Middlewares/ST/STM32_USB_Device_Library/Class/CDC/Src/usbd_cdc.c:327:17
	movw	r1, :lower16:CDCCmdEpAdd
	movt	r1, :upper16:CDCCmdEpAdd
	ldrb	r1, [r1]
	.loc	3 327 29                        @ ../Middlewares/ST/STM32_USB_Device_Library/Class/CDC/Src/usbd_cdc.c:327:29
	and	r1, r1, #15
	.loc	3 327 5                         @ ../Middlewares/ST/STM32_USB_Device_Library/Class/CDC/Src/usbd_cdc.c:327:5
	add.w	r1, r1, r1, lsl #2
	.loc	3 327 11                        @ ../Middlewares/ST/STM32_USB_Device_Library/Class/CDC/Src/usbd_cdc.c:327:11
	add.w	r1, r0, r1, lsl #2
	movs	r0, #16
	.loc	3 327 47                        @ ../Middlewares/ST/STM32_USB_Device_Library/Class/CDC/Src/usbd_cdc.c:327:47
	str	r0, [r1, #28]
	.loc	3 328 3 is_stmt 1               @ ../Middlewares/ST/STM32_USB_Device_Library/Class/CDC/Src/usbd_cdc.c:328:3
	b	.LBB0_5
.Ltmp8:
.LBB0_4:
	.loc	3 332 26                        @ ../Middlewares/ST/STM32_USB_Device_Library/Class/CDC/Src/usbd_cdc.c:332:26
	ldr	r0, [sp, #56]
	.loc	3 332 32 is_stmt 0              @ ../Middlewares/ST/STM32_USB_Device_Library/Class/CDC/Src/usbd_cdc.c:332:32
	movw	r1, :lower16:CDCInEpAdd
	movt	r1, :upper16:CDCInEpAdd
	str	r1, [sp, #8]                    @ 4-byte Spill
	ldrb	r1, [r1]
	movs	r2, #2
	str	r2, [sp, #12]                   @ 4-byte Spill
	movs	r3, #64
	.loc	3 332 11                        @ ../Middlewares/ST/STM32_USB_Device_Library/Class/CDC/Src/usbd_cdc.c:332:11
	str	r3, [sp, #16]                   @ 4-byte Spill
	bl	USBD_LL_OpenEP
	ldr	r1, [sp, #8]                    @ 4-byte Reload
	ldr	r2, [sp, #12]                   @ 4-byte Reload
	ldr	r3, [sp, #16]                   @ 4-byte Reload
	.loc	3 335 5 is_stmt 1               @ ../Middlewares/ST/STM32_USB_Device_Library/Class/CDC/Src/usbd_cdc.c:335:5
	ldr	r0, [sp, #56]
	.loc	3 335 17 is_stmt 0              @ ../Middlewares/ST/STM32_USB_Device_Library/Class/CDC/Src/usbd_cdc.c:335:17
	ldrb	r1, [r1]
	.loc	3 335 28                        @ ../Middlewares/ST/STM32_USB_Device_Library/Class/CDC/Src/usbd_cdc.c:335:28
	and	r1, r1, #15
	.loc	3 335 5                         @ ../Middlewares/ST/STM32_USB_Device_Library/Class/CDC/Src/usbd_cdc.c:335:5
	add.w	r1, r1, r1, lsl #2
	.loc	3 335 11                        @ ../Middlewares/ST/STM32_USB_Device_Library/Class/CDC/Src/usbd_cdc.c:335:11
	add.w	r1, r0, r1, lsl #2
	movs	r0, #1
	.loc	3 335 44                        @ ../Middlewares/ST/STM32_USB_Device_Library/Class/CDC/Src/usbd_cdc.c:335:44
	str	r0, [sp, #24]                   @ 4-byte Spill
	strb.w	r0, [r1, #35]
	.loc	3 338 26 is_stmt 1              @ ../Middlewares/ST/STM32_USB_Device_Library/Class/CDC/Src/usbd_cdc.c:338:26
	ldr	r0, [sp, #56]
	.loc	3 338 32 is_stmt 0              @ ../Middlewares/ST/STM32_USB_Device_Library/Class/CDC/Src/usbd_cdc.c:338:32
	movw	r1, :lower16:CDCOutEpAdd
	movt	r1, :upper16:CDCOutEpAdd
	str	r1, [sp, #20]                   @ 4-byte Spill
	ldrb	r1, [r1]
	.loc	3 338 11                        @ ../Middlewares/ST/STM32_USB_Device_Library/Class/CDC/Src/usbd_cdc.c:338:11
	bl	USBD_LL_OpenEP
	ldr	r2, [sp, #20]                   @ 4-byte Reload
                                        @ kill: def $r1 killed $r0
	.loc	3 341 5 is_stmt 1               @ ../Middlewares/ST/STM32_USB_Device_Library/Class/CDC/Src/usbd_cdc.c:341:5
	ldr	r0, [sp, #24]                   @ 4-byte Reload
	ldr	r1, [sp, #56]
	.loc	3 341 18 is_stmt 0              @ ../Middlewares/ST/STM32_USB_Device_Library/Class/CDC/Src/usbd_cdc.c:341:18
	ldrb	r2, [r2]
	.loc	3 341 30                        @ ../Middlewares/ST/STM32_USB_Device_Library/Class/CDC/Src/usbd_cdc.c:341:30
	and	r2, r2, #15
	.loc	3 341 5                         @ ../Middlewares/ST/STM32_USB_Device_Library/Class/CDC/Src/usbd_cdc.c:341:5
	add.w	r2, r2, r2, lsl #2
	.loc	3 341 11                        @ ../Middlewares/ST/STM32_USB_Device_Library/Class/CDC/Src/usbd_cdc.c:341:11
	add.w	r1, r1, r2, lsl #2
	.loc	3 341 46                        @ ../Middlewares/ST/STM32_USB_Device_Library/Class/CDC/Src/usbd_cdc.c:341:46
	strb.w	r0, [r1, #355]
	.loc	3 344 5 is_stmt 1               @ ../Middlewares/ST/STM32_USB_Device_Library/Class/CDC/Src/usbd_cdc.c:344:5
	ldr	r0, [sp, #56]
	.loc	3 344 17 is_stmt 0              @ ../Middlewares/ST/STM32_USB_Device_Library/Class/CDC/Src/usbd_cdc.c:344:17
	movw	r1, :lower16:CDCCmdEpAdd
	movt	r1, :upper16:CDCCmdEpAdd
	ldrb	r1, [r1]
	.loc	3 344 29                        @ ../Middlewares/ST/STM32_USB_Device_Library/Class/CDC/Src/usbd_cdc.c:344:29
	and	r1, r1, #15
	.loc	3 344 5                         @ ../Middlewares/ST/STM32_USB_Device_Library/Class/CDC/Src/usbd_cdc.c:344:5
	add.w	r1, r1, r1, lsl #2
	.loc	3 344 11                        @ ../Middlewares/ST/STM32_USB_Device_Library/Class/CDC/Src/usbd_cdc.c:344:11
	add.w	r1, r0, r1, lsl #2
	movs	r0, #16
	.loc	3 344 47                        @ ../Middlewares/ST/STM32_USB_Device_Library/Class/CDC/Src/usbd_cdc.c:344:47
	str	r0, [r1, #28]
	b	.LBB0_5
.Ltmp9:
.LBB0_5:
	.loc	3 348 24 is_stmt 1              @ ../Middlewares/ST/STM32_USB_Device_Library/Class/CDC/Src/usbd_cdc.c:348:24
	ldr	r0, [sp, #56]
	.loc	3 348 30 is_stmt 0              @ ../Middlewares/ST/STM32_USB_Device_Library/Class/CDC/Src/usbd_cdc.c:348:30
	movw	r1, :lower16:CDCCmdEpAdd
	movt	r1, :upper16:CDCCmdEpAdd
	str	r1, [sp]                        @ 4-byte Spill
	ldrb	r1, [r1]
	movs	r2, #3
	movs	r3, #8
	.loc	3 348 9                         @ ../Middlewares/ST/STM32_USB_Device_Library/Class/CDC/Src/usbd_cdc.c:348:9
	bl	USBD_LL_OpenEP
	ldr	r1, [sp]                        @ 4-byte Reload
	.loc	3 349 3 is_stmt 1               @ ../Middlewares/ST/STM32_USB_Device_Library/Class/CDC/Src/usbd_cdc.c:349:3
	ldr	r0, [sp, #56]
	.loc	3 349 15 is_stmt 0              @ ../Middlewares/ST/STM32_USB_Device_Library/Class/CDC/Src/usbd_cdc.c:349:15
	ldrb	r1, [r1]
	.loc	3 349 27                        @ ../Middlewares/ST/STM32_USB_Device_Library/Class/CDC/Src/usbd_cdc.c:349:27
	and	r1, r1, #15
	.loc	3 349 3                         @ ../Middlewares/ST/STM32_USB_Device_Library/Class/CDC/Src/usbd_cdc.c:349:3
	add.w	r1, r1, r1, lsl #2
	.loc	3 349 9                         @ ../Middlewares/ST/STM32_USB_Device_Library/Class/CDC/Src/usbd_cdc.c:349:9
	add.w	r1, r0, r1, lsl #2
	movs	r0, #1
	.loc	3 349 43                        @ ../Middlewares/ST/STM32_USB_Device_Library/Class/CDC/Src/usbd_cdc.c:349:43
	strb.w	r0, [r1, #35]
	.loc	3 351 3 is_stmt 1               @ ../Middlewares/ST/STM32_USB_Device_Library/Class/CDC/Src/usbd_cdc.c:351:3
	ldr	r1, [sp, #48]
	movs	r0, #0
	.loc	3 351 18 is_stmt 0              @ ../Middlewares/ST/STM32_USB_Device_Library/Class/CDC/Src/usbd_cdc.c:351:18
	str	r0, [sp, #4]                    @ 4-byte Spill
	str.w	r0, [r1, #516]
	.loc	3 354 27 is_stmt 1              @ ../Middlewares/ST/STM32_USB_Device_Library/Class/CDC/Src/usbd_cdc.c:354:27
	ldr	r0, [sp, #56]
	.loc	3 354 49 is_stmt 0              @ ../Middlewares/ST/STM32_USB_Device_Library/Class/CDC/Src/usbd_cdc.c:354:49
	ldr.w	r1, [r0, #724]
	.loc	3 354 33                        @ ../Middlewares/ST/STM32_USB_Device_Library/Class/CDC/Src/usbd_cdc.c:354:33
	add.w	r0, r0, r1, lsl #2
	.loc	3 354 27                        @ ../Middlewares/ST/STM32_USB_Device_Library/Class/CDC/Src/usbd_cdc.c:354:27
	ldr.w	r0, [r0, #708]
	.loc	3 354 60                        @ ../Middlewares/ST/STM32_USB_Device_Library/Class/CDC/Src/usbd_cdc.c:354:60
	ldr	r0, [r0]
	.loc	3 354 3                         @ ../Middlewares/ST/STM32_USB_Device_Library/Class/CDC/Src/usbd_cdc.c:354:3
	blx	r0
                                        @ kill: def $r1 killed $r0
	.loc	3 357 3 is_stmt 1               @ ../Middlewares/ST/STM32_USB_Device_Library/Class/CDC/Src/usbd_cdc.c:357:3
	ldr	r0, [sp, #4]                    @ 4-byte Reload
	ldr	r1, [sp, #48]
	.loc	3 357 17 is_stmt 0              @ ../Middlewares/ST/STM32_USB_Device_Library/Class/CDC/Src/usbd_cdc.c:357:17
	str.w	r0, [r1, #532]
	.loc	3 358 3 is_stmt 1               @ ../Middlewares/ST/STM32_USB_Device_Library/Class/CDC/Src/usbd_cdc.c:358:3
	ldr	r1, [sp, #48]
	.loc	3 358 17 is_stmt 0              @ ../Middlewares/ST/STM32_USB_Device_Library/Class/CDC/Src/usbd_cdc.c:358:17
	str.w	r0, [r1, #536]
.Ltmp10:
	.loc	3 360 7 is_stmt 1               @ ../Middlewares/ST/STM32_USB_Device_Library/Class/CDC/Src/usbd_cdc.c:360:7
	ldr	r0, [sp, #48]
	.loc	3 360 13 is_stmt 0              @ ../Middlewares/ST/STM32_USB_Device_Library/Class/CDC/Src/usbd_cdc.c:360:13
	ldr.w	r0, [r0, #516]
.Ltmp11:
	.loc	3 360 7                         @ ../Middlewares/ST/STM32_USB_Device_Library/Class/CDC/Src/usbd_cdc.c:360:7
	cbnz	r0, .LBB0_7
	b	.LBB0_6
.LBB0_6:
	.loc	3 0 7                           @ ../Middlewares/ST/STM32_USB_Device_Library/Class/CDC/Src/usbd_cdc.c:0:7
	movs	r0, #2
.Ltmp12:
	.loc	3 362 5 is_stmt 1               @ ../Middlewares/ST/STM32_USB_Device_Library/Class/CDC/Src/usbd_cdc.c:362:5
	strb.w	r0, [sp, #63]
	b	.LBB0_11
.Ltmp13:
.LBB0_7:
	.loc	3 365 7                         @ ../Middlewares/ST/STM32_USB_Device_Library/Class/CDC/Src/usbd_cdc.c:365:7
	ldr	r0, [sp, #56]
	.loc	3 365 13 is_stmt 0              @ ../Middlewares/ST/STM32_USB_Device_Library/Class/CDC/Src/usbd_cdc.c:365:13
	ldrb	r0, [r0, #16]
.Ltmp14:
	.loc	3 365 7                         @ ../Middlewares/ST/STM32_USB_Device_Library/Class/CDC/Src/usbd_cdc.c:365:7
	cbnz	r0, .LBB0_9
	b	.LBB0_8
.LBB0_8:
.Ltmp15:
	.loc	3 368 34 is_stmt 1              @ ../Middlewares/ST/STM32_USB_Device_Library/Class/CDC/Src/usbd_cdc.c:368:34
	ldr	r0, [sp, #56]
	.loc	3 368 40 is_stmt 0              @ ../Middlewares/ST/STM32_USB_Device_Library/Class/CDC/Src/usbd_cdc.c:368:40
	movw	r1, :lower16:CDCOutEpAdd
	movt	r1, :upper16:CDCOutEpAdd
	ldrb	r1, [r1]
	.loc	3 368 53                        @ ../Middlewares/ST/STM32_USB_Device_Library/Class/CDC/Src/usbd_cdc.c:368:53
	ldr	r2, [sp, #48]
	.loc	3 368 59                        @ ../Middlewares/ST/STM32_USB_Device_Library/Class/CDC/Src/usbd_cdc.c:368:59
	ldr.w	r2, [r2, #516]
	mov.w	r3, #512
	.loc	3 368 11                        @ ../Middlewares/ST/STM32_USB_Device_Library/Class/CDC/Src/usbd_cdc.c:368:11
	bl	USBD_LL_PrepareReceive
	.loc	3 370 3 is_stmt 1               @ ../Middlewares/ST/STM32_USB_Device_Library/Class/CDC/Src/usbd_cdc.c:370:3
	b	.LBB0_10
.Ltmp16:
.LBB0_9:
	.loc	3 374 34                        @ ../Middlewares/ST/STM32_USB_Device_Library/Class/CDC/Src/usbd_cdc.c:374:34
	ldr	r0, [sp, #56]
	.loc	3 374 40 is_stmt 0              @ ../Middlewares/ST/STM32_USB_Device_Library/Class/CDC/Src/usbd_cdc.c:374:40
	movw	r1, :lower16:CDCOutEpAdd
	movt	r1, :upper16:CDCOutEpAdd
	ldrb	r1, [r1]
	.loc	3 374 53                        @ ../Middlewares/ST/STM32_USB_Device_Library/Class/CDC/Src/usbd_cdc.c:374:53
	ldr	r2, [sp, #48]
	.loc	3 374 59                        @ ../Middlewares/ST/STM32_USB_Device_Library/Class/CDC/Src/usbd_cdc.c:374:59
	ldr.w	r2, [r2, #516]
	movs	r3, #64
	.loc	3 374 11                        @ ../Middlewares/ST/STM32_USB_Device_Library/Class/CDC/Src/usbd_cdc.c:374:11
	bl	USBD_LL_PrepareReceive
	b	.LBB0_10
.Ltmp17:
.LBB0_10:
	.loc	3 0 11                          @ ../Middlewares/ST/STM32_USB_Device_Library/Class/CDC/Src/usbd_cdc.c:0:11
	movs	r0, #0
	.loc	3 378 3 is_stmt 1               @ ../Middlewares/ST/STM32_USB_Device_Library/Class/CDC/Src/usbd_cdc.c:378:3
	strb.w	r0, [sp, #63]
	b	.LBB0_11
.LBB0_11:
	.loc	3 379 1                         @ ../Middlewares/ST/STM32_USB_Device_Library/Class/CDC/Src/usbd_cdc.c:379:1
	ldrb.w	r0, [sp, #63]
	add	sp, #64
	pop	{r7, pc}
.Ltmp18:
.Lfunc_end0:
	.size	USBD_CDC_Init, .Lfunc_end0-USBD_CDC_Init
	.cfi_endproc
	.cantunwind
	.fnend
                                        @ -- End function
	.section	.text.USBD_CDC_DeInit,"ax",%progbits
	.p2align	2                               @ -- Begin function USBD_CDC_DeInit
	.type	USBD_CDC_DeInit,%function
	.code	16                              @ @USBD_CDC_DeInit
	.thumb_func
USBD_CDC_DeInit:
.Lfunc_begin1:
	.loc	3 389 0                         @ ../Middlewares/ST/STM32_USB_Device_Library/Class/CDC/Src/usbd_cdc.c:389:0
	.fnstart
	.cfi_startproc
@ %bb.0:
	.save	{r7, lr}
	push	{r7, lr}
	.cfi_def_cfa_offset 8
	.cfi_offset lr, -4
	.cfi_offset r7, -8
	.pad	#24
	sub	sp, #24
	.cfi_def_cfa_offset 32
                                        @ kill: def $r2 killed $r1
	str	r0, [sp, #20]
	strb.w	r1, [sp, #19]
.Ltmp19:
	.loc	3 401 25 prologue_end           @ ../Middlewares/ST/STM32_USB_Device_Library/Class/CDC/Src/usbd_cdc.c:401:25
	ldr	r0, [sp, #20]
	.loc	3 401 31 is_stmt 0              @ ../Middlewares/ST/STM32_USB_Device_Library/Class/CDC/Src/usbd_cdc.c:401:31
	movw	r1, :lower16:CDCInEpAdd
	movt	r1, :upper16:CDCInEpAdd
	str	r1, [sp]                        @ 4-byte Spill
	ldrb	r1, [r1]
	.loc	3 401 9                         @ ../Middlewares/ST/STM32_USB_Device_Library/Class/CDC/Src/usbd_cdc.c:401:9
	bl	USBD_LL_CloseEP
	ldr	r1, [sp]                        @ 4-byte Reload
	.loc	3 402 3 is_stmt 1               @ ../Middlewares/ST/STM32_USB_Device_Library/Class/CDC/Src/usbd_cdc.c:402:3
	ldr	r0, [sp, #20]
	.loc	3 402 15 is_stmt 0              @ ../Middlewares/ST/STM32_USB_Device_Library/Class/CDC/Src/usbd_cdc.c:402:15
	ldrb	r1, [r1]
	.loc	3 402 26                        @ ../Middlewares/ST/STM32_USB_Device_Library/Class/CDC/Src/usbd_cdc.c:402:26
	and	r1, r1, #15
	.loc	3 402 3                         @ ../Middlewares/ST/STM32_USB_Device_Library/Class/CDC/Src/usbd_cdc.c:402:3
	add.w	r1, r1, r1, lsl #2
	.loc	3 402 9                         @ ../Middlewares/ST/STM32_USB_Device_Library/Class/CDC/Src/usbd_cdc.c:402:9
	add.w	r1, r0, r1, lsl #2
	movs	r0, #0
	.loc	3 402 42                        @ ../Middlewares/ST/STM32_USB_Device_Library/Class/CDC/Src/usbd_cdc.c:402:42
	str	r0, [sp, #12]                   @ 4-byte Spill
	strb.w	r0, [r1, #35]
	.loc	3 405 25 is_stmt 1              @ ../Middlewares/ST/STM32_USB_Device_Library/Class/CDC/Src/usbd_cdc.c:405:25
	ldr	r0, [sp, #20]
	.loc	3 405 31 is_stmt 0              @ ../Middlewares/ST/STM32_USB_Device_Library/Class/CDC/Src/usbd_cdc.c:405:31
	movw	r1, :lower16:CDCOutEpAdd
	movt	r1, :upper16:CDCOutEpAdd
	str	r1, [sp, #4]                    @ 4-byte Spill
	ldrb	r1, [r1]
	.loc	3 405 9                         @ ../Middlewares/ST/STM32_USB_Device_Library/Class/CDC/Src/usbd_cdc.c:405:9
	bl	USBD_LL_CloseEP
	ldr	r2, [sp, #4]                    @ 4-byte Reload
                                        @ kill: def $r1 killed $r0
	.loc	3 406 3 is_stmt 1               @ ../Middlewares/ST/STM32_USB_Device_Library/Class/CDC/Src/usbd_cdc.c:406:3
	ldr	r0, [sp, #12]                   @ 4-byte Reload
	ldr	r1, [sp, #20]
	.loc	3 406 16 is_stmt 0              @ ../Middlewares/ST/STM32_USB_Device_Library/Class/CDC/Src/usbd_cdc.c:406:16
	ldrb	r2, [r2]
	.loc	3 406 28                        @ ../Middlewares/ST/STM32_USB_Device_Library/Class/CDC/Src/usbd_cdc.c:406:28
	and	r2, r2, #15
	.loc	3 406 3                         @ ../Middlewares/ST/STM32_USB_Device_Library/Class/CDC/Src/usbd_cdc.c:406:3
	add.w	r2, r2, r2, lsl #2
	.loc	3 406 9                         @ ../Middlewares/ST/STM32_USB_Device_Library/Class/CDC/Src/usbd_cdc.c:406:9
	add.w	r1, r1, r2, lsl #2
	.loc	3 406 44                        @ ../Middlewares/ST/STM32_USB_Device_Library/Class/CDC/Src/usbd_cdc.c:406:44
	strb.w	r0, [r1, #355]
	.loc	3 409 25 is_stmt 1              @ ../Middlewares/ST/STM32_USB_Device_Library/Class/CDC/Src/usbd_cdc.c:409:25
	ldr	r0, [sp, #20]
	.loc	3 409 31 is_stmt 0              @ ../Middlewares/ST/STM32_USB_Device_Library/Class/CDC/Src/usbd_cdc.c:409:31
	movw	r1, :lower16:CDCCmdEpAdd
	movt	r1, :upper16:CDCCmdEpAdd
	str	r1, [sp, #8]                    @ 4-byte Spill
	ldrb	r1, [r1]
	.loc	3 409 9                         @ ../Middlewares/ST/STM32_USB_Device_Library/Class/CDC/Src/usbd_cdc.c:409:9
	bl	USBD_LL_CloseEP
	ldr	r2, [sp, #8]                    @ 4-byte Reload
                                        @ kill: def $r1 killed $r0
	.loc	3 410 3 is_stmt 1               @ ../Middlewares/ST/STM32_USB_Device_Library/Class/CDC/Src/usbd_cdc.c:410:3
	ldr	r0, [sp, #12]                   @ 4-byte Reload
	ldr	r1, [sp, #20]
	.loc	3 410 15 is_stmt 0              @ ../Middlewares/ST/STM32_USB_Device_Library/Class/CDC/Src/usbd_cdc.c:410:15
	ldrb	r3, [r2]
	.loc	3 410 27                        @ ../Middlewares/ST/STM32_USB_Device_Library/Class/CDC/Src/usbd_cdc.c:410:27
	and	r3, r3, #15
	.loc	3 410 3                         @ ../Middlewares/ST/STM32_USB_Device_Library/Class/CDC/Src/usbd_cdc.c:410:3
	add.w	r3, r3, r3, lsl #2
	.loc	3 410 9                         @ ../Middlewares/ST/STM32_USB_Device_Library/Class/CDC/Src/usbd_cdc.c:410:9
	add.w	r1, r1, r3, lsl #2
	.loc	3 410 43                        @ ../Middlewares/ST/STM32_USB_Device_Library/Class/CDC/Src/usbd_cdc.c:410:43
	strb.w	r0, [r1, #35]
	.loc	3 411 3 is_stmt 1               @ ../Middlewares/ST/STM32_USB_Device_Library/Class/CDC/Src/usbd_cdc.c:411:3
	ldr	r1, [sp, #20]
	.loc	3 411 15 is_stmt 0              @ ../Middlewares/ST/STM32_USB_Device_Library/Class/CDC/Src/usbd_cdc.c:411:15
	ldrb	r2, [r2]
	.loc	3 411 27                        @ ../Middlewares/ST/STM32_USB_Device_Library/Class/CDC/Src/usbd_cdc.c:411:27
	and	r2, r2, #15
	.loc	3 411 3                         @ ../Middlewares/ST/STM32_USB_Device_Library/Class/CDC/Src/usbd_cdc.c:411:3
	add.w	r2, r2, r2, lsl #2
	.loc	3 411 9                         @ ../Middlewares/ST/STM32_USB_Device_Library/Class/CDC/Src/usbd_cdc.c:411:9
	add.w	r1, r1, r2, lsl #2
	.loc	3 411 45                        @ ../Middlewares/ST/STM32_USB_Device_Library/Class/CDC/Src/usbd_cdc.c:411:45
	str	r0, [r1, #28]
.Ltmp20:
	.loc	3 414 7 is_stmt 1               @ ../Middlewares/ST/STM32_USB_Device_Library/Class/CDC/Src/usbd_cdc.c:414:7
	ldr	r0, [sp, #20]
	.loc	3 414 35 is_stmt 0              @ ../Middlewares/ST/STM32_USB_Device_Library/Class/CDC/Src/usbd_cdc.c:414:35
	ldr.w	r1, [r0, #724]
	.loc	3 414 13                        @ ../Middlewares/ST/STM32_USB_Device_Library/Class/CDC/Src/usbd_cdc.c:414:13
	add.w	r0, r0, r1, lsl #2
	.loc	3 414 7                         @ ../Middlewares/ST/STM32_USB_Device_Library/Class/CDC/Src/usbd_cdc.c:414:7
	ldr.w	r0, [r0, #704]
.Ltmp21:
	.loc	3 414 7                         @ ../Middlewares/ST/STM32_USB_Device_Library/Class/CDC/Src/usbd_cdc.c:414:7
	cbz	r0, .LBB1_2
	b	.LBB1_1
.LBB1_1:
.Ltmp22:
	.loc	3 416 29 is_stmt 1              @ ../Middlewares/ST/STM32_USB_Device_Library/Class/CDC/Src/usbd_cdc.c:416:29
	ldr	r0, [sp, #20]
	.loc	3 416 51 is_stmt 0              @ ../Middlewares/ST/STM32_USB_Device_Library/Class/CDC/Src/usbd_cdc.c:416:51
	ldr.w	r1, [r0, #724]
	.loc	3 416 35                        @ ../Middlewares/ST/STM32_USB_Device_Library/Class/CDC/Src/usbd_cdc.c:416:35
	add.w	r0, r0, r1, lsl #2
	.loc	3 416 29                        @ ../Middlewares/ST/STM32_USB_Device_Library/Class/CDC/Src/usbd_cdc.c:416:29
	ldr.w	r0, [r0, #708]
	.loc	3 416 62                        @ ../Middlewares/ST/STM32_USB_Device_Library/Class/CDC/Src/usbd_cdc.c:416:62
	ldr	r0, [r0, #4]
	.loc	3 416 5                         @ ../Middlewares/ST/STM32_USB_Device_Library/Class/CDC/Src/usbd_cdc.c:416:5
	blx	r0
	.loc	3 417 28 is_stmt 1              @ ../Middlewares/ST/STM32_USB_Device_Library/Class/CDC/Src/usbd_cdc.c:417:28
	ldr	r0, [sp, #20]
	.loc	3 417 56 is_stmt 0              @ ../Middlewares/ST/STM32_USB_Device_Library/Class/CDC/Src/usbd_cdc.c:417:56
	ldr.w	r1, [r0, #724]
	.loc	3 417 34                        @ ../Middlewares/ST/STM32_USB_Device_Library/Class/CDC/Src/usbd_cdc.c:417:34
	add.w	r0, r0, r1, lsl #2
	.loc	3 417 28                        @ ../Middlewares/ST/STM32_USB_Device_Library/Class/CDC/Src/usbd_cdc.c:417:28
	ldr.w	r0, [r0, #704]
	.loc	3 417 11                        @ ../Middlewares/ST/STM32_USB_Device_Library/Class/CDC/Src/usbd_cdc.c:417:11
	bl	USBD_static_free
	.loc	3 418 5 is_stmt 1               @ ../Middlewares/ST/STM32_USB_Device_Library/Class/CDC/Src/usbd_cdc.c:418:5
	ldr	r0, [sp, #20]
	.loc	3 418 33 is_stmt 0              @ ../Middlewares/ST/STM32_USB_Device_Library/Class/CDC/Src/usbd_cdc.c:418:33
	ldr.w	r1, [r0, #724]
	.loc	3 418 11                        @ ../Middlewares/ST/STM32_USB_Device_Library/Class/CDC/Src/usbd_cdc.c:418:11
	add.w	r1, r0, r1, lsl #2
	movs	r0, #0
	.loc	3 418 42                        @ ../Middlewares/ST/STM32_USB_Device_Library/Class/CDC/Src/usbd_cdc.c:418:42
	str.w	r0, [r1, #704]
	.loc	3 419 5 is_stmt 1               @ ../Middlewares/ST/STM32_USB_Device_Library/Class/CDC/Src/usbd_cdc.c:419:5
	ldr	r1, [sp, #20]
	.loc	3 419 22 is_stmt 0              @ ../Middlewares/ST/STM32_USB_Device_Library/Class/CDC/Src/usbd_cdc.c:419:22
	str.w	r0, [r1, #700]
	.loc	3 420 3 is_stmt 1               @ ../Middlewares/ST/STM32_USB_Device_Library/Class/CDC/Src/usbd_cdc.c:420:3
	b	.LBB1_2
.Ltmp23:
.LBB1_2:
	.loc	3 0 3 is_stmt 0                 @ ../Middlewares/ST/STM32_USB_Device_Library/Class/CDC/Src/usbd_cdc.c:0:3
	movs	r0, #0
	.loc	3 422 3 is_stmt 1               @ ../Middlewares/ST/STM32_USB_Device_Library/Class/CDC/Src/usbd_cdc.c:422:3
	add	sp, #24
	pop	{r7, pc}
.Ltmp24:
.Lfunc_end1:
	.size	USBD_CDC_DeInit, .Lfunc_end1-USBD_CDC_DeInit
	.cfi_endproc
	.cantunwind
	.fnend
                                        @ -- End function
	.section	.text.USBD_CDC_Setup,"ax",%progbits
	.p2align	2                               @ -- Begin function USBD_CDC_Setup
	.type	USBD_CDC_Setup,%function
	.code	16                              @ @USBD_CDC_Setup
	.thumb_func
USBD_CDC_Setup:
.Lfunc_begin2:
	.loc	3 434 0                         @ ../Middlewares/ST/STM32_USB_Device_Library/Class/CDC/Src/usbd_cdc.c:434:0
	.fnstart
	.cfi_startproc
@ %bb.0:
	.save	{r7, lr}
	push	{r7, lr}
	.cfi_def_cfa_offset 8
	.cfi_offset lr, -4
	.cfi_offset r7, -8
	.pad	#40
	sub	sp, #40
	.cfi_def_cfa_offset 48
	str	r0, [sp, #32]
	str	r1, [sp, #28]
.Ltmp25:
	.loc	3 435 60 prologue_end           @ ../Middlewares/ST/STM32_USB_Device_Library/Class/CDC/Src/usbd_cdc.c:435:60
	ldr	r0, [sp, #32]
	.loc	3 435 88 is_stmt 0              @ ../Middlewares/ST/STM32_USB_Device_Library/Class/CDC/Src/usbd_cdc.c:435:88
	ldr.w	r1, [r0, #724]
	.loc	3 435 66                        @ ../Middlewares/ST/STM32_USB_Device_Library/Class/CDC/Src/usbd_cdc.c:435:66
	add.w	r0, r0, r1, lsl #2
	.loc	3 435 60                        @ ../Middlewares/ST/STM32_USB_Device_Library/Class/CDC/Src/usbd_cdc.c:435:60
	ldr.w	r0, [r0, #704]
	.loc	3 435 27                        @ ../Middlewares/ST/STM32_USB_Device_Library/Class/CDC/Src/usbd_cdc.c:435:27
	str	r0, [sp, #24]
	movs	r0, #0
	.loc	3 437 11 is_stmt 1              @ ../Middlewares/ST/STM32_USB_Device_Library/Class/CDC/Src/usbd_cdc.c:437:11
	strb.w	r0, [sp, #21]
	.loc	3 438 12                        @ ../Middlewares/ST/STM32_USB_Device_Library/Class/CDC/Src/usbd_cdc.c:438:12
	strh.w	r0, [sp, #18]
	.loc	3 439 22                        @ ../Middlewares/ST/STM32_USB_Device_Library/Class/CDC/Src/usbd_cdc.c:439:22
	strb.w	r0, [sp, #17]
.Ltmp26:
	.loc	3 441 7                         @ ../Middlewares/ST/STM32_USB_Device_Library/Class/CDC/Src/usbd_cdc.c:441:7
	ldr	r0, [sp, #24]
.Ltmp27:
	.loc	3 441 7 is_stmt 0               @ ../Middlewares/ST/STM32_USB_Device_Library/Class/CDC/Src/usbd_cdc.c:441:7
	cbnz	r0, .LBB2_2
	b	.LBB2_1
.LBB2_1:
	.loc	3 0 7                           @ ../Middlewares/ST/STM32_USB_Device_Library/Class/CDC/Src/usbd_cdc.c:0:7
	movs	r0, #3
.Ltmp28:
	.loc	3 443 5 is_stmt 1               @ ../Middlewares/ST/STM32_USB_Device_Library/Class/CDC/Src/usbd_cdc.c:443:5
	strb.w	r0, [sp, #39]
	b	.LBB2_36
.Ltmp29:
.LBB2_2:
	.loc	3 446 11                        @ ../Middlewares/ST/STM32_USB_Device_Library/Class/CDC/Src/usbd_cdc.c:446:11
	ldr	r0, [sp, #28]
	ldrb	r0, [r0]
	.loc	3 446 26 is_stmt 0              @ ../Middlewares/ST/STM32_USB_Device_Library/Class/CDC/Src/usbd_cdc.c:446:26
	and	r0, r0, #96
	.loc	3 446 3                         @ ../Middlewares/ST/STM32_USB_Device_Library/Class/CDC/Src/usbd_cdc.c:446:3
	mov	r1, r0
	str	r1, [sp, #12]                   @ 4-byte Spill
	cmp	r0, #0
	beq	.LBB2_17
	b	.LBB2_3
.LBB2_3:
	ldr	r0, [sp, #12]                   @ 4-byte Reload
	cmp	r0, #32
	bne.w	.LBB2_34
	b	.LBB2_4
.LBB2_4:
.Ltmp30:
	.loc	3 449 11 is_stmt 1              @ ../Middlewares/ST/STM32_USB_Device_Library/Class/CDC/Src/usbd_cdc.c:449:11
	ldr	r0, [sp, #28]
	.loc	3 449 16 is_stmt 0              @ ../Middlewares/ST/STM32_USB_Device_Library/Class/CDC/Src/usbd_cdc.c:449:16
	ldrh	r0, [r0, #6]
.Ltmp31:
	.loc	3 449 11                        @ ../Middlewares/ST/STM32_USB_Device_Library/Class/CDC/Src/usbd_cdc.c:449:11
	cmp	r0, #0
	beq	.LBB2_15
	b	.LBB2_5
.LBB2_5:
.Ltmp32:
	.loc	3 451 14 is_stmt 1              @ ../Middlewares/ST/STM32_USB_Device_Library/Class/CDC/Src/usbd_cdc.c:451:14
	ldr	r0, [sp, #28]
	ldrb	r0, [r0]
.Ltmp33:
	.loc	3 451 13 is_stmt 0              @ ../Middlewares/ST/STM32_USB_Device_Library/Class/CDC/Src/usbd_cdc.c:451:13
	lsls	r0, r0, #24
	cmp	r0, #0
	bpl	.LBB2_10
	b	.LBB2_6
.LBB2_6:
.Ltmp34:
	.loc	3 453 35 is_stmt 1              @ ../Middlewares/ST/STM32_USB_Device_Library/Class/CDC/Src/usbd_cdc.c:453:35
	ldr	r0, [sp, #32]
	.loc	3 453 57 is_stmt 0              @ ../Middlewares/ST/STM32_USB_Device_Library/Class/CDC/Src/usbd_cdc.c:453:57
	ldr.w	r1, [r0, #724]
	.loc	3 453 41                        @ ../Middlewares/ST/STM32_USB_Device_Library/Class/CDC/Src/usbd_cdc.c:453:41
	add.w	r0, r0, r1, lsl #2
	.loc	3 453 35                        @ ../Middlewares/ST/STM32_USB_Device_Library/Class/CDC/Src/usbd_cdc.c:453:35
	ldr.w	r0, [r0, #708]
	.loc	3 453 68                        @ ../Middlewares/ST/STM32_USB_Device_Library/Class/CDC/Src/usbd_cdc.c:453:68
	ldr	r3, [r0, #8]
	.loc	3 453 76                        @ ../Middlewares/ST/STM32_USB_Device_Library/Class/CDC/Src/usbd_cdc.c:453:76
	ldr	r2, [sp, #28]
	.loc	3 453 81                        @ ../Middlewares/ST/STM32_USB_Device_Library/Class/CDC/Src/usbd_cdc.c:453:81
	ldrb	r0, [r2, #1]
	.loc	3 454 87 is_stmt 1              @ ../Middlewares/ST/STM32_USB_Device_Library/Class/CDC/Src/usbd_cdc.c:454:87
	ldr	r1, [sp, #24]
	.loc	3 455 81                        @ ../Middlewares/ST/STM32_USB_Device_Library/Class/CDC/Src/usbd_cdc.c:455:81
	ldrh	r2, [r2, #6]
	.loc	3 453 11                        @ ../Middlewares/ST/STM32_USB_Device_Library/Class/CDC/Src/usbd_cdc.c:453:11
	blx	r3
	.loc	3 457 29                        @ ../Middlewares/ST/STM32_USB_Device_Library/Class/CDC/Src/usbd_cdc.c:457:29
	ldr	r0, [sp, #28]
	.loc	3 457 34 is_stmt 0              @ ../Middlewares/ST/STM32_USB_Device_Library/Class/CDC/Src/usbd_cdc.c:457:34
	ldrh	r0, [r0, #6]
	.loc	3 457 18                        @ ../Middlewares/ST/STM32_USB_Device_Library/Class/CDC/Src/usbd_cdc.c:457:18
	cmp	r0, #8
	blo	.LBB2_8
	b	.LBB2_7
.LBB2_7:
	.loc	3 0 18                          @ ../Middlewares/ST/STM32_USB_Device_Library/Class/CDC/Src/usbd_cdc.c:0:18
	movs	r0, #7
	.loc	3 457 18                        @ ../Middlewares/ST/STM32_USB_Device_Library/Class/CDC/Src/usbd_cdc.c:457:18
	str	r0, [sp, #8]                    @ 4-byte Spill
	b	.LBB2_9
.LBB2_8:
	.loc	3 457 56                        @ ../Middlewares/ST/STM32_USB_Device_Library/Class/CDC/Src/usbd_cdc.c:457:56
	ldr	r0, [sp, #28]
	.loc	3 457 61                        @ ../Middlewares/ST/STM32_USB_Device_Library/Class/CDC/Src/usbd_cdc.c:457:61
	ldrh	r0, [r0, #6]
	.loc	3 457 18                        @ ../Middlewares/ST/STM32_USB_Device_Library/Class/CDC/Src/usbd_cdc.c:457:18
	str	r0, [sp, #8]                    @ 4-byte Spill
	b	.LBB2_9
.LBB2_9:
	ldr	r0, [sp, #8]                    @ 4-byte Reload
	.loc	3 457 15                        @ ../Middlewares/ST/STM32_USB_Device_Library/Class/CDC/Src/usbd_cdc.c:457:15
	strh.w	r0, [sp, #22]
	.loc	3 458 34 is_stmt 1              @ ../Middlewares/ST/STM32_USB_Device_Library/Class/CDC/Src/usbd_cdc.c:458:34
	ldr	r0, [sp, #32]
	.loc	3 458 51 is_stmt 0              @ ../Middlewares/ST/STM32_USB_Device_Library/Class/CDC/Src/usbd_cdc.c:458:51
	ldr	r1, [sp, #24]
	.loc	3 458 63                        @ ../Middlewares/ST/STM32_USB_Device_Library/Class/CDC/Src/usbd_cdc.c:458:63
	ldrh.w	r2, [sp, #22]
	.loc	3 458 17                        @ ../Middlewares/ST/STM32_USB_Device_Library/Class/CDC/Src/usbd_cdc.c:458:17
	bl	USBD_CtlSendData
	.loc	3 459 9 is_stmt 1               @ ../Middlewares/ST/STM32_USB_Device_Library/Class/CDC/Src/usbd_cdc.c:459:9
	b	.LBB2_14
.Ltmp35:
.LBB2_10:
	.loc	3 462 29                        @ ../Middlewares/ST/STM32_USB_Device_Library/Class/CDC/Src/usbd_cdc.c:462:29
	ldr	r0, [sp, #28]
	.loc	3 462 34 is_stmt 0              @ ../Middlewares/ST/STM32_USB_Device_Library/Class/CDC/Src/usbd_cdc.c:462:34
	ldrb	r0, [r0, #1]
	.loc	3 462 11                        @ ../Middlewares/ST/STM32_USB_Device_Library/Class/CDC/Src/usbd_cdc.c:462:11
	ldr	r1, [sp, #24]
	.loc	3 462 27                        @ ../Middlewares/ST/STM32_USB_Device_Library/Class/CDC/Src/usbd_cdc.c:462:27
	strb.w	r0, [r1, #512]
	.loc	3 463 41 is_stmt 1              @ ../Middlewares/ST/STM32_USB_Device_Library/Class/CDC/Src/usbd_cdc.c:463:41
	ldr	r0, [sp, #28]
	.loc	3 463 46 is_stmt 0              @ ../Middlewares/ST/STM32_USB_Device_Library/Class/CDC/Src/usbd_cdc.c:463:46
	ldrh	r0, [r0, #6]
	.loc	3 463 39                        @ ../Middlewares/ST/STM32_USB_Device_Library/Class/CDC/Src/usbd_cdc.c:463:39
	cmp	r0, #63
	bhi	.LBB2_12
	b	.LBB2_11
.LBB2_11:
	.loc	3 463 67                        @ ../Middlewares/ST/STM32_USB_Device_Library/Class/CDC/Src/usbd_cdc.c:463:67
	ldr	r0, [sp, #28]
	.loc	3 463 72                        @ ../Middlewares/ST/STM32_USB_Device_Library/Class/CDC/Src/usbd_cdc.c:463:72
	ldrh	r0, [r0, #6]
	.loc	3 463 39                        @ ../Middlewares/ST/STM32_USB_Device_Library/Class/CDC/Src/usbd_cdc.c:463:39
	str	r0, [sp, #4]                    @ 4-byte Spill
	b	.LBB2_13
.LBB2_12:
	.loc	3 0 39                          @ ../Middlewares/ST/STM32_USB_Device_Library/Class/CDC/Src/usbd_cdc.c:0:39
	movs	r0, #64
	.loc	3 463 39                        @ ../Middlewares/ST/STM32_USB_Device_Library/Class/CDC/Src/usbd_cdc.c:463:39
	str	r0, [sp, #4]                    @ 4-byte Spill
	b	.LBB2_13
.LBB2_13:
	ldr	r0, [sp, #4]                    @ 4-byte Reload
	.loc	3 463 11                        @ ../Middlewares/ST/STM32_USB_Device_Library/Class/CDC/Src/usbd_cdc.c:463:11
	ldr	r1, [sp, #24]
	.loc	3 463 27                        @ ../Middlewares/ST/STM32_USB_Device_Library/Class/CDC/Src/usbd_cdc.c:463:27
	strb.w	r0, [r1, #513]
	.loc	3 465 35 is_stmt 1              @ ../Middlewares/ST/STM32_USB_Device_Library/Class/CDC/Src/usbd_cdc.c:465:35
	ldr	r0, [sp, #32]
	.loc	3 465 52 is_stmt 0              @ ../Middlewares/ST/STM32_USB_Device_Library/Class/CDC/Src/usbd_cdc.c:465:52
	ldr	r1, [sp, #24]
	.loc	3 465 70                        @ ../Middlewares/ST/STM32_USB_Device_Library/Class/CDC/Src/usbd_cdc.c:465:70
	ldrb.w	r2, [r1, #513]
	.loc	3 465 17                        @ ../Middlewares/ST/STM32_USB_Device_Library/Class/CDC/Src/usbd_cdc.c:465:17
	bl	USBD_CtlPrepareRx
	b	.LBB2_14
.Ltmp36:
.LBB2_14:
	.loc	3 467 7 is_stmt 1               @ ../Middlewares/ST/STM32_USB_Device_Library/Class/CDC/Src/usbd_cdc.c:467:7
	b	.LBB2_16
.Ltmp37:
.LBB2_15:
	.loc	3 470 33                        @ ../Middlewares/ST/STM32_USB_Device_Library/Class/CDC/Src/usbd_cdc.c:470:33
	ldr	r0, [sp, #32]
	.loc	3 470 55 is_stmt 0              @ ../Middlewares/ST/STM32_USB_Device_Library/Class/CDC/Src/usbd_cdc.c:470:55
	ldr.w	r1, [r0, #724]
	.loc	3 470 39                        @ ../Middlewares/ST/STM32_USB_Device_Library/Class/CDC/Src/usbd_cdc.c:470:39
	add.w	r0, r0, r1, lsl #2
	.loc	3 470 33                        @ ../Middlewares/ST/STM32_USB_Device_Library/Class/CDC/Src/usbd_cdc.c:470:33
	ldr.w	r0, [r0, #708]
	.loc	3 470 66                        @ ../Middlewares/ST/STM32_USB_Device_Library/Class/CDC/Src/usbd_cdc.c:470:66
	ldr	r3, [r0, #8]
	.loc	3 470 74                        @ ../Middlewares/ST/STM32_USB_Device_Library/Class/CDC/Src/usbd_cdc.c:470:74
	ldr	r1, [sp, #28]
	.loc	3 470 79                        @ ../Middlewares/ST/STM32_USB_Device_Library/Class/CDC/Src/usbd_cdc.c:470:79
	ldrb	r0, [r1, #1]
	movs	r2, #0
	.loc	3 470 9                         @ ../Middlewares/ST/STM32_USB_Device_Library/Class/CDC/Src/usbd_cdc.c:470:9
	blx	r3
	b	.LBB2_16
.Ltmp38:
.LBB2_16:
	.loc	3 473 7 is_stmt 1               @ ../Middlewares/ST/STM32_USB_Device_Library/Class/CDC/Src/usbd_cdc.c:473:7
	b	.LBB2_35
.LBB2_17:
	.loc	3 476 15                        @ ../Middlewares/ST/STM32_USB_Device_Library/Class/CDC/Src/usbd_cdc.c:476:15
	ldr	r0, [sp, #28]
	.loc	3 476 20 is_stmt 0              @ ../Middlewares/ST/STM32_USB_Device_Library/Class/CDC/Src/usbd_cdc.c:476:20
	ldrb	r0, [r0, #1]
	.loc	3 476 7                         @ ../Middlewares/ST/STM32_USB_Device_Library/Class/CDC/Src/usbd_cdc.c:476:7
	mov	r1, r0
	str	r1, [sp]                        @ 4-byte Spill
	cmp	r0, #11
	bhi	.LBB2_32
@ %bb.18:
	.loc	3 0 7                           @ ../Middlewares/ST/STM32_USB_Device_Library/Class/CDC/Src/usbd_cdc.c:0:7
	ldr	r1, [sp]                        @ 4-byte Reload
.LCPI2_0:
	tbb	[pc, r1]
@ %bb.19:
.LJTI2_0:
	.byte	(.LBB2_20-(.LCPI2_0+4))/2
	.byte	(.LBB2_31-(.LCPI2_0+4))/2
	.byte	(.LBB2_32-(.LCPI2_0+4))/2
	.byte	(.LBB2_32-(.LCPI2_0+4))/2
	.byte	(.LBB2_32-(.LCPI2_0+4))/2
	.byte	(.LBB2_32-(.LCPI2_0+4))/2
	.byte	(.LBB2_32-(.LCPI2_0+4))/2
	.byte	(.LBB2_32-(.LCPI2_0+4))/2
	.byte	(.LBB2_32-(.LCPI2_0+4))/2
	.byte	(.LBB2_32-(.LCPI2_0+4))/2
	.byte	(.LBB2_24-(.LCPI2_0+4))/2
	.byte	(.LBB2_28-(.LCPI2_0+4))/2
	.p2align	1
.LBB2_20:
.Ltmp39:
	.loc	3 479 15 is_stmt 1              @ ../Middlewares/ST/STM32_USB_Device_Library/Class/CDC/Src/usbd_cdc.c:479:15
	ldr	r0, [sp, #32]
	.loc	3 479 21 is_stmt 0              @ ../Middlewares/ST/STM32_USB_Device_Library/Class/CDC/Src/usbd_cdc.c:479:21
	ldrb.w	r0, [r0, #668]
.Ltmp40:
	.loc	3 479 15                        @ ../Middlewares/ST/STM32_USB_Device_Library/Class/CDC/Src/usbd_cdc.c:479:15
	cmp	r0, #3
	bne	.LBB2_22
	b	.LBB2_21
.LBB2_21:
.Ltmp41:
	.loc	3 481 36 is_stmt 1              @ ../Middlewares/ST/STM32_USB_Device_Library/Class/CDC/Src/usbd_cdc.c:481:36
	ldr	r0, [sp, #32]
	add.w	r1, sp, #18
	movs	r2, #2
	.loc	3 481 19 is_stmt 0              @ ../Middlewares/ST/STM32_USB_Device_Library/Class/CDC/Src/usbd_cdc.c:481:19
	bl	USBD_CtlSendData
	.loc	3 482 11 is_stmt 1              @ ../Middlewares/ST/STM32_USB_Device_Library/Class/CDC/Src/usbd_cdc.c:482:11
	b	.LBB2_23
.Ltmp42:
.LBB2_22:
	.loc	3 485 27                        @ ../Middlewares/ST/STM32_USB_Device_Library/Class/CDC/Src/usbd_cdc.c:485:27
	ldr	r0, [sp, #32]
	.loc	3 485 33 is_stmt 0              @ ../Middlewares/ST/STM32_USB_Device_Library/Class/CDC/Src/usbd_cdc.c:485:33
	ldr	r1, [sp, #28]
	.loc	3 485 13                        @ ../Middlewares/ST/STM32_USB_Device_Library/Class/CDC/Src/usbd_cdc.c:485:13
	bl	USBD_CtlError
	movs	r0, #3
	.loc	3 486 17 is_stmt 1              @ ../Middlewares/ST/STM32_USB_Device_Library/Class/CDC/Src/usbd_cdc.c:486:17
	strb.w	r0, [sp, #17]
	b	.LBB2_23
.Ltmp43:
.LBB2_23:
	.loc	3 488 11                        @ ../Middlewares/ST/STM32_USB_Device_Library/Class/CDC/Src/usbd_cdc.c:488:11
	b	.LBB2_33
.LBB2_24:
.Ltmp44:
	.loc	3 491 15                        @ ../Middlewares/ST/STM32_USB_Device_Library/Class/CDC/Src/usbd_cdc.c:491:15
	ldr	r0, [sp, #32]
	.loc	3 491 21 is_stmt 0              @ ../Middlewares/ST/STM32_USB_Device_Library/Class/CDC/Src/usbd_cdc.c:491:21
	ldrb.w	r0, [r0, #668]
.Ltmp45:
	.loc	3 491 15                        @ ../Middlewares/ST/STM32_USB_Device_Library/Class/CDC/Src/usbd_cdc.c:491:15
	cmp	r0, #3
	bne	.LBB2_26
	b	.LBB2_25
.LBB2_25:
.Ltmp46:
	.loc	3 493 36 is_stmt 1              @ ../Middlewares/ST/STM32_USB_Device_Library/Class/CDC/Src/usbd_cdc.c:493:36
	ldr	r0, [sp, #32]
	add.w	r1, sp, #21
	movs	r2, #1
	.loc	3 493 19 is_stmt 0              @ ../Middlewares/ST/STM32_USB_Device_Library/Class/CDC/Src/usbd_cdc.c:493:19
	bl	USBD_CtlSendData
	.loc	3 494 11 is_stmt 1              @ ../Middlewares/ST/STM32_USB_Device_Library/Class/CDC/Src/usbd_cdc.c:494:11
	b	.LBB2_27
.Ltmp47:
.LBB2_26:
	.loc	3 497 27                        @ ../Middlewares/ST/STM32_USB_Device_Library/Class/CDC/Src/usbd_cdc.c:497:27
	ldr	r0, [sp, #32]
	.loc	3 497 33 is_stmt 0              @ ../Middlewares/ST/STM32_USB_Device_Library/Class/CDC/Src/usbd_cdc.c:497:33
	ldr	r1, [sp, #28]
	.loc	3 497 13                        @ ../Middlewares/ST/STM32_USB_Device_Library/Class/CDC/Src/usbd_cdc.c:497:13
	bl	USBD_CtlError
	movs	r0, #3
	.loc	3 498 17 is_stmt 1              @ ../Middlewares/ST/STM32_USB_Device_Library/Class/CDC/Src/usbd_cdc.c:498:17
	strb.w	r0, [sp, #17]
	b	.LBB2_27
.Ltmp48:
.LBB2_27:
	.loc	3 500 11                        @ ../Middlewares/ST/STM32_USB_Device_Library/Class/CDC/Src/usbd_cdc.c:500:11
	b	.LBB2_33
.LBB2_28:
.Ltmp49:
	.loc	3 503 15                        @ ../Middlewares/ST/STM32_USB_Device_Library/Class/CDC/Src/usbd_cdc.c:503:15
	ldr	r0, [sp, #32]
	.loc	3 503 21 is_stmt 0              @ ../Middlewares/ST/STM32_USB_Device_Library/Class/CDC/Src/usbd_cdc.c:503:21
	ldrb.w	r0, [r0, #668]
.Ltmp50:
	.loc	3 503 15                        @ ../Middlewares/ST/STM32_USB_Device_Library/Class/CDC/Src/usbd_cdc.c:503:15
	cmp	r0, #3
	beq	.LBB2_30
	b	.LBB2_29
.LBB2_29:
.Ltmp51:
	.loc	3 505 27 is_stmt 1              @ ../Middlewares/ST/STM32_USB_Device_Library/Class/CDC/Src/usbd_cdc.c:505:27
	ldr	r0, [sp, #32]
	.loc	3 505 33 is_stmt 0              @ ../Middlewares/ST/STM32_USB_Device_Library/Class/CDC/Src/usbd_cdc.c:505:33
	ldr	r1, [sp, #28]
	.loc	3 505 13                        @ ../Middlewares/ST/STM32_USB_Device_Library/Class/CDC/Src/usbd_cdc.c:505:13
	bl	USBD_CtlError
	movs	r0, #3
	.loc	3 506 17 is_stmt 1              @ ../Middlewares/ST/STM32_USB_Device_Library/Class/CDC/Src/usbd_cdc.c:506:17
	strb.w	r0, [sp, #17]
	.loc	3 507 11                        @ ../Middlewares/ST/STM32_USB_Device_Library/Class/CDC/Src/usbd_cdc.c:507:11
	b	.LBB2_30
.Ltmp52:
.LBB2_30:
	.loc	3 508 11                        @ ../Middlewares/ST/STM32_USB_Device_Library/Class/CDC/Src/usbd_cdc.c:508:11
	b	.LBB2_33
.LBB2_31:
	.loc	3 511 11                        @ ../Middlewares/ST/STM32_USB_Device_Library/Class/CDC/Src/usbd_cdc.c:511:11
	b	.LBB2_33
.LBB2_32:
	.loc	3 514 25                        @ ../Middlewares/ST/STM32_USB_Device_Library/Class/CDC/Src/usbd_cdc.c:514:25
	ldr	r0, [sp, #32]
	.loc	3 514 31 is_stmt 0              @ ../Middlewares/ST/STM32_USB_Device_Library/Class/CDC/Src/usbd_cdc.c:514:31
	ldr	r1, [sp, #28]
	.loc	3 514 11                        @ ../Middlewares/ST/STM32_USB_Device_Library/Class/CDC/Src/usbd_cdc.c:514:11
	bl	USBD_CtlError
	movs	r0, #3
	.loc	3 515 15 is_stmt 1              @ ../Middlewares/ST/STM32_USB_Device_Library/Class/CDC/Src/usbd_cdc.c:515:15
	strb.w	r0, [sp, #17]
	.loc	3 516 11                        @ ../Middlewares/ST/STM32_USB_Device_Library/Class/CDC/Src/usbd_cdc.c:516:11
	b	.LBB2_33
.Ltmp53:
.LBB2_33:
	.loc	3 518 7                         @ ../Middlewares/ST/STM32_USB_Device_Library/Class/CDC/Src/usbd_cdc.c:518:7
	b	.LBB2_35
.LBB2_34:
	.loc	3 521 21                        @ ../Middlewares/ST/STM32_USB_Device_Library/Class/CDC/Src/usbd_cdc.c:521:21
	ldr	r0, [sp, #32]
	.loc	3 521 27 is_stmt 0              @ ../Middlewares/ST/STM32_USB_Device_Library/Class/CDC/Src/usbd_cdc.c:521:27
	ldr	r1, [sp, #28]
	.loc	3 521 7                         @ ../Middlewares/ST/STM32_USB_Device_Library/Class/CDC/Src/usbd_cdc.c:521:7
	bl	USBD_CtlError
	movs	r0, #3
	.loc	3 522 11 is_stmt 1              @ ../Middlewares/ST/STM32_USB_Device_Library/Class/CDC/Src/usbd_cdc.c:522:11
	strb.w	r0, [sp, #17]
	.loc	3 523 7                         @ ../Middlewares/ST/STM32_USB_Device_Library/Class/CDC/Src/usbd_cdc.c:523:7
	b	.LBB2_35
.Ltmp54:
.LBB2_35:
	.loc	3 526 19                        @ ../Middlewares/ST/STM32_USB_Device_Library/Class/CDC/Src/usbd_cdc.c:526:19
	ldrb.w	r0, [sp, #17]
	.loc	3 526 3 is_stmt 0               @ ../Middlewares/ST/STM32_USB_Device_Library/Class/CDC/Src/usbd_cdc.c:526:3
	strb.w	r0, [sp, #39]
	b	.LBB2_36
.LBB2_36:
	.loc	3 527 1 is_stmt 1               @ ../Middlewares/ST/STM32_USB_Device_Library/Class/CDC/Src/usbd_cdc.c:527:1
	ldrb.w	r0, [sp, #39]
	add	sp, #40
	pop	{r7, pc}
.Ltmp55:
.Lfunc_end2:
	.size	USBD_CDC_Setup, .Lfunc_end2-USBD_CDC_Setup
	.cfi_endproc
	.cantunwind
	.fnend
                                        @ -- End function
	.section	.text.USBD_CDC_EP0_RxReady,"ax",%progbits
	.p2align	2                               @ -- Begin function USBD_CDC_EP0_RxReady
	.type	USBD_CDC_EP0_RxReady,%function
	.code	16                              @ @USBD_CDC_EP0_RxReady
	.thumb_func
USBD_CDC_EP0_RxReady:
.Lfunc_begin3:
	.loc	3 604 0                         @ ../Middlewares/ST/STM32_USB_Device_Library/Class/CDC/Src/usbd_cdc.c:604:0
	.fnstart
	.cfi_startproc
@ %bb.0:
	.save	{r7, lr}
	push	{r7, lr}
	.cfi_def_cfa_offset 8
	.cfi_offset lr, -4
	.cfi_offset r7, -8
	.pad	#16
	sub	sp, #16
	.cfi_def_cfa_offset 24
	str	r0, [sp, #8]
.Ltmp56:
	.loc	3 605 60 prologue_end           @ ../Middlewares/ST/STM32_USB_Device_Library/Class/CDC/Src/usbd_cdc.c:605:60
	ldr	r0, [sp, #8]
	.loc	3 605 88 is_stmt 0              @ ../Middlewares/ST/STM32_USB_Device_Library/Class/CDC/Src/usbd_cdc.c:605:88
	ldr.w	r1, [r0, #724]
	.loc	3 605 66                        @ ../Middlewares/ST/STM32_USB_Device_Library/Class/CDC/Src/usbd_cdc.c:605:66
	add.w	r0, r0, r1, lsl #2
	.loc	3 605 60                        @ ../Middlewares/ST/STM32_USB_Device_Library/Class/CDC/Src/usbd_cdc.c:605:60
	ldr.w	r0, [r0, #704]
	.loc	3 605 27                        @ ../Middlewares/ST/STM32_USB_Device_Library/Class/CDC/Src/usbd_cdc.c:605:27
	str	r0, [sp, #4]
.Ltmp57:
	.loc	3 607 7 is_stmt 1               @ ../Middlewares/ST/STM32_USB_Device_Library/Class/CDC/Src/usbd_cdc.c:607:7
	ldr	r0, [sp, #4]
.Ltmp58:
	.loc	3 607 7 is_stmt 0               @ ../Middlewares/ST/STM32_USB_Device_Library/Class/CDC/Src/usbd_cdc.c:607:7
	cbnz	r0, .LBB3_2
	b	.LBB3_1
.LBB3_1:
	.loc	3 0 7                           @ ../Middlewares/ST/STM32_USB_Device_Library/Class/CDC/Src/usbd_cdc.c:0:7
	movs	r0, #3
.Ltmp59:
	.loc	3 609 5 is_stmt 1               @ ../Middlewares/ST/STM32_USB_Device_Library/Class/CDC/Src/usbd_cdc.c:609:5
	strb.w	r0, [sp, #15]
	b	.LBB3_6
.Ltmp60:
.LBB3_2:
	.loc	3 612 8                         @ ../Middlewares/ST/STM32_USB_Device_Library/Class/CDC/Src/usbd_cdc.c:612:8
	ldr	r0, [sp, #8]
	.loc	3 612 30 is_stmt 0              @ ../Middlewares/ST/STM32_USB_Device_Library/Class/CDC/Src/usbd_cdc.c:612:30
	ldr.w	r1, [r0, #724]
	.loc	3 612 14                        @ ../Middlewares/ST/STM32_USB_Device_Library/Class/CDC/Src/usbd_cdc.c:612:14
	add.w	r0, r0, r1, lsl #2
	.loc	3 612 8                         @ ../Middlewares/ST/STM32_USB_Device_Library/Class/CDC/Src/usbd_cdc.c:612:8
	ldr.w	r0, [r0, #708]
	.loc	3 612 45                        @ ../Middlewares/ST/STM32_USB_Device_Library/Class/CDC/Src/usbd_cdc.c:612:45
	cbz	r0, .LBB3_5
	b	.LBB3_3
.LBB3_3:
	.loc	3 612 49                        @ ../Middlewares/ST/STM32_USB_Device_Library/Class/CDC/Src/usbd_cdc.c:612:49
	ldr	r0, [sp, #4]
	.loc	3 612 55                        @ ../Middlewares/ST/STM32_USB_Device_Library/Class/CDC/Src/usbd_cdc.c:612:55
	ldrb.w	r0, [r0, #512]
.Ltmp61:
	.loc	3 612 7                         @ ../Middlewares/ST/STM32_USB_Device_Library/Class/CDC/Src/usbd_cdc.c:612:7
	cmp	r0, #255
	beq	.LBB3_5
	b	.LBB3_4
.LBB3_4:
.Ltmp62:
	.loc	3 614 29 is_stmt 1              @ ../Middlewares/ST/STM32_USB_Device_Library/Class/CDC/Src/usbd_cdc.c:614:29
	ldr	r0, [sp, #8]
	.loc	3 614 51 is_stmt 0              @ ../Middlewares/ST/STM32_USB_Device_Library/Class/CDC/Src/usbd_cdc.c:614:51
	ldr.w	r1, [r0, #724]
	.loc	3 614 35                        @ ../Middlewares/ST/STM32_USB_Device_Library/Class/CDC/Src/usbd_cdc.c:614:35
	add.w	r0, r0, r1, lsl #2
	.loc	3 614 29                        @ ../Middlewares/ST/STM32_USB_Device_Library/Class/CDC/Src/usbd_cdc.c:614:29
	ldr.w	r0, [r0, #708]
	.loc	3 614 62                        @ ../Middlewares/ST/STM32_USB_Device_Library/Class/CDC/Src/usbd_cdc.c:614:62
	ldr	r3, [r0, #8]
	.loc	3 614 70                        @ ../Middlewares/ST/STM32_USB_Device_Library/Class/CDC/Src/usbd_cdc.c:614:70
	ldr	r1, [sp, #4]
	.loc	3 614 76                        @ ../Middlewares/ST/STM32_USB_Device_Library/Class/CDC/Src/usbd_cdc.c:614:76
	ldrb.w	r0, [r1, #512]
	.loc	3 616 86 is_stmt 1              @ ../Middlewares/ST/STM32_USB_Device_Library/Class/CDC/Src/usbd_cdc.c:616:86
	ldrb.w	r2, [r1, #513]
	.loc	3 614 5                         @ ../Middlewares/ST/STM32_USB_Device_Library/Class/CDC/Src/usbd_cdc.c:614:5
	blx	r3
	.loc	3 617 5                         @ ../Middlewares/ST/STM32_USB_Device_Library/Class/CDC/Src/usbd_cdc.c:617:5
	ldr	r1, [sp, #4]
	movs	r0, #255
	.loc	3 617 21 is_stmt 0              @ ../Middlewares/ST/STM32_USB_Device_Library/Class/CDC/Src/usbd_cdc.c:617:21
	strb.w	r0, [r1, #512]
	.loc	3 618 3 is_stmt 1               @ ../Middlewares/ST/STM32_USB_Device_Library/Class/CDC/Src/usbd_cdc.c:618:3
	b	.LBB3_5
.Ltmp63:
.LBB3_5:
	.loc	3 0 3 is_stmt 0                 @ ../Middlewares/ST/STM32_USB_Device_Library/Class/CDC/Src/usbd_cdc.c:0:3
	movs	r0, #0
	.loc	3 620 3 is_stmt 1               @ ../Middlewares/ST/STM32_USB_Device_Library/Class/CDC/Src/usbd_cdc.c:620:3
	strb.w	r0, [sp, #15]
	b	.LBB3_6
.LBB3_6:
	.loc	3 621 1                         @ ../Middlewares/ST/STM32_USB_Device_Library/Class/CDC/Src/usbd_cdc.c:621:1
	ldrb.w	r0, [sp, #15]
	add	sp, #16
	pop	{r7, pc}
.Ltmp64:
.Lfunc_end3:
	.size	USBD_CDC_EP0_RxReady, .Lfunc_end3-USBD_CDC_EP0_RxReady
	.cfi_endproc
	.cantunwind
	.fnend
                                        @ -- End function
	.section	.text.USBD_CDC_DataIn,"ax",%progbits
	.p2align	2                               @ -- Begin function USBD_CDC_DataIn
	.type	USBD_CDC_DataIn,%function
	.code	16                              @ @USBD_CDC_DataIn
	.thumb_func
USBD_CDC_DataIn:
.Lfunc_begin4:
	.loc	3 537 0                         @ ../Middlewares/ST/STM32_USB_Device_Library/Class/CDC/Src/usbd_cdc.c:537:0
	.fnstart
	.cfi_startproc
@ %bb.0:
	.save	{r7, lr}
	push	{r7, lr}
	.cfi_def_cfa_offset 8
	.cfi_offset lr, -4
	.cfi_offset r7, -8
	.pad	#24
	sub	sp, #24
	.cfi_def_cfa_offset 32
                                        @ kill: def $r2 killed $r1
	str	r0, [sp, #16]
	strb.w	r1, [sp, #15]
.Ltmp65:
	.loc	3 539 50 prologue_end           @ ../Middlewares/ST/STM32_USB_Device_Library/Class/CDC/Src/usbd_cdc.c:539:50
	ldr	r0, [sp, #16]
	.loc	3 539 56 is_stmt 0              @ ../Middlewares/ST/STM32_USB_Device_Library/Class/CDC/Src/usbd_cdc.c:539:56
	ldr.w	r0, [r0, #712]
	.loc	3 539 22                        @ ../Middlewares/ST/STM32_USB_Device_Library/Class/CDC/Src/usbd_cdc.c:539:22
	str	r0, [sp, #4]
.Ltmp66:
	.loc	3 541 7 is_stmt 1               @ ../Middlewares/ST/STM32_USB_Device_Library/Class/CDC/Src/usbd_cdc.c:541:7
	ldr	r0, [sp, #16]
	.loc	3 541 35 is_stmt 0              @ ../Middlewares/ST/STM32_USB_Device_Library/Class/CDC/Src/usbd_cdc.c:541:35
	ldr.w	r1, [r0, #724]
	.loc	3 541 13                        @ ../Middlewares/ST/STM32_USB_Device_Library/Class/CDC/Src/usbd_cdc.c:541:13
	add.w	r0, r0, r1, lsl #2
	.loc	3 541 7                         @ ../Middlewares/ST/STM32_USB_Device_Library/Class/CDC/Src/usbd_cdc.c:541:7
	ldr.w	r0, [r0, #704]
.Ltmp67:
	.loc	3 541 7                         @ ../Middlewares/ST/STM32_USB_Device_Library/Class/CDC/Src/usbd_cdc.c:541:7
	cbnz	r0, .LBB4_2
	b	.LBB4_1
.LBB4_1:
	.loc	3 0 7                           @ ../Middlewares/ST/STM32_USB_Device_Library/Class/CDC/Src/usbd_cdc.c:0:7
	movs	r0, #3
.Ltmp68:
	.loc	3 543 5 is_stmt 1               @ ../Middlewares/ST/STM32_USB_Device_Library/Class/CDC/Src/usbd_cdc.c:543:5
	strb.w	r0, [sp, #23]
	b	.LBB4_9
.Ltmp69:
.LBB4_2:
	.loc	3 546 36                        @ ../Middlewares/ST/STM32_USB_Device_Library/Class/CDC/Src/usbd_cdc.c:546:36
	ldr	r0, [sp, #16]
	.loc	3 546 64 is_stmt 0              @ ../Middlewares/ST/STM32_USB_Device_Library/Class/CDC/Src/usbd_cdc.c:546:64
	ldr.w	r1, [r0, #724]
	.loc	3 546 42                        @ ../Middlewares/ST/STM32_USB_Device_Library/Class/CDC/Src/usbd_cdc.c:546:42
	add.w	r0, r0, r1, lsl #2
	.loc	3 546 36                        @ ../Middlewares/ST/STM32_USB_Device_Library/Class/CDC/Src/usbd_cdc.c:546:36
	ldr.w	r0, [r0, #704]
	.loc	3 546 8                         @ ../Middlewares/ST/STM32_USB_Device_Library/Class/CDC/Src/usbd_cdc.c:546:8
	str	r0, [sp, #8]
.Ltmp70:
	.loc	3 548 8 is_stmt 1               @ ../Middlewares/ST/STM32_USB_Device_Library/Class/CDC/Src/usbd_cdc.c:548:8
	ldr	r0, [sp, #16]
	.loc	3 548 20 is_stmt 0              @ ../Middlewares/ST/STM32_USB_Device_Library/Class/CDC/Src/usbd_cdc.c:548:20
	ldrb.w	r1, [sp, #15]
	.loc	3 548 26                        @ ../Middlewares/ST/STM32_USB_Device_Library/Class/CDC/Src/usbd_cdc.c:548:26
	and	r1, r1, #15
	.loc	3 548 8                         @ ../Middlewares/ST/STM32_USB_Device_Library/Class/CDC/Src/usbd_cdc.c:548:8
	add.w	r1, r1, r1, lsl #2
	.loc	3 548 14                        @ ../Middlewares/ST/STM32_USB_Device_Library/Class/CDC/Src/usbd_cdc.c:548:14
	add.w	r0, r0, r1, lsl #2
	.loc	3 548 34                        @ ../Middlewares/ST/STM32_USB_Device_Library/Class/CDC/Src/usbd_cdc.c:548:34
	ldr	r0, [r0, #20]
	.loc	3 548 53                        @ ../Middlewares/ST/STM32_USB_Device_Library/Class/CDC/Src/usbd_cdc.c:548:53
	cbz	r0, .LBB4_5
	b	.LBB4_3
.LBB4_3:
	.loc	3 549 9 is_stmt 1               @ ../Middlewares/ST/STM32_USB_Device_Library/Class/CDC/Src/usbd_cdc.c:549:9
	ldr	r0, [sp, #16]
	.loc	3 549 21 is_stmt 0              @ ../Middlewares/ST/STM32_USB_Device_Library/Class/CDC/Src/usbd_cdc.c:549:21
	ldrb.w	r1, [sp, #15]
	.loc	3 549 27                        @ ../Middlewares/ST/STM32_USB_Device_Library/Class/CDC/Src/usbd_cdc.c:549:27
	and	r1, r1, #15
	.loc	3 549 9                         @ ../Middlewares/ST/STM32_USB_Device_Library/Class/CDC/Src/usbd_cdc.c:549:9
	add.w	r2, r1, r1, lsl #2
	.loc	3 549 15                        @ ../Middlewares/ST/STM32_USB_Device_Library/Class/CDC/Src/usbd_cdc.c:549:15
	add.w	r0, r0, r2, lsl #2
	.loc	3 549 35                        @ ../Middlewares/ST/STM32_USB_Device_Library/Class/CDC/Src/usbd_cdc.c:549:35
	ldr	r2, [r0, #20]
	.loc	3 549 50                        @ ../Middlewares/ST/STM32_USB_Device_Library/Class/CDC/Src/usbd_cdc.c:549:50
	ldr	r0, [sp, #4]
	add.w	r1, r1, r1, lsl #3
	.loc	3 549 56                        @ ../Middlewares/ST/STM32_USB_Device_Library/Class/CDC/Src/usbd_cdc.c:549:56
	add.w	r0, r0, r1, lsl #2
	.loc	3 549 76                        @ ../Middlewares/ST/STM32_USB_Device_Library/Class/CDC/Src/usbd_cdc.c:549:76
	ldr	r1, [r0, #28]
	.loc	3 549 48                        @ ../Middlewares/ST/STM32_USB_Device_Library/Class/CDC/Src/usbd_cdc.c:549:48
	udiv	r0, r2, r1
	mls	r0, r0, r1, r2
.Ltmp71:
	.loc	3 548 7 is_stmt 1               @ ../Middlewares/ST/STM32_USB_Device_Library/Class/CDC/Src/usbd_cdc.c:548:7
	cbnz	r0, .LBB4_5
	b	.LBB4_4
.LBB4_4:
.Ltmp72:
	.loc	3 552 5                         @ ../Middlewares/ST/STM32_USB_Device_Library/Class/CDC/Src/usbd_cdc.c:552:5
	ldr	r0, [sp, #16]
	.loc	3 552 17 is_stmt 0              @ ../Middlewares/ST/STM32_USB_Device_Library/Class/CDC/Src/usbd_cdc.c:552:17
	ldrb.w	r1, [sp, #15]
	.loc	3 552 23                        @ ../Middlewares/ST/STM32_USB_Device_Library/Class/CDC/Src/usbd_cdc.c:552:23
	and	r1, r1, #15
	.loc	3 552 5                         @ ../Middlewares/ST/STM32_USB_Device_Library/Class/CDC/Src/usbd_cdc.c:552:5
	add.w	r1, r1, r1, lsl #2
	.loc	3 552 11                        @ ../Middlewares/ST/STM32_USB_Device_Library/Class/CDC/Src/usbd_cdc.c:552:11
	add.w	r0, r0, r1, lsl #2
	movs	r3, #0
	.loc	3 552 44                        @ ../Middlewares/ST/STM32_USB_Device_Library/Class/CDC/Src/usbd_cdc.c:552:44
	str	r3, [r0, #20]
	.loc	3 555 28 is_stmt 1              @ ../Middlewares/ST/STM32_USB_Device_Library/Class/CDC/Src/usbd_cdc.c:555:28
	ldr	r0, [sp, #16]
	.loc	3 555 34 is_stmt 0              @ ../Middlewares/ST/STM32_USB_Device_Library/Class/CDC/Src/usbd_cdc.c:555:34
	ldrb.w	r1, [sp, #15]
	.loc	3 555 11                        @ ../Middlewares/ST/STM32_USB_Device_Library/Class/CDC/Src/usbd_cdc.c:555:11
	mov	r2, r3
	bl	USBD_LL_Transmit
	.loc	3 556 3 is_stmt 1               @ ../Middlewares/ST/STM32_USB_Device_Library/Class/CDC/Src/usbd_cdc.c:556:3
	b	.LBB4_8
.Ltmp73:
.LBB4_5:
	.loc	3 559 5                         @ ../Middlewares/ST/STM32_USB_Device_Library/Class/CDC/Src/usbd_cdc.c:559:5
	ldr	r1, [sp, #8]
	movs	r0, #0
	.loc	3 559 19 is_stmt 0              @ ../Middlewares/ST/STM32_USB_Device_Library/Class/CDC/Src/usbd_cdc.c:559:19
	str.w	r0, [r1, #532]
.Ltmp74:
	.loc	3 561 33 is_stmt 1              @ ../Middlewares/ST/STM32_USB_Device_Library/Class/CDC/Src/usbd_cdc.c:561:33
	ldr	r0, [sp, #16]
	.loc	3 561 55 is_stmt 0              @ ../Middlewares/ST/STM32_USB_Device_Library/Class/CDC/Src/usbd_cdc.c:561:55
	ldr.w	r1, [r0, #724]
	.loc	3 561 39                        @ ../Middlewares/ST/STM32_USB_Device_Library/Class/CDC/Src/usbd_cdc.c:561:39
	add.w	r0, r0, r1, lsl #2
	.loc	3 561 33                        @ ../Middlewares/ST/STM32_USB_Device_Library/Class/CDC/Src/usbd_cdc.c:561:33
	ldr.w	r0, [r0, #708]
	.loc	3 561 66                        @ ../Middlewares/ST/STM32_USB_Device_Library/Class/CDC/Src/usbd_cdc.c:561:66
	ldr	r0, [r0, #16]
.Ltmp75:
	.loc	3 561 9                         @ ../Middlewares/ST/STM32_USB_Device_Library/Class/CDC/Src/usbd_cdc.c:561:9
	cbz	r0, .LBB4_7
	b	.LBB4_6
.LBB4_6:
.Ltmp76:
	.loc	3 563 31 is_stmt 1              @ ../Middlewares/ST/STM32_USB_Device_Library/Class/CDC/Src/usbd_cdc.c:563:31
	ldr	r0, [sp, #16]
	.loc	3 563 53 is_stmt 0              @ ../Middlewares/ST/STM32_USB_Device_Library/Class/CDC/Src/usbd_cdc.c:563:53
	ldr.w	r1, [r0, #724]
	.loc	3 563 37                        @ ../Middlewares/ST/STM32_USB_Device_Library/Class/CDC/Src/usbd_cdc.c:563:37
	add.w	r0, r0, r1, lsl #2
	.loc	3 563 31                        @ ../Middlewares/ST/STM32_USB_Device_Library/Class/CDC/Src/usbd_cdc.c:563:31
	ldr.w	r0, [r0, #708]
	.loc	3 563 64                        @ ../Middlewares/ST/STM32_USB_Device_Library/Class/CDC/Src/usbd_cdc.c:563:64
	ldr	r3, [r0, #16]
	.loc	3 563 77                        @ ../Middlewares/ST/STM32_USB_Device_Library/Class/CDC/Src/usbd_cdc.c:563:77
	ldr	r1, [sp, #8]
	.loc	3 563 83                        @ ../Middlewares/ST/STM32_USB_Device_Library/Class/CDC/Src/usbd_cdc.c:563:83
	ldr.w	r0, [r1, #520]
	.loc	3 563 100                       @ ../Middlewares/ST/STM32_USB_Device_Library/Class/CDC/Src/usbd_cdc.c:563:100
	add.w	r1, r1, #528
	.loc	3 563 110                       @ ../Middlewares/ST/STM32_USB_Device_Library/Class/CDC/Src/usbd_cdc.c:563:110
	ldrb.w	r2, [sp, #15]
	.loc	3 563 7                         @ ../Middlewares/ST/STM32_USB_Device_Library/Class/CDC/Src/usbd_cdc.c:563:7
	blx	r3
	.loc	3 564 5 is_stmt 1               @ ../Middlewares/ST/STM32_USB_Device_Library/Class/CDC/Src/usbd_cdc.c:564:5
	b	.LBB4_7
.Ltmp77:
.LBB4_7:
	.loc	3 0 5 is_stmt 0                 @ ../Middlewares/ST/STM32_USB_Device_Library/Class/CDC/Src/usbd_cdc.c:0:5
	b	.LBB4_8
.LBB4_8:
	movs	r0, #0
	.loc	3 567 3 is_stmt 1               @ ../Middlewares/ST/STM32_USB_Device_Library/Class/CDC/Src/usbd_cdc.c:567:3
	strb.w	r0, [sp, #23]
	b	.LBB4_9
.LBB4_9:
	.loc	3 568 1                         @ ../Middlewares/ST/STM32_USB_Device_Library/Class/CDC/Src/usbd_cdc.c:568:1
	ldrb.w	r0, [sp, #23]
	add	sp, #24
	pop	{r7, pc}
.Ltmp78:
.Lfunc_end4:
	.size	USBD_CDC_DataIn, .Lfunc_end4-USBD_CDC_DataIn
	.cfi_endproc
	.cantunwind
	.fnend
                                        @ -- End function
	.section	.text.USBD_CDC_DataOut,"ax",%progbits
	.p2align	2                               @ -- Begin function USBD_CDC_DataOut
	.type	USBD_CDC_DataOut,%function
	.code	16                              @ @USBD_CDC_DataOut
	.thumb_func
USBD_CDC_DataOut:
.Lfunc_begin5:
	.loc	3 578 0                         @ ../Middlewares/ST/STM32_USB_Device_Library/Class/CDC/Src/usbd_cdc.c:578:0
	.fnstart
	.cfi_startproc
@ %bb.0:
	.save	{r7, lr}
	push	{r7, lr}
	.cfi_def_cfa_offset 8
	.cfi_offset lr, -4
	.cfi_offset r7, -8
	.pad	#16
	sub	sp, #16
	.cfi_def_cfa_offset 24
                                        @ kill: def $r2 killed $r1
	str	r0, [sp, #8]
	strb.w	r1, [sp, #7]
.Ltmp79:
	.loc	3 579 60 prologue_end           @ ../Middlewares/ST/STM32_USB_Device_Library/Class/CDC/Src/usbd_cdc.c:579:60
	ldr	r0, [sp, #8]
	.loc	3 579 88 is_stmt 0              @ ../Middlewares/ST/STM32_USB_Device_Library/Class/CDC/Src/usbd_cdc.c:579:88
	ldr.w	r1, [r0, #724]
	.loc	3 579 66                        @ ../Middlewares/ST/STM32_USB_Device_Library/Class/CDC/Src/usbd_cdc.c:579:66
	add.w	r0, r0, r1, lsl #2
	.loc	3 579 60                        @ ../Middlewares/ST/STM32_USB_Device_Library/Class/CDC/Src/usbd_cdc.c:579:60
	ldr.w	r0, [r0, #704]
	.loc	3 579 27                        @ ../Middlewares/ST/STM32_USB_Device_Library/Class/CDC/Src/usbd_cdc.c:579:27
	str	r0, [sp]
.Ltmp80:
	.loc	3 581 7 is_stmt 1               @ ../Middlewares/ST/STM32_USB_Device_Library/Class/CDC/Src/usbd_cdc.c:581:7
	ldr	r0, [sp, #8]
	.loc	3 581 35 is_stmt 0              @ ../Middlewares/ST/STM32_USB_Device_Library/Class/CDC/Src/usbd_cdc.c:581:35
	ldr.w	r1, [r0, #724]
	.loc	3 581 13                        @ ../Middlewares/ST/STM32_USB_Device_Library/Class/CDC/Src/usbd_cdc.c:581:13
	add.w	r0, r0, r1, lsl #2
	.loc	3 581 7                         @ ../Middlewares/ST/STM32_USB_Device_Library/Class/CDC/Src/usbd_cdc.c:581:7
	ldr.w	r0, [r0, #704]
.Ltmp81:
	.loc	3 581 7                         @ ../Middlewares/ST/STM32_USB_Device_Library/Class/CDC/Src/usbd_cdc.c:581:7
	cbnz	r0, .LBB5_2
	b	.LBB5_1
.LBB5_1:
	.loc	3 0 7                           @ ../Middlewares/ST/STM32_USB_Device_Library/Class/CDC/Src/usbd_cdc.c:0:7
	movs	r0, #3
.Ltmp82:
	.loc	3 583 5 is_stmt 1               @ ../Middlewares/ST/STM32_USB_Device_Library/Class/CDC/Src/usbd_cdc.c:583:5
	strb.w	r0, [sp, #15]
	b	.LBB5_3
.Ltmp83:
.LBB5_2:
	.loc	3 587 42                        @ ../Middlewares/ST/STM32_USB_Device_Library/Class/CDC/Src/usbd_cdc.c:587:42
	ldr	r0, [sp, #8]
	.loc	3 587 48 is_stmt 0              @ ../Middlewares/ST/STM32_USB_Device_Library/Class/CDC/Src/usbd_cdc.c:587:48
	ldrb.w	r1, [sp, #7]
	.loc	3 587 20                        @ ../Middlewares/ST/STM32_USB_Device_Library/Class/CDC/Src/usbd_cdc.c:587:20
	bl	USBD_LL_GetRxDataSize
	.loc	3 587 3                         @ ../Middlewares/ST/STM32_USB_Device_Library/Class/CDC/Src/usbd_cdc.c:587:3
	ldr	r1, [sp]
	.loc	3 587 18                        @ ../Middlewares/ST/STM32_USB_Device_Library/Class/CDC/Src/usbd_cdc.c:587:18
	str.w	r0, [r1, #524]
	.loc	3 592 27 is_stmt 1              @ ../Middlewares/ST/STM32_USB_Device_Library/Class/CDC/Src/usbd_cdc.c:592:27
	ldr	r0, [sp, #8]
	.loc	3 592 49 is_stmt 0              @ ../Middlewares/ST/STM32_USB_Device_Library/Class/CDC/Src/usbd_cdc.c:592:49
	ldr.w	r1, [r0, #724]
	.loc	3 592 33                        @ ../Middlewares/ST/STM32_USB_Device_Library/Class/CDC/Src/usbd_cdc.c:592:33
	add.w	r0, r0, r1, lsl #2
	.loc	3 592 27                        @ ../Middlewares/ST/STM32_USB_Device_Library/Class/CDC/Src/usbd_cdc.c:592:27
	ldr.w	r0, [r0, #708]
	.loc	3 592 60                        @ ../Middlewares/ST/STM32_USB_Device_Library/Class/CDC/Src/usbd_cdc.c:592:60
	ldr	r2, [r0, #12]
	.loc	3 592 68                        @ ../Middlewares/ST/STM32_USB_Device_Library/Class/CDC/Src/usbd_cdc.c:592:68
	ldr	r1, [sp]
	.loc	3 592 74                        @ ../Middlewares/ST/STM32_USB_Device_Library/Class/CDC/Src/usbd_cdc.c:592:74
	ldr.w	r0, [r1, #516]
	.loc	3 592 91                        @ ../Middlewares/ST/STM32_USB_Device_Library/Class/CDC/Src/usbd_cdc.c:592:91
	add.w	r1, r1, #524
	.loc	3 592 3                         @ ../Middlewares/ST/STM32_USB_Device_Library/Class/CDC/Src/usbd_cdc.c:592:3
	blx	r2
	movs	r0, #0
	.loc	3 594 3 is_stmt 1               @ ../Middlewares/ST/STM32_USB_Device_Library/Class/CDC/Src/usbd_cdc.c:594:3
	strb.w	r0, [sp, #15]
	b	.LBB5_3
.LBB5_3:
	.loc	3 595 1                         @ ../Middlewares/ST/STM32_USB_Device_Library/Class/CDC/Src/usbd_cdc.c:595:1
	ldrb.w	r0, [sp, #15]
	add	sp, #16
	pop	{r7, pc}
.Ltmp84:
.Lfunc_end5:
	.size	USBD_CDC_DataOut, .Lfunc_end5-USBD_CDC_DataOut
	.cfi_endproc
	.cantunwind
	.fnend
                                        @ -- End function
	.section	.text.USBD_CDC_GetHSCfgDesc,"ax",%progbits
	.p2align	2                               @ -- Begin function USBD_CDC_GetHSCfgDesc
	.type	USBD_CDC_GetHSCfgDesc,%function
	.code	16                              @ @USBD_CDC_GetHSCfgDesc
	.thumb_func
USBD_CDC_GetHSCfgDesc:
.Lfunc_begin6:
	.loc	3 661 0                         @ ../Middlewares/ST/STM32_USB_Device_Library/Class/CDC/Src/usbd_cdc.c:661:0
	.fnstart
	.cfi_startproc
@ %bb.0:
	.save	{r7, lr}
	push	{r7, lr}
	.cfi_def_cfa_offset 8
	.cfi_offset lr, -4
	.cfi_offset r7, -8
	.pad	#24
	sub	sp, #24
	.cfi_def_cfa_offset 32
	str	r0, [sp, #20]
.Ltmp85:
	.loc	3 662 36 prologue_end           @ ../Middlewares/ST/STM32_USB_Device_Library/Class/CDC/Src/usbd_cdc.c:662:36
	movw	r0, :lower16:USBD_CDC_CfgDesc
	movt	r0, :upper16:USBD_CDC_CfgDesc
	str	r0, [sp, #4]                    @ 4-byte Spill
	movs	r1, #130
	bl	USBD_GetEpDesc
	mov	r1, r0
	.loc	3 662 23 is_stmt 0              @ ../Middlewares/ST/STM32_USB_Device_Library/Class/CDC/Src/usbd_cdc.c:662:23
	ldr	r0, [sp, #4]                    @ 4-byte Reload
	str	r1, [sp, #16]
	movs	r1, #1
	.loc	3 663 36 is_stmt 1              @ ../Middlewares/ST/STM32_USB_Device_Library/Class/CDC/Src/usbd_cdc.c:663:36
	bl	USBD_GetEpDesc
	mov	r1, r0
	.loc	3 663 23 is_stmt 0              @ ../Middlewares/ST/STM32_USB_Device_Library/Class/CDC/Src/usbd_cdc.c:663:23
	ldr	r0, [sp, #4]                    @ 4-byte Reload
	str	r1, [sp, #12]
	movs	r1, #129
	.loc	3 664 35 is_stmt 1              @ ../Middlewares/ST/STM32_USB_Device_Library/Class/CDC/Src/usbd_cdc.c:664:35
	bl	USBD_GetEpDesc
	.loc	3 664 23 is_stmt 0              @ ../Middlewares/ST/STM32_USB_Device_Library/Class/CDC/Src/usbd_cdc.c:664:23
	str	r0, [sp, #8]
.Ltmp86:
	.loc	3 666 7 is_stmt 1               @ ../Middlewares/ST/STM32_USB_Device_Library/Class/CDC/Src/usbd_cdc.c:666:7
	ldr	r0, [sp, #16]
.Ltmp87:
	.loc	3 666 7 is_stmt 0               @ ../Middlewares/ST/STM32_USB_Device_Library/Class/CDC/Src/usbd_cdc.c:666:7
	cbz	r0, .LBB6_2
	b	.LBB6_1
.LBB6_1:
.Ltmp88:
	.loc	3 668 5 is_stmt 1               @ ../Middlewares/ST/STM32_USB_Device_Library/Class/CDC/Src/usbd_cdc.c:668:5
	ldr	r1, [sp, #16]
	movs	r0, #16
	.loc	3 668 27 is_stmt 0              @ ../Middlewares/ST/STM32_USB_Device_Library/Class/CDC/Src/usbd_cdc.c:668:27
	strb	r0, [r1, #6]
	.loc	3 669 3 is_stmt 1               @ ../Middlewares/ST/STM32_USB_Device_Library/Class/CDC/Src/usbd_cdc.c:669:3
	b	.LBB6_2
.Ltmp89:
.LBB6_2:
	.loc	3 671 7                         @ ../Middlewares/ST/STM32_USB_Device_Library/Class/CDC/Src/usbd_cdc.c:671:7
	ldr	r0, [sp, #12]
.Ltmp90:
	.loc	3 671 7 is_stmt 0               @ ../Middlewares/ST/STM32_USB_Device_Library/Class/CDC/Src/usbd_cdc.c:671:7
	cbz	r0, .LBB6_4
	b	.LBB6_3
.LBB6_3:
.Ltmp91:
	.loc	3 673 5 is_stmt 1               @ ../Middlewares/ST/STM32_USB_Device_Library/Class/CDC/Src/usbd_cdc.c:673:5
	ldr	r1, [sp, #12]
	mov.w	r0, #512
	.loc	3 673 32 is_stmt 0              @ ../Middlewares/ST/STM32_USB_Device_Library/Class/CDC/Src/usbd_cdc.c:673:32
	strh	r0, [r1, #4]
	.loc	3 674 3 is_stmt 1               @ ../Middlewares/ST/STM32_USB_Device_Library/Class/CDC/Src/usbd_cdc.c:674:3
	b	.LBB6_4
.Ltmp92:
.LBB6_4:
	.loc	3 676 7                         @ ../Middlewares/ST/STM32_USB_Device_Library/Class/CDC/Src/usbd_cdc.c:676:7
	ldr	r0, [sp, #8]
.Ltmp93:
	.loc	3 676 7 is_stmt 0               @ ../Middlewares/ST/STM32_USB_Device_Library/Class/CDC/Src/usbd_cdc.c:676:7
	cbz	r0, .LBB6_6
	b	.LBB6_5
.LBB6_5:
.Ltmp94:
	.loc	3 678 5 is_stmt 1               @ ../Middlewares/ST/STM32_USB_Device_Library/Class/CDC/Src/usbd_cdc.c:678:5
	ldr	r1, [sp, #8]
	mov.w	r0, #512
	.loc	3 678 31 is_stmt 0              @ ../Middlewares/ST/STM32_USB_Device_Library/Class/CDC/Src/usbd_cdc.c:678:31
	strh	r0, [r1, #4]
	.loc	3 679 3 is_stmt 1               @ ../Middlewares/ST/STM32_USB_Device_Library/Class/CDC/Src/usbd_cdc.c:679:3
	b	.LBB6_6
.Ltmp95:
.LBB6_6:
	.loc	3 681 4                         @ ../Middlewares/ST/STM32_USB_Device_Library/Class/CDC/Src/usbd_cdc.c:681:4
	ldr	r1, [sp, #20]
	movs	r0, #67
	.loc	3 681 11 is_stmt 0              @ ../Middlewares/ST/STM32_USB_Device_Library/Class/CDC/Src/usbd_cdc.c:681:11
	strh	r0, [r1]
	.loc	3 682 3 is_stmt 1               @ ../Middlewares/ST/STM32_USB_Device_Library/Class/CDC/Src/usbd_cdc.c:682:3
	movw	r0, :lower16:USBD_CDC_CfgDesc
	movt	r0, :upper16:USBD_CDC_CfgDesc
	add	sp, #24
	pop	{r7, pc}
.Ltmp96:
.Lfunc_end6:
	.size	USBD_CDC_GetHSCfgDesc, .Lfunc_end6-USBD_CDC_GetHSCfgDesc
	.cfi_endproc
	.cantunwind
	.fnend
                                        @ -- End function
	.section	.text.USBD_CDC_GetFSCfgDesc,"ax",%progbits
	.p2align	2                               @ -- Begin function USBD_CDC_GetFSCfgDesc
	.type	USBD_CDC_GetFSCfgDesc,%function
	.code	16                              @ @USBD_CDC_GetFSCfgDesc
	.thumb_func
USBD_CDC_GetFSCfgDesc:
.Lfunc_begin7:
	.loc	3 630 0                         @ ../Middlewares/ST/STM32_USB_Device_Library/Class/CDC/Src/usbd_cdc.c:630:0
	.fnstart
	.cfi_startproc
@ %bb.0:
	.save	{r7, lr}
	push	{r7, lr}
	.cfi_def_cfa_offset 8
	.cfi_offset lr, -4
	.cfi_offset r7, -8
	.pad	#24
	sub	sp, #24
	.cfi_def_cfa_offset 32
	str	r0, [sp, #20]
.Ltmp97:
	.loc	3 631 36 prologue_end           @ ../Middlewares/ST/STM32_USB_Device_Library/Class/CDC/Src/usbd_cdc.c:631:36
	movw	r0, :lower16:USBD_CDC_CfgDesc
	movt	r0, :upper16:USBD_CDC_CfgDesc
	str	r0, [sp, #4]                    @ 4-byte Spill
	movs	r1, #130
	bl	USBD_GetEpDesc
	mov	r1, r0
	.loc	3 631 23 is_stmt 0              @ ../Middlewares/ST/STM32_USB_Device_Library/Class/CDC/Src/usbd_cdc.c:631:23
	ldr	r0, [sp, #4]                    @ 4-byte Reload
	str	r1, [sp, #16]
	movs	r1, #1
	.loc	3 632 36 is_stmt 1              @ ../Middlewares/ST/STM32_USB_Device_Library/Class/CDC/Src/usbd_cdc.c:632:36
	bl	USBD_GetEpDesc
	mov	r1, r0
	.loc	3 632 23 is_stmt 0              @ ../Middlewares/ST/STM32_USB_Device_Library/Class/CDC/Src/usbd_cdc.c:632:23
	ldr	r0, [sp, #4]                    @ 4-byte Reload
	str	r1, [sp, #12]
	movs	r1, #129
	.loc	3 633 35 is_stmt 1              @ ../Middlewares/ST/STM32_USB_Device_Library/Class/CDC/Src/usbd_cdc.c:633:35
	bl	USBD_GetEpDesc
	.loc	3 633 23 is_stmt 0              @ ../Middlewares/ST/STM32_USB_Device_Library/Class/CDC/Src/usbd_cdc.c:633:23
	str	r0, [sp, #8]
.Ltmp98:
	.loc	3 635 7 is_stmt 1               @ ../Middlewares/ST/STM32_USB_Device_Library/Class/CDC/Src/usbd_cdc.c:635:7
	ldr	r0, [sp, #16]
.Ltmp99:
	.loc	3 635 7 is_stmt 0               @ ../Middlewares/ST/STM32_USB_Device_Library/Class/CDC/Src/usbd_cdc.c:635:7
	cbz	r0, .LBB7_2
	b	.LBB7_1
.LBB7_1:
.Ltmp100:
	.loc	3 637 5 is_stmt 1               @ ../Middlewares/ST/STM32_USB_Device_Library/Class/CDC/Src/usbd_cdc.c:637:5
	ldr	r1, [sp, #16]
	movs	r0, #16
	.loc	3 637 27 is_stmt 0              @ ../Middlewares/ST/STM32_USB_Device_Library/Class/CDC/Src/usbd_cdc.c:637:27
	strb	r0, [r1, #6]
	.loc	3 638 3 is_stmt 1               @ ../Middlewares/ST/STM32_USB_Device_Library/Class/CDC/Src/usbd_cdc.c:638:3
	b	.LBB7_2
.Ltmp101:
.LBB7_2:
	.loc	3 640 7                         @ ../Middlewares/ST/STM32_USB_Device_Library/Class/CDC/Src/usbd_cdc.c:640:7
	ldr	r0, [sp, #12]
.Ltmp102:
	.loc	3 640 7 is_stmt 0               @ ../Middlewares/ST/STM32_USB_Device_Library/Class/CDC/Src/usbd_cdc.c:640:7
	cbz	r0, .LBB7_4
	b	.LBB7_3
.LBB7_3:
.Ltmp103:
	.loc	3 642 5 is_stmt 1               @ ../Middlewares/ST/STM32_USB_Device_Library/Class/CDC/Src/usbd_cdc.c:642:5
	ldr	r1, [sp, #12]
	movs	r0, #64
	.loc	3 642 32 is_stmt 0              @ ../Middlewares/ST/STM32_USB_Device_Library/Class/CDC/Src/usbd_cdc.c:642:32
	strh	r0, [r1, #4]
	.loc	3 643 3 is_stmt 1               @ ../Middlewares/ST/STM32_USB_Device_Library/Class/CDC/Src/usbd_cdc.c:643:3
	b	.LBB7_4
.Ltmp104:
.LBB7_4:
	.loc	3 645 7                         @ ../Middlewares/ST/STM32_USB_Device_Library/Class/CDC/Src/usbd_cdc.c:645:7
	ldr	r0, [sp, #8]
.Ltmp105:
	.loc	3 645 7 is_stmt 0               @ ../Middlewares/ST/STM32_USB_Device_Library/Class/CDC/Src/usbd_cdc.c:645:7
	cbz	r0, .LBB7_6
	b	.LBB7_5
.LBB7_5:
.Ltmp106:
	.loc	3 647 5 is_stmt 1               @ ../Middlewares/ST/STM32_USB_Device_Library/Class/CDC/Src/usbd_cdc.c:647:5
	ldr	r1, [sp, #8]
	movs	r0, #64
	.loc	3 647 31 is_stmt 0              @ ../Middlewares/ST/STM32_USB_Device_Library/Class/CDC/Src/usbd_cdc.c:647:31
	strh	r0, [r1, #4]
	.loc	3 648 3 is_stmt 1               @ ../Middlewares/ST/STM32_USB_Device_Library/Class/CDC/Src/usbd_cdc.c:648:3
	b	.LBB7_6
.Ltmp107:
.LBB7_6:
	.loc	3 650 4                         @ ../Middlewares/ST/STM32_USB_Device_Library/Class/CDC/Src/usbd_cdc.c:650:4
	ldr	r1, [sp, #20]
	movs	r0, #67
	.loc	3 650 11 is_stmt 0              @ ../Middlewares/ST/STM32_USB_Device_Library/Class/CDC/Src/usbd_cdc.c:650:11
	strh	r0, [r1]
	.loc	3 651 3 is_stmt 1               @ ../Middlewares/ST/STM32_USB_Device_Library/Class/CDC/Src/usbd_cdc.c:651:3
	movw	r0, :lower16:USBD_CDC_CfgDesc
	movt	r0, :upper16:USBD_CDC_CfgDesc
	add	sp, #24
	pop	{r7, pc}
.Ltmp108:
.Lfunc_end7:
	.size	USBD_CDC_GetFSCfgDesc, .Lfunc_end7-USBD_CDC_GetFSCfgDesc
	.cfi_endproc
	.cantunwind
	.fnend
                                        @ -- End function
	.section	.text.USBD_CDC_GetOtherSpeedCfgDesc,"ax",%progbits
	.p2align	2                               @ -- Begin function USBD_CDC_GetOtherSpeedCfgDesc
	.type	USBD_CDC_GetOtherSpeedCfgDesc,%function
	.code	16                              @ @USBD_CDC_GetOtherSpeedCfgDesc
	.thumb_func
USBD_CDC_GetOtherSpeedCfgDesc:
.Lfunc_begin8:
	.loc	3 692 0                         @ ../Middlewares/ST/STM32_USB_Device_Library/Class/CDC/Src/usbd_cdc.c:692:0
	.fnstart
	.cfi_startproc
@ %bb.0:
	.save	{r7, lr}
	push	{r7, lr}
	.cfi_def_cfa_offset 8
	.cfi_offset lr, -4
	.cfi_offset r7, -8
	.pad	#24
	sub	sp, #24
	.cfi_def_cfa_offset 32
	str	r0, [sp, #20]
.Ltmp109:
	.loc	3 693 36 prologue_end           @ ../Middlewares/ST/STM32_USB_Device_Library/Class/CDC/Src/usbd_cdc.c:693:36
	movw	r0, :lower16:USBD_CDC_CfgDesc
	movt	r0, :upper16:USBD_CDC_CfgDesc
	str	r0, [sp, #4]                    @ 4-byte Spill
	movs	r1, #130
	bl	USBD_GetEpDesc
	mov	r1, r0
	.loc	3 693 23 is_stmt 0              @ ../Middlewares/ST/STM32_USB_Device_Library/Class/CDC/Src/usbd_cdc.c:693:23
	ldr	r0, [sp, #4]                    @ 4-byte Reload
	str	r1, [sp, #16]
	movs	r1, #1
	.loc	3 694 36 is_stmt 1              @ ../Middlewares/ST/STM32_USB_Device_Library/Class/CDC/Src/usbd_cdc.c:694:36
	bl	USBD_GetEpDesc
	mov	r1, r0
	.loc	3 694 23 is_stmt 0              @ ../Middlewares/ST/STM32_USB_Device_Library/Class/CDC/Src/usbd_cdc.c:694:23
	ldr	r0, [sp, #4]                    @ 4-byte Reload
	str	r1, [sp, #12]
	movs	r1, #129
	.loc	3 695 35 is_stmt 1              @ ../Middlewares/ST/STM32_USB_Device_Library/Class/CDC/Src/usbd_cdc.c:695:35
	bl	USBD_GetEpDesc
	.loc	3 695 23 is_stmt 0              @ ../Middlewares/ST/STM32_USB_Device_Library/Class/CDC/Src/usbd_cdc.c:695:23
	str	r0, [sp, #8]
.Ltmp110:
	.loc	3 697 7 is_stmt 1               @ ../Middlewares/ST/STM32_USB_Device_Library/Class/CDC/Src/usbd_cdc.c:697:7
	ldr	r0, [sp, #16]
.Ltmp111:
	.loc	3 697 7 is_stmt 0               @ ../Middlewares/ST/STM32_USB_Device_Library/Class/CDC/Src/usbd_cdc.c:697:7
	cbz	r0, .LBB8_2
	b	.LBB8_1
.LBB8_1:
.Ltmp112:
	.loc	3 699 5 is_stmt 1               @ ../Middlewares/ST/STM32_USB_Device_Library/Class/CDC/Src/usbd_cdc.c:699:5
	ldr	r1, [sp, #16]
	movs	r0, #16
	.loc	3 699 27 is_stmt 0              @ ../Middlewares/ST/STM32_USB_Device_Library/Class/CDC/Src/usbd_cdc.c:699:27
	strb	r0, [r1, #6]
	.loc	3 700 3 is_stmt 1               @ ../Middlewares/ST/STM32_USB_Device_Library/Class/CDC/Src/usbd_cdc.c:700:3
	b	.LBB8_2
.Ltmp113:
.LBB8_2:
	.loc	3 702 7                         @ ../Middlewares/ST/STM32_USB_Device_Library/Class/CDC/Src/usbd_cdc.c:702:7
	ldr	r0, [sp, #12]
.Ltmp114:
	.loc	3 702 7 is_stmt 0               @ ../Middlewares/ST/STM32_USB_Device_Library/Class/CDC/Src/usbd_cdc.c:702:7
	cbz	r0, .LBB8_4
	b	.LBB8_3
.LBB8_3:
.Ltmp115:
	.loc	3 704 5 is_stmt 1               @ ../Middlewares/ST/STM32_USB_Device_Library/Class/CDC/Src/usbd_cdc.c:704:5
	ldr	r1, [sp, #12]
	movs	r0, #64
	.loc	3 704 32 is_stmt 0              @ ../Middlewares/ST/STM32_USB_Device_Library/Class/CDC/Src/usbd_cdc.c:704:32
	strh	r0, [r1, #4]
	.loc	3 705 3 is_stmt 1               @ ../Middlewares/ST/STM32_USB_Device_Library/Class/CDC/Src/usbd_cdc.c:705:3
	b	.LBB8_4
.Ltmp116:
.LBB8_4:
	.loc	3 707 7                         @ ../Middlewares/ST/STM32_USB_Device_Library/Class/CDC/Src/usbd_cdc.c:707:7
	ldr	r0, [sp, #8]
.Ltmp117:
	.loc	3 707 7 is_stmt 0               @ ../Middlewares/ST/STM32_USB_Device_Library/Class/CDC/Src/usbd_cdc.c:707:7
	cbz	r0, .LBB8_6
	b	.LBB8_5
.LBB8_5:
.Ltmp118:
	.loc	3 709 5 is_stmt 1               @ ../Middlewares/ST/STM32_USB_Device_Library/Class/CDC/Src/usbd_cdc.c:709:5
	ldr	r1, [sp, #8]
	movs	r0, #64
	.loc	3 709 31 is_stmt 0              @ ../Middlewares/ST/STM32_USB_Device_Library/Class/CDC/Src/usbd_cdc.c:709:31
	strh	r0, [r1, #4]
	.loc	3 710 3 is_stmt 1               @ ../Middlewares/ST/STM32_USB_Device_Library/Class/CDC/Src/usbd_cdc.c:710:3
	b	.LBB8_6
.Ltmp119:
.LBB8_6:
	.loc	3 712 4                         @ ../Middlewares/ST/STM32_USB_Device_Library/Class/CDC/Src/usbd_cdc.c:712:4
	ldr	r1, [sp, #20]
	movs	r0, #67
	.loc	3 712 11 is_stmt 0              @ ../Middlewares/ST/STM32_USB_Device_Library/Class/CDC/Src/usbd_cdc.c:712:11
	strh	r0, [r1]
	.loc	3 713 3 is_stmt 1               @ ../Middlewares/ST/STM32_USB_Device_Library/Class/CDC/Src/usbd_cdc.c:713:3
	movw	r0, :lower16:USBD_CDC_CfgDesc
	movt	r0, :upper16:USBD_CDC_CfgDesc
	add	sp, #24
	pop	{r7, pc}
.Ltmp120:
.Lfunc_end8:
	.size	USBD_CDC_GetOtherSpeedCfgDesc, .Lfunc_end8-USBD_CDC_GetOtherSpeedCfgDesc
	.cfi_endproc
	.cantunwind
	.fnend
                                        @ -- End function
	.section	.text.USBD_CDC_GetDeviceQualifierDescriptor,"ax",%progbits
	.hidden	USBD_CDC_GetDeviceQualifierDescriptor @ -- Begin function USBD_CDC_GetDeviceQualifierDescriptor
	.globl	USBD_CDC_GetDeviceQualifierDescriptor
	.p2align	2
	.type	USBD_CDC_GetDeviceQualifierDescriptor,%function
	.code	16                              @ @USBD_CDC_GetDeviceQualifierDescriptor
	.thumb_func
USBD_CDC_GetDeviceQualifierDescriptor:
.Lfunc_begin9:
	.loc	3 723 0                         @ ../Middlewares/ST/STM32_USB_Device_Library/Class/CDC/Src/usbd_cdc.c:723:0
	.fnstart
	.cfi_startproc
@ %bb.0:
	.pad	#4
	sub	sp, #4
	.cfi_def_cfa_offset 4
	str	r0, [sp]
.Ltmp121:
	.loc	3 724 4 prologue_end            @ ../Middlewares/ST/STM32_USB_Device_Library/Class/CDC/Src/usbd_cdc.c:724:4
	ldr	r1, [sp]
	movs	r0, #10
	.loc	3 724 11 is_stmt 0              @ ../Middlewares/ST/STM32_USB_Device_Library/Class/CDC/Src/usbd_cdc.c:724:11
	strh	r0, [r1]
	.loc	3 726 3 is_stmt 1               @ ../Middlewares/ST/STM32_USB_Device_Library/Class/CDC/Src/usbd_cdc.c:726:3
	movw	r0, :lower16:USBD_CDC_DeviceQualifierDesc
	movt	r0, :upper16:USBD_CDC_DeviceQualifierDesc
	add	sp, #4
	bx	lr
.Ltmp122:
.Lfunc_end9:
	.size	USBD_CDC_GetDeviceQualifierDescriptor, .Lfunc_end9-USBD_CDC_GetDeviceQualifierDescriptor
	.cfi_endproc
	.cantunwind
	.fnend
                                        @ -- End function
	.section	.text.USBD_CDC_RegisterInterface,"ax",%progbits
	.hidden	USBD_CDC_RegisterInterface      @ -- Begin function USBD_CDC_RegisterInterface
	.globl	USBD_CDC_RegisterInterface
	.p2align	2
	.type	USBD_CDC_RegisterInterface,%function
	.code	16                              @ @USBD_CDC_RegisterInterface
	.thumb_func
USBD_CDC_RegisterInterface:
.Lfunc_begin10:
	.loc	3 737 0                         @ ../Middlewares/ST/STM32_USB_Device_Library/Class/CDC/Src/usbd_cdc.c:737:0
	.fnstart
	.cfi_startproc
@ %bb.0:
	.pad	#12
	sub	sp, #12
	.cfi_def_cfa_offset 12
	str	r0, [sp, #4]
	str	r1, [sp]
.Ltmp123:
	.loc	3 738 7 prologue_end            @ ../Middlewares/ST/STM32_USB_Device_Library/Class/CDC/Src/usbd_cdc.c:738:7
	ldr	r0, [sp]
.Ltmp124:
	.loc	3 738 7 is_stmt 0               @ ../Middlewares/ST/STM32_USB_Device_Library/Class/CDC/Src/usbd_cdc.c:738:7
	cbnz	r0, .LBB10_2
	b	.LBB10_1
.LBB10_1:
	.loc	3 0 7                           @ ../Middlewares/ST/STM32_USB_Device_Library/Class/CDC/Src/usbd_cdc.c:0:7
	movs	r0, #3
.Ltmp125:
	.loc	3 740 5 is_stmt 1               @ ../Middlewares/ST/STM32_USB_Device_Library/Class/CDC/Src/usbd_cdc.c:740:5
	strb.w	r0, [sp, #11]
	b	.LBB10_3
.Ltmp126:
.LBB10_2:
	.loc	3 743 36                        @ ../Middlewares/ST/STM32_USB_Device_Library/Class/CDC/Src/usbd_cdc.c:743:36
	ldr	r0, [sp]
	.loc	3 743 3 is_stmt 0               @ ../Middlewares/ST/STM32_USB_Device_Library/Class/CDC/Src/usbd_cdc.c:743:3
	ldr	r1, [sp, #4]
	.loc	3 743 25                        @ ../Middlewares/ST/STM32_USB_Device_Library/Class/CDC/Src/usbd_cdc.c:743:25
	ldr.w	r2, [r1, #724]
	.loc	3 743 9                         @ ../Middlewares/ST/STM32_USB_Device_Library/Class/CDC/Src/usbd_cdc.c:743:9
	add.w	r1, r1, r2, lsl #2
	.loc	3 743 34                        @ ../Middlewares/ST/STM32_USB_Device_Library/Class/CDC/Src/usbd_cdc.c:743:34
	str.w	r0, [r1, #708]
	movs	r0, #0
	.loc	3 745 3 is_stmt 1               @ ../Middlewares/ST/STM32_USB_Device_Library/Class/CDC/Src/usbd_cdc.c:745:3
	strb.w	r0, [sp, #11]
	b	.LBB10_3
.LBB10_3:
	.loc	3 746 1                         @ ../Middlewares/ST/STM32_USB_Device_Library/Class/CDC/Src/usbd_cdc.c:746:1
	ldrb.w	r0, [sp, #11]
	add	sp, #12
	bx	lr
.Ltmp127:
.Lfunc_end10:
	.size	USBD_CDC_RegisterInterface, .Lfunc_end10-USBD_CDC_RegisterInterface
	.cfi_endproc
	.cantunwind
	.fnend
                                        @ -- End function
	.section	.text.USBD_CDC_SetTxBuffer,"ax",%progbits
	.hidden	USBD_CDC_SetTxBuffer            @ -- Begin function USBD_CDC_SetTxBuffer
	.globl	USBD_CDC_SetTxBuffer
	.p2align	2
	.type	USBD_CDC_SetTxBuffer,%function
	.code	16                              @ @USBD_CDC_SetTxBuffer
	.thumb_func
USBD_CDC_SetTxBuffer:
.Lfunc_begin11:
	.loc	3 765 0                         @ ../Middlewares/ST/STM32_USB_Device_Library/Class/CDC/Src/usbd_cdc.c:765:0
	.fnstart
	.cfi_startproc
@ %bb.0:
	.pad	#20
	sub	sp, #20
	.cfi_def_cfa_offset 20
	str	r0, [sp, #12]
	str	r1, [sp, #8]
	str	r2, [sp, #4]
.Ltmp128:
	.loc	3 766 60 prologue_end           @ ../Middlewares/ST/STM32_USB_Device_Library/Class/CDC/Src/usbd_cdc.c:766:60
	ldr	r0, [sp, #12]
	.loc	3 766 88 is_stmt 0              @ ../Middlewares/ST/STM32_USB_Device_Library/Class/CDC/Src/usbd_cdc.c:766:88
	ldr.w	r1, [r0, #724]
	.loc	3 766 66                        @ ../Middlewares/ST/STM32_USB_Device_Library/Class/CDC/Src/usbd_cdc.c:766:66
	add.w	r0, r0, r1, lsl #2
	.loc	3 766 60                        @ ../Middlewares/ST/STM32_USB_Device_Library/Class/CDC/Src/usbd_cdc.c:766:60
	ldr.w	r0, [r0, #704]
	.loc	3 766 27                        @ ../Middlewares/ST/STM32_USB_Device_Library/Class/CDC/Src/usbd_cdc.c:766:27
	str	r0, [sp]
.Ltmp129:
	.loc	3 769 7 is_stmt 1               @ ../Middlewares/ST/STM32_USB_Device_Library/Class/CDC/Src/usbd_cdc.c:769:7
	ldr	r0, [sp]
.Ltmp130:
	.loc	3 769 7 is_stmt 0               @ ../Middlewares/ST/STM32_USB_Device_Library/Class/CDC/Src/usbd_cdc.c:769:7
	cbnz	r0, .LBB11_2
	b	.LBB11_1
.LBB11_1:
	.loc	3 0 7                           @ ../Middlewares/ST/STM32_USB_Device_Library/Class/CDC/Src/usbd_cdc.c:0:7
	movs	r0, #3
.Ltmp131:
	.loc	3 771 5 is_stmt 1               @ ../Middlewares/ST/STM32_USB_Device_Library/Class/CDC/Src/usbd_cdc.c:771:5
	strb.w	r0, [sp, #19]
	b	.LBB11_3
.Ltmp132:
.LBB11_2:
	.loc	3 774 20                        @ ../Middlewares/ST/STM32_USB_Device_Library/Class/CDC/Src/usbd_cdc.c:774:20
	ldr	r0, [sp, #8]
	.loc	3 774 3 is_stmt 0               @ ../Middlewares/ST/STM32_USB_Device_Library/Class/CDC/Src/usbd_cdc.c:774:3
	ldr	r1, [sp]
	.loc	3 774 18                        @ ../Middlewares/ST/STM32_USB_Device_Library/Class/CDC/Src/usbd_cdc.c:774:18
	str.w	r0, [r1, #520]
	.loc	3 775 20 is_stmt 1              @ ../Middlewares/ST/STM32_USB_Device_Library/Class/CDC/Src/usbd_cdc.c:775:20
	ldr	r0, [sp, #4]
	.loc	3 775 3 is_stmt 0               @ ../Middlewares/ST/STM32_USB_Device_Library/Class/CDC/Src/usbd_cdc.c:775:3
	ldr	r1, [sp]
	.loc	3 775 18                        @ ../Middlewares/ST/STM32_USB_Device_Library/Class/CDC/Src/usbd_cdc.c:775:18
	str.w	r0, [r1, #528]
	movs	r0, #0
	.loc	3 777 3 is_stmt 1               @ ../Middlewares/ST/STM32_USB_Device_Library/Class/CDC/Src/usbd_cdc.c:777:3
	strb.w	r0, [sp, #19]
	b	.LBB11_3
.LBB11_3:
	.loc	3 778 1                         @ ../Middlewares/ST/STM32_USB_Device_Library/Class/CDC/Src/usbd_cdc.c:778:1
	ldrb.w	r0, [sp, #19]
	add	sp, #20
	bx	lr
.Ltmp133:
.Lfunc_end11:
	.size	USBD_CDC_SetTxBuffer, .Lfunc_end11-USBD_CDC_SetTxBuffer
	.cfi_endproc
	.cantunwind
	.fnend
                                        @ -- End function
	.section	.text.USBD_CDC_SetRxBuffer,"ax",%progbits
	.hidden	USBD_CDC_SetRxBuffer            @ -- Begin function USBD_CDC_SetRxBuffer
	.globl	USBD_CDC_SetRxBuffer
	.p2align	2
	.type	USBD_CDC_SetRxBuffer,%function
	.code	16                              @ @USBD_CDC_SetRxBuffer
	.thumb_func
USBD_CDC_SetRxBuffer:
.Lfunc_begin12:
	.loc	3 787 0                         @ ../Middlewares/ST/STM32_USB_Device_Library/Class/CDC/Src/usbd_cdc.c:787:0
	.fnstart
	.cfi_startproc
@ %bb.0:
	.pad	#16
	sub	sp, #16
	.cfi_def_cfa_offset 16
	str	r0, [sp, #8]
	str	r1, [sp, #4]
.Ltmp134:
	.loc	3 788 60 prologue_end           @ ../Middlewares/ST/STM32_USB_Device_Library/Class/CDC/Src/usbd_cdc.c:788:60
	ldr	r0, [sp, #8]
	.loc	3 788 88 is_stmt 0              @ ../Middlewares/ST/STM32_USB_Device_Library/Class/CDC/Src/usbd_cdc.c:788:88
	ldr.w	r1, [r0, #724]
	.loc	3 788 66                        @ ../Middlewares/ST/STM32_USB_Device_Library/Class/CDC/Src/usbd_cdc.c:788:66
	add.w	r0, r0, r1, lsl #2
	.loc	3 788 60                        @ ../Middlewares/ST/STM32_USB_Device_Library/Class/CDC/Src/usbd_cdc.c:788:60
	ldr.w	r0, [r0, #704]
	.loc	3 788 27                        @ ../Middlewares/ST/STM32_USB_Device_Library/Class/CDC/Src/usbd_cdc.c:788:27
	str	r0, [sp]
.Ltmp135:
	.loc	3 790 7 is_stmt 1               @ ../Middlewares/ST/STM32_USB_Device_Library/Class/CDC/Src/usbd_cdc.c:790:7
	ldr	r0, [sp]
.Ltmp136:
	.loc	3 790 7 is_stmt 0               @ ../Middlewares/ST/STM32_USB_Device_Library/Class/CDC/Src/usbd_cdc.c:790:7
	cbnz	r0, .LBB12_2
	b	.LBB12_1
.LBB12_1:
	.loc	3 0 7                           @ ../Middlewares/ST/STM32_USB_Device_Library/Class/CDC/Src/usbd_cdc.c:0:7
	movs	r0, #3
.Ltmp137:
	.loc	3 792 5 is_stmt 1               @ ../Middlewares/ST/STM32_USB_Device_Library/Class/CDC/Src/usbd_cdc.c:792:5
	strb.w	r0, [sp, #15]
	b	.LBB12_3
.Ltmp138:
.LBB12_2:
	.loc	3 795 20                        @ ../Middlewares/ST/STM32_USB_Device_Library/Class/CDC/Src/usbd_cdc.c:795:20
	ldr	r0, [sp, #4]
	.loc	3 795 3 is_stmt 0               @ ../Middlewares/ST/STM32_USB_Device_Library/Class/CDC/Src/usbd_cdc.c:795:3
	ldr	r1, [sp]
	.loc	3 795 18                        @ ../Middlewares/ST/STM32_USB_Device_Library/Class/CDC/Src/usbd_cdc.c:795:18
	str.w	r0, [r1, #516]
	movs	r0, #0
	.loc	3 797 3 is_stmt 1               @ ../Middlewares/ST/STM32_USB_Device_Library/Class/CDC/Src/usbd_cdc.c:797:3
	strb.w	r0, [sp, #15]
	b	.LBB12_3
.LBB12_3:
	.loc	3 798 1                         @ ../Middlewares/ST/STM32_USB_Device_Library/Class/CDC/Src/usbd_cdc.c:798:1
	ldrb.w	r0, [sp, #15]
	add	sp, #16
	bx	lr
.Ltmp139:
.Lfunc_end12:
	.size	USBD_CDC_SetRxBuffer, .Lfunc_end12-USBD_CDC_SetRxBuffer
	.cfi_endproc
	.cantunwind
	.fnend
                                        @ -- End function
	.section	.text.USBD_CDC_TransmitPacket,"ax",%progbits
	.hidden	USBD_CDC_TransmitPacket         @ -- Begin function USBD_CDC_TransmitPacket
	.globl	USBD_CDC_TransmitPacket
	.p2align	2
	.type	USBD_CDC_TransmitPacket,%function
	.code	16                              @ @USBD_CDC_TransmitPacket
	.thumb_func
USBD_CDC_TransmitPacket:
.Lfunc_begin13:
	.loc	3 814 0                         @ ../Middlewares/ST/STM32_USB_Device_Library/Class/CDC/Src/usbd_cdc.c:814:0
	.fnstart
	.cfi_startproc
@ %bb.0:
	.save	{r7, lr}
	push	{r7, lr}
	.cfi_def_cfa_offset 8
	.cfi_offset lr, -4
	.cfi_offset r7, -8
	.pad	#16
	sub	sp, #16
	.cfi_def_cfa_offset 24
	str	r0, [sp, #8]
.Ltmp140:
	.loc	3 815 60 prologue_end           @ ../Middlewares/ST/STM32_USB_Device_Library/Class/CDC/Src/usbd_cdc.c:815:60
	ldr	r0, [sp, #8]
	.loc	3 815 88 is_stmt 0              @ ../Middlewares/ST/STM32_USB_Device_Library/Class/CDC/Src/usbd_cdc.c:815:88
	ldr.w	r1, [r0, #724]
	.loc	3 815 66                        @ ../Middlewares/ST/STM32_USB_Device_Library/Class/CDC/Src/usbd_cdc.c:815:66
	add.w	r0, r0, r1, lsl #2
	.loc	3 815 60                        @ ../Middlewares/ST/STM32_USB_Device_Library/Class/CDC/Src/usbd_cdc.c:815:60
	ldr.w	r0, [r0, #704]
	.loc	3 815 27                        @ ../Middlewares/ST/STM32_USB_Device_Library/Class/CDC/Src/usbd_cdc.c:815:27
	str	r0, [sp, #4]
	movs	r0, #1
	.loc	3 818 22 is_stmt 1              @ ../Middlewares/ST/STM32_USB_Device_Library/Class/CDC/Src/usbd_cdc.c:818:22
	strb.w	r0, [sp, #3]
.Ltmp141:
	.loc	3 825 7                         @ ../Middlewares/ST/STM32_USB_Device_Library/Class/CDC/Src/usbd_cdc.c:825:7
	ldr	r0, [sp, #4]
.Ltmp142:
	.loc	3 825 7 is_stmt 0               @ ../Middlewares/ST/STM32_USB_Device_Library/Class/CDC/Src/usbd_cdc.c:825:7
	cbnz	r0, .LBB13_2
	b	.LBB13_1
.LBB13_1:
	.loc	3 0 7                           @ ../Middlewares/ST/STM32_USB_Device_Library/Class/CDC/Src/usbd_cdc.c:0:7
	movs	r0, #3
.Ltmp143:
	.loc	3 827 5 is_stmt 1               @ ../Middlewares/ST/STM32_USB_Device_Library/Class/CDC/Src/usbd_cdc.c:827:5
	strb.w	r0, [sp, #15]
	b	.LBB13_5
.Ltmp144:
.LBB13_2:
	.loc	3 830 7                         @ ../Middlewares/ST/STM32_USB_Device_Library/Class/CDC/Src/usbd_cdc.c:830:7
	ldr	r0, [sp, #4]
	.loc	3 830 13 is_stmt 0              @ ../Middlewares/ST/STM32_USB_Device_Library/Class/CDC/Src/usbd_cdc.c:830:13
	ldr.w	r0, [r0, #532]
.Ltmp145:
	.loc	3 830 7                         @ ../Middlewares/ST/STM32_USB_Device_Library/Class/CDC/Src/usbd_cdc.c:830:7
	cbnz	r0, .LBB13_4
	b	.LBB13_3
.LBB13_3:
.Ltmp146:
	.loc	3 833 5 is_stmt 1               @ ../Middlewares/ST/STM32_USB_Device_Library/Class/CDC/Src/usbd_cdc.c:833:5
	ldr	r1, [sp, #4]
	movs	r0, #1
	.loc	3 833 19 is_stmt 0              @ ../Middlewares/ST/STM32_USB_Device_Library/Class/CDC/Src/usbd_cdc.c:833:19
	str.w	r0, [r1, #532]
	.loc	3 836 51 is_stmt 1              @ ../Middlewares/ST/STM32_USB_Device_Library/Class/CDC/Src/usbd_cdc.c:836:51
	ldr	r0, [sp, #4]
	.loc	3 836 57 is_stmt 0              @ ../Middlewares/ST/STM32_USB_Device_Library/Class/CDC/Src/usbd_cdc.c:836:57
	ldr.w	r0, [r0, #528]
	.loc	3 836 5                         @ ../Middlewares/ST/STM32_USB_Device_Library/Class/CDC/Src/usbd_cdc.c:836:5
	ldr	r2, [sp, #8]
	.loc	3 836 17                        @ ../Middlewares/ST/STM32_USB_Device_Library/Class/CDC/Src/usbd_cdc.c:836:17
	movw	r1, :lower16:CDCInEpAdd
	movt	r1, :upper16:CDCInEpAdd
	ldrb	r3, [r1]
	.loc	3 836 28                        @ ../Middlewares/ST/STM32_USB_Device_Library/Class/CDC/Src/usbd_cdc.c:836:28
	and	r3, r3, #15
	.loc	3 836 5                         @ ../Middlewares/ST/STM32_USB_Device_Library/Class/CDC/Src/usbd_cdc.c:836:5
	add.w	r3, r3, r3, lsl #2
	.loc	3 836 11                        @ ../Middlewares/ST/STM32_USB_Device_Library/Class/CDC/Src/usbd_cdc.c:836:11
	add.w	r2, r2, r3, lsl #2
	.loc	3 836 49                        @ ../Middlewares/ST/STM32_USB_Device_Library/Class/CDC/Src/usbd_cdc.c:836:49
	str	r0, [r2, #20]
	.loc	3 839 28 is_stmt 1              @ ../Middlewares/ST/STM32_USB_Device_Library/Class/CDC/Src/usbd_cdc.c:839:28
	ldr	r0, [sp, #8]
	.loc	3 839 34 is_stmt 0              @ ../Middlewares/ST/STM32_USB_Device_Library/Class/CDC/Src/usbd_cdc.c:839:34
	ldrb	r1, [r1]
	.loc	3 839 46                        @ ../Middlewares/ST/STM32_USB_Device_Library/Class/CDC/Src/usbd_cdc.c:839:46
	ldr	r3, [sp, #4]
	.loc	3 839 52                        @ ../Middlewares/ST/STM32_USB_Device_Library/Class/CDC/Src/usbd_cdc.c:839:52
	ldr.w	r2, [r3, #520]
	.loc	3 839 68                        @ ../Middlewares/ST/STM32_USB_Device_Library/Class/CDC/Src/usbd_cdc.c:839:68
	ldr.w	r3, [r3, #528]
	.loc	3 839 11                        @ ../Middlewares/ST/STM32_USB_Device_Library/Class/CDC/Src/usbd_cdc.c:839:11
	bl	USBD_LL_Transmit
	movs	r0, #0
	.loc	3 841 9 is_stmt 1               @ ../Middlewares/ST/STM32_USB_Device_Library/Class/CDC/Src/usbd_cdc.c:841:9
	strb.w	r0, [sp, #3]
	.loc	3 842 3                         @ ../Middlewares/ST/STM32_USB_Device_Library/Class/CDC/Src/usbd_cdc.c:842:3
	b	.LBB13_4
.Ltmp147:
.LBB13_4:
	.loc	3 844 19                        @ ../Middlewares/ST/STM32_USB_Device_Library/Class/CDC/Src/usbd_cdc.c:844:19
	ldrb.w	r0, [sp, #3]
	.loc	3 844 3 is_stmt 0               @ ../Middlewares/ST/STM32_USB_Device_Library/Class/CDC/Src/usbd_cdc.c:844:3
	strb.w	r0, [sp, #15]
	b	.LBB13_5
.LBB13_5:
	.loc	3 845 1 is_stmt 1               @ ../Middlewares/ST/STM32_USB_Device_Library/Class/CDC/Src/usbd_cdc.c:845:1
	ldrb.w	r0, [sp, #15]
	add	sp, #16
	pop	{r7, pc}
.Ltmp148:
.Lfunc_end13:
	.size	USBD_CDC_TransmitPacket, .Lfunc_end13-USBD_CDC_TransmitPacket
	.cfi_endproc
	.cantunwind
	.fnend
                                        @ -- End function
	.section	.text.USBD_CDC_ReceivePacket,"ax",%progbits
	.hidden	USBD_CDC_ReceivePacket          @ -- Begin function USBD_CDC_ReceivePacket
	.globl	USBD_CDC_ReceivePacket
	.p2align	2
	.type	USBD_CDC_ReceivePacket,%function
	.code	16                              @ @USBD_CDC_ReceivePacket
	.thumb_func
USBD_CDC_ReceivePacket:
.Lfunc_begin14:
	.loc	3 854 0                         @ ../Middlewares/ST/STM32_USB_Device_Library/Class/CDC/Src/usbd_cdc.c:854:0
	.fnstart
	.cfi_startproc
@ %bb.0:
	.save	{r7, lr}
	push	{r7, lr}
	.cfi_def_cfa_offset 8
	.cfi_offset lr, -4
	.cfi_offset r7, -8
	.pad	#16
	sub	sp, #16
	.cfi_def_cfa_offset 24
	str	r0, [sp, #8]
.Ltmp149:
	.loc	3 855 60 prologue_end           @ ../Middlewares/ST/STM32_USB_Device_Library/Class/CDC/Src/usbd_cdc.c:855:60
	ldr	r0, [sp, #8]
	.loc	3 855 88 is_stmt 0              @ ../Middlewares/ST/STM32_USB_Device_Library/Class/CDC/Src/usbd_cdc.c:855:88
	ldr.w	r1, [r0, #724]
	.loc	3 855 66                        @ ../Middlewares/ST/STM32_USB_Device_Library/Class/CDC/Src/usbd_cdc.c:855:66
	add.w	r0, r0, r1, lsl #2
	.loc	3 855 60                        @ ../Middlewares/ST/STM32_USB_Device_Library/Class/CDC/Src/usbd_cdc.c:855:60
	ldr.w	r0, [r0, #704]
	.loc	3 855 27                        @ ../Middlewares/ST/STM32_USB_Device_Library/Class/CDC/Src/usbd_cdc.c:855:27
	str	r0, [sp, #4]
.Ltmp150:
	.loc	3 862 7 is_stmt 1               @ ../Middlewares/ST/STM32_USB_Device_Library/Class/CDC/Src/usbd_cdc.c:862:7
	ldr	r0, [sp, #8]
	.loc	3 862 35 is_stmt 0              @ ../Middlewares/ST/STM32_USB_Device_Library/Class/CDC/Src/usbd_cdc.c:862:35
	ldr.w	r1, [r0, #724]
	.loc	3 862 13                        @ ../Middlewares/ST/STM32_USB_Device_Library/Class/CDC/Src/usbd_cdc.c:862:13
	add.w	r0, r0, r1, lsl #2
	.loc	3 862 7                         @ ../Middlewares/ST/STM32_USB_Device_Library/Class/CDC/Src/usbd_cdc.c:862:7
	ldr.w	r0, [r0, #704]
.Ltmp151:
	.loc	3 862 7                         @ ../Middlewares/ST/STM32_USB_Device_Library/Class/CDC/Src/usbd_cdc.c:862:7
	cbnz	r0, .LBB14_2
	b	.LBB14_1
.LBB14_1:
	.loc	3 0 7                           @ ../Middlewares/ST/STM32_USB_Device_Library/Class/CDC/Src/usbd_cdc.c:0:7
	movs	r0, #3
.Ltmp152:
	.loc	3 864 5 is_stmt 1               @ ../Middlewares/ST/STM32_USB_Device_Library/Class/CDC/Src/usbd_cdc.c:864:5
	strb.w	r0, [sp, #15]
	b	.LBB14_6
.Ltmp153:
.LBB14_2:
	.loc	3 867 7                         @ ../Middlewares/ST/STM32_USB_Device_Library/Class/CDC/Src/usbd_cdc.c:867:7
	ldr	r0, [sp, #8]
	.loc	3 867 13 is_stmt 0              @ ../Middlewares/ST/STM32_USB_Device_Library/Class/CDC/Src/usbd_cdc.c:867:13
	ldrb	r0, [r0, #16]
.Ltmp154:
	.loc	3 867 7                         @ ../Middlewares/ST/STM32_USB_Device_Library/Class/CDC/Src/usbd_cdc.c:867:7
	cbnz	r0, .LBB14_4
	b	.LBB14_3
.LBB14_3:
.Ltmp155:
	.loc	3 870 34 is_stmt 1              @ ../Middlewares/ST/STM32_USB_Device_Library/Class/CDC/Src/usbd_cdc.c:870:34
	ldr	r0, [sp, #8]
	.loc	3 870 40 is_stmt 0              @ ../Middlewares/ST/STM32_USB_Device_Library/Class/CDC/Src/usbd_cdc.c:870:40
	movw	r1, :lower16:CDCOutEpAdd
	movt	r1, :upper16:CDCOutEpAdd
	ldrb	r1, [r1]
	.loc	3 870 53                        @ ../Middlewares/ST/STM32_USB_Device_Library/Class/CDC/Src/usbd_cdc.c:870:53
	ldr	r2, [sp, #4]
	.loc	3 870 59                        @ ../Middlewares/ST/STM32_USB_Device_Library/Class/CDC/Src/usbd_cdc.c:870:59
	ldr.w	r2, [r2, #516]
	mov.w	r3, #512
	.loc	3 870 11                        @ ../Middlewares/ST/STM32_USB_Device_Library/Class/CDC/Src/usbd_cdc.c:870:11
	bl	USBD_LL_PrepareReceive
	.loc	3 872 3 is_stmt 1               @ ../Middlewares/ST/STM32_USB_Device_Library/Class/CDC/Src/usbd_cdc.c:872:3
	b	.LBB14_5
.Ltmp156:
.LBB14_4:
	.loc	3 876 34                        @ ../Middlewares/ST/STM32_USB_Device_Library/Class/CDC/Src/usbd_cdc.c:876:34
	ldr	r0, [sp, #8]
	.loc	3 876 40 is_stmt 0              @ ../Middlewares/ST/STM32_USB_Device_Library/Class/CDC/Src/usbd_cdc.c:876:40
	movw	r1, :lower16:CDCOutEpAdd
	movt	r1, :upper16:CDCOutEpAdd
	ldrb	r1, [r1]
	.loc	3 876 53                        @ ../Middlewares/ST/STM32_USB_Device_Library/Class/CDC/Src/usbd_cdc.c:876:53
	ldr	r2, [sp, #4]
	.loc	3 876 59                        @ ../Middlewares/ST/STM32_USB_Device_Library/Class/CDC/Src/usbd_cdc.c:876:59
	ldr.w	r2, [r2, #516]
	movs	r3, #64
	.loc	3 876 11                        @ ../Middlewares/ST/STM32_USB_Device_Library/Class/CDC/Src/usbd_cdc.c:876:11
	bl	USBD_LL_PrepareReceive
	b	.LBB14_5
.Ltmp157:
.LBB14_5:
	.loc	3 0 11                          @ ../Middlewares/ST/STM32_USB_Device_Library/Class/CDC/Src/usbd_cdc.c:0:11
	movs	r0, #0
	.loc	3 880 3 is_stmt 1               @ ../Middlewares/ST/STM32_USB_Device_Library/Class/CDC/Src/usbd_cdc.c:880:3
	strb.w	r0, [sp, #15]
	b	.LBB14_6
.LBB14_6:
	.loc	3 881 1                         @ ../Middlewares/ST/STM32_USB_Device_Library/Class/CDC/Src/usbd_cdc.c:881:1
	ldrb.w	r0, [sp, #15]
	add	sp, #16
	pop	{r7, pc}
.Ltmp158:
.Lfunc_end14:
	.size	USBD_CDC_ReceivePacket, .Lfunc_end14-USBD_CDC_ReceivePacket
	.cfi_endproc
	.cantunwind
	.fnend
                                        @ -- End function
	.hidden	USBD_CDC                        @ @USBD_CDC
	.type	USBD_CDC,%object
	.section	.data.USBD_CDC,"aw",%progbits
	.globl	USBD_CDC
	.p2align	2
USBD_CDC:
	.long	USBD_CDC_Init
	.long	USBD_CDC_DeInit
	.long	USBD_CDC_Setup
	.long	0
	.long	USBD_CDC_EP0_RxReady
	.long	USBD_CDC_DataIn
	.long	USBD_CDC_DataOut
	.long	0
	.long	0
	.long	0
	.long	USBD_CDC_GetHSCfgDesc
	.long	USBD_CDC_GetFSCfgDesc
	.long	USBD_CDC_GetOtherSpeedCfgDesc
	.long	USBD_CDC_GetDeviceQualifierDescriptor
	.size	USBD_CDC, 56

	.type	USBD_CDC_DeviceQualifierDesc,%object @ @USBD_CDC_DeviceQualifierDesc
	.section	.data.USBD_CDC_DeviceQualifierDesc,"aw",%progbits
	.p2align	2
USBD_CDC_DeviceQualifierDesc:
	.asciz	"\n\006\000\002\000\000\000@\001"
	.size	USBD_CDC_DeviceQualifierDesc, 10

	.type	CDCInEpAdd,%object              @ @CDCInEpAdd
	.section	.data.CDCInEpAdd,"aw",%progbits
CDCInEpAdd:
	.byte	129                             @ 0x81
	.size	CDCInEpAdd, 1

	.type	CDCOutEpAdd,%object             @ @CDCOutEpAdd
	.section	.data.CDCOutEpAdd,"aw",%progbits
CDCOutEpAdd:
	.byte	1                               @ 0x1
	.size	CDCOutEpAdd, 1

	.type	CDCCmdEpAdd,%object             @ @CDCCmdEpAdd
	.section	.data.CDCCmdEpAdd,"aw",%progbits
CDCCmdEpAdd:
	.byte	130                             @ 0x82
	.size	CDCCmdEpAdd, 1

	.type	USBD_CDC_CfgDesc,%object        @ @USBD_CDC_CfgDesc
	.section	.data.USBD_CDC_CfgDesc,"aw",%progbits
	.p2align	2
USBD_CDC_CfgDesc:
	.asciz	"\t\002C\000\002\001\000\3002\t\004\000\000\001\002\002\001\000\005$\000\020\001\005$\001\000\001\004$\002\002\005$\006\000\001\007\005\202\003\b\000\020\t\004\001\000\002\n\000\000\000\007\005\001\002@\000\000\007\005\201\002@\000"
	.size	USBD_CDC_CfgDesc, 67

	.section	".note.GNU-stack","",%progbits
	.eabi_attribute	30, 6	@ Tag_ABI_optimization_goals
	.ARM_attribute	16, 1	@ Tag_AV_eba