	.text
	.syntax unified
	.eabi_attribute	67, "2.09"	@ Tag_conformance
	.cpu	cortex-m4
	.eabi_attribute	6, 13	@ Tag_CPU_arch
	.eabi_attribute	7, 77	@ Tag_CPU_arch_profile
	.eabi_attribute	8, 0	@ Tag_ARM_ISA_use
	.eabi_attribute	9, 2	@ Tag_THUMB_ISA_use
	.fpu	fpv4-sp-d16
	.eabi_attribute	27, 1	@ Tag_ABI_HardFP_use
	.eabi_attribute	36, 1	@ Tag_FP_HP_extension
	.eabi_attribute	34, 1	@ Tag_CPU_unaligned_access
	.eabi_attribute	17, 1	@ Tag_ABI_PCS_GOT_use
	.eabi_attribute	20, 2	@ Tag_ABI_FP_denormal
	.eabi_attribute	21, 0	@ Tag_ABI_FP_exceptions
	.eabi_attribute	23, 3	@ Tag_ABI_FP_number_model
	.eabi_attribute	24, 1	@ Tag_ABI_align_needed
	.eabi_attribute	25, 1	@ Tag_ABI_align_preserved
	.eabi_attribute	28, 1	@ Tag_ABI_VFP_args
	.eabi_attribute	38, 1	@ Tag_ABI_FP_16bit_format
	.eabi_attribute	18, 2	@ Tag_ABI_PCS_wchar_t
	.eabi_attribute	26, 1	@ Tag_ABI_enum_size
	.eabi_attribute	14, 0	@ Tag_ABI_PCS_R9_use
	.file	"Vision.c"
	.file	1 "D:\\" "kevil\\ARM\\ARMCLANG\\Bin\\..\\include\\stdint.h"
	.file	2 "D:\\horizon\\Horizon_Infantry (2)\\MDK-ARM" "../User/Bsp/inc\\Vision.h"
	.file	3 "D:\\horizon\\Horizon_Infantry (2)\\MDK-ARM" "../User/Bsp/Vision.c"
	.section	.text.Vision_Rx_Data,"ax",%progbits
	.hidden	Vision_Rx_Data                  @ -- Begin function Vision_Rx_Data
	.globl	Vision_Rx_Data
	.p2align	2
	.type	Vision_Rx_Data,%function
	.code	16                              @ @Vision_Rx_Data
	.thumb_func
Vision_Rx_Data:
.Lfunc_begin0:
	.loc	3 5 0                           @ ../User/Bsp/Vision.c:5:0
	.fnstart
	.cfi_sections .debug_frame
	.cfi_startproc
@ %bb.0:
	.pad	#20
	sub	sp, #20
	.cfi_def_cfa_offset 20
	str	r0, [sp, #12]
	str	r1, [sp, #8]
	movs	r0, #0
.Ltmp0:
	.loc	3 7 13 prologue_end             @ ../User/Bsp/Vision.c:7:13
	strb.w	r0, [sp, #3]
	.loc	3 9 28                          @ ../User/Bsp/Vision.c:9:28
	ldr	r0, [sp, #12]
	ldrb	r0, [r0]
	.loc	3 9 5 is_stmt 0                 @ ../User/Bsp/Vision.c:9:5
	ldr	r1, [sp, #8]
	.loc	3 9 26                          @ ../User/Bsp/Vision.c:9:26
	strb	r0, [r1, #20]
.Ltmp1:
	.loc	3 10 9 is_stmt 1                @ ../User/Bsp/Vision.c:10:9
	ldr	r0, [sp, #8]
	.loc	3 10 19 is_stmt 0               @ ../User/Bsp/Vision.c:10:19
	ldrb	r0, [r0, #20]
.Ltmp2:
	.loc	3 10 9                          @ ../User/Bsp/Vision.c:10:9
	cmp	r0, #205
	beq	.LBB0_2
	b	.LBB0_1
.LBB0_1:
	.loc	3 0 9                           @ ../User/Bsp/Vision.c:0:9
	movs	r0, #255
.Ltmp3:
	.loc	3 12 9 is_stmt 1                @ ../User/Bsp/Vision.c:12:9
	strb.w	r0, [sp, #19]
	b	.LBB0_5
.Ltmp4:
.LBB0_2:
	.loc	3 15 26                         @ ../User/Bsp/Vision.c:15:26
	ldr	r0, [sp, #12]
	ldrb	r0, [r0, #1]
	.loc	3 15 24 is_stmt 0               @ ../User/Bsp/Vision.c:15:24
	strb.w	r0, [sp, #4]
	.loc	3 16 26 is_stmt 1               @ ../User/Bsp/Vision.c:16:26
	ldr	r0, [sp, #12]
	ldrb	r0, [r0, #2]
	.loc	3 16 24 is_stmt 0               @ ../User/Bsp/Vision.c:16:24
	strb.w	r0, [sp, #5]
	.loc	3 17 26 is_stmt 1               @ ../User/Bsp/Vision.c:17:26
	ldr	r0, [sp, #12]
	ldrb	r0, [r0, #3]
	.loc	3 17 24 is_stmt 0               @ ../User/Bsp/Vision.c:17:24
	strb.w	r0, [sp, #6]
	.loc	3 18 26 is_stmt 1               @ ../User/Bsp/Vision.c:18:26
	ldr	r0, [sp, #12]
	ldrb	r0, [r0, #4]
	.loc	3 18 24 is_stmt 0               @ ../User/Bsp/Vision.c:18:24
	strb.w	r0, [sp, #7]
	.loc	3 19 39 is_stmt 1               @ ../User/Bsp/Vision.c:19:39
	ldr	r0, [sp, #4]
	.loc	3 19 5 is_stmt 0                @ ../User/Bsp/Vision.c:19:5
	ldr	r1, [sp, #8]
	.loc	3 19 26                         @ ../User/Bsp/Vision.c:19:26
	str	r0, [r1, #24]
	.loc	3 21 26 is_stmt 1               @ ../User/Bsp/Vision.c:21:26
	ldr	r0, [sp, #12]
	ldrb	r0, [r0, #5]
	.loc	3 21 24 is_stmt 0               @ ../User/Bsp/Vision.c:21:24
	strb.w	r0, [sp, #4]
	.loc	3 22 26 is_stmt 1               @ ../User/Bsp/Vision.c:22:26
	ldr	r0, [sp, #12]
	ldrb	r0, [r0, #6]
	.loc	3 22 24 is_stmt 0               @ ../User/Bsp/Vision.c:22:24
	strb.w	r0, [sp, #5]
	.loc	3 23 26 is_stmt 1               @ ../User/Bsp/Vision.c:23:26
	ldr	r0, [sp, #12]
	ldrb	r0, [r0, #7]
	.loc	3 23 24 is_stmt 0               @ ../User/Bsp/Vision.c:23:24
	strb.w	r0, [sp, #6]
	.loc	3 24 26 is_stmt 1               @ ../User/Bsp/Vision.c:24:26
	ldr	r0, [sp, #12]
	ldrb	r0, [r0, #8]
	.loc	3 24 24 is_stmt 0               @ ../User/Bsp/Vision.c:24:24
	strb.w	r0, [sp, #7]
	.loc	3 25 37 is_stmt 1               @ ../User/Bsp/Vision.c:25:37
	ldr	r0, [sp, #4]
	.loc	3 25 5 is_stmt 0                @ ../User/Bsp/Vision.c:25:5
	ldr	r1, [sp, #8]
	.loc	3 25 24                         @ ../User/Bsp/Vision.c:25:24
	str	r0, [r1, #28]
	.loc	3 27 29 is_stmt 1               @ ../User/Bsp/Vision.c:27:29
	ldr	r0, [sp, #12]
	ldrb	r0, [r0, #9]
	and	r2, r0, #7
	.loc	3 27 5 is_stmt 0                @ ../User/Bsp/Vision.c:27:5
	ldr	r1, [sp, #8]
	.loc	3 27 27                         @ ../User/Bsp/Vision.c:27:27
	ldrb.w	r0, [r1, #52]
	and	r0, r0, #248
	add	r0, r2
	strb.w	r0, [r1, #52]
	.loc	3 28 28 is_stmt 1               @ ../User/Bsp/Vision.c:28:28
	ldr	r0, [sp, #12]
	ldrb	r0, [r0, #9]
	.loc	3 28 27 is_stmt 0               @ ../User/Bsp/Vision.c:28:27
	and	r2, r0, #8
	.loc	3 28 5                          @ ../User/Bsp/Vision.c:28:5
	ldr	r1, [sp, #8]
	.loc	3 28 25                         @ ../User/Bsp/Vision.c:28:25
	ldrb.w	r0, [r1, #52]
	and	r0, r0, #247
	add	r0, r2
	strb.w	r0, [r1, #52]
	.loc	3 29 25 is_stmt 1               @ ../User/Bsp/Vision.c:29:25
	ldr	r0, [sp, #12]
	ldrb	r0, [r0, #9]
	.loc	3 29 24 is_stmt 0               @ ../User/Bsp/Vision.c:29:24
	and	r2, r0, #16
	.loc	3 29 5                          @ ../User/Bsp/Vision.c:29:5
	ldr	r1, [sp, #8]
	.loc	3 29 22                         @ ../User/Bsp/Vision.c:29:22
	ldrb.w	r0, [r1, #52]
	and	r0, r0, #239
	add	r0, r2
	strb.w	r0, [r1, #52]
	.loc	3 31 24 is_stmt 1               @ ../User/Bsp/Vision.c:31:24
	ldr	r0, [sp, #12]
	ldrb	r0, [r0, #10]
	.loc	3 31 23 is_stmt 0               @ ../User/Bsp/Vision.c:31:23
	strb.w	r0, [sp, #4]
	.loc	3 32 22 is_stmt 1               @ ../User/Bsp/Vision.c:32:22
	ldr	r0, [sp, #12]
	ldrb	r0, [r0, #11]
	.loc	3 32 21 is_stmt 0               @ ../User/Bsp/Vision.c:32:21
	strb.w	r0, [sp, #5]
	.loc	3 33 22 is_stmt 1               @ ../User/Bsp/Vision.c:33:22
	ldr	r0, [sp, #12]
	ldrb	r0, [r0, #12]
	.loc	3 33 21 is_stmt 0               @ ../User/Bsp/Vision.c:33:21
	strb.w	r0, [sp, #6]
	.loc	3 34 22 is_stmt 1               @ ../User/Bsp/Vision.c:34:22
	ldr	r0, [sp, #12]
	ldrb	r0, [r0, #13]
	.loc	3 34 21 is_stmt 0               @ ../User/Bsp/Vision.c:34:21
	strb.w	r0, [sp, #7]
	.loc	3 36 38 is_stmt 1               @ ../User/Bsp/Vision.c:36:38
	ldr	r0, [sp, #4]
	.loc	3 36 5 is_stmt 0                @ ../User/Bsp/Vision.c:36:5
	ldr	r1, [sp, #8]
	.loc	3 36 25                         @ ../User/Bsp/Vision.c:36:25
	str	r0, [r1, #60]
	.loc	3 38 22 is_stmt 1               @ ../User/Bsp/Vision.c:38:22
	ldr	r0, [sp, #12]
	ldrb	r0, [r0, #14]
	.loc	3 38 21 is_stmt 0               @ ../User/Bsp/Vision.c:38:21
	strb.w	r0, [sp, #4]
	.loc	3 39 22 is_stmt 1               @ ../User/Bsp/Vision.c:39:22
	ldr	r0, [sp, #12]
	ldrb	r0, [r0, #15]
	.loc	3 39 21 is_stmt 0               @ ../User/Bsp/Vision.c:39:21
	strb.w	r0, [sp, #5]
	.loc	3 40 22 is_stmt 1               @ ../User/Bsp/Vision.c:40:22
	ldr	r0, [sp, #12]
	ldrb	r0, [r0, #16]
	.loc	3 40 21 is_stmt 0               @ ../User/Bsp/Vision.c:40:21
	strb.w	r0, [sp, #6]
	.loc	3 41 22 is_stmt 1               @ ../User/Bsp/Vision.c:41:22
	ldr	r0, [sp, #12]
	ldrb	r0, [r0, #17]
	.loc	3 41 21 is_stmt 0               @ ../User/Bsp/Vision.c:41:21
	strb.w	r0, [sp, #7]
	.loc	3 43 36 is_stmt 1               @ ../User/Bsp/Vision.c:43:36
	ldr	r0, [sp, #4]
	.loc	3 43 5 is_stmt 0                @ ../User/Bsp/Vision.c:43:5
	ldr	r1, [sp, #8]
	.loc	3 43 23                         @ ../User/Bsp/Vision.c:43:23
	str	r0, [r1, #64]
	.loc	3 47 27 is_stmt 1               @ ../User/Bsp/Vision.c:47:27
	ldr	r0, [sp, #12]
	ldrb	r0, [r0, #18]
	.loc	3 47 5 is_stmt 0                @ ../User/Bsp/Vision.c:47:5
	ldr	r1, [sp, #8]
	.loc	3 47 25                         @ ../User/Bsp/Vision.c:47:25
	strb.w	r0, [r1, #56]
	.loc	3 48 5 is_stmt 1                @ ../User/Bsp/Vision.c:48:5
	ldr	r1, [sp, #8]
	movs	r0, #0
	.loc	3 48 26 is_stmt 0               @ ../User/Bsp/Vision.c:48:26
	strh	r0, [r1, #40]
.Ltmp5:
	.loc	3 54 9 is_stmt 1                @ ../User/Bsp/Vision.c:54:9
	ldr	r0, [sp, #8]
	.loc	3 54 19 is_stmt 0               @ ../User/Bsp/Vision.c:54:19
	ldrb.w	r0, [r0, #56]
.Ltmp6:
	.loc	3 54 9                          @ ../User/Bsp/Vision.c:54:9
	cmp	r0, #220
	beq	.LBB0_4
	b	.LBB0_3
.LBB0_3:
	.loc	3 0 9                           @ ../User/Bsp/Vision.c:0:9
	movs	r0, #254
.Ltmp7:
	.loc	3 56 9 is_stmt 1                @ ../User/Bsp/Vision.c:56:9
	strb.w	r0, [sp, #19]
	b	.LBB0_5
.Ltmp8:
.LBB0_4:
	.loc	3 0 9 is_stmt 0                 @ ../User/Bsp/Vision.c:0:9
	movs	r0, #0
	.loc	3 58 5 is_stmt 1                @ ../User/Bsp/Vision.c:58:5
	strb.w	r0, [sp, #19]
	b	.LBB0_5
.LBB0_5:
	.loc	3 59 1                          @ ../User/Bsp/Vision.c:59:1
	ldrsb.w	r0, [sp, #19]
	add	sp, #20
	bx	lr
.Ltmp9:
.Lfunc_end0:
	.size	Vision_Rx_Data, .Lfunc_end0-Vision_Rx_Data
	.cfi_endproc
	.cantunwind
	.fnend
                                        @ -- End function
	.section	.text.Vision_Tx_Data,"ax",%progbits
	.hidden	Vision_Tx_Data                  @ -- Begin function Vision_Tx_Data
	.globl	Vision_Tx_Data
	.p2align	2
	.type	Vision_Tx_Data,%function
	.code	16                              @ @Vision_Tx_Data
	.thumb_func
Vision_Tx_Data:
.Lfunc_begin1:
	.loc	3 62 0                          @ ../User/Bsp/Vision.c:62:0
	.fnstart
	.cfi_startproc
@ %bb.0:
	.save	{r7, lr}
	push	{r7, lr}
	.cfi_def_cfa_offset 8
	.cfi_offset lr, -4
	.cfi_offset r7, -8
	.pad	#32
	sub	sp, #32
	.cfi_def_cfa_offset 40
	add	r3, sp, #24
	str	r3, [sp]                        @ 4-byte Spill
	mov	r3, r1
	ldr	r1, [sp]                        @ 4-byte Reload
	str	r3, [sp, #4]                    @ 4-byte Spill
	mov	r3, r0
	ldr	r0, [sp, #4]                    @ 4-byte Reload
                                        @ kill: def $r12 killed $r2
                                        @ kill: def $r12 killed $r0
	vstr	s0, [r1, #4]
	vstr	s1, [r1]
	str	r3, [sp, #20]
	strb.w	r0, [sp, #19]
	strb.w	r2, [sp, #18]
	movs	r2, #0
.Ltmp10:
	.loc	3 65 13 prologue_end            @ ../User/Bsp/Vision.c:65:13
	strb.w	r2, [sp, #11]
	.loc	3 67 29                         @ ../User/Bsp/Vision.c:67:29
	movw	r0, :lower16:VisionTxData
	movt	r0, :upper16:VisionTxData
	movs	r3, #205
	strb	r3, [r0, #20]
	.loc	3 68 32                         @ ../User/Bsp/Vision.c:68:32
	vldr	s0, [r1, #4]
	.loc	3 68 31 is_stmt 0               @ ../User/Bsp/Vision.c:68:31
	vneg.f32	s0, s0
	.loc	3 68 29                         @ ../User/Bsp/Vision.c:68:29
	vstr	s0, [r0, #24]
	.loc	3 69 30 is_stmt 1               @ ../User/Bsp/Vision.c:69:30
	vldr	s0, [r1]
	.loc	3 69 29 is_stmt 0               @ ../User/Bsp/Vision.c:69:29
	vneg.f32	s0, s0
	.loc	3 69 27                         @ ../User/Bsp/Vision.c:69:27
	vstr	s0, [r0, #28]
	.loc	3 70 31 is_stmt 1               @ ../User/Bsp/Vision.c:70:31
	ldr	r1, [sp, #20]
	.loc	3 70 29 is_stmt 0               @ ../User/Bsp/Vision.c:70:29
	str	r1, [r0, #32]
	.loc	3 71 32 is_stmt 1               @ ../User/Bsp/Vision.c:71:32
	ldrb.w	r3, [sp, #19]
	.loc	3 71 30 is_stmt 0               @ ../User/Bsp/Vision.c:71:30
	ldrb.w	r1, [r0, #36]
	and	r3, r3, #7
	and	r1, r1, #248
	add	r1, r3
	strb.w	r1, [r0, #36]
	.loc	3 72 33 is_stmt 1               @ ../User/Bsp/Vision.c:72:33
	ldrb.w	r1, [sp, #18]
	.loc	3 72 31 is_stmt 0               @ ../User/Bsp/Vision.c:72:31
	strb.w	r1, [r0, #37]
	movs	r1, #220
	.loc	3 73 28 is_stmt 1               @ ../User/Bsp/Vision.c:73:28
	strb.w	r1, [r0, #38]
	.loc	3 76 41                         @ ../User/Bsp/Vision.c:76:41
	ldrb	r3, [r0, #20]
	.loc	3 76 26 is_stmt 0               @ ../User/Bsp/Vision.c:76:26
	strb	r3, [r0]
	.loc	3 78 38 is_stmt 1               @ ../User/Bsp/Vision.c:78:38
	ldr	r3, [r0, #24]
	.loc	3 78 23 is_stmt 0               @ ../User/Bsp/Vision.c:78:23
	str	r3, [sp, #12]
	.loc	3 79 28 is_stmt 1               @ ../User/Bsp/Vision.c:79:28
	ldrb.w	r3, [sp, #12]
	.loc	3 79 26 is_stmt 0               @ ../User/Bsp/Vision.c:79:26
	strb	r3, [r0, #1]
	.loc	3 80 28 is_stmt 1               @ ../User/Bsp/Vision.c:80:28
	ldrb.w	r3, [sp, #13]
	.loc	3 80 26 is_stmt 0               @ ../User/Bsp/Vision.c:80:26
	strb	r3, [r0, #2]
	.loc	3 81 28 is_stmt 1               @ ../User/Bsp/Vision.c:81:28
	ldrb.w	r3, [sp, #14]
	.loc	3 81 26 is_stmt 0               @ ../User/Bsp/Vision.c:81:26
	strb	r3, [r0, #3]
	.loc	3 82 28 is_stmt 1               @ ../User/Bsp/Vision.c:82:28
	ldrb.w	r3, [sp, #15]
	.loc	3 82 26 is_stmt 0               @ ../User/Bsp/Vision.c:82:26
	strb	r3, [r0, #4]
	.loc	3 84 38 is_stmt 1               @ ../User/Bsp/Vision.c:84:38
	ldr	r3, [r0, #28]
	.loc	3 84 23 is_stmt 0               @ ../User/Bsp/Vision.c:84:23
	str	r3, [sp, #12]
	.loc	3 85 28 is_stmt 1               @ ../User/Bsp/Vision.c:85:28
	ldrb.w	r3, [sp, #12]
	.loc	3 85 26 is_stmt 0               @ ../User/Bsp/Vision.c:85:26
	strb	r3, [r0, #5]
	.loc	3 86 28 is_stmt 1               @ ../User/Bsp/Vision.c:86:28
	ldrb.w	r3, [sp, #13]
	.loc	3 86 26 is_stmt 0               @ ../User/Bsp/Vision.c:86:26
	strb	r3, [r0, #6]
	.loc	3 87 28 is_stmt 1               @ ../User/Bsp/Vision.c:87:28
	ldrb.w	r3, [sp, #14]
	.loc	3 87 26 is_stmt 0               @ ../User/Bsp/Vision.c:87:26
	strb	r3, [r0, #7]
	.loc	3 88 28 is_stmt 1               @ ../User/Bsp/Vision.c:88:28
	ldrb.w	r3, [sp, #15]
	.loc	3 88 26 is_stmt 0               @ ../User/Bsp/Vision.c:88:26
	strb	r3, [r0, #8]
	movs	r3, #4
	.loc	3 92 25 is_stmt 1               @ ../User/Bsp/Vision.c:92:25
	strb.w	r3, [r0, #39]
	.loc	3 94 37                         @ ../User/Bsp/Vision.c:94:37
	ldrb.w	r3, [r0, #39]
	.loc	3 94 23 is_stmt 0               @ ../User/Bsp/Vision.c:94:23
	strb	r3, [r0, #9]
	movs	r3, #200
	.loc	3 96 24 is_stmt 1               @ ../User/Bsp/Vision.c:96:24
	strb	r3, [r0, #10]
	.loc	3 98 21                         @ ../User/Bsp/Vision.c:98:21
	str	r2, [sp, #12]
	.loc	3 99 25                         @ ../User/Bsp/Vision.c:99:25
	ldrb.w	r3, [sp, #12]
	.loc	3 99 24 is_stmt 0               @ ../User/Bsp/Vision.c:99:24
	strb	r3, [r0, #11]
	.loc	3 100 25 is_stmt 1              @ ../User/Bsp/Vision.c:100:25
	ldrb.w	r3, [sp, #13]
	.loc	3 100 24 is_stmt 0              @ ../User/Bsp/Vision.c:100:24
	strb	r3, [r0, #12]
	.loc	3 101 25 is_stmt 1              @ ../User/Bsp/Vision.c:101:25
	ldrb.w	r3, [sp, #14]
	.loc	3 101 24 is_stmt 0              @ ../User/Bsp/Vision.c:101:24
	strb	r3, [r0, #13]
	.loc	3 102 25 is_stmt 1              @ ../User/Bsp/Vision.c:102:25
	ldrb.w	r3, [sp, #15]
	.loc	3 102 24 is_stmt 0              @ ../User/Bsp/Vision.c:102:24
	strb	r3, [r0, #14]
	.loc	3 104 21 is_stmt 1              @ ../User/Bsp/Vision.c:104:21
	str	r2, [sp, #12]
	.loc	3 105 25                        @ ../User/Bsp/Vision.c:105:25
	ldrb.w	r2, [sp, #12]
	.loc	3 105 24 is_stmt 0              @ ../User/Bsp/Vision.c:105:24
	strb	r2, [r0, #15]
	.loc	3 106 25 is_stmt 1              @ ../User/Bsp/Vision.c:106:25
	ldrb.w	r2, [sp, #13]
	.loc	3 106 24 is_stmt 0              @ ../User/Bsp/Vision.c:106:24
	strb	r2, [r0, #16]
	.loc	3 107 25 is_stmt 1              @ ../User/Bsp/Vision.c:107:25
	ldrb.w	r2, [sp, #14]
	.loc	3 107 24 is_stmt 0              @ ../User/Bsp/Vision.c:107:24
	strb	r2, [r0, #17]
	.loc	3 108 25 is_stmt 1              @ ../User/Bsp/Vision.c:108:25
	ldrb.w	r2, [sp, #15]
	.loc	3 108 24 is_stmt 0              @ ../User/Bsp/Vision.c:108:24
	strb	r2, [r0, #18]
	.loc	3 110 24 is_stmt 1              @ ../User/Bsp/Vision.c:110:24
	strb	r1, [r0, #19]
	movs	r1, #20
	.loc	3 112 3                         @ ../User/Bsp/Vision.c:112:3
	bl	CDC_Transmit_FS
	.loc	3 113 1                         @ ../User/Bsp/Vision.c:113:1
	add	sp, #32
	pop	{r7, pc}
.Ltmp11:
.Lfunc_end1:
	.size	Vision_Tx_Data, .Lfunc_end1-Vision_Tx_Data
	.cfi_endproc
	.cantunwind
	.fnend
                                        @ -- End function
	.hidden	VisionTxData                    @ @VisionTxData
	.type	VisionTxData,%object
	.section	.bss.VisionTxData,"aw",%nobits
	.globl	VisionTxData
	.p2align	2
VisionTxData:
	.zero	40
	.size	VisionTxData, 40

	.section	".note.GNU-stack","",%progbits
	.eabi_attribute	30, 6	@ Tag_ABI_optimization_goals
	.ARM_attribute	16, 1	@ Tag_AV_eba