	.text
	.syntax unified
	.eabi_attribute	67, "2.09"	@ Tag_conformance
	.cpu	cortex-m4
	.eabi_attribute	6, 13	@ Tag_CPU_arch
	.eabi_attribute	7, 77	@ Tag_CPU_arch_profile
	.eabi_attribute	8, 0	@ Tag_ARM_ISA_use
	.eabi_attribute	9, 2	@ Tag_THUMB_ISA_use
	.fpu	fpv4-sp-d16
	.eabi_attribute	27, 1	@ Tag_ABI_HardFP_use
	.eabi_attribute	36, 1	@ Tag_FP_HP_extension
	.eabi_attribute	34, 1	@ Tag_CPU_unaligned_access
	.eabi_attribute	17, 1	@ Tag_ABI_PCS_GOT_use
	.eabi_attribute	20, 2	@ Tag_ABI_FP_denormal
	.eabi_attribute	21, 0	@ Tag_ABI_FP_exceptions
	.eabi_attribute	23, 3	@ Tag_ABI_FP_number_model
	.eabi_attribute	24, 1	@ Tag_ABI_align_needed
	.eabi_attribute	25, 1	@ Tag_ABI_align_preserved
	.eabi_attribute	28, 1	@ Tag_ABI_VFP_args
	.eabi_attribute	38, 1	@ Tag_ABI_FP_16bit_format
	.eabi_attribute	18, 2	@ Tag_ABI_PCS_wchar_t
	.eabi_attribute	26, 1	@ Tag_ABI_enum_size
	.eabi_attribute	14, 0	@ Tag_ABI_PCS_R9_use
	.file	"VOFA.c"
	.file	1 "D:\\horizon\\Horizon_Infantry (2)\\MDK-ARM" "../User/Bsp/VOFA.c"
	.file	2 "D:\\" "kevil\\ARM\\ARMCLANG\\Bin\\..\\include\\stdint.h"
	.section	.text.VOFA_justfloat,"ax",%progbits
	.hidden	VOFA_justfloat                  @ -- Begin function VOFA_justfloat
	.globl	VOFA_justfloat
	.p2align	2
	.type	VOFA_justfloat,%function
	.code	16                              @ @VOFA_justfloat
	.thumb_func
VOFA_justfloat:
.Lfunc_begin0:
	.loc	1 33 0                          @ ../User/Bsp/VOFA.c:33:0
	.fnstart
	.cfi_sections .debug_frame
	.cfi_startproc
@ %bb.0:
	.save	{r7, lr}
	push	{r7, lr}
	.cfi_def_cfa_offset 8
	.cfi_offset lr, -4
	.cfi_offset r7, -8
	.pad	#48
	sub	sp, #48
	.cfi_def_cfa_offset 56
	add	r0, sp, #8
	vstr	s0, [r0, #36]
	vstr	s1, [r0, #32]
	vstr	s2, [r0, #28]
	vstr	s3, [r0, #24]
	vstr	s4, [r0, #20]
	vstr	s5, [r0, #16]
	vstr	s6, [r0, #12]
	vstr	s7, [r0, #8]
	vstr	s8, [r0, #4]
	vstr	s9, [r0]
	movs	r0, #0
.Ltmp0:
	.loc	1 34 12 prologue_end            @ ../User/Bsp/VOFA.c:34:12
	strb.w	r0, [sp, #7]
	.loc	1 35 20                         @ ../User/Bsp/VOFA.c:35:20
	ldr	r2, [sp, #44]
	.loc	1 35 16 is_stmt 0               @ ../User/Bsp/VOFA.c:35:16
	ldrb.w	r3, [sp, #7]
	adds	r1, r3, #1
	strb.w	r1, [sp, #7]
	.loc	1 35 4                          @ ../User/Bsp/VOFA.c:35:4
	movw	r1, :lower16:data
	movt	r1, :upper16:data
	.loc	1 35 19                         @ ../User/Bsp/VOFA.c:35:19
	str.w	r2, [r1, r3, lsl #2]
	.loc	1 36 20 is_stmt 1               @ ../User/Bsp/VOFA.c:36:20
	ldr	r2, [sp, #40]
	.loc	1 36 16 is_stmt 0               @ ../User/Bsp/VOFA.c:36:16
	ldrb.w	r3, [sp, #7]
	add.w	r12, r3, #1
	strb.w	r12, [sp, #7]
	.loc	1 36 19                         @ ../User/Bsp/VOFA.c:36:19
	str.w	r2, [r1, r3, lsl #2]
	.loc	1 37 20 is_stmt 1               @ ../User/Bsp/VOFA.c:37:20
	ldr	r2, [sp, #36]
	.loc	1 37 16 is_stmt 0               @ ../User/Bsp/VOFA.c:37:16
	ldrb.w	r3, [sp, #7]
	add.w	r12, r3, #1
	strb.w	r12, [sp, #7]
	.loc	1 37 19                         @ ../User/Bsp/VOFA.c:37:19
	str.w	r2, [r1, r3, lsl #2]
	.loc	1 38 20 is_stmt 1               @ ../User/Bsp/VOFA.c:38:20
	ldr	r2, [sp, #32]
	.loc	1 38 16 is_stmt 0               @ ../User/Bsp/VOFA.c:38:16
	ldrb.w	r3, [sp, #7]
	add.w	r12, r3, #1
	strb.w	r12, [sp, #7]
	.loc	1 38 19                         @ ../User/Bsp/VOFA.c:38:19
	str.w	r2, [r1, r3, lsl #2]
	.loc	1 39 20 is_stmt 1               @ ../User/Bsp/VOFA.c:39:20
	ldr	r2, [sp, #28]
	.loc	1 39 16 is_stmt 0               @ ../User/Bsp/VOFA.c:39:16
	ldrb.w	r3, [sp, #7]
	add.w	r12, r3, #1
	strb.w	r12, [sp, #7]
	.loc	1 39 19                         @ ../User/Bsp/VOFA.c:39:19
	str.w	r2, [r1, r3, lsl #2]
	.loc	1 40 20 is_stmt 1               @ ../User/Bsp/VOFA.c:40:20
	ldr	r2, [sp, #24]
	.loc	1 40 16 is_stmt 0               @ ../User/Bsp/VOFA.c:40:16
	ldrb.w	r3, [sp, #7]
	add.w	r12, r3, #1
	strb.w	r12, [sp, #7]
	.loc	1 40 19                         @ ../User/Bsp/VOFA.c:40:19
	str.w	r2, [r1, r3, lsl #2]
	.loc	1 41 20 is_stmt 1               @ ../User/Bsp/VOFA.c:41:20
	ldr	r2, [sp, #20]
	.loc	1 41 16 is_stmt 0               @ ../User/Bsp/VOFA.c:41:16
	ldrb.w	r3, [sp, #7]
	add.w	r12, r3, #1
	strb.w	r12, [sp, #7]
	.loc	1 41 19                         @ ../User/Bsp/VOFA.c:41:19
	str.w	r2, [r1, r3, lsl #2]
	.loc	1 42 20 is_stmt 1               @ ../User/Bsp/VOFA.c:42:20
	ldr	r2, [sp, #16]
	.loc	1 42 16 is_stmt 0               @ ../User/Bsp/VOFA.c:42:16
	ldrb.w	r3, [sp, #7]
	add.w	r12, r3, #1
	strb.w	r12, [sp, #7]
	.loc	1 42 19                         @ ../User/Bsp/VOFA.c:42:19
	str.w	r2, [r1, r3, lsl #2]
	.loc	1 43 20 is_stmt 1               @ ../User/Bsp/VOFA.c:43:20
	ldr	r2, [sp, #12]
	.loc	1 43 16 is_stmt 0               @ ../User/Bsp/VOFA.c:43:16
	ldrb.w	r3, [sp, #7]
	add.w	r12, r3, #1
	strb.w	r12, [sp, #7]
	.loc	1 43 19                         @ ../User/Bsp/VOFA.c:43:19
	str.w	r2, [r1, r3, lsl #2]
	.loc	1 44 20 is_stmt 1               @ ../User/Bsp/VOFA.c:44:20
	ldr	r2, [sp, #8]
	.loc	1 44 16 is_stmt 0               @ ../User/Bsp/VOFA.c:44:16
	ldrb.w	r3, [sp, #7]
	add.w	r12, r3, #1
	strb.w	r12, [sp, #7]
	.loc	1 44 19                         @ ../User/Bsp/VOFA.c:44:19
	str.w	r2, [r1, r3, lsl #2]
	.loc	1 45 18 is_stmt 1               @ ../User/Bsp/VOFA.c:45:18
	strb.w	r0, [r1, #40]
	.loc	1 46 18                         @ ../User/Bsp/VOFA.c:46:18
	strb.w	r0, [r1, #41]
	movs	r0, #128
	.loc	1 47 18                         @ ../User/Bsp/VOFA.c:47:18
	strb.w	r0, [r1, #42]
	movs	r0, #127
	.loc	1 48 18                         @ ../User/Bsp/VOFA.c:48:18
	strb.w	r0, [r1, #43]
	.loc	1 49 5                          @ ../User/Bsp/VOFA.c:49:5
	movw	r0, :lower16:huart6
	movt	r0, :upper16:huart6
	movs	r2, #44
	bl	HAL_UART_Transmit_DMA
	.loc	1 50 1                          @ ../User/Bsp/VOFA.c:50:1
	add	sp, #48
	pop	{r7, pc}
.Ltmp1:
.Lfunc_end0:
	.size	VOFA_justfloat, .Lfunc_end0-VOFA_justfloat
	.cfi_endproc
	.cantunwind
	.fnend
                                        @ -- End function
	.hidden	data                            @ @data
	.type	data,%object
	.section	.bss.data,"aw",%nobits
	.globl	data
	.p2align	2
data:
	.zero	44
	.size	data, 44

	.section	".note.GNU-stack","",%progbits
	.eabi_attribute	30, 6	@ Tag_ABI_optimization_goals
	.ARM_attribute	16, 1	@ Tag_AV_eba