	.text
	.syntax unified
	.eabi_attribute	67, "2.09"	@ Tag_conformance
	.cpu	cortex-m4
	.eabi_attribute	6, 13	@ Tag_CPU_arch
	.eabi_attribute	7, 77	@ Tag_CPU_arch_profile
	.eabi_attribute	8, 0	@ Tag_ARM_ISA_use
	.eabi_attribute	9, 2	@ Tag_THUMB_ISA_use
	.fpu	fpv4-sp-d16
	.eabi_attribute	27, 1	@ Tag_ABI_HardFP_use
	.eabi_attribute	36, 1	@ Tag_FP_HP_extension
	.eabi_attribute	34, 1	@ Tag_CPU_unaligned_access
	.eabi_attribute	17, 1	@ Tag_ABI_PCS_GOT_use
	.eabi_attribute	20, 2	@ Tag_ABI_FP_denormal
	.eabi_attribute	21, 0	@ Tag_ABI_FP_exceptions
	.eabi_attribute	23, 3	@ Tag_ABI_FP_number_model
	.eabi_attribute	24, 1	@ Tag_ABI_align_needed
	.eabi_attribute	25, 1	@ Tag_ABI_align_preserved
	.eabi_attribute	28, 1	@ Tag_ABI_VFP_args
	.eabi_attribute	38, 1	@ Tag_ABI_FP_16bit_format
	.eabi_attribute	18, 2	@ Tag_ABI_PCS_wchar_t
	.eabi_attribute	26, 1	@ Tag_ABI_enum_size
	.eabi_attribute	14, 0	@ Tag_ABI_PCS_R9_use
	.file	"VT13.c"
	.file	1 "D:\\" "kevil\\ARM\\ARMCLANG\\Bin\\..\\include\\stdint.h"
	.file	2 "D:\\horizon\\Horizon_Infantry (2)\\MDK-ARM" "../User/Bsp/VT13.c"
	.file	3 "D:\\horizon\\Horizon_Infantry (2)\\MDK-ARM" "../User/Bsp/inc\\VT13.h"
	.section	.text.VT13_Resovled,"ax",%progbits
	.hidden	VT13_Resovled                   @ -- Begin function VT13_Resovled
	.globl	VT13_Resovled
	.p2align	2
	.type	VT13_Resovled,%function
	.code	16                              @ @VT13_Resovled
	.thumb_func
VT13_Resovled:
.Lfunc_begin0:
	.loc	2 11 0                          @ ../User/Bsp/VT13.c:11:0
	.fnstart
	.cfi_sections .debug_frame
	.cfi_startproc
@ %bb.0:
	.save	{r7, lr}
	push	{r7, lr}
	.cfi_def_cfa_offset 8
	.cfi_offset lr, -4
	.cfi_offset r7, -8
	.pad	#32
	sub	sp, #32
	.cfi_def_cfa_offset 40
	str	r0, [sp, #28]
	str	r1, [sp, #24]
	str	r2, [sp, #20]
.Ltmp0:
	.loc	2 13 5 prologue_end             @ ../User/Bsp/VT13.c:13:5
	ldr	r0, [sp, #28]
	ldrb	r0, [r0]
	.loc	2 13 21 is_stmt 0               @ ../User/Bsp/VT13.c:13:21
	cmp	r0, #169
	bne.w	.LBB0_112
	b	.LBB0_1
.LBB0_1:
	.loc	2 13 24                         @ ../User/Bsp/VT13.c:13:24
	ldr	r0, [sp, #28]
	ldrb	r0, [r0, #1]
	.loc	2 13 40                         @ ../User/Bsp/VT13.c:13:40
	cmp	r0, #83
	bne.w	.LBB0_112
	b	.LBB0_2
.LBB0_2:
	.loc	2 13 67                         @ ../User/Bsp/VT13.c:13:67
	ldr	r0, [sp, #28]
	movs	r1, #21
	.loc	2 13 44                         @ ../User/Bsp/VT13.c:13:44
	bl	verify_crc16_check_sum
.Ltmp1:
	.loc	2 13 5                          @ ../User/Bsp/VT13.c:13:5
	cmp	r0, #0
	beq.w	.LBB0_112
	b	.LBB0_3
.LBB0_3:
.Ltmp2:
	.loc	2 15 3 is_stmt 1                @ ../User/Bsp/VT13.c:15:3
	ldr	r1, [sp, #24]
	movs	r0, #30
	.loc	2 15 38 is_stmt 0               @ ../User/Bsp/VT13.c:15:38
	strb.w	r0, [r1, #82]
	.loc	2 17 3 is_stmt 1                @ ../User/Bsp/VT13.c:17:3
	ldr	r1, [sp, #24]
	movs	r0, #1
	.loc	2 17 18 is_stmt 0               @ ../User/Bsp/VT13.c:17:18
	strb	r0, [r1, #1]
	.loc	2 34 10 is_stmt 1               @ ../User/Bsp/VT13.c:34:10
	ldr	r0, [sp, #20]
	.loc	2 34 32 is_stmt 0               @ ../User/Bsp/VT13.c:34:32
	ldr	r1, [sp, #28]
	movs	r2, #21
	.loc	2 34 3                          @ ../User/Bsp/VT13.c:34:3
	bl	__aeabi_memcpy
	.loc	2 37 29 is_stmt 1               @ ../User/Bsp/VT13.c:37:29
	ldr	r0, [sp, #20]
	.loc	2 37 52 is_stmt 0               @ ../User/Bsp/VT13.c:37:52
	ldr.w	r0, [r0, #2]
	.loc	2 37 29                         @ ../User/Bsp/VT13.c:37:29
	bfc	r0, #11, #21
	.loc	2 37 57                         @ ../User/Bsp/VT13.c:37:57
	sub.w	r0, r0, #1024
	.loc	2 37 3                          @ ../User/Bsp/VT13.c:37:3
	ldr	r1, [sp, #24]
	.loc	2 37 27                         @ ../User/Bsp/VT13.c:37:27
	strh	r0, [r1, #2]
	.loc	2 38 29 is_stmt 1               @ ../User/Bsp/VT13.c:38:29
	ldr	r0, [sp, #20]
	.loc	2 38 52 is_stmt 0               @ ../User/Bsp/VT13.c:38:52
	ldr.w	r0, [r0, #2]
	.loc	2 38 29                         @ ../User/Bsp/VT13.c:38:29
	ubfx	r0, r0, #11, #11
	.loc	2 38 57                         @ ../User/Bsp/VT13.c:38:57
	sub.w	r0, r0, #1024
	.loc	2 38 3                          @ ../User/Bsp/VT13.c:38:3
	ldr	r1, [sp, #24]
	.loc	2 38 27                         @ ../User/Bsp/VT13.c:38:27
	strh	r0, [r1, #4]
	.loc	2 39 29 is_stmt 1               @ ../User/Bsp/VT13.c:39:29
	ldr	r0, [sp, #20]
	.loc	2 39 52 is_stmt 0               @ ../User/Bsp/VT13.c:39:52
	ldr.w	r0, [r0, #6]
	.loc	2 39 29                         @ ../User/Bsp/VT13.c:39:29
	ubfx	r0, r0, #1, #11
	.loc	2 39 57                         @ ../User/Bsp/VT13.c:39:57
	sub.w	r0, r0, #1024
	.loc	2 39 3                          @ ../User/Bsp/VT13.c:39:3
	ldr	r1, [sp, #24]
	.loc	2 39 27                         @ ../User/Bsp/VT13.c:39:27
	strh	r0, [r1, #6]
	.loc	2 40 29 is_stmt 1               @ ../User/Bsp/VT13.c:40:29
	ldr	r1, [sp, #20]
	.loc	2 40 52 is_stmt 0               @ ../User/Bsp/VT13.c:40:52
	ldr.w	r0, [r1, #2]
	ldr.w	r1, [r1, #6]
	lsrs	r0, r0, #22
	orr.w	r0, r0, r1, lsl #10
	.loc	2 40 29                         @ ../User/Bsp/VT13.c:40:29
	bfc	r0, #11, #21
	.loc	2 40 57                         @ ../User/Bsp/VT13.c:40:57
	sub.w	r0, r0, #1024
	.loc	2 40 3                          @ ../User/Bsp/VT13.c:40:3
	ldr	r1, [sp, #24]
	.loc	2 40 27                         @ ../User/Bsp/VT13.c:40:27
	strh	r0, [r1, #8]
	.loc	2 42 24 is_stmt 1               @ ../User/Bsp/VT13.c:42:24
	ldr	r0, [sp, #20]
	.loc	2 42 47 is_stmt 0               @ ../User/Bsp/VT13.c:42:47
	ldr.w	r0, [r0, #6]
	.loc	2 42 24                         @ ../User/Bsp/VT13.c:42:24
	lsrs	r0, r0, #12
	.loc	2 42 3                          @ ../User/Bsp/VT13.c:42:3
	ldr	r1, [sp, #24]
	.loc	2 42 22                         @ ../User/Bsp/VT13.c:42:22
	ldrh	r2, [r1, #10]
	bfi	r0, r2, #0, #5
	sub.w	r0, r0, #32768
	strh	r0, [r1, #10]
	.loc	2 44 26 is_stmt 1               @ ../User/Bsp/VT13.c:44:26
	ldr	r0, [sp, #20]
	.loc	2 44 49 is_stmt 0               @ ../User/Bsp/VT13.c:44:49
	ldr.w	r0, [r0, #6]
	lsrs	r2, r0, #12
	.loc	2 44 3                          @ ../User/Bsp/VT13.c:44:3
	ldr	r1, [sp, #24]
	.loc	2 44 24                         @ ../User/Bsp/VT13.c:44:24
	ldrh	r0, [r1, #10]
	bfi	r0, r2, #0, #2
	strh	r0, [r1, #10]
	.loc	2 51 24 is_stmt 1               @ ../User/Bsp/VT13.c:51:24
	ldr	r0, [sp, #20]
	.loc	2 51 47 is_stmt 0               @ ../User/Bsp/VT13.c:51:47
	ldr.w	r0, [r0, #6]
	.loc	2 51 3                          @ ../User/Bsp/VT13.c:51:3
	ldr	r1, [sp, #24]
	.loc	2 51 22                         @ ../User/Bsp/VT13.c:51:22
	ubfx	r2, r0, #14, #1
	ldrh	r0, [r1, #10]
	bic	r0, r0, #4
	orr.w	r0, r0, r2, lsl #2
	strh	r0, [r1, #10]
	.loc	2 52 23 is_stmt 1               @ ../User/Bsp/VT13.c:52:23
	ldr	r0, [sp, #20]
	.loc	2 52 46 is_stmt 0               @ ../User/Bsp/VT13.c:52:46
	ldr.w	r0, [r0, #6]
	.loc	2 52 3                          @ ../User/Bsp/VT13.c:52:3
	ldr	r1, [sp, #24]
	.loc	2 52 21                         @ ../User/Bsp/VT13.c:52:21
	ubfx	r2, r0, #15, #1
	ldrh	r0, [r1, #10]
	bic	r0, r0, #8
	orr.w	r0, r0, r2, lsl #3
	strh	r0, [r1, #10]
	.loc	2 53 23 is_stmt 1               @ ../User/Bsp/VT13.c:53:23
	ldr	r0, [sp, #20]
	.loc	2 53 46 is_stmt 0               @ ../User/Bsp/VT13.c:53:46
	ldrh	r0, [r0, #8]
	.loc	2 53 3                          @ ../User/Bsp/VT13.c:53:3
	ldr	r1, [sp, #24]
	.loc	2 53 21                         @ ../User/Bsp/VT13.c:53:21
	and	r2, r0, #1
	ldrh	r0, [r1, #10]
	bic	r0, r0, #16
	orr.w	r0, r0, r2, lsl #4
	strh	r0, [r1, #10]
	.loc	2 54 26 is_stmt 1               @ ../User/Bsp/VT13.c:54:26
	ldr	r0, [sp, #20]
	.loc	2 54 49 is_stmt 0               @ ../User/Bsp/VT13.c:54:49
	ldr.w	r0, [r0, #6]
	.loc	2 54 26                         @ ../User/Bsp/VT13.c:54:26
	ubfx	r2, r0, #28, #1
	.loc	2 54 3                          @ ../User/Bsp/VT13.c:54:3
	ldr	r1, [sp, #24]
	.loc	2 54 24                         @ ../User/Bsp/VT13.c:54:24
	ldrb	r0, [r1, #12]
	and	r0, r0, #254
	add	r0, r2
	strb	r0, [r1, #12]
	.loc	2 57 41 is_stmt 1               @ ../User/Bsp/VT13.c:57:41
	ldr	r0, [sp, #20]
	.loc	2 57 64 is_stmt 0               @ ../User/Bsp/VT13.c:57:64
	ldrb	r0, [r0, #16]
	and	r0, r0, #3
	.loc	2 57 77                         @ ../User/Bsp/VT13.c:57:77
	ldr	r1, [sp, #24]
	.loc	2 57 89                         @ ../User/Bsp/VT13.c:57:89
	ldrb.w	r2, [r1, #60]
	movs	r1, #0
	.loc	2 57 25                         @ ../User/Bsp/VT13.c:57:25
	str	r1, [sp, #4]                    @ 4-byte Spill
	bl	VT_F_KEY_STATUS
	ldr	r1, [sp, #4]                    @ 4-byte Reload
	mov	r3, r0
	.loc	2 57 3                          @ ../User/Bsp/VT13.c:57:3
	ldr	r2, [sp, #24]
	.loc	2 57 23                         @ ../User/Bsp/VT13.c:57:23
	ldrb.w	r0, [r2, #52]
	and	r0, r0, #15
	orr.w	r0, r0, r3, lsl #4
	strb.w	r0, [r2, #52]
	.loc	2 58 41 is_stmt 1               @ ../User/Bsp/VT13.c:58:41
	ldr	r0, [sp, #20]
	.loc	2 58 64 is_stmt 0               @ ../User/Bsp/VT13.c:58:64
	ldrb	r0, [r0, #16]
	ubfx	r0, r0, #2, #2
	.loc	2 58 78                         @ ../User/Bsp/VT13.c:58:78
	ldr	r2, [sp, #24]
	.loc	2 58 90                         @ ../User/Bsp/VT13.c:58:90
	ldrb.w	r2, [r2, #56]
	.loc	2 58 25                         @ ../User/Bsp/VT13.c:58:25
	bl	VT_F_KEY_STATUS
	ldr	r1, [sp, #4]                    @ 4-byte Reload
	mov	r3, r0
	.loc	2 58 3                          @ ../User/Bsp/VT13.c:58:3
	ldr	r2, [sp, #24]
	.loc	2 58 23                         @ ../User/Bsp/VT13.c:58:23
	ldrb.w	r0, [r2, #52]
	and	r3, r3, #15
	and	r0, r0, #240
	add	r0, r3
	strb.w	r0, [r2, #52]
	.loc	2 59 41 is_stmt 1               @ ../User/Bsp/VT13.c:59:41
	ldr	r0, [sp, #20]
	.loc	2 59 64 is_stmt 0               @ ../User/Bsp/VT13.c:59:64
	ldrb	r0, [r0, #16]
	ubfx	r0, r0, #4, #2
	.loc	2 59 79                         @ ../User/Bsp/VT13.c:59:79
	ldr	r2, [sp, #24]
	.loc	2 59 91                         @ ../User/Bsp/VT13.c:59:91
	ldrb.w	r2, [r2, #64]
	.loc	2 59 25                         @ ../User/Bsp/VT13.c:59:25
	bl	VT_F_KEY_STATUS
	ldr	r1, [sp, #4]                    @ 4-byte Reload
	mov	r3, r0
	.loc	2 59 3                          @ ../User/Bsp/VT13.c:59:3
	ldr	r2, [sp, #24]
	.loc	2 59 23                         @ ../User/Bsp/VT13.c:59:23
	ldrb.w	r0, [r2, #53]
	and	r3, r3, #15
	and	r0, r0, #240
	add	r0, r3
	strb.w	r0, [r2, #53]
	.loc	2 62 38 is_stmt 1               @ ../User/Bsp/VT13.c:62:38
	ldr	r0, [sp, #20]
	.loc	2 62 61 is_stmt 0               @ ../User/Bsp/VT13.c:62:61
	ldrb	r0, [r0, #17]
	and	r0, r0, #1
	.loc	2 62 74                         @ ../User/Bsp/VT13.c:62:74
	ldr	r2, [sp, #24]
	.loc	2 62 89                         @ ../User/Bsp/VT13.c:62:89
	ldrb.w	r2, [r2, #76]
	.loc	2 62 22                         @ ../User/Bsp/VT13.c:62:22
	bl	VT_F_KEY_STATUS
	ldr	r1, [sp, #4]                    @ 4-byte Reload
	mov	r3, r0
	.loc	2 62 3                          @ ../User/Bsp/VT13.c:62:3
	ldr	r2, [sp, #24]
	.loc	2 62 20                         @ ../User/Bsp/VT13.c:62:20
	ldrb.w	r0, [r2, #68]
	and	r3, r3, #15
	and	r0, r0, #240
	add	r0, r3
	strb.w	r0, [r2, #68]
	.loc	2 63 38 is_stmt 1               @ ../User/Bsp/VT13.c:63:38
	ldr	r0, [sp, #20]
	.loc	2 63 61 is_stmt 0               @ ../User/Bsp/VT13.c:63:61
	ldrb	r0, [r0, #17]
	ubfx	r0, r0, #2, #1
	.loc	2 63 74                         @ ../User/Bsp/VT13.c:63:74
	ldr	r2, [sp, #24]
	.loc	2 63 89                         @ ../User/Bsp/VT13.c:63:89
	ldrb.w	r2, [r2, #78]
	.loc	2 63 22                         @ ../User/Bsp/VT13.c:63:22
	bl	VT_F_KEY_STATUS
	ldr	r1, [sp, #4]                    @ 4-byte Reload
	mov	r3, r0
	.loc	2 63 3                          @ ../User/Bsp/VT13.c:63:3
	ldr	r2, [sp, #24]
	.loc	2 63 20                         @ ../User/Bsp/VT13.c:63:20
	ldrb.w	r0, [r2, #69]
	and	r3, r3, #15
	and	r0, r0, #240
	add	r0, r3
	strb.w	r0, [r2, #69]
	.loc	2 64 38 is_stmt 1               @ ../User/Bsp/VT13.c:64:38
	ldr	r0, [sp, #20]
	.loc	2 64 61 is_stmt 0               @ ../User/Bsp/VT13.c:64:61
	ldrb	r0, [r0, #17]
	lsrs.w	r2, r1, #1
	rrx	r0, r0
	and	r0, r0, #1
	.loc	2 64 74                         @ ../User/Bsp/VT13.c:64:74
	ldr	r2, [sp, #24]
	.loc	2 64 89                         @ ../User/Bsp/VT13.c:64:89
	ldrb.w	r2, [r2, #77]
	.loc	2 64 22                         @ ../User/Bsp/VT13.c:64:22
	bl	VT_F_KEY_STATUS
	ldr	r1, [sp, #4]                    @ 4-byte Reload
	mov	r3, r0
	.loc	2 64 3                          @ ../User/Bsp/VT13.c:64:3
	ldr	r2, [sp, #24]
	.loc	2 64 20                         @ ../User/Bsp/VT13.c:64:20
	ldrb.w	r0, [r2, #68]
	and	r0, r0, #15
	orr.w	r0, r0, r3, lsl #4
	strb.w	r0, [r2, #68]
	.loc	2 65 38 is_stmt 1               @ ../User/Bsp/VT13.c:65:38
	ldr	r0, [sp, #20]
	.loc	2 65 61 is_stmt 0               @ ../User/Bsp/VT13.c:65:61
	ldrb	r0, [r0, #17]
	ubfx	r0, r0, #3, #1
	.loc	2 65 74                         @ ../User/Bsp/VT13.c:65:74
	ldr	r2, [sp, #24]
	.loc	2 65 89                         @ ../User/Bsp/VT13.c:65:89
	ldrb.w	r2, [r2, #79]
	.loc	2 65 22                         @ ../User/Bsp/VT13.c:65:22
	bl	VT_F_KEY_STATUS
	mov	r2, r0
	.loc	2 65 3                          @ ../User/Bsp/VT13.c:65:3
	ldr	r1, [sp, #24]
	.loc	2 65 20                         @ ../User/Bsp/VT13.c:65:20
	ldrb.w	r0, [r1, #69]
	and	r0, r0, #15
	orr.w	r0, r0, r2, lsl #4
	strb.w	r0, [r1, #69]
	.loc	2 68 36 is_stmt 1               @ ../User/Bsp/VT13.c:68:36
	ldr	r0, [sp, #24]
	.loc	2 68 48 is_stmt 0               @ ../User/Bsp/VT13.c:68:48
	vldr	s0, [r0, #16]
	.loc	2 68 64                         @ ../User/Bsp/VT13.c:68:64
	ldr	r0, [sp, #20]
	.loc	2 68 87                         @ ../User/Bsp/VT13.c:68:87
	ldrsh.w	r0, [r0, #10]
	.loc	2 68 56                         @ ../User/Bsp/VT13.c:68:56
	vmov	s2, r0
	vcvt.f32.s32	s1, s2
	vldr	s2, __arm_cp.0_3
	vstr	s2, [sp, #8]                    @ 4-byte Spill
	.loc	2 68 23                         @ ../User/Bsp/VT13.c:68:23
	bl	VT_OneFilter
	vldr	s2, [sp, #8]                    @ 4-byte Reload
	.loc	2 68 3                          @ ../User/Bsp/VT13.c:68:3
	ldr	r0, [sp, #24]
	.loc	2 68 21                         @ ../User/Bsp/VT13.c:68:21
	vstr	s0, [r0, #16]
	.loc	2 69 36 is_stmt 1               @ ../User/Bsp/VT13.c:69:36
	ldr	r0, [sp, #24]
	.loc	2 69 48 is_stmt 0               @ ../User/Bsp/VT13.c:69:48
	vldr	s0, [r0, #28]
	.loc	2 69 64                         @ ../User/Bsp/VT13.c:69:64
	ldr	r0, [sp, #20]
	.loc	2 69 87                         @ ../User/Bsp/VT13.c:69:87
	ldrsh.w	r0, [r0, #12]
	.loc	2 69 56                         @ ../User/Bsp/VT13.c:69:56
	vmov	s4, r0
	vcvt.f32.s32	s1, s4
	.loc	2 69 23                         @ ../User/Bsp/VT13.c:69:23
	bl	VT_OneFilter
	vldr	s2, [sp, #8]                    @ 4-byte Reload
	.loc	2 69 3                          @ ../User/Bsp/VT13.c:69:3
	ldr	r0, [sp, #24]
	.loc	2 69 21                         @ ../User/Bsp/VT13.c:69:21
	vstr	s0, [r0, #28]
	.loc	2 70 36 is_stmt 1               @ ../User/Bsp/VT13.c:70:36
	ldr	r0, [sp, #24]
	.loc	2 70 48 is_stmt 0               @ ../User/Bsp/VT13.c:70:48
	vldr	s0, [r0, #40]
	.loc	2 70 64                         @ ../User/Bsp/VT13.c:70:64
	ldr	r0, [sp, #20]
	.loc	2 70 87                         @ ../User/Bsp/VT13.c:70:87
	ldrsh.w	r0, [r0, #14]
	.loc	2 70 56                         @ ../User/Bsp/VT13.c:70:56
	vmov	s4, r0
	vcvt.f32.s32	s1, s4
	.loc	2 70 23                         @ ../User/Bsp/VT13.c:70:23
	bl	VT_OneFilter
	.loc	2 70 3                          @ ../User/Bsp/VT13.c:70:3
	ldr	r0, [sp, #24]
	.loc	2 70 21                         @ ../User/Bsp/VT13.c:70:21
	vstr	s0, [r0, #40]
	.loc	2 73 35 is_stmt 1               @ ../User/Bsp/VT13.c:73:35
	ldr	r0, [sp, #24]
	.loc	2 73 47 is_stmt 0               @ ../User/Bsp/VT13.c:73:47
	vldr	s0, [r0, #16]
	vldr	s1, __arm_cp.0_4
	vstr	s1, [sp, #12]                   @ 4-byte Spill
	vldr	s2, __arm_cp.0_5
	vstr	s2, [sp, #16]                   @ 4-byte Spill
	.loc	2 73 23                         @ ../User/Bsp/VT13.c:73:23
	bl	VT_deadband
	vldr	s1, [sp, #12]                   @ 4-byte Reload
	vldr	s2, [sp, #16]                   @ 4-byte Reload
	.loc	2 73 3                          @ ../User/Bsp/VT13.c:73:3
	ldr	r0, [sp, #24]
	.loc	2 73 21                         @ ../User/Bsp/VT13.c:73:21
	vstr	s0, [r0, #16]
	.loc	2 74 35 is_stmt 1               @ ../User/Bsp/VT13.c:74:35
	ldr	r0, [sp, #24]
	.loc	2 74 47 is_stmt 0               @ ../User/Bsp/VT13.c:74:47
	vldr	s0, [r0, #28]
	.loc	2 74 23                         @ ../User/Bsp/VT13.c:74:23
	bl	VT_deadband
	vldr	s1, [sp, #12]                   @ 4-byte Reload
	vldr	s2, [sp, #16]                   @ 4-byte Reload
	.loc	2 74 3                          @ ../User/Bsp/VT13.c:74:3
	ldr	r0, [sp, #24]
	.loc	2 74 21                         @ ../User/Bsp/VT13.c:74:21
	vstr	s0, [r0, #28]
	.loc	2 75 35 is_stmt 1               @ ../User/Bsp/VT13.c:75:35
	ldr	r0, [sp, #24]
	.loc	2 75 47 is_stmt 0               @ ../User/Bsp/VT13.c:75:47
	vldr	s0, [r0, #40]
	.loc	2 75 23                         @ ../User/Bsp/VT13.c:75:23
	bl	VT_deadband
	.loc	2 75 3                          @ ../User/Bsp/VT13.c:75:3
	ldr	r0, [sp, #24]
	.loc	2 75 21                         @ ../User/Bsp/VT13.c:75:21
	vstr	s0, [r0, #40]
	.loc	2 78 26 is_stmt 1               @ ../User/Bsp/VT13.c:78:26
	ldr	r0, [sp, #20]
	.loc	2 78 49 is_stmt 0               @ ../User/Bsp/VT13.c:78:49
	ldrb	r0, [r0, #17]
	ubfx	r2, r0, #4, #1
	.loc	2 78 3                          @ ../User/Bsp/VT13.c:78:3
	ldr	r1, [sp, #24]
	.loc	2 78 24                         @ ../User/Bsp/VT13.c:78:24
	ldrb.w	r0, [r1, #70]
	and	r0, r0, #240
	add	r0, r2
	strb.w	r0, [r1, #70]
.Ltmp3:
	.loc	2 79 7 is_stmt 1                @ ../User/Bsp/VT13.c:79:7
	ldr	r0, [sp, #24]
	.loc	2 79 22 is_stmt 0               @ ../User/Bsp/VT13.c:79:22
	ldrb.w	r0, [r0, #70]
	and	r0, r0, #15
	.loc	2 79 33                         @ ../User/Bsp/VT13.c:79:33
	cmp	r0, #1
	bne	.LBB0_6
	b	.LBB0_4
.LBB0_4:
	.loc	2 79 36                         @ ../User/Bsp/VT13.c:79:36
	movw	r0, :lower16:VT13_Resovled.Key_Shift_Lock
	movt	r0, :upper16:VT13_Resovled.Key_Shift_Lock
	ldrb	r0, [r0]
.Ltmp4:
	.loc	2 79 7                          @ ../User/Bsp/VT13.c:79:7
	cbnz	r0, .LBB0_6
	b	.LBB0_5
.LBB0_5:
.Ltmp5:
	.loc	2 81 39 is_stmt 1               @ ../User/Bsp/VT13.c:81:39
	ldr	r2, [sp, #24]
	.loc	2 81 54 is_stmt 0               @ ../User/Bsp/VT13.c:81:54
	ldrb.w	r1, [r2, #80]
	movs	r0, #1
	.loc	2 81 38                         @ ../User/Bsp/VT13.c:81:38
	bic.w	r3, r0, r1
	.loc	2 81 36                         @ ../User/Bsp/VT13.c:81:36
	and	r1, r1, #254
	add	r1, r3
	strb.w	r1, [r2, #80]
	.loc	2 82 19 is_stmt 1               @ ../User/Bsp/VT13.c:82:19
	movw	r1, :lower16:VT13_Resovled.Key_Shift_Lock
	movt	r1, :upper16:VT13_Resovled.Key_Shift_Lock
	strb	r0, [r1]
	.loc	2 83 3                          @ ../User/Bsp/VT13.c:83:3
	b	.LBB0_10
.Ltmp6:
.LBB0_6:
	.loc	2 84 12                         @ ../User/Bsp/VT13.c:84:12
	ldr	r0, [sp, #24]
	.loc	2 84 27 is_stmt 0               @ ../User/Bsp/VT13.c:84:27
	ldrb.w	r0, [r0, #70]
	.loc	2 84 38                         @ ../User/Bsp/VT13.c:84:38
	lsls	r0, r0, #28
	cbnz	r0, .LBB0_9
	b	.LBB0_7
.LBB0_7:
	.loc	2 84 41                         @ ../User/Bsp/VT13.c:84:41
	movw	r0, :lower16:VT13_Resovled.Key_Shift_Lock
	movt	r0, :upper16:VT13_Resovled.Key_Shift_Lock
	ldrb	r0, [r0]
.Ltmp7:
	.loc	2 84 12                         @ ../User/Bsp/VT13.c:84:12
	cmp	r0, #1
	bne	.LBB0_9
	b	.LBB0_8
.LBB0_8:
.Ltmp8:
	.loc	2 86 19 is_stmt 1               @ ../User/Bsp/VT13.c:86:19
	movw	r1, :lower16:VT13_Resovled.Key_Shift_Lock
	movt	r1, :upper16:VT13_Resovled.Key_Shift_Lock
	movs	r0, #0
	strb	r0, [r1]
	.loc	2 87 3                          @ ../User/Bsp/VT13.c:87:3
	b	.LBB0_9
.Ltmp9:
.LBB0_9:
	.loc	2 0 3 is_stmt 0                 @ ../User/Bsp/VT13.c:0:3
	b	.LBB0_10
.LBB0_10:
	.loc	2 89 25 is_stmt 1               @ ../User/Bsp/VT13.c:89:25
	ldr	r0, [sp, #20]
	.loc	2 89 48 is_stmt 0               @ ../User/Bsp/VT13.c:89:48
	ldrb	r3, [r0, #17]
	.loc	2 89 3                          @ ../User/Bsp/VT13.c:89:3
	ldr	r1, [sp, #24]
	.loc	2 89 23                         @ ../User/Bsp/VT13.c:89:23
	ldrb.w	r0, [r1, #70]
	movs	r2, #16
	and.w	r2, r2, r3, lsr #1
	and	r0, r0, #15
	add	r0, r2
	strb.w	r0, [r1, #70]
.Ltmp10:
	.loc	2 90 7 is_stmt 1                @ ../User/Bsp/VT13.c:90:7
	ldr	r0, [sp, #24]
	.loc	2 90 22 is_stmt 0               @ ../User/Bsp/VT13.c:90:22
	ldrb.w	r1, [r0, #70]
	movs	r0, #1
	.loc	2 90 32                         @ ../User/Bsp/VT13.c:90:32
	cmp.w	r0, r1, lsr #4
	bne	.LBB0_13
	b	.LBB0_11
.LBB0_11:
	.loc	2 90 35                         @ ../User/Bsp/VT13.c:90:35
	movw	r0, :lower16:VT13_Resovled.Key_Ctrl_Lock
	movt	r0, :upper16:VT13_Resovled.Key_Ctrl_Lock
	ldrb	r0, [r0]
.Ltmp11:
	.loc	2 90 7                          @ ../User/Bsp/VT13.c:90:7
	cbnz	r0, .LBB0_13
	b	.LBB0_12
.LBB0_12:
.Ltmp12:
	.loc	2 92 38 is_stmt 1               @ ../User/Bsp/VT13.c:92:38
	ldr	r2, [sp, #24]
	.loc	2 92 53 is_stmt 0               @ ../User/Bsp/VT13.c:92:53
	ldrb.w	r1, [r2, #80]
	movs	r0, #1
	.loc	2 92 37                         @ ../User/Bsp/VT13.c:92:37
	bic.w	r3, r0, r1, lsr #1
	.loc	2 92 35                         @ ../User/Bsp/VT13.c:92:35
	and	r1, r1, #253
	orr.w	r1, r1, r3, lsl #1
	strb.w	r1, [r2, #80]
	.loc	2 93 18 is_stmt 1               @ ../User/Bsp/VT13.c:93:18
	movw	r1, :lower16:VT13_Resovled.Key_Ctrl_Lock
	movt	r1, :upper16:VT13_Resovled.Key_Ctrl_Lock
	strb	r0, [r1]
	.loc	2 94 3                          @ ../User/Bsp/VT13.c:94:3
	b	.LBB0_17
.Ltmp13:
.LBB0_13:
	.loc	2 95 12                         @ ../User/Bsp/VT13.c:95:12
	ldr	r0, [sp, #24]
	.loc	2 95 27 is_stmt 0               @ ../User/Bsp/VT13.c:95:27
	ldrb.w	r1, [r0, #70]
	movs	r0, #0
	.loc	2 95 37                         @ ../User/Bsp/VT13.c:95:37
	cmp.w	r0, r1, lsr #4
	bne	.LBB0_16
	b	.LBB0_14
.LBB0_14:
	.loc	2 95 40                         @ ../User/Bsp/VT13.c:95:40
	movw	r0, :lower16:VT13_Resovled.Key_Ctrl_Lock
	movt	r0, :upper16:VT13_Resovled.Key_Ctrl_Lock
	ldrb	r0, [r0]
.Ltmp14:
	.loc	2 95 12                         @ ../User/Bsp/VT13.c:95:12
	cmp	r0, #1
	bne	.LBB0_16
	b	.LBB0_15
.LBB0_15:
.Ltmp15:
	.loc	2 97 18 is_stmt 1               @ ../User/Bsp/VT13.c:97:18
	movw	r1, :lower16:VT13_Resovled.Key_Ctrl_Lock
	movt	r1, :upper16:VT13_Resovled.Key_Ctrl_Lock
	movs	r0, #0
	strb	r0, [r1]
	.loc	2 98 3                          @ ../User/Bsp/VT13.c:98:3
	b	.LBB0_16
.Ltmp16:
.LBB0_16:
	.loc	2 0 3 is_stmt 0                 @ ../User/Bsp/VT13.c:0:3
	b	.LBB0_17
.LBB0_17:
	.loc	2 100 22 is_stmt 1              @ ../User/Bsp/VT13.c:100:22
	ldr	r0, [sp, #20]
	.loc	2 100 45 is_stmt 0              @ ../User/Bsp/VT13.c:100:45
	ldrb	r0, [r0, #17]
	ubfx	r2, r0, #6, #1
	.loc	2 100 3                         @ ../User/Bsp/VT13.c:100:3
	ldr	r1, [sp, #24]
	.loc	2 100 20                        @ ../User/Bsp/VT13.c:100:20
	ldrb.w	r0, [r1, #71]
	and	r0, r0, #240
	add	r0, r2
	strb.w	r0, [r1, #71]
.Ltmp17:
	.loc	2 101 7 is_stmt 1               @ ../User/Bsp/VT13.c:101:7
	ldr	r0, [sp, #24]
	.loc	2 101 22 is_stmt 0              @ ../User/Bsp/VT13.c:101:22
	ldrb.w	r0, [r0, #71]
	and	r0, r0, #15
	.loc	2 101 29                        @ ../User/Bsp/VT13.c:101:29
	cmp	r0, #1
	bne	.LBB0_20
	b	.LBB0_18
.LBB0_18:
	.loc	2 101 32                        @ ../User/Bsp/VT13.c:101:32
	movw	r0, :lower16:VT13_Resovled.Key_Q_Lock
	movt	r0, :upper16:VT13_Resovled.Key_Q_Lock
	ldrb	r0, [r0]
.Ltmp18:
	.loc	2 101 7                         @ ../User/Bsp/VT13.c:101:7
	cbnz	r0, .LBB0_20
	b	.LBB0_19
.LBB0_19:
.Ltmp19:
	.loc	2 103 35 is_stmt 1              @ ../User/Bsp/VT13.c:103:35
	ldr	r2, [sp, #24]
	.loc	2 103 50 is_stmt 0              @ ../User/Bsp/VT13.c:103:50
	ldrb.w	r1, [r2, #80]
	movs	r0, #1
	.loc	2 103 34                        @ ../User/Bsp/VT13.c:103:34
	bic.w	r3, r0, r1, lsr #2
	.loc	2 103 32                        @ ../User/Bsp/VT13.c:103:32
	and	r1, r1, #251
	orr.w	r1, r1, r3, lsl #2
	strb.w	r1, [r2, #80]
	.loc	2 104 15 is_stmt 1              @ ../User/Bsp/VT13.c:104:15
	movw	r1, :lower16:VT13_Resovled.Key_Q_Lock
	movt	r1, :upper16:VT13_Resovled.Key_Q_Lock
	strb	r0, [r1]
	.loc	2 105 3                         @ ../User/Bsp/VT13.c:105:3
	b	.LBB0_24
.Ltmp20:
.LBB0_20:
	.loc	2 106 12                        @ ../User/Bsp/VT13.c:106:12
	ldr	r0, [sp, #24]
	.loc	2 106 27 is_stmt 0              @ ../User/Bsp/VT13.c:106:27
	ldrb.w	r0, [r0, #71]
	.loc	2 106 34                        @ ../User/Bsp/VT13.c:106:34
	lsls	r0, r0, #28
	cbnz	r0, .LBB0_23
	b	.LBB0_21
.LBB0_21:
	.loc	2 106 37                        @ ../User/Bsp/VT13.c:106:37
	movw	r0, :lower16:VT13_Resovled.Key_Q_Lock
	movt	r0, :upper16:VT13_Resovled.Key_Q_Lock
	ldrb	r0, [r0]
.Ltmp21:
	.loc	2 106 12                        @ ../User/Bsp/VT13.c:106:12
	cmp	r0, #1
	bne	.LBB0_23
	b	.LBB0_22
.LBB0_22:
.Ltmp22:
	.loc	2 108 15 is_stmt 1              @ ../User/Bsp/VT13.c:108:15
	movw	r1, :lower16:VT13_Resovled.Key_Q_Lock
	movt	r1, :upper16:VT13_Resovled.Key_Q_Lock
	movs	r0, #0
	strb	r0, [r1]
	.loc	2 109 3                         @ ../User/Bsp/VT13.c:109:3
	b	.LBB0_23
.Ltmp23:
.LBB0_23:
	.loc	2 0 3 is_stmt 0                 @ ../User/Bsp/VT13.c:0:3
	b	.LBB0_24
.LBB0_24:
	.loc	2 111 22 is_stmt 1              @ ../User/Bsp/VT13.c:111:22
	ldr	r0, [sp, #20]
	.loc	2 111 45 is_stmt 0              @ ../User/Bsp/VT13.c:111:45
	ldrb	r1, [r0, #17]
	movs	r0, #16
	and.w	r2, r0, r1, lsr #3
	.loc	2 111 3                         @ ../User/Bsp/VT13.c:111:3
	ldr	r1, [sp, #24]
	.loc	2 111 20                        @ ../User/Bsp/VT13.c:111:20
	ldrb.w	r0, [r1, #71]
	and	r0, r0, #15
	add	r0, r2
	strb.w	r0, [r1, #71]
.Ltmp24:
	.loc	2 112 7 is_stmt 1               @ ../User/Bsp/VT13.c:112:7
	ldr	r0, [sp, #24]
	.loc	2 112 22 is_stmt 0              @ ../User/Bsp/VT13.c:112:22
	ldrb.w	r1, [r0, #71]
	movs	r0, #1
	.loc	2 112 29                        @ ../User/Bsp/VT13.c:112:29
	cmp.w	r0, r1, lsr #4
	bne	.LBB0_27
	b	.LBB0_25
.LBB0_25:
	.loc	2 112 32                        @ ../User/Bsp/VT13.c:112:32
	movw	r0, :lower16:VT13_Resovled.Key_E_Lock
	movt	r0, :upper16:VT13_Resovled.Key_E_Lock
	ldrb	r0, [r0]
.Ltmp25:
	.loc	2 112 7                         @ ../User/Bsp/VT13.c:112:7
	cbnz	r0, .LBB0_27
	b	.LBB0_26
.LBB0_26:
.Ltmp26:
	.loc	2 114 35 is_stmt 1              @ ../User/Bsp/VT13.c:114:35
	ldr	r2, [sp, #24]
	.loc	2 114 50 is_stmt 0              @ ../User/Bsp/VT13.c:114:50
	ldrb.w	r1, [r2, #80]
	movs	r0, #1
	.loc	2 114 34                        @ ../User/Bsp/VT13.c:114:34
	bic.w	r3, r0, r1, lsr #3
	.loc	2 114 32                        @ ../User/Bsp/VT13.c:114:32
	and	r1, r1, #247
	orr.w	r1, r1, r3, lsl #3
	strb.w	r1, [r2, #80]
	.loc	2 115 15 is_stmt 1              @ ../User/Bsp/VT13.c:115:15
	movw	r1, :lower16:VT13_Resovled.Key_E_Lock
	movt	r1, :upper16:VT13_Resovled.Key_E_Lock
	strb	r0, [r1]
	.loc	2 116 3                         @ ../User/Bsp/VT13.c:116:3
	b	.LBB0_31
.Ltmp27:
.LBB0_27:
	.loc	2 117 12                        @ ../User/Bsp/VT13.c:117:12
	ldr	r0, [sp, #24]
	.loc	2 117 27 is_stmt 0              @ ../User/Bsp/VT13.c:117:27
	ldrb.w	r1, [r0, #71]
	movs	r0, #0
	.loc	2 117 34                        @ ../User/Bsp/VT13.c:117:34
	cmp.w	r0, r1, lsr #4
	bne	.LBB0_30
	b	.LBB0_28
.LBB0_28:
	.loc	2 117 37                        @ ../User/Bsp/VT13.c:117:37
	movw	r0, :lower16:VT13_Resovled.Key_E_Lock
	movt	r0, :upper16:VT13_Resovled.Key_E_Lock
	ldrb	r0, [r0]
.Ltmp28:
	.loc	2 117 12                        @ ../User/Bsp/VT13.c:117:12
	cmp	r0, #1
	bne	.LBB0_30
	b	.LBB0_29
.LBB0_29:
.Ltmp29:
	.loc	2 119 15 is_stmt 1              @ ../User/Bsp/VT13.c:119:15
	movw	r1, :lower16:VT13_Resovled.Key_E_Lock
	movt	r1, :upper16:VT13_Resovled.Key_E_Lock
	movs	r0, #0
	strb	r0, [r1]
	.loc	2 120 3                         @ ../User/Bsp/VT13.c:120:3
	b	.LBB0_30
.Ltmp30:
.LBB0_30:
	.loc	2 0 3 is_stmt 0                 @ ../User/Bsp/VT13.c:0:3
	b	.LBB0_31
.LBB0_31:
	.loc	2 122 22 is_stmt 1              @ ../User/Bsp/VT13.c:122:22
	ldr	r0, [sp, #20]
	.loc	2 122 45 is_stmt 0              @ ../User/Bsp/VT13.c:122:45
	ldrb	r0, [r0, #18]
	and	r2, r0, #1
	.loc	2 122 3                         @ ../User/Bsp/VT13.c:122:3
	ldr	r1, [sp, #24]
	.loc	2 122 20                        @ ../User/Bsp/VT13.c:122:20
	ldrb.w	r0, [r1, #72]
	and	r0, r0, #240
	add	r0, r2
	strb.w	r0, [r1, #72]
.Ltmp31:
	.loc	2 123 7 is_stmt 1               @ ../User/Bsp/VT13.c:123:7
	ldr	r0, [sp, #24]
	.loc	2 123 22 is_stmt 0              @ ../User/Bsp/VT13.c:123:22
	ldrb.w	r0, [r0, #72]
	and	r0, r0, #15
	.loc	2 123 29                        @ ../User/Bsp/VT13.c:123:29
	cmp	r0, #1
	bne	.LBB0_34
	b	.LBB0_32
.LBB0_32:
	.loc	2 123 32                        @ ../User/Bsp/VT13.c:123:32
	movw	r0, :lower16:VT13_Resovled.Key_R_Lock
	movt	r0, :upper16:VT13_Resovled.Key_R_Lock
	ldrb	r0, [r0]
.Ltmp32:
	.loc	2 123 7                         @ ../User/Bsp/VT13.c:123:7
	cbnz	r0, .LBB0_34
	b	.LBB0_33
.LBB0_33:
.Ltmp33:
	.loc	2 125 35 is_stmt 1              @ ../User/Bsp/VT13.c:125:35
	ldr	r2, [sp, #24]
	.loc	2 125 50 is_stmt 0              @ ../User/Bsp/VT13.c:125:50
	ldrb.w	r1, [r2, #80]
	movs	r0, #1
	.loc	2 125 34                        @ ../User/Bsp/VT13.c:125:34
	bic.w	r3, r0, r1, lsr #4
	.loc	2 125 32                        @ ../User/Bsp/VT13.c:125:32
	and	r1, r1, #239
	orr.w	r1, r1, r3, lsl #4
	strb.w	r1, [r2, #80]
	.loc	2 126 15 is_stmt 1              @ ../User/Bsp/VT13.c:126:15
	movw	r1, :lower16:VT13_Resovled.Key_R_Lock
	movt	r1, :upper16:VT13_Resovled.Key_R_Lock
	strb	r0, [r1]
	.loc	2 127 3                         @ ../User/Bsp/VT13.c:127:3
	b	.LBB0_38
.Ltmp34:
.LBB0_34:
	.loc	2 128 12                        @ ../User/Bsp/VT13.c:128:12
	ldr	r0, [sp, #24]
	.loc	2 128 27 is_stmt 0              @ ../User/Bsp/VT13.c:128:27
	ldrb.w	r0, [r0, #72]
	.loc	2 128 34                        @ ../User/Bsp/VT13.c:128:34
	lsls	r0, r0, #28
	cbnz	r0, .LBB0_37
	b	.LBB0_35
.LBB0_35:
	.loc	2 128 37                        @ ../User/Bsp/VT13.c:128:37
	movw	r0, :lower16:VT13_Resovled.Key_R_Lock
	movt	r0, :upper16:VT13_Resovled.Key_R_Lock
	ldrb	r0, [r0]
.Ltmp35:
	.loc	2 128 12                        @ ../User/Bsp/VT13.c:128:12
	cmp	r0, #1
	bne	.LBB0_37
	b	.LBB0_36
.LBB0_36:
.Ltmp36:
	.loc	2 130 15 is_stmt 1              @ ../User/Bsp/VT13.c:130:15
	movw	r1, :lower16:VT13_Resovled.Key_R_Lock
	movt	r1, :upper16:VT13_Resovled.Key_R_Lock
	movs	r0, #0
	strb	r0, [r1]
	.loc	2 131 3                         @ ../User/Bsp/VT13.c:131:3
	b	.LBB0_37
.Ltmp37:
.LBB0_37:
	.loc	2 0 3 is_stmt 0                 @ ../User/Bsp/VT13.c:0:3
	b	.LBB0_38
.LBB0_38:
	.loc	2 133 22 is_stmt 1              @ ../User/Bsp/VT13.c:133:22
	ldr	r0, [sp, #20]
	.loc	2 133 45 is_stmt 0              @ ../User/Bsp/VT13.c:133:45
	ldrb	r2, [r0, #18]
	.loc	2 133 3                         @ ../User/Bsp/VT13.c:133:3
	ldr	r1, [sp, #24]
	.loc	2 133 20                        @ ../User/Bsp/VT13.c:133:20
	ldrb.w	r0, [r1, #72]
	and	r2, r2, #2
	and	r0, r0, #15
	orr.w	r0, r0, r2, lsl #3
	strb.w	r0, [r1, #72]
.Ltmp38:
	.loc	2 134 7 is_stmt 1               @ ../User/Bsp/VT13.c:134:7
	ldr	r0, [sp, #24]
	.loc	2 134 22 is_stmt 0              @ ../User/Bsp/VT13.c:134:22
	ldrb.w	r1, [r0, #72]
	movs	r0, #1
	.loc	2 134 29                        @ ../User/Bsp/VT13.c:134:29
	cmp.w	r0, r1, lsr #4
	bne	.LBB0_44
	b	.LBB0_42
	.p2align	2
@ %bb.39:
	.loc	2 0 29                          @ ../User/Bsp/VT13.c:0:29
__arm_cp.0_3:
	.long	0x43fa0000                      @ float 500
.Lcpi_end0:
	.size	__arm_cp.0_3, .Lcpi_end0-__arm_cp.0_3
	.p2align	2
@ %bb.40:
__arm_cp.0_4:
	.long	0xbb449ba6                      @ float -0.00300000003
.Lcpi_end1:
	.size	__arm_cp.0_4, .Lcpi_end1-__arm_cp.0_4
	.p2align	2
@ %bb.41:
__arm_cp.0_5:
	.long	0x3b449ba6                      @ float 0.00300000003
.Lcpi_end2:
	.size	__arm_cp.0_5, .Lcpi_end2-__arm_cp.0_5
	.p2align	1
.LBB0_42:
	.loc	2 134 32                        @ ../User/Bsp/VT13.c:134:32
	movw	r0, :lower16:VT13_Resovled.Key_F_Lock
	movt	r0, :upper16:VT13_Resovled.Key_F_Lock
	ldrb	r0, [r0]
.Ltmp39:
	.loc	2 134 7                         @ ../User/Bsp/VT13.c:134:7
	cbnz	r0, .LBB0_44
	b	.LBB0_43
.LBB0_43:
.Ltmp40:
	.loc	2 136 35 is_stmt 1              @ ../User/Bsp/VT13.c:136:35
	ldr	r2, [sp, #24]
	.loc	2 136 50 is_stmt 0              @ ../User/Bsp/VT13.c:136:50
	ldrb.w	r1, [r2, #80]
	movs	r0, #1
	.loc	2 136 34                        @ ../User/Bsp/VT13.c:136:34
	bic.w	r3, r0, r1, lsr #5
	.loc	2 136 32                        @ ../User/Bsp/VT13.c:136:32
	and	r1, r1, #223
	orr.w	r1, r1, r3, lsl #5
	strb.w	r1, [r2, #80]
	.loc	2 137 15 is_stmt 1              @ ../User/Bsp/VT13.c:137:15
	movw	r1, :lower16:VT13_Resovled.Key_F_Lock
	movt	r1, :upper16:VT13_Resovled.Key_F_Lock
	strb	r0, [r1]
	.loc	2 138 3                         @ ../User/Bsp/VT13.c:138:3
	b	.LBB0_48
.Ltmp41:
.LBB0_44:
	.loc	2 139 12                        @ ../User/Bsp/VT13.c:139:12
	ldr	r0, [sp, #24]
	.loc	2 139 27 is_stmt 0              @ ../User/Bsp/VT13.c:139:27
	ldrb.w	r1, [r0, #72]
	movs	r0, #0
	.loc	2 139 34                        @ ../User/Bsp/VT13.c:139:34
	cmp.w	r0, r1, lsr #4
	bne	.LBB0_47
	b	.LBB0_45
.LBB0_45:
	.loc	2 139 37                        @ ../User/Bsp/VT13.c:139:37
	movw	r0, :lower16:VT13_Resovled.Key_F_Lock
	movt	r0, :upper16:VT13_Resovled.Key_F_Lock
	ldrb	r0, [r0]
.Ltmp42:
	.loc	2 139 12                        @ ../User/Bsp/VT13.c:139:12
	cmp	r0, #1
	bne	.LBB0_47
	b	.LBB0_46
.LBB0_46:
.Ltmp43:
	.loc	2 141 15 is_stmt 1              @ ../User/Bsp/VT13.c:141:15
	movw	r1, :lower16:VT13_Resovled.Key_F_Lock
	movt	r1, :upper16:VT13_Resovled.Key_F_Lock
	movs	r0, #0
	strb	r0, [r1]
	.loc	2 142 3                         @ ../User/Bsp/VT13.c:142:3
	b	.LBB0_47
.Ltmp44:
.LBB0_47:
	.loc	2 0 3 is_stmt 0                 @ ../User/Bsp/VT13.c:0:3
	b	.LBB0_48
.LBB0_48:
	.loc	2 144 22 is_stmt 1              @ ../User/Bsp/VT13.c:144:22
	ldr	r0, [sp, #20]
	.loc	2 144 45 is_stmt 0              @ ../User/Bsp/VT13.c:144:45
	ldrb	r2, [r0, #18]
	.loc	2 144 3                         @ ../User/Bsp/VT13.c:144:3
	ldr	r1, [sp, #24]
	.loc	2 144 20                        @ ../User/Bsp/VT13.c:144:20
	ldrb.w	r0, [r1, #73]
	and	r2, r2, #8
	and	r0, r0, #15
	orr.w	r0, r0, r2, lsl #1
	strb.w	r0, [r1, #73]
.Ltmp45:
	.loc	2 145 7 is_stmt 1               @ ../User/Bsp/VT13.c:145:7
	ldr	r0, [sp, #24]
	.loc	2 145 22 is_stmt 0              @ ../User/Bsp/VT13.c:145:22
	ldrb.w	r1, [r0, #73]
	movs	r0, #1
	.loc	2 145 29                        @ ../User/Bsp/VT13.c:145:29
	cmp.w	r0, r1, lsr #4
	bne	.LBB0_51
	b	.LBB0_49
.LBB0_49:
	.loc	2 145 32                        @ ../User/Bsp/VT13.c:145:32
	movw	r0, :lower16:VT13_Resovled.Key_Z_Lock
	movt	r0, :upper16:VT13_Resovled.Key_Z_Lock
	ldrb	r0, [r0]
.Ltmp46:
	.loc	2 145 7                         @ ../User/Bsp/VT13.c:145:7
	cbnz	r0, .LBB0_51
	b	.LBB0_50
.LBB0_50:
.Ltmp47:
	.loc	2 147 35 is_stmt 1              @ ../User/Bsp/VT13.c:147:35
	ldr	r2, [sp, #24]
	.loc	2 147 50 is_stmt 0              @ ../User/Bsp/VT13.c:147:50
	ldrb.w	r1, [r2, #80]
	movs	r0, #1
	.loc	2 147 34                        @ ../User/Bsp/VT13.c:147:34
	eor.w	r3, r0, r1, lsr #7
	.loc	2 147 32                        @ ../User/Bsp/VT13.c:147:32
	and	r1, r1, #127
	orr.w	r1, r1, r3, lsl #7
	strb.w	r1, [r2, #80]
	.loc	2 148 15 is_stmt 1              @ ../User/Bsp/VT13.c:148:15
	movw	r1, :lower16:VT13_Resovled.Key_Z_Lock
	movt	r1, :upper16:VT13_Resovled.Key_Z_Lock
	strb	r0, [r1]
	.loc	2 149 3                         @ ../User/Bsp/VT13.c:149:3
	b	.LBB0_55
.Ltmp48:
.LBB0_51:
	.loc	2 150 12                        @ ../User/Bsp/VT13.c:150:12
	ldr	r0, [sp, #24]
	.loc	2 150 27 is_stmt 0              @ ../User/Bsp/VT13.c:150:27
	ldrb.w	r1, [r0, #73]
	movs	r0, #0
	.loc	2 150 34                        @ ../User/Bsp/VT13.c:150:34
	cmp.w	r0, r1, lsr #4
	bne	.LBB0_54
	b	.LBB0_52
.LBB0_52:
	.loc	2 150 37                        @ ../User/Bsp/VT13.c:150:37
	movw	r0, :lower16:VT13_Resovled.Key_Z_Lock
	movt	r0, :upper16:VT13_Resovled.Key_Z_Lock
	ldrb	r0, [r0]
.Ltmp49:
	.loc	2 150 12                        @ ../User/Bsp/VT13.c:150:12
	cmp	r0, #1
	bne	.LBB0_54
	b	.LBB0_53
.LBB0_53:
.Ltmp50:
	.loc	2 152 15 is_stmt 1              @ ../User/Bsp/VT13.c:152:15
	movw	r1, :lower16:VT13_Resovled.Key_Z_Lock
	movt	r1, :upper16:VT13_Resovled.Key_Z_Lock
	movs	r0, #0
	strb	r0, [r1]
	.loc	2 153 3                         @ ../User/Bsp/VT13.c:153:3
	b	.LBB0_54
.Ltmp51:
.LBB0_54:
	.loc	2 0 3 is_stmt 0                 @ ../User/Bsp/VT13.c:0:3
	b	.LBB0_55
.LBB0_55:
	.loc	2 155 22 is_stmt 1              @ ../User/Bsp/VT13.c:155:22
	ldr	r0, [sp, #20]
	.loc	2 155 45 is_stmt 0              @ ../User/Bsp/VT13.c:155:45
	ldrb	r0, [r0, #18]
	ubfx	r2, r0, #2, #1
	.loc	2 155 3                         @ ../User/Bsp/VT13.c:155:3
	ldr	r1, [sp, #24]
	.loc	2 155 20                        @ ../User/Bsp/VT13.c:155:20
	ldrb.w	r0, [r1, #73]
	and	r0, r0, #240
	add	r0, r2
	strb.w	r0, [r1, #73]
.Ltmp52:
	.loc	2 156 7 is_stmt 1               @ ../User/Bsp/VT13.c:156:7
	ldr	r0, [sp, #24]
	.loc	2 156 22 is_stmt 0              @ ../User/Bsp/VT13.c:156:22
	ldrb.w	r0, [r0, #73]
	and	r0, r0, #15
	.loc	2 156 29                        @ ../User/Bsp/VT13.c:156:29
	cmp	r0, #1
	bne	.LBB0_58
	b	.LBB0_56
.LBB0_56:
	.loc	2 156 32                        @ ../User/Bsp/VT13.c:156:32
	movw	r0, :lower16:VT13_Resovled.Key_G_Lock
	movt	r0, :upper16:VT13_Resovled.Key_G_Lock
	ldrb	r0, [r0]
.Ltmp53:
	.loc	2 156 7                         @ ../User/Bsp/VT13.c:156:7
	cbnz	r0, .LBB0_58
	b	.LBB0_57
.LBB0_57:
.Ltmp54:
	.loc	2 158 35 is_stmt 1              @ ../User/Bsp/VT13.c:158:35
	ldr	r2, [sp, #24]
	.loc	2 158 50 is_stmt 0              @ ../User/Bsp/VT13.c:158:50
	ldrb.w	r1, [r2, #80]
	movs	r0, #1
	.loc	2 158 34                        @ ../User/Bsp/VT13.c:158:34
	bic.w	r3, r0, r1, lsr #6
	.loc	2 158 32                        @ ../User/Bsp/VT13.c:158:32
	and	r1, r1, #191
	orr.w	r1, r1, r3, lsl #6
	strb.w	r1, [r2, #80]
	.loc	2 159 15 is_stmt 1              @ ../User/Bsp/VT13.c:159:15
	movw	r1, :lower16:VT13_Resovled.Key_G_Lock
	movt	r1, :upper16:VT13_Resovled.Key_G_Lock
	strb	r0, [r1]
	.loc	2 160 3                         @ ../User/Bsp/VT13.c:160:3
	b	.LBB0_62
.Ltmp55:
.LBB0_58:
	.loc	2 161 12                        @ ../User/Bsp/VT13.c:161:12
	ldr	r0, [sp, #24]
	.loc	2 161 27 is_stmt 0              @ ../User/Bsp/VT13.c:161:27
	ldrb.w	r0, [r0, #73]
	.loc	2 161 34                        @ ../User/Bsp/VT13.c:161:34
	lsls	r0, r0, #28
	cbnz	r0, .LBB0_61
	b	.LBB0_59
.LBB0_59:
	.loc	2 161 37                        @ ../User/Bsp/VT13.c:161:37
	movw	r0, :lower16:VT13_Resovled.Key_G_Lock
	movt	r0, :upper16:VT13_Resovled.Key_G_Lock
	ldrb	r0, [r0]
.Ltmp56:
	.loc	2 161 12                        @ ../User/Bsp/VT13.c:161:12
	cmp	r0, #1
	bne	.LBB0_61
	b	.LBB0_60
.LBB0_60:
.Ltmp57:
	.loc	2 163 15 is_stmt 1              @ ../User/Bsp/VT13.c:163:15
	movw	r1, :lower16:VT13_Resovled.Key_G_Lock
	movt	r1, :upper16:VT13_Resovled.Key_G_Lock
	movs	r0, #0
	strb	r0, [r1]
	.loc	2 164 3                         @ ../User/Bsp/VT13.c:164:3
	b	.LBB0_61
.Ltmp58:
.LBB0_61:
	.loc	2 0 3 is_stmt 0                 @ ../User/Bsp/VT13.c:0:3
	b	.LBB0_62
.LBB0_62:
	.loc	2 166 22 is_stmt 1              @ ../User/Bsp/VT13.c:166:22
	ldr	r0, [sp, #20]
	.loc	2 166 45 is_stmt 0              @ ../User/Bsp/VT13.c:166:45
	ldrb	r0, [r0, #18]
	ubfx	r2, r0, #4, #1
	.loc	2 166 3                         @ ../User/Bsp/VT13.c:166:3
	ldr	r1, [sp, #24]
	.loc	2 166 20                        @ ../User/Bsp/VT13.c:166:20
	ldrb.w	r0, [r1, #74]
	and	r0, r0, #240
	add	r0, r2
	strb.w	r0, [r1, #74]
.Ltmp59:
	.loc	2 167 7 is_stmt 1               @ ../User/Bsp/VT13.c:167:7
	ldr	r0, [sp, #24]
	.loc	2 167 22 is_stmt 0              @ ../User/Bsp/VT13.c:167:22
	ldrb.w	r0, [r0, #74]
	and	r0, r0, #15
	.loc	2 167 29                        @ ../User/Bsp/VT13.c:167:29
	cmp	r0, #1
	bne	.LBB0_65
	b	.LBB0_63
.LBB0_63:
	.loc	2 167 32                        @ ../User/Bsp/VT13.c:167:32
	movw	r0, :lower16:VT13_Resovled.Key_X_Lock
	movt	r0, :upper16:VT13_Resovled.Key_X_Lock
	ldrb	r0, [r0]
.Ltmp60:
	.loc	2 167 7                         @ ../User/Bsp/VT13.c:167:7
	cbnz	r0, .LBB0_65
	b	.LBB0_64
.LBB0_64:
.Ltmp61:
	.loc	2 169 35 is_stmt 1              @ ../User/Bsp/VT13.c:169:35
	ldr	r2, [sp, #24]
	.loc	2 169 50 is_stmt 0              @ ../User/Bsp/VT13.c:169:50
	ldrb.w	r1, [r2, #81]
	movs	r0, #1
	.loc	2 169 34                        @ ../User/Bsp/VT13.c:169:34
	bic.w	r3, r0, r1
	.loc	2 169 32                        @ ../User/Bsp/VT13.c:169:32
	and	r1, r1, #254
	add	r1, r3
	strb.w	r1, [r2, #81]
	.loc	2 170 15 is_stmt 1              @ ../User/Bsp/VT13.c:170:15
	movw	r1, :lower16:VT13_Resovled.Key_X_Lock
	movt	r1, :upper16:VT13_Resovled.Key_X_Lock
	strb	r0, [r1]
	.loc	2 171 3                         @ ../User/Bsp/VT13.c:171:3
	b	.LBB0_69
.Ltmp62:
.LBB0_65:
	.loc	2 172 12                        @ ../User/Bsp/VT13.c:172:12
	ldr	r0, [sp, #24]
	.loc	2 172 27 is_stmt 0              @ ../User/Bsp/VT13.c:172:27
	ldrb.w	r0, [r0, #74]
	.loc	2 172 34                        @ ../User/Bsp/VT13.c:172:34
	lsls	r0, r0, #28
	cbnz	r0, .LBB0_68
	b	.LBB0_66
.LBB0_66:
	.loc	2 172 37                        @ ../User/Bsp/VT13.c:172:37
	movw	r0, :lower16:VT13_Resovled.Key_X_Lock
	movt	r0, :upper16:VT13_Resovled.Key_X_Lock
	ldrb	r0, [r0]
.Ltmp63:
	.loc	2 172 12                        @ ../User/Bsp/VT13.c:172:12
	cmp	r0, #1
	bne	.LBB0_68
	b	.LBB0_67
.LBB0_67:
.Ltmp64:
	.loc	2 174 15 is_stmt 1              @ ../User/Bsp/VT13.c:174:15
	movw	r1, :lower16:VT13_Resovled.Key_X_Lock
	movt	r1, :upper16:VT13_Resovled.Key_X_Lock
	movs	r0, #0
	strb	r0, [r1]
	.loc	2 175 3                         @ ../User/Bsp/VT13.c:175:3
	b	.LBB0_68
.Ltmp65:
.LBB0_68:
	.loc	2 0 3 is_stmt 0                 @ ../User/Bsp/VT13.c:0:3
	b	.LBB0_69
.LBB0_69:
	.loc	2 177 22 is_stmt 1              @ ../User/Bsp/VT13.c:177:22
	ldr	r0, [sp, #20]
	.loc	2 177 45 is_stmt 0              @ ../User/Bsp/VT13.c:177:45
	ldrb	r3, [r0, #18]
	.loc	2 177 3                         @ ../User/Bsp/VT13.c:177:3
	ldr	r1, [sp, #24]
	.loc	2 177 20                        @ ../User/Bsp/VT13.c:177:20
	ldrb.w	r0, [r1, #74]
	movs	r2, #16
	and.w	r2, r2, r3, lsr #1
	and	r0, r0, #15
	add	r0, r2
	strb.w	r0, [r1, #74]
.Ltmp66:
	.loc	2 178 7 is_stmt 1               @ ../User/Bsp/VT13.c:178:7
	ldr	r0, [sp, #24]
	.loc	2 178 22 is_stmt 0              @ ../User/Bsp/VT13.c:178:22
	ldrb.w	r1, [r0, #74]
	movs	r0, #1
	.loc	2 178 29                        @ ../User/Bsp/VT13.c:178:29
	cmp.w	r0, r1, lsr #4
	bne	.LBB0_72
	b	.LBB0_70
.LBB0_70:
	.loc	2 178 32                        @ ../User/Bsp/VT13.c:178:32
	movw	r0, :lower16:VT13_Resovled.Key_C_Lock
	movt	r0, :upper16:VT13_Resovled.Key_C_Lock
	ldrb	r0, [r0]
.Ltmp67:
	.loc	2 178 7                         @ ../User/Bsp/VT13.c:178:7
	cbnz	r0, .LBB0_72
	b	.LBB0_71
.LBB0_71:
.Ltmp68:
	.loc	2 180 35 is_stmt 1              @ ../User/Bsp/VT13.c:180:35
	ldr	r2, [sp, #24]
	.loc	2 180 50 is_stmt 0              @ ../User/Bsp/VT13.c:180:50
	ldrb.w	r1, [r2, #81]
	movs	r0, #1
	.loc	2 180 34                        @ ../User/Bsp/VT13.c:180:34
	bic.w	r3, r0, r1, lsr #1
	.loc	2 180 32                        @ ../User/Bsp/VT13.c:180:32
	and	r1, r1, #253
	orr.w	r1, r1, r3, lsl #1
	strb.w	r1, [r2, #81]
	.loc	2 181 15 is_stmt 1              @ ../User/Bsp/VT13.c:181:15
	movw	r1, :lower16:VT13_Resovled.Key_C_Lock
	movt	r1, :upper16:VT13_Resovled.Key_C_Lock
	strb	r0, [r1]
	.loc	2 182 3                         @ ../User/Bsp/VT13.c:182:3
	b	.LBB0_76
.Ltmp69:
.LBB0_72:
	.loc	2 183 12                        @ ../User/Bsp/VT13.c:183:12
	ldr	r0, [sp, #24]
	.loc	2 183 27 is_stmt 0              @ ../User/Bsp/VT13.c:183:27
	ldrb.w	r1, [r0, #74]
	movs	r0, #0
	.loc	2 183 34                        @ ../User/Bsp/VT13.c:183:34
	cmp.w	r0, r1, lsr #4
	bne	.LBB0_75
	b	.LBB0_73
.LBB0_73:
	.loc	2 183 37                        @ ../User/Bsp/VT13.c:183:37
	movw	r0, :lower16:VT13_Resovled.Key_C_Lock
	movt	r0, :upper16:VT13_Resovled.Key_C_Lock
	ldrb	r0, [r0]
.Ltmp70:
	.loc	2 183 12                        @ ../User/Bsp/VT13.c:183:12
	cmp	r0, #1
	bne	.LBB0_75
	b	.LBB0_74
.LBB0_74:
.Ltmp71:
	.loc	2 185 15 is_stmt 1              @ ../User/Bsp/VT13.c:185:15
	movw	r1, :lower16:VT13_Resovled.Key_C_Lock
	movt	r1, :upper16:VT13_Resovled.Key_C_Lock
	movs	r0, #0
	strb	r0, [r1]
	.loc	2 186 3                         @ ../User/Bsp/VT13.c:186:3
	b	.LBB0_75
.Ltmp72:
.LBB0_75:
	.loc	2 0 3 is_stmt 0                 @ ../User/Bsp/VT13.c:0:3
	b	.LBB0_76
.LBB0_76:
	.loc	2 188 22 is_stmt 1              @ ../User/Bsp/VT13.c:188:22
	ldr	r0, [sp, #20]
	.loc	2 188 45 is_stmt 0              @ ../User/Bsp/VT13.c:188:45
	ldrb	r0, [r0, #18]
	ubfx	r2, r0, #6, #1
	.loc	2 188 3                         @ ../User/Bsp/VT13.c:188:3
	ldr	r1, [sp, #24]
	.loc	2 188 20                        @ ../User/Bsp/VT13.c:188:20
	ldrb.w	r0, [r1, #75]
	and	r0, r0, #240
	add	r0, r2
	strb.w	r0, [r1, #75]
.Ltmp73:
	.loc	2 189 7 is_stmt 1               @ ../User/Bsp/VT13.c:189:7
	ldr	r0, [sp, #24]
	.loc	2 189 22 is_stmt 0              @ ../User/Bsp/VT13.c:189:22
	ldrb.w	r0, [r0, #75]
	and	r0, r0, #15
	.loc	2 189 29                        @ ../User/Bsp/VT13.c:189:29
	cmp	r0, #1
	bne	.LBB0_79
	b	.LBB0_77
.LBB0_77:
	.loc	2 189 32                        @ ../User/Bsp/VT13.c:189:32
	movw	r0, :lower16:VT13_Resovled.Key_V_Lock
	movt	r0, :upper16:VT13_Resovled.Key_V_Lock
	ldrb	r0, [r0]
.Ltmp74:
	.loc	2 189 7                         @ ../User/Bsp/VT13.c:189:7
	cbnz	r0, .LBB0_79
	b	.LBB0_78
.LBB0_78:
.Ltmp75:
	.loc	2 191 35 is_stmt 1              @ ../User/Bsp/VT13.c:191:35
	ldr	r2, [sp, #24]
	.loc	2 191 50 is_stmt 0              @ ../User/Bsp/VT13.c:191:50
	ldrb.w	r1, [r2, #81]
	movs	r0, #1
	.loc	2 191 34                        @ ../User/Bsp/VT13.c:191:34
	bic.w	r3, r0, r1, lsr #2
	.loc	2 191 32                        @ ../User/Bsp/VT13.c:191:32
	and	r1, r1, #251
	orr.w	r1, r1, r3, lsl #2
	strb.w	r1, [r2, #81]
	.loc	2 192 15 is_stmt 1              @ ../User/Bsp/VT13.c:192:15
	movw	r1, :lower16:VT13_Resovled.Key_V_Lock
	movt	r1, :upper16:VT13_Resovled.Key_V_Lock
	strb	r0, [r1]
	.loc	2 193 3                         @ ../User/Bsp/VT13.c:193:3
	b	.LBB0_83
.Ltmp76:
.LBB0_79:
	.loc	2 194 12                        @ ../User/Bsp/VT13.c:194:12
	ldr	r0, [sp, #24]
	.loc	2 194 27 is_stmt 0              @ ../User/Bsp/VT13.c:194:27
	ldrb.w	r0, [r0, #75]
	.loc	2 194 34                        @ ../User/Bsp/VT13.c:194:34
	lsls	r0, r0, #28
	cbnz	r0, .LBB0_82
	b	.LBB0_80
.LBB0_80:
	.loc	2 194 37                        @ ../User/Bsp/VT13.c:194:37
	movw	r0, :lower16:VT13_Resovled.Key_V_Lock
	movt	r0, :upper16:VT13_Resovled.Key_V_Lock
	ldrb	r0, [r0]
.Ltmp77:
	.loc	2 194 12                        @ ../User/Bsp/VT13.c:194:12
	cmp	r0, #1
	bne	.LBB0_82
	b	.LBB0_81
.LBB0_81:
.Ltmp78:
	.loc	2 196 15 is_stmt 1              @ ../User/Bsp/VT13.c:196:15
	movw	r1, :lower16:VT13_Resovled.Key_V_Lock
	movt	r1, :upper16:VT13_Resovled.Key_V_Lock
	movs	r0, #0
	strb	r0, [r1]
	.loc	2 197 3                         @ ../User/Bsp/VT13.c:197:3
	b	.LBB0_82
.Ltmp79:
.LBB0_82:
	.loc	2 0 3 is_stmt 0                 @ ../User/Bsp/VT13.c:0:3
	b	.LBB0_83
.LBB0_83:
	.loc	2 199 22 is_stmt 1              @ ../User/Bsp/VT13.c:199:22
	ldr	r0, [sp, #20]
	.loc	2 199 45 is_stmt 0              @ ../User/Bsp/VT13.c:199:45
	ldrb	r1, [r0, #18]
	movs	r0, #16
	and.w	r2, r0, r1, lsr #3
	.loc	2 199 3                         @ ../User/Bsp/VT13.c:199:3
	ldr	r1, [sp, #24]
	.loc	2 199 20                        @ ../User/Bsp/VT13.c:199:20
	ldrb.w	r0, [r1, #75]
	and	r0, r0, #15
	add	r0, r2
	strb.w	r0, [r1, #75]
.Ltmp80:
	.loc	2 200 7 is_stmt 1               @ ../User/Bsp/VT13.c:200:7
	ldr	r0, [sp, #24]
	.loc	2 200 22 is_stmt 0              @ ../User/Bsp/VT13.c:200:22
	ldrb.w	r1, [r0, #75]
	movs	r0, #1
	.loc	2 200 29                        @ ../User/Bsp/VT13.c:200:29
	cmp.w	r0, r1, lsr #4
	bne	.LBB0_86
	b	.LBB0_84
.LBB0_84:
	.loc	2 200 32                        @ ../User/Bsp/VT13.c:200:32
	movw	r0, :lower16:VT13_Resovled.Key_B_Lock
	movt	r0, :upper16:VT13_Resovled.Key_B_Lock
	ldrb	r0, [r0]
.Ltmp81:
	.loc	2 200 7                         @ ../User/Bsp/VT13.c:200:7
	cbnz	r0, .LBB0_86
	b	.LBB0_85
.LBB0_85:
.Ltmp82:
	.loc	2 202 35 is_stmt 1              @ ../User/Bsp/VT13.c:202:35
	ldr	r2, [sp, #24]
	.loc	2 202 50 is_stmt 0              @ ../User/Bsp/VT13.c:202:50
	ldrb.w	r1, [r2, #81]
	movs	r0, #1
	.loc	2 202 34                        @ ../User/Bsp/VT13.c:202:34
	bic.w	r3, r0, r1, lsr #3
	.loc	2 202 32                        @ ../User/Bsp/VT13.c:202:32
	and	r1, r1, #247
	orr.w	r1, r1, r3, lsl #3
	strb.w	r1, [r2, #81]
	.loc	2 203 15 is_stmt 1              @ ../User/Bsp/VT13.c:203:15
	movw	r1, :lower16:VT13_Resovled.Key_B_Lock
	movt	r1, :upper16:VT13_Resovled.Key_B_Lock
	strb	r0, [r1]
	.loc	2 204 3                         @ ../User/Bsp/VT13.c:204:3
	b	.LBB0_90
.Ltmp83:
.LBB0_86:
	.loc	2 205 12                        @ ../User/Bsp/VT13.c:205:12
	ldr	r0, [sp, #24]
	.loc	2 205 27 is_stmt 0              @ ../User/Bsp/VT13.c:205:27
	ldrb.w	r1, [r0, #75]
	movs	r0, #0
	.loc	2 205 34                        @ ../User/Bsp/VT13.c:205:34
	cmp.w	r0, r1, lsr #4
	bne	.LBB0_89
	b	.LBB0_87
.LBB0_87:
	.loc	2 205 37                        @ ../User/Bsp/VT13.c:205:37
	movw	r0, :lower16:VT13_Resovled.Key_B_Lock
	movt	r0, :upper16:VT13_Resovled.Key_B_Lock
	ldrb	r0, [r0]
.Ltmp84:
	.loc	2 205 12                        @ ../User/Bsp/VT13.c:205:12
	cmp	r0, #1
	bne	.LBB0_89
	b	.LBB0_88
.LBB0_88:
.Ltmp85:
	.loc	2 207 15 is_stmt 1              @ ../User/Bsp/VT13.c:207:15
	movw	r1, :lower16:VT13_Resovled.Key_B_Lock
	movt	r1, :upper16:VT13_Resovled.Key_B_Lock
	movs	r0, #0
	strb	r0, [r1]
	.loc	2 208 3                         @ ../User/Bsp/VT13.c:208:3
	b	.LBB0_89
.Ltmp86:
.LBB0_89:
	.loc	2 0 3 is_stmt 0                 @ ../User/Bsp/VT13.c:0:3
	b	.LBB0_90
.LBB0_90:
.Ltmp87:
	.loc	2 211 7 is_stmt 1               @ ../User/Bsp/VT13.c:211:7
	ldr	r0, [sp, #20]
	.loc	2 211 30 is_stmt 0              @ ../User/Bsp/VT13.c:211:30
	ldrb	r0, [r0, #16]
	and	r0, r0, #3
.Ltmp88:
	.loc	2 211 7                         @ ../User/Bsp/VT13.c:211:7
	cmp	r0, #1
	bne	.LBB0_94
	b	.LBB0_91
.LBB0_91:
.Ltmp89:
	.loc	2 213 4 is_stmt 1               @ ../User/Bsp/VT13.c:213:4
	ldr	r1, [sp, #24]
	.loc	2 213 27 is_stmt 0              @ ../User/Bsp/VT13.c:213:27
	ldr	r0, [r1, #60]
	adds	r0, #1
	str	r0, [r1, #60]
.Ltmp90:
	.loc	2 215 8 is_stmt 1               @ ../User/Bsp/VT13.c:215:8
	ldr	r0, [sp, #24]
	.loc	2 215 20 is_stmt 0              @ ../User/Bsp/VT13.c:215:20
	ldr	r0, [r0, #60]
.Ltmp91:
	.loc	2 215 8                         @ ../User/Bsp/VT13.c:215:8
	cmp	r0, #251
	blo	.LBB0_93
	b	.LBB0_92
.LBB0_92:
.Ltmp92:
	.loc	2 216 6 is_stmt 1               @ ../User/Bsp/VT13.c:216:6
	ldr	r1, [sp, #24]
	movs	r0, #20
	.loc	2 216 30 is_stmt 0              @ ../User/Bsp/VT13.c:216:30
	str	r0, [r1, #60]
	.loc	2 216 35                        @ ../User/Bsp/VT13.c:216:35
	b	.LBB0_93
.Ltmp93:
.LBB0_93:
	.loc	2 217 3 is_stmt 1               @ ../User/Bsp/VT13.c:217:3
	b	.LBB0_97
.Ltmp94:
.LBB0_94:
	.loc	2 218 12                        @ ../User/Bsp/VT13.c:218:12
	ldr	r0, [sp, #20]
	.loc	2 218 35 is_stmt 0              @ ../User/Bsp/VT13.c:218:35
	ldrb	r0, [r0, #16]
.Ltmp95:
	.loc	2 218 12                        @ ../User/Bsp/VT13.c:218:12
	lsls	r0, r0, #30
	cbnz	r0, .LBB0_96
	b	.LBB0_95
.LBB0_95:
.Ltmp96:
	.loc	2 220 4 is_stmt 1               @ ../User/Bsp/VT13.c:220:4
	ldr	r1, [sp, #24]
	movs	r0, #0
	.loc	2 220 28 is_stmt 0              @ ../User/Bsp/VT13.c:220:28
	str	r0, [r1, #60]
	.loc	2 221 3 is_stmt 1               @ ../User/Bsp/VT13.c:221:3
	b	.LBB0_96
.Ltmp97:
.LBB0_96:
	.loc	2 0 3 is_stmt 0                 @ ../User/Bsp/VT13.c:0:3
	b	.LBB0_97
.LBB0_97:
.Ltmp98:
	.loc	2 224 7 is_stmt 1               @ ../User/Bsp/VT13.c:224:7
	ldr	r0, [sp, #20]
	.loc	2 224 30 is_stmt 0              @ ../User/Bsp/VT13.c:224:30
	ldrb	r0, [r0, #16]
	ubfx	r0, r0, #2, #2
.Ltmp99:
	.loc	2 224 7                         @ ../User/Bsp/VT13.c:224:7
	cmp	r0, #1
	bne	.LBB0_101
	b	.LBB0_98
.LBB0_98:
.Ltmp100:
	.loc	2 226 4 is_stmt 1               @ ../User/Bsp/VT13.c:226:4
	ldr	r1, [sp, #24]
	.loc	2 226 27 is_stmt 0              @ ../User/Bsp/VT13.c:226:27
	ldr	r0, [r1, #56]
	adds	r0, #1
	str	r0, [r1, #56]
.Ltmp101:
	.loc	2 228 8 is_stmt 1               @ ../User/Bsp/VT13.c:228:8
	ldr	r0, [sp, #24]
	.loc	2 228 20 is_stmt 0              @ ../User/Bsp/VT13.c:228:20
	ldr	r0, [r0, #56]
.Ltmp102:
	.loc	2 228 8                         @ ../User/Bsp/VT13.c:228:8
	cmp	r0, #251
	blo	.LBB0_100
	b	.LBB0_99
.LBB0_99:
.Ltmp103:
	.loc	2 230 6 is_stmt 1               @ ../User/Bsp/VT13.c:230:6
	ldr	r1, [sp, #24]
	movs	r0, #0
	.loc	2 230 30 is_stmt 0              @ ../User/Bsp/VT13.c:230:30
	str	r0, [r1, #56]
	.loc	2 231 5 is_stmt 1               @ ../User/Bsp/VT13.c:231:5
	b	.LBB0_100
.Ltmp104:
.LBB0_100:
	.loc	2 232 3                         @ ../User/Bsp/VT13.c:232:3
	b	.LBB0_104
.Ltmp105:
.LBB0_101:
	.loc	2 234 12                        @ ../User/Bsp/VT13.c:234:12
	ldr	r0, [sp, #20]
	.loc	2 234 35 is_stmt 0              @ ../User/Bsp/VT13.c:234:35
	ldrb	r0, [r0, #16]
	lsrs	r0, r0, #2
.Ltmp106:
	.loc	2 234 12                        @ ../User/Bsp/VT13.c:234:12
	lsls	r0, r0, #30
	cbnz	r0, .LBB0_103
	b	.LBB0_102
.LBB0_102:
.Ltmp107:
	.loc	2 236 6 is_stmt 1               @ ../User/Bsp/VT13.c:236:6
	ldr	r1, [sp, #24]
	movs	r0, #0
	.loc	2 236 30 is_stmt 0              @ ../User/Bsp/VT13.c:236:30
	str	r0, [r1, #56]
	.loc	2 237 3 is_stmt 1               @ ../User/Bsp/VT13.c:237:3
	b	.LBB0_103
.Ltmp108:
.LBB0_103:
	.loc	2 0 3 is_stmt 0                 @ ../User/Bsp/VT13.c:0:3
	b	.LBB0_104
.LBB0_104:
.Ltmp109:
	.loc	2 239 7 is_stmt 1               @ ../User/Bsp/VT13.c:239:7
	ldr	r0, [sp, #20]
	.loc	2 239 30 is_stmt 0              @ ../User/Bsp/VT13.c:239:30
	ldrb	r0, [r0, #16]
	ubfx	r0, r0, #4, #2
.Ltmp110:
	.loc	2 239 7                         @ ../User/Bsp/VT13.c:239:7
	cmp	r0, #1
	bne	.LBB0_108
	b	.LBB0_105
.LBB0_105:
.Ltmp111:
	.loc	2 241 4 is_stmt 1               @ ../User/Bsp/VT13.c:241:4
	ldr	r1, [sp, #24]
	.loc	2 241 27 is_stmt 0              @ ../User/Bsp/VT13.c:241:27
	ldr	r0, [r1, #64]
	adds	r0, #1
	str	r0, [r1, #64]
.Ltmp112:
	.loc	2 243 8 is_stmt 1               @ ../User/Bsp/VT13.c:243:8
	ldr	r0, [sp, #24]
	.loc	2 243 20 is_stmt 0              @ ../User/Bsp/VT13.c:243:20
	ldr	r0, [r0, #64]
.Ltmp113:
	.loc	2 243 8                         @ ../User/Bsp/VT13.c:243:8
	cmp	r0, #251
	blo	.LBB0_107
	b	.LBB0_106
.LBB0_106:
.Ltmp114:
	.loc	2 245 6 is_stmt 1               @ ../User/Bsp/VT13.c:245:6
	ldr	r1, [sp, #24]
	movs	r0, #0
	.loc	2 245 30 is_stmt 0              @ ../User/Bsp/VT13.c:245:30
	str	r0, [r1, #64]
	.loc	2 246 5 is_stmt 1               @ ../User/Bsp/VT13.c:246:5
	b	.LBB0_107
.Ltmp115:
.LBB0_107:
	.loc	2 247 3                         @ ../User/Bsp/VT13.c:247:3
	b	.LBB0_111
.Ltmp116:
.LBB0_108:
	.loc	2 248 12                        @ ../User/Bsp/VT13.c:248:12
	ldr	r0, [sp, #20]
	.loc	2 248 35 is_stmt 0              @ ../User/Bsp/VT13.c:248:35
	ldrb	r0, [r0, #16]
	lsrs	r0, r0, #4
.Ltmp117:
	.loc	2 248 12                        @ ../User/Bsp/VT13.c:248:12
	lsls	r0, r0, #30
	cbnz	r0, .LBB0_110
	b	.LBB0_109
.LBB0_109:
.Ltmp118:
	.loc	2 250 6 is_stmt 1               @ ../User/Bsp/VT13.c:250:6
	ldr	r1, [sp, #24]
	movs	r0, #0
	.loc	2 250 30 is_stmt 0              @ ../User/Bsp/VT13.c:250:30
	str	r0, [r1, #64]
	.loc	2 251 3 is_stmt 1               @ ../User/Bsp/VT13.c:251:3
	b	.LBB0_110
.Ltmp119:
.LBB0_110:
	.loc	2 0 3 is_stmt 0                 @ ../User/Bsp/VT13.c:0:3
	b	.LBB0_111
.LBB0_111:
	.loc	2 252 2 is_stmt 1               @ ../User/Bsp/VT13.c:252:2
	b	.LBB0_113
.Ltmp120:
.LBB0_112:
	.loc	2 255 3                         @ ../User/Bsp/VT13.c:255:3
	ldr	r1, [sp, #24]
	movs	r0, #0
	.loc	2 255 18 is_stmt 0              @ ../User/Bsp/VT13.c:255:18
	strb	r0, [r1, #1]
	b	.LBB0_113
.Ltmp121:
.LBB0_113:
	.loc	2 257 1 is_stmt 1               @ ../User/Bsp/VT13.c:257:1
	add	sp, #32
	pop	{r7, pc}
.Ltmp122:
@ %bb.114:
.Lfunc_end0:
	.size	VT13_Resovled, .Lfunc_end0-VT13_Resovled
	.cfi_endproc
	.cantunwind
	.fnend
                                        @ -- End function
	.section	.text.verify_crc16_check_sum,"ax",%progbits
	.hidden	verify_crc16_check_sum          @ -- Begin function verify_crc16_check_sum
	.globl	verify_crc16_check_sum
	.p2align	2
	.type	verify_crc16_check_sum,%function
	.code	16                              @ @verify_crc16_check_sum
	.thumb_func
verify_crc16_check_sum:
.Lfunc_begin1:
	.loc	2 294 0                         @ ../User/Bsp/VT13.c:294:0
	.fnstart
	.cfi_startproc
@ %bb.0:
	.save	{r7, lr}
	push	{r7, lr}
	.cfi_def_cfa_offset 8
	.cfi_offset lr, -4
	.cfi_offset r7, -8
	.pad	#16
	sub	sp, #16
	.cfi_def_cfa_offset 24
                                        @ kill: def $r2 killed $r1
	str	r0, [sp, #8]
	strh.w	r1, [sp, #6]
	movs	r0, #0
.Ltmp123:
	.loc	2 295 14 prologue_end           @ ../User/Bsp/VT13.c:295:14
	strh.w	r0, [sp, #4]
.Ltmp124:
	.loc	2 297 9                         @ ../User/Bsp/VT13.c:297:9
	ldr	r0, [sp, #8]
	.loc	2 297 21 is_stmt 0              @ ../User/Bsp/VT13.c:297:21
	cbz	r0, .LBB1_2
	b	.LBB1_1
.LBB1_1:
	.loc	2 297 25                        @ ../User/Bsp/VT13.c:297:25
	ldrh.w	r0, [sp, #6]
.Ltmp125:
	.loc	2 297 8                         @ ../User/Bsp/VT13.c:297:8
	cmp	r0, #2
	bgt	.LBB1_3
	b	.LBB1_2
.LBB1_2:
	.loc	2 0 8                           @ ../User/Bsp/VT13.c:0:8
	movs	r0, #0
.Ltmp126:
	.loc	2 299 9 is_stmt 1               @ ../User/Bsp/VT13.c:299:9
	strb.w	r0, [sp, #15]
	b	.LBB1_6
.Ltmp127:
.LBB1_3:
	.loc	2 301 38                        @ ../User/Bsp/VT13.c:301:38
	ldr	r0, [sp, #8]
	.loc	2 301 45 is_stmt 0              @ ../User/Bsp/VT13.c:301:45
	ldrh.w	r1, [sp, #6]
	.loc	2 301 49                        @ ../User/Bsp/VT13.c:301:49
	subs	r1, #2
	.loc	2 301 54                        @ ../User/Bsp/VT13.c:301:54
	movw	r2, :lower16:crc16_init
	movt	r2, :upper16:crc16_init
	ldrh	r2, [r2]
	.loc	2 301 18                        @ ../User/Bsp/VT13.c:301:18
	uxth	r1, r1
	bl	get_crc16_check_sum
	.loc	2 301 16                        @ ../User/Bsp/VT13.c:301:16
	strh.w	r0, [sp, #4]
	.loc	2 303 14 is_stmt 1              @ ../User/Bsp/VT13.c:303:14
	ldrb.w	r1, [sp, #4]
	.loc	2 303 36 is_stmt 0              @ ../User/Bsp/VT13.c:303:36
	ldr	r2, [sp, #8]
	.loc	2 303 42                        @ ../User/Bsp/VT13.c:303:42
	ldrh.w	r0, [sp, #6]
	.loc	2 303 36                        @ ../User/Bsp/VT13.c:303:36
	add	r0, r2
	ldrb	r2, [r0, #-2]
	movs	r0, #0
	.loc	2 303 51                        @ ../User/Bsp/VT13.c:303:51
	cmp	r1, r2
	str	r0, [sp]                        @ 4-byte Spill
	bne	.LBB1_5
	b	.LBB1_4
.LBB1_4:
	.loc	2 303 56                        @ ../User/Bsp/VT13.c:303:56
	ldrb.w	r0, [sp, #5]
	.loc	2 303 84                        @ ../User/Bsp/VT13.c:303:84
	ldr	r2, [sp, #8]
	.loc	2 303 90                        @ ../User/Bsp/VT13.c:303:90
	ldrh.w	r1, [sp, #6]
	.loc	2 303 84                        @ ../User/Bsp/VT13.c:303:84
	add	r1, r2
	ldrb	r1, [r1, #-1]
	.loc	2 303 81                        @ ../User/Bsp/VT13.c:303:81
	subs	r0, r0, r1
	clz	r0, r0
	lsrs	r0, r0, #5
	str	r0, [sp]                        @ 4-byte Spill
	b	.LBB1_5
.LBB1_5:
	.loc	2 0 0                           @ ../User/Bsp/VT13.c:0:0
	ldr	r0, [sp]                        @ 4-byte Reload
	.loc	2 303 5                         @ ../User/Bsp/VT13.c:303:5
	and	r0, r0, #1
	strb.w	r0, [sp, #15]
	b	.LBB1_6
.LBB1_6:
	.loc	2 304 1 is_stmt 1               @ ../User/Bsp/VT13.c:304:1
	ldrb.w	r0, [sp, #15]
	add	sp, #16
	pop	{r7, pc}
.Ltmp128:
.Lfunc_end1:
	.size	verify_crc16_check_sum, .Lfunc_end1-verify_crc16_check_sum
	.cfi_endproc
	.cantunwind
	.fnend
                                        @ -- End function
	.section	.text.VT_F_KEY_STATUS,"ax",%progbits
	.hidden	VT_F_KEY_STATUS                 @ -- Begin function VT_F_KEY_STATUS
	.globl	VT_F_KEY_STATUS
	.p2align	2
	.type	VT_F_KEY_STATUS,%function
	.code	16                              @ @VT_F_KEY_STATUS
	.thumb_func
VT_F_KEY_STATUS:
.Lfunc_begin2:
	.loc	2 338 0                         @ ../User/Bsp/VT13.c:338:0
	.fnstart
	.cfi_startproc
@ %bb.0:
	.pad	#24
	sub	sp, #24
	.cfi_def_cfa_offset 24
                                        @ kill: def $r3 killed $r1
                                        @ kill: def $r3 killed $r0
                                        @ kill: def $r3 killed $r2
	str	r1, [sp, #12]
	str	r0, [sp, #8]
	strb.w	r2, [sp, #7]
.Ltmp129:
	.loc	2 340 6 prologue_end            @ ../User/Bsp/VT13.c:340:6
	ldr	r0, [sp, #8]
	ldr	r1, [sp, #12]
	.loc	2 340 10 is_stmt 0              @ ../User/Bsp/VT13.c:340:10
	eor	r0, r0, #1
	orrs	r0, r1
.Ltmp130:
	.loc	2 340 6                         @ ../User/Bsp/VT13.c:340:6
	cbnz	r0, .LBB2_4
	b	.LBB2_1
.LBB2_1:
.Ltmp131:
	.loc	2 342 7 is_stmt 1               @ ../User/Bsp/VT13.c:342:7
	ldrb.w	r0, [sp, #7]
.Ltmp132:
	.loc	2 342 7 is_stmt 0               @ ../User/Bsp/VT13.c:342:7
	cmp	r0, #20
	bgt	.LBB2_3
	b	.LBB2_2
.LBB2_2:
.Ltmp133:
	.loc	2 344 14 is_stmt 1              @ ../User/Bsp/VT13.c:344:14
	ldrb.w	r0, [sp, #7]
	adds	r0, #1
	strb.w	r0, [sp, #7]
	movs	r0, #1
	.loc	2 345 4                         @ ../User/Bsp/VT13.c:345:4
	strb.w	r0, [sp, #23]
	b	.LBB2_5
.Ltmp134:
.LBB2_3:
	.loc	2 0 4 is_stmt 0                 @ ../User/Bsp/VT13.c:0:4
	movs	r0, #2
.Ltmp135:
	.loc	2 349 4 is_stmt 1               @ ../User/Bsp/VT13.c:349:4
	strb.w	r0, [sp, #23]
	b	.LBB2_5
.Ltmp136:
.LBB2_4:
	.loc	2 0 4 is_stmt 0                 @ ../User/Bsp/VT13.c:0:4
	movs	r0, #0
.Ltmp137:
	.loc	2 354 14 is_stmt 1              @ ../User/Bsp/VT13.c:354:14
	strb.w	r0, [sp, #7]
	.loc	2 355 3                         @ ../User/Bsp/VT13.c:355:3
	strb.w	r0, [sp, #23]
	b	.LBB2_5
.Ltmp138:
.LBB2_5:
	.loc	2 359 1                         @ ../User/Bsp/VT13.c:359:1
	ldrb.w	r0, [sp, #23]
	add	sp, #24
	bx	lr
.Ltmp139:
.Lfunc_end2:
	.size	VT_F_KEY_STATUS, .Lfunc_end2-VT_F_KEY_STATUS
	.cfi_endproc
	.cantunwind
	.fnend
                                        @ -- End function
	.section	.text.VT_OneFilter,"ax",%progbits
	.hidden	VT_OneFilter                    @ -- Begin function VT_OneFilter
	.globl	VT_OneFilter
	.p2align	2
	.type	VT_OneFilter,%function
	.code	16                              @ @VT_OneFilter
	.thumb_func
VT_OneFilter:
.Lfunc_begin3:
	.loc	2 315 0                         @ ../User/Bsp/VT13.c:315:0
	.fnstart
	.cfi_startproc
@ %bb.0:
	.save	{r7, lr}
	push	{r7, lr}
	.cfi_def_cfa_offset 8
	.cfi_offset lr, -4
	.cfi_offset r7, -8
	.pad	#32
	sub	sp, #32
	.cfi_def_cfa_offset 40
	vstr	s0, [sp, #24]
	vstr	s1, [sp, #20]
	vstr	s2, [sp, #16]
	movw	r0, #52429
	movt	r0, #16204
.Ltmp140:
	.loc	2 318 14 prologue_end           @ ../User/Bsp/VT13.c:318:14
	str	r0, [sp, #12]
	movw	r0, #52429
	movt	r0, #15948
	.loc	2 319 14                        @ ../User/Bsp/VT13.c:319:14
	str	r0, [sp, #8]
.Ltmp141:
	.loc	2 321 48                        @ ../User/Bsp/VT13.c:321:48
	vldr	s0, [sp, #24]
	.loc	2 321 27 is_stmt 0              @ ../User/Bsp/VT13.c:321:27
	bl	RUI_F_MATH_ABS_float
	vstr	s0, [sp, #4]                    @ 4-byte Spill
	.loc	2 321 77                        @ ../User/Bsp/VT13.c:321:77
	vldr	s0, [sp, #20]
	.loc	2 321 56                        @ ../User/Bsp/VT13.c:321:56
	bl	RUI_F_MATH_ABS_float
	vmov.f32	s2, s0
	.loc	2 321 54                        @ ../User/Bsp/VT13.c:321:54
	vldr	s0, [sp, #4]                    @ 4-byte Reload
	vsub.f32	s0, s0, s2
	.loc	2 321 6                         @ ../User/Bsp/VT13.c:321:6
	bl	RUI_F_MATH_ABS_float
	.loc	2 321 86                        @ ../User/Bsp/VT13.c:321:86
	vldr	s2, [sp, #16]
.Ltmp142:
	.loc	2 321 6                         @ ../User/Bsp/VT13.c:321:6
	vcmp.f32	s0, s2
	vmrs	APSR_nzcv, fpscr
	blt	.LBB3_2
	b	.LBB3_1
.LBB3_1:
.Ltmp143:
	.loc	2 323 19 is_stmt 1              @ ../User/Bsp/VT13.c:323:19
	vldr	s0, [sp, #20]
	.loc	2 323 43 is_stmt 0              @ ../User/Bsp/VT13.c:323:43
	vldr	s2, [sp, #24]
	vldr	s4, .LCPI3_2
	.loc	2 323 48                        @ ../User/Bsp/VT13.c:323:48
	vmul.f32	s2, s2, s4
	vldr	s4, .LCPI3_0
	.loc	2 323 41                        @ ../User/Bsp/VT13.c:323:41
	vmul.f32	s0, s0, s4
	vadd.f32	s0, s0, s2
	.loc	2 323 3                         @ ../User/Bsp/VT13.c:323:3
	vstr	s0, [sp, #28]
	b	.LBB3_3
.Ltmp144:
.LBB3_2:
	.loc	2 327 19 is_stmt 1              @ ../User/Bsp/VT13.c:327:19
	vldr	s0, [sp, #20]
	.loc	2 327 38 is_stmt 0              @ ../User/Bsp/VT13.c:327:38
	vldr	s2, [sp, #24]
	vldr	s4, .LCPI3_0
	.loc	2 327 43                        @ ../User/Bsp/VT13.c:327:43
	vmul.f32	s2, s2, s4
	vldr	s4, .LCPI3_1
	.loc	2 327 36                        @ ../User/Bsp/VT13.c:327:36
	vmul.f32	s0, s0, s4
	vadd.f32	s0, s0, s2
	.loc	2 327 3                         @ ../User/Bsp/VT13.c:327:3
	vstr	s0, [sp, #28]
	b	.LBB3_3
.Ltmp145:
.LBB3_3:
	.loc	2 329 1 is_stmt 1               @ ../User/Bsp/VT13.c:329:1
	vldr	s0, [sp, #28]
	add	sp, #32
	pop	{r7, pc}
.Ltmp146:
	.p2align	2
@ %bb.4:
	.loc	2 0 1 is_stmt 0                 @ ../User/Bsp/VT13.c:0:1
.LCPI3_0:
	.long	0x3f4ccccd                      @ float 0.800000011
.LCPI3_1:
	.long	0x3e4ccccd                      @ float 0.200000003
.LCPI3_2:
	.long	0x3e4ccccc                      @ float 0.199999988
.Lfunc_end3:
	.size	VT_OneFilter, .Lfunc_end3-VT_OneFilter
	.cfi_endproc
	.cantunwind
	.fnend
                                        @ -- End function
	.section	.text.VT_deadband,"ax",%progbits
	.hidden	VT_deadband                     @ -- Begin function VT_deadband
	.globl	VT_deadband
	.p2align	2
	.type	VT_deadband,%function
	.code	16                              @ @VT_deadband
	.thumb_func
VT_deadband:
.Lfunc_begin4:
	.loc	2 363 0 is_stmt 1               @ ../User/Bsp/VT13.c:363:0
	.fnstart
	.cfi_startproc
@ %bb.0:
	.pad	#12
	sub	sp, #12
	.cfi_def_cfa_offset 12
	vstr	s0, [sp, #8]
	vstr	s1, [sp, #4]
	vstr	s2, [sp]
.Ltmp147:
	.loc	2 364 6 prologue_end            @ ../User/Bsp/VT13.c:364:6
	vldr	s0, [sp, #8]
	.loc	2 364 14 is_stmt 0              @ ../User/Bsp/VT13.c:364:14
	vldr	s2, [sp]
	.loc	2 364 23                        @ ../User/Bsp/VT13.c:364:23
	vcmp.f32	s0, s2
	vmrs	APSR_nzcv, fpscr
	bge	.LBB4_3
	b	.LBB4_1
.LBB4_1:
	.loc	2 364 26                        @ ../User/Bsp/VT13.c:364:26
	vldr	s0, [sp, #8]
	.loc	2 364 34                        @ ../User/Bsp/VT13.c:364:34
	vldr	s2, [sp, #4]
.Ltmp148:
	.loc	2 364 6                         @ ../User/Bsp/VT13.c:364:6
	vcmp.f32	s0, s2
	vmrs	APSR_nzcv, fpscr
	ble	.LBB4_3
	b	.LBB4_2
.LBB4_2:
	.loc	2 0 6                           @ ../User/Bsp/VT13.c:0:6
	movs	r0, #0
.Ltmp149:
	.loc	2 366 9 is_stmt 1               @ ../User/Bsp/VT13.c:366:9
	str	r0, [sp, #8]
	.loc	2 367 2                         @ ../User/Bsp/VT13.c:367:2
	b	.LBB4_3
.Ltmp150:
.LBB4_3:
	.loc	2 368 9                         @ ../User/Bsp/VT13.c:368:9
	vldr	s0, [sp, #8]
	.loc	2 368 2 is_stmt 0               @ ../User/Bsp/VT13.c:368:2
	add	sp, #12
	bx	lr
.Ltmp151:
.Lfunc_end4:
	.size	VT_deadband, .Lfunc_end4-VT_deadband
	.cfi_endproc
	.cantunwind
	.fnend
                                        @ -- End function
	.section	.text.get_crc16_check_sum,"ax",%progbits
	.p2align	2                               @ -- Begin function get_crc16_check_sum
	.type	get_crc16_check_sum,%function
	.code	16                              @ @get_crc16_check_sum
	.thumb_func
get_crc16_check_sum:
.Lfunc_begin5:
	.loc	2 269 0 is_stmt 1               @ ../User/Bsp/VT13.c:269:0
	.fnstart
	.cfi_startproc
@ %bb.0:
	.pad	#16
	sub	sp, #16
	.cfi_def_cfa_offset 16
                                        @ kill: def $r3 killed $r2
                                        @ kill: def $r3 killed $r1
	str	r0, [sp, #8]
	strh.w	r1, [sp, #6]
	strh.w	r2, [sp, #4]
.Ltmp152:
	.loc	2 272 8 prologue_end            @ ../User/Bsp/VT13.c:272:8
	ldr	r0, [sp, #8]
.Ltmp153:
	.loc	2 272 8 is_stmt 0               @ ../User/Bsp/VT13.c:272:8
	cbnz	r0, .LBB5_2
	b	.LBB5_1
.LBB5_1:
	.loc	2 0 8                           @ ../User/Bsp/VT13.c:0:8
	movw	r0, #65535
.Ltmp154:
	.loc	2 274 9 is_stmt 1               @ ../User/Bsp/VT13.c:274:9
	strh.w	r0, [sp, #14]
	b	.LBB5_6
.Ltmp155:
.LBB5_2:
	.loc	2 277 5                         @ ../User/Bsp/VT13.c:277:5
	b	.LBB5_3
.LBB5_3:                                @ =>This Inner Loop Header: Depth=1
	.loc	2 277 14 is_stmt 0              @ ../User/Bsp/VT13.c:277:14
	ldrh.w	r0, [sp, #6]
	subs	r1, r0, #1
	strh.w	r1, [sp, #6]
	.loc	2 277 5                         @ ../User/Bsp/VT13.c:277:5
	cbz	r0, .LBB5_5
	b	.LBB5_4
.LBB5_4:                                @   in Loop: Header=BB5_3 Depth=1
.Ltmp156:
	.loc	2 279 22 is_stmt 1              @ ../User/Bsp/VT13.c:279:22
	ldr	r0, [sp, #8]
	adds	r1, r0, #1
	str	r1, [sp, #8]
	.loc	2 279 16 is_stmt 0              @ ../User/Bsp/VT13.c:279:16
	ldrb	r0, [r0]
	.loc	2 279 14                        @ ../User/Bsp/VT13.c:279:14
	strb.w	r0, [sp, #3]
	.loc	2 280 31 is_stmt 1              @ ../User/Bsp/VT13.c:280:31
	ldrh.w	r1, [sp, #4]
	.loc	2 280 77 is_stmt 0              @ ../User/Bsp/VT13.c:280:77
	ldrb.w	r0, [sp, #3]
	.loc	2 280 75                        @ ../User/Bsp/VT13.c:280:75
	eors	r0, r1
	.loc	2 280 95                        @ ../User/Bsp/VT13.c:280:95
	uxtb	r2, r0
	.loc	2 280 46                        @ ../User/Bsp/VT13.c:280:46
	movw	r0, :lower16:crc16_tab
	movt	r0, :upper16:crc16_tab
	ldrh.w	r0, [r0, r2, lsl #1]
	.loc	2 280 44                        @ ../User/Bsp/VT13.c:280:44
	eor.w	r0, r0, r1, lsr #8
	.loc	2 280 17                        @ ../User/Bsp/VT13.c:280:17
	strh.w	r0, [sp, #4]
.Ltmp157:
	.loc	2 277 5 is_stmt 1               @ ../User/Bsp/VT13.c:277:5
	b	.LBB5_3
.LBB5_5:
	.loc	2 283 12                        @ ../User/Bsp/VT13.c:283:12
	ldrh.w	r0, [sp, #4]
	.loc	2 283 5 is_stmt 0               @ ../User/Bsp/VT13.c:283:5
	strh.w	r0, [sp, #14]
	b	.LBB5_6
.LBB5_6:
	.loc	2 284 1 is_stmt 1               @ ../User/Bsp/VT13.c:284:1
	ldrh.w	r0, [sp, #14]
	add	sp, #16
	bx	lr
.Ltmp158:
.Lfunc_end5:
	.size	get_crc16_check_sum, .Lfunc_end5-get_crc16_check_sum
	.cfi_endproc
	.cantunwind
	.fnend
                                        @ -- End function
	.type	VT13_Resovled.Key_Q_Lock,%object @ @VT13_Resovled.Key_Q_Lock
	.section	.bss.VT13_Resovled.Key_Q_Lock,"aw",%nobits
VT13_Resovled.Key_Q_Lock:
	.byte	0                               @ 0x0
	.size	VT13_Resovled.Key_Q_Lock, 1

	.type	VT13_Resovled.Key_E_Lock,%object @ @VT13_Resovled.Key_E_Lock
	.section	.bss.VT13_Resovled.Key_E_Lock,"aw",%nobits
VT13_Resovled.Key_E_Lock:
	.byte	0                               @ 0x0
	.size	VT13_Resovled.Key_E_Lock, 1

	.type	VT13_Resovled.Key_R_Lock,%object @ @VT13_Resovled.Key_R_Lock
	.section	.bss.VT13_Resovled.Key_R_Lock,"aw",%nobits
VT13_Resovled.Key_R_Lock:
	.byte	0                               @ 0x0
	.size	VT13_Resovled.Key_R_Lock, 1

	.type	VT13_Resovled.Key_F_Lock,%object @ @VT13_Resovled.Key_F_Lock
	.section	.bss.VT13_Resovled.Key_F_Lock,"aw",%nobits
VT13_Resovled.Key_F_Lock:
	.byte	0                               @ 0x0
	.size	VT13_Resovled.Key_F_Lock, 1

	.type	VT13_Resovled.Key_G_Lock,%object @ @VT13_Resovled.Key_G_Lock
	.section	.bss.VT13_Resovled.Key_G_Lock,"aw",%nobits
VT13_Resovled.Key_G_Lock:
	.byte	0                               @ 0x0
	.size	VT13_Resovled.Key_G_Lock, 1

	.type	VT13_Resovled.Key_Z_Lock,%object @ @VT13_Resovled.Key_Z_Lock
	.section	.bss.VT13_Resovled.Key_Z_Lock,"aw",%nobits
VT13_Resovled.Key_Z_Lock:
	.byte	0                               @ 0x0
	.size	VT13_Resovled.Key_Z_Lock, 1

	.type	VT13_Resovled.Key_X_Lock,%object @ @VT13_Resovled.Key_X_Lock
	.section	.bss.VT13_Resovled.Key_X_Lock,"aw",%nobits
VT13_Resovled.Key_X_Lock:
	.byte	0                               @ 0x0
	.size	VT13_Resovled.Key_X_Lock, 1

	.type	VT13_Resovled.Key_C_Lock,%object @ @VT13_Resovled.Key_C_Lock
	.section	.bss.VT13_Resovled.Key_C_Lock,"aw",%nobits
VT13_Resovled.Key_C_Lock:
	.byte	0                               @ 0x0
	.size	VT13_Resovled.Key_C_Lock, 1

	.type	VT13_Resovled.Key_V_Lock,%object @ @VT13_Resovled.Key_V_Lock
	.section	.bss.VT13_Resovled.Key_V_Lock,"aw",%nobits
VT13_Resovled.Key_V_Lock:
	.byte	0                               @ 0x0
	.size	VT13_Resovled.Key_V_Lock, 1

	.type	VT13_Resovled.Key_B_Lock,%object @ @VT13_Resovled.Key_B_Lock
	.section	.bss.VT13_Resovled.Key_B_Lock,"aw",%nobits
VT13_Resovled.Key_B_Lock:
	.byte	0                               @ 0x0
	.size	VT13_Resovled.Key_B_Lock, 1

	.type	VT13_Resovled.Key_Shift_Lock,%object @ @VT13_Resovled.Key_Shift_Lock
	.section	.bss.VT13_Resovled.Key_Shift_Lock,"aw",%nobits
VT13_Resovled.Key_Shift_Lock:
	.byte	0                               @ 0x0
	.size	VT13_Resovled.Key_Shift_Lock, 1

	.type	VT13_Resovled.Key_Ctrl_Lock,%object @ @VT13_Resovled.Key_Ctrl_Lock
	.section	.bss.VT13_Resovled.Key_Ctrl_Lock,"aw",%nobits
VT13_Resovled.Key_Ctrl_Lock:
	.byte	0                               @ 0x0
	.size	VT13_Resovled.Key_Ctrl_Lock, 1

	.type	VT13_Resovled.Mouse_R_Lock,%object @ @VT13_Resovled.Mouse_R_Lock
	.section	.bss.VT13_Resovled.Mouse_R_Lock,"aw",%nobits
VT13_Resovled.Mouse_R_Lock:
	.byte	0                               @ 0x0
	.size	VT13_Resovled.Mouse_R_Lock, 1

	.type	VT13_Resovled.Mouse_L_Lock,%object @ @VT13_Resovled.Mouse_L_Lock
	.section	.bss.VT13_Resovled.Mouse_L_Lock,"aw",%nobits
VT13_Resovled.Mouse_L_Lock:
	.byte	0                               @ 0x0
	.size	VT13_Resovled.Mouse_L_Lock, 1

	.type	crc16_init,%object              @ @crc16_init
	.section	.data.crc16_init,"aw",%progbits
	.p2align	1
crc16_init:
	.short	65535                           @ 0xffff
	.size	crc16_init, 2

	.type	VT_F_KEY_STATUS.press_time,%object @ @VT_F_KEY_STATUS.press_time
	.section	.bss.VT_F_KEY_STATUS.press_time,"aw",%nobits
VT_F_KEY_STATUS.press_time:
	.byte	0                               @ 0x0
	.size	VT_F_KEY_STATUS.press_time, 1

	.hidden	VT13_UNION                      @ @VT13_UNION
	.type	VT13_UNION,%object
	.section	.bss.VT13_UNION,"aw",%nobits
	.globl	VT13_UNION
VT13_UNION:
	.zero	21
	.size	VT13_UNION, 21

	.type	crc16_tab,%object               @ @crc16_tab
	.section	.rodata.crc16_tab,"a",%progbits
	.p2align	1
crc16_tab:
	.short	0                               @ 0x0
	.short	4489                            @ 0x1189
	.short	8978                            @ 0x2312
	.short	12955                           @ 0x329b
	.short	17956                           @ 0x4624
	.short	22445                           @ 0x57ad
	.short	25910                           @ 0x6536
	.short	29887                           @ 0x74bf
	.short	35912                           @ 0x8c48
	.short	40385                           @ 0x9dc1
	.short	44890                           @ 0xaf5a
	.short	48851                           @ 0xbed3
	.short	51820                           @ 0xca6c
	.short	56293                           @ 0xdbe5
	.short	59774                           @ 0xe97e
	.short	63735                           @ 0xf8f7
	.short	4225                            @ 0x1081
	.short	264                             @ 0x108
	.short	13203                           @ 0x3393
	.short	8730                            @ 0x221a
	.short	22181                           @ 0x56a5
	.short	18220                           @ 0x472c
	.short	30135                           @ 0x75b7
	.short	25662                           @ 0x643e
	.short	40137                           @ 0x9cc9
	.short	36160                           @ 0x8d40
	.short	49115                           @ 0xbfdb
	.short	44626                           @ 0xae52
	.short	56045                           @ 0xdaed
	.short	52068                           @ 0xcb64
	.short	63999                           @ 0xf9ff
	.short	59510                           @ 0xe876
	.short	8450                            @ 0x2102
	.short	12427                           @ 0x308b
	.short	528                             @ 0x210
	.short	5017                            @ 0x1399
	.short	26406                           @ 0x6726
	.short	30383                           @ 0x76af
	.short	17460                           @ 0x4434
	.short	21949                           @ 0x55bd
	.short	44362                           @ 0xad4a
	.short	48323                           @ 0xbcc3
	.short	36440                           @ 0x8e58
	.short	40913                           @ 0x9fd1
	.short	60270                           @ 0xeb6e
	.short	64231                           @ 0xfae7
	.short	51324                           @ 0xc87c
	.short	55797                           @ 0xd9f5
	.short	12675                           @ 0x3183
	.short	8202                            @ 0x200a
	.short	4753                            @ 0x1291
	.short	792                             @ 0x318
	.short	30631                           @ 0x77a7
	.short	26158                           @ 0x662e
	.short	21685                           @ 0x54b5
	.short	17724                           @ 0x453c
	.short	48587                           @ 0xbdcb
	.short	44098                           @ 0xac42
	.short	40665                           @ 0x9ed9
	.short	36688                           @ 0x8f50
	.short	64495                           @ 0xfbef
	.short	60006                           @ 0xea66
	.short	55549                           @ 0xd8fd
	.short	51572                           @ 0xc974
	.short	16900                           @ 0x4204
	.short	21389                           @ 0x538d
	.short	24854                           @ 0x6116
	.short	28831                           @ 0x709f
	.short	1056                            @ 0x420
	.short	5545                            @ 0x15a9
	.short	10034                           @ 0x2732
	.short	14011                           @ 0x36bb
	.short	52812                           @ 0xce4c
	.short	57285                           @ 0xdfc5
	.short	60766                           @ 0xed5e
	.short	64727                           @ 0xfcd7
	.short	34920                           @ 0x8868
	.short	39393                           @ 0x99e1
	.short	43898                           @ 0xab7a
	.short	47859                           @ 0xbaf3
	.short	21125                           @ 0x5285
	.short	17164                           @ 0x430c
	.short	29079                           @ 0x7197
	.short	24606                           @ 0x601e
	.short	5281                            @ 0x14a1
	.short	1320                            @ 0x528
	.short	14259                           @ 0x37b3
	.short	9786                            @ 0x263a
	.short	57037                           @ 0xdecd
	.short	53060                           @ 0xcf44
	.short	64991                           @ 0xfddf
	.short	60502                           @ 0xec56
	.short	39145                           @ 0x98e9
	.short	35168                           @ 0x8960
	.short	48123                           @ 0xbbfb
	.short	43634                           @ 0xaa72
	.short	25350                           @ 0x6306
	.short	29327                           @ 0x728f
	.short	16404                           @ 0x4014
	.short	20893                           @ 0x519d
	.short	9506                            @ 0x2522
	.short	13483                           @ 0x34ab
	.short	1584                            @ 0x630
	.short	6073                            @ 0x17b9
	.short	61262                           @ 0xef4e
	.short	65223                           @ 0xfec7
	.short	52316                           @ 0xcc5c
	.short	56789                           @ 0xddd5
	.short	43370                           @ 0xa96a
	.short	47331                           @ 0xb8e3
	.short	35448                           @ 0x8a78
	.short	39921                           @ 0x9bf1
	.short	29575                           @ 0x7387
	.short	25102                           @ 0x620e
	.short	20629                           @ 0x5095
	.short	16668                           @ 0x411c
	.short	13731                           @ 0x35a3
	.short	9258                            @ 0x242a
	.short	5809                            @ 0x16b1
	.short	1848                            @ 0x738
	.short	65487                           @ 0xffcf
	.short	60998                           @ 0xee46
	.short	56541                           @ 0xdcdd
	.short	52564                           @ 0xcd54
	.short	47595                           @ 0xb9eb
	.short	43106                           @ 0xa862
	.short	39673                           @ 0x9af9
	.short	35696                           @ 0x8b70
	.short	33800                           @ 0x8408
	.short	38273                           @ 0x9581
	.short	42778                           @ 0xa71a
	.short	46739                           @ 0xb693
	.short	49708                           @ 0xc22c
	.short	54181                           @ 0xd3a5
	.short	57662                           @ 0xe13e
	.short	61623                           @ 0xf0b7
	.short	2112                            @ 0x840
	.short	6601                            @ 0x19c9
	.short	11090                           @ 0x2b52
	.short	15067                           @ 0x3adb
	.short	20068                           @ 0x4e64
	.short	24557                           @ 0x5fed
	.short	28022                           @ 0x6d76
	.short	31999                           @ 0x7cff
	.short	38025                           @ 0x9489
	.short	34048                           @ 0x8500
	.short	47003                           @ 0xb79b
	.short	42514                           @ 0xa612
	.short	53933                           @ 0xd2ad
	.short	49956                           @ 0xc324
	.short	61887                           @ 0xf1bf
	.short	57398                           @ 0xe036
	.short	6337                            @ 0x18c1
	.short	2376                            @ 0x948
	.short	15315                           @ 0x3bd3
	.short	10842                           @ 0x2a5a
	.short	24293                           @ 0x5ee5
	.short	20332                           @ 0x4f6c
	.short	32247                           @ 0x7df7
	.short	27774                           @ 0x6c7e
	.short	42250                           @ 0xa50a
	.short	46211                           @ 0xb483
	.short	34328                           @ 0x8618
	.short	38801                           @ 0x9791
	.short	58158                           @ 0xe32e
	.short	62119                           @ 0xf2a7
	.short	49212                           @ 0xc03c
	.short	53685                           @ 0xd1b5
	.short	10562                           @ 0x2942
	.short	14539                           @ 0x38cb
	.short	2640                            @ 0xa50
	.short	7129                            @ 0x1bd9
	.short	28518                           @ 0x6f66
	.short	32495                           @ 0x7eef
	.short	19572                           @ 0x4c74
	.short	24061                           @ 0x5dfd
	.short	46475                           @ 0xb58b
	.short	41986                           @ 0xa402
	.short	38553                           @ 0x9699
	.short	34576                           @ 0x8710
	.short	62383                           @ 0xf3af
	.short	57894                           @ 0xe226
	.short	53437                           @ 0xd0bd
	.short	49460                           @ 0xc134
	.short	14787                           @ 0x39c3
	.short	10314                           @ 0x284a
	.short	6865                            @ 0x1ad1
	.short	2904                            @ 0xb58
	.short	32743                           @ 0x7fe7
	.short	28270                           @ 0x6e6e
	.short	23797                           @ 0x5cf5
	.short	19836                           @ 0x4d7c
	.short	50700                           @ 0xc60c
	.short	55173                           @ 0xd785
	.short	58654                           @ 0xe51e
	.short	62615                           @ 0xf497
	.short	32808                           @ 0x8028
	.short	37281                           @ 0x91a1
	.short	41786                           @ 0xa33a
	.short	45747                           @ 0xb2b3
	.short	19012                           @ 0x4a44
	.short	23501                           @ 0x5bcd
	.short	26966                           @ 0x6956
	.short	30943                           @ 0x78df
	.short	3168                            @ 0xc60
	.short	7657                            @ 0x1de9
	.short	12146                           @ 0x2f72
	.short	16123                           @ 0x3efb
	.short	54925                           @ 0xd68d
	.short	50948                           @ 0xc704
	.short	62879                           @ 0xf59f
	.short	58390                           @ 0xe416
	.short	37033                           @ 0x90a9
	.short	33056                           @ 0x8120
	.short	46011                           @ 0xb3bb
	.short	41522                           @ 0xa232
	.short	23237                           @ 0x5ac5
	.short	19276                           @ 0x4b4c
	.short	31191                           @ 0x79d7
	.short	26718                           @ 0x685e
	.short	7393                            @ 0x1ce1
	.short	3432                            @ 0xd68
	.short	16371                           @ 0x3ff3
	.short	11898                           @ 0x2e7a
	.short	59150                           @ 0xe70e
	.short	63111                           @ 0xf687
	.short	50204                           @ 0xc41c
	.short	54677                           @ 0xd595
	.short	41258                           @ 0xa12a
	.short	45219                           @ 0xb0a3
	.short	33336                           @ 0x8238
	.short	37809                           @ 0x93b1
	.short	27462                           @ 0x6b46
	.short	31439                           @ 0x7acf
	.short	18516                           @ 0x4854
	.short	23005                           @ 0x59dd
	.short	11618                           @ 0x2d62
	.short	15595                           @ 0x3ceb
	.short	3696                            @ 0xe70
	.short	8185                            @ 0x1ff9
	.short	63375                           @ 0xf78f
	.short	58886                           @ 0xe606
	.short	54429                           @ 0xd49d
	.short	50452                           @ 0xc514
	.short	45483                           @ 0xb1ab
	.short	40994                           @ 0xa022
	.short	37561                           @ 0x92b9
	.short	33584                           @ 0x8330
	.short	31687                           @ 0x7bc7
	.short	27214                           @ 0x6a4e
	.short	22741                           @ 0x58d5
	.short	18780                           @ 0x495c
	.short	15843                           @ 0x3de3
	.short	11370                           @ 0x2c6a
	.short	7921                            @ 0x1ef1
	.short	3960                            @ 0xf78
	.size	crc16_tab, 512

	.section	".note.GNU-stack","",%progbits
	.eabi_attribute	30, 6	@ Tag_ABI_optimization_goals
	.ARM_attribute	16, 1	@ Tag_AV_eba