	.text
	.syntax unified
	.eabi_attribute	67, "2.09"	@ Tag_conformance
	.cpu	cortex-m4
	.eabi_attribute	6, 13	@ Tag_CPU_arch
	.eabi_attribute	7, 77	@ Tag_CPU_arch_profile
	.eabi_attribute	8, 0	@ Tag_ARM_ISA_use
	.eabi_attribute	9, 2	@ Tag_THUMB_ISA_use
	.fpu	fpv4-sp-d16
	.eabi_attribute	27, 1	@ Tag_ABI_HardFP_use
	.eabi_attribute	36, 1	@ Tag_FP_HP_extension
	.eabi_attribute	34, 1	@ Tag_CPU_unaligned_access
	.eabi_attribute	17, 1	@ Tag_ABI_PCS_GOT_use
	.eabi_attribute	20, 2	@ Tag_ABI_FP_denormal
	.eabi_attribute	21, 0	@ Tag_ABI_FP_exceptions
	.eabi_attribute	23, 3	@ Tag_ABI_FP_number_model
	.eabi_attribute	24, 1	@ Tag_ABI_align_needed
	.eabi_attribute	25, 1	@ Tag_ABI_align_preserved
	.eabi_attribute	28, 1	@ Tag_ABI_VFP_args
	.eabi_attribute	38, 1	@ Tag_ABI_FP_16bit_format
	.eabi_attribute	18, 2	@ Tag_ABI_PCS_wchar_t
	.eabi_attribute	26, 1	@ Tag_ABI_enum_size
	.eabi_attribute	14, 0	@ Tag_ABI_PCS_R9_use
	.file	"WHW_IRQN.c"
	.file	1 "D:\\" "kevil\\ARM\\ARMCLANG\\Bin\\..\\include\\stdint.h"
	.file	2 "D:\\horizon\\Horizon_Infantry (2)\\MDK-ARM" "../User/Bsp/inc\\Vision.h"
	.file	3 "D:\\horizon\\Horizon_Infantry (2)\\MDK-ARM" "../User/Start/WHW_IRQN.c"
	.file	4 "D:\\horizon\\Horizon_Infantry (2)\\MDK-ARM" "../User/Algorithm/inc\\pid_temp.h"
	.file	5 "D:\\horizon\\Horizon_Infantry (2)\\MDK-ARM" "../Drivers/STM32F4xx_HAL_Driver/Inc\\stm32f4xx_hal_tim.h"
	.file	6 "D:\\horizon\\Horizon_Infantry (2)\\MDK-ARM" "../Drivers/STM32F4xx_HAL_Driver/Inc/stm32f4xx_hal_def.h"
	.file	7 "D:\\horizon\\Horizon_Infantry (2)\\MDK-ARM" "../Drivers/STM32F4xx_HAL_Driver/Inc\\stm32f4xx_hal_dma.h"
	.file	8 "D:\\horizon\\Horizon_Infantry (2)\\MDK-ARM" "../Drivers/CMSIS/Device/ST/STM32F4xx/Include\\stm32f4xx.h"
	.file	9 "D:\\horizon\\Horizon_Infantry (2)\\MDK-ARM" "../Drivers/STM32F4xx_HAL_Driver/Inc\\stm32f4xx_hal_can.h"
	.file	10 "D:\\horizon\\Horizon_Infantry (2)\\MDK-ARM" "../Drivers/STM32F4xx_HAL_Driver/Inc\\stm32f4xx_hal_spi.h"
	.file	11 "D:\\horizon\\Horizon_Infantry (2)\\MDK-ARM" "../Drivers/STM32F4xx_HAL_Driver/Inc\\stm32f4xx_hal_uart.h"
	.file	12 "D:\\horizon\\Horizon_Infantry (2)\\MDK-ARM" "../Drivers/CMSIS/Device/ST/STM32F4xx/Include/stm32f407xx.h"
	.section	.text.StartRobotUITask,"ax",%progbits
	.hidden	StartRobotUITask                @ -- Begin function StartRobotUITask
	.globl	StartRobotUITask
	.p2align	2
	.type	StartRobotUITask,%function
	.code	16                              @ @StartRobotUITask
	.thumb_func
StartRobotUITask:
.Lfunc_begin0:
	.loc	3 16 0                          @ ../User/Start/WHW_IRQN.c:16:0
	.fnstart
	.cfi_sections .debug_frame
	.cfi_startproc
@ %bb.0:
	.save	{r7, lr}
	push	{r7, lr}
	.cfi_def_cfa_offset 8
	.cfi_offset lr, -4
	.cfi_offset r7, -8
	.pad	#16
	sub	sp, #16
	.cfi_def_cfa_offset 24
	str	r0, [sp, #12]
.Ltmp0:
	.loc	3 18 26 prologue_end            @ ../User/Start/WHW_IRQN.c:18:26
	bl	xTaskGetTickCount
	.loc	3 18 24 is_stmt 0               @ ../User/Start/WHW_IRQN.c:18:24
	str	r0, [sp, #8]
	.loc	3 24 5 is_stmt 1                @ ../User/Start/WHW_IRQN.c:24:5
	b	.LBB0_1
.LBB0_1:                                @ =>This Inner Loop Header: Depth=1
.Ltmp1:
	.loc	3 26 12                         @ ../User/Start/WHW_IRQN.c:26:12
	movw	r1, :lower16:ui_cnt
	movt	r1, :upper16:ui_cnt
	ldr	r0, [r1]
	adds	r0, #1
	str	r0, [r1]
	.loc	3 27 21                         @ ../User/Start/WHW_IRQN.c:27:21
	movw	r0, :lower16:ALL_state
	movt	r0, :upper16:ALL_state
	ldrb	r0, [r0, #1]
	.loc	3 27 4 is_stmt 0                @ ../User/Start/WHW_IRQN.c:27:4
	mov	r1, r0
	str	r1, [sp, #4]                    @ 4-byte Spill
	cmp	r0, #3
	bhi	.LBB0_8
@ %bb.2:                                @   in Loop: Header=BB0_1 Depth=1
	.loc	3 0 4                           @ ../User/Start/WHW_IRQN.c:0:4
	ldr	r1, [sp, #4]                    @ 4-byte Reload
.LCPI0_0:
	tbb	[pc, r1]
@ %bb.3:
.LJTI0_0:
	.byte	(.LBB0_4-(.LCPI0_0+4))/2
	.byte	(.LBB0_5-(.LCPI0_0+4))/2
	.byte	(.LBB0_6-(.LCPI0_0+4))/2
	.byte	(.LBB0_7-(.LCPI0_0+4))/2
	.p2align	1
.LBB0_4:                                @   in Loop: Header=BB0_1 Depth=1
.Ltmp2:
	.loc	3 29 6 is_stmt 1                @ ../User/Start/WHW_IRQN.c:29:6
	bl	ui_init_g_Ungroup
	.loc	3 30 10                         @ ../User/Start/WHW_IRQN.c:30:10
	bl	ui_update_g_Ungroup
	.loc	3 31 10                         @ ../User/Start/WHW_IRQN.c:31:10
	bl	ui_remove_g_Ungroup
	.loc	3 32 7                          @ ../User/Start/WHW_IRQN.c:32:7
	bl	ui_init_g_UngroupNUM
	.loc	3 33 6                          @ ../User/Start/WHW_IRQN.c:33:6
	bl	ui_remove_g_UngroupNUM
	.loc	3 34 13                         @ ../User/Start/WHW_IRQN.c:34:13
	b	.LBB0_9
.LBB0_5:                                @   in Loop: Header=BB0_1 Depth=1
	.loc	3 37 13                         @ ../User/Start/WHW_IRQN.c:37:13
	b	.LBB0_9
.LBB0_6:                                @   in Loop: Header=BB0_1 Depth=1
	.loc	3 40 13                         @ ../User/Start/WHW_IRQN.c:40:13
	b	.LBB0_9
.LBB0_7:                                @   in Loop: Header=BB0_1 Depth=1
	.loc	3 43 13                         @ ../User/Start/WHW_IRQN.c:43:13
	b	.LBB0_9
.LBB0_8:                                @   in Loop: Header=BB0_1 Depth=1
	.loc	3 46 13                         @ ../User/Start/WHW_IRQN.c:46:13
	b	.LBB0_9
.Ltmp3:
.LBB0_9:                                @   in Loop: Header=BB0_1 Depth=1
	.loc	3 48 8                          @ ../User/Start/WHW_IRQN.c:48:8
	movw	r0, :lower16:ui_cnt
	movt	r0, :upper16:ui_cnt
	ldr	r0, [r0]
	movw	r1, #10311
	movt	r1, #47011
.Ltmp4:
	.loc	3 48 8 is_stmt 0                @ ../User/Start/WHW_IRQN.c:48:8
	muls	r0, r1, r0
	ror.w	r0, r0, #3
	movw	r1, #55399
	movt	r1, #21
	cmp	r0, r1
	bhi	.LBB0_11
	b	.LBB0_10
.LBB0_10:                               @   in Loop: Header=BB0_1 Depth=1
.Ltmp5:
	.loc	3 50 7 is_stmt 1                @ ../User/Start/WHW_IRQN.c:50:7
	bl	ui_remove_g_Ungroup
	.loc	3 51 7                          @ ../User/Start/WHW_IRQN.c:51:7
	bl	ui_init_g_UngroupNUM
	.loc	3 52 6                          @ ../User/Start/WHW_IRQN.c:52:6
	bl	ui_remove_g_UngroupNUM
	.loc	3 53 5                          @ ../User/Start/WHW_IRQN.c:53:5
	b	.LBB0_11
.Ltmp6:
.LBB0_11:                               @   in Loop: Header=BB0_1 Depth=1
	.loc	3 0 5 is_stmt 0                 @ ../User/Start/WHW_IRQN.c:0:5
	movs	r0, #1
	.loc	3 56 9 is_stmt 1                @ ../User/Start/WHW_IRQN.c:56:9
	bl	osDelay
.Ltmp7:
	.loc	3 24 5                          @ ../User/Start/WHW_IRQN.c:24:5
	b	.LBB0_1
.Ltmp8:
.Lfunc_end0:
	.size	StartRobotUITask, .Lfunc_end0-StartRobotUITask
	.cfi_endproc
	.cantunwind
	.fnend
                                        @ -- End function
	.section	.text.StartMoveTask,"ax",%progbits
	.hidden	StartMoveTask                   @ -- Begin function StartMoveTask
	.globl	StartMoveTask
	.p2align	2
	.type	StartMoveTask,%function
	.code	16                              @ @StartMoveTask
	.thumb_func
StartMoveTask:
.Lfunc_begin1:
	.loc	3 62 0                          @ ../User/Start/WHW_IRQN.c:62:0
	.fnstart
	.cfi_startproc
@ %bb.0:
	.save	{r7, lr}
	push	{r7, lr}
	.cfi_def_cfa_offset 8
	.cfi_offset lr, -4
	.cfi_offset r7, -8
	.pad	#32
	sub	sp, #32
	.cfi_def_cfa_offset 40
	str	r0, [sp, #28]
.Ltmp9:
	.loc	3 64 23 prologue_end            @ ../User/Start/WHW_IRQN.c:64:23
	bl	xTaskGetTickCount
	.loc	3 64 21 is_stmt 0               @ ../User/Start/WHW_IRQN.c:64:21
	str	r0, [sp, #24]
	.loc	3 67 5 is_stmt 1                @ ../User/Start/WHW_IRQN.c:67:5
	movw	r0, :lower16:model
	movt	r0, :upper16:model
	bl	Power_control_init
	.loc	3 70 36                         @ ../User/Start/WHW_IRQN.c:70:36
	movw	r1, :lower16:RUI_V_CONTAL
	movt	r1, :upper16:RUI_V_CONTAL
	movw	r0, #6680
	strh.w	r0, [r1, #72]
	movs	r0, #0
	movt	r0, #17686
	.loc	3 73 33                         @ ../User/Start/WHW_IRQN.c:73:33
	str	r0, [r1, #36]
	movs	r0, #0
	movt	r0, #49736
	.loc	3 74 33                         @ ../User/Start/WHW_IRQN.c:74:33
	str	r0, [r1, #40]
	.loc	3 76 5                          @ ../User/Start/WHW_IRQN.c:76:5
	b	.LBB1_1
.LBB1_1:                                @ =>This Inner Loop Header: Depth=1
.Ltmp10:
	.loc	3 86 9                          @ ../User/Start/WHW_IRQN.c:86:9
	movw	r0, :lower16:RUI_ROOT_STATUS
	movt	r0, :upper16:RUI_ROOT_STATUS
	str	r0, [sp, #20]                   @ 4-byte Spill
	mov	r1, sp
	str	r0, [r1, #8]
	movw	r0, :lower16:VisionRxData
	movt	r0, :upper16:VisionRxData
	str	r0, [r1, #4]
	movw	r0, :lower16:CAPDATE
	movt	r0, :upper16:CAPDATE
	str	r0, [r1]
	movw	r1, :lower16:WHW_V_DBUS
	movt	r1, :upper16:WHW_V_DBUS
	movw	r2, :lower16:RUI_V_CONTAL
	movt	r2, :upper16:RUI_V_CONTAL
	str	r2, [sp, #16]                   @ 4-byte Spill
	movw	r3, :lower16:User_data
	movt	r3, :upper16:User_data
	movs	r0, #2
	bl	RobotTask
	ldr	r0, [sp, #16]                   @ 4-byte Reload
	ldr	r1, [sp, #20]                   @ 4-byte Reload
	.loc	3 88 18                         @ ../User/Start/WHW_IRQN.c:88:18
	movw	r2, :lower16:ALL_MOTOR
	movt	r2, :upper16:ALL_MOTOR
	movw	r3, :lower16:IMU_Data
	movt	r3, :upper16:IMU_Data
	bl	gimbal_task
	.loc	3 88 16 is_stmt 0               @ ../User/Start/WHW_IRQN.c:88:16
	movw	r1, :lower16:move_G
	movt	r1, :upper16:move_G
	strb	r0, [r1]
	add	r0, sp, #24
	movs	r1, #1
	.loc	3 90 9 is_stmt 1                @ ../User/Start/WHW_IRQN.c:90:9
	bl	osDelayUntil
.Ltmp11:
	.loc	3 76 5                          @ ../User/Start/WHW_IRQN.c:76:5
	b	.LBB1_1
.Ltmp12:
.Lfunc_end1:
	.size	StartMoveTask, .Lfunc_end1-StartMoveTask
	.cfi_endproc
	.cantunwind
	.fnend
                                        @ -- End function
	.section	.text.StartDefiantTask,"ax",%progbits
	.hidden	StartDefiantTask                @ -- Begin function StartDefiantTask
	.globl	StartDefiantTask
	.p2align	2
	.type	StartDefiantTask,%function
	.code	16                              @ @StartDefiantTask
	.thumb_func
StartDefiantTask:
.Lfunc_begin2:
	.loc	3 96 0                          @ ../User/Start/WHW_IRQN.c:96:0
	.fnstart
	.cfi_startproc
@ %bb.0:
	.save	{r7, lr}
	push	{r7, lr}
	.cfi_def_cfa_offset 8
	.cfi_offset lr, -4
	.cfi_offset r7, -8
	.pad	#32
	sub	sp, #32
	.cfi_def_cfa_offset 40
	str	r0, [sp, #28]
.Ltmp13:
	.loc	3 98 26 prologue_end            @ ../User/Start/WHW_IRQN.c:98:26
	bl	xTaskGetTickCount
	.loc	3 98 24 is_stmt 0               @ ../User/Start/WHW_IRQN.c:98:24
	str	r0, [sp, #24]
	.loc	3 101 36 is_stmt 1              @ ../User/Start/WHW_IRQN.c:101:36
	movw	r1, :lower16:RUI_V_CONTAL
	movt	r1, :upper16:RUI_V_CONTAL
	movw	r0, #16384
	movt	r0, #17692
	str	r0, [r1, #60]
	mov.w	r0, #-1
	.loc	3 102 37                        @ ../User/Start/WHW_IRQN.c:102:37
	str	r0, [r1, #68]
	movw	r0, #28672
	movt	r0, #65535
	str	r0, [r1, #64]
	.loc	3 104 2                         @ ../User/Start/WHW_IRQN.c:104:2
	b	.LBB2_1
.LBB2_1:                                @ =>This Inner Loop Header: Depth=1
.Ltmp14:
	.loc	3 111 4                         @ ../User/Start/WHW_IRQN.c:111:4
	movw	r0, :lower16:RUI_ROOT_STATUS
	movt	r0, :upper16:RUI_ROOT_STATUS
	str	r0, [sp, #20]                   @ 4-byte Spill
	mov	r1, sp
	str	r0, [r1, #8]
	movw	r0, :lower16:VisionRxData
	movt	r0, :upper16:VisionRxData
	str	r0, [r1, #4]
	movw	r0, :lower16:CAPDATE
	movt	r0, :upper16:CAPDATE
	str	r0, [r1]
	movw	r1, :lower16:WHW_V_DBUS
	movt	r1, :upper16:WHW_V_DBUS
	movw	r2, :lower16:RUI_V_CONTAL
	movt	r2, :upper16:RUI_V_CONTAL
	str	r2, [sp, #16]                   @ 4-byte Spill
	movw	r3, :lower16:User_data
	movt	r3, :upper16:User_data
	movs	r0, #4
	bl	RobotTask
	ldr	r0, [sp, #16]                   @ 4-byte Reload
	ldr	r1, [sp, #20]                   @ 4-byte Reload
	.loc	3 113 13                        @ ../User/Start/WHW_IRQN.c:113:13
	movw	r2, :lower16:ALL_MOTOR
	movt	r2, :upper16:ALL_MOTOR
	bl	shoot_task
	.loc	3 113 11 is_stmt 0              @ ../User/Start/WHW_IRQN.c:113:11
	movw	r1, :lower16:move_S
	movt	r1, :upper16:move_S
	strb	r0, [r1]
	add	r0, sp, #24
	movs	r1, #1
	.loc	3 116 4 is_stmt 1               @ ../User/Start/WHW_IRQN.c:116:4
	bl	osDelayUntil
.Ltmp15:
	.loc	3 104 2                         @ ../User/Start/WHW_IRQN.c:104:2
	b	.LBB2_1
.Ltmp16:
.Lfunc_end2:
	.size	StartDefiantTask, .Lfunc_end2-StartDefiantTask
	.cfi_endproc
	.cantunwind
	.fnend
                                        @ -- End function
	.section	.text.StartIMUTask,"ax",%progbits
	.hidden	StartIMUTask                    @ -- Begin function StartIMUTask
	.globl	StartIMUTask
	.p2align	2
	.type	StartIMUTask,%function
	.code	16                              @ @StartIMUTask
	.thumb_func
StartIMUTask:
.Lfunc_begin3:
	.loc	3 124 0                         @ ../User/Start/WHW_IRQN.c:124:0
	.fnstart
	.cfi_startproc
@ %bb.0:
	.save	{r7, lr}
	push	{r7, lr}
	.cfi_def_cfa_offset 8
	.cfi_offset lr, -4
	.cfi_offset r7, -8
	.pad	#24
	sub	sp, #24
	.cfi_def_cfa_offset 32
	str	r0, [sp, #20]
.Ltmp17:
	.loc	3 126 22 prologue_end           @ ../User/Start/WHW_IRQN.c:126:22
	bl	xTaskGetTickCount
	.loc	3 126 20 is_stmt 0              @ ../User/Start/WHW_IRQN.c:126:20
	str	r0, [sp, #16]
	.loc	3 132 17 is_stmt 1              @ ../User/Start/WHW_IRQN.c:132:17
	movw	r2, :lower16:.L__const.StartIMUTask.imu_temp_PID
	movt	r2, :upper16:.L__const.StartIMUTask.imu_temp_PID
	ldr	r0, [r2]
	ldr	r1, [r2, #4]
	ldr	r2, [r2, #8]
	str	r2, [sp, #12]
	str	r1, [sp, #8]
	str	r0, [sp, #4]
	.loc	3 133 5                         @ ../User/Start/WHW_IRQN.c:133:5
	movw	r0, :lower16:imu_temp
	movt	r0, :upper16:imu_temp
	movs	r1, #0
	str	r1, [sp]                        @ 4-byte Spill
	add	r2, sp, #4
	vldr	s0, .LCPI3_0
	vldr	s1, .LCPI3_1
	bl	PID_init
	vmov.f32	s0, #1.000000e+01
	vldr	s2, .LCPI3_2
	vmov.f32	s3, #1.000000e+00
	vldr	s4, .LCPI3_3
	vldr	s5, .LCPI3_4
	.loc	3 135 5                         @ ../User/Start/WHW_IRQN.c:135:5
	vmov.f32	s1, s4
	bl	IMU_QuaternionEKF_Init
	ldr	r1, [sp]                        @ 4-byte Reload
	.loc	3 136 5                         @ ../User/Start/WHW_IRQN.c:136:5
	movw	r0, :lower16:htim10
	movt	r0, :upper16:htim10
	bl	HAL_TIM_PWM_Start
	.loc	3 137 5                         @ ../User/Start/WHW_IRQN.c:137:5
	b	.LBB3_1
.LBB3_1:                                @ =>This Inner Loop Header: Depth=1
	.loc	3 137 11 is_stmt 0              @ ../User/Start/WHW_IRQN.c:137:11
	bl	BMI088_init
	.loc	3 137 5                         @ ../User/Start/WHW_IRQN.c:137:5
	cbz	r0, .LBB3_3
	b	.LBB3_2
.LBB3_2:                                @   in Loop: Header=BB3_1 Depth=1
	b	.LBB3_1
.LBB3_3:
	.loc	3 139 5 is_stmt 1               @ ../User/Start/WHW_IRQN.c:139:5
	b	.LBB3_4
.LBB3_4:                                @ =>This Inner Loop Header: Depth=1
.Ltmp18:
	.loc	3 141 9                         @ ../User/Start/WHW_IRQN.c:141:9
	movw	r0, :lower16:IMU_Data
	movt	r0, :upper16:IMU_Data
	movw	r1, :lower16:imu_temp
	movt	r1, :upper16:imu_temp
	bl	INS_Task
	.loc	3 145 37                        @ ../User/Start/WHW_IRQN.c:145:37
	movw	r0, :lower16:VisionRxDataTemp
	movt	r0, :upper16:VisionRxDataTemp
	ldrh	r1, [r0, #40]
	adds	r1, #1
	strh	r1, [r0, #40]
.Ltmp19:
	.loc	3 148 29                        @ ../User/Start/WHW_IRQN.c:148:29
	ldrh	r0, [r0, #40]
.Ltmp20:
	.loc	3 148 12 is_stmt 0              @ ../User/Start/WHW_IRQN.c:148:12
	cmp.w	r0, #1000
	blt	.LBB3_6
	b	.LBB3_5
.LBB3_5:                                @   in Loop: Header=BB3_4 Depth=1
.Ltmp21:
	.loc	3 149 38 is_stmt 1              @ ../User/Start/WHW_IRQN.c:149:38
	movw	r1, :lower16:VisionRxDataTemp
	movt	r1, :upper16:VisionRxDataTemp
	mov.w	r0, #1000
	strh	r0, [r1, #40]
	.loc	3 149 44 is_stmt 0              @ ../User/Start/WHW_IRQN.c:149:44
	b	.LBB3_6
.Ltmp22:
.LBB3_6:                                @   in Loop: Header=BB3_4 Depth=1
	.loc	3 151 15 is_stmt 1              @ ../User/Start/WHW_IRQN.c:151:15
	bl	get_battery_voltage
	.loc	3 151 13 is_stmt 0              @ ../User/Start/WHW_IRQN.c:151:13
	movw	r0, :lower16:voltage
	movt	r0, :upper16:voltage
	vstr	s0, [r0]
	add	r0, sp, #16
	movs	r1, #1
	.loc	3 153 9 is_stmt 1               @ ../User/Start/WHW_IRQN.c:153:9
	bl	osDelayUntil
.Ltmp23:
	.loc	3 139 5                         @ ../User/Start/WHW_IRQN.c:139:5
	b	.LBB3_4
.Ltmp24:
	.p2align	2
@ %bb.7:
	.loc	3 0 5 is_stmt 0                 @ ../User/Start/WHW_IRQN.c:0:5
.LCPI3_0:
	.long	0x451c4000                      @ float 2500
.LCPI3_1:
	.long	0x44160000                      @ float 600
.LCPI3_2:
	.long	0x4b189680                      @ float 1.0E+7
.LCPI3_3:
	.long	0x3a83126f                      @ float 0.00100000005
.LCPI3_4:
	.long	0x00000000                      @ float 0
.Lfunc_end3:
	.size	StartIMUTask, .Lfunc_end3-StartIMUTask
	.cfi_endproc
	.cantunwind
	.fnend
                                        @ -- End function
	.section	.text.StartRootTask,"ax",%progbits
	.hidden	StartRootTask                   @ -- Begin function StartRootTask
	.globl	StartRootTask
	.p2align	2
	.type	StartRootTask,%function
	.code	16                              @ @StartRootTask
	.thumb_func
StartRootTask:
.Lfunc_begin4:
	.loc	3 160 0 is_stmt 1               @ ../User/Start/WHW_IRQN.c:160:0
	.fnstart
	.cfi_startproc
@ %bb.0:
	.save	{r7, lr}
	push	{r7, lr}
	.cfi_def_cfa_offset 8
	.cfi_offset lr, -4
	.cfi_offset r7, -8
	.pad	#16
	sub	sp, #16
	.cfi_def_cfa_offset 24
	str	r0, [sp, #12]
.Ltmp25:
	.loc	3 162 23 prologue_end           @ ../User/Start/WHW_IRQN.c:162:23
	bl	xTaskGetTickCount
	.loc	3 162 21 is_stmt 0              @ ../User/Start/WHW_IRQN.c:162:21
	str	r0, [sp, #8]
	.loc	3 165 5 is_stmt 1               @ ../User/Start/WHW_IRQN.c:165:5
	bl	init_vrefint_reciprocal
	.loc	3 167 5                         @ ../User/Start/WHW_IRQN.c:167:5
	b	.LBB4_1
.LBB4_1:                                @ =>This Inner Loop Header: Depth=1
.Ltmp26:
	.loc	3 171 17                        @ ../User/Start/WHW_IRQN.c:171:17
	movw	r2, :lower16:StartRootTask.led_tick
	movt	r2, :upper16:StartRootTask.led_tick
	ldr	r0, [r2]
	adds	r1, r0, #1
	str	r1, [r2]
	movw	r1, #52429
	movt	r1, #52428
.Ltmp27:
	.loc	3 171 9 is_stmt 0               @ ../User/Start/WHW_IRQN.c:171:9
	muls	r0, r1, r0
	cmp.w	r0, #858993459
	bhi	.LBB4_11
	b	.LBB4_2
.LBB4_2:                                @   in Loop: Header=BB4_1 Depth=1
.Ltmp28:
	.loc	3 172 23 is_stmt 1              @ ../User/Start/WHW_IRQN.c:172:23
	movw	r0, :lower16:ALL_state
	movt	r0, :upper16:ALL_state
	ldrb	r0, [r0]
	.loc	3 172 6 is_stmt 0               @ ../User/Start/WHW_IRQN.c:172:6
	mov	r1, r0
	str	r1, [sp, #4]                    @ 4-byte Spill
	cmp	r0, #3
	bhi	.LBB4_9
@ %bb.3:                                @   in Loop: Header=BB4_1 Depth=1
	.loc	3 0 6                           @ ../User/Start/WHW_IRQN.c:0:6
	ldr	r1, [sp, #4]                    @ 4-byte Reload
.LCPI4_0:
	tbb	[pc, r1]
@ %bb.4:
.LJTI4_0:
	.byte	(.LBB4_5-(.LCPI4_0+4))/2
	.byte	(.LBB4_6-(.LCPI4_0+4))/2
	.byte	(.LBB4_7-(.LCPI4_0+4))/2
	.byte	(.LBB4_8-(.LCPI4_0+4))/2
	.p2align	1
.LBB4_5:                                @   in Loop: Header=BB4_1 Depth=1
.Ltmp29:
	.loc	3 174 13 is_stmt 1              @ ../User/Start/WHW_IRQN.c:174:13
	movw	r0, :lower16:colors_off
	movt	r0, :upper16:colors_off
	bl	ws2812_set_colors
	.loc	3 175 13                        @ ../User/Start/WHW_IRQN.c:175:13
	b	.LBB4_10
.LBB4_6:                                @   in Loop: Header=BB4_1 Depth=1
	.loc	3 177 15                        @ ../User/Start/WHW_IRQN.c:177:15
	movw	r0, :lower16:colors_orange
	movt	r0, :upper16:colors_orange
	movw	r1, :lower16:colors_off
	movt	r1, :upper16:colors_off
	bl	ws2812_double_flash_loop_param
	.loc	3 178 13                        @ ../User/Start/WHW_IRQN.c:178:13
	b	.LBB4_10
.LBB4_7:                                @   in Loop: Header=BB4_1 Depth=1
	.loc	3 180 15                        @ ../User/Start/WHW_IRQN.c:180:15
	movw	r0, :lower16:colors_red
	movt	r0, :upper16:colors_red
	movw	r1, :lower16:colors_off
	movt	r1, :upper16:colors_off
	movs	r2, #100
	bl	ws2812_blink_alternate
	.loc	3 181 13                        @ ../User/Start/WHW_IRQN.c:181:13
	b	.LBB4_10
.LBB4_8:                                @   in Loop: Header=BB4_1 Depth=1
	.loc	3 183 15                        @ ../User/Start/WHW_IRQN.c:183:15
	movw	r0, :lower16:colors_orange
	movt	r0, :upper16:colors_orange
	movw	r1, :lower16:colors_cyan
	movt	r1, :upper16:colors_cyan
	bl	ws2812_double_flash_loop_param
	.loc	3 184 13                        @ ../User/Start/WHW_IRQN.c:184:13
	b	.LBB4_10
.LBB4_9:                                @   in Loop: Header=BB4_1 Depth=1
	.loc	3 186 15                        @ ../User/Start/WHW_IRQN.c:186:15
	movw	r0, :lower16:colors_off
	movt	r0, :upper16:colors_off
	bl	ws2812_set_colors
	.loc	3 187 13                        @ ../User/Start/WHW_IRQN.c:187:13
	b	.LBB4_10
.Ltmp30:
.LBB4_10:                               @   in Loop: Header=BB4_1 Depth=1
	.loc	3 0 13 is_stmt 0                @ ../User/Start/WHW_IRQN.c:0:13
	movs	r0, #1
	.loc	3 189 9 is_stmt 1               @ ../User/Start/WHW_IRQN.c:189:9
	bl	Update_Robot_Level
	.loc	3 190 60                        @ ../User/Start/WHW_IRQN.c:190:60
	movw	r0, :lower16:ALL_MOTOR
	movt	r0, :upper16:ALL_MOTOR
	ldr.w	r0, [r0, #2392]
	.loc	3 190 83 is_stmt 0              @ ../User/Start/WHW_IRQN.c:190:83
	movw	r1, :lower16:SysTime
	movt	r1, :upper16:SysTime
	ldrh	r1, [r1, #4]
	.loc	3 190 6                         @ ../User/Start/WHW_IRQN.c:190:6
	bl	Update_Heat_Predictor
	.loc	3 192 3 is_stmt 1               @ ../User/Start/WHW_IRQN.c:192:3
	b	.LBB4_11
.Ltmp31:
.LBB4_11:                               @   in Loop: Header=BB4_1 Depth=1
	.loc	3 193 9                         @ ../User/Start/WHW_IRQN.c:193:9
	movw	r0, :lower16:CAPDATE
	movt	r0, :upper16:CAPDATE
	add.w	r3, r0, #8
	movw	r0, :lower16:RUI_ROOT_STATUS
	movt	r0, :upper16:RUI_ROOT_STATUS
	movw	r1, :lower16:WHW_V_DBUS
	movt	r1, :upper16:WHW_V_DBUS
	movw	r2, :lower16:ALL_MOTOR
	movt	r2, :upper16:ALL_MOTOR
	bl	RUI_F_ROOT
	.loc	3 194 9                         @ ../User/Start/WHW_IRQN.c:194:9
	movw	r0, :lower16:online_status
	movt	r0, :upper16:online_status
	bl	online_time_control
	add	r0, sp, #8
	movs	r1, #5
	.loc	3 195 9                         @ ../User/Start/WHW_IRQN.c:195:9
	bl	osDelayUntil
.Ltmp32:
	.loc	3 167 5                         @ ../User/Start/WHW_IRQN.c:167:5
	b	.LBB4_1
.Ltmp33:
.Lfunc_end4:
	.size	StartRootTask, .Lfunc_end4-StartRootTask
	.cfi_endproc
	.cantunwind
	.fnend
                                        @ -- End function
	.section	.text.BSP_TIM_IRQHandler,"ax",%progbits
	.hidden	BSP_TIM_IRQHandler              @ -- Begin function BSP_TIM_IRQHandler
	.globl	BSP_TIM_IRQHandler
	.p2align	2
	.type	BSP_TIM_IRQHandler,%function
	.code	16                              @ @BSP_TIM_IRQHandler
	.thumb_func
BSP_TIM_IRQHandler:
.Lfunc_begin5:
	.loc	3 200 0                         @ ../User/Start/WHW_IRQN.c:200:0
	.fnstart
	.cfi_startproc
@ %bb.0:
	.pad	#4
	sub	sp, #4
	.cfi_def_cfa_offset 4
	str	r0, [sp]
.Ltmp34:
	.loc	3 201 6 prologue_end            @ ../User/Start/WHW_IRQN.c:201:6
	ldr	r0, [sp]
	.loc	3 201 12 is_stmt 0              @ ../User/Start/WHW_IRQN.c:201:12
	ldr	r0, [r0]
	movw	r1, #5120
	movt	r1, #16384
.Ltmp35:
	.loc	3 201 6                         @ ../User/Start/WHW_IRQN.c:201:6
	cmp	r0, r1
	bne	.LBB5_2
	b	.LBB5_1
.LBB5_1:
.Ltmp36:
	.loc	3 209 2 is_stmt 1               @ ../User/Start/WHW_IRQN.c:209:2
	b	.LBB5_2
.Ltmp37:
.LBB5_2:
	.loc	3 210 1                         @ ../User/Start/WHW_IRQN.c:210:1
	add	sp, #4
	bx	lr
.Ltmp38:
.Lfunc_end5:
	.size	BSP_TIM_IRQHandler, .Lfunc_end5-BSP_TIM_IRQHandler
	.cfi_endproc
	.cantunwind
	.fnend
                                        @ -- End function
	.section	.text.HAL_CAN_RxFifo0MsgPendingCallback,"ax",%progbits
	.hidden	HAL_CAN_RxFifo0MsgPendingCallback @ -- Begin function HAL_CAN_RxFifo0MsgPendingCallback
	.globl	HAL_CAN_RxFifo0MsgPendingCallback
	.p2align	2
	.type	HAL_CAN_RxFifo0MsgPendingCallback,%function
	.code	16                              @ @HAL_CAN_RxFifo0MsgPendingCallback
	.thumb_func
HAL_CAN_RxFifo0MsgPendingCallback:
.Lfunc_begin6:
	.loc	3 225 0                         @ ../User/Start/WHW_IRQN.c:225:0
	.fnstart
	.cfi_startproc
@ %bb.0:
	.save	{r7, lr}
	push	{r7, lr}
	.cfi_def_cfa_offset 8
	.cfi_offset lr, -4
	.cfi_offset r7, -8
	.pad	#48
	sub	sp, #48
	.cfi_def_cfa_offset 56
	str	r0, [sp, #44]
.Ltmp39:
	.loc	3 229 26 prologue_end           @ ../User/Start/WHW_IRQN.c:229:26
	ldr	r0, [sp, #44]
	movs	r1, #0
	add	r2, sp, #16
	add	r3, sp, #8
	.loc	3 229 5 is_stmt 0               @ ../User/Start/WHW_IRQN.c:229:5
	bl	HAL_CAN_GetRxMessage
.Ltmp40:
	.loc	3 231 6 is_stmt 1               @ ../User/Start/WHW_IRQN.c:231:6
	ldr	r0, [sp, #44]
	.loc	3 231 11 is_stmt 0              @ ../User/Start/WHW_IRQN.c:231:11
	movw	r1, :lower16:hcan1
	movt	r1, :upper16:hcan1
.Ltmp41:
	.loc	3 231 6                         @ ../User/Start/WHW_IRQN.c:231:6
	cmp	r0, r1
	bne	.LBB6_10
	b	.LBB6_1
.LBB6_1:
.Ltmp42:
	.loc	3 234 18 is_stmt 1              @ ../User/Start/WHW_IRQN.c:234:18
	ldr	r0, [sp, #16]
	.loc	3 234 3 is_stmt 0               @ ../User/Start/WHW_IRQN.c:234:3
	str	r0, [sp, #4]                    @ 4-byte Spill
	cmp.w	r0, #322
	beq	.LBB6_8
	b	.LBB6_2
.LBB6_2:
	.loc	3 0 3                           @ ../User/Start/WHW_IRQN.c:0:3
	ldr	r0, [sp, #4]                    @ 4-byte Reload
	movw	r1, #514
	.loc	3 234 3                         @ ../User/Start/WHW_IRQN.c:234:3
	cmp	r0, r1
	beq	.LBB6_5
	b	.LBB6_3
.LBB6_3:
	.loc	3 0 3                           @ ../User/Start/WHW_IRQN.c:0:3
	ldr	r0, [sp, #4]                    @ 4-byte Reload
	movw	r1, #515
	.loc	3 234 3                         @ ../User/Start/WHW_IRQN.c:234:3
	cmp	r0, r1
	beq	.LBB6_6
	b	.LBB6_4
.LBB6_4:
	ldr	r0, [sp, #4]                    @ 4-byte Reload
	cmp.w	r0, #516
	beq	.LBB6_7
	b	.LBB6_9
.LBB6_5:
.Ltmp43:
	.loc	3 237 17 is_stmt 1              @ ../User/Start/WHW_IRQN.c:237:17
	movw	r0, :lower16:ALL_MOTOR
	movt	r0, :upper16:ALL_MOTOR
	add.w	r0, r0, #1256
	add	r1, sp, #8
	bl	RUI_F_MOTOR_CAN_RX_3508RM_rc
	.loc	3 238 13                        @ ../User/Start/WHW_IRQN.c:238:13
	movw	r1, :lower16:test
	movt	r1, :upper16:test
	ldr	r0, [sp, #8]
	ldr	r2, [sp, #12]
	str	r2, [r1, #4]
	str	r0, [r1]
	.loc	3 239 41                        @ ../User/Start/WHW_IRQN.c:239:41
	movw	r1, :lower16:online_status
	movt	r1, :upper16:online_status
	movs	r0, #0
	strb	r0, [r1, #4]
	.loc	3 240 17                        @ ../User/Start/WHW_IRQN.c:240:17
	b	.LBB6_9
.LBB6_6:
	.loc	3 243 17                        @ ../User/Start/WHW_IRQN.c:243:17
	movw	r0, :lower16:ALL_MOTOR
	movt	r0, :upper16:ALL_MOTOR
	addw	r0, r0, #2376
	add	r1, sp, #8
	bl	RUI_F_MOTOR_CAN_RX_3508RM
	.loc	3 244 38                        @ ../User/Start/WHW_IRQN.c:244:38
	movw	r1, :lower16:online_status
	movt	r1, :upper16:online_status
	movs	r0, #0
	strb	r0, [r1, #6]
	.loc	3 245 17                        @ ../User/Start/WHW_IRQN.c:245:17
	b	.LBB6_9
.LBB6_7:
	.loc	3 248 17                        @ ../User/Start/WHW_IRQN.c:248:17
	movw	r0, :lower16:ALL_MOTOR
	movt	r0, :upper16:ALL_MOTOR
	add.w	r0, r0, #1816
	add	r1, sp, #8
	bl	RUI_F_MOTOR_CAN_RX_3508RM_rc
	.loc	3 249 37                        @ ../User/Start/WHW_IRQN.c:249:37
	movw	r1, :lower16:online_status
	movt	r1, :upper16:online_status
	movs	r0, #0
	strb	r0, [r1, #5]
	.loc	3 250 17                        @ ../User/Start/WHW_IRQN.c:250:17
	b	.LBB6_9
.LBB6_8:
	.loc	3 254 17                        @ ../User/Start/WHW_IRQN.c:254:17
	movw	r0, :lower16:ALL_MOTOR
	movt	r0, :upper16:ALL_MOTOR
	add	r1, sp, #8
	bl	LK_MotorResolve
	.loc	3 255 41                        @ ../User/Start/WHW_IRQN.c:255:41
	movw	r1, :lower16:online_status
	movt	r1, :upper16:online_status
	movs	r0, #0
	strb	r0, [r1, #2]
	.loc	3 256 17                        @ ../User/Start/WHW_IRQN.c:256:17
	b	.LBB6_9
.Ltmp44:
.LBB6_9:
	.loc	3 259 2                         @ ../User/Start/WHW_IRQN.c:259:2
	b	.LBB6_10
.Ltmp45:
.LBB6_10:
	.loc	3 260 6                         @ ../User/Start/WHW_IRQN.c:260:6
	ldr	r0, [sp, #44]
	.loc	3 260 11 is_stmt 0              @ ../User/Start/WHW_IRQN.c:260:11
	movw	r1, :lower16:hcan2
	movt	r1, :upper16:hcan2
.Ltmp46:
	.loc	3 260 6                         @ ../User/Start/WHW_IRQN.c:260:6
	cmp	r0, r1
	bne	.LBB6_14
	b	.LBB6_11
.LBB6_11:
.Ltmp47:
	.loc	3 263 18 is_stmt 1              @ ../User/Start/WHW_IRQN.c:263:18
	ldr	r0, [sp, #16]
	movw	r1, #773
	.loc	3 263 3 is_stmt 0               @ ../User/Start/WHW_IRQN.c:263:3
	cmp	r0, r1
	bne	.LBB6_13
	b	.LBB6_12
.LBB6_12:
.Ltmp48:
	.loc	3 267 17 is_stmt 1              @ ../User/Start/WHW_IRQN.c:267:17
	movw	r0, :lower16:ALL_MOTOR
	movt	r0, :upper16:ALL_MOTOR
	movw	r1, #5168
	add	r0, r1
	add	r1, sp, #8
	bl	dm_RXdata
	.loc	3 268 39                        @ ../User/Start/WHW_IRQN.c:268:39
	movw	r1, :lower16:online_status
	movt	r1, :upper16:online_status
	movs	r0, #0
	strb	r0, [r1, #3]
	.loc	3 269 17                        @ ../User/Start/WHW_IRQN.c:269:17
	b	.LBB6_13
.Ltmp49:
.LBB6_13:
	.loc	3 272 2                         @ ../User/Start/WHW_IRQN.c:272:2
	b	.LBB6_14
.Ltmp50:
.LBB6_14:
	.loc	3 273 1                         @ ../User/Start/WHW_IRQN.c:273:1
	add	sp, #48
	pop	{r7, pc}
.Ltmp51:
.Lfunc_end6:
	.size	HAL_CAN_RxFifo0MsgPendingCallback, .Lfunc_end6-HAL_CAN_RxFifo0MsgPendingCallback
	.cfi_endproc
	.cantunwind
	.fnend
                                        @ -- End function
	.section	.text.WHW_MCP2515_Callback,"ax",%progbits
	.hidden	WHW_MCP2515_Callback            @ -- Begin function WHW_MCP2515_Callback
	.globl	WHW_MCP2515_Callback
	.p2align	2
	.type	WHW_MCP2515_Callback,%function
	.code	16                              @ @WHW_MCP2515_Callback
	.thumb_func
WHW_MCP2515_Callback:
.Lfunc_begin7:
	.loc	3 276 0                         @ ../User/Start/WHW_IRQN.c:276:0
	.fnstart
	.cfi_startproc
@ %bb.0:
	.pad	#16
	sub	sp, #16
	.cfi_def_cfa_offset 16
	str	r0, [sp, #12]
	str	r1, [sp, #8]
.Ltmp52:
	.loc	3 277 9 prologue_end            @ ../User/Start/WHW_IRQN.c:277:9
	ldr	r0, [sp, #12]
	.loc	3 277 15 is_stmt 0              @ ../User/Start/WHW_IRQN.c:277:15
	ldr	r0, [r0]
	movw	r1, #14336
	movt	r1, #16384
.Ltmp53:
	.loc	3 277 9                         @ ../User/Start/WHW_IRQN.c:277:9
	cmp	r0, r1
	bne	.LBB7_4
	b	.LBB7_1
.LBB7_1:
.Ltmp54:
	.loc	3 279 33 is_stmt 1              @ ../User/Start/WHW_IRQN.c:279:33
	ldr	r1, [sp, #8]
	.loc	3 279 9 is_stmt 0               @ ../User/Start/WHW_IRQN.c:279:9
	ldr.w	r0, [r1, #6]
	ldr.w	r1, [r1, #10]
	str	r1, [sp, #4]
	str	r0, [sp]
	.loc	3 280 17 is_stmt 1              @ ../User/Start/WHW_IRQN.c:280:17
	ldr	r0, [sp, #8]
	.loc	3 280 34 is_stmt 0              @ ../User/Start/WHW_IRQN.c:280:34
	ldr.w	r0, [r0, #1]
	movw	r1, #513
	.loc	3 280 9                         @ ../User/Start/WHW_IRQN.c:280:9
	cmp	r0, r1
	bne	.LBB7_3
	b	.LBB7_2
.LBB7_2:
.Ltmp55:
	.loc	3 284 17 is_stmt 1              @ ../User/Start/WHW_IRQN.c:284:17
	b	.LBB7_3
.Ltmp56:
.LBB7_3:
	.loc	3 286 5                         @ ../User/Start/WHW_IRQN.c:286:5
	b	.LBB7_4
.Ltmp57:
.LBB7_4:
	.loc	3 287 1                         @ ../User/Start/WHW_IRQN.c:287:1
	add	sp, #16
	bx	lr
.Ltmp58:
.Lfunc_end7:
	.size	WHW_MCP2515_Callback, .Lfunc_end7-WHW_MCP2515_Callback
	.cfi_endproc
	.cantunwind
	.fnend
                                        @ -- End function
	.section	.text.HAL_GPIO_EXTI_Callback,"ax",%progbits
	.hidden	HAL_GPIO_EXTI_Callback          @ -- Begin function HAL_GPIO_EXTI_Callback
	.globl	HAL_GPIO_EXTI_Callback
	.p2align	2
	.type	HAL_GPIO_EXTI_Callback,%function
	.code	16                              @ @HAL_GPIO_EXTI_Callback
	.thumb_func
HAL_GPIO_EXTI_Callback:
.Lfunc_begin8:
	.loc	3 290 0                         @ ../User/Start/WHW_IRQN.c:290:0
	.fnstart
	.cfi_startproc
@ %bb.0:
	.save	{r7, lr}
	push	{r7, lr}
	.cfi_def_cfa_offset 8
	.cfi_offset lr, -4
	.cfi_offset r7, -8
	.pad	#8
	sub	sp, #8
	.cfi_def_cfa_offset 16
                                        @ kill: def $r1 killed $r0
	strh.w	r0, [sp, #6]
.Ltmp59:
	.loc	3 291 9 prologue_end            @ ../User/Start/WHW_IRQN.c:291:9
	ldrh.w	r0, [sp, #6]
.Ltmp60:
	.loc	3 291 9 is_stmt 0               @ ../User/Start/WHW_IRQN.c:291:9
	cmp	r0, #2
	bne	.LBB8_4
	b	.LBB8_1
.LBB8_1:
.Ltmp61:
	.loc	3 292 24 is_stmt 1              @ ../User/Start/WHW_IRQN.c:292:24
	movw	r0, :lower16:hspi2
	movt	r0, :upper16:hspi2
	movw	r1, :lower16:rxMessage1
	movt	r1, :upper16:rxMessage1
	bl	WHW_CANSPI_Receive
	.loc	3 292 17 is_stmt 0              @ ../User/Start/WHW_IRQN.c:292:17
	strb.w	r0, [sp, #5]
.Ltmp62:
	.loc	3 293 12 is_stmt 1              @ ../User/Start/WHW_IRQN.c:293:12
	ldrb.w	r0, [sp, #5]
.Ltmp63:
	.loc	3 293 12 is_stmt 0              @ ../User/Start/WHW_IRQN.c:293:12
	cbz	r0, .LBB8_3
	b	.LBB8_2
.LBB8_2:
.Ltmp64:
	.loc	3 294 13 is_stmt 1              @ ../User/Start/WHW_IRQN.c:294:13
	movw	r0, :lower16:hspi2
	movt	r0, :upper16:hspi2
	movw	r1, :lower16:rxMessage1
	movt	r1, :upper16:rxMessage1
	bl	WHW_MCP2515_Callback
	b	.LBB8_3
.Ltmp65:
.LBB8_3:
	.loc	3 295 9                         @ ../User/Start/WHW_IRQN.c:295:9
	movw	r0, :lower16:hspi2
	movt	r0, :upper16:hspi2
	bl	WHW_MCP2515_IRQHandler
	.loc	3 296 5                         @ ../User/Start/WHW_IRQN.c:296:5
	b	.LBB8_4
.Ltmp66:
.LBB8_4:
	.loc	3 297 1                         @ ../User/Start/WHW_IRQN.c:297:1
	add	sp, #8
	pop	{r7, pc}
.Ltmp67:
.Lfunc_end8:
	.size	HAL_GPIO_EXTI_Callback, .Lfunc_end8-HAL_GPIO_EXTI_Callback
	.cfi_endproc
	.cantunwind
	.fnend
                                        @ -- End function
	.section	.text.BSP_UART_IRQHandler,"ax",%progbits
	.hidden	BSP_UART_IRQHandler             @ -- Begin function BSP_UART_IRQHandler
	.globl	BSP_UART_IRQHandler
	.p2align	2
	.type	BSP_UART_IRQHandler,%function
	.code	16                              @ @BSP_UART_IRQHandler
	.thumb_func
BSP_UART_IRQHandler:
.Lfunc_begin9:
	.loc	3 305 0                         @ ../User/Start/WHW_IRQN.c:305:0
	.fnstart
	.cfi_startproc
@ %bb.0:
	.save	{r7, lr}
	push	{r7, lr}
	.cfi_def_cfa_offset 8
	.cfi_offset lr, -4
	.cfi_offset r7, -8
	.pad	#16
	sub	sp, #16
	.cfi_def_cfa_offset 24
	str	r0, [sp, #12]
.Ltmp68:
	.loc	3 306 8 prologue_end            @ ../User/Start/WHW_IRQN.c:306:8
	ldr	r0, [sp, #12]
	.loc	3 306 15 is_stmt 0              @ ../User/Start/WHW_IRQN.c:306:15
	ldr	r0, [r0]
	movw	r1, #18432
	movt	r1, #16384
.Ltmp69:
	.loc	3 306 8                         @ ../User/Start/WHW_IRQN.c:306:8
	cmp	r0, r1
	bne	.LBB9_8
	b	.LBB9_1
.LBB9_1:
.Ltmp70:
	.loc	3 308 35 is_stmt 1              @ ../User/Start/WHW_IRQN.c:308:35
	movw	r0, :lower16:huart3
	movt	r0, :upper16:huart3
	ldr	r0, [r0]
	.loc	3 308 45 is_stmt 0              @ ../User/Start/WHW_IRQN.c:308:45
	ldr	r0, [r0]
	.loc	3 308 48                        @ ../User/Start/WHW_IRQN.c:308:48
	and	r1, r0, #16
	movs	r0, #0
.Ltmp71:
	.loc	3 308 13                        @ ../User/Start/WHW_IRQN.c:308:13
	cmp.w	r0, r1, lsr #4
	beq	.LBB9_7
	b	.LBB9_2
.LBB9_2:
	.loc	3 0 13                          @ ../User/Start/WHW_IRQN.c:0:13
	movs	r0, #0
.Ltmp72:
	.loc	3 310 13 is_stmt 1              @ ../User/Start/WHW_IRQN.c:310:13
	strh.w	r0, [sp, #10]
	.loc	3 311 13                        @ ../User/Start/WHW_IRQN.c:311:13
	b	.LBB9_3
.LBB9_3:
	.loc	3 0 13 is_stmt 0                @ ../User/Start/WHW_IRQN.c:0:13
	movs	r0, #0
.Ltmp73:
	.loc	3 311 35                        @ ../User/Start/WHW_IRQN.c:311:35
	str	r0, [sp, #4]
	.loc	3 311 71                        @ ../User/Start/WHW_IRQN.c:311:71
	movw	r0, :lower16:huart3
	movt	r0, :upper16:huart3
	ldr	r1, [r0]
	.loc	3 311 81                        @ ../User/Start/WHW_IRQN.c:311:81
	ldr	r1, [r1]
	.loc	3 311 58                        @ ../User/Start/WHW_IRQN.c:311:58
	str	r1, [sp, #4]
	.loc	3 311 105                       @ ../User/Start/WHW_IRQN.c:311:105
	ldr	r0, [r0]
	.loc	3 311 115                       @ ../User/Start/WHW_IRQN.c:311:115
	ldr	r0, [r0, #4]
	.loc	3 311 92                        @ ../User/Start/WHW_IRQN.c:311:92
	str	r0, [sp, #4]
	.loc	3 311 125                       @ ../User/Start/WHW_IRQN.c:311:125
	ldr	r0, [sp, #4]
	.loc	3 311 133                       @ ../User/Start/WHW_IRQN.c:311:133
	b	.LBB9_4
.Ltmp74:
.LBB9_4:
	.loc	3 312 18 is_stmt 1              @ ../User/Start/WHW_IRQN.c:312:18
	movw	r0, :lower16:huart3
	movt	r0, :upper16:huart3
	ldr	r1, [r0]
	.loc	3 312 30 is_stmt 0              @ ../User/Start/WHW_IRQN.c:312:30
	ldr	r1, [r1]
	.loc	3 312 9                         @ ../User/Start/WHW_IRQN.c:312:9
	strh.w	r1, [sp, #10]
	.loc	3 313 18 is_stmt 1              @ ../User/Start/WHW_IRQN.c:313:18
	ldr	r1, [r0]
	.loc	3 313 30 is_stmt 0              @ ../User/Start/WHW_IRQN.c:313:30
	ldr	r1, [r1, #4]
	.loc	3 313 9                         @ ../User/Start/WHW_IRQN.c:313:9
	strh.w	r1, [sp, #10]
	.loc	3 315 13 is_stmt 1              @ ../User/Start/WHW_IRQN.c:315:13
	bl	HAL_UART_DMAStop
.Ltmp75:
	.loc	3 317 43                        @ ../User/Start/WHW_IRQN.c:317:43
	movw	r0, :lower16:hdma_usart3_rx
	movt	r0, :upper16:hdma_usart3_rx
	ldr	r0, [r0]
	.loc	3 317 53 is_stmt 0              @ ../User/Start/WHW_IRQN.c:317:53
	ldr	r0, [r0, #4]
.Ltmp76:
	.loc	3 317 16                        @ ../User/Start/WHW_IRQN.c:317:16
	cmp	r0, #19
	bne	.LBB9_6
	b	.LBB9_5
.LBB9_5:
.Ltmp77:
	.loc	3 318 17 is_stmt 1              @ ../User/Start/WHW_IRQN.c:318:17
	movw	r0, :lower16:DBUS_RX_DATA
	movt	r0, :upper16:DBUS_RX_DATA
	movw	r1, :lower16:WHW_V_DBUS
	movt	r1, :upper16:WHW_V_DBUS
	bl	RUI_F_DUBS_Resovled
	b	.LBB9_6
.Ltmp78:
.LBB9_6:
	.loc	3 320 13                        @ ../User/Start/WHW_IRQN.c:320:13
	movw	r0, :lower16:huart3
	movt	r0, :upper16:huart3
	movw	r1, :lower16:DBUS_RX_DATA
	movt	r1, :upper16:DBUS_RX_DATA
	movs	r2, #37
	bl	HAL_UART_Receive_DMA
	.loc	3 321 9                         @ ../User/Start/WHW_IRQN.c:321:9
	b	.LBB9_7
.Ltmp79:
.LBB9_7:
	.loc	3 323 5                         @ ../User/Start/WHW_IRQN.c:323:5
	b	.LBB9_8
.Ltmp80:
.LBB9_8:
	.loc	3 360 1                         @ ../User/Start/WHW_IRQN.c:360:1
	add	sp, #16
	pop	{r7, pc}
.Ltmp81:
.Lfunc_end9:
	.size	BSP_UART_IRQHandler, .Lfunc_end9-BSP_UART_IRQHandler
	.cfi_endproc
	.cantunwind
	.fnend
                                        @ -- End function
	.section	.text.HAL_UARTEx_RxEventCallback,"ax",%progbits
	.hidden	HAL_UARTEx_RxEventCallback      @ -- Begin function HAL_UARTEx_RxEventCallback
	.globl	HAL_UARTEx_RxEventCallback
	.p2align	2
	.type	HAL_UARTEx_RxEventCallback,%function
	.code	16                              @ @HAL_UARTEx_RxEventCallback
	.thumb_func
HAL_UARTEx_RxEventCallback:
.Lfunc_begin10:
	.loc	3 376 0                         @ ../User/Start/WHW_IRQN.c:376:0
	.fnstart
	.cfi_startproc
@ %bb.0:
	.save	{r7, lr}
	push	{r7, lr}
	.cfi_def_cfa_offset 8
	.cfi_offset lr, -4
	.cfi_offset r7, -8
	.pad	#16
	sub	sp, #16
	.cfi_def_cfa_offset 24
                                        @ kill: def $r2 killed $r1
	str	r0, [sp, #12]
	strh.w	r1, [sp, #10]
.Ltmp82:
	.loc	3 377 19 prologue_end           @ ../User/Start/WHW_IRQN.c:377:19
	ldr	r0, [sp, #12]
	.loc	3 377 26 is_stmt 0              @ ../User/Start/WHW_IRQN.c:377:26
	ldr	r0, [r0, #40]
	.loc	3 377 11                        @ ../User/Start/WHW_IRQN.c:377:11
	str	r0, [sp, #4]
.Ltmp83:
	.loc	3 378 6 is_stmt 1               @ ../User/Start/WHW_IRQN.c:378:6
	ldr	r0, [sp, #12]
	.loc	3 378 13 is_stmt 0              @ ../User/Start/WHW_IRQN.c:378:13
	ldr	r0, [r0]
	movw	r1, #4096
	movt	r1, #16385
.Ltmp84:
	.loc	3 378 6                         @ ../User/Start/WHW_IRQN.c:378:6
	cmp	r0, r1
	bne	.LBB10_4
	b	.LBB10_1
.LBB10_1:
.Ltmp85:
	.loc	3 379 13 is_stmt 1              @ ../User/Start/WHW_IRQN.c:379:13
	ldrh.w	r0, [sp, #10]
.Ltmp86:
	.loc	3 379 13 is_stmt 0              @ ../User/Start/WHW_IRQN.c:379:13
	cmp	r0, #21
	bne	.LBB10_3
	b	.LBB10_2
.LBB10_2:
.Ltmp87:
	.loc	3 380 13 is_stmt 1              @ ../User/Start/WHW_IRQN.c:380:13
	movw	r0, :lower16:VT13_RX_DATA
	movt	r0, :upper16:VT13_RX_DATA
	movw	r1, :lower16:VT13_DBUS
	movt	r1, :upper16:VT13_DBUS
	movw	r2, :lower16:VT13_UNION
	movt	r2, :upper16:VT13_UNION
	bl	VT13_Resovled
	.loc	3 381 9                         @ ../User/Start/WHW_IRQN.c:381:9
	b	.LBB10_3
.Ltmp88:
.LBB10_3:
	.loc	3 382 5                         @ ../User/Start/WHW_IRQN.c:382:5
	b	.LBB10_4
.Ltmp89:
.LBB10_4:
	.loc	3 383 6                         @ ../User/Start/WHW_IRQN.c:383:6
	ldr	r0, [sp, #12]
	.loc	3 383 13 is_stmt 0              @ ../User/Start/WHW_IRQN.c:383:13
	ldr	r0, [r0]
	movw	r1, #5120
	movt	r1, #16385
.Ltmp90:
	.loc	3 383 6                         @ ../User/Start/WHW_IRQN.c:383:6
	cmp	r0, r1
	bne	.LBB10_6
	b	.LBB10_5
.LBB10_5:
.Ltmp91:
	.loc	3 384 30 is_stmt 1              @ ../User/Start/WHW_IRQN.c:384:30
	ldr	r2, [sp, #4]
	.loc	3 384 36 is_stmt 0              @ ../User/Start/WHW_IRQN.c:384:36
	movw	r0, :lower16:Referee_Rx_Buf
	movt	r0, :upper16:Referee_Rx_Buf
	.loc	3 384 29                        @ ../User/Start/WHW_IRQN.c:384:29
	add.w	r1, r0, #256
	cmp	r2, r0
	it	eq
	moveq	r0, r1
	.loc	3 384 18                        @ ../User/Start/WHW_IRQN.c:384:18
	str	r0, [sp]
	.loc	3 385 38 is_stmt 1              @ ../User/Start/WHW_IRQN.c:385:38
	ldr	r0, [sp, #12]
	.loc	3 385 45 is_stmt 0              @ ../User/Start/WHW_IRQN.c:385:45
	ldr	r1, [sp]
	mov.w	r2, #256
	.loc	3 385 9                         @ ../User/Start/WHW_IRQN.c:385:9
	bl	HAL_UARTEx_ReceiveToIdle_DMA
	.loc	3 386 37 is_stmt 1              @ ../User/Start/WHW_IRQN.c:386:37
	ldr	r0, [sp, #4]
	.loc	3 386 43 is_stmt 0              @ ../User/Start/WHW_IRQN.c:386:43
	ldrh.w	r1, [sp, #10]
	.loc	3 386 9                         @ ../User/Start/WHW_IRQN.c:386:9
	bl	Referee_System_Frame_Update
	.loc	3 387 5 is_stmt 1               @ ../User/Start/WHW_IRQN.c:387:5
	b	.LBB10_6
.Ltmp92:
.LBB10_6:
	.loc	3 388 1                         @ ../User/Start/WHW_IRQN.c:388:1
	add	sp, #16
	pop	{r7, pc}
.Ltmp93:
.Lfunc_end10:
	.size	HAL_UARTEx_RxEventCallback, .Lfunc_end10-HAL_UARTEx_RxEventCallback
	.cfi_endproc
	.cantunwind
	.fnend
                                        @ -- End function
	.hidden	VisionRxDataTemp                @ @VisionRxDataTemp
	.type	VisionRxDataTemp,%object
	.section	.bss.VisionRxDataTemp,"aw",%nobits
	.globl	VisionRxDataTemp
	.p2align	2
VisionRxDataTemp:
	.zero	68
	.size	VisionRxDataTemp, 68

	.hidden	ui_cnt                          @ @ui_cnt
	.type	ui_cnt,%object
	.section	.bss.ui_cnt,"aw",%nobits
	.globl	ui_cnt
	.p2align	2
ui_cnt:
	.long	0                               @ 0x0
	.size	ui_cnt, 4

	.hidden	move_G                          @ @move_G
	.type	move_G,%object
	.section	.bss.move_G,"aw",%nobits
	.globl	move_G
move_G:
	.byte	0                               @ 0x0
	.size	move_G, 1

	.hidden	move_S                          @ @move_S
	.type	move_S,%object
	.section	.bss.move_S,"aw",%nobits
	.globl	move_S
move_S:
	.byte	0                               @ 0x0
	.size	move_S, 1

	.type	.L__const.StartIMUTask.imu_temp_PID,%object @ @__const.StartIMUTask.imu_temp_PID
	.section	.rodata..L__const.StartIMUTask.imu_temp_PID,"a",%progbits
	.p2align	2
.L__const.StartIMUTask.imu_temp_PID:
	.long	0x44c80000                      @ float 1600
	.long	0x3ca3d70a                      @ float 0.0199999996
	.long	0x40a00000                      @ float 5
	.size	.L__const.StartIMUTask.imu_temp_PID, 12

	.type	StartRootTask.led_tick,%object  @ @StartRootTask.led_tick
	.section	.bss.StartRootTask.led_tick,"aw",%nobits
	.p2align	2
StartRootTask.led_tick:
	.long	0                               @ 0x0
	.size	StartRootTask.led_tick, 4

	.hidden	test                            @ @test
	.type	test,%object
	.section	.bss.test,"aw",%nobits
	.globl	test
test:
	.zero	8
	.size	test, 8

	.hidden	move_C                          @ @move_C
	.type	move_C,%object
	.section	.bss.move_C,"aw",%nobits
	.globl	move_C
move_C:
	.byte	0                               @ 0x0
	.size	move_C, 1

	.hidden	move_P                          @ @move_P
	.type	move_P,%object
	.section	.bss.move_P,"aw",%nobits
	.globl	move_P
move_P:
	.byte	0                               @ 0x0
	.size	move_P, 1

	.hidden	t1                              @ @t1
	.type	t1,%object
	.section	.bss.t1,"aw",%nobits
	.globl	t1
	.p2align	2
t1:
	.long	0x00000000                      @ float 0
	.size	t1, 4

	.hidden	t2                              @ @t2
	.type	t2,%object
	.section	.bss.t2,"aw",%nobits
	.globl	t2
	.p2align	2
t2:
	.long	0x00000000                      @ float 0
	.size	t2, 4

	.hidden	dt                              @ @dt
	.type	dt,%object
	.section	.bss.dt,"aw",%nobits
	.globl	dt
	.p2align	2
dt:
	.long	0x00000000                      @ float 0
	.size	dt, 4

	.hidden	Residual_heat                   @ @Residual_heat
	.type	Residual_heat,%object
	.section	.bss.Residual_heat,"aw",%nobits
	.globl	Residual_heat
	.p2align	2
Residual_heat:
	.long	0                               @ 0x0
	.size	Residual_heat, 4

	.hidden	data_length_1                   @ @data_length_1
	.type	data_length_1,%object
	.section	.bss.data_length_1,"aw",%nobits
	.globl	data_length_1
data_length_1:
	.byte	0                               @ 0x0
	.size	data_length_1, 1

	.file	13 "D:\\horizon\\Horizon_Infantry (2)\\MDK-ARM" "../Middlewares/Third_Party/FreeRTOS/Source/portable/RVDS/ARM_CM4F\\portmacro.h"
	.file	14 "D:\\horizon\\Horizon_Infantry (2)\\MDK-ARM" "../User/Bsp/inc\\CANSPI.h"
	.section	".note.GNU-stack","",%progbits
	.eabi_attribute	30, 6	@ Tag_ABI_optimization_goals
	.ARM_attribute	16, 1	@ Tag_AV_eba